	.arch armv8-a
	.file	"main.cpp"
	.text
	.section	.text._ZnwmPv,"axG",@progbits,_ZnwmPv,comdat
	.align	2
	.weak	_ZnwmPv
	.type	_ZnwmPv, %function
_ZnwmPv:
.LFB38:
	.cfi_startproc
	sub	sp, sp, #16
	.cfi_def_cfa_offset 16
	str	x0, [sp, 8]
	str	x1, [sp]
	ldr	x0, [sp]
	add	sp, sp, 16
	.cfi_def_cfa_offset 0
	ret
	.cfi_endproc
.LFE38:
	.size	_ZnwmPv, .-_ZnwmPv
	.section	.text._ZdlPvS_,"axG",@progbits,_ZdlPvS_,comdat
	.align	2
	.weak	_ZdlPvS_
	.type	_ZdlPvS_, %function
_ZdlPvS_:
.LFB40:
	.cfi_startproc
	sub	sp, sp, #16
	.cfi_def_cfa_offset 16
	str	x0, [sp, 8]
	str	x1, [sp]
	nop
	add	sp, sp, 16
	.cfi_def_cfa_offset 0
	ret
	.cfi_endproc
.LFE40:
	.size	_ZdlPvS_, .-_ZdlPvS_
	.weak	_ZSt19piecewise_construct
	.section	.rodata._ZSt19piecewise_construct,"aG",@progbits,_ZSt19piecewise_construct,comdat
	.align	3
	.type	_ZSt19piecewise_construct, %gnu_unique_object
	.size	_ZSt19piecewise_construct, 1
_ZSt19piecewise_construct:
	.zero	1
	.section	.text._ZNSt11char_traitsIcE6lengthEPKc,"axG",@progbits,_ZNSt11char_traitsIcE6lengthEPKc,comdat
	.align	2
	.weak	_ZNSt11char_traitsIcE6lengthEPKc
	.type	_ZNSt11char_traitsIcE6lengthEPKc, %function
_ZNSt11char_traitsIcE6lengthEPKc:
.LFB449:
	.cfi_startproc
	stp	x29, x30, [sp, -48]!
	.cfi_def_cfa_offset 48
	.cfi_offset 29, -48
	.cfi_offset 30, -40
	mov	x29, sp
	str	x0, [sp, 24]
	ldr	x0, [sp, 24]
	str	x0, [sp, 40]
	mov	w0, 0
	cmp	w0, 0
	beq	.L6
	ldr	x0, [sp, 24]
	bl	_ZN9__gnu_cxx11char_traitsIcE6lengthEPKc
	b	.L7
.L6:
	ldr	x0, [sp, 24]
	bl	strlen
	nop
.L7:
	ldp	x29, x30, [sp], 48
	.cfi_restore 30
	.cfi_restore 29
	.cfi_def_cfa_offset 0
	ret
	.cfi_endproc
.LFE449:
	.size	_ZNSt11char_traitsIcE6lengthEPKc, .-_ZNSt11char_traitsIcE6lengthEPKc
	.section	.text._ZNKSt4hashIcEclEc,"axG",@progbits,_ZNKSt4hashIcEclEc,comdat
	.align	2
	.weak	_ZNKSt4hashIcEclEc
	.type	_ZNKSt4hashIcEclEc, %function
_ZNKSt4hashIcEclEc:
.LFB783:
	.cfi_startproc
	sub	sp, sp, #16
	.cfi_def_cfa_offset 16
	str	x0, [sp, 8]
	strb	w1, [sp, 7]
	ldrb	w0, [sp, 7]
	add	sp, sp, 16
	.cfi_def_cfa_offset 0
	ret
	.cfi_endproc
.LFE783:
	.size	_ZNKSt4hashIcEclEc, .-_ZNKSt4hashIcEclEc
	.section	.text._ZStanSt13_Ios_FmtflagsS_,"axG",@progbits,_ZStanSt13_Ios_FmtflagsS_,comdat
	.align	2
	.weak	_ZStanSt13_Ios_FmtflagsS_
	.type	_ZStanSt13_Ios_FmtflagsS_, %function
_ZStanSt13_Ios_FmtflagsS_:
.LFB1316:
	.cfi_startproc
	sub	sp, sp, #16
	.cfi_def_cfa_offset 16
	str	w0, [sp, 12]
	str	w1, [sp, 8]
	ldr	w1, [sp, 12]
	ldr	w0, [sp, 8]
	and	w0, w1, w0
	add	sp, sp, 16
	.cfi_def_cfa_offset 0
	ret
	.cfi_endproc
.LFE1316:
	.size	_ZStanSt13_Ios_FmtflagsS_, .-_ZStanSt13_Ios_FmtflagsS_
	.section	.text._ZStorSt13_Ios_FmtflagsS_,"axG",@progbits,_ZStorSt13_Ios_FmtflagsS_,comdat
	.align	2
	.weak	_ZStorSt13_Ios_FmtflagsS_
	.type	_ZStorSt13_Ios_FmtflagsS_, %function
_ZStorSt13_Ios_FmtflagsS_:
.LFB1317:
	.cfi_startproc
	sub	sp, sp, #16
	.cfi_def_cfa_offset 16
	str	w0, [sp, 12]
	str	w1, [sp, 8]
	ldr	w1, [sp, 12]
	ldr	w0, [sp, 8]
	orr	w0, w1, w0
	add	sp, sp, 16
	.cfi_def_cfa_offset 0
	ret
	.cfi_endproc
.LFE1317:
	.size	_ZStorSt13_Ios_FmtflagsS_, .-_ZStorSt13_Ios_FmtflagsS_
	.section	.text._ZStcoSt13_Ios_Fmtflags,"axG",@progbits,_ZStcoSt13_Ios_Fmtflags,comdat
	.align	2
	.weak	_ZStcoSt13_Ios_Fmtflags
	.type	_ZStcoSt13_Ios_Fmtflags, %function
_ZStcoSt13_Ios_Fmtflags:
.LFB1319:
	.cfi_startproc
	sub	sp, sp, #16
	.cfi_def_cfa_offset 16
	str	w0, [sp, 12]
	ldr	w0, [sp, 12]
	mvn	w0, w0
	add	sp, sp, 16
	.cfi_def_cfa_offset 0
	ret
	.cfi_endproc
.LFE1319:
	.size	_ZStcoSt13_Ios_Fmtflags, .-_ZStcoSt13_Ios_Fmtflags
	.section	.text._ZStoRRSt13_Ios_FmtflagsS_,"axG",@progbits,_ZStoRRSt13_Ios_FmtflagsS_,comdat
	.align	2
	.weak	_ZStoRRSt13_Ios_FmtflagsS_
	.type	_ZStoRRSt13_Ios_FmtflagsS_, %function
_ZStoRRSt13_Ios_FmtflagsS_:
.LFB1320:
	.cfi_startproc
	stp	x29, x30, [sp, -32]!
	.cfi_def_cfa_offset 32
	.cfi_offset 29, -32
	.cfi_offset 30, -24
	mov	x29, sp
	str	x0, [sp, 24]
	str	w1, [sp, 20]
	ldr	x0, [sp, 24]
	ldr	w0, [x0]
	ldr	w1, [sp, 20]
	bl	_ZStorSt13_Ios_FmtflagsS_
	mov	w1, w0
	ldr	x0, [sp, 24]
	str	w1, [x0]
	ldr	x0, [sp, 24]
	ldp	x29, x30, [sp], 32
	.cfi_restore 30
	.cfi_restore 29
	.cfi_def_cfa_offset 0
	ret
	.cfi_endproc
.LFE1320:
	.size	_ZStoRRSt13_Ios_FmtflagsS_, .-_ZStoRRSt13_Ios_FmtflagsS_
	.section	.text._ZStaNRSt13_Ios_FmtflagsS_,"axG",@progbits,_ZStaNRSt13_Ios_FmtflagsS_,comdat
	.align	2
	.weak	_ZStaNRSt13_Ios_FmtflagsS_
	.type	_ZStaNRSt13_Ios_FmtflagsS_, %function
_ZStaNRSt13_Ios_FmtflagsS_:
.LFB1321:
	.cfi_startproc
	stp	x29, x30, [sp, -32]!
	.cfi_def_cfa_offset 32
	.cfi_offset 29, -32
	.cfi_offset 30, -24
	mov	x29, sp
	str	x0, [sp, 24]
	str	w1, [sp, 20]
	ldr	x0, [sp, 24]
	ldr	w0, [x0]
	ldr	w1, [sp, 20]
	bl	_ZStanSt13_Ios_FmtflagsS_
	mov	w1, w0
	ldr	x0, [sp, 24]
	str	w1, [x0]
	ldr	x0, [sp, 24]
	ldp	x29, x30, [sp], 32
	.cfi_restore 30
	.cfi_restore 29
	.cfi_def_cfa_offset 0
	ret
	.cfi_endproc
.LFE1321:
	.size	_ZStaNRSt13_Ios_FmtflagsS_, .-_ZStaNRSt13_Ios_FmtflagsS_
	.section	.text._ZNSt8ios_base4setfESt13_Ios_Fmtflags,"axG",@progbits,_ZNSt8ios_base4setfESt13_Ios_Fmtflags,comdat
	.align	2
	.weak	_ZNSt8ios_base4setfESt13_Ios_Fmtflags
	.type	_ZNSt8ios_base4setfESt13_Ios_Fmtflags, %function
_ZNSt8ios_base4setfESt13_Ios_Fmtflags:
.LFB1349:
	.cfi_startproc
	stp	x29, x30, [sp, -48]!
	.cfi_def_cfa_offset 48
	.cfi_offset 29, -48
	.cfi_offset 30, -40
	mov	x29, sp
	str	x0, [sp, 24]
	str	w1, [sp, 20]
	ldr	x0, [sp, 24]
	ldr	w0, [x0, 24]
	str	w0, [sp, 44]
	ldr	x0, [sp, 24]
	add	x0, x0, 24
	ldr	w1, [sp, 20]
	bl	_ZStoRRSt13_Ios_FmtflagsS_
	ldr	w0, [sp, 44]
	ldp	x29, x30, [sp], 48
	.cfi_restore 30
	.cfi_restore 29
	.cfi_def_cfa_offset 0
	ret
	.cfi_endproc
.LFE1349:
	.size	_ZNSt8ios_base4setfESt13_Ios_Fmtflags, .-_ZNSt8ios_base4setfESt13_Ios_Fmtflags
	.section	.text._ZNSt8ios_base4setfESt13_Ios_FmtflagsS0_,"axG",@progbits,_ZNSt8ios_base4setfESt13_Ios_FmtflagsS0_,comdat
	.align	2
	.weak	_ZNSt8ios_base4setfESt13_Ios_FmtflagsS0_
	.type	_ZNSt8ios_base4setfESt13_Ios_FmtflagsS0_, %function
_ZNSt8ios_base4setfESt13_Ios_FmtflagsS0_:
.LFB1350:
	.cfi_startproc
	stp	x29, x30, [sp, -48]!
	.cfi_def_cfa_offset 48
	.cfi_offset 29, -48
	.cfi_offset 30, -40
	mov	x29, sp
	str	x0, [sp, 24]
	str	w1, [sp, 20]
	str	w2, [sp, 16]
	ldr	x0, [sp, 24]
	ldr	w0, [x0, 24]
	str	w0, [sp, 44]
	ldr	w0, [sp, 16]
	bl	_ZStcoSt13_Ios_Fmtflags
	mov	w1, w0
	ldr	x0, [sp, 24]
	add	x0, x0, 24
	bl	_ZStaNRSt13_Ios_FmtflagsS_
	ldr	w1, [sp, 16]
	ldr	w0, [sp, 20]
	bl	_ZStanSt13_Ios_FmtflagsS_
	mov	w1, w0
	ldr	x0, [sp, 24]
	add	x0, x0, 24
	bl	_ZStoRRSt13_Ios_FmtflagsS_
	ldr	w0, [sp, 44]
	ldp	x29, x30, [sp], 48
	.cfi_restore 30
	.cfi_restore 29
	.cfi_def_cfa_offset 0
	ret
	.cfi_endproc
.LFE1350:
	.size	_ZNSt8ios_base4setfESt13_Ios_FmtflagsS0_, .-_ZNSt8ios_base4setfESt13_Ios_FmtflagsS0_
	.section	.text._ZSt9uppercaseRSt8ios_base,"axG",@progbits,_ZSt9uppercaseRSt8ios_base,comdat
	.align	2
	.weak	_ZSt9uppercaseRSt8ios_base
	.type	_ZSt9uppercaseRSt8ios_base, %function
_ZSt9uppercaseRSt8ios_base:
.LFB1370:
	.cfi_startproc
	stp	x29, x30, [sp, -32]!
	.cfi_def_cfa_offset 32
	.cfi_offset 29, -32
	.cfi_offset 30, -24
	mov	x29, sp
	str	x0, [sp, 24]
	mov	w1, 16384
	ldr	x0, [sp, 24]
	bl	_ZNSt8ios_base4setfESt13_Ios_Fmtflags
	ldr	x0, [sp, 24]
	ldp	x29, x30, [sp], 32
	.cfi_restore 30
	.cfi_restore 29
	.cfi_def_cfa_offset 0
	ret
	.cfi_endproc
.LFE1370:
	.size	_ZSt9uppercaseRSt8ios_base, .-_ZSt9uppercaseRSt8ios_base
	.section	.text._ZSt3hexRSt8ios_base,"axG",@progbits,_ZSt3hexRSt8ios_base,comdat
	.align	2
	.weak	_ZSt3hexRSt8ios_base
	.type	_ZSt3hexRSt8ios_base, %function
_ZSt3hexRSt8ios_base:
.LFB1378:
	.cfi_startproc
	stp	x29, x30, [sp, -32]!
	.cfi_def_cfa_offset 32
	.cfi_offset 29, -32
	.cfi_offset 30, -24
	mov	x29, sp
	str	x0, [sp, 24]
	mov	w2, 74
	mov	w1, 8
	ldr	x0, [sp, 24]
	bl	_ZNSt8ios_base4setfESt13_Ios_FmtflagsS0_
	ldr	x0, [sp, 24]
	ldp	x29, x30, [sp], 32
	.cfi_restore 30
	.cfi_restore 29
	.cfi_def_cfa_offset 0
	ret
	.cfi_endproc
.LFE1378:
	.size	_ZSt3hexRSt8ios_base, .-_ZSt3hexRSt8ios_base
	.local	_ZStL8__ioinit
	.comm	_ZStL8__ioinit,1,8
	.section	.text._ZNSt8__detail15_Hash_node_baseC2Ev,"axG",@progbits,_ZNSt8__detail15_Hash_node_baseC5Ev,comdat
	.align	2
	.weak	_ZNSt8__detail15_Hash_node_baseC2Ev
	.type	_ZNSt8__detail15_Hash_node_baseC2Ev, %function
_ZNSt8__detail15_Hash_node_baseC2Ev:
.LFB2660:
	.cfi_startproc
	sub	sp, sp, #16
	.cfi_def_cfa_offset 16
	str	x0, [sp, 8]
	ldr	x0, [sp, 8]
	str	xzr, [x0]
	nop
	add	sp, sp, 16
	.cfi_def_cfa_offset 0
	ret
	.cfi_endproc
.LFE2660:
	.size	_ZNSt8__detail15_Hash_node_baseC2Ev, .-_ZNSt8__detail15_Hash_node_baseC2Ev
	.weak	_ZNSt8__detail15_Hash_node_baseC1Ev
	.set	_ZNSt8__detail15_Hash_node_baseC1Ev,_ZNSt8__detail15_Hash_node_baseC2Ev
	.section	.text._ZNKSt8__detail18_Mod_range_hashingclEmm,"axG",@progbits,_ZNKSt8__detail18_Mod_range_hashingclEmm,comdat
	.align	2
	.weak	_ZNKSt8__detail18_Mod_range_hashingclEmm
	.type	_ZNKSt8__detail18_Mod_range_hashingclEmm, %function
_ZNKSt8__detail18_Mod_range_hashingclEmm:
.LFB2686:
	.cfi_startproc
	sub	sp, sp, #32
	.cfi_def_cfa_offset 32
	str	x0, [sp, 24]
	str	x1, [sp, 16]
	str	x2, [sp, 8]
	ldr	x0, [sp, 16]
	ldr	x1, [sp, 8]
	udiv	x2, x0, x1
	ldr	x1, [sp, 8]
	mul	x1, x2, x1
	sub	x0, x0, x1
	add	sp, sp, 32
	.cfi_def_cfa_offset 0
	ret
	.cfi_endproc
.LFE2686:
	.size	_ZNKSt8__detail18_Mod_range_hashingclEmm, .-_ZNKSt8__detail18_Mod_range_hashingclEmm
	.section	.text._ZNSt8__detail20_Prime_rehash_policyC2Ef,"axG",@progbits,_ZNSt8__detail20_Prime_rehash_policyC5Ef,comdat
	.align	2
	.weak	_ZNSt8__detail20_Prime_rehash_policyC2Ef
	.type	_ZNSt8__detail20_Prime_rehash_policyC2Ef, %function
_ZNSt8__detail20_Prime_rehash_policyC2Ef:
.LFB2688:
	.cfi_startproc
	sub	sp, sp, #16
	.cfi_def_cfa_offset 16
	str	x0, [sp, 8]
	str	s0, [sp, 4]
	ldr	x0, [sp, 8]
	ldr	s0, [sp, 4]
	str	s0, [x0]
	ldr	x0, [sp, 8]
	str	xzr, [x0, 8]
	nop
	add	sp, sp, 16
	.cfi_def_cfa_offset 0
	ret
	.cfi_endproc
.LFE2688:
	.size	_ZNSt8__detail20_Prime_rehash_policyC2Ef, .-_ZNSt8__detail20_Prime_rehash_policyC2Ef
	.weak	_ZNSt8__detail20_Prime_rehash_policyC1Ef
	.set	_ZNSt8__detail20_Prime_rehash_policyC1Ef,_ZNSt8__detail20_Prime_rehash_policyC2Ef
	.section	.text._ZNKSt8__detail20_Prime_rehash_policy8_M_stateEv,"axG",@progbits,_ZNKSt8__detail20_Prime_rehash_policy8_M_stateEv,comdat
	.align	2
	.weak	_ZNKSt8__detail20_Prime_rehash_policy8_M_stateEv
	.type	_ZNKSt8__detail20_Prime_rehash_policy8_M_stateEv, %function
_ZNKSt8__detail20_Prime_rehash_policy8_M_stateEv:
.LFB2692:
	.cfi_startproc
	sub	sp, sp, #16
	.cfi_def_cfa_offset 16
	str	x0, [sp, 8]
	ldr	x0, [sp, 8]
	ldr	x0, [x0, 8]
	add	sp, sp, 16
	.cfi_def_cfa_offset 0
	ret
	.cfi_endproc
.LFE2692:
	.size	_ZNKSt8__detail20_Prime_rehash_policy8_M_stateEv, .-_ZNKSt8__detail20_Prime_rehash_policy8_M_stateEv
	.section	.text._ZNSt8__detail20_Prime_rehash_policy8_M_resetEm,"axG",@progbits,_ZNSt8__detail20_Prime_rehash_policy8_M_resetEm,comdat
	.align	2
	.weak	_ZNSt8__detail20_Prime_rehash_policy8_M_resetEm
	.type	_ZNSt8__detail20_Prime_rehash_policy8_M_resetEm, %function
_ZNSt8__detail20_Prime_rehash_policy8_M_resetEm:
.LFB2694:
	.cfi_startproc
	sub	sp, sp, #16
	.cfi_def_cfa_offset 16
	str	x0, [sp, 8]
	str	x1, [sp]
	ldr	x0, [sp, 8]
	ldr	x1, [sp]
	str	x1, [x0, 8]
	nop
	add	sp, sp, 16
	.cfi_def_cfa_offset 0
	ret
	.cfi_endproc
.LFE2694:
	.size	_ZNSt8__detail20_Prime_rehash_policy8_M_resetEm, .-_ZNSt8__detail20_Prime_rehash_policy8_M_resetEm
	.section	.text._ZSt3minImERKT_S2_S2_,"axG",@progbits,_ZSt3minImERKT_S2_S2_,comdat
	.align	2
	.weak	_ZSt3minImERKT_S2_S2_
	.type	_ZSt3minImERKT_S2_S2_, %function
_ZSt3minImERKT_S2_S2_:
.LFB2702:
	.cfi_startproc
	sub	sp, sp, #16
	.cfi_def_cfa_offset 16
	str	x0, [sp, 8]
	str	x1, [sp]
	ldr	x0, [sp]
	ldr	x1, [x0]
	ldr	x0, [sp, 8]
	ldr	x0, [x0]
	cmp	x1, x0
	bcs	.L36
	ldr	x0, [sp]
	b	.L37
.L36:
	ldr	x0, [sp, 8]
.L37:
	add	sp, sp, 16
	.cfi_def_cfa_offset 0
	ret
	.cfi_endproc
.LFE2702:
	.size	_ZSt3minImERKT_S2_S2_, .-_ZSt3minImERKT_S2_S2_
	.section	.rodata
	.align	3
	.type	_ZN6__pstl9execution2v1L3seqE, %object
	.size	_ZN6__pstl9execution2v1L3seqE, 1
_ZN6__pstl9execution2v1L3seqE:
	.zero	1
	.align	3
	.type	_ZN6__pstl9execution2v1L3parE, %object
	.size	_ZN6__pstl9execution2v1L3parE, 1
_ZN6__pstl9execution2v1L3parE:
	.zero	1
	.align	3
	.type	_ZN6__pstl9execution2v1L9par_unseqE, %object
	.size	_ZN6__pstl9execution2v1L9par_unseqE, 1
_ZN6__pstl9execution2v1L9par_unseqE:
	.zero	1
	.align	3
	.type	_ZN6__pstl9execution2v1L5unseqE, %object
	.size	_ZN6__pstl9execution2v1L5unseqE, 1
_ZN6__pstl9execution2v1L5unseqE:
	.zero	1
	.section	.text._ZSt4setwi,"axG",@progbits,_ZSt4setwi,comdat
	.align	2
	.weak	_ZSt4setwi
	.type	_ZSt4setwi, %function
_ZSt4setwi:
.LFB3799:
	.cfi_startproc
	sub	sp, sp, #16
	.cfi_def_cfa_offset 16
	str	w0, [sp, 12]
	ldr	w0, [sp, 12]
	add	sp, sp, 16
	.cfi_def_cfa_offset 0
	ret
	.cfi_endproc
.LFE3799:
	.size	_ZSt4setwi, .-_ZSt4setwi
	.section	.rodata
	.align	2
	.type	_ZN9__gnu_cxxL21__default_lock_policyE, %object
	.size	_ZN9__gnu_cxxL21__default_lock_policyE, 4
_ZN9__gnu_cxxL21__default_lock_policyE:
	.word	2
	.section	.text._ZN3dbg24isColorizedOutputEnabledEv,"axG",@progbits,_ZN3dbg24isColorizedOutputEnabledEv,comdat
	.align	2
	.weak	_ZN3dbg24isColorizedOutputEnabledEv
	.type	_ZN3dbg24isColorizedOutputEnabledEv, %function
_ZN3dbg24isColorizedOutputEnabledEv:
.LFB4518:
	.cfi_startproc
	stp	x29, x30, [sp, -16]!
	.cfi_def_cfa_offset 16
	.cfi_offset 29, -16
	.cfi_offset 30, -8
	mov	x29, sp
	adrp	x0, :got:stderr
	ldr	x0, [x0, #:got_lo12:stderr]
	ldr	x0, [x0]
	bl	fileno
	bl	isatty
	cmp	w0, 0
	cset	w0, ne
	and	w0, w0, 255
	ldp	x29, x30, [sp], 16
	.cfi_restore 30
	.cfi_restore 29
	.cfi_def_cfa_offset 0
	ret
	.cfi_endproc
.LFE4518:
	.size	_ZN3dbg24isColorizedOutputEnabledEv, .-_ZN3dbg24isColorizedOutputEnabledEv
	.section	.rodata
	.align	3
	.type	_ZN3dbg15pretty_functionL13PREFIX_LENGTHE, %object
	.size	_ZN3dbg15pretty_functionL13PREFIX_LENGTHE, 8
_ZN3dbg15pretty_functionL13PREFIX_LENGTHE:
	.xword	44
	.align	3
	.type	_ZN3dbg15pretty_functionL13SUFFIX_LENGTHE, %object
	.size	_ZN3dbg15pretty_functionL13SUFFIX_LENGTHE, 8
_ZN3dbg15pretty_functionL13SUFFIX_LENGTHE:
	.xword	1
	.align	3
.LC0:
	.string	"std::string"
	.section	.text._ZN3dbg13get_type_nameENS_8type_tagINSt7__cxx1112basic_stringIcSt11char_traitsIcESaIcEEEEE,"axG",@progbits,_ZN3dbg13get_type_nameENS_8type_tagINSt7__cxx1112basic_stringIcSt11char_traitsIcESaIcEEEEE,comdat
	.align	2
	.weak	_ZN3dbg13get_type_nameENS_8type_tagINSt7__cxx1112basic_stringIcSt11char_traitsIcESaIcEEEEE
	.type	_ZN3dbg13get_type_nameENS_8type_tagINSt7__cxx1112basic_stringIcSt11char_traitsIcESaIcEEEEE, %function
_ZN3dbg13get_type_nameENS_8type_tagINSt7__cxx1112basic_stringIcSt11char_traitsIcESaIcEEEEE:
.LFB4532:
	.cfi_startproc
	.cfi_personality 0x9b,DW.ref.__gxx_personality_v0
	.cfi_lsda 0x1b,.LLSDA4532
	stp	x29, x30, [sp, -64]!
	.cfi_def_cfa_offset 64
	.cfi_offset 29, -64
	.cfi_offset 30, -56
	mov	x29, sp
	str	x19, [sp, 16]
	.cfi_offset 19, -48
	mov	x19, x8
	strb	w0, [sp, 40]
	adrp	x0, :got:__stack_chk_guard
	ldr	x0, [x0, #:got_lo12:__stack_chk_guard]
	ldr	x1, [x0]
	str	x1, [sp, 56]
	mov	x1, 0
	add	x0, sp, 48
	bl	_ZNSaIcEC1Ev
	add	x0, sp, 48
	mov	x2, x0
	adrp	x0, .LC0
	add	x1, x0, :lo12:.LC0
	mov	x0, x19
.LEHB0:
	bl	_ZNSt7__cxx1112basic_stringIcSt11char_traitsIcESaIcEEC1IS3_EEPKcRKS3_
.LEHE0:
	add	x0, sp, 48
	bl	_ZNSaIcED1Ev
	adrp	x0, :got:__stack_chk_guard
	ldr	x0, [x0, #:got_lo12:__stack_chk_guard]
	ldr	x2, [sp, 56]
	ldr	x1, [x0]
	subs	x2, x2, x1
	mov	x1, 0
	beq	.L45
	b	.L47
.L46:
	mov	x19, x0
	add	x0, sp, 48
	bl	_ZNSaIcED1Ev
	mov	x0, x19
.LEHB1:
	bl	_Unwind_Resume
.LEHE1:
.L47:
	bl	__stack_chk_fail
.L45:
	mov	x0, x19
	ldr	x19, [sp, 16]
	ldp	x29, x30, [sp], 64
	.cfi_restore 30
	.cfi_restore 29
	.cfi_restore 19
	.cfi_def_cfa_offset 0
	ret
	.cfi_endproc
.LFE4532:
	.global	__gxx_personality_v0
	.section	.gcc_except_table._ZN3dbg13get_type_nameENS_8type_tagINSt7__cxx1112basic_stringIcSt11char_traitsIcESaIcEEEEE,"aG",@progbits,_ZN3dbg13get_type_nameENS_8type_tagINSt7__cxx1112basic_stringIcSt11char_traitsIcESaIcEEEEE,comdat
.LLSDA4532:
	.byte	0xff
	.byte	0xff
	.byte	0x1
	.uleb128 .LLSDACSE4532-.LLSDACSB4532
.LLSDACSB4532:
	.uleb128 .LEHB0-.LFB4532
	.uleb128 .LEHE0-.LEHB0
	.uleb128 .L46-.LFB4532
	.uleb128 0
	.uleb128 .LEHB1-.LFB4532
	.uleb128 .LEHE1-.LEHB1
	.uleb128 0
	.uleb128 0
.LLSDACSE4532:
	.section	.text._ZN3dbg13get_type_nameENS_8type_tagINSt7__cxx1112basic_stringIcSt11char_traitsIcESaIcEEEEE,"axG",@progbits,_ZN3dbg13get_type_nameENS_8type_tagINSt7__cxx1112basic_stringIcSt11char_traitsIcESaIcEEEEE,comdat
	.size	_ZN3dbg13get_type_nameENS_8type_tagINSt7__cxx1112basic_stringIcSt11char_traitsIcESaIcEEEEE, .-_ZN3dbg13get_type_nameENS_8type_tagINSt7__cxx1112basic_stringIcSt11char_traitsIcESaIcEEEEE
	.section	.rodata
	.align	3
.LC1:
	.string	"'"
	.align	3
.LC2:
	.string	"'\\x"
	.section	.text._ZN3dbg12pretty_printERSoRKc,"axG",@progbits,_ZN3dbg12pretty_printERSoRKc,comdat
	.align	2
	.weak	_ZN3dbg12pretty_printERSoRKc
	.type	_ZN3dbg12pretty_printERSoRKc, %function
_ZN3dbg12pretty_printERSoRKc:
.LFB4543:
	.cfi_startproc
	stp	x29, x30, [sp, -64]!
	.cfi_def_cfa_offset 64
	.cfi_offset 29, -64
	.cfi_offset 30, -56
	mov	x29, sp
	str	x19, [sp, 16]
	.cfi_offset 19, -48
	str	x0, [sp, 40]
	str	x1, [sp, 32]
	ldr	x0, [sp, 32]
	ldrb	w0, [x0]
	cmp	w0, 31
	bls	.L49
	ldr	x0, [sp, 32]
	ldrb	w0, [x0]
	cmp	w0, 126
	bhi	.L49
	mov	w0, 1
	b	.L50
.L49:
	mov	w0, 0
.L50:
	strb	w0, [sp, 63]
	ldrb	w0, [sp, 63]
	cmp	w0, 0
	beq	.L51
	adrp	x0, .LC1
	add	x1, x0, :lo12:.LC1
	ldr	x0, [sp, 40]
	bl	_ZStlsISt11char_traitsIcEERSt13basic_ostreamIcT_ES5_PKc
	mov	x2, x0
	ldr	x0, [sp, 32]
	ldrb	w0, [x0]
	mov	w1, w0
	mov	x0, x2
	bl	_ZStlsISt11char_traitsIcEERSt13basic_ostreamIcT_ES5_c
	mov	x2, x0
	adrp	x0, .LC1
	add	x1, x0, :lo12:.LC1
	mov	x0, x2
	bl	_ZStlsISt11char_traitsIcEERSt13basic_ostreamIcT_ES5_PKc
	b	.L52
.L51:
	adrp	x0, .LC2
	add	x1, x0, :lo12:.LC2
	ldr	x0, [sp, 40]
	bl	_ZStlsISt11char_traitsIcEERSt13basic_ostreamIcT_ES5_PKc
	mov	x19, x0
	mov	w0, 2
	bl	_ZSt4setwi
	mov	w1, w0
	mov	x0, x19
	bl	_ZStlsIcSt11char_traitsIcEERSt13basic_ostreamIT_T0_ES6_St5_Setw
	mov	x19, x0
	mov	w0, 48
	bl	_ZSt7setfillIcESt8_SetfillIT_ES1_
	mov	w1, w0
	mov	x0, x19
	bl	_ZStlsIcSt11char_traitsIcEERSt13basic_ostreamIT_T0_ES6_St8_SetfillIS3_E
	mov	x2, x0
	adrp	x0, _ZSt3hexRSt8ios_base
	add	x1, x0, :lo12:_ZSt3hexRSt8ios_base
	mov	x0, x2
	bl	_ZNSolsEPFRSt8ios_baseS0_E
	mov	x2, x0
	adrp	x0, _ZSt9uppercaseRSt8ios_base
	add	x1, x0, :lo12:_ZSt9uppercaseRSt8ios_base
	mov	x0, x2
	bl	_ZNSolsEPFRSt8ios_baseS0_E
	mov	x2, x0
	ldr	x0, [sp, 32]
	ldrb	w0, [x0]
	mov	w1, w0
	mov	x0, x2
	bl	_ZNSolsEi
	mov	x2, x0
	adrp	x0, .LC1
	add	x1, x0, :lo12:.LC1
	mov	x0, x2
	bl	_ZStlsISt11char_traitsIcEERSt13basic_ostreamIcT_ES5_PKc
.L52:
	mov	w0, 1
	ldr	x19, [sp, 16]
	ldp	x29, x30, [sp], 64
	.cfi_restore 30
	.cfi_restore 29
	.cfi_restore 19
	.cfi_def_cfa_offset 0
	ret
	.cfi_endproc
.LFE4543:
	.size	_ZN3dbg12pretty_printERSoRKc, .-_ZN3dbg12pretty_printERSoRKc
	.section	.text._ZN3dbg12pretty_printERSoRKNSt7__cxx1112basic_stringIcSt11char_traitsIcESaIcEEE,"axG",@progbits,_ZN3dbg12pretty_printERSoRKNSt7__cxx1112basic_stringIcSt11char_traitsIcESaIcEEE,comdat
	.align	2
	.weak	_ZN3dbg12pretty_printERSoRKNSt7__cxx1112basic_stringIcSt11char_traitsIcESaIcEEE
	.type	_ZN3dbg12pretty_printERSoRKNSt7__cxx1112basic_stringIcSt11char_traitsIcESaIcEEE, %function
_ZN3dbg12pretty_printERSoRKNSt7__cxx1112basic_stringIcSt11char_traitsIcESaIcEEE:
.LFB4561:
	.cfi_startproc
	stp	x29, x30, [sp, -32]!
	.cfi_def_cfa_offset 32
	.cfi_offset 29, -32
	.cfi_offset 30, -24
	mov	x29, sp
	str	x0, [sp, 24]
	str	x1, [sp, 16]
	mov	w1, 34
	ldr	x0, [sp, 24]
	bl	_ZStlsISt11char_traitsIcEERSt13basic_ostreamIcT_ES5_c
	ldr	x1, [sp, 16]
	bl	_ZStlsIcSt11char_traitsIcESaIcEERSt13basic_ostreamIT_T0_ES7_RKNSt7__cxx1112basic_stringIS4_S5_T1_EE
	mov	w1, 34
	bl	_ZStlsISt11char_traitsIcEERSt13basic_ostreamIcT_ES5_c
	mov	w0, 1
	ldp	x29, x30, [sp], 32
	.cfi_restore 30
	.cfi_restore 29
	.cfi_def_cfa_offset 0
	ret
	.cfi_endproc
.LFE4561:
	.size	_ZN3dbg12pretty_printERSoRKNSt7__cxx1112basic_stringIcSt11char_traitsIcESaIcEEE, .-_ZN3dbg12pretty_printERSoRKNSt7__cxx1112basic_stringIcSt11char_traitsIcESaIcEEE
	.section	.rodata
	.align	3
.LC3:
	.string	".."
	.align	3
.LC4:
	.string	"\033[02m"
	.align	3
.LC5:
	.string	"["
	.align	3
.LC6:
	.string	":"
	.align	3
.LC7:
	.string	" ("
	.align	3
.LC8:
	.string	")] "
	.align	3
.LC9:
	.string	"\033[0m"
	.section	.text._ZN3dbg11DebugOutputC2EPKciS2_,"axG",@progbits,_ZN3dbg11DebugOutputC5EPKciS2_,comdat
	.align	2
	.weak	_ZN3dbg11DebugOutputC2EPKciS2_
	.type	_ZN3dbg11DebugOutputC2EPKciS2_, %function
_ZN3dbg11DebugOutputC2EPKciS2_:
.LFB4573:
	.cfi_startproc
	.cfi_personality 0x9b,DW.ref.__gxx_personality_v0
	.cfi_lsda 0x1b,.LLSDA4573
	sub	sp, sp, #576
	.cfi_def_cfa_offset 576
	stp	x29, x30, [sp]
	.cfi_offset 29, -576
	.cfi_offset 30, -568
	mov	x29, sp
	str	x19, [sp, 16]
	.cfi_offset 19, -560
	str	x0, [sp, 56]
	str	x1, [sp, 48]
	str	w2, [sp, 44]
	str	x3, [sp, 32]
	adrp	x0, :got:__stack_chk_guard
	ldr	x0, [x0, #:got_lo12:__stack_chk_guard]
	ldr	x1, [x0]
	str	x1, [sp, 568]
	mov	x1, 0
	bl	_ZN3dbg24isColorizedOutputEnabledEv
	and	w1, w0, 255
	ldr	x0, [sp, 56]
	strb	w1, [x0]
	ldr	x0, [sp, 56]
	add	x0, x0, 8
	bl	_ZNSt7__cxx1112basic_stringIcSt11char_traitsIcESaIcEEC1Ev
	add	x0, sp, 64
	bl	_ZNSaIcEC1Ev
	add	x1, sp, 64
	add	x0, sp, 80
	mov	x2, x1
	ldr	x1, [sp, 48]
.LEHB2:
	bl	_ZNSt7__cxx1112basic_stringIcSt11char_traitsIcESaIcEEC1IS3_EEPKcRKS3_
.LEHE2:
	add	x0, sp, 64
	bl	_ZNSaIcED1Ev
	add	x0, sp, 80
	bl	_ZNKSt7__cxx1112basic_stringIcSt11char_traitsIcESaIcEE6lengthEv
	str	x0, [sp, 72]
	ldr	x0, [sp, 72]
	cmp	x0, 20
	bls	.L57
	ldr	x0, [sp, 72]
	sub	x1, x0, #20
	add	x0, sp, 80
	add	x2, sp, 176
	mov	x8, x2
	mov	x2, 20
.LEHB3:
	bl	_ZNKSt7__cxx1112basic_stringIcSt11char_traitsIcESaIcEE6substrEmm
.LEHE3:
	add	x0, sp, 176
	add	x1, sp, 112
	mov	x8, x1
	mov	x1, x0
	adrp	x0, .LC3
	add	x0, x0, :lo12:.LC3
.LEHB4:
	bl	_ZStplIcSt11char_traitsIcESaIcEENSt7__cxx1112basic_stringIT_T0_T1_EEPKS5_OS8_
.LEHE4:
	add	x1, sp, 112
	add	x0, sp, 80
	bl	_ZNSt7__cxx1112basic_stringIcSt11char_traitsIcESaIcEEaSEOS4_
	add	x0, sp, 112
	bl	_ZNSt7__cxx1112basic_stringIcSt11char_traitsIcESaIcEED1Ev
	add	x0, sp, 176
	bl	_ZNSt7__cxx1112basic_stringIcSt11char_traitsIcESaIcEED1Ev
.L57:
	add	x0, sp, 176
.LEHB5:
	bl	_ZNSt7__cxx1118basic_stringstreamIcSt11char_traitsIcESaIcEEC1Ev
.LEHE5:
	adrp	x0, .LC4
	add	x1, x0, :lo12:.LC4
	ldr	x0, [sp, 56]
	bl	_ZNK3dbg11DebugOutput4ansiEPKc
	mov	x1, x0
	add	x0, sp, 176
	add	x0, x0, 16
.LEHB6:
	bl	_ZStlsISt11char_traitsIcEERSt13basic_ostreamIcT_ES5_PKc
	mov	x2, x0
	adrp	x0, .LC5
	add	x1, x0, :lo12:.LC5
	mov	x0, x2
	bl	_ZStlsISt11char_traitsIcEERSt13basic_ostreamIcT_ES5_PKc
	mov	x2, x0
	add	x0, sp, 80
	mov	x1, x0
	mov	x0, x2
	bl	_ZStlsIcSt11char_traitsIcESaIcEERSt13basic_ostreamIT_T0_ES7_RKNSt7__cxx1112basic_stringIS4_S5_T1_EE
	mov	x2, x0
	adrp	x0, .LC6
	add	x1, x0, :lo12:.LC6
	mov	x0, x2
	bl	_ZStlsISt11char_traitsIcEERSt13basic_ostreamIcT_ES5_PKc
	ldr	w1, [sp, 44]
	bl	_ZNSolsEi
	mov	x2, x0
	adrp	x0, .LC7
	add	x1, x0, :lo12:.LC7
	mov	x0, x2
	bl	_ZStlsISt11char_traitsIcEERSt13basic_ostreamIcT_ES5_PKc
	ldr	x1, [sp, 32]
	bl	_ZStlsISt11char_traitsIcEERSt13basic_ostreamIcT_ES5_PKc
	mov	x2, x0
	adrp	x0, .LC8
	add	x1, x0, :lo12:.LC8
	mov	x0, x2
	bl	_ZStlsISt11char_traitsIcEERSt13basic_ostreamIcT_ES5_PKc
	mov	x19, x0
	adrp	x0, .LC9
	add	x1, x0, :lo12:.LC9
	ldr	x0, [sp, 56]
	bl	_ZNK3dbg11DebugOutput4ansiEPKc
	mov	x1, x0
	mov	x0, x19
	bl	_ZStlsISt11char_traitsIcEERSt13basic_ostreamIcT_ES5_PKc
	add	x0, sp, 176
	add	x1, sp, 144
	mov	x8, x1
	bl	_ZNKSt7__cxx1118basic_stringstreamIcSt11char_traitsIcESaIcEE3strEv
.LEHE6:
	ldr	x0, [sp, 56]
	add	x0, x0, 8
	add	x1, sp, 144
	bl	_ZNSt7__cxx1112basic_stringIcSt11char_traitsIcESaIcEEaSEOS4_
	add	x0, sp, 144
	bl	_ZNSt7__cxx1112basic_stringIcSt11char_traitsIcESaIcEED1Ev
	add	x0, sp, 176
	bl	_ZNSt7__cxx1118basic_stringstreamIcSt11char_traitsIcESaIcEED1Ev
	add	x0, sp, 80
	bl	_ZNSt7__cxx1112basic_stringIcSt11char_traitsIcESaIcEED1Ev
	nop
	adrp	x0, :got:__stack_chk_guard
	ldr	x0, [x0, #:got_lo12:__stack_chk_guard]
	ldr	x2, [sp, 568]
	ldr	x1, [x0]
	subs	x2, x2, x1
	mov	x1, 0
	beq	.L63
	b	.L68
.L64:
	mov	x19, x0
	add	x0, sp, 64
	bl	_ZNSaIcED1Ev
	b	.L59
.L66:
	mov	x19, x0
	add	x0, sp, 176
	bl	_ZNSt7__cxx1112basic_stringIcSt11char_traitsIcESaIcEED1Ev
	b	.L61
.L67:
	mov	x19, x0
	add	x0, sp, 176
	bl	_ZNSt7__cxx1118basic_stringstreamIcSt11char_traitsIcESaIcEED1Ev
	b	.L61
.L65:
	mov	x19, x0
.L61:
	add	x0, sp, 80
	bl	_ZNSt7__cxx1112basic_stringIcSt11char_traitsIcESaIcEED1Ev
.L59:
	ldr	x0, [sp, 56]
	add	x0, x0, 8
	bl	_ZNSt7__cxx1112basic_stringIcSt11char_traitsIcESaIcEED1Ev
	mov	x0, x19
.LEHB7:
	bl	_Unwind_Resume
.LEHE7:
.L68:
	bl	__stack_chk_fail
.L63:
	ldr	x19, [sp, 16]
	ldp	x29, x30, [sp]
	add	sp, sp, 576
	.cfi_restore 29
	.cfi_restore 30
	.cfi_restore 19
	.cfi_def_cfa_offset 0
	ret
	.cfi_endproc
.LFE4573:
	.section	.gcc_except_table._ZN3dbg11DebugOutputC2EPKciS2_,"aG",@progbits,_ZN3dbg11DebugOutputC5EPKciS2_,comdat
.LLSDA4573:
	.byte	0xff
	.byte	0xff
	.byte	0x1
	.uleb128 .LLSDACSE4573-.LLSDACSB4573
.LLSDACSB4573:
	.uleb128 .LEHB2-.LFB4573
	.uleb128 .LEHE2-.LEHB2
	.uleb128 .L64-.LFB4573
	.uleb128 0
	.uleb128 .LEHB3-.LFB4573
	.uleb128 .LEHE3-.LEHB3
	.uleb128 .L65-.LFB4573
	.uleb128 0
	.uleb128 .LEHB4-.LFB4573
	.uleb128 .LEHE4-.LEHB4
	.uleb128 .L66-.LFB4573
	.uleb128 0
	.uleb128 .LEHB5-.LFB4573
	.uleb128 .LEHE5-.LEHB5
	.uleb128 .L65-.LFB4573
	.uleb128 0
	.uleb128 .LEHB6-.LFB4573
	.uleb128 .LEHE6-.LEHB6
	.uleb128 .L67-.LFB4573
	.uleb128 0
	.uleb128 .LEHB7-.LFB4573
	.uleb128 .LEHE7-.LEHB7
	.uleb128 0
	.uleb128 0
.LLSDACSE4573:
	.section	.text._ZN3dbg11DebugOutputC2EPKciS2_,"axG",@progbits,_ZN3dbg11DebugOutputC5EPKciS2_,comdat
	.size	_ZN3dbg11DebugOutputC2EPKciS2_, .-_ZN3dbg11DebugOutputC2EPKciS2_
	.weak	_ZN3dbg11DebugOutputC1EPKciS2_
	.set	_ZN3dbg11DebugOutputC1EPKciS2_,_ZN3dbg11DebugOutputC2EPKciS2_
	.section	.rodata
	.align	3
.LC10:
	.string	""
	.section	.text._ZNK3dbg11DebugOutput4ansiEPKc,"axG",@progbits,_ZNK3dbg11DebugOutput4ansiEPKc,comdat
	.align	2
	.weak	_ZNK3dbg11DebugOutput4ansiEPKc
	.type	_ZNK3dbg11DebugOutput4ansiEPKc, %function
_ZNK3dbg11DebugOutput4ansiEPKc:
.LFB4578:
	.cfi_startproc
	sub	sp, sp, #16
	.cfi_def_cfa_offset 16
	str	x0, [sp, 8]
	str	x1, [sp]
	ldr	x0, [sp, 8]
	ldrb	w0, [x0]
	cmp	w0, 0
	beq	.L70
	ldr	x0, [sp]
	b	.L71
.L70:
	adrp	x0, .LC10
	add	x0, x0, :lo12:.LC10
.L71:
	add	sp, sp, 16
	.cfi_def_cfa_offset 0
	ret
	.cfi_endproc
.LFE4578:
	.size	_ZNK3dbg11DebugOutput4ansiEPKc, .-_ZNK3dbg11DebugOutput4ansiEPKc
	.section	.text._ZNSt8__detail15_Hash_code_baseIcSt4pairIKciENS_10_Select1stESt4hashIcENS_18_Mod_range_hashingENS_20_Default_ranged_hashELb0EEC2Ev,"axG",@progbits,_ZNSt8__detail15_Hash_code_baseIcSt4pairIKciENS_10_Select1stESt4hashIcENS_18_Mod_range_hashingENS_20_Default_ranged_hashELb0EEC5Ev,comdat
	.align	2
	.weak	_ZNSt8__detail15_Hash_code_baseIcSt4pairIKciENS_10_Select1stESt4hashIcENS_18_Mod_range_hashingENS_20_Default_ranged_hashELb0EEC2Ev
	.type	_ZNSt8__detail15_Hash_code_baseIcSt4pairIKciENS_10_Select1stESt4hashIcENS_18_Mod_range_hashingENS_20_Default_ranged_hashELb0EEC2Ev, %function
_ZNSt8__detail15_Hash_code_baseIcSt4pairIKciENS_10_Select1stESt4hashIcENS_18_Mod_range_hashingENS_20_Default_ranged_hashELb0EEC2Ev:
.LFB5451:
	.cfi_startproc
	stp	x29, x30, [sp, -32]!
	.cfi_def_cfa_offset 32
	.cfi_offset 29, -32
	.cfi_offset 30, -24
	mov	x29, sp
	str	x0, [sp, 24]
	ldr	x0, [sp, 24]
	bl	_ZNSt8__detail21_Hashtable_ebo_helperILi1ESt4hashIcELb1EEC2Ev
	nop
	ldp	x29, x30, [sp], 32
	.cfi_restore 30
	.cfi_restore 29
	.cfi_def_cfa_offset 0
	ret
	.cfi_endproc
.LFE5451:
	.size	_ZNSt8__detail15_Hash_code_baseIcSt4pairIKciENS_10_Select1stESt4hashIcENS_18_Mod_range_hashingENS_20_Default_ranged_hashELb0EEC2Ev, .-_ZNSt8__detail15_Hash_code_baseIcSt4pairIKciENS_10_Select1stESt4hashIcENS_18_Mod_range_hashingENS_20_Default_ranged_hashELb0EEC2Ev
	.weak	_ZNSt8__detail15_Hash_code_baseIcSt4pairIKciENS_10_Select1stESt4hashIcENS_18_Mod_range_hashingENS_20_Default_ranged_hashELb0EEC1Ev
	.set	_ZNSt8__detail15_Hash_code_baseIcSt4pairIKciENS_10_Select1stESt4hashIcENS_18_Mod_range_hashingENS_20_Default_ranged_hashELb0EEC1Ev,_ZNSt8__detail15_Hash_code_baseIcSt4pairIKciENS_10_Select1stESt4hashIcENS_18_Mod_range_hashingENS_20_Default_ranged_hashELb0EEC2Ev
	.section	.text._ZNSt8__detail15_Hashtable_baseIcSt4pairIKciENS_10_Select1stESt8equal_toIcESt4hashIcENS_18_Mod_range_hashingENS_20_Default_ranged_hashENS_17_Hashtable_traitsILb0ELb0ELb1EEEEC2Ev,"axG",@progbits,_ZNSt8__detail15_Hashtable_baseIcSt4pairIKciENS_10_Select1stESt8equal_toIcESt4hashIcENS_18_Mod_range_hashingENS_20_Default_ranged_hashENS_17_Hashtable_traitsILb0ELb0ELb1EEEEC5Ev,comdat
	.align	2
	.weak	_ZNSt8__detail15_Hashtable_baseIcSt4pairIKciENS_10_Select1stESt8equal_toIcESt4hashIcENS_18_Mod_range_hashingENS_20_Default_ranged_hashENS_17_Hashtable_traitsILb0ELb0ELb1EEEEC2Ev
	.type	_ZNSt8__detail15_Hashtable_baseIcSt4pairIKciENS_10_Select1stESt8equal_toIcESt4hashIcENS_18_Mod_range_hashingENS_20_Default_ranged_hashENS_17_Hashtable_traitsILb0ELb0ELb1EEEEC2Ev, %function
_ZNSt8__detail15_Hashtable_baseIcSt4pairIKciENS_10_Select1stESt8equal_toIcESt4hashIcENS_18_Mod_range_hashingENS_20_Default_ranged_hashENS_17_Hashtable_traitsILb0ELb0ELb1EEEEC2Ev:
.LFB5453:
	.cfi_startproc
	stp	x29, x30, [sp, -32]!
	.cfi_def_cfa_offset 32
	.cfi_offset 29, -32
	.cfi_offset 30, -24
	mov	x29, sp
	str	x0, [sp, 24]
	ldr	x0, [sp, 24]
	bl	_ZNSt8__detail15_Hash_code_baseIcSt4pairIKciENS_10_Select1stESt4hashIcENS_18_Mod_range_hashingENS_20_Default_ranged_hashELb0EEC2Ev
	ldr	x0, [sp, 24]
	bl	_ZNSt8__detail21_Hashtable_ebo_helperILi0ESt8equal_toIcELb1EEC2Ev
	nop
	ldp	x29, x30, [sp], 32
	.cfi_restore 30
	.cfi_restore 29
	.cfi_def_cfa_offset 0
	ret
	.cfi_endproc
.LFE5453:
	.size	_ZNSt8__detail15_Hashtable_baseIcSt4pairIKciENS_10_Select1stESt8equal_toIcESt4hashIcENS_18_Mod_range_hashingENS_20_Default_ranged_hashENS_17_Hashtable_traitsILb0ELb0ELb1EEEEC2Ev, .-_ZNSt8__detail15_Hashtable_baseIcSt4pairIKciENS_10_Select1stESt8equal_toIcESt4hashIcENS_18_Mod_range_hashingENS_20_Default_ranged_hashENS_17_Hashtable_traitsILb0ELb0ELb1EEEEC2Ev
	.weak	_ZNSt8__detail15_Hashtable_baseIcSt4pairIKciENS_10_Select1stESt8equal_toIcESt4hashIcENS_18_Mod_range_hashingENS_20_Default_ranged_hashENS_17_Hashtable_traitsILb0ELb0ELb1EEEEC1Ev
	.set	_ZNSt8__detail15_Hashtable_baseIcSt4pairIKciENS_10_Select1stESt8equal_toIcESt4hashIcENS_18_Mod_range_hashingENS_20_Default_ranged_hashENS_17_Hashtable_traitsILb0ELb0ELb1EEEEC1Ev,_ZNSt8__detail15_Hashtable_baseIcSt4pairIKciENS_10_Select1stESt8equal_toIcESt4hashIcENS_18_Mod_range_hashingENS_20_Default_ranged_hashENS_17_Hashtable_traitsILb0ELb0ELb1EEEEC2Ev
	.section	.text._ZNSt8__detail21_Hashtable_ebo_helperILi0ESaINS_10_Hash_nodeISt4pairIKciELb0EEEELb1EED2Ev,"axG",@progbits,_ZNSt8__detail21_Hashtable_ebo_helperILi0ESaINS_10_Hash_nodeISt4pairIKciELb0EEEELb1EED5Ev,comdat
	.align	2
	.weak	_ZNSt8__detail21_Hashtable_ebo_helperILi0ESaINS_10_Hash_nodeISt4pairIKciELb0EEEELb1EED2Ev
	.type	_ZNSt8__detail21_Hashtable_ebo_helperILi0ESaINS_10_Hash_nodeISt4pairIKciELb0EEEELb1EED2Ev, %function
_ZNSt8__detail21_Hashtable_ebo_helperILi0ESaINS_10_Hash_nodeISt4pairIKciELb0EEEELb1EED2Ev:
.LFB5457:
	.cfi_startproc
	stp	x29, x30, [sp, -32]!
	.cfi_def_cfa_offset 32
	.cfi_offset 29, -32
	.cfi_offset 30, -24
	mov	x29, sp
	str	x0, [sp, 24]
	ldr	x0, [sp, 24]
	bl	_ZNSaINSt8__detail10_Hash_nodeISt4pairIKciELb0EEEED2Ev
	nop
	ldp	x29, x30, [sp], 32
	.cfi_restore 30
	.cfi_restore 29
	.cfi_def_cfa_offset 0
	ret
	.cfi_endproc
.LFE5457:
	.size	_ZNSt8__detail21_Hashtable_ebo_helperILi0ESaINS_10_Hash_nodeISt4pairIKciELb0EEEELb1EED2Ev, .-_ZNSt8__detail21_Hashtable_ebo_helperILi0ESaINS_10_Hash_nodeISt4pairIKciELb0EEEELb1EED2Ev
	.weak	_ZNSt8__detail21_Hashtable_ebo_helperILi0ESaINS_10_Hash_nodeISt4pairIKciELb0EEEELb1EED1Ev
	.set	_ZNSt8__detail21_Hashtable_ebo_helperILi0ESaINS_10_Hash_nodeISt4pairIKciELb0EEEELb1EED1Ev,_ZNSt8__detail21_Hashtable_ebo_helperILi0ESaINS_10_Hash_nodeISt4pairIKciELb0EEEELb1EED2Ev
	.section	.text._ZNSt8__detail16_Hashtable_allocISaINS_10_Hash_nodeISt4pairIKciELb0EEEEEC2Ev,"axG",@progbits,_ZNSt8__detail16_Hashtable_allocISaINS_10_Hash_nodeISt4pairIKciELb0EEEEEC5Ev,comdat
	.align	2
	.weak	_ZNSt8__detail16_Hashtable_allocISaINS_10_Hash_nodeISt4pairIKciELb0EEEEEC2Ev
	.type	_ZNSt8__detail16_Hashtable_allocISaINS_10_Hash_nodeISt4pairIKciELb0EEEEEC2Ev, %function
_ZNSt8__detail16_Hashtable_allocISaINS_10_Hash_nodeISt4pairIKciELb0EEEEEC2Ev:
.LFB5459:
	.cfi_startproc
	stp	x29, x30, [sp, -32]!
	.cfi_def_cfa_offset 32
	.cfi_offset 29, -32
	.cfi_offset 30, -24
	mov	x29, sp
	str	x0, [sp, 24]
	ldr	x0, [sp, 24]
	bl	_ZNSt8__detail21_Hashtable_ebo_helperILi0ESaINS_10_Hash_nodeISt4pairIKciELb0EEEELb1EEC2Ev
	nop
	ldp	x29, x30, [sp], 32
	.cfi_restore 30
	.cfi_restore 29
	.cfi_def_cfa_offset 0
	ret
	.cfi_endproc
.LFE5459:
	.size	_ZNSt8__detail16_Hashtable_allocISaINS_10_Hash_nodeISt4pairIKciELb0EEEEEC2Ev, .-_ZNSt8__detail16_Hashtable_allocISaINS_10_Hash_nodeISt4pairIKciELb0EEEEEC2Ev
	.weak	_ZNSt8__detail16_Hashtable_allocISaINS_10_Hash_nodeISt4pairIKciELb0EEEEEC1Ev
	.set	_ZNSt8__detail16_Hashtable_allocISaINS_10_Hash_nodeISt4pairIKciELb0EEEEEC1Ev,_ZNSt8__detail16_Hashtable_allocISaINS_10_Hash_nodeISt4pairIKciELb0EEEEEC2Ev
	.section	.text._ZNSt8__detail16_Hashtable_allocISaINS_10_Hash_nodeISt4pairIKciELb0EEEEED2Ev,"axG",@progbits,_ZNSt8__detail16_Hashtable_allocISaINS_10_Hash_nodeISt4pairIKciELb0EEEEED5Ev,comdat
	.align	2
	.weak	_ZNSt8__detail16_Hashtable_allocISaINS_10_Hash_nodeISt4pairIKciELb0EEEEED2Ev
	.type	_ZNSt8__detail16_Hashtable_allocISaINS_10_Hash_nodeISt4pairIKciELb0EEEEED2Ev, %function
_ZNSt8__detail16_Hashtable_allocISaINS_10_Hash_nodeISt4pairIKciELb0EEEEED2Ev:
.LFB5462:
	.cfi_startproc
	stp	x29, x30, [sp, -32]!
	.cfi_def_cfa_offset 32
	.cfi_offset 29, -32
	.cfi_offset 30, -24
	mov	x29, sp
	str	x0, [sp, 24]
	ldr	x0, [sp, 24]
	bl	_ZNSt8__detail21_Hashtable_ebo_helperILi0ESaINS_10_Hash_nodeISt4pairIKciELb0EEEELb1EED2Ev
	nop
	ldp	x29, x30, [sp], 32
	.cfi_restore 30
	.cfi_restore 29
	.cfi_def_cfa_offset 0
	ret
	.cfi_endproc
.LFE5462:
	.size	_ZNSt8__detail16_Hashtable_allocISaINS_10_Hash_nodeISt4pairIKciELb0EEEEED2Ev, .-_ZNSt8__detail16_Hashtable_allocISaINS_10_Hash_nodeISt4pairIKciELb0EEEEED2Ev
	.weak	_ZNSt8__detail16_Hashtable_allocISaINS_10_Hash_nodeISt4pairIKciELb0EEEEED1Ev
	.set	_ZNSt8__detail16_Hashtable_allocISaINS_10_Hash_nodeISt4pairIKciELb0EEEEED1Ev,_ZNSt8__detail16_Hashtable_allocISaINS_10_Hash_nodeISt4pairIKciELb0EEEEED2Ev
	.section	.text._ZNSt10_HashtableIcSt4pairIKciESaIS2_ENSt8__detail10_Select1stESt8equal_toIcESt4hashIcENS4_18_Mod_range_hashingENS4_20_Default_ranged_hashENS4_20_Prime_rehash_policyENS4_17_Hashtable_traitsILb0ELb0ELb1EEEEC2Ev,"axG",@progbits,_ZNSt10_HashtableIcSt4pairIKciESaIS2_ENSt8__detail10_Select1stESt8equal_toIcESt4hashIcENS4_18_Mod_range_hashingENS4_20_Default_ranged_hashENS4_20_Prime_rehash_policyENS4_17_Hashtable_traitsILb0ELb0ELb1EEEEC5Ev,comdat
	.align	2
	.weak	_ZNSt10_HashtableIcSt4pairIKciESaIS2_ENSt8__detail10_Select1stESt8equal_toIcESt4hashIcENS4_18_Mod_range_hashingENS4_20_Default_ranged_hashENS4_20_Prime_rehash_policyENS4_17_Hashtable_traitsILb0ELb0ELb1EEEEC2Ev
	.type	_ZNSt10_HashtableIcSt4pairIKciESaIS2_ENSt8__detail10_Select1stESt8equal_toIcESt4hashIcENS4_18_Mod_range_hashingENS4_20_Default_ranged_hashENS4_20_Prime_rehash_policyENS4_17_Hashtable_traitsILb0ELb0ELb1EEEEC2Ev, %function
_ZNSt10_HashtableIcSt4pairIKciESaIS2_ENSt8__detail10_Select1stESt8equal_toIcESt4hashIcENS4_18_Mod_range_hashingENS4_20_Default_ranged_hashENS4_20_Prime_rehash_policyENS4_17_Hashtable_traitsILb0ELb0ELb1EEEEC2Ev:
.LFB5464:
	.cfi_startproc
	stp	x29, x30, [sp, -32]!
	.cfi_def_cfa_offset 32
	.cfi_offset 29, -32
	.cfi_offset 30, -24
	mov	x29, sp
	str	x0, [sp, 24]
	ldr	x0, [sp, 24]
	bl	_ZNSt8__detail15_Hashtable_baseIcSt4pairIKciENS_10_Select1stESt8equal_toIcESt4hashIcENS_18_Mod_range_hashingENS_20_Default_ranged_hashENS_17_Hashtable_traitsILb0ELb0ELb1EEEEC2Ev
	ldr	x0, [sp, 24]
	bl	_ZNSt8__detail16_Hashtable_allocISaINS_10_Hash_nodeISt4pairIKciELb0EEEEEC2Ev
	ldr	x0, [sp, 24]
	add	x1, x0, 48
	ldr	x0, [sp, 24]
	str	x1, [x0]
	ldr	x0, [sp, 24]
	mov	x1, 1
	str	x1, [x0, 8]
	ldr	x0, [sp, 24]
	add	x0, x0, 16
	bl	_ZNSt8__detail15_Hash_node_baseC1Ev
	ldr	x0, [sp, 24]
	str	xzr, [x0, 24]
	ldr	x0, [sp, 24]
	add	x0, x0, 32
	fmov	s0, 1.0e+0
	bl	_ZNSt8__detail20_Prime_rehash_policyC1Ef
	ldr	x0, [sp, 24]
	str	xzr, [x0, 48]
	nop
	ldp	x29, x30, [sp], 32
	.cfi_restore 30
	.cfi_restore 29
	.cfi_def_cfa_offset 0
	ret
	.cfi_endproc
.LFE5464:
	.size	_ZNSt10_HashtableIcSt4pairIKciESaIS2_ENSt8__detail10_Select1stESt8equal_toIcESt4hashIcENS4_18_Mod_range_hashingENS4_20_Default_ranged_hashENS4_20_Prime_rehash_policyENS4_17_Hashtable_traitsILb0ELb0ELb1EEEEC2Ev, .-_ZNSt10_HashtableIcSt4pairIKciESaIS2_ENSt8__detail10_Select1stESt8equal_toIcESt4hashIcENS4_18_Mod_range_hashingENS4_20_Default_ranged_hashENS4_20_Prime_rehash_policyENS4_17_Hashtable_traitsILb0ELb0ELb1EEEEC2Ev
	.weak	_ZNSt10_HashtableIcSt4pairIKciESaIS2_ENSt8__detail10_Select1stESt8equal_toIcESt4hashIcENS4_18_Mod_range_hashingENS4_20_Default_ranged_hashENS4_20_Prime_rehash_policyENS4_17_Hashtable_traitsILb0ELb0ELb1EEEEC1Ev
	.set	_ZNSt10_HashtableIcSt4pairIKciESaIS2_ENSt8__detail10_Select1stESt8equal_toIcESt4hashIcENS4_18_Mod_range_hashingENS4_20_Default_ranged_hashENS4_20_Prime_rehash_policyENS4_17_Hashtable_traitsILb0ELb0ELb1EEEEC1Ev,_ZNSt10_HashtableIcSt4pairIKciESaIS2_ENSt8__detail10_Select1stESt8equal_toIcESt4hashIcENS4_18_Mod_range_hashingENS4_20_Default_ranged_hashENS4_20_Prime_rehash_policyENS4_17_Hashtable_traitsILb0ELb0ELb1EEEEC2Ev
	.section	.text._ZNSt13unordered_mapIciSt4hashIcESt8equal_toIcESaISt4pairIKciEEEC2Ev,"axG",@progbits,_ZNSt13unordered_mapIciSt4hashIcESt8equal_toIcESaISt4pairIKciEEEC5Ev,comdat
	.align	2
	.weak	_ZNSt13unordered_mapIciSt4hashIcESt8equal_toIcESaISt4pairIKciEEEC2Ev
	.type	_ZNSt13unordered_mapIciSt4hashIcESt8equal_toIcESaISt4pairIKciEEEC2Ev, %function
_ZNSt13unordered_mapIciSt4hashIcESt8equal_toIcESaISt4pairIKciEEEC2Ev:
.LFB5466:
	.cfi_startproc
	stp	x29, x30, [sp, -32]!
	.cfi_def_cfa_offset 32
	.cfi_offset 29, -32
	.cfi_offset 30, -24
	mov	x29, sp
	str	x0, [sp, 24]
	ldr	x0, [sp, 24]
	bl	_ZNSt10_HashtableIcSt4pairIKciESaIS2_ENSt8__detail10_Select1stESt8equal_toIcESt4hashIcENS4_18_Mod_range_hashingENS4_20_Default_ranged_hashENS4_20_Prime_rehash_policyENS4_17_Hashtable_traitsILb0ELb0ELb1EEEEC1Ev
	nop
	ldp	x29, x30, [sp], 32
	.cfi_restore 30
	.cfi_restore 29
	.cfi_def_cfa_offset 0
	ret
	.cfi_endproc
.LFE5466:
	.size	_ZNSt13unordered_mapIciSt4hashIcESt8equal_toIcESaISt4pairIKciEEEC2Ev, .-_ZNSt13unordered_mapIciSt4hashIcESt8equal_toIcESaISt4pairIKciEEEC2Ev
	.weak	_ZNSt13unordered_mapIciSt4hashIcESt8equal_toIcESaISt4pairIKciEEEC1Ev
	.set	_ZNSt13unordered_mapIciSt4hashIcESt8equal_toIcESaISt4pairIKciEEEC1Ev,_ZNSt13unordered_mapIciSt4hashIcESt8equal_toIcESaISt4pairIKciEEEC2Ev
	.section	.text._ZNSt13unordered_mapIciSt4hashIcESt8equal_toIcESaISt4pairIKciEEED2Ev,"axG",@progbits,_ZNSt13unordered_mapIciSt4hashIcESt8equal_toIcESaISt4pairIKciEEED5Ev,comdat
	.align	2
	.weak	_ZNSt13unordered_mapIciSt4hashIcESt8equal_toIcESaISt4pairIKciEEED2Ev
	.type	_ZNSt13unordered_mapIciSt4hashIcESt8equal_toIcESaISt4pairIKciEEED2Ev, %function
_ZNSt13unordered_mapIciSt4hashIcESt8equal_toIcESaISt4pairIKciEEED2Ev:
.LFB5469:
	.cfi_startproc
	stp	x29, x30, [sp, -32]!
	.cfi_def_cfa_offset 32
	.cfi_offset 29, -32
	.cfi_offset 30, -24
	mov	x29, sp
	str	x0, [sp, 24]
	ldr	x0, [sp, 24]
	bl	_ZNSt10_HashtableIcSt4pairIKciESaIS2_ENSt8__detail10_Select1stESt8equal_toIcESt4hashIcENS4_18_Mod_range_hashingENS4_20_Default_ranged_hashENS4_20_Prime_rehash_policyENS4_17_Hashtable_traitsILb0ELb0ELb1EEEED1Ev
	nop
	ldp	x29, x30, [sp], 32
	.cfi_restore 30
	.cfi_restore 29
	.cfi_def_cfa_offset 0
	ret
	.cfi_endproc
.LFE5469:
	.size	_ZNSt13unordered_mapIciSt4hashIcESt8equal_toIcESaISt4pairIKciEEED2Ev, .-_ZNSt13unordered_mapIciSt4hashIcESt8equal_toIcESaISt4pairIKciEEED2Ev
	.weak	_ZNSt13unordered_mapIciSt4hashIcESt8equal_toIcESaISt4pairIKciEEED1Ev
	.set	_ZNSt13unordered_mapIciSt4hashIcESt8equal_toIcESaISt4pairIKciEEED1Ev,_ZNSt13unordered_mapIciSt4hashIcESt8equal_toIcESaISt4pairIKciEEED2Ev
	.section	.text._ZN3dbg11DebugOutputD2Ev,"axG",@progbits,_ZN3dbg11DebugOutputD5Ev,comdat
	.align	2
	.weak	_ZN3dbg11DebugOutputD2Ev
	.type	_ZN3dbg11DebugOutputD2Ev, %function
_ZN3dbg11DebugOutputD2Ev:
.LFB5472:
	.cfi_startproc
	stp	x29, x30, [sp, -32]!
	.cfi_def_cfa_offset 32
	.cfi_offset 29, -32
	.cfi_offset 30, -24
	mov	x29, sp
	str	x0, [sp, 24]
	ldr	x0, [sp, 24]
	add	x0, x0, 8
	bl	_ZNSt7__cxx1112basic_stringIcSt11char_traitsIcESaIcEED1Ev
	nop
	ldp	x29, x30, [sp], 32
	.cfi_restore 30
	.cfi_restore 29
	.cfi_def_cfa_offset 0
	ret
	.cfi_endproc
.LFE5472:
	.size	_ZN3dbg11DebugOutputD2Ev, .-_ZN3dbg11DebugOutputD2Ev
	.weak	_ZN3dbg11DebugOutputD1Ev
	.set	_ZN3dbg11DebugOutputD1Ev,_ZN3dbg11DebugOutputD2Ev
	.section	.rodata
	.align	3
.LC11:
	.string	"frequencySort"
	.align	3
.LC12:
	.string	"/media/psf/Home/Desktop/git/C-/mac/myproject/src/DataStructure/451/src/main.cpp"
	.align	3
.LC13:
	.string	"counts"
	.align	3
.LC14:
	.string	"buckets"
	.section	.text._ZN8Solution13frequencySortENSt7__cxx1112basic_stringIcSt11char_traitsIcESaIcEEE,"axG",@progbits,_ZN8Solution13frequencySortENSt7__cxx1112basic_stringIcSt11char_traitsIcESaIcEEE,comdat
	.align	2
	.weak	_ZN8Solution13frequencySortENSt7__cxx1112basic_stringIcSt11char_traitsIcESaIcEEE
	.type	_ZN8Solution13frequencySortENSt7__cxx1112basic_stringIcSt11char_traitsIcESaIcEEE, %function
_ZN8Solution13frequencySortENSt7__cxx1112basic_stringIcSt11char_traitsIcESaIcEEE:
.LFB5441:
	.cfi_startproc
	.cfi_personality 0x9b,DW.ref.__gxx_personality_v0
	.cfi_lsda 0x1b,.LLSDA5441
	stp	x29, x30, [sp, -352]!
	.cfi_def_cfa_offset 352
	.cfi_offset 29, -352
	.cfi_offset 30, -344
	mov	x29, sp
	stp	x19, x20, [sp, 16]
	stp	x21, x22, [sp, 32]
	stp	x23, x24, [sp, 48]
	stp	x25, x26, [sp, 64]
	str	x27, [sp, 80]
	.cfi_offset 19, -336
	.cfi_offset 20, -328
	.cfi_offset 21, -320
	.cfi_offset 22, -312
	.cfi_offset 23, -304
	.cfi_offset 24, -296
	.cfi_offset 25, -288
	.cfi_offset 26, -280
	.cfi_offset 27, -272
	mov	x20, x8
	str	x0, [sp, 120]
	str	x1, [sp, 112]
	adrp	x0, :got:__stack_chk_guard
	ldr	x0, [x0, #:got_lo12:__stack_chk_guard]
	ldr	x1, [x0]
	str	x1, [sp, 344]
	mov	x1, 0
	add	x0, sp, 208
	bl	_ZNSt13unordered_mapIciSt4hashIcESt8equal_toIcESaISt4pairIKciEEEC1Ev
	str	wzr, [sp, 136]
	ldr	x0, [sp, 112]
	str	x0, [sp, 160]
	ldr	x0, [sp, 160]
	bl	_ZNSt7__cxx1112basic_stringIcSt11char_traitsIcESaIcEE5beginEv
	str	x0, [sp, 152]
	ldr	x0, [sp, 160]
	bl	_ZNSt7__cxx1112basic_stringIcSt11char_traitsIcESaIcEE3endEv
	str	x0, [sp, 184]
	b	.L82
.L83:
	add	x0, sp, 152
	bl	_ZNK9__gnu_cxx17__normal_iteratorIPcNSt7__cxx1112basic_stringIcSt11char_traitsIcESaIcEEEEdeEv
	ldrb	w0, [x0]
	strb	w0, [sp, 144]
	add	x1, sp, 144
	add	x0, sp, 208
.LEHB8:
	bl	_ZNSt13unordered_mapIciSt4hashIcESt8equal_toIcESaISt4pairIKciEEEixERS5_
	ldr	w1, [x0]
	add	w1, w1, 1
	str	w1, [x0]
	add	x1, sp, 136
	bl	_ZSt3maxIiERKT_S2_S2_
	ldr	w0, [x0]
	str	w0, [sp, 136]
	add	x0, sp, 152
	bl	_ZN9__gnu_cxx17__normal_iteratorIPcNSt7__cxx1112basic_stringIcSt11char_traitsIcESaIcEEEEppEv
.L82:
	add	x1, sp, 184
	add	x0, sp, 152
	bl	_ZN9__gnu_cxxneIPcNSt7__cxx1112basic_stringIcSt11char_traitsIcESaIcEEEEEbRKNS_17__normal_iteratorIT_T0_EESD_
	and	w0, w0, 255
	cmp	w0, 0
	bne	.L83
	add	x4, sp, 304
	adrp	x0, .LC11
	add	x3, x0, :lo12:.LC11
	mov	w2, 14
	adrp	x0, .LC12
	add	x1, x0, :lo12:.LC12
	mov	x0, x4
	bl	_ZN3dbg11DebugOutputC1EPKciS2_
.LEHE8:
	adrp	x0, .LC13
	add	x0, x0, :lo12:.LC13
	str	x0, [sp, 264]
	add	x0, sp, 264
	mov	x26, x0
	mov	x27, 1
	add	x0, sp, 272
	mov	x8, x0
.LEHB9:
	bl	_ZN3dbg9type_nameISt13unordered_mapIciSt4hashIcESt8equal_toIcESaISt4pairIKciEEEEENSt7__cxx1112basic_stringIcSt11char_traitsIcESaIcEEEv
.LEHE9:
	add	x0, sp, 272
	str	x0, [sp, 96]
	mov	x0, 1
	str	x0, [sp, 104]
	add	x1, sp, 208
	add	x0, sp, 304
	mov	x5, x1
	ldp	x3, x4, [sp, 96]
	mov	x1, x26
	mov	x2, x27
.LEHB10:
	bl	_ZN3dbg11DebugOutput5printIJRSt13unordered_mapIciSt4hashIcESt8equal_toIcESaISt4pairIKciEEEEEENS_4lastIDpT_E4typeESt16initializer_listIPS8_ESI_INSt7__cxx1112basic_stringIcSt11char_traitsIcESaIcEEEEDpOSE_
.LEHE10:
	add	x19, sp, 272
	add	x19, x19, 32
.L85:
	add	x0, sp, 272
	cmp	x19, x0
	beq	.L84
	sub	x19, x19, #32
	mov	x0, x19
	bl	_ZNSt7__cxx1112basic_stringIcSt11char_traitsIcESaIcEED1Ev
	b	.L85
.L84:
	add	x0, sp, 304
	bl	_ZN3dbg11DebugOutputD1Ev
	ldr	w0, [sp, 136]
	add	w0, w0, 1
	sxtw	x19, w0
	add	x0, sp, 152
	bl	_ZNSaINSt7__cxx1112basic_stringIcSt11char_traitsIcESaIcEEEEC1Ev
	add	x1, sp, 152
	add	x0, sp, 184
	mov	x2, x1
	mov	x1, x19
.LEHB11:
	bl	_ZNSt6vectorINSt7__cxx1112basic_stringIcSt11char_traitsIcESaIcEEESaIS5_EEC1EmRKS6_
.LEHE11:
	add	x0, sp, 152
	bl	_ZNSaINSt7__cxx1112basic_stringIcSt11char_traitsIcESaIcEEEED1Ev
	add	x0, sp, 208
	str	x0, [sp, 168]
	ldr	x0, [sp, 168]
	bl	_ZNSt13unordered_mapIciSt4hashIcESt8equal_toIcESaISt4pairIKciEEE5beginEv
	str	x0, [sp, 144]
	ldr	x0, [sp, 168]
	bl	_ZNSt13unordered_mapIciSt4hashIcESt8equal_toIcESaISt4pairIKciEEE3endEv
	str	x0, [sp, 152]
	b	.L86
.L87:
	add	x0, sp, 144
	bl	_ZNKSt8__detail14_Node_iteratorISt4pairIKciELb0ELb0EEdeEv
	str	x0, [sp, 176]
	ldr	x0, [sp, 176]
	ldr	w0, [x0, 4]
	sxtw	x1, w0
	add	x0, sp, 184
	bl	_ZNSt6vectorINSt7__cxx1112basic_stringIcSt11char_traitsIcESaIcEEESaIS5_EEixEm
	mov	x21, x0
	ldr	x0, [sp, 176]
	ldr	w0, [x0, 4]
	sxtw	x19, w0
	ldr	x0, [sp, 176]
	ldrb	w26, [x0]
	add	x0, sp, 128
	bl	_ZNSaIcEC1Ev
	add	x1, sp, 128
	add	x0, sp, 304
	mov	x3, x1
	mov	w2, w26
	mov	x1, x19
.LEHB12:
	bl	_ZNSt7__cxx1112basic_stringIcSt11char_traitsIcESaIcEEC1IS3_EEmcRKS3_
.LEHE12:
	add	x0, sp, 304
	mov	x1, x0
	mov	x0, x21
.LEHB13:
	bl	_ZNSt7__cxx1112basic_stringIcSt11char_traitsIcESaIcEE6appendERKS4_
.LEHE13:
	add	x0, sp, 304
	bl	_ZNSt7__cxx1112basic_stringIcSt11char_traitsIcESaIcEED1Ev
	add	x0, sp, 128
	bl	_ZNSaIcED1Ev
	add	x0, sp, 144
	bl	_ZNSt8__detail14_Node_iteratorISt4pairIKciELb0ELb0EEppEv
.L86:
	add	x1, sp, 152
	add	x0, sp, 144
	bl	_ZNSt8__detailneERKNS_19_Node_iterator_baseISt4pairIKciELb0EEES6_
	and	w0, w0, 255
	cmp	w0, 0
	bne	.L87
	add	x4, sp, 304
	adrp	x0, .LC11
	add	x3, x0, :lo12:.LC11
	mov	w2, 19
	adrp	x0, .LC12
	add	x1, x0, :lo12:.LC12
	mov	x0, x4
.LEHB14:
	bl	_ZN3dbg11DebugOutputC1EPKciS2_
.LEHE14:
	adrp	x0, .LC14
	add	x0, x0, :lo12:.LC14
	str	x0, [sp, 264]
	add	x0, sp, 264
	mov	x22, x0
	mov	x23, 1
	add	x0, sp, 272
	mov	x8, x0
.LEHB15:
	bl	_ZN3dbg9type_nameISt6vectorINSt7__cxx1112basic_stringIcSt11char_traitsIcESaIcEEESaIS7_EEEES7_v
.LEHE15:
	add	x0, sp, 272
	mov	x24, x0
	mov	x25, 1
	add	x1, sp, 184
	add	x0, sp, 304
	mov	x5, x1
	mov	x3, x24
	mov	x4, x25
	mov	x1, x22
	mov	x2, x23
.LEHB16:
	bl	_ZN3dbg11DebugOutput5printIJRSt6vectorINSt7__cxx1112basic_stringIcSt11char_traitsIcESaIcEEESaIS8_EEEEENS_4lastIDpT_E4typeESt16initializer_listIPKcESH_IS8_EDpOSD_
.LEHE16:
	add	x19, sp, 272
	add	x19, x19, 32
.L89:
	add	x0, sp, 272
	cmp	x19, x0
	beq	.L88
	sub	x19, x19, #32
	mov	x0, x19
	bl	_ZNSt7__cxx1112basic_stringIcSt11char_traitsIcESaIcEED1Ev
	b	.L89
.L88:
	add	x0, sp, 304
	bl	_ZN3dbg11DebugOutputD1Ev
	mov	x0, x20
	bl	_ZNSt7__cxx1112basic_stringIcSt11char_traitsIcESaIcEEC1Ev
	ldr	w0, [sp, 136]
	str	w0, [sp, 140]
	b	.L90
.L91:
	ldrsw	x1, [sp, 140]
	add	x0, sp, 184
	bl	_ZNSt6vectorINSt7__cxx1112basic_stringIcSt11char_traitsIcESaIcEEESaIS5_EEixEm
	mov	x1, x0
	mov	x0, x20
.LEHB17:
	bl	_ZNSt7__cxx1112basic_stringIcSt11char_traitsIcESaIcEE6appendERKS4_
.LEHE17:
	ldr	w0, [sp, 140]
	sub	w0, w0, #1
	str	w0, [sp, 140]
.L90:
	ldr	w0, [sp, 140]
	cmp	w0, 0
	bgt	.L91
	nop
	add	x0, sp, 184
	bl	_ZNSt6vectorINSt7__cxx1112basic_stringIcSt11char_traitsIcESaIcEEESaIS5_EED1Ev
	add	x0, sp, 208
	bl	_ZNSt13unordered_mapIciSt4hashIcESt8equal_toIcESaISt4pairIKciEEED1Ev
	nop
	adrp	x0, :got:__stack_chk_guard
	ldr	x0, [x0, #:got_lo12:__stack_chk_guard]
	ldr	x2, [sp, 344]
	ldr	x1, [x0]
	subs	x2, x2, x1
	mov	x1, 0
	beq	.L107
	b	.L118
.L110:
	mov	x20, x0
	add	x19, sp, 272
	add	x19, x19, 32
.L95:
	add	x0, sp, 272
	cmp	x19, x0
	beq	.L94
	sub	x19, x19, #32
	mov	x0, x19
	bl	_ZNSt7__cxx1112basic_stringIcSt11char_traitsIcESaIcEED1Ev
	b	.L95
.L94:
	mov	x19, x20
	b	.L96
.L109:
	mov	x19, x0
.L96:
	add	x0, sp, 304
	bl	_ZN3dbg11DebugOutputD1Ev
	b	.L97
.L111:
	mov	x19, x0
	add	x0, sp, 152
	bl	_ZNSaINSt7__cxx1112basic_stringIcSt11char_traitsIcESaIcEEEED1Ev
	b	.L97
.L113:
	mov	x19, x0
	add	x0, sp, 304
	bl	_ZNSt7__cxx1112basic_stringIcSt11char_traitsIcESaIcEED1Ev
	b	.L100
.L112:
	mov	x19, x0
.L100:
	add	x0, sp, 128
	bl	_ZNSaIcED1Ev
	b	.L101
.L116:
	mov	x20, x0
	add	x19, sp, 272
	add	x19, x19, 32
.L104:
	add	x0, sp, 272
	cmp	x19, x0
	beq	.L103
	sub	x19, x19, #32
	mov	x0, x19
	bl	_ZNSt7__cxx1112basic_stringIcSt11char_traitsIcESaIcEED1Ev
	b	.L104
.L103:
	mov	x19, x20
	b	.L105
.L115:
	mov	x19, x0
.L105:
	add	x0, sp, 304
	bl	_ZN3dbg11DebugOutputD1Ev
	b	.L101
.L117:
	mov	x19, x0
	mov	x0, x20
	bl	_ZNSt7__cxx1112basic_stringIcSt11char_traitsIcESaIcEED1Ev
	b	.L101
.L114:
	mov	x19, x0
.L101:
	add	x0, sp, 184
	bl	_ZNSt6vectorINSt7__cxx1112basic_stringIcSt11char_traitsIcESaIcEEESaIS5_EED1Ev
	b	.L97
.L108:
	mov	x19, x0
.L97:
	add	x0, sp, 208
	bl	_ZNSt13unordered_mapIciSt4hashIcESt8equal_toIcESaISt4pairIKciEEED1Ev
	mov	x0, x19
.LEHB18:
	bl	_Unwind_Resume
.LEHE18:
.L118:
	bl	__stack_chk_fail
.L107:
	mov	x0, x20
	ldp	x19, x20, [sp, 16]
	ldp	x21, x22, [sp, 32]
	ldp	x23, x24, [sp, 48]
	ldp	x25, x26, [sp, 64]
	ldr	x27, [sp, 80]
	ldp	x29, x30, [sp], 352
	.cfi_restore 30
	.cfi_restore 29
	.cfi_restore 27
	.cfi_restore 25
	.cfi_restore 26
	.cfi_restore 23
	.cfi_restore 24
	.cfi_restore 21
	.cfi_restore 22
	.cfi_restore 19
	.cfi_restore 20
	.cfi_def_cfa_offset 0
	ret
	.cfi_endproc
.LFE5441:
	.section	.gcc_except_table._ZN8Solution13frequencySortENSt7__cxx1112basic_stringIcSt11char_traitsIcESaIcEEE,"aG",@progbits,_ZN8Solution13frequencySortENSt7__cxx1112basic_stringIcSt11char_traitsIcESaIcEEE,comdat
.LLSDA5441:
	.byte	0xff
	.byte	0xff
	.byte	0x1
	.uleb128 .LLSDACSE5441-.LLSDACSB5441
.LLSDACSB5441:
	.uleb128 .LEHB8-.LFB5441
	.uleb128 .LEHE8-.LEHB8
	.uleb128 .L108-.LFB5441
	.uleb128 0
	.uleb128 .LEHB9-.LFB5441
	.uleb128 .LEHE9-.LEHB9
	.uleb128 .L109-.LFB5441
	.uleb128 0
	.uleb128 .LEHB10-.LFB5441
	.uleb128 .LEHE10-.LEHB10
	.uleb128 .L110-.LFB5441
	.uleb128 0
	.uleb128 .LEHB11-.LFB5441
	.uleb128 .LEHE11-.LEHB11
	.uleb128 .L111-.LFB5441
	.uleb128 0
	.uleb128 .LEHB12-.LFB5441
	.uleb128 .LEHE12-.LEHB12
	.uleb128 .L112-.LFB5441
	.uleb128 0
	.uleb128 .LEHB13-.LFB5441
	.uleb128 .LEHE13-.LEHB13
	.uleb128 .L113-.LFB5441
	.uleb128 0
	.uleb128 .LEHB14-.LFB5441
	.uleb128 .LEHE14-.LEHB14
	.uleb128 .L114-.LFB5441
	.uleb128 0
	.uleb128 .LEHB15-.LFB5441
	.uleb128 .LEHE15-.LEHB15
	.uleb128 .L115-.LFB5441
	.uleb128 0
	.uleb128 .LEHB16-.LFB5441
	.uleb128 .LEHE16-.LEHB16
	.uleb128 .L116-.LFB5441
	.uleb128 0
	.uleb128 .LEHB17-.LFB5441
	.uleb128 .LEHE17-.LEHB17
	.uleb128 .L117-.LFB5441
	.uleb128 0
	.uleb128 .LEHB18-.LFB5441
	.uleb128 .LEHE18-.LEHB18
	.uleb128 0
	.uleb128 0
.LLSDACSE5441:
	.section	.text._ZN8Solution13frequencySortENSt7__cxx1112basic_stringIcSt11char_traitsIcESaIcEEE,"axG",@progbits,_ZN8Solution13frequencySortENSt7__cxx1112basic_stringIcSt11char_traitsIcESaIcEEE,comdat
	.size	_ZN8Solution13frequencySortENSt7__cxx1112basic_stringIcSt11char_traitsIcESaIcEEE, .-_ZN8Solution13frequencySortENSt7__cxx1112basic_stringIcSt11char_traitsIcESaIcEEE
	.section	.rodata
	.align	3
.LC15:
	.string	"tree"
	.align	3
.LC16:
	.string	"main"
	.align	3
.LC17:
	.string	"re"
	.text
	.align	2
	.global	main
	.type	main, %function
main:
.LFB5474:
	.cfi_startproc
	.cfi_personality 0x9b,DW.ref.__gxx_personality_v0
	.cfi_lsda 0x1b,.LLSDA5474
	stp	x29, x30, [sp, -224]!
	.cfi_def_cfa_offset 224
	.cfi_offset 29, -224
	.cfi_offset 30, -216
	mov	x29, sp
	stp	x19, x20, [sp, 16]
	stp	x21, x22, [sp, 32]
	str	x23, [sp, 48]
	.cfi_offset 19, -208
	.cfi_offset 20, -200
	.cfi_offset 21, -192
	.cfi_offset 22, -184
	.cfi_offset 23, -176
	str	w0, [sp, 76]
	str	x1, [sp, 64]
	adrp	x0, :got:__stack_chk_guard
	ldr	x0, [x0, #:got_lo12:__stack_chk_guard]
	ldr	x1, [x0]
	str	x1, [sp, 216]
	mov	x1, 0
	add	x0, sp, 96
	bl	_ZNSaIcEC1Ev
	add	x0, sp, 96
	add	x3, sp, 176
	mov	x2, x0
	adrp	x0, .LC15
	add	x1, x0, :lo12:.LC15
	mov	x0, x3
.LEHB19:
	bl	_ZNSt7__cxx1112basic_stringIcSt11char_traitsIcESaIcEEC1IS3_EEPKcRKS3_
.LEHE19:
	add	x1, sp, 176
	add	x0, sp, 88
	add	x2, sp, 112
	mov	x8, x2
.LEHB20:
	bl	_ZN8Solution13frequencySortENSt7__cxx1112basic_stringIcSt11char_traitsIcESaIcEEE
.LEHE20:
	add	x0, sp, 176
	bl	_ZNSt7__cxx1112basic_stringIcSt11char_traitsIcESaIcEED1Ev
	add	x0, sp, 96
	bl	_ZNSaIcED1Ev
	add	x4, sp, 176
	adrp	x0, .LC16
	add	x3, x0, :lo12:.LC16
	mov	w2, 31
	adrp	x0, .LC12
	add	x1, x0, :lo12:.LC12
	mov	x0, x4
.LEHB21:
	bl	_ZN3dbg11DebugOutputC1EPKciS2_
.LEHE21:
	adrp	x0, .LC17
	add	x0, x0, :lo12:.LC17
	str	x0, [sp, 104]
	add	x0, sp, 104
	mov	x20, x0
	mov	x21, 1
	add	x0, sp, 144
	mov	x8, x0
.LEHB22:
	bl	_ZN3dbg9type_nameINSt7__cxx1112basic_stringIcSt11char_traitsIcESaIcEEEEES6_v
.LEHE22:
	add	x0, sp, 144
	mov	x22, x0
	mov	x23, 1
	add	x1, sp, 112
	add	x0, sp, 176
	mov	x5, x1
	mov	x3, x22
	mov	x4, x23
	mov	x1, x20
	mov	x2, x21
.LEHB23:
	bl	_ZN3dbg11DebugOutput5printIJRNSt7__cxx1112basic_stringIcSt11char_traitsIcESaIcEEEEEENS_4lastIDpT_E4typeESt16initializer_listIPKcESE_IS7_EDpOSA_
.LEHE23:
	add	x19, sp, 144
	add	x19, x19, 32
.L121:
	add	x0, sp, 144
	cmp	x19, x0
	beq	.L120
	sub	x19, x19, #32
	mov	x0, x19
	bl	_ZNSt7__cxx1112basic_stringIcSt11char_traitsIcESaIcEED1Ev
	b	.L121
.L120:
	add	x0, sp, 176
	bl	_ZN3dbg11DebugOutputD1Ev
	mov	w19, 0
	add	x0, sp, 112
	bl	_ZNSt7__cxx1112basic_stringIcSt11char_traitsIcESaIcEED1Ev
	mov	w1, w19
	adrp	x0, :got:__stack_chk_guard
	ldr	x0, [x0, #:got_lo12:__stack_chk_guard]
	ldr	x3, [sp, 216]
	ldr	x2, [x0]
	subs	x3, x3, x2
	mov	x2, 0
	beq	.L130
	b	.L136
.L132:
	mov	x19, x0
	add	x0, sp, 176
	bl	_ZNSt7__cxx1112basic_stringIcSt11char_traitsIcESaIcEED1Ev
	b	.L124
.L131:
	mov	x19, x0
.L124:
	add	x0, sp, 96
	bl	_ZNSaIcED1Ev
	mov	x0, x19
.LEHB24:
	bl	_Unwind_Resume
.L135:
	mov	x20, x0
	add	x19, sp, 144
	add	x19, x19, 32
.L127:
	add	x0, sp, 144
	cmp	x19, x0
	beq	.L126
	sub	x19, x19, #32
	mov	x0, x19
	bl	_ZNSt7__cxx1112basic_stringIcSt11char_traitsIcESaIcEED1Ev
	b	.L127
.L126:
	mov	x19, x20
	b	.L128
.L134:
	mov	x19, x0
.L128:
	add	x0, sp, 176
	bl	_ZN3dbg11DebugOutputD1Ev
	b	.L129
.L133:
	mov	x19, x0
.L129:
	add	x0, sp, 112
	bl	_ZNSt7__cxx1112basic_stringIcSt11char_traitsIcESaIcEED1Ev
	mov	x0, x19
	bl	_Unwind_Resume
.LEHE24:
.L136:
	bl	__stack_chk_fail
.L130:
	mov	w0, w1
	ldp	x19, x20, [sp, 16]
	ldp	x21, x22, [sp, 32]
	ldr	x23, [sp, 48]
	ldp	x29, x30, [sp], 224
	.cfi_restore 30
	.cfi_restore 29
	.cfi_restore 23
	.cfi_restore 21
	.cfi_restore 22
	.cfi_restore 19
	.cfi_restore 20
	.cfi_def_cfa_offset 0
	ret
	.cfi_endproc
.LFE5474:
	.section	.gcc_except_table,"a",@progbits
.LLSDA5474:
	.byte	0xff
	.byte	0xff
	.byte	0x1
	.uleb128 .LLSDACSE5474-.LLSDACSB5474
.LLSDACSB5474:
	.uleb128 .LEHB19-.LFB5474
	.uleb128 .LEHE19-.LEHB19
	.uleb128 .L131-.LFB5474
	.uleb128 0
	.uleb128 .LEHB20-.LFB5474
	.uleb128 .LEHE20-.LEHB20
	.uleb128 .L132-.LFB5474
	.uleb128 0
	.uleb128 .LEHB21-.LFB5474
	.uleb128 .LEHE21-.LEHB21
	.uleb128 .L133-.LFB5474
	.uleb128 0
	.uleb128 .LEHB22-.LFB5474
	.uleb128 .LEHE22-.LEHB22
	.uleb128 .L134-.LFB5474
	.uleb128 0
	.uleb128 .LEHB23-.LFB5474
	.uleb128 .LEHE23-.LEHB23
	.uleb128 .L135-.LFB5474
	.uleb128 0
	.uleb128 .LEHB24-.LFB5474
	.uleb128 .LEHE24-.LEHB24
	.uleb128 0
	.uleb128 0
.LLSDACSE5474:
	.text
	.size	main, .-main
	.section	.text._ZN9__gnu_cxx11char_traitsIcE2eqERKcS3_,"axG",@progbits,_ZN9__gnu_cxx11char_traitsIcE2eqERKcS3_,comdat
	.align	2
	.weak	_ZN9__gnu_cxx11char_traitsIcE2eqERKcS3_
	.type	_ZN9__gnu_cxx11char_traitsIcE2eqERKcS3_, %function
_ZN9__gnu_cxx11char_traitsIcE2eqERKcS3_:
.LFB5476:
	.cfi_startproc
	sub	sp, sp, #16
	.cfi_def_cfa_offset 16
	str	x0, [sp, 8]
	str	x1, [sp]
	ldr	x0, [sp, 8]
	ldrb	w1, [x0]
	ldr	x0, [sp]
	ldrb	w0, [x0]
	cmp	w1, w0
	cset	w0, eq
	and	w0, w0, 255
	add	sp, sp, 16
	.cfi_def_cfa_offset 0
	ret
	.cfi_endproc
.LFE5476:
	.size	_ZN9__gnu_cxx11char_traitsIcE2eqERKcS3_, .-_ZN9__gnu_cxx11char_traitsIcE2eqERKcS3_
	.section	.text._ZN9__gnu_cxx11char_traitsIcE6lengthEPKc,"axG",@progbits,_ZN9__gnu_cxx11char_traitsIcE6lengthEPKc,comdat
	.align	2
	.weak	_ZN9__gnu_cxx11char_traitsIcE6lengthEPKc
	.type	_ZN9__gnu_cxx11char_traitsIcE6lengthEPKc, %function
_ZN9__gnu_cxx11char_traitsIcE6lengthEPKc:
.LFB5475:
	.cfi_startproc
	stp	x29, x30, [sp, -64]!
	.cfi_def_cfa_offset 64
	.cfi_offset 29, -64
	.cfi_offset 30, -56
	mov	x29, sp
	str	x0, [sp, 24]
	adrp	x0, :got:__stack_chk_guard
	ldr	x0, [x0, #:got_lo12:__stack_chk_guard]
	ldr	x1, [x0]
	str	x1, [sp, 56]
	mov	x1, 0
	str	xzr, [sp, 48]
	b	.L140
.L141:
	ldr	x0, [sp, 48]
	add	x0, x0, 1
	str	x0, [sp, 48]
.L140:
	ldr	x1, [sp, 24]
	ldr	x0, [sp, 48]
	add	x0, x1, x0
	strb	wzr, [sp, 47]
	add	x1, sp, 47
	bl	_ZN9__gnu_cxx11char_traitsIcE2eqERKcS3_
	and	w0, w0, 255
	eor	w0, w0, 1
	and	w0, w0, 255
	cmp	w0, 0
	bne	.L141
	ldr	x0, [sp, 48]
	mov	x1, x0
	adrp	x0, :got:__stack_chk_guard
	ldr	x0, [x0, #:got_lo12:__stack_chk_guard]
	ldr	x3, [sp, 56]
	ldr	x2, [x0]
	subs	x3, x3, x2
	mov	x2, 0
	beq	.L143
	bl	__stack_chk_fail
.L143:
	mov	x0, x1
	ldp	x29, x30, [sp], 64
	.cfi_restore 30
	.cfi_restore 29
	.cfi_def_cfa_offset 0
	ret
	.cfi_endproc
.LFE5475:
	.size	_ZN9__gnu_cxx11char_traitsIcE6lengthEPKc, .-_ZN9__gnu_cxx11char_traitsIcE6lengthEPKc
	.section	.text._ZNSt7__cxx1112basic_stringIcSt11char_traitsIcESaIcEE12_Alloc_hiderD2Ev,"axG",@progbits,_ZNSt7__cxx1112basic_stringIcSt11char_traitsIcESaIcEE12_Alloc_hiderD5Ev,comdat
	.align	2
	.weak	_ZNSt7__cxx1112basic_stringIcSt11char_traitsIcESaIcEE12_Alloc_hiderD2Ev
	.type	_ZNSt7__cxx1112basic_stringIcSt11char_traitsIcESaIcEE12_Alloc_hiderD2Ev, %function
_ZNSt7__cxx1112basic_stringIcSt11char_traitsIcESaIcEE12_Alloc_hiderD2Ev:
.LFB5583:
	.cfi_startproc
	stp	x29, x30, [sp, -32]!
	.cfi_def_cfa_offset 32
	.cfi_offset 29, -32
	.cfi_offset 30, -24
	mov	x29, sp
	str	x0, [sp, 24]
	ldr	x0, [sp, 24]
	bl	_ZNSaIcED2Ev
	nop
	ldp	x29, x30, [sp], 32
	.cfi_restore 30
	.cfi_restore 29
	.cfi_def_cfa_offset 0
	ret
	.cfi_endproc
.LFE5583:
	.size	_ZNSt7__cxx1112basic_stringIcSt11char_traitsIcESaIcEE12_Alloc_hiderD2Ev, .-_ZNSt7__cxx1112basic_stringIcSt11char_traitsIcESaIcEE12_Alloc_hiderD2Ev
	.weak	_ZNSt7__cxx1112basic_stringIcSt11char_traitsIcESaIcEE12_Alloc_hiderD1Ev
	.set	_ZNSt7__cxx1112basic_stringIcSt11char_traitsIcESaIcEE12_Alloc_hiderD1Ev,_ZNSt7__cxx1112basic_stringIcSt11char_traitsIcESaIcEE12_Alloc_hiderD2Ev
	.section	.text._ZNSt7__cxx1112basic_stringIcSt11char_traitsIcESaIcEEC2IS3_EEmcRKS3_,"axG",@progbits,_ZNSt7__cxx1112basic_stringIcSt11char_traitsIcESaIcEEC5IS3_EEmcRKS3_,comdat
	.align	2
	.weak	_ZNSt7__cxx1112basic_stringIcSt11char_traitsIcESaIcEEC2IS3_EEmcRKS3_
	.type	_ZNSt7__cxx1112basic_stringIcSt11char_traitsIcESaIcEEC2IS3_EEmcRKS3_, %function
_ZNSt7__cxx1112basic_stringIcSt11char_traitsIcESaIcEEC2IS3_EEmcRKS3_:
.LFB5585:
	.cfi_startproc
	.cfi_personality 0x9b,DW.ref.__gxx_personality_v0
	.cfi_lsda 0x1b,.LLSDA5585
	stp	x29, x30, [sp, -64]!
	.cfi_def_cfa_offset 64
	.cfi_offset 29, -64
	.cfi_offset 30, -56
	mov	x29, sp
	str	x19, [sp, 16]
	.cfi_offset 19, -48
	str	x0, [sp, 56]
	str	x1, [sp, 48]
	strb	w2, [sp, 47]
	str	x3, [sp, 32]
	ldr	x19, [sp, 56]
	ldr	x0, [sp, 56]
.LEHB25:
	bl	_ZNSt7__cxx1112basic_stringIcSt11char_traitsIcESaIcEE13_M_local_dataEv
	ldr	x2, [sp, 32]
	mov	x1, x0
	mov	x0, x19
	bl	_ZNSt7__cxx1112basic_stringIcSt11char_traitsIcESaIcEE12_Alloc_hiderC1EPcRKS3_
.LEHE25:
	ldrb	w2, [sp, 47]
	ldr	x1, [sp, 48]
	ldr	x0, [sp, 56]
.LEHB26:
	bl	_ZNSt7__cxx1112basic_stringIcSt11char_traitsIcESaIcEE12_M_constructEmc
.LEHE26:
	b	.L148
.L147:
	mov	x19, x0
	ldr	x0, [sp, 56]
	bl	_ZNSt7__cxx1112basic_stringIcSt11char_traitsIcESaIcEE12_Alloc_hiderD1Ev
	mov	x0, x19
.LEHB27:
	bl	_Unwind_Resume
.LEHE27:
.L148:
	ldr	x19, [sp, 16]
	ldp	x29, x30, [sp], 64
	.cfi_restore 30
	.cfi_restore 29
	.cfi_restore 19
	.cfi_def_cfa_offset 0
	ret
	.cfi_endproc
.LFE5585:
	.section	.gcc_except_table
.LLSDA5585:
	.byte	0xff
	.byte	0xff
	.byte	0x1
	.uleb128 .LLSDACSE5585-.LLSDACSB5585
.LLSDACSB5585:
	.uleb128 .LEHB25-.LFB5585
	.uleb128 .LEHE25-.LEHB25
	.uleb128 0
	.uleb128 0
	.uleb128 .LEHB26-.LFB5585
	.uleb128 .LEHE26-.LEHB26
	.uleb128 .L147-.LFB5585
	.uleb128 0
	.uleb128 .LEHB27-.LFB5585
	.uleb128 .LEHE27-.LEHB27
	.uleb128 0
	.uleb128 0
.LLSDACSE5585:
	.section	.text._ZNSt7__cxx1112basic_stringIcSt11char_traitsIcESaIcEEC2IS3_EEmcRKS3_,"axG",@progbits,_ZNSt7__cxx1112basic_stringIcSt11char_traitsIcESaIcEEC5IS3_EEmcRKS3_,comdat
	.size	_ZNSt7__cxx1112basic_stringIcSt11char_traitsIcESaIcEEC2IS3_EEmcRKS3_, .-_ZNSt7__cxx1112basic_stringIcSt11char_traitsIcESaIcEEC2IS3_EEmcRKS3_
	.weak	_ZNSt7__cxx1112basic_stringIcSt11char_traitsIcESaIcEEC1IS3_EEmcRKS3_
	.set	_ZNSt7__cxx1112basic_stringIcSt11char_traitsIcESaIcEEC1IS3_EEmcRKS3_,_ZNSt7__cxx1112basic_stringIcSt11char_traitsIcESaIcEEC2IS3_EEmcRKS3_
	.section	.text._ZStplIcSt11char_traitsIcESaIcEENSt7__cxx1112basic_stringIT_T0_T1_EEPKS5_OS8_,"axG",@progbits,_ZStplIcSt11char_traitsIcESaIcEENSt7__cxx1112basic_stringIT_T0_T1_EEPKS5_OS8_,comdat
	.align	2
	.weak	_ZStplIcSt11char_traitsIcESaIcEENSt7__cxx1112basic_stringIT_T0_T1_EEPKS5_OS8_
	.type	_ZStplIcSt11char_traitsIcESaIcEENSt7__cxx1112basic_stringIT_T0_T1_EEPKS5_OS8_, %function
_ZStplIcSt11char_traitsIcESaIcEENSt7__cxx1112basic_stringIT_T0_T1_EEPKS5_OS8_:
.LFB5732:
	.cfi_startproc
	stp	x29, x30, [sp, -48]!
	.cfi_def_cfa_offset 48
	.cfi_offset 29, -48
	.cfi_offset 30, -40
	mov	x29, sp
	str	x19, [sp, 16]
	.cfi_offset 19, -32
	mov	x19, x8
	str	x0, [sp, 40]
	str	x1, [sp, 32]
	ldr	x2, [sp, 40]
	mov	x1, 0
	ldr	x0, [sp, 32]
	bl	_ZNSt7__cxx1112basic_stringIcSt11char_traitsIcESaIcEE6insertEmPKc
	bl	_ZSt4moveIRNSt7__cxx1112basic_stringIcSt11char_traitsIcESaIcEEEEONSt16remove_referenceIT_E4typeEOS8_
	mov	x1, x0
	mov	x0, x19
	bl	_ZNSt7__cxx1112basic_stringIcSt11char_traitsIcESaIcEEC1EOS4_
	mov	x0, x19
	ldr	x19, [sp, 16]
	ldp	x29, x30, [sp], 48
	.cfi_restore 30
	.cfi_restore 29
	.cfi_restore 19
	.cfi_def_cfa_offset 0
	ret
	.cfi_endproc
.LFE5732:
	.size	_ZStplIcSt11char_traitsIcESaIcEENSt7__cxx1112basic_stringIT_T0_T1_EEPKS5_OS8_, .-_ZStplIcSt11char_traitsIcESaIcEENSt7__cxx1112basic_stringIT_T0_T1_EEPKS5_OS8_
	.section	.text._ZNSt7__cxx1112basic_stringIcSt11char_traitsIcESaIcEEC2IS3_EEPKcRKS3_,"axG",@progbits,_ZNSt7__cxx1112basic_stringIcSt11char_traitsIcESaIcEEC5IS3_EEPKcRKS3_,comdat
	.align	2
	.weak	_ZNSt7__cxx1112basic_stringIcSt11char_traitsIcESaIcEEC2IS3_EEPKcRKS3_
	.type	_ZNSt7__cxx1112basic_stringIcSt11char_traitsIcESaIcEEC2IS3_EEPKcRKS3_, %function
_ZNSt7__cxx1112basic_stringIcSt11char_traitsIcESaIcEEC2IS3_EEPKcRKS3_:
.LFB5786:
	.cfi_startproc
	.cfi_personality 0x9b,DW.ref.__gxx_personality_v0
	.cfi_lsda 0x1b,.LLSDA5786
	stp	x29, x30, [sp, -96]!
	.cfi_def_cfa_offset 96
	.cfi_offset 29, -96
	.cfi_offset 30, -88
	mov	x29, sp
	stp	x19, x20, [sp, 16]
	.cfi_offset 19, -80
	.cfi_offset 20, -72
	str	x0, [sp, 56]
	str	x1, [sp, 48]
	str	x2, [sp, 40]
	adrp	x0, :got:__stack_chk_guard
	ldr	x0, [x0, #:got_lo12:__stack_chk_guard]
	ldr	x1, [x0]
	str	x1, [sp, 88]
	mov	x1, 0
	ldr	x19, [sp, 56]
	ldr	x0, [sp, 56]
.LEHB28:
	bl	_ZNSt7__cxx1112basic_stringIcSt11char_traitsIcESaIcEE13_M_local_dataEv
	ldr	x2, [sp, 40]
	mov	x1, x0
	mov	x0, x19
	bl	_ZNSt7__cxx1112basic_stringIcSt11char_traitsIcESaIcEE12_Alloc_hiderC1EPcRKS3_
.LEHE28:
	ldr	x0, [sp, 48]
	cmp	x0, 0
	beq	.L152
	ldr	x0, [sp, 48]
.LEHB29:
	bl	_ZNSt11char_traitsIcE6lengthEPKc
	mov	x1, x0
	ldr	x0, [sp, 48]
	add	x0, x0, x1
	b	.L153
.L152:
	mov	x0, 1
.L153:
	str	x0, [sp, 80]
	mov	w3, w20
	ldr	x2, [sp, 80]
	ldr	x1, [sp, 48]
	ldr	x0, [sp, 56]
	bl	_ZNSt7__cxx1112basic_stringIcSt11char_traitsIcESaIcEE12_M_constructIPKcEEvT_S8_St20forward_iterator_tag
.LEHE29:
	b	.L157
.L156:
	mov	x19, x0
	ldr	x0, [sp, 56]
	bl	_ZNSt7__cxx1112basic_stringIcSt11char_traitsIcESaIcEE12_Alloc_hiderD1Ev
	mov	x0, x19
.LEHB30:
	bl	_Unwind_Resume
.LEHE30:
.L157:
	adrp	x0, :got:__stack_chk_guard
	ldr	x0, [x0, #:got_lo12:__stack_chk_guard]
	ldr	x2, [sp, 88]
	ldr	x1, [x0]
	subs	x2, x2, x1
	mov	x1, 0
	beq	.L155
	bl	__stack_chk_fail
.L155:
	ldp	x19, x20, [sp, 16]
	ldp	x29, x30, [sp], 96
	.cfi_restore 30
	.cfi_restore 29
	.cfi_restore 19
	.cfi_restore 20
	.cfi_def_cfa_offset 0
	ret
	.cfi_endproc
.LFE5786:
	.section	.gcc_except_table
.LLSDA5786:
	.byte	0xff
	.byte	0xff
	.byte	0x1
	.uleb128 .LLSDACSE5786-.LLSDACSB5786
.LLSDACSB5786:
	.uleb128 .LEHB28-.LFB5786
	.uleb128 .LEHE28-.LEHB28
	.uleb128 0
	.uleb128 0
	.uleb128 .LEHB29-.LFB5786
	.uleb128 .LEHE29-.LEHB29
	.uleb128 .L156-.LFB5786
	.uleb128 0
	.uleb128 .LEHB30-.LFB5786
	.uleb128 .LEHE30-.LEHB30
	.uleb128 0
	.uleb128 0
.LLSDACSE5786:
	.section	.text._ZNSt7__cxx1112basic_stringIcSt11char_traitsIcESaIcEEC2IS3_EEPKcRKS3_,"axG",@progbits,_ZNSt7__cxx1112basic_stringIcSt11char_traitsIcESaIcEEC5IS3_EEPKcRKS3_,comdat
	.size	_ZNSt7__cxx1112basic_stringIcSt11char_traitsIcESaIcEEC2IS3_EEPKcRKS3_, .-_ZNSt7__cxx1112basic_stringIcSt11char_traitsIcESaIcEEC2IS3_EEPKcRKS3_
	.weak	_ZNSt7__cxx1112basic_stringIcSt11char_traitsIcESaIcEEC1IS3_EEPKcRKS3_
	.set	_ZNSt7__cxx1112basic_stringIcSt11char_traitsIcESaIcEEC1IS3_EEPKcRKS3_,_ZNSt7__cxx1112basic_stringIcSt11char_traitsIcESaIcEEC2IS3_EEPKcRKS3_
	.section	.text._ZSt7setfillIcESt8_SetfillIT_ES1_,"axG",@progbits,_ZSt7setfillIcESt8_SetfillIT_ES1_,comdat
	.align	2
	.weak	_ZSt7setfillIcESt8_SetfillIT_ES1_
	.type	_ZSt7setfillIcESt8_SetfillIT_ES1_, %function
_ZSt7setfillIcESt8_SetfillIT_ES1_:
.LFB5793:
	.cfi_startproc
	sub	sp, sp, #16
	.cfi_def_cfa_offset 16
	strb	w0, [sp, 15]
	ldrb	w0, [sp, 15]
	add	sp, sp, 16
	.cfi_def_cfa_offset 0
	ret
	.cfi_endproc
.LFE5793:
	.size	_ZSt7setfillIcESt8_SetfillIT_ES1_, .-_ZSt7setfillIcESt8_SetfillIT_ES1_
	.section	.text._ZSt11__addressofINSt7__cxx1112basic_stringIcSt11char_traitsIcESaIcEEEEPT_RS6_,"axG",@progbits,_ZSt11__addressofINSt7__cxx1112basic_stringIcSt11char_traitsIcESaIcEEEEPT_RS6_,comdat
	.align	2
	.weak	_ZSt11__addressofINSt7__cxx1112basic_stringIcSt11char_traitsIcESaIcEEEEPT_RS6_
	.type	_ZSt11__addressofINSt7__cxx1112basic_stringIcSt11char_traitsIcESaIcEEEEPT_RS6_, %function
_ZSt11__addressofINSt7__cxx1112basic_stringIcSt11char_traitsIcESaIcEEEEPT_RS6_:
.LFB5808:
	.cfi_startproc
	sub	sp, sp, #16
	.cfi_def_cfa_offset 16
	str	x0, [sp, 8]
	ldr	x0, [sp, 8]
	add	sp, sp, 16
	.cfi_def_cfa_offset 0
	ret
	.cfi_endproc
.LFE5808:
	.size	_ZSt11__addressofINSt7__cxx1112basic_stringIcSt11char_traitsIcESaIcEEEEPT_RS6_, .-_ZSt11__addressofINSt7__cxx1112basic_stringIcSt11char_traitsIcESaIcEEEEPT_RS6_
	.section	.text._ZNSt8__detail21_Hashtable_ebo_helperILi1ESt4hashIcELb1EEC2Ev,"axG",@progbits,_ZNSt8__detail21_Hashtable_ebo_helperILi1ESt4hashIcELb1EEC5Ev,comdat
	.align	2
	.weak	_ZNSt8__detail21_Hashtable_ebo_helperILi1ESt4hashIcELb1EEC2Ev
	.type	_ZNSt8__detail21_Hashtable_ebo_helperILi1ESt4hashIcELb1EEC2Ev, %function
_ZNSt8__detail21_Hashtable_ebo_helperILi1ESt4hashIcELb1EEC2Ev:
.LFB5840:
	.cfi_startproc
	sub	sp, sp, #16
	.cfi_def_cfa_offset 16
	str	x0, [sp, 8]
	nop
	add	sp, sp, 16
	.cfi_def_cfa_offset 0
	ret
	.cfi_endproc
.LFE5840:
	.size	_ZNSt8__detail21_Hashtable_ebo_helperILi1ESt4hashIcELb1EEC2Ev, .-_ZNSt8__detail21_Hashtable_ebo_helperILi1ESt4hashIcELb1EEC2Ev
	.weak	_ZNSt8__detail21_Hashtable_ebo_helperILi1ESt4hashIcELb1EEC1Ev
	.set	_ZNSt8__detail21_Hashtable_ebo_helperILi1ESt4hashIcELb1EEC1Ev,_ZNSt8__detail21_Hashtable_ebo_helperILi1ESt4hashIcELb1EEC2Ev
	.section	.text._ZNSt8__detail21_Hashtable_ebo_helperILi0ESt8equal_toIcELb1EEC2Ev,"axG",@progbits,_ZNSt8__detail21_Hashtable_ebo_helperILi0ESt8equal_toIcELb1EEC5Ev,comdat
	.align	2
	.weak	_ZNSt8__detail21_Hashtable_ebo_helperILi0ESt8equal_toIcELb1EEC2Ev
	.type	_ZNSt8__detail21_Hashtable_ebo_helperILi0ESt8equal_toIcELb1EEC2Ev, %function
_ZNSt8__detail21_Hashtable_ebo_helperILi0ESt8equal_toIcELb1EEC2Ev:
.LFB5843:
	.cfi_startproc
	sub	sp, sp, #16
	.cfi_def_cfa_offset 16
	str	x0, [sp, 8]
	nop
	add	sp, sp, 16
	.cfi_def_cfa_offset 0
	ret
	.cfi_endproc
.LFE5843:
	.size	_ZNSt8__detail21_Hashtable_ebo_helperILi0ESt8equal_toIcELb1EEC2Ev, .-_ZNSt8__detail21_Hashtable_ebo_helperILi0ESt8equal_toIcELb1EEC2Ev
	.weak	_ZNSt8__detail21_Hashtable_ebo_helperILi0ESt8equal_toIcELb1EEC1Ev
	.set	_ZNSt8__detail21_Hashtable_ebo_helperILi0ESt8equal_toIcELb1EEC1Ev,_ZNSt8__detail21_Hashtable_ebo_helperILi0ESt8equal_toIcELb1EEC2Ev
	.section	.text._ZNSt8__detail21_Hashtable_ebo_helperILi0ESaINS_10_Hash_nodeISt4pairIKciELb0EEEELb1EEC2Ev,"axG",@progbits,_ZNSt8__detail21_Hashtable_ebo_helperILi0ESaINS_10_Hash_nodeISt4pairIKciELb0EEEELb1EEC5Ev,comdat
	.align	2
	.weak	_ZNSt8__detail21_Hashtable_ebo_helperILi0ESaINS_10_Hash_nodeISt4pairIKciELb0EEEELb1EEC2Ev
	.type	_ZNSt8__detail21_Hashtable_ebo_helperILi0ESaINS_10_Hash_nodeISt4pairIKciELb0EEEELb1EEC2Ev, %function
_ZNSt8__detail21_Hashtable_ebo_helperILi0ESaINS_10_Hash_nodeISt4pairIKciELb0EEEELb1EEC2Ev:
.LFB5846:
	.cfi_startproc
	stp	x29, x30, [sp, -32]!
	.cfi_def_cfa_offset 32
	.cfi_offset 29, -32
	.cfi_offset 30, -24
	mov	x29, sp
	str	x0, [sp, 24]
	ldr	x0, [sp, 24]
	bl	_ZNSaINSt8__detail10_Hash_nodeISt4pairIKciELb0EEEEC2Ev
	nop
	ldp	x29, x30, [sp], 32
	.cfi_restore 30
	.cfi_restore 29
	.cfi_def_cfa_offset 0
	ret
	.cfi_endproc
.LFE5846:
	.size	_ZNSt8__detail21_Hashtable_ebo_helperILi0ESaINS_10_Hash_nodeISt4pairIKciELb0EEEELb1EEC2Ev, .-_ZNSt8__detail21_Hashtable_ebo_helperILi0ESaINS_10_Hash_nodeISt4pairIKciELb0EEEELb1EEC2Ev
	.weak	_ZNSt8__detail21_Hashtable_ebo_helperILi0ESaINS_10_Hash_nodeISt4pairIKciELb0EEEELb1EEC1Ev
	.set	_ZNSt8__detail21_Hashtable_ebo_helperILi0ESaINS_10_Hash_nodeISt4pairIKciELb0EEEELb1EEC1Ev,_ZNSt8__detail21_Hashtable_ebo_helperILi0ESaINS_10_Hash_nodeISt4pairIKciELb0EEEELb1EEC2Ev
	.section	.text._ZNSaINSt8__detail10_Hash_nodeISt4pairIKciELb0EEEED2Ev,"axG",@progbits,_ZNSaINSt8__detail10_Hash_nodeISt4pairIKciELb0EEEED5Ev,comdat
	.align	2
	.weak	_ZNSaINSt8__detail10_Hash_nodeISt4pairIKciELb0EEEED2Ev
	.type	_ZNSaINSt8__detail10_Hash_nodeISt4pairIKciELb0EEEED2Ev, %function
_ZNSaINSt8__detail10_Hash_nodeISt4pairIKciELb0EEEED2Ev:
.LFB5849:
	.cfi_startproc
	stp	x29, x30, [sp, -32]!
	.cfi_def_cfa_offset 32
	.cfi_offset 29, -32
	.cfi_offset 30, -24
	mov	x29, sp
	str	x0, [sp, 24]
	ldr	x0, [sp, 24]
	bl	_ZN9__gnu_cxx13new_allocatorINSt8__detail10_Hash_nodeISt4pairIKciELb0EEEED2Ev
	nop
	ldp	x29, x30, [sp], 32
	.cfi_restore 30
	.cfi_restore 29
	.cfi_def_cfa_offset 0
	ret
	.cfi_endproc
.LFE5849:
	.size	_ZNSaINSt8__detail10_Hash_nodeISt4pairIKciELb0EEEED2Ev, .-_ZNSaINSt8__detail10_Hash_nodeISt4pairIKciELb0EEEED2Ev
	.weak	_ZNSaINSt8__detail10_Hash_nodeISt4pairIKciELb0EEEED1Ev
	.set	_ZNSaINSt8__detail10_Hash_nodeISt4pairIKciELb0EEEED1Ev,_ZNSaINSt8__detail10_Hash_nodeISt4pairIKciELb0EEEED2Ev
	.section	.text._ZNSt10_HashtableIcSt4pairIKciESaIS2_ENSt8__detail10_Select1stESt8equal_toIcESt4hashIcENS4_18_Mod_range_hashingENS4_20_Default_ranged_hashENS4_20_Prime_rehash_policyENS4_17_Hashtable_traitsILb0ELb0ELb1EEEED2Ev,"axG",@progbits,_ZNSt10_HashtableIcSt4pairIKciESaIS2_ENSt8__detail10_Select1stESt8equal_toIcESt4hashIcENS4_18_Mod_range_hashingENS4_20_Default_ranged_hashENS4_20_Prime_rehash_policyENS4_17_Hashtable_traitsILb0ELb0ELb1EEEED5Ev,comdat
	.align	2
	.weak	_ZNSt10_HashtableIcSt4pairIKciESaIS2_ENSt8__detail10_Select1stESt8equal_toIcESt4hashIcENS4_18_Mod_range_hashingENS4_20_Default_ranged_hashENS4_20_Prime_rehash_policyENS4_17_Hashtable_traitsILb0ELb0ELb1EEEED2Ev
	.type	_ZNSt10_HashtableIcSt4pairIKciESaIS2_ENSt8__detail10_Select1stESt8equal_toIcESt4hashIcENS4_18_Mod_range_hashingENS4_20_Default_ranged_hashENS4_20_Prime_rehash_policyENS4_17_Hashtable_traitsILb0ELb0ELb1EEEED2Ev, %function
_ZNSt10_HashtableIcSt4pairIKciESaIS2_ENSt8__detail10_Select1stESt8equal_toIcESt4hashIcENS4_18_Mod_range_hashingENS4_20_Default_ranged_hashENS4_20_Prime_rehash_policyENS4_17_Hashtable_traitsILb0ELb0ELb1EEEED2Ev:
.LFB5852:
	.cfi_startproc
	.cfi_personality 0x9b,DW.ref.__gxx_personality_v0
	.cfi_lsda 0x1b,.LLSDA5852
	stp	x29, x30, [sp, -32]!
	.cfi_def_cfa_offset 32
	.cfi_offset 29, -32
	.cfi_offset 30, -24
	mov	x29, sp
	str	x0, [sp, 24]
	ldr	x0, [sp, 24]
	bl	_ZNSt10_HashtableIcSt4pairIKciESaIS2_ENSt8__detail10_Select1stESt8equal_toIcESt4hashIcENS4_18_Mod_range_hashingENS4_20_Default_ranged_hashENS4_20_Prime_rehash_policyENS4_17_Hashtable_traitsILb0ELb0ELb1EEEE5clearEv
	ldr	x0, [sp, 24]
	bl	_ZNSt10_HashtableIcSt4pairIKciESaIS2_ENSt8__detail10_Select1stESt8equal_toIcESt4hashIcENS4_18_Mod_range_hashingENS4_20_Default_ranged_hashENS4_20_Prime_rehash_policyENS4_17_Hashtable_traitsILb0ELb0ELb1EEEE21_M_deallocate_bucketsEv
	ldr	x0, [sp, 24]
	bl	_ZNSt8__detail16_Hashtable_allocISaINS_10_Hash_nodeISt4pairIKciELb0EEEEED2Ev
	nop
	ldp	x29, x30, [sp], 32
	.cfi_restore 30
	.cfi_restore 29
	.cfi_def_cfa_offset 0
	ret
	.cfi_endproc
.LFE5852:
	.section	.gcc_except_table
.LLSDA5852:
	.byte	0xff
	.byte	0xff
	.byte	0x1
	.uleb128 .LLSDACSE5852-.LLSDACSB5852
.LLSDACSB5852:
.LLSDACSE5852:
	.section	.text._ZNSt10_HashtableIcSt4pairIKciESaIS2_ENSt8__detail10_Select1stESt8equal_toIcESt4hashIcENS4_18_Mod_range_hashingENS4_20_Default_ranged_hashENS4_20_Prime_rehash_policyENS4_17_Hashtable_traitsILb0ELb0ELb1EEEED2Ev,"axG",@progbits,_ZNSt10_HashtableIcSt4pairIKciESaIS2_ENSt8__detail10_Select1stESt8equal_toIcESt4hashIcENS4_18_Mod_range_hashingENS4_20_Default_ranged_hashENS4_20_Prime_rehash_policyENS4_17_Hashtable_traitsILb0ELb0ELb1EEEED5Ev,comdat
	.size	_ZNSt10_HashtableIcSt4pairIKciESaIS2_ENSt8__detail10_Select1stESt8equal_toIcESt4hashIcENS4_18_Mod_range_hashingENS4_20_Default_ranged_hashENS4_20_Prime_rehash_policyENS4_17_Hashtable_traitsILb0ELb0ELb1EEEED2Ev, .-_ZNSt10_HashtableIcSt4pairIKciESaIS2_ENSt8__detail10_Select1stESt8equal_toIcESt4hashIcENS4_18_Mod_range_hashingENS4_20_Default_ranged_hashENS4_20_Prime_rehash_policyENS4_17_Hashtable_traitsILb0ELb0ELb1EEEED2Ev
	.weak	_ZNSt10_HashtableIcSt4pairIKciESaIS2_ENSt8__detail10_Select1stESt8equal_toIcESt4hashIcENS4_18_Mod_range_hashingENS4_20_Default_ranged_hashENS4_20_Prime_rehash_policyENS4_17_Hashtable_traitsILb0ELb0ELb1EEEED1Ev
	.set	_ZNSt10_HashtableIcSt4pairIKciESaIS2_ENSt8__detail10_Select1stESt8equal_toIcESt4hashIcENS4_18_Mod_range_hashingENS4_20_Default_ranged_hashENS4_20_Prime_rehash_policyENS4_17_Hashtable_traitsILb0ELb0ELb1EEEED1Ev,_ZNSt10_HashtableIcSt4pairIKciESaIS2_ENSt8__detail10_Select1stESt8equal_toIcESt4hashIcENS4_18_Mod_range_hashingENS4_20_Default_ranged_hashENS4_20_Prime_rehash_policyENS4_17_Hashtable_traitsILb0ELb0ELb1EEEED2Ev
	.section	.text._ZN9__gnu_cxxneIPcNSt7__cxx1112basic_stringIcSt11char_traitsIcESaIcEEEEEbRKNS_17__normal_iteratorIT_T0_EESD_,"axG",@progbits,_ZN9__gnu_cxxneIPcNSt7__cxx1112basic_stringIcSt11char_traitsIcESaIcEEEEEbRKNS_17__normal_iteratorIT_T0_EESD_,comdat
	.align	2
	.weak	_ZN9__gnu_cxxneIPcNSt7__cxx1112basic_stringIcSt11char_traitsIcESaIcEEEEEbRKNS_17__normal_iteratorIT_T0_EESD_
	.type	_ZN9__gnu_cxxneIPcNSt7__cxx1112basic_stringIcSt11char_traitsIcESaIcEEEEEbRKNS_17__normal_iteratorIT_T0_EESD_, %function
_ZN9__gnu_cxxneIPcNSt7__cxx1112basic_stringIcSt11char_traitsIcESaIcEEEEEbRKNS_17__normal_iteratorIT_T0_EESD_:
.LFB5856:
	.cfi_startproc
	stp	x29, x30, [sp, -48]!
	.cfi_def_cfa_offset 48
	.cfi_offset 29, -48
	.cfi_offset 30, -40
	mov	x29, sp
	str	x19, [sp, 16]
	.cfi_offset 19, -32
	str	x0, [sp, 40]
	str	x1, [sp, 32]
	ldr	x0, [sp, 40]
	bl	_ZNK9__gnu_cxx17__normal_iteratorIPcNSt7__cxx1112basic_stringIcSt11char_traitsIcESaIcEEEE4baseEv
	ldr	x19, [x0]
	ldr	x0, [sp, 32]
	bl	_ZNK9__gnu_cxx17__normal_iteratorIPcNSt7__cxx1112basic_stringIcSt11char_traitsIcESaIcEEEE4baseEv
	ldr	x0, [x0]
	cmp	x19, x0
	cset	w0, ne
	and	w0, w0, 255
	ldr	x19, [sp, 16]
	ldp	x29, x30, [sp], 48
	.cfi_restore 30
	.cfi_restore 29
	.cfi_restore 19
	.cfi_def_cfa_offset 0
	ret
	.cfi_endproc
.LFE5856:
	.size	_ZN9__gnu_cxxneIPcNSt7__cxx1112basic_stringIcSt11char_traitsIcESaIcEEEEEbRKNS_17__normal_iteratorIT_T0_EESD_, .-_ZN9__gnu_cxxneIPcNSt7__cxx1112basic_stringIcSt11char_traitsIcESaIcEEEEEbRKNS_17__normal_iteratorIT_T0_EESD_
	.section	.text._ZN9__gnu_cxx17__normal_iteratorIPcNSt7__cxx1112basic_stringIcSt11char_traitsIcESaIcEEEEppEv,"axG",@progbits,_ZN9__gnu_cxx17__normal_iteratorIPcNSt7__cxx1112basic_stringIcSt11char_traitsIcESaIcEEEEppEv,comdat
	.align	2
	.weak	_ZN9__gnu_cxx17__normal_iteratorIPcNSt7__cxx1112basic_stringIcSt11char_traitsIcESaIcEEEEppEv
	.type	_ZN9__gnu_cxx17__normal_iteratorIPcNSt7__cxx1112basic_stringIcSt11char_traitsIcESaIcEEEEppEv, %function
_ZN9__gnu_cxx17__normal_iteratorIPcNSt7__cxx1112basic_stringIcSt11char_traitsIcESaIcEEEEppEv:
.LFB5857:
	.cfi_startproc
	sub	sp, sp, #16
	.cfi_def_cfa_offset 16
	str	x0, [sp, 8]
	ldr	x0, [sp, 8]
	ldr	x0, [x0]
	add	x1, x0, 1
	ldr	x0, [sp, 8]
	str	x1, [x0]
	ldr	x0, [sp, 8]
	add	sp, sp, 16
	.cfi_def_cfa_offset 0
	ret
	.cfi_endproc
.LFE5857:
	.size	_ZN9__gnu_cxx17__normal_iteratorIPcNSt7__cxx1112basic_stringIcSt11char_traitsIcESaIcEEEEppEv, .-_ZN9__gnu_cxx17__normal_iteratorIPcNSt7__cxx1112basic_stringIcSt11char_traitsIcESaIcEEEEppEv
	.section	.text._ZNK9__gnu_cxx17__normal_iteratorIPcNSt7__cxx1112basic_stringIcSt11char_traitsIcESaIcEEEEdeEv,"axG",@progbits,_ZNK9__gnu_cxx17__normal_iteratorIPcNSt7__cxx1112basic_stringIcSt11char_traitsIcESaIcEEEEdeEv,comdat
	.align	2
	.weak	_ZNK9__gnu_cxx17__normal_iteratorIPcNSt7__cxx1112basic_stringIcSt11char_traitsIcESaIcEEEEdeEv
	.type	_ZNK9__gnu_cxx17__normal_iteratorIPcNSt7__cxx1112basic_stringIcSt11char_traitsIcESaIcEEEEdeEv, %function
_ZNK9__gnu_cxx17__normal_iteratorIPcNSt7__cxx1112basic_stringIcSt11char_traitsIcESaIcEEEEdeEv:
.LFB5858:
	.cfi_startproc
	sub	sp, sp, #16
	.cfi_def_cfa_offset 16
	str	x0, [sp, 8]
	ldr	x0, [sp, 8]
	ldr	x0, [x0]
	add	sp, sp, 16
	.cfi_def_cfa_offset 0
	ret
	.cfi_endproc
.LFE5858:
	.size	_ZNK9__gnu_cxx17__normal_iteratorIPcNSt7__cxx1112basic_stringIcSt11char_traitsIcESaIcEEEEdeEv, .-_ZNK9__gnu_cxx17__normal_iteratorIPcNSt7__cxx1112basic_stringIcSt11char_traitsIcESaIcEEEEdeEv
	.section	.text._ZNSt13unordered_mapIciSt4hashIcESt8equal_toIcESaISt4pairIKciEEEixERS5_,"axG",@progbits,_ZNSt13unordered_mapIciSt4hashIcESt8equal_toIcESaISt4pairIKciEEEixERS5_,comdat
	.align	2
	.weak	_ZNSt13unordered_mapIciSt4hashIcESt8equal_toIcESaISt4pairIKciEEEixERS5_
	.type	_ZNSt13unordered_mapIciSt4hashIcESt8equal_toIcESaISt4pairIKciEEEixERS5_, %function
_ZNSt13unordered_mapIciSt4hashIcESt8equal_toIcESaISt4pairIKciEEEixERS5_:
.LFB5859:
	.cfi_startproc
	stp	x29, x30, [sp, -32]!
	.cfi_def_cfa_offset 32
	.cfi_offset 29, -32
	.cfi_offset 30, -24
	mov	x29, sp
	str	x0, [sp, 24]
	str	x1, [sp, 16]
	ldr	x0, [sp, 24]
	ldr	x1, [sp, 16]
	bl	_ZNSt8__detail9_Map_baseIcSt4pairIKciESaIS3_ENS_10_Select1stESt8equal_toIcESt4hashIcENS_18_Mod_range_hashingENS_20_Default_ranged_hashENS_20_Prime_rehash_policyENS_17_Hashtable_traitsILb0ELb0ELb1EEELb1EEixERS2_
	ldp	x29, x30, [sp], 32
	.cfi_restore 30
	.cfi_restore 29
	.cfi_def_cfa_offset 0
	ret
	.cfi_endproc
.LFE5859:
	.size	_ZNSt13unordered_mapIciSt4hashIcESt8equal_toIcESaISt4pairIKciEEEixERS5_, .-_ZNSt13unordered_mapIciSt4hashIcESt8equal_toIcESaISt4pairIKciEEEixERS5_
	.section	.text._ZSt3maxIiERKT_S2_S2_,"axG",@progbits,_ZSt3maxIiERKT_S2_S2_,comdat
	.align	2
	.weak	_ZSt3maxIiERKT_S2_S2_
	.type	_ZSt3maxIiERKT_S2_S2_, %function
_ZSt3maxIiERKT_S2_S2_:
.LFB5860:
	.cfi_startproc
	sub	sp, sp, #16
	.cfi_def_cfa_offset 16
	str	x0, [sp, 8]
	str	x1, [sp]
	ldr	x0, [sp, 8]
	ldr	w1, [x0]
	ldr	x0, [sp]
	ldr	w0, [x0]
	cmp	w1, w0
	bge	.L176
	ldr	x0, [sp]
	b	.L177
.L176:
	ldr	x0, [sp, 8]
.L177:
	add	sp, sp, 16
	.cfi_def_cfa_offset 0
	ret
	.cfi_endproc
.LFE5860:
	.size	_ZSt3maxIiERKT_S2_S2_, .-_ZSt3maxIiERKT_S2_S2_
	.section	.text._ZN3dbg9type_nameISt13unordered_mapIciSt4hashIcESt8equal_toIcESaISt4pairIKciEEEEENSt7__cxx1112basic_stringIcSt11char_traitsIcESaIcEEEv,"axG",@progbits,_ZN3dbg9type_nameISt13unordered_mapIciSt4hashIcESt8equal_toIcESaISt4pairIKciEEEEENSt7__cxx1112basic_stringIcSt11char_traitsIcESaIcEEEv,comdat
	.align	2
	.weak	_ZN3dbg9type_nameISt13unordered_mapIciSt4hashIcESt8equal_toIcESaISt4pairIKciEEEEENSt7__cxx1112basic_stringIcSt11char_traitsIcESaIcEEEv
	.type	_ZN3dbg9type_nameISt13unordered_mapIciSt4hashIcESt8equal_toIcESaISt4pairIKciEEEEENSt7__cxx1112basic_stringIcSt11char_traitsIcESaIcEEEv, %function
_ZN3dbg9type_nameISt13unordered_mapIciSt4hashIcESt8equal_toIcESaISt4pairIKciEEEEENSt7__cxx1112basic_stringIcSt11char_traitsIcESaIcEEEv:
.LFB5861:
	.cfi_startproc
	stp	x29, x30, [sp, -80]!
	.cfi_def_cfa_offset 80
	.cfi_offset 29, -80
	.cfi_offset 30, -72
	mov	x29, sp
	str	x19, [sp, 16]
	.cfi_offset 19, -64
	mov	x19, x8
	adrp	x0, :got:__stack_chk_guard
	ldr	x0, [x0, #:got_lo12:__stack_chk_guard]
	ldr	x2, [x0]
	str	x2, [sp, 72]
	mov	x2, 0
	mov	x8, x19
	mov	w0, w1
	bl	_ZN3dbg13get_type_nameIJESt13unordered_mapIciSt4hashIcESt8equal_toIcESaISt4pairIKciEEEEENSt7__cxx1112basic_stringIcSt11char_traitsIcESaIcEEENS_8type_tagIT0_EE
	adrp	x0, :got:__stack_chk_guard
	ldr	x0, [x0, #:got_lo12:__stack_chk_guard]
	ldr	x2, [sp, 72]
	ldr	x1, [x0]
	subs	x2, x2, x1
	mov	x1, 0
	beq	.L180
	bl	__stack_chk_fail
.L180:
	mov	x0, x19
	ldr	x19, [sp, 16]
	ldp	x29, x30, [sp], 80
	.cfi_restore 30
	.cfi_restore 29
	.cfi_restore 19
	.cfi_def_cfa_offset 0
	ret
	.cfi_endproc
.LFE5861:
	.size	_ZN3dbg9type_nameISt13unordered_mapIciSt4hashIcESt8equal_toIcESaISt4pairIKciEEEEENSt7__cxx1112basic_stringIcSt11char_traitsIcESaIcEEEv, .-_ZN3dbg9type_nameISt13unordered_mapIciSt4hashIcESt8equal_toIcESaISt4pairIKciEEEEENSt7__cxx1112basic_stringIcSt11char_traitsIcESaIcEEEv
	.section	.text._ZNKSt16initializer_listIPKcE4sizeEv,"axG",@progbits,_ZNKSt16initializer_listIPKcE4sizeEv,comdat
	.align	2
	.weak	_ZNKSt16initializer_listIPKcE4sizeEv
	.type	_ZNKSt16initializer_listIPKcE4sizeEv, %function
_ZNKSt16initializer_listIPKcE4sizeEv:
.LFB5863:
	.cfi_startproc
	sub	sp, sp, #16
	.cfi_def_cfa_offset 16
	str	x0, [sp, 8]
	ldr	x0, [sp, 8]
	ldr	x0, [x0, 8]
	add	sp, sp, 16
	.cfi_def_cfa_offset 0
	ret
	.cfi_endproc
.LFE5863:
	.size	_ZNKSt16initializer_listIPKcE4sizeEv, .-_ZNKSt16initializer_listIPKcE4sizeEv
	.section	.rodata
	.align	3
.LC18:
	.string	"\033[33m"
	.align	3
.LC19:
	.string	"The number of arguments mismatch, please check unprotected comma"
	.section	.text._ZN3dbg11DebugOutput5printIJRSt13unordered_mapIciSt4hashIcESt8equal_toIcESaISt4pairIKciEEEEEENS_4lastIDpT_E4typeESt16initializer_listIPS8_ESI_INSt7__cxx1112basic_stringIcSt11char_traitsIcESaIcEEEEDpOSE_,"axG",@progbits,_ZN3dbg11DebugOutput5printIJRSt13unordered_mapIciSt4hashIcESt8equal_toIcESaISt4pairIKciEEEEEENS_4lastIDpT_E4typeESt16initializer_listIPS8_ESI_INSt7__cxx1112basic_stringIcSt11char_traitsIcESaIcEEEEDpOSE_,comdat
	.align	2
	.weak	_ZN3dbg11DebugOutput5printIJRSt13unordered_mapIciSt4hashIcESt8equal_toIcESaISt4pairIKciEEEEEENS_4lastIDpT_E4typeESt16initializer_listIPS8_ESI_INSt7__cxx1112basic_stringIcSt11char_traitsIcESaIcEEEEDpOSE_
	.type	_ZN3dbg11DebugOutput5printIJRSt13unordered_mapIciSt4hashIcESt8equal_toIcESaISt4pairIKciEEEEEENS_4lastIDpT_E4typeESt16initializer_listIPS8_ESI_INSt7__cxx1112basic_stringIcSt11char_traitsIcESaIcEEEEDpOSE_, %function
_ZN3dbg11DebugOutput5printIJRSt13unordered_mapIciSt4hashIcESt8equal_toIcESaISt4pairIKciEEEEEENS_4lastIDpT_E4typeESt16initializer_listIPS8_ESI_INSt7__cxx1112basic_stringIcSt11char_traitsIcESaIcEEEEDpOSE_:
.LFB5862:
	.cfi_startproc
	stp	x29, x30, [sp, -80]!
	.cfi_def_cfa_offset 80
	.cfi_offset 29, -80
	.cfi_offset 30, -72
	mov	x29, sp
	stp	x19, x20, [sp, 16]
	.cfi_offset 19, -64
	.cfi_offset 20, -56
	str	x0, [sp, 72]
	stp	x1, x2, [sp, 56]
	stp	x3, x4, [sp, 40]
	str	x5, [sp, 32]
	add	x0, sp, 56
	bl	_ZNKSt16initializer_listIPKcE4sizeEv
	cmp	x0, 1
	cset	w0, ne
	and	w0, w0, 255
	cmp	w0, 0
	beq	.L184
	ldr	x0, [sp, 72]
	add	x0, x0, 8
	mov	x1, x0
	adrp	x0, :got:_ZSt4cerr
	ldr	x0, [x0, #:got_lo12:_ZSt4cerr]
	bl	_ZStlsIcSt11char_traitsIcESaIcEERSt13basic_ostreamIT_T0_ES7_RKNSt7__cxx1112basic_stringIS4_S5_T1_EE
	mov	x19, x0
	adrp	x0, .LC18
	add	x1, x0, :lo12:.LC18
	ldr	x0, [sp, 72]
	bl	_ZNK3dbg11DebugOutput4ansiEPKc
	mov	x1, x0
	mov	x0, x19
	bl	_ZStlsISt11char_traitsIcEERSt13basic_ostreamIcT_ES5_PKc
	mov	x2, x0
	adrp	x0, .LC19
	add	x1, x0, :lo12:.LC19
	mov	x0, x2
	bl	_ZStlsISt11char_traitsIcEERSt13basic_ostreamIcT_ES5_PKc
	mov	x19, x0
	adrp	x0, .LC9
	add	x1, x0, :lo12:.LC9
	ldr	x0, [sp, 72]
	bl	_ZNK3dbg11DebugOutput4ansiEPKc
	mov	x1, x0
	mov	x0, x19
	bl	_ZStlsISt11char_traitsIcEERSt13basic_ostreamIcT_ES5_PKc
	mov	x2, x0
	adrp	x0, :got:_ZSt4endlIcSt11char_traitsIcEERSt13basic_ostreamIT_T0_ES6_
	ldr	x1, [x0, #:got_lo12:_ZSt4endlIcSt11char_traitsIcEERSt13basic_ostreamIT_T0_ES6_]
	mov	x0, x2
	bl	_ZNSolsEPFRSoS_E
.L184:
	add	x0, sp, 56
	bl	_ZNKSt16initializer_listIPKcE5beginEv
	mov	x19, x0
	add	x0, sp, 40
	bl	_ZNKSt16initializer_listINSt7__cxx1112basic_stringIcSt11char_traitsIcESaIcEEEE5beginEv
	mov	x20, x0
	ldr	x0, [sp, 32]
	bl	_ZSt7forwardIRSt13unordered_mapIciSt4hashIcESt8equal_toIcESaISt4pairIKciEEEEOT_RNSt16remove_referenceISB_E4typeE
	mov	x3, x0
	mov	x2, x20
	mov	x1, x19
	ldr	x0, [sp, 72]
	bl	_ZN3dbg11DebugOutput10print_implIRSt13unordered_mapIciSt4hashIcESt8equal_toIcESaISt4pairIKciEEEEEOT_PKPS8_PKNSt7__cxx1112basic_stringIcSt11char_traitsIcESaIcEEESE_
	ldp	x19, x20, [sp, 16]
	ldp	x29, x30, [sp], 80
	.cfi_restore 30
	.cfi_restore 29
	.cfi_restore 19
	.cfi_restore 20
	.cfi_def_cfa_offset 0
	ret
	.cfi_endproc
.LFE5862:
	.size	_ZN3dbg11DebugOutput5printIJRSt13unordered_mapIciSt4hashIcESt8equal_toIcESaISt4pairIKciEEEEEENS_4lastIDpT_E4typeESt16initializer_listIPS8_ESI_INSt7__cxx1112basic_stringIcSt11char_traitsIcESaIcEEEEDpOSE_, .-_ZN3dbg11DebugOutput5printIJRSt13unordered_mapIciSt4hashIcESt8equal_toIcESaISt4pairIKciEEEEEENS_4lastIDpT_E4typeESt16initializer_listIPS8_ESI_INSt7__cxx1112basic_stringIcSt11char_traitsIcESaIcEEEEDpOSE_
	.section	.text._ZNSaINSt7__cxx1112basic_stringIcSt11char_traitsIcESaIcEEEEC2Ev,"axG",@progbits,_ZNSaINSt7__cxx1112basic_stringIcSt11char_traitsIcESaIcEEEEC5Ev,comdat
	.align	2
	.weak	_ZNSaINSt7__cxx1112basic_stringIcSt11char_traitsIcESaIcEEEEC2Ev
	.type	_ZNSaINSt7__cxx1112basic_stringIcSt11char_traitsIcESaIcEEEEC2Ev, %function
_ZNSaINSt7__cxx1112basic_stringIcSt11char_traitsIcESaIcEEEEC2Ev:
.LFB5865:
	.cfi_startproc
	stp	x29, x30, [sp, -32]!
	.cfi_def_cfa_offset 32
	.cfi_offset 29, -32
	.cfi_offset 30, -24
	mov	x29, sp
	str	x0, [sp, 24]
	ldr	x0, [sp, 24]
	bl	_ZN9__gnu_cxx13new_allocatorINSt7__cxx1112basic_stringIcSt11char_traitsIcESaIcEEEEC2Ev
	nop
	ldp	x29, x30, [sp], 32
	.cfi_restore 30
	.cfi_restore 29
	.cfi_def_cfa_offset 0
	ret
	.cfi_endproc
.LFE5865:
	.size	_ZNSaINSt7__cxx1112basic_stringIcSt11char_traitsIcESaIcEEEEC2Ev, .-_ZNSaINSt7__cxx1112basic_stringIcSt11char_traitsIcESaIcEEEEC2Ev
	.weak	_ZNSaINSt7__cxx1112basic_stringIcSt11char_traitsIcESaIcEEEEC1Ev
	.set	_ZNSaINSt7__cxx1112basic_stringIcSt11char_traitsIcESaIcEEEEC1Ev,_ZNSaINSt7__cxx1112basic_stringIcSt11char_traitsIcESaIcEEEEC2Ev
	.section	.text._ZNSaINSt7__cxx1112basic_stringIcSt11char_traitsIcESaIcEEEED2Ev,"axG",@progbits,_ZNSaINSt7__cxx1112basic_stringIcSt11char_traitsIcESaIcEEEED5Ev,comdat
	.align	2
	.weak	_ZNSaINSt7__cxx1112basic_stringIcSt11char_traitsIcESaIcEEEED2Ev
	.type	_ZNSaINSt7__cxx1112basic_stringIcSt11char_traitsIcESaIcEEEED2Ev, %function
_ZNSaINSt7__cxx1112basic_stringIcSt11char_traitsIcESaIcEEEED2Ev:
.LFB5868:
	.cfi_startproc
	stp	x29, x30, [sp, -32]!
	.cfi_def_cfa_offset 32
	.cfi_offset 29, -32
	.cfi_offset 30, -24
	mov	x29, sp
	str	x0, [sp, 24]
	ldr	x0, [sp, 24]
	bl	_ZN9__gnu_cxx13new_allocatorINSt7__cxx1112basic_stringIcSt11char_traitsIcESaIcEEEED2Ev
	nop
	ldp	x29, x30, [sp], 32
	.cfi_restore 30
	.cfi_restore 29
	.cfi_def_cfa_offset 0
	ret
	.cfi_endproc
.LFE5868:
	.size	_ZNSaINSt7__cxx1112basic_stringIcSt11char_traitsIcESaIcEEEED2Ev, .-_ZNSaINSt7__cxx1112basic_stringIcSt11char_traitsIcESaIcEEEED2Ev
	.weak	_ZNSaINSt7__cxx1112basic_stringIcSt11char_traitsIcESaIcEEEED1Ev
	.set	_ZNSaINSt7__cxx1112basic_stringIcSt11char_traitsIcESaIcEEEED1Ev,_ZNSaINSt7__cxx1112basic_stringIcSt11char_traitsIcESaIcEEEED2Ev
	.section	.text._ZNSt6vectorINSt7__cxx1112basic_stringIcSt11char_traitsIcESaIcEEESaIS5_EEC2EmRKS6_,"axG",@progbits,_ZNSt6vectorINSt7__cxx1112basic_stringIcSt11char_traitsIcESaIcEEESaIS5_EEC5EmRKS6_,comdat
	.align	2
	.weak	_ZNSt6vectorINSt7__cxx1112basic_stringIcSt11char_traitsIcESaIcEEESaIS5_EEC2EmRKS6_
	.type	_ZNSt6vectorINSt7__cxx1112basic_stringIcSt11char_traitsIcESaIcEEESaIS5_EEC2EmRKS6_, %function
_ZNSt6vectorINSt7__cxx1112basic_stringIcSt11char_traitsIcESaIcEEESaIS5_EEC2EmRKS6_:
.LFB5871:
	.cfi_startproc
	.cfi_personality 0x9b,DW.ref.__gxx_personality_v0
	.cfi_lsda 0x1b,.LLSDA5871
	stp	x29, x30, [sp, -64]!
	.cfi_def_cfa_offset 64
	.cfi_offset 29, -64
	.cfi_offset 30, -56
	mov	x29, sp
	str	x19, [sp, 16]
	.cfi_offset 19, -48
	str	x0, [sp, 56]
	str	x1, [sp, 48]
	str	x2, [sp, 40]
	ldr	x19, [sp, 56]
	ldr	x1, [sp, 40]
	ldr	x0, [sp, 48]
.LEHB31:
	bl	_ZNSt6vectorINSt7__cxx1112basic_stringIcSt11char_traitsIcESaIcEEESaIS5_EE17_S_check_init_lenEmRKS6_
	ldr	x2, [sp, 40]
	mov	x1, x0
	mov	x0, x19
	bl	_ZNSt12_Vector_baseINSt7__cxx1112basic_stringIcSt11char_traitsIcESaIcEEESaIS5_EEC2EmRKS6_
.LEHE31:
	ldr	x1, [sp, 48]
	ldr	x0, [sp, 56]
.LEHB32:
	bl	_ZNSt6vectorINSt7__cxx1112basic_stringIcSt11char_traitsIcESaIcEEESaIS5_EE21_M_default_initializeEm
.LEHE32:
	b	.L191
.L190:
	mov	x19, x0
	ldr	x0, [sp, 56]
	bl	_ZNSt12_Vector_baseINSt7__cxx1112basic_stringIcSt11char_traitsIcESaIcEEESaIS5_EED2Ev
	mov	x0, x19
.LEHB33:
	bl	_Unwind_Resume
.LEHE33:
.L191:
	ldr	x19, [sp, 16]
	ldp	x29, x30, [sp], 64
	.cfi_restore 30
	.cfi_restore 29
	.cfi_restore 19
	.cfi_def_cfa_offset 0
	ret
	.cfi_endproc
.LFE5871:
	.section	.gcc_except_table
.LLSDA5871:
	.byte	0xff
	.byte	0xff
	.byte	0x1
	.uleb128 .LLSDACSE5871-.LLSDACSB5871
.LLSDACSB5871:
	.uleb128 .LEHB31-.LFB5871
	.uleb128 .LEHE31-.LEHB31
	.uleb128 0
	.uleb128 0
	.uleb128 .LEHB32-.LFB5871
	.uleb128 .LEHE32-.LEHB32
	.uleb128 .L190-.LFB5871
	.uleb128 0
	.uleb128 .LEHB33-.LFB5871
	.uleb128 .LEHE33-.LEHB33
	.uleb128 0
	.uleb128 0
.LLSDACSE5871:
	.section	.text._ZNSt6vectorINSt7__cxx1112basic_stringIcSt11char_traitsIcESaIcEEESaIS5_EEC2EmRKS6_,"axG",@progbits,_ZNSt6vectorINSt7__cxx1112basic_stringIcSt11char_traitsIcESaIcEEESaIS5_EEC5EmRKS6_,comdat
	.size	_ZNSt6vectorINSt7__cxx1112basic_stringIcSt11char_traitsIcESaIcEEESaIS5_EEC2EmRKS6_, .-_ZNSt6vectorINSt7__cxx1112basic_stringIcSt11char_traitsIcESaIcEEESaIS5_EEC2EmRKS6_
	.weak	_ZNSt6vectorINSt7__cxx1112basic_stringIcSt11char_traitsIcESaIcEEESaIS5_EEC1EmRKS6_
	.set	_ZNSt6vectorINSt7__cxx1112basic_stringIcSt11char_traitsIcESaIcEEESaIS5_EEC1EmRKS6_,_ZNSt6vectorINSt7__cxx1112basic_stringIcSt11char_traitsIcESaIcEEESaIS5_EEC2EmRKS6_
	.section	.text._ZNSt6vectorINSt7__cxx1112basic_stringIcSt11char_traitsIcESaIcEEESaIS5_EED2Ev,"axG",@progbits,_ZNSt6vectorINSt7__cxx1112basic_stringIcSt11char_traitsIcESaIcEEESaIS5_EED5Ev,comdat
	.align	2
	.weak	_ZNSt6vectorINSt7__cxx1112basic_stringIcSt11char_traitsIcESaIcEEESaIS5_EED2Ev
	.type	_ZNSt6vectorINSt7__cxx1112basic_stringIcSt11char_traitsIcESaIcEEESaIS5_EED2Ev, %function
_ZNSt6vectorINSt7__cxx1112basic_stringIcSt11char_traitsIcESaIcEEESaIS5_EED2Ev:
.LFB5874:
	.cfi_startproc
	.cfi_personality 0x9b,DW.ref.__gxx_personality_v0
	.cfi_lsda 0x1b,.LLSDA5874
	stp	x29, x30, [sp, -48]!
	.cfi_def_cfa_offset 48
	.cfi_offset 29, -48
	.cfi_offset 30, -40
	mov	x29, sp
	stp	x19, x20, [sp, 16]
	.cfi_offset 19, -32
	.cfi_offset 20, -24
	str	x0, [sp, 40]
	ldr	x0, [sp, 40]
	ldr	x19, [x0]
	ldr	x0, [sp, 40]
	ldr	x20, [x0, 8]
	ldr	x0, [sp, 40]
	bl	_ZNSt12_Vector_baseINSt7__cxx1112basic_stringIcSt11char_traitsIcESaIcEEESaIS5_EE19_M_get_Tp_allocatorEv
	mov	x2, x0
	mov	x1, x20
	mov	x0, x19
	bl	_ZSt8_DestroyIPNSt7__cxx1112basic_stringIcSt11char_traitsIcESaIcEEES5_EvT_S7_RSaIT0_E
	ldr	x0, [sp, 40]
	bl	_ZNSt12_Vector_baseINSt7__cxx1112basic_stringIcSt11char_traitsIcESaIcEEESaIS5_EED2Ev
	nop
	ldp	x19, x20, [sp, 16]
	ldp	x29, x30, [sp], 48
	.cfi_restore 30
	.cfi_restore 29
	.cfi_restore 19
	.cfi_restore 20
	.cfi_def_cfa_offset 0
	ret
	.cfi_endproc
.LFE5874:
	.section	.gcc_except_table
.LLSDA5874:
	.byte	0xff
	.byte	0xff
	.byte	0x1
	.uleb128 .LLSDACSE5874-.LLSDACSB5874
.LLSDACSB5874:
.LLSDACSE5874:
	.section	.text._ZNSt6vectorINSt7__cxx1112basic_stringIcSt11char_traitsIcESaIcEEESaIS5_EED2Ev,"axG",@progbits,_ZNSt6vectorINSt7__cxx1112basic_stringIcSt11char_traitsIcESaIcEEESaIS5_EED5Ev,comdat
	.size	_ZNSt6vectorINSt7__cxx1112basic_stringIcSt11char_traitsIcESaIcEEESaIS5_EED2Ev, .-_ZNSt6vectorINSt7__cxx1112basic_stringIcSt11char_traitsIcESaIcEEESaIS5_EED2Ev
	.weak	_ZNSt6vectorINSt7__cxx1112basic_stringIcSt11char_traitsIcESaIcEEESaIS5_EED1Ev
	.set	_ZNSt6vectorINSt7__cxx1112basic_stringIcSt11char_traitsIcESaIcEEESaIS5_EED1Ev,_ZNSt6vectorINSt7__cxx1112basic_stringIcSt11char_traitsIcESaIcEEESaIS5_EED2Ev
	.section	.text._ZNSt13unordered_mapIciSt4hashIcESt8equal_toIcESaISt4pairIKciEEE5beginEv,"axG",@progbits,_ZNSt13unordered_mapIciSt4hashIcESt8equal_toIcESaISt4pairIKciEEE5beginEv,comdat
	.align	2
	.weak	_ZNSt13unordered_mapIciSt4hashIcESt8equal_toIcESaISt4pairIKciEEE5beginEv
	.type	_ZNSt13unordered_mapIciSt4hashIcESt8equal_toIcESaISt4pairIKciEEE5beginEv, %function
_ZNSt13unordered_mapIciSt4hashIcESt8equal_toIcESaISt4pairIKciEEE5beginEv:
.LFB5876:
	.cfi_startproc
	stp	x29, x30, [sp, -32]!
	.cfi_def_cfa_offset 32
	.cfi_offset 29, -32
	.cfi_offset 30, -24
	mov	x29, sp
	str	x0, [sp, 24]
	ldr	x0, [sp, 24]
	bl	_ZNSt10_HashtableIcSt4pairIKciESaIS2_ENSt8__detail10_Select1stESt8equal_toIcESt4hashIcENS4_18_Mod_range_hashingENS4_20_Default_ranged_hashENS4_20_Prime_rehash_policyENS4_17_Hashtable_traitsILb0ELb0ELb1EEEE5beginEv
	ldp	x29, x30, [sp], 32
	.cfi_restore 30
	.cfi_restore 29
	.cfi_def_cfa_offset 0
	ret
	.cfi_endproc
.LFE5876:
	.size	_ZNSt13unordered_mapIciSt4hashIcESt8equal_toIcESaISt4pairIKciEEE5beginEv, .-_ZNSt13unordered_mapIciSt4hashIcESt8equal_toIcESaISt4pairIKciEEE5beginEv
	.section	.text._ZNSt13unordered_mapIciSt4hashIcESt8equal_toIcESaISt4pairIKciEEE3endEv,"axG",@progbits,_ZNSt13unordered_mapIciSt4hashIcESt8equal_toIcESaISt4pairIKciEEE3endEv,comdat
	.align	2
	.weak	_ZNSt13unordered_mapIciSt4hashIcESt8equal_toIcESaISt4pairIKciEEE3endEv
	.type	_ZNSt13unordered_mapIciSt4hashIcESt8equal_toIcESaISt4pairIKciEEE3endEv, %function
_ZNSt13unordered_mapIciSt4hashIcESt8equal_toIcESaISt4pairIKciEEE3endEv:
.LFB5877:
	.cfi_startproc
	stp	x29, x30, [sp, -32]!
	.cfi_def_cfa_offset 32
	.cfi_offset 29, -32
	.cfi_offset 30, -24
	mov	x29, sp
	str	x0, [sp, 24]
	ldr	x0, [sp, 24]
	bl	_ZNSt10_HashtableIcSt4pairIKciESaIS2_ENSt8__detail10_Select1stESt8equal_toIcESt4hashIcENS4_18_Mod_range_hashingENS4_20_Default_ranged_hashENS4_20_Prime_rehash_policyENS4_17_Hashtable_traitsILb0ELb0ELb1EEEE3endEv
	ldp	x29, x30, [sp], 32
	.cfi_restore 30
	.cfi_restore 29
	.cfi_def_cfa_offset 0
	ret
	.cfi_endproc
.LFE5877:
	.size	_ZNSt13unordered_mapIciSt4hashIcESt8equal_toIcESaISt4pairIKciEEE3endEv, .-_ZNSt13unordered_mapIciSt4hashIcESt8equal_toIcESaISt4pairIKciEEE3endEv
	.section	.text._ZNSt8__detailneERKNS_19_Node_iterator_baseISt4pairIKciELb0EEES6_,"axG",@progbits,_ZNSt8__detailneERKNS_19_Node_iterator_baseISt4pairIKciELb0EEES6_,comdat
	.align	2
	.weak	_ZNSt8__detailneERKNS_19_Node_iterator_baseISt4pairIKciELb0EEES6_
	.type	_ZNSt8__detailneERKNS_19_Node_iterator_baseISt4pairIKciELb0EEES6_, %function
_ZNSt8__detailneERKNS_19_Node_iterator_baseISt4pairIKciELb0EEES6_:
.LFB5878:
	.cfi_startproc
	sub	sp, sp, #16
	.cfi_def_cfa_offset 16
	str	x0, [sp, 8]
	str	x1, [sp]
	ldr	x0, [sp, 8]
	ldr	x1, [x0]
	ldr	x0, [sp]
	ldr	x0, [x0]
	cmp	x1, x0
	cset	w0, ne
	and	w0, w0, 255
	add	sp, sp, 16
	.cfi_def_cfa_offset 0
	ret
	.cfi_endproc
.LFE5878:
	.size	_ZNSt8__detailneERKNS_19_Node_iterator_baseISt4pairIKciELb0EEES6_, .-_ZNSt8__detailneERKNS_19_Node_iterator_baseISt4pairIKciELb0EEES6_
	.section	.text._ZNSt8__detail14_Node_iteratorISt4pairIKciELb0ELb0EEppEv,"axG",@progbits,_ZNSt8__detail14_Node_iteratorISt4pairIKciELb0ELb0EEppEv,comdat
	.align	2
	.weak	_ZNSt8__detail14_Node_iteratorISt4pairIKciELb0ELb0EEppEv
	.type	_ZNSt8__detail14_Node_iteratorISt4pairIKciELb0ELb0EEppEv, %function
_ZNSt8__detail14_Node_iteratorISt4pairIKciELb0ELb0EEppEv:
.LFB5879:
	.cfi_startproc
	stp	x29, x30, [sp, -32]!
	.cfi_def_cfa_offset 32
	.cfi_offset 29, -32
	.cfi_offset 30, -24
	mov	x29, sp
	str	x0, [sp, 24]
	ldr	x0, [sp, 24]
	bl	_ZNSt8__detail19_Node_iterator_baseISt4pairIKciELb0EE7_M_incrEv
	ldr	x0, [sp, 24]
	ldp	x29, x30, [sp], 32
	.cfi_restore 30
	.cfi_restore 29
	.cfi_def_cfa_offset 0
	ret
	.cfi_endproc
.LFE5879:
	.size	_ZNSt8__detail14_Node_iteratorISt4pairIKciELb0ELb0EEppEv, .-_ZNSt8__detail14_Node_iteratorISt4pairIKciELb0ELb0EEppEv
	.section	.text._ZNKSt8__detail14_Node_iteratorISt4pairIKciELb0ELb0EEdeEv,"axG",@progbits,_ZNKSt8__detail14_Node_iteratorISt4pairIKciELb0ELb0EEdeEv,comdat
	.align	2
	.weak	_ZNKSt8__detail14_Node_iteratorISt4pairIKciELb0ELb0EEdeEv
	.type	_ZNKSt8__detail14_Node_iteratorISt4pairIKciELb0ELb0EEdeEv, %function
_ZNKSt8__detail14_Node_iteratorISt4pairIKciELb0ELb0EEdeEv:
.LFB5880:
	.cfi_startproc
	stp	x29, x30, [sp, -32]!
	.cfi_def_cfa_offset 32
	.cfi_offset 29, -32
	.cfi_offset 30, -24
	mov	x29, sp
	str	x0, [sp, 24]
	ldr	x0, [sp, 24]
	ldr	x0, [x0]
	add	x0, x0, 8
	bl	_ZNSt8__detail21_Hash_node_value_baseISt4pairIKciEE4_M_vEv
	ldp	x29, x30, [sp], 32
	.cfi_restore 30
	.cfi_restore 29
	.cfi_def_cfa_offset 0
	ret
	.cfi_endproc
.LFE5880:
	.size	_ZNKSt8__detail14_Node_iteratorISt4pairIKciELb0ELb0EEdeEv, .-_ZNKSt8__detail14_Node_iteratorISt4pairIKciELb0ELb0EEdeEv
	.section	.text._ZNSt6vectorINSt7__cxx1112basic_stringIcSt11char_traitsIcESaIcEEESaIS5_EEixEm,"axG",@progbits,_ZNSt6vectorINSt7__cxx1112basic_stringIcSt11char_traitsIcESaIcEEESaIS5_EEixEm,comdat
	.align	2
	.weak	_ZNSt6vectorINSt7__cxx1112basic_stringIcSt11char_traitsIcESaIcEEESaIS5_EEixEm
	.type	_ZNSt6vectorINSt7__cxx1112basic_stringIcSt11char_traitsIcESaIcEEESaIS5_EEixEm, %function
_ZNSt6vectorINSt7__cxx1112basic_stringIcSt11char_traitsIcESaIcEEESaIS5_EEixEm:
.LFB5881:
	.cfi_startproc
	sub	sp, sp, #16
	.cfi_def_cfa_offset 16
	str	x0, [sp, 8]
	str	x1, [sp]
	ldr	x0, [sp, 8]
	ldr	x1, [x0]
	ldr	x0, [sp]
	lsl	x0, x0, 5
	add	x0, x1, x0
	add	sp, sp, 16
	.cfi_def_cfa_offset 0
	ret
	.cfi_endproc
.LFE5881:
	.size	_ZNSt6vectorINSt7__cxx1112basic_stringIcSt11char_traitsIcESaIcEEESaIS5_EEixEm, .-_ZNSt6vectorINSt7__cxx1112basic_stringIcSt11char_traitsIcESaIcEEESaIS5_EEixEm
	.section	.text._ZN3dbg9type_nameISt6vectorINSt7__cxx1112basic_stringIcSt11char_traitsIcESaIcEEESaIS7_EEEES7_v,"axG",@progbits,_ZN3dbg9type_nameISt6vectorINSt7__cxx1112basic_stringIcSt11char_traitsIcESaIcEEESaIS7_EEEES7_v,comdat
	.align	2
	.weak	_ZN3dbg9type_nameISt6vectorINSt7__cxx1112basic_stringIcSt11char_traitsIcESaIcEEESaIS7_EEEES7_v
	.type	_ZN3dbg9type_nameISt6vectorINSt7__cxx1112basic_stringIcSt11char_traitsIcESaIcEEESaIS7_EEEES7_v, %function
_ZN3dbg9type_nameISt6vectorINSt7__cxx1112basic_stringIcSt11char_traitsIcESaIcEEESaIS7_EEEES7_v:
.LFB5883:
	.cfi_startproc
	stp	x29, x30, [sp, -80]!
	.cfi_def_cfa_offset 80
	.cfi_offset 29, -80
	.cfi_offset 30, -72
	mov	x29, sp
	str	x19, [sp, 16]
	.cfi_offset 19, -64
	mov	x19, x8
	adrp	x0, :got:__stack_chk_guard
	ldr	x0, [x0, #:got_lo12:__stack_chk_guard]
	ldr	x2, [x0]
	str	x2, [sp, 72]
	mov	x2, 0
	mov	x8, x19
	mov	w0, w1
	bl	_ZN3dbg13get_type_nameINSt7__cxx1112basic_stringIcSt11char_traitsIcESaIcEEEEES6_NS_8type_tagISt6vectorIT_SaIS9_EEEE
	adrp	x0, :got:__stack_chk_guard
	ldr	x0, [x0, #:got_lo12:__stack_chk_guard]
	ldr	x2, [sp, 72]
	ldr	x1, [x0]
	subs	x2, x2, x1
	mov	x1, 0
	beq	.L207
	bl	__stack_chk_fail
.L207:
	mov	x0, x19
	ldr	x19, [sp, 16]
	ldp	x29, x30, [sp], 80
	.cfi_restore 30
	.cfi_restore 29
	.cfi_restore 19
	.cfi_def_cfa_offset 0
	ret
	.cfi_endproc
.LFE5883:
	.size	_ZN3dbg9type_nameISt6vectorINSt7__cxx1112basic_stringIcSt11char_traitsIcESaIcEEESaIS7_EEEES7_v, .-_ZN3dbg9type_nameISt6vectorINSt7__cxx1112basic_stringIcSt11char_traitsIcESaIcEEESaIS7_EEEES7_v
	.section	.text._ZN3dbg11DebugOutput5printIJRSt6vectorINSt7__cxx1112basic_stringIcSt11char_traitsIcESaIcEEESaIS8_EEEEENS_4lastIDpT_E4typeESt16initializer_listIPKcESH_IS8_EDpOSD_,"axG",@progbits,_ZN3dbg11DebugOutput5printIJRSt6vectorINSt7__cxx1112basic_stringIcSt11char_traitsIcESaIcEEESaIS8_EEEEENS_4lastIDpT_E4typeESt16initializer_listIPKcESH_IS8_EDpOSD_,comdat
	.align	2
	.weak	_ZN3dbg11DebugOutput5printIJRSt6vectorINSt7__cxx1112basic_stringIcSt11char_traitsIcESaIcEEESaIS8_EEEEENS_4lastIDpT_E4typeESt16initializer_listIPKcESH_IS8_EDpOSD_
	.type	_ZN3dbg11DebugOutput5printIJRSt6vectorINSt7__cxx1112basic_stringIcSt11char_traitsIcESaIcEEESaIS8_EEEEENS_4lastIDpT_E4typeESt16initializer_listIPKcESH_IS8_EDpOSD_, %function
_ZN3dbg11DebugOutput5printIJRSt6vectorINSt7__cxx1112basic_stringIcSt11char_traitsIcESaIcEEESaIS8_EEEEENS_4lastIDpT_E4typeESt16initializer_listIPKcESH_IS8_EDpOSD_:
.LFB5884:
	.cfi_startproc
	stp	x29, x30, [sp, -80]!
	.cfi_def_cfa_offset 80
	.cfi_offset 29, -80
	.cfi_offset 30, -72
	mov	x29, sp
	stp	x19, x20, [sp, 16]
	.cfi_offset 19, -64
	.cfi_offset 20, -56
	str	x0, [sp, 72]
	stp	x1, x2, [sp, 56]
	stp	x3, x4, [sp, 40]
	str	x5, [sp, 32]
	add	x0, sp, 56
	bl	_ZNKSt16initializer_listIPKcE4sizeEv
	cmp	x0, 1
	cset	w0, ne
	and	w0, w0, 255
	cmp	w0, 0
	beq	.L209
	ldr	x0, [sp, 72]
	add	x0, x0, 8
	mov	x1, x0
	adrp	x0, :got:_ZSt4cerr
	ldr	x0, [x0, #:got_lo12:_ZSt4cerr]
	bl	_ZStlsIcSt11char_traitsIcESaIcEERSt13basic_ostreamIT_T0_ES7_RKNSt7__cxx1112basic_stringIS4_S5_T1_EE
	mov	x19, x0
	adrp	x0, .LC18
	add	x1, x0, :lo12:.LC18
	ldr	x0, [sp, 72]
	bl	_ZNK3dbg11DebugOutput4ansiEPKc
	mov	x1, x0
	mov	x0, x19
	bl	_ZStlsISt11char_traitsIcEERSt13basic_ostreamIcT_ES5_PKc
	mov	x2, x0
	adrp	x0, .LC19
	add	x1, x0, :lo12:.LC19
	mov	x0, x2
	bl	_ZStlsISt11char_traitsIcEERSt13basic_ostreamIcT_ES5_PKc
	mov	x19, x0
	adrp	x0, .LC9
	add	x1, x0, :lo12:.LC9
	ldr	x0, [sp, 72]
	bl	_ZNK3dbg11DebugOutput4ansiEPKc
	mov	x1, x0
	mov	x0, x19
	bl	_ZStlsISt11char_traitsIcEERSt13basic_ostreamIcT_ES5_PKc
	mov	x2, x0
	adrp	x0, :got:_ZSt4endlIcSt11char_traitsIcEERSt13basic_ostreamIT_T0_ES6_
	ldr	x1, [x0, #:got_lo12:_ZSt4endlIcSt11char_traitsIcEERSt13basic_ostreamIT_T0_ES6_]
	mov	x0, x2
	bl	_ZNSolsEPFRSoS_E
.L209:
	add	x0, sp, 56
	bl	_ZNKSt16initializer_listIPKcE5beginEv
	mov	x19, x0
	add	x0, sp, 40
	bl	_ZNKSt16initializer_listINSt7__cxx1112basic_stringIcSt11char_traitsIcESaIcEEEE5beginEv
	mov	x20, x0
	ldr	x0, [sp, 32]
	bl	_ZSt7forwardIRSt6vectorINSt7__cxx1112basic_stringIcSt11char_traitsIcESaIcEEESaIS6_EEEOT_RNSt16remove_referenceISA_E4typeE
	mov	x3, x0
	mov	x2, x20
	mov	x1, x19
	ldr	x0, [sp, 72]
	bl	_ZN3dbg11DebugOutput10print_implIRSt6vectorINSt7__cxx1112basic_stringIcSt11char_traitsIcESaIcEEESaIS8_EEEEOT_PKPKcPKS8_SD_
	ldp	x19, x20, [sp, 16]
	ldp	x29, x30, [sp], 80
	.cfi_restore 30
	.cfi_restore 29
	.cfi_restore 19
	.cfi_restore 20
	.cfi_def_cfa_offset 0
	ret
	.cfi_endproc
.LFE5884:
	.size	_ZN3dbg11DebugOutput5printIJRSt6vectorINSt7__cxx1112basic_stringIcSt11char_traitsIcESaIcEEESaIS8_EEEEENS_4lastIDpT_E4typeESt16initializer_listIPKcESH_IS8_EDpOSD_, .-_ZN3dbg11DebugOutput5printIJRSt6vectorINSt7__cxx1112basic_stringIcSt11char_traitsIcESaIcEEESaIS8_EEEEENS_4lastIDpT_E4typeESt16initializer_listIPKcESH_IS8_EDpOSD_
	.section	.text._ZN3dbg9type_nameINSt7__cxx1112basic_stringIcSt11char_traitsIcESaIcEEEEES6_v,"axG",@progbits,_ZN3dbg9type_nameINSt7__cxx1112basic_stringIcSt11char_traitsIcESaIcEEEEES6_v,comdat
	.align	2
	.weak	_ZN3dbg9type_nameINSt7__cxx1112basic_stringIcSt11char_traitsIcESaIcEEEEES6_v
	.type	_ZN3dbg9type_nameINSt7__cxx1112basic_stringIcSt11char_traitsIcESaIcEEEEES6_v, %function
_ZN3dbg9type_nameINSt7__cxx1112basic_stringIcSt11char_traitsIcESaIcEEEEES6_v:
.LFB5885:
	.cfi_startproc
	stp	x29, x30, [sp, -80]!
	.cfi_def_cfa_offset 80
	.cfi_offset 29, -80
	.cfi_offset 30, -72
	mov	x29, sp
	str	x19, [sp, 16]
	.cfi_offset 19, -64
	mov	x19, x8
	adrp	x0, :got:__stack_chk_guard
	ldr	x0, [x0, #:got_lo12:__stack_chk_guard]
	ldr	x2, [x0]
	str	x2, [sp, 72]
	mov	x2, 0
	mov	x8, x19
	mov	w0, w1
	bl	_ZN3dbg13get_type_nameENS_8type_tagINSt7__cxx1112basic_stringIcSt11char_traitsIcESaIcEEEEE
	adrp	x0, :got:__stack_chk_guard
	ldr	x0, [x0, #:got_lo12:__stack_chk_guard]
	ldr	x2, [sp, 72]
	ldr	x1, [x0]
	subs	x2, x2, x1
	mov	x1, 0
	beq	.L213
	bl	__stack_chk_fail
.L213:
	mov	x0, x19
	ldr	x19, [sp, 16]
	ldp	x29, x30, [sp], 80
	.cfi_restore 30
	.cfi_restore 29
	.cfi_restore 19
	.cfi_def_cfa_offset 0
	ret
	.cfi_endproc
.LFE5885:
	.size	_ZN3dbg9type_nameINSt7__cxx1112basic_stringIcSt11char_traitsIcESaIcEEEEES6_v, .-_ZN3dbg9type_nameINSt7__cxx1112basic_stringIcSt11char_traitsIcESaIcEEEEES6_v
	.section	.text._ZN3dbg11DebugOutput5printIJRNSt7__cxx1112basic_stringIcSt11char_traitsIcESaIcEEEEEENS_4lastIDpT_E4typeESt16initializer_listIPKcESE_IS7_EDpOSA_,"axG",@progbits,_ZN3dbg11DebugOutput5printIJRNSt7__cxx1112basic_stringIcSt11char_traitsIcESaIcEEEEEENS_4lastIDpT_E4typeESt16initializer_listIPKcESE_IS7_EDpOSA_,comdat
	.align	2
	.weak	_ZN3dbg11DebugOutput5printIJRNSt7__cxx1112basic_stringIcSt11char_traitsIcESaIcEEEEEENS_4lastIDpT_E4typeESt16initializer_listIPKcESE_IS7_EDpOSA_
	.type	_ZN3dbg11DebugOutput5printIJRNSt7__cxx1112basic_stringIcSt11char_traitsIcESaIcEEEEEENS_4lastIDpT_E4typeESt16initializer_listIPKcESE_IS7_EDpOSA_, %function
_ZN3dbg11DebugOutput5printIJRNSt7__cxx1112basic_stringIcSt11char_traitsIcESaIcEEEEEENS_4lastIDpT_E4typeESt16initializer_listIPKcESE_IS7_EDpOSA_:
.LFB5886:
	.cfi_startproc
	stp	x29, x30, [sp, -80]!
	.cfi_def_cfa_offset 80
	.cfi_offset 29, -80
	.cfi_offset 30, -72
	mov	x29, sp
	stp	x19, x20, [sp, 16]
	.cfi_offset 19, -64
	.cfi_offset 20, -56
	str	x0, [sp, 72]
	stp	x1, x2, [sp, 56]
	stp	x3, x4, [sp, 40]
	str	x5, [sp, 32]
	add	x0, sp, 56
	bl	_ZNKSt16initializer_listIPKcE4sizeEv
	cmp	x0, 1
	cset	w0, ne
	and	w0, w0, 255
	cmp	w0, 0
	beq	.L215
	ldr	x0, [sp, 72]
	add	x0, x0, 8
	mov	x1, x0
	adrp	x0, :got:_ZSt4cerr
	ldr	x0, [x0, #:got_lo12:_ZSt4cerr]
	bl	_ZStlsIcSt11char_traitsIcESaIcEERSt13basic_ostreamIT_T0_ES7_RKNSt7__cxx1112basic_stringIS4_S5_T1_EE
	mov	x19, x0
	adrp	x0, .LC18
	add	x1, x0, :lo12:.LC18
	ldr	x0, [sp, 72]
	bl	_ZNK3dbg11DebugOutput4ansiEPKc
	mov	x1, x0
	mov	x0, x19
	bl	_ZStlsISt11char_traitsIcEERSt13basic_ostreamIcT_ES5_PKc
	mov	x2, x0
	adrp	x0, .LC19
	add	x1, x0, :lo12:.LC19
	mov	x0, x2
	bl	_ZStlsISt11char_traitsIcEERSt13basic_ostreamIcT_ES5_PKc
	mov	x19, x0
	adrp	x0, .LC9
	add	x1, x0, :lo12:.LC9
	ldr	x0, [sp, 72]
	bl	_ZNK3dbg11DebugOutput4ansiEPKc
	mov	x1, x0
	mov	x0, x19
	bl	_ZStlsISt11char_traitsIcEERSt13basic_ostreamIcT_ES5_PKc
	mov	x2, x0
	adrp	x0, :got:_ZSt4endlIcSt11char_traitsIcEERSt13basic_ostreamIT_T0_ES6_
	ldr	x1, [x0, #:got_lo12:_ZSt4endlIcSt11char_traitsIcEERSt13basic_ostreamIT_T0_ES6_]
	mov	x0, x2
	bl	_ZNSolsEPFRSoS_E
.L215:
	add	x0, sp, 56
	bl	_ZNKSt16initializer_listIPKcE5beginEv
	mov	x19, x0
	add	x0, sp, 40
	bl	_ZNKSt16initializer_listINSt7__cxx1112basic_stringIcSt11char_traitsIcESaIcEEEE5beginEv
	mov	x20, x0
	ldr	x0, [sp, 32]
	bl	_ZSt7forwardIRNSt7__cxx1112basic_stringIcSt11char_traitsIcESaIcEEEEOT_RNSt16remove_referenceIS7_E4typeE
	mov	x3, x0
	mov	x2, x20
	mov	x1, x19
	ldr	x0, [sp, 72]
	bl	_ZN3dbg11DebugOutput10print_implIRNSt7__cxx1112basic_stringIcSt11char_traitsIcESaIcEEEEEOT_PKPKcPKS7_SA_
	ldp	x19, x20, [sp, 16]
	ldp	x29, x30, [sp], 80
	.cfi_restore 30
	.cfi_restore 29
	.cfi_restore 19
	.cfi_restore 20
	.cfi_def_cfa_offset 0
	ret
	.cfi_endproc
.LFE5886:
	.size	_ZN3dbg11DebugOutput5printIJRNSt7__cxx1112basic_stringIcSt11char_traitsIcESaIcEEEEEENS_4lastIDpT_E4typeESt16initializer_listIPKcESE_IS7_EDpOSA_, .-_ZN3dbg11DebugOutput5printIJRNSt7__cxx1112basic_stringIcSt11char_traitsIcESaIcEEEEEENS_4lastIDpT_E4typeESt16initializer_listIPKcESE_IS7_EDpOSA_
	.section	.text._ZSt4moveIRNSt7__cxx1112basic_stringIcSt11char_traitsIcESaIcEEEEONSt16remove_referenceIT_E4typeEOS8_,"axG",@progbits,_ZSt4moveIRNSt7__cxx1112basic_stringIcSt11char_traitsIcESaIcEEEEONSt16remove_referenceIT_E4typeEOS8_,comdat
	.align	2
	.weak	_ZSt4moveIRNSt7__cxx1112basic_stringIcSt11char_traitsIcESaIcEEEEONSt16remove_referenceIT_E4typeEOS8_
	.type	_ZSt4moveIRNSt7__cxx1112basic_stringIcSt11char_traitsIcESaIcEEEEONSt16remove_referenceIT_E4typeEOS8_, %function
_ZSt4moveIRNSt7__cxx1112basic_stringIcSt11char_traitsIcESaIcEEEEONSt16remove_referenceIT_E4typeEOS8_:
.LFB5961:
	.cfi_startproc
	sub	sp, sp, #16
	.cfi_def_cfa_offset 16
	str	x0, [sp, 8]
	ldr	x0, [sp, 8]
	add	sp, sp, 16
	.cfi_def_cfa_offset 0
	ret
	.cfi_endproc
.LFE5961:
	.size	_ZSt4moveIRNSt7__cxx1112basic_stringIcSt11char_traitsIcESaIcEEEEONSt16remove_referenceIT_E4typeEOS8_, .-_ZSt4moveIRNSt7__cxx1112basic_stringIcSt11char_traitsIcESaIcEEEEONSt16remove_referenceIT_E4typeEOS8_
	.section	.text._ZSt8distanceIPKcENSt15iterator_traitsIT_E15difference_typeES3_S3_,"axG",@progbits,_ZSt8distanceIPKcENSt15iterator_traitsIT_E15difference_typeES3_S3_,comdat
	.align	2
	.weak	_ZSt8distanceIPKcENSt15iterator_traitsIT_E15difference_typeES3_S3_
	.type	_ZSt8distanceIPKcENSt15iterator_traitsIT_E15difference_typeES3_S3_, %function
_ZSt8distanceIPKcENSt15iterator_traitsIT_E15difference_typeES3_S3_:
.LFB5980:
	.cfi_startproc
	stp	x29, x30, [sp, -48]!
	.cfi_def_cfa_offset 48
	.cfi_offset 29, -48
	.cfi_offset 30, -40
	mov	x29, sp
	stp	x19, x20, [sp, 16]
	.cfi_offset 19, -32
	.cfi_offset 20, -24
	str	x0, [sp, 40]
	str	x1, [sp, 32]
	ldr	x19, [sp, 40]
	add	x0, sp, 40
	bl	_ZSt19__iterator_categoryIPKcENSt15iterator_traitsIT_E17iterator_categoryERKS3_
	mov	w2, w20
	ldr	x1, [sp, 32]
	mov	x0, x19
	bl	_ZSt10__distanceIPKcENSt15iterator_traitsIT_E15difference_typeES3_S3_St26random_access_iterator_tag
	ldp	x19, x20, [sp, 16]
	ldp	x29, x30, [sp], 48
	.cfi_restore 30
	.cfi_restore 29
	.cfi_restore 19
	.cfi_restore 20
	.cfi_def_cfa_offset 0
	ret
	.cfi_endproc
.LFE5980:
	.size	_ZSt8distanceIPKcENSt15iterator_traitsIT_E15difference_typeES3_S3_, .-_ZSt8distanceIPKcENSt15iterator_traitsIT_E15difference_typeES3_S3_
	.section	.rodata
	.align	3
.LC20:
	.string	"basic_string::_M_construct null not valid"
	.section	.text._ZNSt7__cxx1112basic_stringIcSt11char_traitsIcESaIcEE12_M_constructIPKcEEvT_S8_St20forward_iterator_tag,"axG",@progbits,_ZNSt7__cxx1112basic_stringIcSt11char_traitsIcESaIcEE12_M_constructIPKcEEvT_S8_St20forward_iterator_tag,comdat
	.align	2
	.weak	_ZNSt7__cxx1112basic_stringIcSt11char_traitsIcESaIcEE12_M_constructIPKcEEvT_S8_St20forward_iterator_tag
	.type	_ZNSt7__cxx1112basic_stringIcSt11char_traitsIcESaIcEE12_M_constructIPKcEEvT_S8_St20forward_iterator_tag, %function
_ZNSt7__cxx1112basic_stringIcSt11char_traitsIcESaIcEE12_M_constructIPKcEEvT_S8_St20forward_iterator_tag:
.LFB5979:
	.cfi_startproc
	.cfi_personality 0x9b,DW.ref.__gxx_personality_v0
	.cfi_lsda 0x1b,.LLSDA5979
	stp	x29, x30, [sp, -80]!
	.cfi_def_cfa_offset 80
	.cfi_offset 29, -80
	.cfi_offset 30, -72
	mov	x29, sp
	str	x19, [sp, 16]
	.cfi_offset 19, -64
	str	x0, [sp, 56]
	str	x1, [sp, 48]
	str	x2, [sp, 40]
	strb	w3, [sp, 32]
	adrp	x0, :got:__stack_chk_guard
	ldr	x0, [x0, #:got_lo12:__stack_chk_guard]
	ldr	x1, [x0]
	str	x1, [sp, 72]
	mov	x1, 0
	ldr	x0, [sp, 48]
	bl	_ZN9__gnu_cxx17__is_null_pointerIKcEEbPT_
	and	w0, w0, 255
	cmp	w0, 0
	beq	.L222
	ldr	x1, [sp, 48]
	ldr	x0, [sp, 40]
	cmp	x1, x0
	beq	.L222
	mov	w0, 1
	b	.L223
.L222:
	mov	w0, 0
.L223:
	cmp	w0, 0
	beq	.L224
	adrp	x0, .LC20
	add	x0, x0, :lo12:.LC20
.LEHB34:
	bl	_ZSt19__throw_logic_errorPKc
.L224:
	ldr	x1, [sp, 40]
	ldr	x0, [sp, 48]
	bl	_ZSt8distanceIPKcENSt15iterator_traitsIT_E15difference_typeES3_S3_
	str	x0, [sp, 64]
	ldr	x0, [sp, 64]
	cmp	x0, 15
	bls	.L225
	add	x0, sp, 64
	mov	x2, 0
	mov	x1, x0
	ldr	x0, [sp, 56]
	bl	_ZNSt7__cxx1112basic_stringIcSt11char_traitsIcESaIcEE9_M_createERmm
	mov	x1, x0
	ldr	x0, [sp, 56]
	bl	_ZNSt7__cxx1112basic_stringIcSt11char_traitsIcESaIcEE7_M_dataEPc
	ldr	x0, [sp, 64]
	mov	x1, x0
	ldr	x0, [sp, 56]
	bl	_ZNSt7__cxx1112basic_stringIcSt11char_traitsIcESaIcEE11_M_capacityEm
.LEHE34:
.L225:
	ldr	x0, [sp, 56]
.LEHB35:
	bl	_ZNKSt7__cxx1112basic_stringIcSt11char_traitsIcESaIcEE7_M_dataEv
.LEHE35:
	ldr	x2, [sp, 40]
	ldr	x1, [sp, 48]
	bl	_ZNSt7__cxx1112basic_stringIcSt11char_traitsIcESaIcEE13_S_copy_charsEPcPKcS7_
	ldr	x0, [sp, 64]
	mov	x1, x0
	ldr	x0, [sp, 56]
.LEHB36:
	bl	_ZNSt7__cxx1112basic_stringIcSt11char_traitsIcESaIcEE13_M_set_lengthEm
.LEHE36:
	nop
	adrp	x0, :got:__stack_chk_guard
	ldr	x0, [x0, #:got_lo12:__stack_chk_guard]
	ldr	x2, [sp, 72]
	ldr	x1, [x0]
	subs	x2, x2, x1
	mov	x1, 0
	beq	.L228
	b	.L231
.L229:
	bl	__cxa_begin_catch
	ldr	x0, [sp, 56]
.LEHB37:
	bl	_ZNSt7__cxx1112basic_stringIcSt11char_traitsIcESaIcEE10_M_disposeEv
	bl	__cxa_rethrow
.LEHE37:
.L230:
	mov	x19, x0
	bl	__cxa_end_catch
	mov	x0, x19
.LEHB38:
	bl	_Unwind_Resume
.LEHE38:
.L231:
	bl	__stack_chk_fail
.L228:
	ldr	x19, [sp, 16]
	ldp	x29, x30, [sp], 80
	.cfi_restore 30
	.cfi_restore 29
	.cfi_restore 19
	.cfi_def_cfa_offset 0
	ret
	.cfi_endproc
.LFE5979:
	.section	.gcc_except_table
	.align	2
.LLSDA5979:
	.byte	0xff
	.byte	0x9b
	.uleb128 .LLSDATT5979-.LLSDATTD5979
.LLSDATTD5979:
	.byte	0x1
	.uleb128 .LLSDACSE5979-.LLSDACSB5979
.LLSDACSB5979:
	.uleb128 .LEHB34-.LFB5979
	.uleb128 .LEHE34-.LEHB34
	.uleb128 0
	.uleb128 0
	.uleb128 .LEHB35-.LFB5979
	.uleb128 .LEHE35-.LEHB35
	.uleb128 .L229-.LFB5979
	.uleb128 0x1
	.uleb128 .LEHB36-.LFB5979
	.uleb128 .LEHE36-.LEHB36
	.uleb128 0
	.uleb128 0
	.uleb128 .LEHB37-.LFB5979
	.uleb128 .LEHE37-.LEHB37
	.uleb128 .L230-.LFB5979
	.uleb128 0
	.uleb128 .LEHB38-.LFB5979
	.uleb128 .LEHE38-.LEHB38
	.uleb128 0
	.uleb128 0
.LLSDACSE5979:
	.byte	0x1
	.byte	0
	.align	2
	.4byte	0

.LLSDATT5979:
	.section	.text._ZNSt7__cxx1112basic_stringIcSt11char_traitsIcESaIcEE12_M_constructIPKcEEvT_S8_St20forward_iterator_tag,"axG",@progbits,_ZNSt7__cxx1112basic_stringIcSt11char_traitsIcESaIcEE12_M_constructIPKcEEvT_S8_St20forward_iterator_tag,comdat
	.size	_ZNSt7__cxx1112basic_stringIcSt11char_traitsIcESaIcEE12_M_constructIPKcEEvT_S8_St20forward_iterator_tag, .-_ZNSt7__cxx1112basic_stringIcSt11char_traitsIcESaIcEE12_M_constructIPKcEEvT_S8_St20forward_iterator_tag
	.section	.text._ZNSaINSt8__detail10_Hash_nodeISt4pairIKciELb0EEEEC2Ev,"axG",@progbits,_ZNSaINSt8__detail10_Hash_nodeISt4pairIKciELb0EEEEC5Ev,comdat
	.align	2
	.weak	_ZNSaINSt8__detail10_Hash_nodeISt4pairIKciELb0EEEEC2Ev
	.type	_ZNSaINSt8__detail10_Hash_nodeISt4pairIKciELb0EEEEC2Ev, %function
_ZNSaINSt8__detail10_Hash_nodeISt4pairIKciELb0EEEEC2Ev:
.LFB6048:
	.cfi_startproc
	stp	x29, x30, [sp, -32]!
	.cfi_def_cfa_offset 32
	.cfi_offset 29, -32
	.cfi_offset 30, -24
	mov	x29, sp
	str	x0, [sp, 24]
	ldr	x0, [sp, 24]
	bl	_ZN9__gnu_cxx13new_allocatorINSt8__detail10_Hash_nodeISt4pairIKciELb0EEEEC2Ev
	nop
	ldp	x29, x30, [sp], 32
	.cfi_restore 30
	.cfi_restore 29
	.cfi_def_cfa_offset 0
	ret
	.cfi_endproc
.LFE6048:
	.size	_ZNSaINSt8__detail10_Hash_nodeISt4pairIKciELb0EEEEC2Ev, .-_ZNSaINSt8__detail10_Hash_nodeISt4pairIKciELb0EEEEC2Ev
	.weak	_ZNSaINSt8__detail10_Hash_nodeISt4pairIKciELb0EEEEC1Ev
	.set	_ZNSaINSt8__detail10_Hash_nodeISt4pairIKciELb0EEEEC1Ev,_ZNSaINSt8__detail10_Hash_nodeISt4pairIKciELb0EEEEC2Ev
	.section	.text._ZN9__gnu_cxx13new_allocatorINSt8__detail10_Hash_nodeISt4pairIKciELb0EEEED2Ev,"axG",@progbits,_ZN9__gnu_cxx13new_allocatorINSt8__detail10_Hash_nodeISt4pairIKciELb0EEEED5Ev,comdat
	.align	2
	.weak	_ZN9__gnu_cxx13new_allocatorINSt8__detail10_Hash_nodeISt4pairIKciELb0EEEED2Ev
	.type	_ZN9__gnu_cxx13new_allocatorINSt8__detail10_Hash_nodeISt4pairIKciELb0EEEED2Ev, %function
_ZN9__gnu_cxx13new_allocatorINSt8__detail10_Hash_nodeISt4pairIKciELb0EEEED2Ev:
.LFB6051:
	.cfi_startproc
	sub	sp, sp, #16
	.cfi_def_cfa_offset 16
	str	x0, [sp, 8]
	nop
	add	sp, sp, 16
	.cfi_def_cfa_offset 0
	ret
	.cfi_endproc
.LFE6051:
	.size	_ZN9__gnu_cxx13new_allocatorINSt8__detail10_Hash_nodeISt4pairIKciELb0EEEED2Ev, .-_ZN9__gnu_cxx13new_allocatorINSt8__detail10_Hash_nodeISt4pairIKciELb0EEEED2Ev
	.weak	_ZN9__gnu_cxx13new_allocatorINSt8__detail10_Hash_nodeISt4pairIKciELb0EEEED1Ev
	.set	_ZN9__gnu_cxx13new_allocatorINSt8__detail10_Hash_nodeISt4pairIKciELb0EEEED1Ev,_ZN9__gnu_cxx13new_allocatorINSt8__detail10_Hash_nodeISt4pairIKciELb0EEEED2Ev
	.section	.text._ZNSt10_HashtableIcSt4pairIKciESaIS2_ENSt8__detail10_Select1stESt8equal_toIcESt4hashIcENS4_18_Mod_range_hashingENS4_20_Default_ranged_hashENS4_20_Prime_rehash_policyENS4_17_Hashtable_traitsILb0ELb0ELb1EEEE5clearEv,"axG",@progbits,_ZNSt10_HashtableIcSt4pairIKciESaIS2_ENSt8__detail10_Select1stESt8equal_toIcESt4hashIcENS4_18_Mod_range_hashingENS4_20_Default_ranged_hashENS4_20_Prime_rehash_policyENS4_17_Hashtable_traitsILb0ELb0ELb1EEEE5clearEv,comdat
	.align	2
	.weak	_ZNSt10_HashtableIcSt4pairIKciESaIS2_ENSt8__detail10_Select1stESt8equal_toIcESt4hashIcENS4_18_Mod_range_hashingENS4_20_Default_ranged_hashENS4_20_Prime_rehash_policyENS4_17_Hashtable_traitsILb0ELb0ELb1EEEE5clearEv
	.type	_ZNSt10_HashtableIcSt4pairIKciESaIS2_ENSt8__detail10_Select1stESt8equal_toIcESt4hashIcENS4_18_Mod_range_hashingENS4_20_Default_ranged_hashENS4_20_Prime_rehash_policyENS4_17_Hashtable_traitsILb0ELb0ELb1EEEE5clearEv, %function
_ZNSt10_HashtableIcSt4pairIKciESaIS2_ENSt8__detail10_Select1stESt8equal_toIcESt4hashIcENS4_18_Mod_range_hashingENS4_20_Default_ranged_hashENS4_20_Prime_rehash_policyENS4_17_Hashtable_traitsILb0ELb0ELb1EEEE5clearEv:
.LFB6053:
	.cfi_startproc
	.cfi_personality 0x9b,DW.ref.__gxx_personality_v0
	.cfi_lsda 0x1b,.LLSDA6053
	stp	x29, x30, [sp, -32]!
	.cfi_def_cfa_offset 32
	.cfi_offset 29, -32
	.cfi_offset 30, -24
	mov	x29, sp
	str	x0, [sp, 24]
	ldr	x0, [sp, 24]
	bl	_ZNKSt10_HashtableIcSt4pairIKciESaIS2_ENSt8__detail10_Select1stESt8equal_toIcESt4hashIcENS4_18_Mod_range_hashingENS4_20_Default_ranged_hashENS4_20_Prime_rehash_policyENS4_17_Hashtable_traitsILb0ELb0ELb1EEEE8_M_beginEv
	mov	x1, x0
	ldr	x0, [sp, 24]
	bl	_ZNSt8__detail16_Hashtable_allocISaINS_10_Hash_nodeISt4pairIKciELb0EEEEE19_M_deallocate_nodesEPS5_
	ldr	x0, [sp, 24]
	ldr	x1, [x0]
	ldr	x0, [sp, 24]
	ldr	x0, [x0, 8]
	lsl	x0, x0, 3
	mov	x3, x1
	mov	x2, x0
	mov	w1, 0
	mov	x0, x3
	bl	memset
	ldr	x0, [sp, 24]
	str	xzr, [x0, 24]
	ldr	x0, [sp, 24]
	str	xzr, [x0, 16]
	nop
	ldp	x29, x30, [sp], 32
	.cfi_restore 30
	.cfi_restore 29
	.cfi_def_cfa_offset 0
	ret
	.cfi_endproc
.LFE6053:
	.section	.gcc_except_table
.LLSDA6053:
	.byte	0xff
	.byte	0xff
	.byte	0x1
	.uleb128 .LLSDACSE6053-.LLSDACSB6053
.LLSDACSB6053:
.LLSDACSE6053:
	.section	.text._ZNSt10_HashtableIcSt4pairIKciESaIS2_ENSt8__detail10_Select1stESt8equal_toIcESt4hashIcENS4_18_Mod_range_hashingENS4_20_Default_ranged_hashENS4_20_Prime_rehash_policyENS4_17_Hashtable_traitsILb0ELb0ELb1EEEE5clearEv,"axG",@progbits,_ZNSt10_HashtableIcSt4pairIKciESaIS2_ENSt8__detail10_Select1stESt8equal_toIcESt4hashIcENS4_18_Mod_range_hashingENS4_20_Default_ranged_hashENS4_20_Prime_rehash_policyENS4_17_Hashtable_traitsILb0ELb0ELb1EEEE5clearEv,comdat
	.size	_ZNSt10_HashtableIcSt4pairIKciESaIS2_ENSt8__detail10_Select1stESt8equal_toIcESt4hashIcENS4_18_Mod_range_hashingENS4_20_Default_ranged_hashENS4_20_Prime_rehash_policyENS4_17_Hashtable_traitsILb0ELb0ELb1EEEE5clearEv, .-_ZNSt10_HashtableIcSt4pairIKciESaIS2_ENSt8__detail10_Select1stESt8equal_toIcESt4hashIcENS4_18_Mod_range_hashingENS4_20_Default_ranged_hashENS4_20_Prime_rehash_policyENS4_17_Hashtable_traitsILb0ELb0ELb1EEEE5clearEv
	.section	.text._ZNSt10_HashtableIcSt4pairIKciESaIS2_ENSt8__detail10_Select1stESt8equal_toIcESt4hashIcENS4_18_Mod_range_hashingENS4_20_Default_ranged_hashENS4_20_Prime_rehash_policyENS4_17_Hashtable_traitsILb0ELb0ELb1EEEE21_M_deallocate_bucketsEv,"axG",@progbits,_ZNSt10_HashtableIcSt4pairIKciESaIS2_ENSt8__detail10_Select1stESt8equal_toIcESt4hashIcENS4_18_Mod_range_hashingENS4_20_Default_ranged_hashENS4_20_Prime_rehash_policyENS4_17_Hashtable_traitsILb0ELb0ELb1EEEE21_M_deallocate_bucketsEv,comdat
	.align	2
	.weak	_ZNSt10_HashtableIcSt4pairIKciESaIS2_ENSt8__detail10_Select1stESt8equal_toIcESt4hashIcENS4_18_Mod_range_hashingENS4_20_Default_ranged_hashENS4_20_Prime_rehash_policyENS4_17_Hashtable_traitsILb0ELb0ELb1EEEE21_M_deallocate_bucketsEv
	.type	_ZNSt10_HashtableIcSt4pairIKciESaIS2_ENSt8__detail10_Select1stESt8equal_toIcESt4hashIcENS4_18_Mod_range_hashingENS4_20_Default_ranged_hashENS4_20_Prime_rehash_policyENS4_17_Hashtable_traitsILb0ELb0ELb1EEEE21_M_deallocate_bucketsEv, %function
_ZNSt10_HashtableIcSt4pairIKciESaIS2_ENSt8__detail10_Select1stESt8equal_toIcESt4hashIcENS4_18_Mod_range_hashingENS4_20_Default_ranged_hashENS4_20_Prime_rehash_policyENS4_17_Hashtable_traitsILb0ELb0ELb1EEEE21_M_deallocate_bucketsEv:
.LFB6054:
	.cfi_startproc
	stp	x29, x30, [sp, -32]!
	.cfi_def_cfa_offset 32
	.cfi_offset 29, -32
	.cfi_offset 30, -24
	mov	x29, sp
	str	x0, [sp, 24]
	ldr	x0, [sp, 24]
	ldr	x1, [x0]
	ldr	x0, [sp, 24]
	ldr	x0, [x0, 8]
	mov	x2, x0
	ldr	x0, [sp, 24]
	bl	_ZNSt10_HashtableIcSt4pairIKciESaIS2_ENSt8__detail10_Select1stESt8equal_toIcESt4hashIcENS4_18_Mod_range_hashingENS4_20_Default_ranged_hashENS4_20_Prime_rehash_policyENS4_17_Hashtable_traitsILb0ELb0ELb1EEEE21_M_deallocate_bucketsEPPNS4_15_Hash_node_baseEm
	nop
	ldp	x29, x30, [sp], 32
	.cfi_restore 30
	.cfi_restore 29
	.cfi_def_cfa_offset 0
	ret
	.cfi_endproc
.LFE6054:
	.size	_ZNSt10_HashtableIcSt4pairIKciESaIS2_ENSt8__detail10_Select1stESt8equal_toIcESt4hashIcENS4_18_Mod_range_hashingENS4_20_Default_ranged_hashENS4_20_Prime_rehash_policyENS4_17_Hashtable_traitsILb0ELb0ELb1EEEE21_M_deallocate_bucketsEv, .-_ZNSt10_HashtableIcSt4pairIKciESaIS2_ENSt8__detail10_Select1stESt8equal_toIcESt4hashIcENS4_18_Mod_range_hashingENS4_20_Default_ranged_hashENS4_20_Prime_rehash_policyENS4_17_Hashtable_traitsILb0ELb0ELb1EEEE21_M_deallocate_bucketsEv
	.section	.text._ZNK9__gnu_cxx17__normal_iteratorIPcNSt7__cxx1112basic_stringIcSt11char_traitsIcESaIcEEEE4baseEv,"axG",@progbits,_ZNK9__gnu_cxx17__normal_iteratorIPcNSt7__cxx1112basic_stringIcSt11char_traitsIcESaIcEEEE4baseEv,comdat
	.align	2
	.weak	_ZNK9__gnu_cxx17__normal_iteratorIPcNSt7__cxx1112basic_stringIcSt11char_traitsIcESaIcEEEE4baseEv
	.type	_ZNK9__gnu_cxx17__normal_iteratorIPcNSt7__cxx1112basic_stringIcSt11char_traitsIcESaIcEEEE4baseEv, %function
_ZNK9__gnu_cxx17__normal_iteratorIPcNSt7__cxx1112basic_stringIcSt11char_traitsIcESaIcEEEE4baseEv:
.LFB6058:
	.cfi_startproc
	sub	sp, sp, #16
	.cfi_def_cfa_offset 16
	str	x0, [sp, 8]
	ldr	x0, [sp, 8]
	add	sp, sp, 16
	.cfi_def_cfa_offset 0
	ret
	.cfi_endproc
.LFE6058:
	.size	_ZNK9__gnu_cxx17__normal_iteratorIPcNSt7__cxx1112basic_stringIcSt11char_traitsIcESaIcEEEE4baseEv, .-_ZNK9__gnu_cxx17__normal_iteratorIPcNSt7__cxx1112basic_stringIcSt11char_traitsIcESaIcEEEE4baseEv
	.section	.text._ZNSt8__detail9_Map_baseIcSt4pairIKciESaIS3_ENS_10_Select1stESt8equal_toIcESt4hashIcENS_18_Mod_range_hashingENS_20_Default_ranged_hashENS_20_Prime_rehash_policyENS_17_Hashtable_traitsILb0ELb0ELb1EEELb1EEixERS2_,"axG",@progbits,_ZNSt8__detail9_Map_baseIcSt4pairIKciESaIS3_ENS_10_Select1stESt8equal_toIcESt4hashIcENS_18_Mod_range_hashingENS_20_Default_ranged_hashENS_20_Prime_rehash_policyENS_17_Hashtable_traitsILb0ELb0ELb1EEELb1EEixERS2_,comdat
	.align	2
	.weak	_ZNSt8__detail9_Map_baseIcSt4pairIKciESaIS3_ENS_10_Select1stESt8equal_toIcESt4hashIcENS_18_Mod_range_hashingENS_20_Default_ranged_hashENS_20_Prime_rehash_policyENS_17_Hashtable_traitsILb0ELb0ELb1EEELb1EEixERS2_
	.type	_ZNSt8__detail9_Map_baseIcSt4pairIKciESaIS3_ENS_10_Select1stESt8equal_toIcESt4hashIcENS_18_Mod_range_hashingENS_20_Default_ranged_hashENS_20_Prime_rehash_policyENS_17_Hashtable_traitsILb0ELb0ELb1EEELb1EEixERS2_, %function
_ZNSt8__detail9_Map_baseIcSt4pairIKciESaIS3_ENS_10_Select1stESt8equal_toIcESt4hashIcENS_18_Mod_range_hashingENS_20_Default_ranged_hashENS_20_Prime_rehash_policyENS_17_Hashtable_traitsILb0ELb0ELb1EEELb1EEixERS2_:
.LFB6059:
	.cfi_startproc
	.cfi_personality 0x9b,DW.ref.__gxx_personality_v0
	.cfi_lsda 0x1b,.LLSDA6059
	stp	x29, x30, [sp, -128]!
	.cfi_def_cfa_offset 128
	.cfi_offset 29, -128
	.cfi_offset 30, -120
	mov	x29, sp
	str	x19, [sp, 16]
	.cfi_offset 19, -112
	str	x0, [sp, 40]
	str	x1, [sp, 32]
	adrp	x0, :got:__stack_chk_guard
	ldr	x0, [x0, #:got_lo12:__stack_chk_guard]
	ldr	x1, [x0]
	str	x1, [sp, 120]
	mov	x1, 0
	ldr	x0, [sp, 40]
	str	x0, [sp, 72]
	ldr	x1, [sp, 32]
	ldr	x0, [sp, 72]
.LEHB39:
	bl	_ZNKSt8__detail15_Hash_code_baseIcSt4pairIKciENS_10_Select1stESt4hashIcENS_18_Mod_range_hashingENS_20_Default_ranged_hashELb0EE12_M_hash_codeERS2_
	str	x0, [sp, 80]
	ldr	x1, [sp, 80]
	ldr	x0, [sp, 72]
	bl	_ZNKSt10_HashtableIcSt4pairIKciESaIS2_ENSt8__detail10_Select1stESt8equal_toIcESt4hashIcENS4_18_Mod_range_hashingENS4_20_Default_ranged_hashENS4_20_Prime_rehash_policyENS4_17_Hashtable_traitsILb0ELb0ELb1EEEE15_M_bucket_indexEm
	str	x0, [sp, 88]
	ldr	x3, [sp, 80]
	ldr	x2, [sp, 32]
	ldr	x1, [sp, 88]
	ldr	x0, [sp, 72]
	bl	_ZNKSt10_HashtableIcSt4pairIKciESaIS2_ENSt8__detail10_Select1stESt8equal_toIcESt4hashIcENS4_18_Mod_range_hashingENS4_20_Default_ranged_hashENS4_20_Prime_rehash_policyENS4_17_Hashtable_traitsILb0ELb0ELb1EEEE12_M_find_nodeEmRS1_m
	str	x0, [sp, 96]
	ldr	x0, [sp, 96]
	cmp	x0, 0
	beq	.L239
	ldr	x0, [sp, 96]
	add	x0, x0, 8
	bl	_ZNSt8__detail21_Hash_node_value_baseISt4pairIKciEE4_M_vEv
	add	x19, x0, 4
	b	.L241
.L239:
	ldr	x19, [sp, 72]
	add	x0, sp, 64
	ldr	x1, [sp, 32]
	bl	_ZNSt5tupleIJRKcEEC1ILb1ELb1EEES1_
	add	x1, sp, 56
	add	x0, sp, 64
	add	x5, sp, 104
	mov	x4, x1
	mov	x3, x0
	adrp	x0, _ZSt19piecewise_construct
	add	x2, x0, :lo12:_ZSt19piecewise_construct
	mov	x1, x19
	mov	x0, x5
	bl	_ZNSt10_HashtableIcSt4pairIKciESaIS2_ENSt8__detail10_Select1stESt8equal_toIcESt4hashIcENS4_18_Mod_range_hashingENS4_20_Default_ranged_hashENS4_20_Prime_rehash_policyENS4_17_Hashtable_traitsILb0ELb0ELb1EEEE12_Scoped_nodeC1IJRKSt21piecewise_construct_tSt5tupleIJRS1_EESL_IJEEEEEPNS4_16_Hashtable_allocISaINS4_10_Hash_nodeIS2_Lb0EEEEEEDpOT_
.LEHE39:
	ldr	x0, [sp, 112]
	mov	x4, 1
	mov	x3, x0
	ldr	x2, [sp, 80]
	ldr	x1, [sp, 88]
	ldr	x0, [sp, 72]
.LEHB40:
	bl	_ZNSt10_HashtableIcSt4pairIKciESaIS2_ENSt8__detail10_Select1stESt8equal_toIcESt4hashIcENS4_18_Mod_range_hashingENS4_20_Default_ranged_hashENS4_20_Prime_rehash_policyENS4_17_Hashtable_traitsILb0ELb0ELb1EEEE21_M_insert_unique_nodeEmmPNS4_10_Hash_nodeIS2_Lb0EEEm
.LEHE40:
	str	x0, [sp, 64]
	str	xzr, [sp, 112]
	add	x0, sp, 64
	bl	_ZNKSt8__detail14_Node_iteratorISt4pairIKciELb0ELb0EEptEv
	add	x19, x0, 4
	add	x0, sp, 104
	bl	_ZNSt10_HashtableIcSt4pairIKciESaIS2_ENSt8__detail10_Select1stESt8equal_toIcESt4hashIcENS4_18_Mod_range_hashingENS4_20_Default_ranged_hashENS4_20_Prime_rehash_policyENS4_17_Hashtable_traitsILb0ELb0ELb1EEEE12_Scoped_nodeD1Ev
.L241:
	mov	x1, x19
	adrp	x0, :got:__stack_chk_guard
	ldr	x0, [x0, #:got_lo12:__stack_chk_guard]
	ldr	x3, [sp, 120]
	ldr	x2, [x0]
	subs	x3, x3, x2
	mov	x2, 0
	beq	.L243
	b	.L245
.L244:
	mov	x19, x0
	add	x0, sp, 104
	bl	_ZNSt10_HashtableIcSt4pairIKciESaIS2_ENSt8__detail10_Select1stESt8equal_toIcESt4hashIcENS4_18_Mod_range_hashingENS4_20_Default_ranged_hashENS4_20_Prime_rehash_policyENS4_17_Hashtable_traitsILb0ELb0ELb1EEEE12_Scoped_nodeD1Ev
	mov	x0, x19
.LEHB41:
	bl	_Unwind_Resume
.LEHE41:
.L245:
	bl	__stack_chk_fail
.L243:
	mov	x0, x1
	ldr	x19, [sp, 16]
	ldp	x29, x30, [sp], 128
	.cfi_restore 30
	.cfi_restore 29
	.cfi_restore 19
	.cfi_def_cfa_offset 0
	ret
	.cfi_endproc
.LFE6059:
	.section	.gcc_except_table
.LLSDA6059:
	.byte	0xff
	.byte	0xff
	.byte	0x1
	.uleb128 .LLSDACSE6059-.LLSDACSB6059
.LLSDACSB6059:
	.uleb128 .LEHB39-.LFB6059
	.uleb128 .LEHE39-.LEHB39
	.uleb128 0
	.uleb128 0
	.uleb128 .LEHB40-.LFB6059
	.uleb128 .LEHE40-.LEHB40
	.uleb128 .L244-.LFB6059
	.uleb128 0
	.uleb128 .LEHB41-.LFB6059
	.uleb128 .LEHE41-.LEHB41
	.uleb128 0
	.uleb128 0
.LLSDACSE6059:
	.section	.text._ZNSt8__detail9_Map_baseIcSt4pairIKciESaIS3_ENS_10_Select1stESt8equal_toIcESt4hashIcENS_18_Mod_range_hashingENS_20_Default_ranged_hashENS_20_Prime_rehash_policyENS_17_Hashtable_traitsILb0ELb0ELb1EEELb1EEixERS2_,"axG",@progbits,_ZNSt8__detail9_Map_baseIcSt4pairIKciESaIS3_ENS_10_Select1stESt8equal_toIcESt4hashIcENS_18_Mod_range_hashingENS_20_Default_ranged_hashENS_20_Prime_rehash_policyENS_17_Hashtable_traitsILb0ELb0ELb1EEELb1EEixERS2_,comdat
	.size	_ZNSt8__detail9_Map_baseIcSt4pairIKciESaIS3_ENS_10_Select1stESt8equal_toIcESt4hashIcENS_18_Mod_range_hashingENS_20_Default_ranged_hashENS_20_Prime_rehash_policyENS_17_Hashtable_traitsILb0ELb0ELb1EEELb1EEixERS2_, .-_ZNSt8__detail9_Map_baseIcSt4pairIKciESaIS3_ENS_10_Select1stESt8equal_toIcESt4hashIcENS_18_Mod_range_hashingENS_20_Default_ranged_hashENS_20_Prime_rehash_policyENS_17_Hashtable_traitsILb0ELb0ELb1EEELb1EEixERS2_
	.section	.text._ZStplIcSt11char_traitsIcESaIcEENSt7__cxx1112basic_stringIT_T0_T1_EEOS8_PKS5_,"axG",@progbits,_ZStplIcSt11char_traitsIcESaIcEENSt7__cxx1112basic_stringIT_T0_T1_EEOS8_PKS5_,comdat
	.align	2
	.weak	_ZStplIcSt11char_traitsIcESaIcEENSt7__cxx1112basic_stringIT_T0_T1_EEOS8_PKS5_
	.type	_ZStplIcSt11char_traitsIcESaIcEENSt7__cxx1112basic_stringIT_T0_T1_EEOS8_PKS5_, %function
_ZStplIcSt11char_traitsIcESaIcEENSt7__cxx1112basic_stringIT_T0_T1_EEOS8_PKS5_:
.LFB6068:
	.cfi_startproc
	stp	x29, x30, [sp, -48]!
	.cfi_def_cfa_offset 48
	.cfi_offset 29, -48
	.cfi_offset 30, -40
	mov	x29, sp
	str	x19, [sp, 16]
	.cfi_offset 19, -32
	mov	x19, x8
	str	x0, [sp, 40]
	str	x1, [sp, 32]
	ldr	x1, [sp, 32]
	ldr	x0, [sp, 40]
	bl	_ZNSt7__cxx1112basic_stringIcSt11char_traitsIcESaIcEE6appendEPKc
	bl	_ZSt4moveIRNSt7__cxx1112basic_stringIcSt11char_traitsIcESaIcEEEEONSt16remove_referenceIT_E4typeEOS8_
	mov	x1, x0
	mov	x0, x19
	bl	_ZNSt7__cxx1112basic_stringIcSt11char_traitsIcESaIcEEC1EOS4_
	mov	x0, x19
	ldr	x19, [sp, 16]
	ldp	x29, x30, [sp], 48
	.cfi_restore 30
	.cfi_restore 29
	.cfi_restore 19
	.cfi_def_cfa_offset 0
	ret
	.cfi_endproc
.LFE6068:
	.size	_ZStplIcSt11char_traitsIcESaIcEENSt7__cxx1112basic_stringIT_T0_T1_EEOS8_PKS5_, .-_ZStplIcSt11char_traitsIcESaIcEENSt7__cxx1112basic_stringIT_T0_T1_EEOS8_PKS5_
	.section	.text._ZN3dbg13get_type_nameIJESt13unordered_mapIciSt4hashIcESt8equal_toIcESaISt4pairIKciEEEEENSt7__cxx1112basic_stringIcSt11char_traitsIcESaIcEEENS_8type_tagIT0_EE,"axG",@progbits,_ZN3dbg13get_type_nameIJESt13unordered_mapIciSt4hashIcESt8equal_toIcESaISt4pairIKciEEEEENSt7__cxx1112basic_stringIcSt11char_traitsIcESaIcEEENS_8type_tagIT0_EE,comdat
	.align	2
	.weak	_ZN3dbg13get_type_nameIJESt13unordered_mapIciSt4hashIcESt8equal_toIcESaISt4pairIKciEEEEENSt7__cxx1112basic_stringIcSt11char_traitsIcESaIcEEENS_8type_tagIT0_EE
	.type	_ZN3dbg13get_type_nameIJESt13unordered_mapIciSt4hashIcESt8equal_toIcESaISt4pairIKciEEEEENSt7__cxx1112basic_stringIcSt11char_traitsIcESaIcEEENS_8type_tagIT0_EE, %function
_ZN3dbg13get_type_nameIJESt13unordered_mapIciSt4hashIcESt8equal_toIcESaISt4pairIKciEEEEENSt7__cxx1112basic_stringIcSt11char_traitsIcESaIcEEENS_8type_tagIT0_EE:
.LFB6069:
	.cfi_startproc
	.cfi_personality 0x9b,DW.ref.__gxx_personality_v0
	.cfi_lsda 0x1b,.LLSDA6069
	stp	x29, x30, [sp, -96]!
	.cfi_def_cfa_offset 96
	.cfi_offset 29, -96
	.cfi_offset 30, -88
	mov	x29, sp
	stp	x19, x20, [sp, 16]
	.cfi_offset 19, -80
	.cfi_offset 20, -72
	mov	x19, x8
	strb	w0, [sp, 40]
	adrp	x0, :got:__stack_chk_guard
	ldr	x0, [x0, #:got_lo12:__stack_chk_guard]
	ldr	x1, [x0]
	str	x1, [sp, 88]
	mov	x1, 0
	bl	_ZN3dbg14type_name_implISt13unordered_mapIciSt4hashIcESt8equal_toIcESaISt4pairIKciEEEEEPS7_v
	mov	x20, x0
	add	x0, sp, 48
	bl	_ZNSaIcEC1Ev
	add	x1, sp, 48
	add	x0, sp, 56
	mov	x2, x1
	mov	x1, x20
.LEHB42:
	bl	_ZNSt7__cxx1112basic_stringIcSt11char_traitsIcESaIcEEC1IS3_EEPKcRKS3_
.LEHE42:
	add	x0, sp, 48
	bl	_ZNSaIcED1Ev
	add	x0, sp, 56
	bl	_ZNKSt7__cxx1112basic_stringIcSt11char_traitsIcESaIcEE4sizeEv
	sub	x1, x0, #45
	add	x0, sp, 56
	mov	x8, x19
	mov	x2, x1
	mov	x1, 44
.LEHB43:
	bl	_ZNKSt7__cxx1112basic_stringIcSt11char_traitsIcESaIcEE6substrEmm
.LEHE43:
	nop
	add	x0, sp, 56
	bl	_ZNSt7__cxx1112basic_stringIcSt11char_traitsIcESaIcEED1Ev
	nop
	adrp	x0, :got:__stack_chk_guard
	ldr	x0, [x0, #:got_lo12:__stack_chk_guard]
	ldr	x2, [sp, 88]
	ldr	x1, [x0]
	subs	x2, x2, x1
	mov	x1, 0
	beq	.L252
	b	.L255
.L253:
	mov	x19, x0
	add	x0, sp, 48
	bl	_ZNSaIcED1Ev
	mov	x0, x19
.LEHB44:
	bl	_Unwind_Resume
.L254:
	mov	x19, x0
	add	x0, sp, 56
	bl	_ZNSt7__cxx1112basic_stringIcSt11char_traitsIcESaIcEED1Ev
	mov	x0, x19
	bl	_Unwind_Resume
.LEHE44:
.L255:
	bl	__stack_chk_fail
.L252:
	mov	x0, x19
	ldp	x19, x20, [sp, 16]
	ldp	x29, x30, [sp], 96
	.cfi_restore 30
	.cfi_restore 29
	.cfi_restore 19
	.cfi_restore 20
	.cfi_def_cfa_offset 0
	ret
	.cfi_endproc
.LFE6069:
	.section	.gcc_except_table
.LLSDA6069:
	.byte	0xff
	.byte	0xff
	.byte	0x1
	.uleb128 .LLSDACSE6069-.LLSDACSB6069
.LLSDACSB6069:
	.uleb128 .LEHB42-.LFB6069
	.uleb128 .LEHE42-.LEHB42
	.uleb128 .L253-.LFB6069
	.uleb128 0
	.uleb128 .LEHB43-.LFB6069
	.uleb128 .LEHE43-.LEHB43
	.uleb128 .L254-.LFB6069
	.uleb128 0
	.uleb128 .LEHB44-.LFB6069
	.uleb128 .LEHE44-.LEHB44
	.uleb128 0
	.uleb128 0
.LLSDACSE6069:
	.section	.text._ZN3dbg13get_type_nameIJESt13unordered_mapIciSt4hashIcESt8equal_toIcESaISt4pairIKciEEEEENSt7__cxx1112basic_stringIcSt11char_traitsIcESaIcEEENS_8type_tagIT0_EE,"axG",@progbits,_ZN3dbg13get_type_nameIJESt13unordered_mapIciSt4hashIcESt8equal_toIcESaISt4pairIKciEEEEENSt7__cxx1112basic_stringIcSt11char_traitsIcESaIcEEENS_8type_tagIT0_EE,comdat
	.size	_ZN3dbg13get_type_nameIJESt13unordered_mapIciSt4hashIcESt8equal_toIcESaISt4pairIKciEEEEENSt7__cxx1112basic_stringIcSt11char_traitsIcESaIcEEENS_8type_tagIT0_EE, .-_ZN3dbg13get_type_nameIJESt13unordered_mapIciSt4hashIcESt8equal_toIcESaISt4pairIKciEEEEENSt7__cxx1112basic_stringIcSt11char_traitsIcESaIcEEENS_8type_tagIT0_EE
	.section	.text._ZNKSt16initializer_listIPKcE5beginEv,"axG",@progbits,_ZNKSt16initializer_listIPKcE5beginEv,comdat
	.align	2
	.weak	_ZNKSt16initializer_listIPKcE5beginEv
	.type	_ZNKSt16initializer_listIPKcE5beginEv, %function
_ZNKSt16initializer_listIPKcE5beginEv:
.LFB6070:
	.cfi_startproc
	sub	sp, sp, #16
	.cfi_def_cfa_offset 16
	str	x0, [sp, 8]
	ldr	x0, [sp, 8]
	ldr	x0, [x0]
	add	sp, sp, 16
	.cfi_def_cfa_offset 0
	ret
	.cfi_endproc
.LFE6070:
	.size	_ZNKSt16initializer_listIPKcE5beginEv, .-_ZNKSt16initializer_listIPKcE5beginEv
	.section	.text._ZNKSt16initializer_listINSt7__cxx1112basic_stringIcSt11char_traitsIcESaIcEEEE5beginEv,"axG",@progbits,_ZNKSt16initializer_listINSt7__cxx1112basic_stringIcSt11char_traitsIcESaIcEEEE5beginEv,comdat
	.align	2
	.weak	_ZNKSt16initializer_listINSt7__cxx1112basic_stringIcSt11char_traitsIcESaIcEEEE5beginEv
	.type	_ZNKSt16initializer_listINSt7__cxx1112basic_stringIcSt11char_traitsIcESaIcEEEE5beginEv, %function
_ZNKSt16initializer_listINSt7__cxx1112basic_stringIcSt11char_traitsIcESaIcEEEE5beginEv:
.LFB6071:
	.cfi_startproc
	sub	sp, sp, #16
	.cfi_def_cfa_offset 16
	str	x0, [sp, 8]
	ldr	x0, [sp, 8]
	ldr	x0, [x0]
	add	sp, sp, 16
	.cfi_def_cfa_offset 0
	ret
	.cfi_endproc
.LFE6071:
	.size	_ZNKSt16initializer_listINSt7__cxx1112basic_stringIcSt11char_traitsIcESaIcEEEE5beginEv, .-_ZNKSt16initializer_listINSt7__cxx1112basic_stringIcSt11char_traitsIcESaIcEEEE5beginEv
	.section	.text._ZSt7forwardIRSt13unordered_mapIciSt4hashIcESt8equal_toIcESaISt4pairIKciEEEEOT_RNSt16remove_referenceISB_E4typeE,"axG",@progbits,_ZSt7forwardIRSt13unordered_mapIciSt4hashIcESt8equal_toIcESaISt4pairIKciEEEEOT_RNSt16remove_referenceISB_E4typeE,comdat
	.align	2
	.weak	_ZSt7forwardIRSt13unordered_mapIciSt4hashIcESt8equal_toIcESaISt4pairIKciEEEEOT_RNSt16remove_referenceISB_E4typeE
	.type	_ZSt7forwardIRSt13unordered_mapIciSt4hashIcESt8equal_toIcESaISt4pairIKciEEEEOT_RNSt16remove_referenceISB_E4typeE, %function
_ZSt7forwardIRSt13unordered_mapIciSt4hashIcESt8equal_toIcESaISt4pairIKciEEEEOT_RNSt16remove_referenceISB_E4typeE:
.LFB6072:
	.cfi_startproc
	sub	sp, sp, #16
	.cfi_def_cfa_offset 16
	str	x0, [sp, 8]
	ldr	x0, [sp, 8]
	add	sp, sp, 16
	.cfi_def_cfa_offset 0
	ret
	.cfi_endproc
.LFE6072:
	.size	_ZSt7forwardIRSt13unordered_mapIciSt4hashIcESt8equal_toIcESaISt4pairIKciEEEEOT_RNSt16remove_referenceISB_E4typeE, .-_ZSt7forwardIRSt13unordered_mapIciSt4hashIcESt8equal_toIcESaISt4pairIKciEEEEOT_RNSt16remove_referenceISB_E4typeE
	.section	.rodata
	.align	3
.LC21:
	.string	"\033[36m"
	.align	3
.LC22:
	.string	" = "
	.align	3
.LC23:
	.string	"\033[01m"
	.align	3
.LC24:
	.string	"\033[32m"
	.align	3
.LC25:
	.string	")"
	.section	.text._ZN3dbg11DebugOutput10print_implIRSt13unordered_mapIciSt4hashIcESt8equal_toIcESaISt4pairIKciEEEEEOT_PKPS8_PKNSt7__cxx1112basic_stringIcSt11char_traitsIcESaIcEEESE_,"axG",@progbits,_ZN3dbg11DebugOutput10print_implIRSt13unordered_mapIciSt4hashIcESt8equal_toIcESaISt4pairIKciEEEEEOT_PKPS8_PKNSt7__cxx1112basic_stringIcSt11char_traitsIcESaIcEEESE_,comdat
	.align	2
	.weak	_ZN3dbg11DebugOutput10print_implIRSt13unordered_mapIciSt4hashIcESt8equal_toIcESaISt4pairIKciEEEEEOT_PKPS8_PKNSt7__cxx1112basic_stringIcSt11char_traitsIcESaIcEEESE_
	.type	_ZN3dbg11DebugOutput10print_implIRSt13unordered_mapIciSt4hashIcESt8equal_toIcESaISt4pairIKciEEEEEOT_PKPS8_PKNSt7__cxx1112basic_stringIcSt11char_traitsIcESaIcEEESE_, %function
_ZN3dbg11DebugOutput10print_implIRSt13unordered_mapIciSt4hashIcESt8equal_toIcESaISt4pairIKciEEEEEOT_PKPS8_PKNSt7__cxx1112basic_stringIcSt11char_traitsIcESaIcEEESE_:
.LFB6073:
	.cfi_startproc
	.cfi_personality 0x9b,DW.ref.__gxx_personality_v0
	.cfi_lsda 0x1b,.LLSDA6073
	sub	sp, sp, #912
	.cfi_def_cfa_offset 912
	stp	x29, x30, [sp]
	.cfi_offset 29, -912
	.cfi_offset 30, -904
	mov	x29, sp
	str	x19, [sp, 16]
	.cfi_offset 19, -896
	str	x0, [sp, 56]
	str	x1, [sp, 48]
	str	x2, [sp, 40]
	str	x3, [sp, 32]
	adrp	x0, :got:__stack_chk_guard
	ldr	x0, [x0, #:got_lo12:__stack_chk_guard]
	ldr	x1, [x0]
	str	x1, [sp, 904]
	mov	x1, 0
	ldr	x0, [sp, 32]
	str	x0, [sp, 80]
	add	x0, sp, 120
.LEHB45:
	bl	_ZNSt7__cxx1118basic_stringstreamIcSt11char_traitsIcESaIcEEC1Ev
.LEHE45:
	add	x0, sp, 120
	add	x0, x0, 16
	ldr	x1, [sp, 80]
.LEHB46:
	bl	_ZN3dbg12pretty_printISt13unordered_mapIciSt4hashIcESt8equal_toIcESaISt4pairIKciEEEEENSt9enable_ifIXsrNS_6detail12is_containerIRKT_EE5valueEbE4typeERSoSG_
	and	w0, w0, 255
	strb	w0, [sp, 79]
	add	x0, sp, 512
	bl	_ZNSt7__cxx1118basic_stringstreamIcSt11char_traitsIcESaIcEEC1Ev
.LEHE46:
	ldr	x0, [sp, 56]
	add	x1, x0, 8
	add	x0, sp, 512
	add	x0, x0, 16
.LEHB47:
	bl	_ZStlsIcSt11char_traitsIcESaIcEERSt13basic_ostreamIT_T0_ES7_RKNSt7__cxx1112basic_stringIS4_S5_T1_EE
	ldrb	w0, [sp, 79]
	cmp	w0, 0
	beq	.L263
	adrp	x0, .LC21
	add	x1, x0, :lo12:.LC21
	ldr	x0, [sp, 56]
	bl	_ZNK3dbg11DebugOutput4ansiEPKc
	mov	x1, x0
	add	x0, sp, 512
	add	x0, x0, 16
	bl	_ZStlsISt11char_traitsIcEERSt13basic_ostreamIcT_ES5_PKc
	mov	x2, x0
	ldr	x0, [sp, 48]
	ldr	x0, [x0]
	mov	x1, x0
	mov	x0, x2
	bl	_ZStlsISt11char_traitsIcEERSt13basic_ostreamIcT_ES5_PKc
	mov	x19, x0
	adrp	x0, .LC9
	add	x1, x0, :lo12:.LC9
	ldr	x0, [sp, 56]
	bl	_ZNK3dbg11DebugOutput4ansiEPKc
	mov	x1, x0
	mov	x0, x19
	bl	_ZStlsISt11char_traitsIcEERSt13basic_ostreamIcT_ES5_PKc
	mov	x2, x0
	adrp	x0, .LC22
	add	x1, x0, :lo12:.LC22
	mov	x0, x2
	bl	_ZStlsISt11char_traitsIcEERSt13basic_ostreamIcT_ES5_PKc
.L263:
	adrp	x0, .LC23
	add	x1, x0, :lo12:.LC23
	ldr	x0, [sp, 56]
	bl	_ZNK3dbg11DebugOutput4ansiEPKc
	mov	x1, x0
	add	x0, sp, 512
	add	x0, x0, 16
	bl	_ZStlsISt11char_traitsIcEERSt13basic_ostreamIcT_ES5_PKc
	mov	x19, x0
	add	x0, sp, 120
	add	x1, sp, 88
	mov	x8, x1
	bl	_ZNKSt7__cxx1118basic_stringstreamIcSt11char_traitsIcESaIcEE3strEv
.LEHE47:
	add	x0, sp, 88
	mov	x1, x0
	mov	x0, x19
.LEHB48:
	bl	_ZStlsIcSt11char_traitsIcESaIcEERSt13basic_ostreamIT_T0_ES7_RKNSt7__cxx1112basic_stringIS4_S5_T1_EE
	mov	x19, x0
	adrp	x0, .LC9
	add	x1, x0, :lo12:.LC9
	ldr	x0, [sp, 56]
	bl	_ZNK3dbg11DebugOutput4ansiEPKc
	mov	x1, x0
	mov	x0, x19
	bl	_ZStlsISt11char_traitsIcEERSt13basic_ostreamIcT_ES5_PKc
.LEHE48:
	add	x0, sp, 88
	bl	_ZNSt7__cxx1112basic_stringIcSt11char_traitsIcESaIcEED1Ev
	ldrb	w0, [sp, 79]
	cmp	w0, 0
	beq	.L264
	add	x0, sp, 512
	add	x2, x0, 16
	adrp	x0, .LC7
	add	x1, x0, :lo12:.LC7
	mov	x0, x2
.LEHB49:
	bl	_ZStlsISt11char_traitsIcEERSt13basic_ostreamIcT_ES5_PKc
	mov	x19, x0
	adrp	x0, .LC24
	add	x1, x0, :lo12:.LC24
	ldr	x0, [sp, 56]
	bl	_ZNK3dbg11DebugOutput4ansiEPKc
	mov	x1, x0
	mov	x0, x19
	bl	_ZStlsISt11char_traitsIcEERSt13basic_ostreamIcT_ES5_PKc
	ldr	x1, [sp, 40]
	bl	_ZStlsIcSt11char_traitsIcESaIcEERSt13basic_ostreamIT_T0_ES7_RKNSt7__cxx1112basic_stringIS4_S5_T1_EE
	mov	x19, x0
	adrp	x0, .LC9
	add	x1, x0, :lo12:.LC9
	ldr	x0, [sp, 56]
	bl	_ZNK3dbg11DebugOutput4ansiEPKc
	mov	x1, x0
	mov	x0, x19
	bl	_ZStlsISt11char_traitsIcEERSt13basic_ostreamIcT_ES5_PKc
	mov	x2, x0
	adrp	x0, .LC25
	add	x1, x0, :lo12:.LC25
	mov	x0, x2
	bl	_ZStlsISt11char_traitsIcEERSt13basic_ostreamIcT_ES5_PKc
.L264:
	add	x0, sp, 512
	add	x2, x0, 16
	adrp	x0, :got:_ZSt4endlIcSt11char_traitsIcEERSt13basic_ostreamIT_T0_ES6_
	ldr	x1, [x0, #:got_lo12:_ZSt4endlIcSt11char_traitsIcEERSt13basic_ostreamIT_T0_ES6_]
	mov	x0, x2
	bl	_ZNSolsEPFRSoS_E
	add	x0, sp, 512
	add	x1, sp, 88
	mov	x8, x1
	bl	_ZNKSt7__cxx1118basic_stringstreamIcSt11char_traitsIcESaIcEE3strEv
.LEHE49:
	add	x0, sp, 88
	mov	x1, x0
	adrp	x0, :got:_ZSt4cerr
	ldr	x0, [x0, #:got_lo12:_ZSt4cerr]
.LEHB50:
	bl	_ZStlsIcSt11char_traitsIcESaIcEERSt13basic_ostreamIT_T0_ES7_RKNSt7__cxx1112basic_stringIS4_S5_T1_EE
.LEHE50:
	add	x0, sp, 88
	bl	_ZNSt7__cxx1112basic_stringIcSt11char_traitsIcESaIcEED1Ev
	ldr	x0, [sp, 32]
	bl	_ZSt7forwardIRSt13unordered_mapIciSt4hashIcESt8equal_toIcESaISt4pairIKciEEEEOT_RNSt16remove_referenceISB_E4typeE
	mov	x19, x0
	nop
	add	x0, sp, 512
	bl	_ZNSt7__cxx1118basic_stringstreamIcSt11char_traitsIcESaIcEED1Ev
	add	x0, sp, 120
	bl	_ZNSt7__cxx1118basic_stringstreamIcSt11char_traitsIcESaIcEED1Ev
	mov	x1, x19
	adrp	x0, :got:__stack_chk_guard
	ldr	x0, [x0, #:got_lo12:__stack_chk_guard]
	ldr	x3, [sp, 904]
	ldr	x2, [x0]
	subs	x3, x3, x2
	mov	x2, 0
	beq	.L270
	b	.L275
.L273:
	mov	x19, x0
	add	x0, sp, 88
	bl	_ZNSt7__cxx1112basic_stringIcSt11char_traitsIcESaIcEED1Ev
	b	.L267
.L274:
	mov	x19, x0
	add	x0, sp, 88
	bl	_ZNSt7__cxx1112basic_stringIcSt11char_traitsIcESaIcEED1Ev
	b	.L267
.L272:
	mov	x19, x0
.L267:
	add	x0, sp, 512
	bl	_ZNSt7__cxx1118basic_stringstreamIcSt11char_traitsIcESaIcEED1Ev
	b	.L269
.L271:
	mov	x19, x0
.L269:
	add	x0, sp, 120
	bl	_ZNSt7__cxx1118basic_stringstreamIcSt11char_traitsIcESaIcEED1Ev
	mov	x0, x19
.LEHB51:
	bl	_Unwind_Resume
.LEHE51:
.L275:
	bl	__stack_chk_fail
.L270:
	mov	x0, x1
	ldr	x19, [sp, 16]
	ldp	x29, x30, [sp]
	add	sp, sp, 912
	.cfi_restore 29
	.cfi_restore 30
	.cfi_restore 19
	.cfi_def_cfa_offset 0
	ret
	.cfi_endproc
.LFE6073:
	.section	.gcc_except_table
.LLSDA6073:
	.byte	0xff
	.byte	0xff
	.byte	0x1
	.uleb128 .LLSDACSE6073-.LLSDACSB6073
.LLSDACSB6073:
	.uleb128 .LEHB45-.LFB6073
	.uleb128 .LEHE45-.LEHB45
	.uleb128 0
	.uleb128 0
	.uleb128 .LEHB46-.LFB6073
	.uleb128 .LEHE46-.LEHB46
	.uleb128 .L271-.LFB6073
	.uleb128 0
	.uleb128 .LEHB47-.LFB6073
	.uleb128 .LEHE47-.LEHB47
	.uleb128 .L272-.LFB6073
	.uleb128 0
	.uleb128 .LEHB48-.LFB6073
	.uleb128 .LEHE48-.LEHB48
	.uleb128 .L273-.LFB6073
	.uleb128 0
	.uleb128 .LEHB49-.LFB6073
	.uleb128 .LEHE49-.LEHB49
	.uleb128 .L272-.LFB6073
	.uleb128 0
	.uleb128 .LEHB50-.LFB6073
	.uleb128 .LEHE50-.LEHB50
	.uleb128 .L274-.LFB6073
	.uleb128 0
	.uleb128 .LEHB51-.LFB6073
	.uleb128 .LEHE51-.LEHB51
	.uleb128 0
	.uleb128 0
.LLSDACSE6073:
	.section	.text._ZN3dbg11DebugOutput10print_implIRSt13unordered_mapIciSt4hashIcESt8equal_toIcESaISt4pairIKciEEEEEOT_PKPS8_PKNSt7__cxx1112basic_stringIcSt11char_traitsIcESaIcEEESE_,"axG",@progbits,_ZN3dbg11DebugOutput10print_implIRSt13unordered_mapIciSt4hashIcESt8equal_toIcESaISt4pairIKciEEEEEOT_PKPS8_PKNSt7__cxx1112basic_stringIcSt11char_traitsIcESaIcEEESE_,comdat
	.size	_ZN3dbg11DebugOutput10print_implIRSt13unordered_mapIciSt4hashIcESt8equal_toIcESaISt4pairIKciEEEEEOT_PKPS8_PKNSt7__cxx1112basic_stringIcSt11char_traitsIcESaIcEEESE_, .-_ZN3dbg11DebugOutput10print_implIRSt13unordered_mapIciSt4hashIcESt8equal_toIcESaISt4pairIKciEEEEEOT_PKPS8_PKNSt7__cxx1112basic_stringIcSt11char_traitsIcESaIcEEESE_
	.section	.text._ZN9__gnu_cxx13new_allocatorINSt7__cxx1112basic_stringIcSt11char_traitsIcESaIcEEEEC2Ev,"axG",@progbits,_ZN9__gnu_cxx13new_allocatorINSt7__cxx1112basic_stringIcSt11char_traitsIcESaIcEEEEC5Ev,comdat
	.align	2
	.weak	_ZN9__gnu_cxx13new_allocatorINSt7__cxx1112basic_stringIcSt11char_traitsIcESaIcEEEEC2Ev
	.type	_ZN9__gnu_cxx13new_allocatorINSt7__cxx1112basic_stringIcSt11char_traitsIcESaIcEEEEC2Ev, %function
_ZN9__gnu_cxx13new_allocatorINSt7__cxx1112basic_stringIcSt11char_traitsIcESaIcEEEEC2Ev:
.LFB6075:
	.cfi_startproc
	sub	sp, sp, #16
	.cfi_def_cfa_offset 16
	str	x0, [sp, 8]
	nop
	add	sp, sp, 16
	.cfi_def_cfa_offset 0
	ret
	.cfi_endproc
.LFE6075:
	.size	_ZN9__gnu_cxx13new_allocatorINSt7__cxx1112basic_stringIcSt11char_traitsIcESaIcEEEEC2Ev, .-_ZN9__gnu_cxx13new_allocatorINSt7__cxx1112basic_stringIcSt11char_traitsIcESaIcEEEEC2Ev
	.weak	_ZN9__gnu_cxx13new_allocatorINSt7__cxx1112basic_stringIcSt11char_traitsIcESaIcEEEEC1Ev
	.set	_ZN9__gnu_cxx13new_allocatorINSt7__cxx1112basic_stringIcSt11char_traitsIcESaIcEEEEC1Ev,_ZN9__gnu_cxx13new_allocatorINSt7__cxx1112basic_stringIcSt11char_traitsIcESaIcEEEEC2Ev
	.section	.text._ZN9__gnu_cxx13new_allocatorINSt7__cxx1112basic_stringIcSt11char_traitsIcESaIcEEEED2Ev,"axG",@progbits,_ZN9__gnu_cxx13new_allocatorINSt7__cxx1112basic_stringIcSt11char_traitsIcESaIcEEEED5Ev,comdat
	.align	2
	.weak	_ZN9__gnu_cxx13new_allocatorINSt7__cxx1112basic_stringIcSt11char_traitsIcESaIcEEEED2Ev
	.type	_ZN9__gnu_cxx13new_allocatorINSt7__cxx1112basic_stringIcSt11char_traitsIcESaIcEEEED2Ev, %function
_ZN9__gnu_cxx13new_allocatorINSt7__cxx1112basic_stringIcSt11char_traitsIcESaIcEEEED2Ev:
.LFB6078:
	.cfi_startproc
	sub	sp, sp, #16
	.cfi_def_cfa_offset 16
	str	x0, [sp, 8]
	nop
	add	sp, sp, 16
	.cfi_def_cfa_offset 0
	ret
	.cfi_endproc
.LFE6078:
	.size	_ZN9__gnu_cxx13new_allocatorINSt7__cxx1112basic_stringIcSt11char_traitsIcESaIcEEEED2Ev, .-_ZN9__gnu_cxx13new_allocatorINSt7__cxx1112basic_stringIcSt11char_traitsIcESaIcEEEED2Ev
	.weak	_ZN9__gnu_cxx13new_allocatorINSt7__cxx1112basic_stringIcSt11char_traitsIcESaIcEEEED1Ev
	.set	_ZN9__gnu_cxx13new_allocatorINSt7__cxx1112basic_stringIcSt11char_traitsIcESaIcEEEED1Ev,_ZN9__gnu_cxx13new_allocatorINSt7__cxx1112basic_stringIcSt11char_traitsIcESaIcEEEED2Ev
	.section	.rodata
	.align	3
.LC26:
	.string	"cannot create std::vector larger than max_size()"
	.section	.text._ZNSt6vectorINSt7__cxx1112basic_stringIcSt11char_traitsIcESaIcEEESaIS5_EE17_S_check_init_lenEmRKS6_,"axG",@progbits,_ZNSt6vectorINSt7__cxx1112basic_stringIcSt11char_traitsIcESaIcEEESaIS5_EE17_S_check_init_lenEmRKS6_,comdat
	.align	2
	.weak	_ZNSt6vectorINSt7__cxx1112basic_stringIcSt11char_traitsIcESaIcEEESaIS5_EE17_S_check_init_lenEmRKS6_
	.type	_ZNSt6vectorINSt7__cxx1112basic_stringIcSt11char_traitsIcESaIcEEESaIS5_EE17_S_check_init_lenEmRKS6_, %function
_ZNSt6vectorINSt7__cxx1112basic_stringIcSt11char_traitsIcESaIcEEESaIS5_EE17_S_check_init_lenEmRKS6_:
.LFB6080:
	.cfi_startproc
	stp	x29, x30, [sp, -64]!
	.cfi_def_cfa_offset 64
	.cfi_offset 29, -64
	.cfi_offset 30, -56
	mov	x29, sp
	str	x19, [sp, 16]
	.cfi_offset 19, -48
	str	x0, [sp, 40]
	str	x1, [sp, 32]
	adrp	x0, :got:__stack_chk_guard
	ldr	x0, [x0, #:got_lo12:__stack_chk_guard]
	ldr	x1, [x0]
	str	x1, [sp, 56]
	mov	x1, 0
	add	x0, sp, 48
	ldr	x1, [sp, 32]
	bl	_ZNSaINSt7__cxx1112basic_stringIcSt11char_traitsIcESaIcEEEEC1ERKS5_
	add	x0, sp, 48
	bl	_ZNSt6vectorINSt7__cxx1112basic_stringIcSt11char_traitsIcESaIcEEESaIS5_EE11_S_max_sizeERKS6_
	mov	x1, x0
	ldr	x0, [sp, 40]
	cmp	x0, x1
	cset	w0, hi
	and	w19, w0, 255
	add	x0, sp, 48
	bl	_ZNSaINSt7__cxx1112basic_stringIcSt11char_traitsIcESaIcEEEED1Ev
	cmp	w19, 0
	beq	.L279
	adrp	x0, .LC26
	add	x0, x0, :lo12:.LC26
	bl	_ZSt20__throw_length_errorPKc
.L279:
	ldr	x0, [sp, 40]
	mov	x1, x0
	adrp	x0, :got:__stack_chk_guard
	ldr	x0, [x0, #:got_lo12:__stack_chk_guard]
	ldr	x3, [sp, 56]
	ldr	x2, [x0]
	subs	x3, x3, x2
	mov	x2, 0
	beq	.L281
	bl	__stack_chk_fail
.L281:
	mov	x0, x1
	ldr	x19, [sp, 16]
	ldp	x29, x30, [sp], 64
	.cfi_restore 30
	.cfi_restore 29
	.cfi_restore 19
	.cfi_def_cfa_offset 0
	ret
	.cfi_endproc
.LFE6080:
	.size	_ZNSt6vectorINSt7__cxx1112basic_stringIcSt11char_traitsIcESaIcEEESaIS5_EE17_S_check_init_lenEmRKS6_, .-_ZNSt6vectorINSt7__cxx1112basic_stringIcSt11char_traitsIcESaIcEEESaIS5_EE17_S_check_init_lenEmRKS6_
	.section	.text._ZNSt12_Vector_baseINSt7__cxx1112basic_stringIcSt11char_traitsIcESaIcEEESaIS5_EE12_Vector_implD2Ev,"axG",@progbits,_ZNSt12_Vector_baseINSt7__cxx1112basic_stringIcSt11char_traitsIcESaIcEEESaIS5_EE12_Vector_implD5Ev,comdat
	.align	2
	.weak	_ZNSt12_Vector_baseINSt7__cxx1112basic_stringIcSt11char_traitsIcESaIcEEESaIS5_EE12_Vector_implD2Ev
	.type	_ZNSt12_Vector_baseINSt7__cxx1112basic_stringIcSt11char_traitsIcESaIcEEESaIS5_EE12_Vector_implD2Ev, %function
_ZNSt12_Vector_baseINSt7__cxx1112basic_stringIcSt11char_traitsIcESaIcEEESaIS5_EE12_Vector_implD2Ev:
.LFB6083:
	.cfi_startproc
	stp	x29, x30, [sp, -32]!
	.cfi_def_cfa_offset 32
	.cfi_offset 29, -32
	.cfi_offset 30, -24
	mov	x29, sp
	str	x0, [sp, 24]
	ldr	x0, [sp, 24]
	bl	_ZNSaINSt7__cxx1112basic_stringIcSt11char_traitsIcESaIcEEEED2Ev
	nop
	ldp	x29, x30, [sp], 32
	.cfi_restore 30
	.cfi_restore 29
	.cfi_def_cfa_offset 0
	ret
	.cfi_endproc
.LFE6083:
	.size	_ZNSt12_Vector_baseINSt7__cxx1112basic_stringIcSt11char_traitsIcESaIcEEESaIS5_EE12_Vector_implD2Ev, .-_ZNSt12_Vector_baseINSt7__cxx1112basic_stringIcSt11char_traitsIcESaIcEEESaIS5_EE12_Vector_implD2Ev
	.weak	_ZNSt12_Vector_baseINSt7__cxx1112basic_stringIcSt11char_traitsIcESaIcEEESaIS5_EE12_Vector_implD1Ev
	.set	_ZNSt12_Vector_baseINSt7__cxx1112basic_stringIcSt11char_traitsIcESaIcEEESaIS5_EE12_Vector_implD1Ev,_ZNSt12_Vector_baseINSt7__cxx1112basic_stringIcSt11char_traitsIcESaIcEEESaIS5_EE12_Vector_implD2Ev
	.section	.text._ZNSt12_Vector_baseINSt7__cxx1112basic_stringIcSt11char_traitsIcESaIcEEESaIS5_EEC2EmRKS6_,"axG",@progbits,_ZNSt12_Vector_baseINSt7__cxx1112basic_stringIcSt11char_traitsIcESaIcEEESaIS5_EEC5EmRKS6_,comdat
	.align	2
	.weak	_ZNSt12_Vector_baseINSt7__cxx1112basic_stringIcSt11char_traitsIcESaIcEEESaIS5_EEC2EmRKS6_
	.type	_ZNSt12_Vector_baseINSt7__cxx1112basic_stringIcSt11char_traitsIcESaIcEEESaIS5_EEC2EmRKS6_, %function
_ZNSt12_Vector_baseINSt7__cxx1112basic_stringIcSt11char_traitsIcESaIcEEESaIS5_EEC2EmRKS6_:
.LFB6085:
	.cfi_startproc
	.cfi_personality 0x9b,DW.ref.__gxx_personality_v0
	.cfi_lsda 0x1b,.LLSDA6085
	stp	x29, x30, [sp, -64]!
	.cfi_def_cfa_offset 64
	.cfi_offset 29, -64
	.cfi_offset 30, -56
	mov	x29, sp
	str	x19, [sp, 16]
	.cfi_offset 19, -48
	str	x0, [sp, 56]
	str	x1, [sp, 48]
	str	x2, [sp, 40]
	ldr	x0, [sp, 56]
	ldr	x1, [sp, 40]
	bl	_ZNSt12_Vector_baseINSt7__cxx1112basic_stringIcSt11char_traitsIcESaIcEEESaIS5_EE12_Vector_implC1ERKS6_
	ldr	x1, [sp, 48]
	ldr	x0, [sp, 56]
.LEHB52:
	bl	_ZNSt12_Vector_baseINSt7__cxx1112basic_stringIcSt11char_traitsIcESaIcEEESaIS5_EE17_M_create_storageEm
.LEHE52:
	b	.L286
.L285:
	mov	x19, x0
	ldr	x0, [sp, 56]
	bl	_ZNSt12_Vector_baseINSt7__cxx1112basic_stringIcSt11char_traitsIcESaIcEEESaIS5_EE12_Vector_implD1Ev
	mov	x0, x19
.LEHB53:
	bl	_Unwind_Resume
.LEHE53:
.L286:
	ldr	x19, [sp, 16]
	ldp	x29, x30, [sp], 64
	.cfi_restore 30
	.cfi_restore 29
	.cfi_restore 19
	.cfi_def_cfa_offset 0
	ret
	.cfi_endproc
.LFE6085:
	.section	.gcc_except_table
.LLSDA6085:
	.byte	0xff
	.byte	0xff
	.byte	0x1
	.uleb128 .LLSDACSE6085-.LLSDACSB6085
.LLSDACSB6085:
	.uleb128 .LEHB52-.LFB6085
	.uleb128 .LEHE52-.LEHB52
	.uleb128 .L285-.LFB6085
	.uleb128 0
	.uleb128 .LEHB53-.LFB6085
	.uleb128 .LEHE53-.LEHB53
	.uleb128 0
	.uleb128 0
.LLSDACSE6085:
	.section	.text._ZNSt12_Vector_baseINSt7__cxx1112basic_stringIcSt11char_traitsIcESaIcEEESaIS5_EEC2EmRKS6_,"axG",@progbits,_ZNSt12_Vector_baseINSt7__cxx1112basic_stringIcSt11char_traitsIcESaIcEEESaIS5_EEC5EmRKS6_,comdat
	.size	_ZNSt12_Vector_baseINSt7__cxx1112basic_stringIcSt11char_traitsIcESaIcEEESaIS5_EEC2EmRKS6_, .-_ZNSt12_Vector_baseINSt7__cxx1112basic_stringIcSt11char_traitsIcESaIcEEESaIS5_EEC2EmRKS6_
	.weak	_ZNSt12_Vector_baseINSt7__cxx1112basic_stringIcSt11char_traitsIcESaIcEEESaIS5_EEC1EmRKS6_
	.set	_ZNSt12_Vector_baseINSt7__cxx1112basic_stringIcSt11char_traitsIcESaIcEEESaIS5_EEC1EmRKS6_,_ZNSt12_Vector_baseINSt7__cxx1112basic_stringIcSt11char_traitsIcESaIcEEESaIS5_EEC2EmRKS6_
	.section	.text._ZNSt12_Vector_baseINSt7__cxx1112basic_stringIcSt11char_traitsIcESaIcEEESaIS5_EED2Ev,"axG",@progbits,_ZNSt12_Vector_baseINSt7__cxx1112basic_stringIcSt11char_traitsIcESaIcEEESaIS5_EED5Ev,comdat
	.align	2
	.weak	_ZNSt12_Vector_baseINSt7__cxx1112basic_stringIcSt11char_traitsIcESaIcEEESaIS5_EED2Ev
	.type	_ZNSt12_Vector_baseINSt7__cxx1112basic_stringIcSt11char_traitsIcESaIcEEESaIS5_EED2Ev, %function
_ZNSt12_Vector_baseINSt7__cxx1112basic_stringIcSt11char_traitsIcESaIcEEESaIS5_EED2Ev:
.LFB6088:
	.cfi_startproc
	.cfi_personality 0x9b,DW.ref.__gxx_personality_v0
	.cfi_lsda 0x1b,.LLSDA6088
	stp	x29, x30, [sp, -32]!
	.cfi_def_cfa_offset 32
	.cfi_offset 29, -32
	.cfi_offset 30, -24
	mov	x29, sp
	str	x0, [sp, 24]
	ldr	x0, [sp, 24]
	ldr	x3, [x0]
	ldr	x0, [sp, 24]
	ldr	x1, [x0, 16]
	ldr	x0, [sp, 24]
	ldr	x0, [x0]
	sub	x0, x1, x0
	asr	x0, x0, 5
	mov	x2, x0
	mov	x1, x3
	ldr	x0, [sp, 24]
	bl	_ZNSt12_Vector_baseINSt7__cxx1112basic_stringIcSt11char_traitsIcESaIcEEESaIS5_EE13_M_deallocateEPS5_m
	ldr	x0, [sp, 24]
	bl	_ZNSt12_Vector_baseINSt7__cxx1112basic_stringIcSt11char_traitsIcESaIcEEESaIS5_EE12_Vector_implD1Ev
	nop
	ldp	x29, x30, [sp], 32
	.cfi_restore 30
	.cfi_restore 29
	.cfi_def_cfa_offset 0
	ret
	.cfi_endproc
.LFE6088:
	.section	.gcc_except_table
.LLSDA6088:
	.byte	0xff
	.byte	0xff
	.byte	0x1
	.uleb128 .LLSDACSE6088-.LLSDACSB6088
.LLSDACSB6088:
.LLSDACSE6088:
	.section	.text._ZNSt12_Vector_baseINSt7__cxx1112basic_stringIcSt11char_traitsIcESaIcEEESaIS5_EED2Ev,"axG",@progbits,_ZNSt12_Vector_baseINSt7__cxx1112basic_stringIcSt11char_traitsIcESaIcEEESaIS5_EED5Ev,comdat
	.size	_ZNSt12_Vector_baseINSt7__cxx1112basic_stringIcSt11char_traitsIcESaIcEEESaIS5_EED2Ev, .-_ZNSt12_Vector_baseINSt7__cxx1112basic_stringIcSt11char_traitsIcESaIcEEESaIS5_EED2Ev
	.weak	_ZNSt12_Vector_baseINSt7__cxx1112basic_stringIcSt11char_traitsIcESaIcEEESaIS5_EED1Ev
	.set	_ZNSt12_Vector_baseINSt7__cxx1112basic_stringIcSt11char_traitsIcESaIcEEESaIS5_EED1Ev,_ZNSt12_Vector_baseINSt7__cxx1112basic_stringIcSt11char_traitsIcESaIcEEESaIS5_EED2Ev
	.section	.text._ZNSt6vectorINSt7__cxx1112basic_stringIcSt11char_traitsIcESaIcEEESaIS5_EE21_M_default_initializeEm,"axG",@progbits,_ZNSt6vectorINSt7__cxx1112basic_stringIcSt11char_traitsIcESaIcEEESaIS5_EE21_M_default_initializeEm,comdat
	.align	2
	.weak	_ZNSt6vectorINSt7__cxx1112basic_stringIcSt11char_traitsIcESaIcEEESaIS5_EE21_M_default_initializeEm
	.type	_ZNSt6vectorINSt7__cxx1112basic_stringIcSt11char_traitsIcESaIcEEESaIS5_EE21_M_default_initializeEm, %function
_ZNSt6vectorINSt7__cxx1112basic_stringIcSt11char_traitsIcESaIcEEESaIS5_EE21_M_default_initializeEm:
.LFB6090:
	.cfi_startproc
	stp	x29, x30, [sp, -48]!
	.cfi_def_cfa_offset 48
	.cfi_offset 29, -48
	.cfi_offset 30, -40
	mov	x29, sp
	str	x19, [sp, 16]
	.cfi_offset 19, -32
	str	x0, [sp, 40]
	str	x1, [sp, 32]
	ldr	x0, [sp, 40]
	ldr	x19, [x0]
	ldr	x0, [sp, 40]
	bl	_ZNSt12_Vector_baseINSt7__cxx1112basic_stringIcSt11char_traitsIcESaIcEEESaIS5_EE19_M_get_Tp_allocatorEv
	mov	x2, x0
	ldr	x1, [sp, 32]
	mov	x0, x19
	bl	_ZSt27__uninitialized_default_n_aIPNSt7__cxx1112basic_stringIcSt11char_traitsIcESaIcEEEmS5_ET_S7_T0_RSaIT1_E
	mov	x1, x0
	ldr	x0, [sp, 40]
	str	x1, [x0, 8]
	nop
	ldr	x19, [sp, 16]
	ldp	x29, x30, [sp], 48
	.cfi_restore 30
	.cfi_restore 29
	.cfi_restore 19
	.cfi_def_cfa_offset 0
	ret
	.cfi_endproc
.LFE6090:
	.size	_ZNSt6vectorINSt7__cxx1112basic_stringIcSt11char_traitsIcESaIcEEESaIS5_EE21_M_default_initializeEm, .-_ZNSt6vectorINSt7__cxx1112basic_stringIcSt11char_traitsIcESaIcEEESaIS5_EE21_M_default_initializeEm
	.section	.text._ZNSt12_Vector_baseINSt7__cxx1112basic_stringIcSt11char_traitsIcESaIcEEESaIS5_EE19_M_get_Tp_allocatorEv,"axG",@progbits,_ZNSt12_Vector_baseINSt7__cxx1112basic_stringIcSt11char_traitsIcESaIcEEESaIS5_EE19_M_get_Tp_allocatorEv,comdat
	.align	2
	.weak	_ZNSt12_Vector_baseINSt7__cxx1112basic_stringIcSt11char_traitsIcESaIcEEESaIS5_EE19_M_get_Tp_allocatorEv
	.type	_ZNSt12_Vector_baseINSt7__cxx1112basic_stringIcSt11char_traitsIcESaIcEEESaIS5_EE19_M_get_Tp_allocatorEv, %function
_ZNSt12_Vector_baseINSt7__cxx1112basic_stringIcSt11char_traitsIcESaIcEEESaIS5_EE19_M_get_Tp_allocatorEv:
.LFB6091:
	.cfi_startproc
	sub	sp, sp, #16
	.cfi_def_cfa_offset 16
	str	x0, [sp, 8]
	ldr	x0, [sp, 8]
	add	sp, sp, 16
	.cfi_def_cfa_offset 0
	ret
	.cfi_endproc
.LFE6091:
	.size	_ZNSt12_Vector_baseINSt7__cxx1112basic_stringIcSt11char_traitsIcESaIcEEESaIS5_EE19_M_get_Tp_allocatorEv, .-_ZNSt12_Vector_baseINSt7__cxx1112basic_stringIcSt11char_traitsIcESaIcEEESaIS5_EE19_M_get_Tp_allocatorEv
	.section	.text._ZSt8_DestroyIPNSt7__cxx1112basic_stringIcSt11char_traitsIcESaIcEEES5_EvT_S7_RSaIT0_E,"axG",@progbits,_ZSt8_DestroyIPNSt7__cxx1112basic_stringIcSt11char_traitsIcESaIcEEES5_EvT_S7_RSaIT0_E,comdat
	.align	2
	.weak	_ZSt8_DestroyIPNSt7__cxx1112basic_stringIcSt11char_traitsIcESaIcEEES5_EvT_S7_RSaIT0_E
	.type	_ZSt8_DestroyIPNSt7__cxx1112basic_stringIcSt11char_traitsIcESaIcEEES5_EvT_S7_RSaIT0_E, %function
_ZSt8_DestroyIPNSt7__cxx1112basic_stringIcSt11char_traitsIcESaIcEEES5_EvT_S7_RSaIT0_E:
.LFB6092:
	.cfi_startproc
	stp	x29, x30, [sp, -48]!
	.cfi_def_cfa_offset 48
	.cfi_offset 29, -48
	.cfi_offset 30, -40
	mov	x29, sp
	str	x0, [sp, 40]
	str	x1, [sp, 32]
	str	x2, [sp, 24]
	ldr	x1, [sp, 32]
	ldr	x0, [sp, 40]
	bl	_ZSt8_DestroyIPNSt7__cxx1112basic_stringIcSt11char_traitsIcESaIcEEEEvT_S7_
	nop
	ldp	x29, x30, [sp], 48
	.cfi_restore 30
	.cfi_restore 29
	.cfi_def_cfa_offset 0
	ret
	.cfi_endproc
.LFE6092:
	.size	_ZSt8_DestroyIPNSt7__cxx1112basic_stringIcSt11char_traitsIcESaIcEEES5_EvT_S7_RSaIT0_E, .-_ZSt8_DestroyIPNSt7__cxx1112basic_stringIcSt11char_traitsIcESaIcEEES5_EvT_S7_RSaIT0_E
	.section	.text._ZNSt10_HashtableIcSt4pairIKciESaIS2_ENSt8__detail10_Select1stESt8equal_toIcESt4hashIcENS4_18_Mod_range_hashingENS4_20_Default_ranged_hashENS4_20_Prime_rehash_policyENS4_17_Hashtable_traitsILb0ELb0ELb1EEEE5beginEv,"axG",@progbits,_ZNSt10_HashtableIcSt4pairIKciESaIS2_ENSt8__detail10_Select1stESt8equal_toIcESt4hashIcENS4_18_Mod_range_hashingENS4_20_Default_ranged_hashENS4_20_Prime_rehash_policyENS4_17_Hashtable_traitsILb0ELb0ELb1EEEE5beginEv,comdat
	.align	2
	.weak	_ZNSt10_HashtableIcSt4pairIKciESaIS2_ENSt8__detail10_Select1stESt8equal_toIcESt4hashIcENS4_18_Mod_range_hashingENS4_20_Default_ranged_hashENS4_20_Prime_rehash_policyENS4_17_Hashtable_traitsILb0ELb0ELb1EEEE5beginEv
	.type	_ZNSt10_HashtableIcSt4pairIKciESaIS2_ENSt8__detail10_Select1stESt8equal_toIcESt4hashIcENS4_18_Mod_range_hashingENS4_20_Default_ranged_hashENS4_20_Prime_rehash_policyENS4_17_Hashtable_traitsILb0ELb0ELb1EEEE5beginEv, %function
_ZNSt10_HashtableIcSt4pairIKciESaIS2_ENSt8__detail10_Select1stESt8equal_toIcESt4hashIcENS4_18_Mod_range_hashingENS4_20_Default_ranged_hashENS4_20_Prime_rehash_policyENS4_17_Hashtable_traitsILb0ELb0ELb1EEEE5beginEv:
.LFB6093:
	.cfi_startproc
	stp	x29, x30, [sp, -48]!
	.cfi_def_cfa_offset 48
	.cfi_offset 29, -48
	.cfi_offset 30, -40
	mov	x29, sp
	str	x0, [sp, 24]
	adrp	x0, :got:__stack_chk_guard
	ldr	x0, [x0, #:got_lo12:__stack_chk_guard]
	ldr	x1, [x0]
	str	x1, [sp, 40]
	mov	x1, 0
	ldr	x0, [sp, 24]
	bl	_ZNKSt10_HashtableIcSt4pairIKciESaIS2_ENSt8__detail10_Select1stESt8equal_toIcESt4hashIcENS4_18_Mod_range_hashingENS4_20_Default_ranged_hashENS4_20_Prime_rehash_policyENS4_17_Hashtable_traitsILb0ELb0ELb1EEEE8_M_beginEv
	mov	x1, x0
	add	x0, sp, 32
	bl	_ZNSt8__detail14_Node_iteratorISt4pairIKciELb0ELb0EEC1EPNS_10_Hash_nodeIS3_Lb0EEE
	ldr	x0, [sp, 32]
	mov	x1, x0
	adrp	x0, :got:__stack_chk_guard
	ldr	x0, [x0, #:got_lo12:__stack_chk_guard]
	ldr	x3, [sp, 40]
	ldr	x2, [x0]
	subs	x3, x3, x2
	mov	x2, 0
	beq	.L294
	bl	__stack_chk_fail
.L294:
	mov	x0, x1
	ldp	x29, x30, [sp], 48
	.cfi_restore 30
	.cfi_restore 29
	.cfi_def_cfa_offset 0
	ret
	.cfi_endproc
.LFE6093:
	.size	_ZNSt10_HashtableIcSt4pairIKciESaIS2_ENSt8__detail10_Select1stESt8equal_toIcESt4hashIcENS4_18_Mod_range_hashingENS4_20_Default_ranged_hashENS4_20_Prime_rehash_policyENS4_17_Hashtable_traitsILb0ELb0ELb1EEEE5beginEv, .-_ZNSt10_HashtableIcSt4pairIKciESaIS2_ENSt8__detail10_Select1stESt8equal_toIcESt4hashIcENS4_18_Mod_range_hashingENS4_20_Default_ranged_hashENS4_20_Prime_rehash_policyENS4_17_Hashtable_traitsILb0ELb0ELb1EEEE5beginEv
	.section	.text._ZNSt10_HashtableIcSt4pairIKciESaIS2_ENSt8__detail10_Select1stESt8equal_toIcESt4hashIcENS4_18_Mod_range_hashingENS4_20_Default_ranged_hashENS4_20_Prime_rehash_policyENS4_17_Hashtable_traitsILb0ELb0ELb1EEEE3endEv,"axG",@progbits,_ZNSt10_HashtableIcSt4pairIKciESaIS2_ENSt8__detail10_Select1stESt8equal_toIcESt4hashIcENS4_18_Mod_range_hashingENS4_20_Default_ranged_hashENS4_20_Prime_rehash_policyENS4_17_Hashtable_traitsILb0ELb0ELb1EEEE3endEv,comdat
	.align	2
	.weak	_ZNSt10_HashtableIcSt4pairIKciESaIS2_ENSt8__detail10_Select1stESt8equal_toIcESt4hashIcENS4_18_Mod_range_hashingENS4_20_Default_ranged_hashENS4_20_Prime_rehash_policyENS4_17_Hashtable_traitsILb0ELb0ELb1EEEE3endEv
	.type	_ZNSt10_HashtableIcSt4pairIKciESaIS2_ENSt8__detail10_Select1stESt8equal_toIcESt4hashIcENS4_18_Mod_range_hashingENS4_20_Default_ranged_hashENS4_20_Prime_rehash_policyENS4_17_Hashtable_traitsILb0ELb0ELb1EEEE3endEv, %function
_ZNSt10_HashtableIcSt4pairIKciESaIS2_ENSt8__detail10_Select1stESt8equal_toIcESt4hashIcENS4_18_Mod_range_hashingENS4_20_Default_ranged_hashENS4_20_Prime_rehash_policyENS4_17_Hashtable_traitsILb0ELb0ELb1EEEE3endEv:
.LFB6094:
	.cfi_startproc
	stp	x29, x30, [sp, -48]!
	.cfi_def_cfa_offset 48
	.cfi_offset 29, -48
	.cfi_offset 30, -40
	mov	x29, sp
	str	x0, [sp, 24]
	adrp	x0, :got:__stack_chk_guard
	ldr	x0, [x0, #:got_lo12:__stack_chk_guard]
	ldr	x1, [x0]
	str	x1, [sp, 40]
	mov	x1, 0
	add	x0, sp, 32
	mov	x1, 0
	bl	_ZNSt8__detail14_Node_iteratorISt4pairIKciELb0ELb0EEC1EPNS_10_Hash_nodeIS3_Lb0EEE
	ldr	x0, [sp, 32]
	mov	x1, x0
	adrp	x0, :got:__stack_chk_guard
	ldr	x0, [x0, #:got_lo12:__stack_chk_guard]
	ldr	x3, [sp, 40]
	ldr	x2, [x0]
	subs	x3, x3, x2
	mov	x2, 0
	beq	.L297
	bl	__stack_chk_fail
.L297:
	mov	x0, x1
	ldp	x29, x30, [sp], 48
	.cfi_restore 30
	.cfi_restore 29
	.cfi_def_cfa_offset 0
	ret
	.cfi_endproc
.LFE6094:
	.size	_ZNSt10_HashtableIcSt4pairIKciESaIS2_ENSt8__detail10_Select1stESt8equal_toIcESt4hashIcENS4_18_Mod_range_hashingENS4_20_Default_ranged_hashENS4_20_Prime_rehash_policyENS4_17_Hashtable_traitsILb0ELb0ELb1EEEE3endEv, .-_ZNSt10_HashtableIcSt4pairIKciESaIS2_ENSt8__detail10_Select1stESt8equal_toIcESt4hashIcENS4_18_Mod_range_hashingENS4_20_Default_ranged_hashENS4_20_Prime_rehash_policyENS4_17_Hashtable_traitsILb0ELb0ELb1EEEE3endEv
	.section	.text._ZNSt8__detail19_Node_iterator_baseISt4pairIKciELb0EE7_M_incrEv,"axG",@progbits,_ZNSt8__detail19_Node_iterator_baseISt4pairIKciELb0EE7_M_incrEv,comdat
	.align	2
	.weak	_ZNSt8__detail19_Node_iterator_baseISt4pairIKciELb0EE7_M_incrEv
	.type	_ZNSt8__detail19_Node_iterator_baseISt4pairIKciELb0EE7_M_incrEv, %function
_ZNSt8__detail19_Node_iterator_baseISt4pairIKciELb0EE7_M_incrEv:
.LFB6095:
	.cfi_startproc
	stp	x29, x30, [sp, -32]!
	.cfi_def_cfa_offset 32
	.cfi_offset 29, -32
	.cfi_offset 30, -24
	mov	x29, sp
	str	x0, [sp, 24]
	ldr	x0, [sp, 24]
	ldr	x0, [x0]
	bl	_ZNKSt8__detail10_Hash_nodeISt4pairIKciELb0EE7_M_nextEv
	mov	x1, x0
	ldr	x0, [sp, 24]
	str	x1, [x0]
	nop
	ldp	x29, x30, [sp], 32
	.cfi_restore 30
	.cfi_restore 29
	.cfi_def_cfa_offset 0
	ret
	.cfi_endproc
.LFE6095:
	.size	_ZNSt8__detail19_Node_iterator_baseISt4pairIKciELb0EE7_M_incrEv, .-_ZNSt8__detail19_Node_iterator_baseISt4pairIKciELb0EE7_M_incrEv
	.section	.text._ZNSt8__detail21_Hash_node_value_baseISt4pairIKciEE4_M_vEv,"axG",@progbits,_ZNSt8__detail21_Hash_node_value_baseISt4pairIKciEE4_M_vEv,comdat
	.align	2
	.weak	_ZNSt8__detail21_Hash_node_value_baseISt4pairIKciEE4_M_vEv
	.type	_ZNSt8__detail21_Hash_node_value_baseISt4pairIKciEE4_M_vEv, %function
_ZNSt8__detail21_Hash_node_value_baseISt4pairIKciEE4_M_vEv:
.LFB6096:
	.cfi_startproc
	stp	x29, x30, [sp, -32]!
	.cfi_def_cfa_offset 32
	.cfi_offset 29, -32
	.cfi_offset 30, -24
	mov	x29, sp
	str	x0, [sp, 24]
	ldr	x0, [sp, 24]
	bl	_ZNSt8__detail21_Hash_node_value_baseISt4pairIKciEE9_M_valptrEv
	ldp	x29, x30, [sp], 32
	.cfi_restore 30
	.cfi_restore 29
	.cfi_def_cfa_offset 0
	ret
	.cfi_endproc
.LFE6096:
	.size	_ZNSt8__detail21_Hash_node_value_baseISt4pairIKciEE4_M_vEv, .-_ZNSt8__detail21_Hash_node_value_baseISt4pairIKciEE4_M_vEv
	.section	.rodata
	.align	3
.LC27:
	.string	"std::vector<"
	.align	3
.LC28:
	.string	">"
	.section	.text._ZN3dbg13get_type_nameINSt7__cxx1112basic_stringIcSt11char_traitsIcESaIcEEEEES6_NS_8type_tagISt6vectorIT_SaIS9_EEEE,"axG",@progbits,_ZN3dbg13get_type_nameINSt7__cxx1112basic_stringIcSt11char_traitsIcESaIcEEEEES6_NS_8type_tagISt6vectorIT_SaIS9_EEEE,comdat
	.align	2
	.weak	_ZN3dbg13get_type_nameINSt7__cxx1112basic_stringIcSt11char_traitsIcESaIcEEEEES6_NS_8type_tagISt6vectorIT_SaIS9_EEEE
	.type	_ZN3dbg13get_type_nameINSt7__cxx1112basic_stringIcSt11char_traitsIcESaIcEEEEES6_NS_8type_tagISt6vectorIT_SaIS9_EEEE, %function
_ZN3dbg13get_type_nameINSt7__cxx1112basic_stringIcSt11char_traitsIcESaIcEEEEES6_NS_8type_tagISt6vectorIT_SaIS9_EEEE:
.LFB6097:
	.cfi_startproc
	.cfi_personality 0x9b,DW.ref.__gxx_personality_v0
	.cfi_lsda 0x1b,.LLSDA6097
	stp	x29, x30, [sp, -128]!
	.cfi_def_cfa_offset 128
	.cfi_offset 29, -128
	.cfi_offset 30, -120
	mov	x29, sp
	str	x19, [sp, 16]
	.cfi_offset 19, -112
	mov	x19, x8
	strb	w0, [sp, 40]
	adrp	x0, :got:__stack_chk_guard
	ldr	x0, [x0, #:got_lo12:__stack_chk_guard]
	ldr	x1, [x0]
	str	x1, [sp, 120]
	mov	x1, 0
	add	x0, sp, 56
	mov	x8, x0
.LEHB54:
	bl	_ZN3dbg9type_nameINSt7__cxx1112basic_stringIcSt11char_traitsIcESaIcEEEEES6_v
.LEHE54:
	add	x0, sp, 56
	add	x1, sp, 88
	mov	x8, x1
	mov	x1, x0
	adrp	x0, .LC27
	add	x0, x0, :lo12:.LC27
.LEHB55:
	bl	_ZStplIcSt11char_traitsIcESaIcEENSt7__cxx1112basic_stringIT_T0_T1_EEPKS5_OS8_
.LEHE55:
	add	x2, sp, 88
	mov	x8, x19
	adrp	x0, .LC28
	add	x1, x0, :lo12:.LC28
	mov	x0, x2
.LEHB56:
	bl	_ZStplIcSt11char_traitsIcESaIcEENSt7__cxx1112basic_stringIT_T0_T1_EEOS8_PKS5_
.LEHE56:
	add	x0, sp, 88
	bl	_ZNSt7__cxx1112basic_stringIcSt11char_traitsIcESaIcEED1Ev
	add	x0, sp, 56
	bl	_ZNSt7__cxx1112basic_stringIcSt11char_traitsIcESaIcEED1Ev
	adrp	x0, :got:__stack_chk_guard
	ldr	x0, [x0, #:got_lo12:__stack_chk_guard]
	ldr	x2, [sp, 120]
	ldr	x1, [x0]
	subs	x2, x2, x1
	mov	x1, 0
	beq	.L305
	b	.L308
.L307:
	mov	x19, x0
	add	x0, sp, 88
	bl	_ZNSt7__cxx1112basic_stringIcSt11char_traitsIcESaIcEED1Ev
	b	.L304
.L306:
	mov	x19, x0
.L304:
	add	x0, sp, 56
	bl	_ZNSt7__cxx1112basic_stringIcSt11char_traitsIcESaIcEED1Ev
	mov	x0, x19
.LEHB57:
	bl	_Unwind_Resume
.LEHE57:
.L308:
	bl	__stack_chk_fail
.L305:
	mov	x0, x19
	ldr	x19, [sp, 16]
	ldp	x29, x30, [sp], 128
	.cfi_restore 30
	.cfi_restore 29
	.cfi_restore 19
	.cfi_def_cfa_offset 0
	ret
	.cfi_endproc
.LFE6097:
	.section	.gcc_except_table
.LLSDA6097:
	.byte	0xff
	.byte	0xff
	.byte	0x1
	.uleb128 .LLSDACSE6097-.LLSDACSB6097
.LLSDACSB6097:
	.uleb128 .LEHB54-.LFB6097
	.uleb128 .LEHE54-.LEHB54
	.uleb128 0
	.uleb128 0
	.uleb128 .LEHB55-.LFB6097
	.uleb128 .LEHE55-.LEHB55
	.uleb128 .L306-.LFB6097
	.uleb128 0
	.uleb128 .LEHB56-.LFB6097
	.uleb128 .LEHE56-.LEHB56
	.uleb128 .L307-.LFB6097
	.uleb128 0
	.uleb128 .LEHB57-.LFB6097
	.uleb128 .LEHE57-.LEHB57
	.uleb128 0
	.uleb128 0
.LLSDACSE6097:
	.section	.text._ZN3dbg13get_type_nameINSt7__cxx1112basic_stringIcSt11char_traitsIcESaIcEEEEES6_NS_8type_tagISt6vectorIT_SaIS9_EEEE,"axG",@progbits,_ZN3dbg13get_type_nameINSt7__cxx1112basic_stringIcSt11char_traitsIcESaIcEEEEES6_NS_8type_tagISt6vectorIT_SaIS9_EEEE,comdat
	.size	_ZN3dbg13get_type_nameINSt7__cxx1112basic_stringIcSt11char_traitsIcESaIcEEEEES6_NS_8type_tagISt6vectorIT_SaIS9_EEEE, .-_ZN3dbg13get_type_nameINSt7__cxx1112basic_stringIcSt11char_traitsIcESaIcEEEEES6_NS_8type_tagISt6vectorIT_SaIS9_EEEE
	.section	.text._ZSt7forwardIRSt6vectorINSt7__cxx1112basic_stringIcSt11char_traitsIcESaIcEEESaIS6_EEEOT_RNSt16remove_referenceISA_E4typeE,"axG",@progbits,_ZSt7forwardIRSt6vectorINSt7__cxx1112basic_stringIcSt11char_traitsIcESaIcEEESaIS6_EEEOT_RNSt16remove_referenceISA_E4typeE,comdat
	.align	2
	.weak	_ZSt7forwardIRSt6vectorINSt7__cxx1112basic_stringIcSt11char_traitsIcESaIcEEESaIS6_EEEOT_RNSt16remove_referenceISA_E4typeE
	.type	_ZSt7forwardIRSt6vectorINSt7__cxx1112basic_stringIcSt11char_traitsIcESaIcEEESaIS6_EEEOT_RNSt16remove_referenceISA_E4typeE, %function
_ZSt7forwardIRSt6vectorINSt7__cxx1112basic_stringIcSt11char_traitsIcESaIcEEESaIS6_EEEOT_RNSt16remove_referenceISA_E4typeE:
.LFB6098:
	.cfi_startproc
	sub	sp, sp, #16
	.cfi_def_cfa_offset 16
	str	x0, [sp, 8]
	ldr	x0, [sp, 8]
	add	sp, sp, 16
	.cfi_def_cfa_offset 0
	ret
	.cfi_endproc
.LFE6098:
	.size	_ZSt7forwardIRSt6vectorINSt7__cxx1112basic_stringIcSt11char_traitsIcESaIcEEESaIS6_EEEOT_RNSt16remove_referenceISA_E4typeE, .-_ZSt7forwardIRSt6vectorINSt7__cxx1112basic_stringIcSt11char_traitsIcESaIcEEESaIS6_EEEOT_RNSt16remove_referenceISA_E4typeE
	.section	.text._ZN3dbg11DebugOutput10print_implIRSt6vectorINSt7__cxx1112basic_stringIcSt11char_traitsIcESaIcEEESaIS8_EEEEOT_PKPKcPKS8_SD_,"axG",@progbits,_ZN3dbg11DebugOutput10print_implIRSt6vectorINSt7__cxx1112basic_stringIcSt11char_traitsIcESaIcEEESaIS8_EEEEOT_PKPKcPKS8_SD_,comdat
	.align	2
	.weak	_ZN3dbg11DebugOutput10print_implIRSt6vectorINSt7__cxx1112basic_stringIcSt11char_traitsIcESaIcEEESaIS8_EEEEOT_PKPKcPKS8_SD_
	.type	_ZN3dbg11DebugOutput10print_implIRSt6vectorINSt7__cxx1112basic_stringIcSt11char_traitsIcESaIcEEESaIS8_EEEEOT_PKPKcPKS8_SD_, %function
_ZN3dbg11DebugOutput10print_implIRSt6vectorINSt7__cxx1112basic_stringIcSt11char_traitsIcESaIcEEESaIS8_EEEEOT_PKPKcPKS8_SD_:
.LFB6099:
	.cfi_startproc
	.cfi_personality 0x9b,DW.ref.__gxx_personality_v0
	.cfi_lsda 0x1b,.LLSDA6099
	sub	sp, sp, #912
	.cfi_def_cfa_offset 912
	stp	x29, x30, [sp]
	.cfi_offset 29, -912
	.cfi_offset 30, -904
	mov	x29, sp
	str	x19, [sp, 16]
	.cfi_offset 19, -896
	str	x0, [sp, 56]
	str	x1, [sp, 48]
	str	x2, [sp, 40]
	str	x3, [sp, 32]
	adrp	x0, :got:__stack_chk_guard
	ldr	x0, [x0, #:got_lo12:__stack_chk_guard]
	ldr	x1, [x0]
	str	x1, [sp, 904]
	mov	x1, 0
	ldr	x0, [sp, 32]
	str	x0, [sp, 80]
	add	x0, sp, 120
.LEHB58:
	bl	_ZNSt7__cxx1118basic_stringstreamIcSt11char_traitsIcESaIcEEC1Ev
.LEHE58:
	add	x0, sp, 120
	add	x0, x0, 16
	ldr	x1, [sp, 80]
.LEHB59:
	bl	_ZN3dbg12pretty_printISt6vectorINSt7__cxx1112basic_stringIcSt11char_traitsIcESaIcEEESaIS7_EEEENSt9enable_ifIXsrNS_6detail12is_containerIRKT_EE5valueEbE4typeERSoSF_
	and	w0, w0, 255
	strb	w0, [sp, 79]
	add	x0, sp, 512
	bl	_ZNSt7__cxx1118basic_stringstreamIcSt11char_traitsIcESaIcEEC1Ev
.LEHE59:
	ldr	x0, [sp, 56]
	add	x1, x0, 8
	add	x0, sp, 512
	add	x0, x0, 16
.LEHB60:
	bl	_ZStlsIcSt11char_traitsIcESaIcEERSt13basic_ostreamIT_T0_ES7_RKNSt7__cxx1112basic_stringIS4_S5_T1_EE
	ldrb	w0, [sp, 79]
	cmp	w0, 0
	beq	.L312
	adrp	x0, .LC21
	add	x1, x0, :lo12:.LC21
	ldr	x0, [sp, 56]
	bl	_ZNK3dbg11DebugOutput4ansiEPKc
	mov	x1, x0
	add	x0, sp, 512
	add	x0, x0, 16
	bl	_ZStlsISt11char_traitsIcEERSt13basic_ostreamIcT_ES5_PKc
	mov	x2, x0
	ldr	x0, [sp, 48]
	ldr	x0, [x0]
	mov	x1, x0
	mov	x0, x2
	bl	_ZStlsISt11char_traitsIcEERSt13basic_ostreamIcT_ES5_PKc
	mov	x19, x0
	adrp	x0, .LC9
	add	x1, x0, :lo12:.LC9
	ldr	x0, [sp, 56]
	bl	_ZNK3dbg11DebugOutput4ansiEPKc
	mov	x1, x0
	mov	x0, x19
	bl	_ZStlsISt11char_traitsIcEERSt13basic_ostreamIcT_ES5_PKc
	mov	x2, x0
	adrp	x0, .LC22
	add	x1, x0, :lo12:.LC22
	mov	x0, x2
	bl	_ZStlsISt11char_traitsIcEERSt13basic_ostreamIcT_ES5_PKc
.L312:
	adrp	x0, .LC23
	add	x1, x0, :lo12:.LC23
	ldr	x0, [sp, 56]
	bl	_ZNK3dbg11DebugOutput4ansiEPKc
	mov	x1, x0
	add	x0, sp, 512
	add	x0, x0, 16
	bl	_ZStlsISt11char_traitsIcEERSt13basic_ostreamIcT_ES5_PKc
	mov	x19, x0
	add	x0, sp, 120
	add	x1, sp, 88
	mov	x8, x1
	bl	_ZNKSt7__cxx1118basic_stringstreamIcSt11char_traitsIcESaIcEE3strEv
.LEHE60:
	add	x0, sp, 88
	mov	x1, x0
	mov	x0, x19
.LEHB61:
	bl	_ZStlsIcSt11char_traitsIcESaIcEERSt13basic_ostreamIT_T0_ES7_RKNSt7__cxx1112basic_stringIS4_S5_T1_EE
	mov	x19, x0
	adrp	x0, .LC9
	add	x1, x0, :lo12:.LC9
	ldr	x0, [sp, 56]
	bl	_ZNK3dbg11DebugOutput4ansiEPKc
	mov	x1, x0
	mov	x0, x19
	bl	_ZStlsISt11char_traitsIcEERSt13basic_ostreamIcT_ES5_PKc
.LEHE61:
	add	x0, sp, 88
	bl	_ZNSt7__cxx1112basic_stringIcSt11char_traitsIcESaIcEED1Ev
	ldrb	w0, [sp, 79]
	cmp	w0, 0
	beq	.L313
	add	x0, sp, 512
	add	x2, x0, 16
	adrp	x0, .LC7
	add	x1, x0, :lo12:.LC7
	mov	x0, x2
.LEHB62:
	bl	_ZStlsISt11char_traitsIcEERSt13basic_ostreamIcT_ES5_PKc
	mov	x19, x0
	adrp	x0, .LC24
	add	x1, x0, :lo12:.LC24
	ldr	x0, [sp, 56]
	bl	_ZNK3dbg11DebugOutput4ansiEPKc
	mov	x1, x0
	mov	x0, x19
	bl	_ZStlsISt11char_traitsIcEERSt13basic_ostreamIcT_ES5_PKc
	ldr	x1, [sp, 40]
	bl	_ZStlsIcSt11char_traitsIcESaIcEERSt13basic_ostreamIT_T0_ES7_RKNSt7__cxx1112basic_stringIS4_S5_T1_EE
	mov	x19, x0
	adrp	x0, .LC9
	add	x1, x0, :lo12:.LC9
	ldr	x0, [sp, 56]
	bl	_ZNK3dbg11DebugOutput4ansiEPKc
	mov	x1, x0
	mov	x0, x19
	bl	_ZStlsISt11char_traitsIcEERSt13basic_ostreamIcT_ES5_PKc
	mov	x2, x0
	adrp	x0, .LC25
	add	x1, x0, :lo12:.LC25
	mov	x0, x2
	bl	_ZStlsISt11char_traitsIcEERSt13basic_ostreamIcT_ES5_PKc
.L313:
	add	x0, sp, 512
	add	x2, x0, 16
	adrp	x0, :got:_ZSt4endlIcSt11char_traitsIcEERSt13basic_ostreamIT_T0_ES6_
	ldr	x1, [x0, #:got_lo12:_ZSt4endlIcSt11char_traitsIcEERSt13basic_ostreamIT_T0_ES6_]
	mov	x0, x2
	bl	_ZNSolsEPFRSoS_E
	add	x0, sp, 512
	add	x1, sp, 88
	mov	x8, x1
	bl	_ZNKSt7__cxx1118basic_stringstreamIcSt11char_traitsIcESaIcEE3strEv
.LEHE62:
	add	x0, sp, 88
	mov	x1, x0
	adrp	x0, :got:_ZSt4cerr
	ldr	x0, [x0, #:got_lo12:_ZSt4cerr]
.LEHB63:
	bl	_ZStlsIcSt11char_traitsIcESaIcEERSt13basic_ostreamIT_T0_ES7_RKNSt7__cxx1112basic_stringIS4_S5_T1_EE
.LEHE63:
	add	x0, sp, 88
	bl	_ZNSt7__cxx1112basic_stringIcSt11char_traitsIcESaIcEED1Ev
	ldr	x0, [sp, 32]
	bl	_ZSt7forwardIRSt6vectorINSt7__cxx1112basic_stringIcSt11char_traitsIcESaIcEEESaIS6_EEEOT_RNSt16remove_referenceISA_E4typeE
	mov	x19, x0
	nop
	add	x0, sp, 512
	bl	_ZNSt7__cxx1118basic_stringstreamIcSt11char_traitsIcESaIcEED1Ev
	add	x0, sp, 120
	bl	_ZNSt7__cxx1118basic_stringstreamIcSt11char_traitsIcESaIcEED1Ev
	mov	x1, x19
	adrp	x0, :got:__stack_chk_guard
	ldr	x0, [x0, #:got_lo12:__stack_chk_guard]
	ldr	x3, [sp, 904]
	ldr	x2, [x0]
	subs	x3, x3, x2
	mov	x2, 0
	beq	.L319
	b	.L324
.L322:
	mov	x19, x0
	add	x0, sp, 88
	bl	_ZNSt7__cxx1112basic_stringIcSt11char_traitsIcESaIcEED1Ev
	b	.L316
.L323:
	mov	x19, x0
	add	x0, sp, 88
	bl	_ZNSt7__cxx1112basic_stringIcSt11char_traitsIcESaIcEED1Ev
	b	.L316
.L321:
	mov	x19, x0
.L316:
	add	x0, sp, 512
	bl	_ZNSt7__cxx1118basic_stringstreamIcSt11char_traitsIcESaIcEED1Ev
	b	.L318
.L320:
	mov	x19, x0
.L318:
	add	x0, sp, 120
	bl	_ZNSt7__cxx1118basic_stringstreamIcSt11char_traitsIcESaIcEED1Ev
	mov	x0, x19
.LEHB64:
	bl	_Unwind_Resume
.LEHE64:
.L324:
	bl	__stack_chk_fail
.L319:
	mov	x0, x1
	ldr	x19, [sp, 16]
	ldp	x29, x30, [sp]
	add	sp, sp, 912
	.cfi_restore 29
	.cfi_restore 30
	.cfi_restore 19
	.cfi_def_cfa_offset 0
	ret
	.cfi_endproc
.LFE6099:
	.section	.gcc_except_table
.LLSDA6099:
	.byte	0xff
	.byte	0xff
	.byte	0x1
	.uleb128 .LLSDACSE6099-.LLSDACSB6099
.LLSDACSB6099:
	.uleb128 .LEHB58-.LFB6099
	.uleb128 .LEHE58-.LEHB58
	.uleb128 0
	.uleb128 0
	.uleb128 .LEHB59-.LFB6099
	.uleb128 .LEHE59-.LEHB59
	.uleb128 .L320-.LFB6099
	.uleb128 0
	.uleb128 .LEHB60-.LFB6099
	.uleb128 .LEHE60-.LEHB60
	.uleb128 .L321-.LFB6099
	.uleb128 0
	.uleb128 .LEHB61-.LFB6099
	.uleb128 .LEHE61-.LEHB61
	.uleb128 .L322-.LFB6099
	.uleb128 0
	.uleb128 .LEHB62-.LFB6099
	.uleb128 .LEHE62-.LEHB62
	.uleb128 .L321-.LFB6099
	.uleb128 0
	.uleb128 .LEHB63-.LFB6099
	.uleb128 .LEHE63-.LEHB63
	.uleb128 .L323-.LFB6099
	.uleb128 0
	.uleb128 .LEHB64-.LFB6099
	.uleb128 .LEHE64-.LEHB64
	.uleb128 0
	.uleb128 0
.LLSDACSE6099:
	.section	.text._ZN3dbg11DebugOutput10print_implIRSt6vectorINSt7__cxx1112basic_stringIcSt11char_traitsIcESaIcEEESaIS8_EEEEOT_PKPKcPKS8_SD_,"axG",@progbits,_ZN3dbg11DebugOutput10print_implIRSt6vectorINSt7__cxx1112basic_stringIcSt11char_traitsIcESaIcEEESaIS8_EEEEOT_PKPKcPKS8_SD_,comdat
	.size	_ZN3dbg11DebugOutput10print_implIRSt6vectorINSt7__cxx1112basic_stringIcSt11char_traitsIcESaIcEEESaIS8_EEEEOT_PKPKcPKS8_SD_, .-_ZN3dbg11DebugOutput10print_implIRSt6vectorINSt7__cxx1112basic_stringIcSt11char_traitsIcESaIcEEESaIS8_EEEEOT_PKPKcPKS8_SD_
	.section	.text._ZSt7forwardIRNSt7__cxx1112basic_stringIcSt11char_traitsIcESaIcEEEEOT_RNSt16remove_referenceIS7_E4typeE,"axG",@progbits,_ZSt7forwardIRNSt7__cxx1112basic_stringIcSt11char_traitsIcESaIcEEEEOT_RNSt16remove_referenceIS7_E4typeE,comdat
	.align	2
	.weak	_ZSt7forwardIRNSt7__cxx1112basic_stringIcSt11char_traitsIcESaIcEEEEOT_RNSt16remove_referenceIS7_E4typeE
	.type	_ZSt7forwardIRNSt7__cxx1112basic_stringIcSt11char_traitsIcESaIcEEEEOT_RNSt16remove_referenceIS7_E4typeE, %function
_ZSt7forwardIRNSt7__cxx1112basic_stringIcSt11char_traitsIcESaIcEEEEOT_RNSt16remove_referenceIS7_E4typeE:
.LFB6100:
	.cfi_startproc
	sub	sp, sp, #16
	.cfi_def_cfa_offset 16
	str	x0, [sp, 8]
	ldr	x0, [sp, 8]
	add	sp, sp, 16
	.cfi_def_cfa_offset 0
	ret
	.cfi_endproc
.LFE6100:
	.size	_ZSt7forwardIRNSt7__cxx1112basic_stringIcSt11char_traitsIcESaIcEEEEOT_RNSt16remove_referenceIS7_E4typeE, .-_ZSt7forwardIRNSt7__cxx1112basic_stringIcSt11char_traitsIcESaIcEEEEOT_RNSt16remove_referenceIS7_E4typeE
	.section	.text._ZN3dbg11DebugOutput10print_implIRNSt7__cxx1112basic_stringIcSt11char_traitsIcESaIcEEEEEOT_PKPKcPKS7_SA_,"axG",@progbits,_ZN3dbg11DebugOutput10print_implIRNSt7__cxx1112basic_stringIcSt11char_traitsIcESaIcEEEEEOT_PKPKcPKS7_SA_,comdat
	.align	2
	.weak	_ZN3dbg11DebugOutput10print_implIRNSt7__cxx1112basic_stringIcSt11char_traitsIcESaIcEEEEEOT_PKPKcPKS7_SA_
	.type	_ZN3dbg11DebugOutput10print_implIRNSt7__cxx1112basic_stringIcSt11char_traitsIcESaIcEEEEEOT_PKPKcPKS7_SA_, %function
_ZN3dbg11DebugOutput10print_implIRNSt7__cxx1112basic_stringIcSt11char_traitsIcESaIcEEEEEOT_PKPKcPKS7_SA_:
.LFB6101:
	.cfi_startproc
	.cfi_personality 0x9b,DW.ref.__gxx_personality_v0
	.cfi_lsda 0x1b,.LLSDA6101
	sub	sp, sp, #912
	.cfi_def_cfa_offset 912
	stp	x29, x30, [sp]
	.cfi_offset 29, -912
	.cfi_offset 30, -904
	mov	x29, sp
	str	x19, [sp, 16]
	.cfi_offset 19, -896
	str	x0, [sp, 56]
	str	x1, [sp, 48]
	str	x2, [sp, 40]
	str	x3, [sp, 32]
	adrp	x0, :got:__stack_chk_guard
	ldr	x0, [x0, #:got_lo12:__stack_chk_guard]
	ldr	x1, [x0]
	str	x1, [sp, 904]
	mov	x1, 0
	ldr	x0, [sp, 32]
	str	x0, [sp, 80]
	add	x0, sp, 120
.LEHB65:
	bl	_ZNSt7__cxx1118basic_stringstreamIcSt11char_traitsIcESaIcEEC1Ev
.LEHE65:
	add	x0, sp, 120
	add	x0, x0, 16
	ldr	x1, [sp, 80]
.LEHB66:
	bl	_ZN3dbg12pretty_printERSoRKNSt7__cxx1112basic_stringIcSt11char_traitsIcESaIcEEE
	and	w0, w0, 255
	strb	w0, [sp, 79]
	add	x0, sp, 512
	bl	_ZNSt7__cxx1118basic_stringstreamIcSt11char_traitsIcESaIcEEC1Ev
.LEHE66:
	ldr	x0, [sp, 56]
	add	x1, x0, 8
	add	x0, sp, 512
	add	x0, x0, 16
.LEHB67:
	bl	_ZStlsIcSt11char_traitsIcESaIcEERSt13basic_ostreamIT_T0_ES7_RKNSt7__cxx1112basic_stringIS4_S5_T1_EE
	ldrb	w0, [sp, 79]
	cmp	w0, 0
	beq	.L328
	adrp	x0, .LC21
	add	x1, x0, :lo12:.LC21
	ldr	x0, [sp, 56]
	bl	_ZNK3dbg11DebugOutput4ansiEPKc
	mov	x1, x0
	add	x0, sp, 512
	add	x0, x0, 16
	bl	_ZStlsISt11char_traitsIcEERSt13basic_ostreamIcT_ES5_PKc
	mov	x2, x0
	ldr	x0, [sp, 48]
	ldr	x0, [x0]
	mov	x1, x0
	mov	x0, x2
	bl	_ZStlsISt11char_traitsIcEERSt13basic_ostreamIcT_ES5_PKc
	mov	x19, x0
	adrp	x0, .LC9
	add	x1, x0, :lo12:.LC9
	ldr	x0, [sp, 56]
	bl	_ZNK3dbg11DebugOutput4ansiEPKc
	mov	x1, x0
	mov	x0, x19
	bl	_ZStlsISt11char_traitsIcEERSt13basic_ostreamIcT_ES5_PKc
	mov	x2, x0
	adrp	x0, .LC22
	add	x1, x0, :lo12:.LC22
	mov	x0, x2
	bl	_ZStlsISt11char_traitsIcEERSt13basic_ostreamIcT_ES5_PKc
.L328:
	adrp	x0, .LC23
	add	x1, x0, :lo12:.LC23
	ldr	x0, [sp, 56]
	bl	_ZNK3dbg11DebugOutput4ansiEPKc
	mov	x1, x0
	add	x0, sp, 512
	add	x0, x0, 16
	bl	_ZStlsISt11char_traitsIcEERSt13basic_ostreamIcT_ES5_PKc
	mov	x19, x0
	add	x0, sp, 120
	add	x1, sp, 88
	mov	x8, x1
	bl	_ZNKSt7__cxx1118basic_stringstreamIcSt11char_traitsIcESaIcEE3strEv
.LEHE67:
	add	x0, sp, 88
	mov	x1, x0
	mov	x0, x19
.LEHB68:
	bl	_ZStlsIcSt11char_traitsIcESaIcEERSt13basic_ostreamIT_T0_ES7_RKNSt7__cxx1112basic_stringIS4_S5_T1_EE
	mov	x19, x0
	adrp	x0, .LC9
	add	x1, x0, :lo12:.LC9
	ldr	x0, [sp, 56]
	bl	_ZNK3dbg11DebugOutput4ansiEPKc
	mov	x1, x0
	mov	x0, x19
	bl	_ZStlsISt11char_traitsIcEERSt13basic_ostreamIcT_ES5_PKc
.LEHE68:
	add	x0, sp, 88
	bl	_ZNSt7__cxx1112basic_stringIcSt11char_traitsIcESaIcEED1Ev
	ldrb	w0, [sp, 79]
	cmp	w0, 0
	beq	.L329
	add	x0, sp, 512
	add	x2, x0, 16
	adrp	x0, .LC7
	add	x1, x0, :lo12:.LC7
	mov	x0, x2
.LEHB69:
	bl	_ZStlsISt11char_traitsIcEERSt13basic_ostreamIcT_ES5_PKc
	mov	x19, x0
	adrp	x0, .LC24
	add	x1, x0, :lo12:.LC24
	ldr	x0, [sp, 56]
	bl	_ZNK3dbg11DebugOutput4ansiEPKc
	mov	x1, x0
	mov	x0, x19
	bl	_ZStlsISt11char_traitsIcEERSt13basic_ostreamIcT_ES5_PKc
	ldr	x1, [sp, 40]
	bl	_ZStlsIcSt11char_traitsIcESaIcEERSt13basic_ostreamIT_T0_ES7_RKNSt7__cxx1112basic_stringIS4_S5_T1_EE
	mov	x19, x0
	adrp	x0, .LC9
	add	x1, x0, :lo12:.LC9
	ldr	x0, [sp, 56]
	bl	_ZNK3dbg11DebugOutput4ansiEPKc
	mov	x1, x0
	mov	x0, x19
	bl	_ZStlsISt11char_traitsIcEERSt13basic_ostreamIcT_ES5_PKc
	mov	x2, x0
	adrp	x0, .LC25
	add	x1, x0, :lo12:.LC25
	mov	x0, x2
	bl	_ZStlsISt11char_traitsIcEERSt13basic_ostreamIcT_ES5_PKc
.L329:
	add	x0, sp, 512
	add	x2, x0, 16
	adrp	x0, :got:_ZSt4endlIcSt11char_traitsIcEERSt13basic_ostreamIT_T0_ES6_
	ldr	x1, [x0, #:got_lo12:_ZSt4endlIcSt11char_traitsIcEERSt13basic_ostreamIT_T0_ES6_]
	mov	x0, x2
	bl	_ZNSolsEPFRSoS_E
	add	x0, sp, 512
	add	x1, sp, 88
	mov	x8, x1
	bl	_ZNKSt7__cxx1118basic_stringstreamIcSt11char_traitsIcESaIcEE3strEv
.LEHE69:
	add	x0, sp, 88
	mov	x1, x0
	adrp	x0, :got:_ZSt4cerr
	ldr	x0, [x0, #:got_lo12:_ZSt4cerr]
.LEHB70:
	bl	_ZStlsIcSt11char_traitsIcESaIcEERSt13basic_ostreamIT_T0_ES7_RKNSt7__cxx1112basic_stringIS4_S5_T1_EE
.LEHE70:
	add	x0, sp, 88
	bl	_ZNSt7__cxx1112basic_stringIcSt11char_traitsIcESaIcEED1Ev
	ldr	x0, [sp, 32]
	bl	_ZSt7forwardIRNSt7__cxx1112basic_stringIcSt11char_traitsIcESaIcEEEEOT_RNSt16remove_referenceIS7_E4typeE
	mov	x19, x0
	nop
	add	x0, sp, 512
	bl	_ZNSt7__cxx1118basic_stringstreamIcSt11char_traitsIcESaIcEED1Ev
	add	x0, sp, 120
	bl	_ZNSt7__cxx1118basic_stringstreamIcSt11char_traitsIcESaIcEED1Ev
	mov	x1, x19
	adrp	x0, :got:__stack_chk_guard
	ldr	x0, [x0, #:got_lo12:__stack_chk_guard]
	ldr	x3, [sp, 904]
	ldr	x2, [x0]
	subs	x3, x3, x2
	mov	x2, 0
	beq	.L335
	b	.L340
.L338:
	mov	x19, x0
	add	x0, sp, 88
	bl	_ZNSt7__cxx1112basic_stringIcSt11char_traitsIcESaIcEED1Ev
	b	.L332
.L339:
	mov	x19, x0
	add	x0, sp, 88
	bl	_ZNSt7__cxx1112basic_stringIcSt11char_traitsIcESaIcEED1Ev
	b	.L332
.L337:
	mov	x19, x0
.L332:
	add	x0, sp, 512
	bl	_ZNSt7__cxx1118basic_stringstreamIcSt11char_traitsIcESaIcEED1Ev
	b	.L334
.L336:
	mov	x19, x0
.L334:
	add	x0, sp, 120
	bl	_ZNSt7__cxx1118basic_stringstreamIcSt11char_traitsIcESaIcEED1Ev
	mov	x0, x19
.LEHB71:
	bl	_Unwind_Resume
.LEHE71:
.L340:
	bl	__stack_chk_fail
.L335:
	mov	x0, x1
	ldr	x19, [sp, 16]
	ldp	x29, x30, [sp]
	add	sp, sp, 912
	.cfi_restore 29
	.cfi_restore 30
	.cfi_restore 19
	.cfi_def_cfa_offset 0
	ret
	.cfi_endproc
.LFE6101:
	.section	.gcc_except_table
.LLSDA6101:
	.byte	0xff
	.byte	0xff
	.byte	0x1
	.uleb128 .LLSDACSE6101-.LLSDACSB6101
.LLSDACSB6101:
	.uleb128 .LEHB65-.LFB6101
	.uleb128 .LEHE65-.LEHB65
	.uleb128 0
	.uleb128 0
	.uleb128 .LEHB66-.LFB6101
	.uleb128 .LEHE66-.LEHB66
	.uleb128 .L336-.LFB6101
	.uleb128 0
	.uleb128 .LEHB67-.LFB6101
	.uleb128 .LEHE67-.LEHB67
	.uleb128 .L337-.LFB6101
	.uleb128 0
	.uleb128 .LEHB68-.LFB6101
	.uleb128 .LEHE68-.LEHB68
	.uleb128 .L338-.LFB6101
	.uleb128 0
	.uleb128 .LEHB69-.LFB6101
	.uleb128 .LEHE69-.LEHB69
	.uleb128 .L337-.LFB6101
	.uleb128 0
	.uleb128 .LEHB70-.LFB6101
	.uleb128 .LEHE70-.LEHB70
	.uleb128 .L339-.LFB6101
	.uleb128 0
	.uleb128 .LEHB71-.LFB6101
	.uleb128 .LEHE71-.LEHB71
	.uleb128 0
	.uleb128 0
.LLSDACSE6101:
	.section	.text._ZN3dbg11DebugOutput10print_implIRNSt7__cxx1112basic_stringIcSt11char_traitsIcESaIcEEEEEOT_PKPKcPKS7_SA_,"axG",@progbits,_ZN3dbg11DebugOutput10print_implIRNSt7__cxx1112basic_stringIcSt11char_traitsIcESaIcEEEEEOT_PKPKcPKS7_SA_,comdat
	.size	_ZN3dbg11DebugOutput10print_implIRNSt7__cxx1112basic_stringIcSt11char_traitsIcESaIcEEEEEOT_PKPKcPKS7_SA_, .-_ZN3dbg11DebugOutput10print_implIRNSt7__cxx1112basic_stringIcSt11char_traitsIcESaIcEEEEEOT_PKPKcPKS7_SA_
	.section	.text._ZN9__gnu_cxx17__is_null_pointerIKcEEbPT_,"axG",@progbits,_ZN9__gnu_cxx17__is_null_pointerIKcEEbPT_,comdat
	.align	2
	.weak	_ZN9__gnu_cxx17__is_null_pointerIKcEEbPT_
	.type	_ZN9__gnu_cxx17__is_null_pointerIKcEEbPT_, %function
_ZN9__gnu_cxx17__is_null_pointerIKcEEbPT_:
.LFB6138:
	.cfi_startproc
	sub	sp, sp, #16
	.cfi_def_cfa_offset 16
	str	x0, [sp, 8]
	ldr	x0, [sp, 8]
	cmp	x0, 0
	cset	w0, eq
	and	w0, w0, 255
	add	sp, sp, 16
	.cfi_def_cfa_offset 0
	ret
	.cfi_endproc
.LFE6138:
	.size	_ZN9__gnu_cxx17__is_null_pointerIKcEEbPT_, .-_ZN9__gnu_cxx17__is_null_pointerIKcEEbPT_
	.section	.text._ZSt19__iterator_categoryIPKcENSt15iterator_traitsIT_E17iterator_categoryERKS3_,"axG",@progbits,_ZSt19__iterator_categoryIPKcENSt15iterator_traitsIT_E17iterator_categoryERKS3_,comdat
	.align	2
	.weak	_ZSt19__iterator_categoryIPKcENSt15iterator_traitsIT_E17iterator_categoryERKS3_
	.type	_ZSt19__iterator_categoryIPKcENSt15iterator_traitsIT_E17iterator_categoryERKS3_, %function
_ZSt19__iterator_categoryIPKcENSt15iterator_traitsIT_E17iterator_categoryERKS3_:
.LFB6139:
	.cfi_startproc
	sub	sp, sp, #16
	.cfi_def_cfa_offset 16
	str	x0, [sp, 8]
	mov	w0, w1
	add	sp, sp, 16
	.cfi_def_cfa_offset 0
	ret
	.cfi_endproc
.LFE6139:
	.size	_ZSt19__iterator_categoryIPKcENSt15iterator_traitsIT_E17iterator_categoryERKS3_, .-_ZSt19__iterator_categoryIPKcENSt15iterator_traitsIT_E17iterator_categoryERKS3_
	.section	.text._ZSt10__distanceIPKcENSt15iterator_traitsIT_E15difference_typeES3_S3_St26random_access_iterator_tag,"axG",@progbits,_ZSt10__distanceIPKcENSt15iterator_traitsIT_E15difference_typeES3_S3_St26random_access_iterator_tag,comdat
	.align	2
	.weak	_ZSt10__distanceIPKcENSt15iterator_traitsIT_E15difference_typeES3_S3_St26random_access_iterator_tag
	.type	_ZSt10__distanceIPKcENSt15iterator_traitsIT_E15difference_typeES3_S3_St26random_access_iterator_tag, %function
_ZSt10__distanceIPKcENSt15iterator_traitsIT_E15difference_typeES3_S3_St26random_access_iterator_tag:
.LFB6140:
	.cfi_startproc
	sub	sp, sp, #32
	.cfi_def_cfa_offset 32
	str	x0, [sp, 24]
	str	x1, [sp, 16]
	strb	w2, [sp, 8]
	ldr	x1, [sp, 16]
	ldr	x0, [sp, 24]
	sub	x0, x1, x0
	add	sp, sp, 32
	.cfi_def_cfa_offset 0
	ret
	.cfi_endproc
.LFE6140:
	.size	_ZSt10__distanceIPKcENSt15iterator_traitsIT_E15difference_typeES3_S3_St26random_access_iterator_tag, .-_ZSt10__distanceIPKcENSt15iterator_traitsIT_E15difference_typeES3_S3_St26random_access_iterator_tag
	.section	.text._ZN9__gnu_cxx13new_allocatorINSt8__detail10_Hash_nodeISt4pairIKciELb0EEEEC2Ev,"axG",@progbits,_ZN9__gnu_cxx13new_allocatorINSt8__detail10_Hash_nodeISt4pairIKciELb0EEEEC5Ev,comdat
	.align	2
	.weak	_ZN9__gnu_cxx13new_allocatorINSt8__detail10_Hash_nodeISt4pairIKciELb0EEEEC2Ev
	.type	_ZN9__gnu_cxx13new_allocatorINSt8__detail10_Hash_nodeISt4pairIKciELb0EEEEC2Ev, %function
_ZN9__gnu_cxx13new_allocatorINSt8__detail10_Hash_nodeISt4pairIKciELb0EEEEC2Ev:
.LFB6179:
	.cfi_startproc
	sub	sp, sp, #16
	.cfi_def_cfa_offset 16
	str	x0, [sp, 8]
	nop
	add	sp, sp, 16
	.cfi_def_cfa_offset 0
	ret
	.cfi_endproc
.LFE6179:
	.size	_ZN9__gnu_cxx13new_allocatorINSt8__detail10_Hash_nodeISt4pairIKciELb0EEEEC2Ev, .-_ZN9__gnu_cxx13new_allocatorINSt8__detail10_Hash_nodeISt4pairIKciELb0EEEEC2Ev
	.weak	_ZN9__gnu_cxx13new_allocatorINSt8__detail10_Hash_nodeISt4pairIKciELb0EEEEC1Ev
	.set	_ZN9__gnu_cxx13new_allocatorINSt8__detail10_Hash_nodeISt4pairIKciELb0EEEEC1Ev,_ZN9__gnu_cxx13new_allocatorINSt8__detail10_Hash_nodeISt4pairIKciELb0EEEEC2Ev
	.section	.text._ZNKSt10_HashtableIcSt4pairIKciESaIS2_ENSt8__detail10_Select1stESt8equal_toIcESt4hashIcENS4_18_Mod_range_hashingENS4_20_Default_ranged_hashENS4_20_Prime_rehash_policyENS4_17_Hashtable_traitsILb0ELb0ELb1EEEE8_M_beginEv,"axG",@progbits,_ZNKSt10_HashtableIcSt4pairIKciESaIS2_ENSt8__detail10_Select1stESt8equal_toIcESt4hashIcENS4_18_Mod_range_hashingENS4_20_Default_ranged_hashENS4_20_Prime_rehash_policyENS4_17_Hashtable_traitsILb0ELb0ELb1EEEE8_M_beginEv,comdat
	.align	2
	.weak	_ZNKSt10_HashtableIcSt4pairIKciESaIS2_ENSt8__detail10_Select1stESt8equal_toIcESt4hashIcENS4_18_Mod_range_hashingENS4_20_Default_ranged_hashENS4_20_Prime_rehash_policyENS4_17_Hashtable_traitsILb0ELb0ELb1EEEE8_M_beginEv
	.type	_ZNKSt10_HashtableIcSt4pairIKciESaIS2_ENSt8__detail10_Select1stESt8equal_toIcESt4hashIcENS4_18_Mod_range_hashingENS4_20_Default_ranged_hashENS4_20_Prime_rehash_policyENS4_17_Hashtable_traitsILb0ELb0ELb1EEEE8_M_beginEv, %function
_ZNKSt10_HashtableIcSt4pairIKciESaIS2_ENSt8__detail10_Select1stESt8equal_toIcESt4hashIcENS4_18_Mod_range_hashingENS4_20_Default_ranged_hashENS4_20_Prime_rehash_policyENS4_17_Hashtable_traitsILb0ELb0ELb1EEEE8_M_beginEv:
.LFB6181:
	.cfi_startproc
	sub	sp, sp, #16
	.cfi_def_cfa_offset 16
	str	x0, [sp, 8]
	ldr	x0, [sp, 8]
	ldr	x0, [x0, 16]
	add	sp, sp, 16
	.cfi_def_cfa_offset 0
	ret
	.cfi_endproc
.LFE6181:
	.size	_ZNKSt10_HashtableIcSt4pairIKciESaIS2_ENSt8__detail10_Select1stESt8equal_toIcESt4hashIcENS4_18_Mod_range_hashingENS4_20_Default_ranged_hashENS4_20_Prime_rehash_policyENS4_17_Hashtable_traitsILb0ELb0ELb1EEEE8_M_beginEv, .-_ZNKSt10_HashtableIcSt4pairIKciESaIS2_ENSt8__detail10_Select1stESt8equal_toIcESt4hashIcENS4_18_Mod_range_hashingENS4_20_Default_ranged_hashENS4_20_Prime_rehash_policyENS4_17_Hashtable_traitsILb0ELb0ELb1EEEE8_M_beginEv
	.section	.text._ZNSt8__detail16_Hashtable_allocISaINS_10_Hash_nodeISt4pairIKciELb0EEEEE19_M_deallocate_nodesEPS5_,"axG",@progbits,_ZNSt8__detail16_Hashtable_allocISaINS_10_Hash_nodeISt4pairIKciELb0EEEEE19_M_deallocate_nodesEPS5_,comdat
	.align	2
	.weak	_ZNSt8__detail16_Hashtable_allocISaINS_10_Hash_nodeISt4pairIKciELb0EEEEE19_M_deallocate_nodesEPS5_
	.type	_ZNSt8__detail16_Hashtable_allocISaINS_10_Hash_nodeISt4pairIKciELb0EEEEE19_M_deallocate_nodesEPS5_, %function
_ZNSt8__detail16_Hashtable_allocISaINS_10_Hash_nodeISt4pairIKciELb0EEEEE19_M_deallocate_nodesEPS5_:
.LFB6182:
	.cfi_startproc
	stp	x29, x30, [sp, -48]!
	.cfi_def_cfa_offset 48
	.cfi_offset 29, -48
	.cfi_offset 30, -40
	mov	x29, sp
	str	x0, [sp, 24]
	str	x1, [sp, 16]
	b	.L351
.L352:
	ldr	x0, [sp, 16]
	str	x0, [sp, 40]
	ldr	x0, [sp, 16]
	bl	_ZNKSt8__detail10_Hash_nodeISt4pairIKciELb0EE7_M_nextEv
	str	x0, [sp, 16]
	ldr	x1, [sp, 40]
	ldr	x0, [sp, 24]
	bl	_ZNSt8__detail16_Hashtable_allocISaINS_10_Hash_nodeISt4pairIKciELb0EEEEE18_M_deallocate_nodeEPS5_
.L351:
	ldr	x0, [sp, 16]
	cmp	x0, 0
	bne	.L352
	nop
	nop
	ldp	x29, x30, [sp], 48
	.cfi_restore 30
	.cfi_restore 29
	.cfi_def_cfa_offset 0
	ret
	.cfi_endproc
.LFE6182:
	.size	_ZNSt8__detail16_Hashtable_allocISaINS_10_Hash_nodeISt4pairIKciELb0EEEEE19_M_deallocate_nodesEPS5_, .-_ZNSt8__detail16_Hashtable_allocISaINS_10_Hash_nodeISt4pairIKciELb0EEEEE19_M_deallocate_nodesEPS5_
	.section	.text._ZNSt10_HashtableIcSt4pairIKciESaIS2_ENSt8__detail10_Select1stESt8equal_toIcESt4hashIcENS4_18_Mod_range_hashingENS4_20_Default_ranged_hashENS4_20_Prime_rehash_policyENS4_17_Hashtable_traitsILb0ELb0ELb1EEEE21_M_deallocate_bucketsEPPNS4_15_Hash_node_baseEm,"axG",@progbits,_ZNSt10_HashtableIcSt4pairIKciESaIS2_ENSt8__detail10_Select1stESt8equal_toIcESt4hashIcENS4_18_Mod_range_hashingENS4_20_Default_ranged_hashENS4_20_Prime_rehash_policyENS4_17_Hashtable_traitsILb0ELb0ELb1EEEE21_M_deallocate_bucketsEPPNS4_15_Hash_node_baseEm,comdat
	.align	2
	.weak	_ZNSt10_HashtableIcSt4pairIKciESaIS2_ENSt8__detail10_Select1stESt8equal_toIcESt4hashIcENS4_18_Mod_range_hashingENS4_20_Default_ranged_hashENS4_20_Prime_rehash_policyENS4_17_Hashtable_traitsILb0ELb0ELb1EEEE21_M_deallocate_bucketsEPPNS4_15_Hash_node_baseEm
	.type	_ZNSt10_HashtableIcSt4pairIKciESaIS2_ENSt8__detail10_Select1stESt8equal_toIcESt4hashIcENS4_18_Mod_range_hashingENS4_20_Default_ranged_hashENS4_20_Prime_rehash_policyENS4_17_Hashtable_traitsILb0ELb0ELb1EEEE21_M_deallocate_bucketsEPPNS4_15_Hash_node_baseEm, %function
_ZNSt10_HashtableIcSt4pairIKciESaIS2_ENSt8__detail10_Select1stESt8equal_toIcESt4hashIcENS4_18_Mod_range_hashingENS4_20_Default_ranged_hashENS4_20_Prime_rehash_policyENS4_17_Hashtable_traitsILb0ELb0ELb1EEEE21_M_deallocate_bucketsEPPNS4_15_Hash_node_baseEm:
.LFB6183:
	.cfi_startproc
	stp	x29, x30, [sp, -48]!
	.cfi_def_cfa_offset 48
	.cfi_offset 29, -48
	.cfi_offset 30, -40
	mov	x29, sp
	str	x0, [sp, 40]
	str	x1, [sp, 32]
	str	x2, [sp, 24]
	ldr	x1, [sp, 32]
	ldr	x0, [sp, 40]
	bl	_ZNKSt10_HashtableIcSt4pairIKciESaIS2_ENSt8__detail10_Select1stESt8equal_toIcESt4hashIcENS4_18_Mod_range_hashingENS4_20_Default_ranged_hashENS4_20_Prime_rehash_policyENS4_17_Hashtable_traitsILb0ELb0ELb1EEEE21_M_uses_single_bucketEPPNS4_15_Hash_node_baseE
	and	w0, w0, 255
	cmp	w0, 0
	bne	.L356
	ldr	x2, [sp, 24]
	ldr	x1, [sp, 32]
	ldr	x0, [sp, 40]
	bl	_ZNSt8__detail16_Hashtable_allocISaINS_10_Hash_nodeISt4pairIKciELb0EEEEE21_M_deallocate_bucketsEPPNS_15_Hash_node_baseEm
	b	.L353
.L356:
	nop
.L353:
	ldp	x29, x30, [sp], 48
	.cfi_restore 30
	.cfi_restore 29
	.cfi_def_cfa_offset 0
	ret
	.cfi_endproc
.LFE6183:
	.size	_ZNSt10_HashtableIcSt4pairIKciESaIS2_ENSt8__detail10_Select1stESt8equal_toIcESt4hashIcENS4_18_Mod_range_hashingENS4_20_Default_ranged_hashENS4_20_Prime_rehash_policyENS4_17_Hashtable_traitsILb0ELb0ELb1EEEE21_M_deallocate_bucketsEPPNS4_15_Hash_node_baseEm, .-_ZNSt10_HashtableIcSt4pairIKciESaIS2_ENSt8__detail10_Select1stESt8equal_toIcESt4hashIcENS4_18_Mod_range_hashingENS4_20_Default_ranged_hashENS4_20_Prime_rehash_policyENS4_17_Hashtable_traitsILb0ELb0ELb1EEEE21_M_deallocate_bucketsEPPNS4_15_Hash_node_baseEm
	.section	.text._ZNKSt8__detail15_Hash_code_baseIcSt4pairIKciENS_10_Select1stESt4hashIcENS_18_Mod_range_hashingENS_20_Default_ranged_hashELb0EE12_M_hash_codeERS2_,"axG",@progbits,_ZNKSt8__detail15_Hash_code_baseIcSt4pairIKciENS_10_Select1stESt4hashIcENS_18_Mod_range_hashingENS_20_Default_ranged_hashELb0EE12_M_hash_codeERS2_,comdat
	.align	2
	.weak	_ZNKSt8__detail15_Hash_code_baseIcSt4pairIKciENS_10_Select1stESt4hashIcENS_18_Mod_range_hashingENS_20_Default_ranged_hashELb0EE12_M_hash_codeERS2_
	.type	_ZNKSt8__detail15_Hash_code_baseIcSt4pairIKciENS_10_Select1stESt4hashIcENS_18_Mod_range_hashingENS_20_Default_ranged_hashELb0EE12_M_hash_codeERS2_, %function
_ZNKSt8__detail15_Hash_code_baseIcSt4pairIKciENS_10_Select1stESt4hashIcENS_18_Mod_range_hashingENS_20_Default_ranged_hashELb0EE12_M_hash_codeERS2_:
.LFB6184:
	.cfi_startproc
	stp	x29, x30, [sp, -32]!
	.cfi_def_cfa_offset 32
	.cfi_offset 29, -32
	.cfi_offset 30, -24
	mov	x29, sp
	str	x0, [sp, 24]
	str	x1, [sp, 16]
	ldr	x0, [sp, 24]
	bl	_ZNKSt8__detail15_Hash_code_baseIcSt4pairIKciENS_10_Select1stESt4hashIcENS_18_Mod_range_hashingENS_20_Default_ranged_hashELb0EE7_M_hashEv
	mov	x2, x0
	ldr	x0, [sp, 16]
	ldrb	w0, [x0]
	mov	w1, w0
	mov	x0, x2
	bl	_ZNKSt4hashIcEclEc
	ldp	x29, x30, [sp], 32
	.cfi_restore 30
	.cfi_restore 29
	.cfi_def_cfa_offset 0
	ret
	.cfi_endproc
.LFE6184:
	.size	_ZNKSt8__detail15_Hash_code_baseIcSt4pairIKciENS_10_Select1stESt4hashIcENS_18_Mod_range_hashingENS_20_Default_ranged_hashELb0EE12_M_hash_codeERS2_, .-_ZNKSt8__detail15_Hash_code_baseIcSt4pairIKciENS_10_Select1stESt4hashIcENS_18_Mod_range_hashingENS_20_Default_ranged_hashELb0EE12_M_hash_codeERS2_
	.section	.text._ZNKSt10_HashtableIcSt4pairIKciESaIS2_ENSt8__detail10_Select1stESt8equal_toIcESt4hashIcENS4_18_Mod_range_hashingENS4_20_Default_ranged_hashENS4_20_Prime_rehash_policyENS4_17_Hashtable_traitsILb0ELb0ELb1EEEE15_M_bucket_indexEm,"axG",@progbits,_ZNKSt10_HashtableIcSt4pairIKciESaIS2_ENSt8__detail10_Select1stESt8equal_toIcESt4hashIcENS4_18_Mod_range_hashingENS4_20_Default_ranged_hashENS4_20_Prime_rehash_policyENS4_17_Hashtable_traitsILb0ELb0ELb1EEEE15_M_bucket_indexEm,comdat
	.align	2
	.weak	_ZNKSt10_HashtableIcSt4pairIKciESaIS2_ENSt8__detail10_Select1stESt8equal_toIcESt4hashIcENS4_18_Mod_range_hashingENS4_20_Default_ranged_hashENS4_20_Prime_rehash_policyENS4_17_Hashtable_traitsILb0ELb0ELb1EEEE15_M_bucket_indexEm
	.type	_ZNKSt10_HashtableIcSt4pairIKciESaIS2_ENSt8__detail10_Select1stESt8equal_toIcESt4hashIcENS4_18_Mod_range_hashingENS4_20_Default_ranged_hashENS4_20_Prime_rehash_policyENS4_17_Hashtable_traitsILb0ELb0ELb1EEEE15_M_bucket_indexEm, %function
_ZNKSt10_HashtableIcSt4pairIKciESaIS2_ENSt8__detail10_Select1stESt8equal_toIcESt4hashIcENS4_18_Mod_range_hashingENS4_20_Default_ranged_hashENS4_20_Prime_rehash_policyENS4_17_Hashtable_traitsILb0ELb0ELb1EEEE15_M_bucket_indexEm:
.LFB6185:
	.cfi_startproc
	stp	x29, x30, [sp, -32]!
	.cfi_def_cfa_offset 32
	.cfi_offset 29, -32
	.cfi_offset 30, -24
	mov	x29, sp
	str	x0, [sp, 24]
	str	x1, [sp, 16]
	ldr	x0, [sp, 24]
	ldr	x0, [x0, 8]
	mov	x2, x0
	ldr	x1, [sp, 16]
	ldr	x0, [sp, 24]
	bl	_ZNKSt8__detail15_Hash_code_baseIcSt4pairIKciENS_10_Select1stESt4hashIcENS_18_Mod_range_hashingENS_20_Default_ranged_hashELb0EE15_M_bucket_indexEmm
	ldp	x29, x30, [sp], 32
	.cfi_restore 30
	.cfi_restore 29
	.cfi_def_cfa_offset 0
	ret
	.cfi_endproc
.LFE6185:
	.size	_ZNKSt10_HashtableIcSt4pairIKciESaIS2_ENSt8__detail10_Select1stESt8equal_toIcESt4hashIcENS4_18_Mod_range_hashingENS4_20_Default_ranged_hashENS4_20_Prime_rehash_policyENS4_17_Hashtable_traitsILb0ELb0ELb1EEEE15_M_bucket_indexEm, .-_ZNKSt10_HashtableIcSt4pairIKciESaIS2_ENSt8__detail10_Select1stESt8equal_toIcESt4hashIcENS4_18_Mod_range_hashingENS4_20_Default_ranged_hashENS4_20_Prime_rehash_policyENS4_17_Hashtable_traitsILb0ELb0ELb1EEEE15_M_bucket_indexEm
	.section	.text._ZNKSt10_HashtableIcSt4pairIKciESaIS2_ENSt8__detail10_Select1stESt8equal_toIcESt4hashIcENS4_18_Mod_range_hashingENS4_20_Default_ranged_hashENS4_20_Prime_rehash_policyENS4_17_Hashtable_traitsILb0ELb0ELb1EEEE12_M_find_nodeEmRS1_m,"axG",@progbits,_ZNKSt10_HashtableIcSt4pairIKciESaIS2_ENSt8__detail10_Select1stESt8equal_toIcESt4hashIcENS4_18_Mod_range_hashingENS4_20_Default_ranged_hashENS4_20_Prime_rehash_policyENS4_17_Hashtable_traitsILb0ELb0ELb1EEEE12_M_find_nodeEmRS1_m,comdat
	.align	2
	.weak	_ZNKSt10_HashtableIcSt4pairIKciESaIS2_ENSt8__detail10_Select1stESt8equal_toIcESt4hashIcENS4_18_Mod_range_hashingENS4_20_Default_ranged_hashENS4_20_Prime_rehash_policyENS4_17_Hashtable_traitsILb0ELb0ELb1EEEE12_M_find_nodeEmRS1_m
	.type	_ZNKSt10_HashtableIcSt4pairIKciESaIS2_ENSt8__detail10_Select1stESt8equal_toIcESt4hashIcENS4_18_Mod_range_hashingENS4_20_Default_ranged_hashENS4_20_Prime_rehash_policyENS4_17_Hashtable_traitsILb0ELb0ELb1EEEE12_M_find_nodeEmRS1_m, %function
_ZNKSt10_HashtableIcSt4pairIKciESaIS2_ENSt8__detail10_Select1stESt8equal_toIcESt4hashIcENS4_18_Mod_range_hashingENS4_20_Default_ranged_hashENS4_20_Prime_rehash_policyENS4_17_Hashtable_traitsILb0ELb0ELb1EEEE12_M_find_nodeEmRS1_m:
.LFB6186:
	.cfi_startproc
	stp	x29, x30, [sp, -64]!
	.cfi_def_cfa_offset 64
	.cfi_offset 29, -64
	.cfi_offset 30, -56
	mov	x29, sp
	str	x0, [sp, 40]
	str	x1, [sp, 32]
	str	x2, [sp, 24]
	str	x3, [sp, 16]
	ldr	x3, [sp, 16]
	ldr	x2, [sp, 24]
	ldr	x1, [sp, 32]
	ldr	x0, [sp, 40]
	bl	_ZNKSt10_HashtableIcSt4pairIKciESaIS2_ENSt8__detail10_Select1stESt8equal_toIcESt4hashIcENS4_18_Mod_range_hashingENS4_20_Default_ranged_hashENS4_20_Prime_rehash_policyENS4_17_Hashtable_traitsILb0ELb0ELb1EEEE19_M_find_before_nodeEmRS1_m
	str	x0, [sp, 56]
	ldr	x0, [sp, 56]
	cmp	x0, 0
	beq	.L362
	ldr	x0, [sp, 56]
	ldr	x0, [x0]
	b	.L363
.L362:
	mov	x0, 0
.L363:
	ldp	x29, x30, [sp], 64
	.cfi_restore 30
	.cfi_restore 29
	.cfi_def_cfa_offset 0
	ret
	.cfi_endproc
.LFE6186:
	.size	_ZNKSt10_HashtableIcSt4pairIKciESaIS2_ENSt8__detail10_Select1stESt8equal_toIcESt4hashIcENS4_18_Mod_range_hashingENS4_20_Default_ranged_hashENS4_20_Prime_rehash_policyENS4_17_Hashtable_traitsILb0ELb0ELb1EEEE12_M_find_nodeEmRS1_m, .-_ZNKSt10_HashtableIcSt4pairIKciESaIS2_ENSt8__detail10_Select1stESt8equal_toIcESt4hashIcENS4_18_Mod_range_hashingENS4_20_Default_ranged_hashENS4_20_Prime_rehash_policyENS4_17_Hashtable_traitsILb0ELb0ELb1EEEE12_M_find_nodeEmRS1_m
	.section	.text._ZNSt5tupleIJRKcEEC2ILb1ELb1EEES1_,"axG",@progbits,_ZNSt5tupleIJRKcEEC5ILb1ELb1EEES1_,comdat
	.align	2
	.weak	_ZNSt5tupleIJRKcEEC2ILb1ELb1EEES1_
	.type	_ZNSt5tupleIJRKcEEC2ILb1ELb1EEES1_, %function
_ZNSt5tupleIJRKcEEC2ILb1ELb1EEES1_:
.LFB6188:
	.cfi_startproc
	.cfi_personality 0x9b,DW.ref.__gxx_personality_v0
	.cfi_lsda 0x1b,.LLSDA6188
	stp	x29, x30, [sp, -32]!
	.cfi_def_cfa_offset 32
	.cfi_offset 29, -32
	.cfi_offset 30, -24
	mov	x29, sp
	str	x0, [sp, 24]
	str	x1, [sp, 16]
	ldr	x0, [sp, 24]
	ldr	x1, [sp, 16]
	bl	_ZNSt11_Tuple_implILm0EJRKcEEC2ES1_
	nop
	ldp	x29, x30, [sp], 32
	.cfi_restore 30
	.cfi_restore 29
	.cfi_def_cfa_offset 0
	ret
	.cfi_endproc
.LFE6188:
	.section	.gcc_except_table
.LLSDA6188:
	.byte	0xff
	.byte	0xff
	.byte	0x1
	.uleb128 .LLSDACSE6188-.LLSDACSB6188
.LLSDACSB6188:
.LLSDACSE6188:
	.section	.text._ZNSt5tupleIJRKcEEC2ILb1ELb1EEES1_,"axG",@progbits,_ZNSt5tupleIJRKcEEC5ILb1ELb1EEES1_,comdat
	.size	_ZNSt5tupleIJRKcEEC2ILb1ELb1EEES1_, .-_ZNSt5tupleIJRKcEEC2ILb1ELb1EEES1_
	.weak	_ZNSt5tupleIJRKcEEC1ILb1ELb1EEES1_
	.set	_ZNSt5tupleIJRKcEEC1ILb1ELb1EEES1_,_ZNSt5tupleIJRKcEEC2ILb1ELb1EEES1_
	.section	.text._ZNSt10_HashtableIcSt4pairIKciESaIS2_ENSt8__detail10_Select1stESt8equal_toIcESt4hashIcENS4_18_Mod_range_hashingENS4_20_Default_ranged_hashENS4_20_Prime_rehash_policyENS4_17_Hashtable_traitsILb0ELb0ELb1EEEE12_Scoped_nodeC2IJRKSt21piecewise_construct_tSt5tupleIJRS1_EESL_IJEEEEEPNS4_16_Hashtable_allocISaINS4_10_Hash_nodeIS2_Lb0EEEEEEDpOT_,"axG",@progbits,_ZNSt10_HashtableIcSt4pairIKciESaIS2_ENSt8__detail10_Select1stESt8equal_toIcESt4hashIcENS4_18_Mod_range_hashingENS4_20_Default_ranged_hashENS4_20_Prime_rehash_policyENS4_17_Hashtable_traitsILb0ELb0ELb1EEEE12_Scoped_nodeC5IJRKSt21piecewise_construct_tSt5tupleIJRS1_EESL_IJEEEEEPNS4_16_Hashtable_allocISaINS4_10_Hash_nodeIS2_Lb0EEEEEEDpOT_,comdat
	.align	2
	.weak	_ZNSt10_HashtableIcSt4pairIKciESaIS2_ENSt8__detail10_Select1stESt8equal_toIcESt4hashIcENS4_18_Mod_range_hashingENS4_20_Default_ranged_hashENS4_20_Prime_rehash_policyENS4_17_Hashtable_traitsILb0ELb0ELb1EEEE12_Scoped_nodeC2IJRKSt21piecewise_construct_tSt5tupleIJRS1_EESL_IJEEEEEPNS4_16_Hashtable_allocISaINS4_10_Hash_nodeIS2_Lb0EEEEEEDpOT_
	.type	_ZNSt10_HashtableIcSt4pairIKciESaIS2_ENSt8__detail10_Select1stESt8equal_toIcESt4hashIcENS4_18_Mod_range_hashingENS4_20_Default_ranged_hashENS4_20_Prime_rehash_policyENS4_17_Hashtable_traitsILb0ELb0ELb1EEEE12_Scoped_nodeC2IJRKSt21piecewise_construct_tSt5tupleIJRS1_EESL_IJEEEEEPNS4_16_Hashtable_allocISaINS4_10_Hash_nodeIS2_Lb0EEEEEEDpOT_, %function
_ZNSt10_HashtableIcSt4pairIKciESaIS2_ENSt8__detail10_Select1stESt8equal_toIcESt4hashIcENS4_18_Mod_range_hashingENS4_20_Default_ranged_hashENS4_20_Prime_rehash_policyENS4_17_Hashtable_traitsILb0ELb0ELb1EEEE12_Scoped_nodeC2IJRKSt21piecewise_construct_tSt5tupleIJRS1_EESL_IJEEEEEPNS4_16_Hashtable_allocISaINS4_10_Hash_nodeIS2_Lb0EEEEEEDpOT_:
.LFB6191:
	.cfi_startproc
	stp	x29, x30, [sp, -96]!
	.cfi_def_cfa_offset 96
	.cfi_offset 29, -96
	.cfi_offset 30, -88
	mov	x29, sp
	stp	x19, x20, [sp, 16]
	str	x21, [sp, 32]
	.cfi_offset 19, -80
	.cfi_offset 20, -72
	.cfi_offset 21, -64
	str	x0, [sp, 88]
	str	x1, [sp, 80]
	str	x2, [sp, 72]
	str	x3, [sp, 64]
	str	x4, [sp, 56]
	ldr	x0, [sp, 88]
	ldr	x1, [sp, 80]
	str	x1, [x0]
	ldr	x19, [sp, 80]
	ldr	x0, [sp, 72]
	bl	_ZSt7forwardIRKSt21piecewise_construct_tEOT_RNSt16remove_referenceIS3_E4typeE
	mov	x20, x0
	ldr	x0, [sp, 64]
	bl	_ZSt7forwardISt5tupleIJRKcEEEOT_RNSt16remove_referenceIS4_E4typeE
	mov	x21, x0
	ldr	x0, [sp, 56]
	bl	_ZSt7forwardISt5tupleIJEEEOT_RNSt16remove_referenceIS2_E4typeE
	mov	x3, x0
	mov	x2, x21
	mov	x1, x20
	mov	x0, x19
	bl	_ZNSt8__detail16_Hashtable_allocISaINS_10_Hash_nodeISt4pairIKciELb0EEEEE16_M_allocate_nodeIJRKSt21piecewise_construct_tSt5tupleIJRS3_EESC_IJEEEEEPS5_DpOT_
	mov	x1, x0
	ldr	x0, [sp, 88]
	str	x1, [x0, 8]
	nop
	ldp	x19, x20, [sp, 16]
	ldr	x21, [sp, 32]
	ldp	x29, x30, [sp], 96
	.cfi_restore 30
	.cfi_restore 29
	.cfi_restore 21
	.cfi_restore 19
	.cfi_restore 20
	.cfi_def_cfa_offset 0
	ret
	.cfi_endproc
.LFE6191:
	.size	_ZNSt10_HashtableIcSt4pairIKciESaIS2_ENSt8__detail10_Select1stESt8equal_toIcESt4hashIcENS4_18_Mod_range_hashingENS4_20_Default_ranged_hashENS4_20_Prime_rehash_policyENS4_17_Hashtable_traitsILb0ELb0ELb1EEEE12_Scoped_nodeC2IJRKSt21piecewise_construct_tSt5tupleIJRS1_EESL_IJEEEEEPNS4_16_Hashtable_allocISaINS4_10_Hash_nodeIS2_Lb0EEEEEEDpOT_, .-_ZNSt10_HashtableIcSt4pairIKciESaIS2_ENSt8__detail10_Select1stESt8equal_toIcESt4hashIcENS4_18_Mod_range_hashingENS4_20_Default_ranged_hashENS4_20_Prime_rehash_policyENS4_17_Hashtable_traitsILb0ELb0ELb1EEEE12_Scoped_nodeC2IJRKSt21piecewise_construct_tSt5tupleIJRS1_EESL_IJEEEEEPNS4_16_Hashtable_allocISaINS4_10_Hash_nodeIS2_Lb0EEEEEEDpOT_
	.weak	_ZNSt10_HashtableIcSt4pairIKciESaIS2_ENSt8__detail10_Select1stESt8equal_toIcESt4hashIcENS4_18_Mod_range_hashingENS4_20_Default_ranged_hashENS4_20_Prime_rehash_policyENS4_17_Hashtable_traitsILb0ELb0ELb1EEEE12_Scoped_nodeC1IJRKSt21piecewise_construct_tSt5tupleIJRS1_EESL_IJEEEEEPNS4_16_Hashtable_allocISaINS4_10_Hash_nodeIS2_Lb0EEEEEEDpOT_
	.set	_ZNSt10_HashtableIcSt4pairIKciESaIS2_ENSt8__detail10_Select1stESt8equal_toIcESt4hashIcENS4_18_Mod_range_hashingENS4_20_Default_ranged_hashENS4_20_Prime_rehash_policyENS4_17_Hashtable_traitsILb0ELb0ELb1EEEE12_Scoped_nodeC1IJRKSt21piecewise_construct_tSt5tupleIJRS1_EESL_IJEEEEEPNS4_16_Hashtable_allocISaINS4_10_Hash_nodeIS2_Lb0EEEEEEDpOT_,_ZNSt10_HashtableIcSt4pairIKciESaIS2_ENSt8__detail10_Select1stESt8equal_toIcESt4hashIcENS4_18_Mod_range_hashingENS4_20_Default_ranged_hashENS4_20_Prime_rehash_policyENS4_17_Hashtable_traitsILb0ELb0ELb1EEEE12_Scoped_nodeC2IJRKSt21piecewise_construct_tSt5tupleIJRS1_EESL_IJEEEEEPNS4_16_Hashtable_allocISaINS4_10_Hash_nodeIS2_Lb0EEEEEEDpOT_
	.section	.text._ZNSt10_HashtableIcSt4pairIKciESaIS2_ENSt8__detail10_Select1stESt8equal_toIcESt4hashIcENS4_18_Mod_range_hashingENS4_20_Default_ranged_hashENS4_20_Prime_rehash_policyENS4_17_Hashtable_traitsILb0ELb0ELb1EEEE12_Scoped_nodeD2Ev,"axG",@progbits,_ZNSt10_HashtableIcSt4pairIKciESaIS2_ENSt8__detail10_Select1stESt8equal_toIcESt4hashIcENS4_18_Mod_range_hashingENS4_20_Default_ranged_hashENS4_20_Prime_rehash_policyENS4_17_Hashtable_traitsILb0ELb0ELb1EEEE12_Scoped_nodeD5Ev,comdat
	.align	2
	.weak	_ZNSt10_HashtableIcSt4pairIKciESaIS2_ENSt8__detail10_Select1stESt8equal_toIcESt4hashIcENS4_18_Mod_range_hashingENS4_20_Default_ranged_hashENS4_20_Prime_rehash_policyENS4_17_Hashtable_traitsILb0ELb0ELb1EEEE12_Scoped_nodeD2Ev
	.type	_ZNSt10_HashtableIcSt4pairIKciESaIS2_ENSt8__detail10_Select1stESt8equal_toIcESt4hashIcENS4_18_Mod_range_hashingENS4_20_Default_ranged_hashENS4_20_Prime_rehash_policyENS4_17_Hashtable_traitsILb0ELb0ELb1EEEE12_Scoped_nodeD2Ev, %function
_ZNSt10_HashtableIcSt4pairIKciESaIS2_ENSt8__detail10_Select1stESt8equal_toIcESt4hashIcENS4_18_Mod_range_hashingENS4_20_Default_ranged_hashENS4_20_Prime_rehash_policyENS4_17_Hashtable_traitsILb0ELb0ELb1EEEE12_Scoped_nodeD2Ev:
.LFB6194:
	.cfi_startproc
	.cfi_personality 0x9b,DW.ref.__gxx_personality_v0
	.cfi_lsda 0x1b,.LLSDA6194
	stp	x29, x30, [sp, -32]!
	.cfi_def_cfa_offset 32
	.cfi_offset 29, -32
	.cfi_offset 30, -24
	mov	x29, sp
	str	x0, [sp, 24]
	ldr	x0, [sp, 24]
	ldr	x0, [x0, 8]
	cmp	x0, 0
	beq	.L368
	ldr	x0, [sp, 24]
	ldr	x2, [x0]
	ldr	x0, [sp, 24]
	ldr	x0, [x0, 8]
	mov	x1, x0
	mov	x0, x2
	bl	_ZNSt8__detail16_Hashtable_allocISaINS_10_Hash_nodeISt4pairIKciELb0EEEEE18_M_deallocate_nodeEPS5_
.L368:
	nop
	ldp	x29, x30, [sp], 32
	.cfi_restore 30
	.cfi_restore 29
	.cfi_def_cfa_offset 0
	ret
	.cfi_endproc
.LFE6194:
	.section	.gcc_except_table
.LLSDA6194:
	.byte	0xff
	.byte	0xff
	.byte	0x1
	.uleb128 .LLSDACSE6194-.LLSDACSB6194
.LLSDACSB6194:
.LLSDACSE6194:
	.section	.text._ZNSt10_HashtableIcSt4pairIKciESaIS2_ENSt8__detail10_Select1stESt8equal_toIcESt4hashIcENS4_18_Mod_range_hashingENS4_20_Default_ranged_hashENS4_20_Prime_rehash_policyENS4_17_Hashtable_traitsILb0ELb0ELb1EEEE12_Scoped_nodeD2Ev,"axG",@progbits,_ZNSt10_HashtableIcSt4pairIKciESaIS2_ENSt8__detail10_Select1stESt8equal_toIcESt4hashIcENS4_18_Mod_range_hashingENS4_20_Default_ranged_hashENS4_20_Prime_rehash_policyENS4_17_Hashtable_traitsILb0ELb0ELb1EEEE12_Scoped_nodeD5Ev,comdat
	.size	_ZNSt10_HashtableIcSt4pairIKciESaIS2_ENSt8__detail10_Select1stESt8equal_toIcESt4hashIcENS4_18_Mod_range_hashingENS4_20_Default_ranged_hashENS4_20_Prime_rehash_policyENS4_17_Hashtable_traitsILb0ELb0ELb1EEEE12_Scoped_nodeD2Ev, .-_ZNSt10_HashtableIcSt4pairIKciESaIS2_ENSt8__detail10_Select1stESt8equal_toIcESt4hashIcENS4_18_Mod_range_hashingENS4_20_Default_ranged_hashENS4_20_Prime_rehash_policyENS4_17_Hashtable_traitsILb0ELb0ELb1EEEE12_Scoped_nodeD2Ev
	.weak	_ZNSt10_HashtableIcSt4pairIKciESaIS2_ENSt8__detail10_Select1stESt8equal_toIcESt4hashIcENS4_18_Mod_range_hashingENS4_20_Default_ranged_hashENS4_20_Prime_rehash_policyENS4_17_Hashtable_traitsILb0ELb0ELb1EEEE12_Scoped_nodeD1Ev
	.set	_ZNSt10_HashtableIcSt4pairIKciESaIS2_ENSt8__detail10_Select1stESt8equal_toIcESt4hashIcENS4_18_Mod_range_hashingENS4_20_Default_ranged_hashENS4_20_Prime_rehash_policyENS4_17_Hashtable_traitsILb0ELb0ELb1EEEE12_Scoped_nodeD1Ev,_ZNSt10_HashtableIcSt4pairIKciESaIS2_ENSt8__detail10_Select1stESt8equal_toIcESt4hashIcENS4_18_Mod_range_hashingENS4_20_Default_ranged_hashENS4_20_Prime_rehash_policyENS4_17_Hashtable_traitsILb0ELb0ELb1EEEE12_Scoped_nodeD2Ev
	.section	.text._ZNSt10_HashtableIcSt4pairIKciESaIS2_ENSt8__detail10_Select1stESt8equal_toIcESt4hashIcENS4_18_Mod_range_hashingENS4_20_Default_ranged_hashENS4_20_Prime_rehash_policyENS4_17_Hashtable_traitsILb0ELb0ELb1EEEE21_M_insert_unique_nodeEmmPNS4_10_Hash_nodeIS2_Lb0EEEm,"axG",@progbits,_ZNSt10_HashtableIcSt4pairIKciESaIS2_ENSt8__detail10_Select1stESt8equal_toIcESt4hashIcENS4_18_Mod_range_hashingENS4_20_Default_ranged_hashENS4_20_Prime_rehash_policyENS4_17_Hashtable_traitsILb0ELb0ELb1EEEE21_M_insert_unique_nodeEmmPNS4_10_Hash_nodeIS2_Lb0EEEm,comdat
	.align	2
	.weak	_ZNSt10_HashtableIcSt4pairIKciESaIS2_ENSt8__detail10_Select1stESt8equal_toIcESt4hashIcENS4_18_Mod_range_hashingENS4_20_Default_ranged_hashENS4_20_Prime_rehash_policyENS4_17_Hashtable_traitsILb0ELb0ELb1EEEE21_M_insert_unique_nodeEmmPNS4_10_Hash_nodeIS2_Lb0EEEm
	.type	_ZNSt10_HashtableIcSt4pairIKciESaIS2_ENSt8__detail10_Select1stESt8equal_toIcESt4hashIcENS4_18_Mod_range_hashingENS4_20_Default_ranged_hashENS4_20_Prime_rehash_policyENS4_17_Hashtable_traitsILb0ELb0ELb1EEEE21_M_insert_unique_nodeEmmPNS4_10_Hash_nodeIS2_Lb0EEEm, %function
_ZNSt10_HashtableIcSt4pairIKciESaIS2_ENSt8__detail10_Select1stESt8equal_toIcESt4hashIcENS4_18_Mod_range_hashingENS4_20_Default_ranged_hashENS4_20_Prime_rehash_policyENS4_17_Hashtable_traitsILb0ELb0ELb1EEEE21_M_insert_unique_nodeEmmPNS4_10_Hash_nodeIS2_Lb0EEEm:
.LFB6196:
	.cfi_startproc
	stp	x29, x30, [sp, -112]!
	.cfi_def_cfa_offset 112
	.cfi_offset 29, -112
	.cfi_offset 30, -104
	mov	x29, sp
	str	x0, [sp, 56]
	str	x1, [sp, 48]
	str	x2, [sp, 40]
	str	x3, [sp, 32]
	str	x4, [sp, 24]
	adrp	x0, :got:__stack_chk_guard
	ldr	x0, [x0, #:got_lo12:__stack_chk_guard]
	ldr	x1, [x0]
	str	x1, [sp, 104]
	mov	x1, 0
	ldr	x0, [sp, 56]
	add	x0, x0, 32
	bl	_ZNKSt8__detail20_Prime_rehash_policy8_M_stateEv
	str	x0, [sp, 64]
	add	x0, sp, 64
	str	x0, [sp, 80]
	ldr	x0, [sp, 56]
	add	x4, x0, 32
	ldr	x0, [sp, 56]
	ldr	x1, [x0, 8]
	ldr	x0, [sp, 56]
	ldr	x0, [x0, 24]
	ldr	x3, [sp, 24]
	mov	x2, x0
	mov	x0, x4
	bl	_ZNKSt8__detail20_Prime_rehash_policy14_M_need_rehashEmmm
	stp	x0, x1, [sp, 88]
	ldrb	w0, [sp, 88]
	cmp	w0, 0
	beq	.L370
	ldr	x0, [sp, 96]
	ldr	x2, [sp, 80]
	mov	x1, x0
	ldr	x0, [sp, 56]
	bl	_ZNSt10_HashtableIcSt4pairIKciESaIS2_ENSt8__detail10_Select1stESt8equal_toIcESt4hashIcENS4_18_Mod_range_hashingENS4_20_Default_ranged_hashENS4_20_Prime_rehash_policyENS4_17_Hashtable_traitsILb0ELb0ELb1EEEE9_M_rehashEmRKm
	ldr	x1, [sp, 40]
	ldr	x0, [sp, 56]
	bl	_ZNKSt10_HashtableIcSt4pairIKciESaIS2_ENSt8__detail10_Select1stESt8equal_toIcESt4hashIcENS4_18_Mod_range_hashingENS4_20_Default_ranged_hashENS4_20_Prime_rehash_policyENS4_17_Hashtable_traitsILb0ELb0ELb1EEEE15_M_bucket_indexEm
	str	x0, [sp, 48]
.L370:
	ldr	x0, [sp, 32]
	add	x0, x0, 8
	ldr	x2, [sp, 40]
	mov	x1, x0
	ldr	x0, [sp, 56]
	bl	_ZNKSt8__detail15_Hash_code_baseIcSt4pairIKciENS_10_Select1stESt4hashIcENS_18_Mod_range_hashingENS_20_Default_ranged_hashELb0EE13_M_store_codeERNS_21_Hash_node_code_cacheILb0EEEm
	ldr	x2, [sp, 32]
	ldr	x1, [sp, 48]
	ldr	x0, [sp, 56]
	bl	_ZNSt10_HashtableIcSt4pairIKciESaIS2_ENSt8__detail10_Select1stESt8equal_toIcESt4hashIcENS4_18_Mod_range_hashingENS4_20_Default_ranged_hashENS4_20_Prime_rehash_policyENS4_17_Hashtable_traitsILb0ELb0ELb1EEEE22_M_insert_bucket_beginEmPNS4_10_Hash_nodeIS2_Lb0EEE
	ldr	x0, [sp, 56]
	ldr	x0, [x0, 24]
	add	x1, x0, 1
	ldr	x0, [sp, 56]
	str	x1, [x0, 24]
	add	x0, sp, 72
	ldr	x1, [sp, 32]
	bl	_ZNSt8__detail14_Node_iteratorISt4pairIKciELb0ELb0EEC1EPNS_10_Hash_nodeIS3_Lb0EEE
	ldr	x0, [sp, 72]
	mov	x1, x0
	adrp	x0, :got:__stack_chk_guard
	ldr	x0, [x0, #:got_lo12:__stack_chk_guard]
	ldr	x3, [sp, 104]
	ldr	x2, [x0]
	subs	x3, x3, x2
	mov	x2, 0
	beq	.L372
	bl	__stack_chk_fail
.L372:
	mov	x0, x1
	ldp	x29, x30, [sp], 112
	.cfi_restore 30
	.cfi_restore 29
	.cfi_def_cfa_offset 0
	ret
	.cfi_endproc
.LFE6196:
	.size	_ZNSt10_HashtableIcSt4pairIKciESaIS2_ENSt8__detail10_Select1stESt8equal_toIcESt4hashIcENS4_18_Mod_range_hashingENS4_20_Default_ranged_hashENS4_20_Prime_rehash_policyENS4_17_Hashtable_traitsILb0ELb0ELb1EEEE21_M_insert_unique_nodeEmmPNS4_10_Hash_nodeIS2_Lb0EEEm, .-_ZNSt10_HashtableIcSt4pairIKciESaIS2_ENSt8__detail10_Select1stESt8equal_toIcESt4hashIcENS4_18_Mod_range_hashingENS4_20_Default_ranged_hashENS4_20_Prime_rehash_policyENS4_17_Hashtable_traitsILb0ELb0ELb1EEEE21_M_insert_unique_nodeEmmPNS4_10_Hash_nodeIS2_Lb0EEEm
	.section	.text._ZNKSt8__detail14_Node_iteratorISt4pairIKciELb0ELb0EEptEv,"axG",@progbits,_ZNKSt8__detail14_Node_iteratorISt4pairIKciELb0ELb0EEptEv,comdat
	.align	2
	.weak	_ZNKSt8__detail14_Node_iteratorISt4pairIKciELb0ELb0EEptEv
	.type	_ZNKSt8__detail14_Node_iteratorISt4pairIKciELb0ELb0EEptEv, %function
_ZNKSt8__detail14_Node_iteratorISt4pairIKciELb0ELb0EEptEv:
.LFB6197:
	.cfi_startproc
	stp	x29, x30, [sp, -32]!
	.cfi_def_cfa_offset 32
	.cfi_offset 29, -32
	.cfi_offset 30, -24
	mov	x29, sp
	str	x0, [sp, 24]
	ldr	x0, [sp, 24]
	ldr	x0, [x0]
	add	x0, x0, 8
	bl	_ZNSt8__detail21_Hash_node_value_baseISt4pairIKciEE9_M_valptrEv
	ldp	x29, x30, [sp], 32
	.cfi_restore 30
	.cfi_restore 29
	.cfi_def_cfa_offset 0
	ret
	.cfi_endproc
.LFE6197:
	.size	_ZNKSt8__detail14_Node_iteratorISt4pairIKciELb0ELb0EEptEv, .-_ZNKSt8__detail14_Node_iteratorISt4pairIKciELb0ELb0EEptEv
	.section	.rodata
	.align	3
.LC29:
	.string	"const char* dbg::type_name_impl() [with T = std::unordered_map<char, int>]"
	.section	.text._ZN3dbg14type_name_implISt13unordered_mapIciSt4hashIcESt8equal_toIcESaISt4pairIKciEEEEEPS7_v,"axG",@progbits,_ZN3dbg14type_name_implISt13unordered_mapIciSt4hashIcESt8equal_toIcESaISt4pairIKciEEEEEPS7_v,comdat
	.align	2
	.weak	_ZN3dbg14type_name_implISt13unordered_mapIciSt4hashIcESt8equal_toIcESaISt4pairIKciEEEEEPS7_v
	.type	_ZN3dbg14type_name_implISt13unordered_mapIciSt4hashIcESt8equal_toIcESaISt4pairIKciEEEEEPS7_v, %function
_ZN3dbg14type_name_implISt13unordered_mapIciSt4hashIcESt8equal_toIcESaISt4pairIKciEEEEEPS7_v:
.LFB6199:
	.cfi_startproc
	adrp	x0, .LC29
	add	x0, x0, :lo12:.LC29
	ret
	.cfi_endproc
.LFE6199:
	.size	_ZN3dbg14type_name_implISt13unordered_mapIciSt4hashIcESt8equal_toIcESaISt4pairIKciEEEEEPS7_v, .-_ZN3dbg14type_name_implISt13unordered_mapIciSt4hashIcESt8equal_toIcESaISt4pairIKciEEEEEPS7_v
	.section	.text._ZSt4sizeISt13unordered_mapIciSt4hashIcESt8equal_toIcESaISt4pairIKciEEEEDTcldtfp_4sizeEERKT_,"axG",@progbits,_ZSt4sizeISt13unordered_mapIciSt4hashIcESt8equal_toIcESaISt4pairIKciEEEEDTcldtfp_4sizeEERKT_,comdat
	.align	2
	.weak	_ZSt4sizeISt13unordered_mapIciSt4hashIcESt8equal_toIcESaISt4pairIKciEEEEDTcldtfp_4sizeEERKT_
	.type	_ZSt4sizeISt13unordered_mapIciSt4hashIcESt8equal_toIcESaISt4pairIKciEEEEDTcldtfp_4sizeEERKT_, %function
_ZSt4sizeISt13unordered_mapIciSt4hashIcESt8equal_toIcESaISt4pairIKciEEEEDTcldtfp_4sizeEERKT_:
.LFB6201:
	.cfi_startproc
	stp	x29, x30, [sp, -32]!
	.cfi_def_cfa_offset 32
	.cfi_offset 29, -32
	.cfi_offset 30, -24
	mov	x29, sp
	str	x0, [sp, 24]
	ldr	x0, [sp, 24]
	bl	_ZNKSt13unordered_mapIciSt4hashIcESt8equal_toIcESaISt4pairIKciEEE4sizeEv
	ldp	x29, x30, [sp], 32
	.cfi_restore 30
	.cfi_restore 29
	.cfi_def_cfa_offset 0
	ret
	.cfi_endproc
.LFE6201:
	.size	_ZSt4sizeISt13unordered_mapIciSt4hashIcESt8equal_toIcESaISt4pairIKciEEEEDTcldtfp_4sizeEERKT_, .-_ZSt4sizeISt13unordered_mapIciSt4hashIcESt8equal_toIcESaISt4pairIKciEEEEDTcldtfp_4sizeEERKT_
	.section	.rodata
	.align	3
.LC30:
	.string	"{"
	.align	3
.LC31:
	.string	", "
	.align	3
.LC32:
	.string	", ..."
	.align	3
.LC33:
	.string	" size:"
	.align	3
.LC34:
	.string	"}"
	.section	.text._ZN3dbg12pretty_printISt13unordered_mapIciSt4hashIcESt8equal_toIcESaISt4pairIKciEEEEENSt9enable_ifIXsrNS_6detail12is_containerIRKT_EE5valueEbE4typeERSoSG_,"axG",@progbits,_ZN3dbg12pretty_printISt13unordered_mapIciSt4hashIcESt8equal_toIcESaISt4pairIKciEEEEENSt9enable_ifIXsrNS_6detail12is_containerIRKT_EE5valueEbE4typeERSoSG_,comdat
	.align	2
	.weak	_ZN3dbg12pretty_printISt13unordered_mapIciSt4hashIcESt8equal_toIcESaISt4pairIKciEEEEENSt9enable_ifIXsrNS_6detail12is_containerIRKT_EE5valueEbE4typeERSoSG_
	.type	_ZN3dbg12pretty_printISt13unordered_mapIciSt4hashIcESt8equal_toIcESaISt4pairIKciEEEEENSt9enable_ifIXsrNS_6detail12is_containerIRKT_EE5valueEbE4typeERSoSG_, %function
_ZN3dbg12pretty_printISt13unordered_mapIciSt4hashIcESt8equal_toIcESaISt4pairIKciEEEEENSt9enable_ifIXsrNS_6detail12is_containerIRKT_EE5valueEbE4typeERSoSG_:
.LFB6200:
	.cfi_startproc
	stp	x29, x30, [sp, -80]!
	.cfi_def_cfa_offset 80
	.cfi_offset 29, -80
	.cfi_offset 30, -72
	mov	x29, sp
	str	x0, [sp, 24]
	str	x1, [sp, 16]
	adrp	x0, :got:__stack_chk_guard
	ldr	x0, [x0, #:got_lo12:__stack_chk_guard]
	ldr	x1, [x0]
	str	x1, [sp, 72]
	mov	x1, 0
	adrp	x0, .LC30
	add	x1, x0, :lo12:.LC30
	ldr	x0, [sp, 24]
	bl	_ZStlsISt11char_traitsIcEERSt13basic_ostreamIcT_ES5_PKc
	ldr	x0, [sp, 16]
	bl	_ZSt4sizeISt13unordered_mapIciSt4hashIcESt8equal_toIcESaISt4pairIKciEEEEDTcldtfp_4sizeEERKT_
	str	x0, [sp, 32]
	mov	x0, 10
	str	x0, [sp, 48]
	add	x1, sp, 32
	add	x0, sp, 48
	bl	_ZSt3minImERKT_S2_S2_
	ldr	x0, [x0]
	str	x0, [sp, 64]
	str	xzr, [sp, 56]
	ldr	x0, [sp, 16]
	bl	_ZSt5beginISt13unordered_mapIciSt4hashIcESt8equal_toIcESaISt4pairIKciEEEEDTcldtfp_5beginEERKT_
	str	x0, [sp, 40]
	b	.L380
.L384:
	add	x0, sp, 40
	bl	_ZNKSt8__detail20_Node_const_iteratorISt4pairIKciELb0ELb0EEdeEv
	mov	x1, x0
	ldr	x0, [sp, 24]
	bl	_ZN3dbg12pretty_printIKciEEbRSoRKSt4pairIT_T0_E
	ldr	x0, [sp, 64]
	sub	x0, x0, #1
	ldr	x1, [sp, 56]
	cmp	x1, x0
	beq	.L381
	adrp	x0, .LC31
	add	x1, x0, :lo12:.LC31
	ldr	x0, [sp, 24]
	bl	_ZStlsISt11char_traitsIcEERSt13basic_ostreamIcT_ES5_PKc
.L381:
	add	x0, sp, 40
	bl	_ZNSt8__detail20_Node_const_iteratorISt4pairIKciELb0ELb0EEppEv
	ldr	x0, [sp, 56]
	add	x0, x0, 1
	str	x0, [sp, 56]
.L380:
	ldr	x0, [sp, 16]
	bl	_ZSt3endISt13unordered_mapIciSt4hashIcESt8equal_toIcESaISt4pairIKciEEEEDTcldtfp_3endEERKT_
	str	x0, [sp, 48]
	add	x1, sp, 48
	add	x0, sp, 40
	bl	_ZNSt8__detailneERKNS_19_Node_iterator_baseISt4pairIKciELb0EEES6_
	and	w0, w0, 255
	cmp	w0, 0
	beq	.L382
	ldr	x1, [sp, 56]
	ldr	x0, [sp, 64]
	cmp	x1, x0
	bcs	.L382
	mov	w0, 1
	b	.L383
.L382:
	mov	w0, 0
.L383:
	cmp	w0, 0
	bne	.L384
	ldr	x0, [sp, 32]
	ldr	x1, [sp, 64]
	cmp	x1, x0
	bcs	.L385
	adrp	x0, .LC32
	add	x1, x0, :lo12:.LC32
	ldr	x0, [sp, 24]
	bl	_ZStlsISt11char_traitsIcEERSt13basic_ostreamIcT_ES5_PKc
	adrp	x0, .LC33
	add	x1, x0, :lo12:.LC33
	ldr	x0, [sp, 24]
	bl	_ZStlsISt11char_traitsIcEERSt13basic_ostreamIcT_ES5_PKc
	mov	x2, x0
	ldr	x0, [sp, 32]
	mov	x1, x0
	mov	x0, x2
	bl	_ZNSolsEm
.L385:
	adrp	x0, .LC34
	add	x1, x0, :lo12:.LC34
	ldr	x0, [sp, 24]
	bl	_ZStlsISt11char_traitsIcEERSt13basic_ostreamIcT_ES5_PKc
	mov	w0, 1
	mov	w1, w0
	adrp	x0, :got:__stack_chk_guard
	ldr	x0, [x0, #:got_lo12:__stack_chk_guard]
	ldr	x3, [sp, 72]
	ldr	x2, [x0]
	subs	x3, x3, x2
	mov	x2, 0
	beq	.L387
	bl	__stack_chk_fail
.L387:
	mov	w0, w1
	ldp	x29, x30, [sp], 80
	.cfi_restore 30
	.cfi_restore 29
	.cfi_def_cfa_offset 0
	ret
	.cfi_endproc
.LFE6200:
	.size	_ZN3dbg12pretty_printISt13unordered_mapIciSt4hashIcESt8equal_toIcESaISt4pairIKciEEEEENSt9enable_ifIXsrNS_6detail12is_containerIRKT_EE5valueEbE4typeERSoSG_, .-_ZN3dbg12pretty_printISt13unordered_mapIciSt4hashIcESt8equal_toIcESaISt4pairIKciEEEEENSt9enable_ifIXsrNS_6detail12is_containerIRKT_EE5valueEbE4typeERSoSG_
	.section	.text._ZNSt6vectorINSt7__cxx1112basic_stringIcSt11char_traitsIcESaIcEEESaIS5_EE11_S_max_sizeERKS6_,"axG",@progbits,_ZNSt6vectorINSt7__cxx1112basic_stringIcSt11char_traitsIcESaIcEEESaIS5_EE11_S_max_sizeERKS6_,comdat
	.align	2
	.weak	_ZNSt6vectorINSt7__cxx1112basic_stringIcSt11char_traitsIcESaIcEEESaIS5_EE11_S_max_sizeERKS6_
	.type	_ZNSt6vectorINSt7__cxx1112basic_stringIcSt11char_traitsIcESaIcEEESaIS5_EE11_S_max_sizeERKS6_, %function
_ZNSt6vectorINSt7__cxx1112basic_stringIcSt11char_traitsIcESaIcEEESaIS5_EE11_S_max_sizeERKS6_:
.LFB6202:
	.cfi_startproc
	stp	x29, x30, [sp, -64]!
	.cfi_def_cfa_offset 64
	.cfi_offset 29, -64
	.cfi_offset 30, -56
	mov	x29, sp
	str	x0, [sp, 24]
	adrp	x0, :got:__stack_chk_guard
	ldr	x0, [x0, #:got_lo12:__stack_chk_guard]
	ldr	x1, [x0]
	str	x1, [sp, 56]
	mov	x1, 0
	mov	x0, 288230376151711743
	str	x0, [sp, 40]
	ldr	x0, [sp, 24]
	bl	_ZNSt16allocator_traitsISaINSt7__cxx1112basic_stringIcSt11char_traitsIcESaIcEEEEE8max_sizeERKS6_
	str	x0, [sp, 48]
	add	x1, sp, 48
	add	x0, sp, 40
	bl	_ZSt3minImERKT_S2_S2_
	ldr	x0, [x0]
	mov	x1, x0
	adrp	x0, :got:__stack_chk_guard
	ldr	x0, [x0, #:got_lo12:__stack_chk_guard]
	ldr	x3, [sp, 56]
	ldr	x2, [x0]
	subs	x3, x3, x2
	mov	x2, 0
	beq	.L390
	bl	__stack_chk_fail
.L390:
	mov	x0, x1
	ldp	x29, x30, [sp], 64
	.cfi_restore 30
	.cfi_restore 29
	.cfi_def_cfa_offset 0
	ret
	.cfi_endproc
.LFE6202:
	.size	_ZNSt6vectorINSt7__cxx1112basic_stringIcSt11char_traitsIcESaIcEEESaIS5_EE11_S_max_sizeERKS6_, .-_ZNSt6vectorINSt7__cxx1112basic_stringIcSt11char_traitsIcESaIcEEESaIS5_EE11_S_max_sizeERKS6_
	.section	.text._ZNSaINSt7__cxx1112basic_stringIcSt11char_traitsIcESaIcEEEEC2ERKS5_,"axG",@progbits,_ZNSaINSt7__cxx1112basic_stringIcSt11char_traitsIcESaIcEEEEC5ERKS5_,comdat
	.align	2
	.weak	_ZNSaINSt7__cxx1112basic_stringIcSt11char_traitsIcESaIcEEEEC2ERKS5_
	.type	_ZNSaINSt7__cxx1112basic_stringIcSt11char_traitsIcESaIcEEEEC2ERKS5_, %function
_ZNSaINSt7__cxx1112basic_stringIcSt11char_traitsIcESaIcEEEEC2ERKS5_:
.LFB6204:
	.cfi_startproc
	stp	x29, x30, [sp, -32]!
	.cfi_def_cfa_offset 32
	.cfi_offset 29, -32
	.cfi_offset 30, -24
	mov	x29, sp
	str	x0, [sp, 24]
	str	x1, [sp, 16]
	ldr	x1, [sp, 16]
	ldr	x0, [sp, 24]
	bl	_ZN9__gnu_cxx13new_allocatorINSt7__cxx1112basic_stringIcSt11char_traitsIcESaIcEEEEC2ERKS7_
	nop
	ldp	x29, x30, [sp], 32
	.cfi_restore 30
	.cfi_restore 29
	.cfi_def_cfa_offset 0
	ret
	.cfi_endproc
.LFE6204:
	.size	_ZNSaINSt7__cxx1112basic_stringIcSt11char_traitsIcESaIcEEEEC2ERKS5_, .-_ZNSaINSt7__cxx1112basic_stringIcSt11char_traitsIcESaIcEEEEC2ERKS5_
	.weak	_ZNSaINSt7__cxx1112basic_stringIcSt11char_traitsIcESaIcEEEEC1ERKS5_
	.set	_ZNSaINSt7__cxx1112basic_stringIcSt11char_traitsIcESaIcEEEEC1ERKS5_,_ZNSaINSt7__cxx1112basic_stringIcSt11char_traitsIcESaIcEEEEC2ERKS5_
	.section	.text._ZNSt12_Vector_baseINSt7__cxx1112basic_stringIcSt11char_traitsIcESaIcEEESaIS5_EE12_Vector_implC2ERKS6_,"axG",@progbits,_ZNSt12_Vector_baseINSt7__cxx1112basic_stringIcSt11char_traitsIcESaIcEEESaIS5_EE12_Vector_implC5ERKS6_,comdat
	.align	2
	.weak	_ZNSt12_Vector_baseINSt7__cxx1112basic_stringIcSt11char_traitsIcESaIcEEESaIS5_EE12_Vector_implC2ERKS6_
	.type	_ZNSt12_Vector_baseINSt7__cxx1112basic_stringIcSt11char_traitsIcESaIcEEESaIS5_EE12_Vector_implC2ERKS6_, %function
_ZNSt12_Vector_baseINSt7__cxx1112basic_stringIcSt11char_traitsIcESaIcEEESaIS5_EE12_Vector_implC2ERKS6_:
.LFB6207:
	.cfi_startproc
	stp	x29, x30, [sp, -32]!
	.cfi_def_cfa_offset 32
	.cfi_offset 29, -32
	.cfi_offset 30, -24
	mov	x29, sp
	str	x0, [sp, 24]
	str	x1, [sp, 16]
	ldr	x1, [sp, 16]
	ldr	x0, [sp, 24]
	bl	_ZNSaINSt7__cxx1112basic_stringIcSt11char_traitsIcESaIcEEEEC2ERKS5_
	ldr	x0, [sp, 24]
	bl	_ZNSt12_Vector_baseINSt7__cxx1112basic_stringIcSt11char_traitsIcESaIcEEESaIS5_EE17_Vector_impl_dataC2Ev
	nop
	ldp	x29, x30, [sp], 32
	.cfi_restore 30
	.cfi_restore 29
	.cfi_def_cfa_offset 0
	ret
	.cfi_endproc
.LFE6207:
	.size	_ZNSt12_Vector_baseINSt7__cxx1112basic_stringIcSt11char_traitsIcESaIcEEESaIS5_EE12_Vector_implC2ERKS6_, .-_ZNSt12_Vector_baseINSt7__cxx1112basic_stringIcSt11char_traitsIcESaIcEEESaIS5_EE12_Vector_implC2ERKS6_
	.weak	_ZNSt12_Vector_baseINSt7__cxx1112basic_stringIcSt11char_traitsIcESaIcEEESaIS5_EE12_Vector_implC1ERKS6_
	.set	_ZNSt12_Vector_baseINSt7__cxx1112basic_stringIcSt11char_traitsIcESaIcEEESaIS5_EE12_Vector_implC1ERKS6_,_ZNSt12_Vector_baseINSt7__cxx1112basic_stringIcSt11char_traitsIcESaIcEEESaIS5_EE12_Vector_implC2ERKS6_
	.section	.text._ZNSt12_Vector_baseINSt7__cxx1112basic_stringIcSt11char_traitsIcESaIcEEESaIS5_EE17_M_create_storageEm,"axG",@progbits,_ZNSt12_Vector_baseINSt7__cxx1112basic_stringIcSt11char_traitsIcESaIcEEESaIS5_EE17_M_create_storageEm,comdat
	.align	2
	.weak	_ZNSt12_Vector_baseINSt7__cxx1112basic_stringIcSt11char_traitsIcESaIcEEESaIS5_EE17_M_create_storageEm
	.type	_ZNSt12_Vector_baseINSt7__cxx1112basic_stringIcSt11char_traitsIcESaIcEEESaIS5_EE17_M_create_storageEm, %function
_ZNSt12_Vector_baseINSt7__cxx1112basic_stringIcSt11char_traitsIcESaIcEEESaIS5_EE17_M_create_storageEm:
.LFB6209:
	.cfi_startproc
	stp	x29, x30, [sp, -32]!
	.cfi_def_cfa_offset 32
	.cfi_offset 29, -32
	.cfi_offset 30, -24
	mov	x29, sp
	str	x0, [sp, 24]
	str	x1, [sp, 16]
	ldr	x1, [sp, 16]
	ldr	x0, [sp, 24]
	bl	_ZNSt12_Vector_baseINSt7__cxx1112basic_stringIcSt11char_traitsIcESaIcEEESaIS5_EE11_M_allocateEm
	mov	x1, x0
	ldr	x0, [sp, 24]
	str	x1, [x0]
	ldr	x0, [sp, 24]
	ldr	x1, [x0]
	ldr	x0, [sp, 24]
	str	x1, [x0, 8]
	ldr	x0, [sp, 24]
	ldr	x1, [x0]
	ldr	x0, [sp, 16]
	lsl	x0, x0, 5
	add	x1, x1, x0
	ldr	x0, [sp, 24]
	str	x1, [x0, 16]
	nop
	ldp	x29, x30, [sp], 32
	.cfi_restore 30
	.cfi_restore 29
	.cfi_def_cfa_offset 0
	ret
	.cfi_endproc
.LFE6209:
	.size	_ZNSt12_Vector_baseINSt7__cxx1112basic_stringIcSt11char_traitsIcESaIcEEESaIS5_EE17_M_create_storageEm, .-_ZNSt12_Vector_baseINSt7__cxx1112basic_stringIcSt11char_traitsIcESaIcEEESaIS5_EE17_M_create_storageEm
	.section	.text._ZNSt12_Vector_baseINSt7__cxx1112basic_stringIcSt11char_traitsIcESaIcEEESaIS5_EE13_M_deallocateEPS5_m,"axG",@progbits,_ZNSt12_Vector_baseINSt7__cxx1112basic_stringIcSt11char_traitsIcESaIcEEESaIS5_EE13_M_deallocateEPS5_m,comdat
	.align	2
	.weak	_ZNSt12_Vector_baseINSt7__cxx1112basic_stringIcSt11char_traitsIcESaIcEEESaIS5_EE13_M_deallocateEPS5_m
	.type	_ZNSt12_Vector_baseINSt7__cxx1112basic_stringIcSt11char_traitsIcESaIcEEESaIS5_EE13_M_deallocateEPS5_m, %function
_ZNSt12_Vector_baseINSt7__cxx1112basic_stringIcSt11char_traitsIcESaIcEEESaIS5_EE13_M_deallocateEPS5_m:
.LFB6210:
	.cfi_startproc
	stp	x29, x30, [sp, -48]!
	.cfi_def_cfa_offset 48
	.cfi_offset 29, -48
	.cfi_offset 30, -40
	mov	x29, sp
	str	x0, [sp, 40]
	str	x1, [sp, 32]
	str	x2, [sp, 24]
	ldr	x0, [sp, 32]
	cmp	x0, 0
	beq	.L396
	ldr	x0, [sp, 40]
	ldr	x2, [sp, 24]
	ldr	x1, [sp, 32]
	bl	_ZNSt16allocator_traitsISaINSt7__cxx1112basic_stringIcSt11char_traitsIcESaIcEEEEE10deallocateERS6_PS5_m
.L396:
	nop
	ldp	x29, x30, [sp], 48
	.cfi_restore 30
	.cfi_restore 29
	.cfi_def_cfa_offset 0
	ret
	.cfi_endproc
.LFE6210:
	.size	_ZNSt12_Vector_baseINSt7__cxx1112basic_stringIcSt11char_traitsIcESaIcEEESaIS5_EE13_M_deallocateEPS5_m, .-_ZNSt12_Vector_baseINSt7__cxx1112basic_stringIcSt11char_traitsIcESaIcEEESaIS5_EE13_M_deallocateEPS5_m
	.section	.text._ZSt27__uninitialized_default_n_aIPNSt7__cxx1112basic_stringIcSt11char_traitsIcESaIcEEEmS5_ET_S7_T0_RSaIT1_E,"axG",@progbits,_ZSt27__uninitialized_default_n_aIPNSt7__cxx1112basic_stringIcSt11char_traitsIcESaIcEEEmS5_ET_S7_T0_RSaIT1_E,comdat
	.align	2
	.weak	_ZSt27__uninitialized_default_n_aIPNSt7__cxx1112basic_stringIcSt11char_traitsIcESaIcEEEmS5_ET_S7_T0_RSaIT1_E
	.type	_ZSt27__uninitialized_default_n_aIPNSt7__cxx1112basic_stringIcSt11char_traitsIcESaIcEEEmS5_ET_S7_T0_RSaIT1_E, %function
_ZSt27__uninitialized_default_n_aIPNSt7__cxx1112basic_stringIcSt11char_traitsIcESaIcEEEmS5_ET_S7_T0_RSaIT1_E:
.LFB6211:
	.cfi_startproc
	stp	x29, x30, [sp, -48]!
	.cfi_def_cfa_offset 48
	.cfi_offset 29, -48
	.cfi_offset 30, -40
	mov	x29, sp
	str	x0, [sp, 40]
	str	x1, [sp, 32]
	str	x2, [sp, 24]
	ldr	x1, [sp, 32]
	ldr	x0, [sp, 40]
	bl	_ZSt25__uninitialized_default_nIPNSt7__cxx1112basic_stringIcSt11char_traitsIcESaIcEEEmET_S7_T0_
	ldp	x29, x30, [sp], 48
	.cfi_restore 30
	.cfi_restore 29
	.cfi_def_cfa_offset 0
	ret
	.cfi_endproc
.LFE6211:
	.size	_ZSt27__uninitialized_default_n_aIPNSt7__cxx1112basic_stringIcSt11char_traitsIcESaIcEEEmS5_ET_S7_T0_RSaIT1_E, .-_ZSt27__uninitialized_default_n_aIPNSt7__cxx1112basic_stringIcSt11char_traitsIcESaIcEEEmS5_ET_S7_T0_RSaIT1_E
	.section	.text._ZSt8_DestroyIPNSt7__cxx1112basic_stringIcSt11char_traitsIcESaIcEEEEvT_S7_,"axG",@progbits,_ZSt8_DestroyIPNSt7__cxx1112basic_stringIcSt11char_traitsIcESaIcEEEEvT_S7_,comdat
	.align	2
	.weak	_ZSt8_DestroyIPNSt7__cxx1112basic_stringIcSt11char_traitsIcESaIcEEEEvT_S7_
	.type	_ZSt8_DestroyIPNSt7__cxx1112basic_stringIcSt11char_traitsIcESaIcEEEEvT_S7_, %function
_ZSt8_DestroyIPNSt7__cxx1112basic_stringIcSt11char_traitsIcESaIcEEEEvT_S7_:
.LFB6212:
	.cfi_startproc
	stp	x29, x30, [sp, -32]!
	.cfi_def_cfa_offset 32
	.cfi_offset 29, -32
	.cfi_offset 30, -24
	mov	x29, sp
	str	x0, [sp, 24]
	str	x1, [sp, 16]
	ldr	x1, [sp, 16]
	ldr	x0, [sp, 24]
	bl	_ZNSt12_Destroy_auxILb0EE9__destroyIPNSt7__cxx1112basic_stringIcSt11char_traitsIcESaIcEEEEEvT_S9_
	nop
	ldp	x29, x30, [sp], 32
	.cfi_restore 30
	.cfi_restore 29
	.cfi_def_cfa_offset 0
	ret
	.cfi_endproc
.LFE6212:
	.size	_ZSt8_DestroyIPNSt7__cxx1112basic_stringIcSt11char_traitsIcESaIcEEEEvT_S7_, .-_ZSt8_DestroyIPNSt7__cxx1112basic_stringIcSt11char_traitsIcESaIcEEEEvT_S7_
	.section	.text._ZNSt8__detail14_Node_iteratorISt4pairIKciELb0ELb0EEC2EPNS_10_Hash_nodeIS3_Lb0EEE,"axG",@progbits,_ZNSt8__detail14_Node_iteratorISt4pairIKciELb0ELb0EEC5EPNS_10_Hash_nodeIS3_Lb0EEE,comdat
	.align	2
	.weak	_ZNSt8__detail14_Node_iteratorISt4pairIKciELb0ELb0EEC2EPNS_10_Hash_nodeIS3_Lb0EEE
	.type	_ZNSt8__detail14_Node_iteratorISt4pairIKciELb0ELb0EEC2EPNS_10_Hash_nodeIS3_Lb0EEE, %function
_ZNSt8__detail14_Node_iteratorISt4pairIKciELb0ELb0EEC2EPNS_10_Hash_nodeIS3_Lb0EEE:
.LFB6215:
	.cfi_startproc
	stp	x29, x30, [sp, -32]!
	.cfi_def_cfa_offset 32
	.cfi_offset 29, -32
	.cfi_offset 30, -24
	mov	x29, sp
	str	x0, [sp, 24]
	str	x1, [sp, 16]
	ldr	x0, [sp, 24]
	ldr	x1, [sp, 16]
	bl	_ZNSt8__detail19_Node_iterator_baseISt4pairIKciELb0EEC2EPNS_10_Hash_nodeIS3_Lb0EEE
	nop
	ldp	x29, x30, [sp], 32
	.cfi_restore 30
	.cfi_restore 29
	.cfi_def_cfa_offset 0
	ret
	.cfi_endproc
.LFE6215:
	.size	_ZNSt8__detail14_Node_iteratorISt4pairIKciELb0ELb0EEC2EPNS_10_Hash_nodeIS3_Lb0EEE, .-_ZNSt8__detail14_Node_iteratorISt4pairIKciELb0ELb0EEC2EPNS_10_Hash_nodeIS3_Lb0EEE
	.weak	_ZNSt8__detail14_Node_iteratorISt4pairIKciELb0ELb0EEC1EPNS_10_Hash_nodeIS3_Lb0EEE
	.set	_ZNSt8__detail14_Node_iteratorISt4pairIKciELb0ELb0EEC1EPNS_10_Hash_nodeIS3_Lb0EEE,_ZNSt8__detail14_Node_iteratorISt4pairIKciELb0ELb0EEC2EPNS_10_Hash_nodeIS3_Lb0EEE
	.section	.text._ZNKSt8__detail10_Hash_nodeISt4pairIKciELb0EE7_M_nextEv,"axG",@progbits,_ZNKSt8__detail10_Hash_nodeISt4pairIKciELb0EE7_M_nextEv,comdat
	.align	2
	.weak	_ZNKSt8__detail10_Hash_nodeISt4pairIKciELb0EE7_M_nextEv
	.type	_ZNKSt8__detail10_Hash_nodeISt4pairIKciELb0EE7_M_nextEv, %function
_ZNKSt8__detail10_Hash_nodeISt4pairIKciELb0EE7_M_nextEv:
.LFB6217:
	.cfi_startproc
	sub	sp, sp, #16
	.cfi_def_cfa_offset 16
	str	x0, [sp, 8]
	ldr	x0, [sp, 8]
	ldr	x0, [x0]
	add	sp, sp, 16
	.cfi_def_cfa_offset 0
	ret
	.cfi_endproc
.LFE6217:
	.size	_ZNKSt8__detail10_Hash_nodeISt4pairIKciELb0EE7_M_nextEv, .-_ZNKSt8__detail10_Hash_nodeISt4pairIKciELb0EE7_M_nextEv
	.section	.text._ZNSt8__detail21_Hash_node_value_baseISt4pairIKciEE9_M_valptrEv,"axG",@progbits,_ZNSt8__detail21_Hash_node_value_baseISt4pairIKciEE9_M_valptrEv,comdat
	.align	2
	.weak	_ZNSt8__detail21_Hash_node_value_baseISt4pairIKciEE9_M_valptrEv
	.type	_ZNSt8__detail21_Hash_node_value_baseISt4pairIKciEE9_M_valptrEv, %function
_ZNSt8__detail21_Hash_node_value_baseISt4pairIKciEE9_M_valptrEv:
.LFB6218:
	.cfi_startproc
	stp	x29, x30, [sp, -32]!
	.cfi_def_cfa_offset 32
	.cfi_offset 29, -32
	.cfi_offset 30, -24
	mov	x29, sp
	str	x0, [sp, 24]
	ldr	x0, [sp, 24]
	bl	_ZN9__gnu_cxx16__aligned_bufferISt4pairIKciEE6_M_ptrEv
	ldp	x29, x30, [sp], 32
	.cfi_restore 30
	.cfi_restore 29
	.cfi_def_cfa_offset 0
	ret
	.cfi_endproc
.LFE6218:
	.size	_ZNSt8__detail21_Hash_node_value_baseISt4pairIKciEE9_M_valptrEv, .-_ZNSt8__detail21_Hash_node_value_baseISt4pairIKciEE9_M_valptrEv
	.section	.text._ZSt4sizeISt6vectorINSt7__cxx1112basic_stringIcSt11char_traitsIcESaIcEEESaIS6_EEEDTcldtfp_4sizeEERKT_,"axG",@progbits,_ZSt4sizeISt6vectorINSt7__cxx1112basic_stringIcSt11char_traitsIcESaIcEEESaIS6_EEEDTcldtfp_4sizeEERKT_,comdat
	.align	2
	.weak	_ZSt4sizeISt6vectorINSt7__cxx1112basic_stringIcSt11char_traitsIcESaIcEEESaIS6_EEEDTcldtfp_4sizeEERKT_
	.type	_ZSt4sizeISt6vectorINSt7__cxx1112basic_stringIcSt11char_traitsIcESaIcEEESaIS6_EEEDTcldtfp_4sizeEERKT_, %function
_ZSt4sizeISt6vectorINSt7__cxx1112basic_stringIcSt11char_traitsIcESaIcEEESaIS6_EEEDTcldtfp_4sizeEERKT_:
.LFB6220:
	.cfi_startproc
	stp	x29, x30, [sp, -32]!
	.cfi_def_cfa_offset 32
	.cfi_offset 29, -32
	.cfi_offset 30, -24
	mov	x29, sp
	str	x0, [sp, 24]
	ldr	x0, [sp, 24]
	bl	_ZNKSt6vectorINSt7__cxx1112basic_stringIcSt11char_traitsIcESaIcEEESaIS5_EE4sizeEv
	ldp	x29, x30, [sp], 32
	.cfi_restore 30
	.cfi_restore 29
	.cfi_def_cfa_offset 0
	ret
	.cfi_endproc
.LFE6220:
	.size	_ZSt4sizeISt6vectorINSt7__cxx1112basic_stringIcSt11char_traitsIcESaIcEEESaIS6_EEEDTcldtfp_4sizeEERKT_, .-_ZSt4sizeISt6vectorINSt7__cxx1112basic_stringIcSt11char_traitsIcESaIcEEESaIS6_EEEDTcldtfp_4sizeEERKT_
	.section	.text._ZSt5beginISt6vectorINSt7__cxx1112basic_stringIcSt11char_traitsIcESaIcEEESaIS6_EEEDTcldtfp_5beginEERKT_,"axG",@progbits,_ZSt5beginISt6vectorINSt7__cxx1112basic_stringIcSt11char_traitsIcESaIcEEESaIS6_EEEDTcldtfp_5beginEERKT_,comdat
	.align	2
	.weak	_ZSt5beginISt6vectorINSt7__cxx1112basic_stringIcSt11char_traitsIcESaIcEEESaIS6_EEEDTcldtfp_5beginEERKT_
	.type	_ZSt5beginISt6vectorINSt7__cxx1112basic_stringIcSt11char_traitsIcESaIcEEESaIS6_EEEDTcldtfp_5beginEERKT_, %function
_ZSt5beginISt6vectorINSt7__cxx1112basic_stringIcSt11char_traitsIcESaIcEEESaIS6_EEEDTcldtfp_5beginEERKT_:
.LFB6221:
	.cfi_startproc
	stp	x29, x30, [sp, -32]!
	.cfi_def_cfa_offset 32
	.cfi_offset 29, -32
	.cfi_offset 30, -24
	mov	x29, sp
	str	x0, [sp, 24]
	ldr	x0, [sp, 24]
	bl	_ZNKSt6vectorINSt7__cxx1112basic_stringIcSt11char_traitsIcESaIcEEESaIS5_EE5beginEv
	ldp	x29, x30, [sp], 32
	.cfi_restore 30
	.cfi_restore 29
	.cfi_def_cfa_offset 0
	ret
	.cfi_endproc
.LFE6221:
	.size	_ZSt5beginISt6vectorINSt7__cxx1112basic_stringIcSt11char_traitsIcESaIcEEESaIS6_EEEDTcldtfp_5beginEERKT_, .-_ZSt5beginISt6vectorINSt7__cxx1112basic_stringIcSt11char_traitsIcESaIcEEESaIS6_EEEDTcldtfp_5beginEERKT_
	.section	.text._ZN3dbg12pretty_printISt6vectorINSt7__cxx1112basic_stringIcSt11char_traitsIcESaIcEEESaIS7_EEEENSt9enable_ifIXsrNS_6detail12is_containerIRKT_EE5valueEbE4typeERSoSF_,"axG",@progbits,_ZN3dbg12pretty_printISt6vectorINSt7__cxx1112basic_stringIcSt11char_traitsIcESaIcEEESaIS7_EEEENSt9enable_ifIXsrNS_6detail12is_containerIRKT_EE5valueEbE4typeERSoSF_,comdat
	.align	2
	.weak	_ZN3dbg12pretty_printISt6vectorINSt7__cxx1112basic_stringIcSt11char_traitsIcESaIcEEESaIS7_EEEENSt9enable_ifIXsrNS_6detail12is_containerIRKT_EE5valueEbE4typeERSoSF_
	.type	_ZN3dbg12pretty_printISt6vectorINSt7__cxx1112basic_stringIcSt11char_traitsIcESaIcEEESaIS7_EEEENSt9enable_ifIXsrNS_6detail12is_containerIRKT_EE5valueEbE4typeERSoSF_, %function
_ZN3dbg12pretty_printISt6vectorINSt7__cxx1112basic_stringIcSt11char_traitsIcESaIcEEESaIS7_EEEENSt9enable_ifIXsrNS_6detail12is_containerIRKT_EE5valueEbE4typeERSoSF_:
.LFB6219:
	.cfi_startproc
	stp	x29, x30, [sp, -80]!
	.cfi_def_cfa_offset 80
	.cfi_offset 29, -80
	.cfi_offset 30, -72
	mov	x29, sp
	str	x0, [sp, 24]
	str	x1, [sp, 16]
	adrp	x0, :got:__stack_chk_guard
	ldr	x0, [x0, #:got_lo12:__stack_chk_guard]
	ldr	x1, [x0]
	str	x1, [sp, 72]
	mov	x1, 0
	adrp	x0, .LC30
	add	x1, x0, :lo12:.LC30
	ldr	x0, [sp, 24]
	bl	_ZStlsISt11char_traitsIcEERSt13basic_ostreamIcT_ES5_PKc
	ldr	x0, [sp, 16]
	bl	_ZSt4sizeISt6vectorINSt7__cxx1112basic_stringIcSt11char_traitsIcESaIcEEESaIS6_EEEDTcldtfp_4sizeEERKT_
	str	x0, [sp, 32]
	mov	x0, 10
	str	x0, [sp, 48]
	add	x1, sp, 32
	add	x0, sp, 48
	bl	_ZSt3minImERKT_S2_S2_
	ldr	x0, [x0]
	str	x0, [sp, 64]
	str	xzr, [sp, 56]
	ldr	x0, [sp, 16]
	bl	_ZSt5beginISt6vectorINSt7__cxx1112basic_stringIcSt11char_traitsIcESaIcEEESaIS6_EEEDTcldtfp_5beginEERKT_
	str	x0, [sp, 40]
	b	.L410
.L414:
	add	x0, sp, 40
	bl	_ZNK9__gnu_cxx17__normal_iteratorIPKNSt7__cxx1112basic_stringIcSt11char_traitsIcESaIcEEESt6vectorIS6_SaIS6_EEEdeEv
	mov	x1, x0
	ldr	x0, [sp, 24]
	bl	_ZN3dbg12pretty_printERSoRKNSt7__cxx1112basic_stringIcSt11char_traitsIcESaIcEEE
	ldr	x0, [sp, 64]
	sub	x0, x0, #1
	ldr	x1, [sp, 56]
	cmp	x1, x0
	beq	.L411
	adrp	x0, .LC31
	add	x1, x0, :lo12:.LC31
	ldr	x0, [sp, 24]
	bl	_ZStlsISt11char_traitsIcEERSt13basic_ostreamIcT_ES5_PKc
.L411:
	add	x0, sp, 40
	bl	_ZN9__gnu_cxx17__normal_iteratorIPKNSt7__cxx1112basic_stringIcSt11char_traitsIcESaIcEEESt6vectorIS6_SaIS6_EEEppEv
	ldr	x0, [sp, 56]
	add	x0, x0, 1
	str	x0, [sp, 56]
.L410:
	ldr	x0, [sp, 16]
	bl	_ZSt3endISt6vectorINSt7__cxx1112basic_stringIcSt11char_traitsIcESaIcEEESaIS6_EEEDTcldtfp_3endEERKT_
	str	x0, [sp, 48]
	add	x1, sp, 48
	add	x0, sp, 40
	bl	_ZN9__gnu_cxxneIPKNSt7__cxx1112basic_stringIcSt11char_traitsIcESaIcEEESt6vectorIS6_SaIS6_EEEEbRKNS_17__normal_iteratorIT_T0_EESH_
	and	w0, w0, 255
	cmp	w0, 0
	beq	.L412
	ldr	x1, [sp, 56]
	ldr	x0, [sp, 64]
	cmp	x1, x0
	bcs	.L412
	mov	w0, 1
	b	.L413
.L412:
	mov	w0, 0
.L413:
	cmp	w0, 0
	bne	.L414
	ldr	x0, [sp, 32]
	ldr	x1, [sp, 64]
	cmp	x1, x0
	bcs	.L415
	adrp	x0, .LC32
	add	x1, x0, :lo12:.LC32
	ldr	x0, [sp, 24]
	bl	_ZStlsISt11char_traitsIcEERSt13basic_ostreamIcT_ES5_PKc
	adrp	x0, .LC33
	add	x1, x0, :lo12:.LC33
	ldr	x0, [sp, 24]
	bl	_ZStlsISt11char_traitsIcEERSt13basic_ostreamIcT_ES5_PKc
	mov	x2, x0
	ldr	x0, [sp, 32]
	mov	x1, x0
	mov	x0, x2
	bl	_ZNSolsEm
.L415:
	adrp	x0, .LC34
	add	x1, x0, :lo12:.LC34
	ldr	x0, [sp, 24]
	bl	_ZStlsISt11char_traitsIcEERSt13basic_ostreamIcT_ES5_PKc
	mov	w0, 1
	mov	w1, w0
	adrp	x0, :got:__stack_chk_guard
	ldr	x0, [x0, #:got_lo12:__stack_chk_guard]
	ldr	x3, [sp, 72]
	ldr	x2, [x0]
	subs	x3, x3, x2
	mov	x2, 0
	beq	.L417
	bl	__stack_chk_fail
.L417:
	mov	w0, w1
	ldp	x29, x30, [sp], 80
	.cfi_restore 30
	.cfi_restore 29
	.cfi_def_cfa_offset 0
	ret
	.cfi_endproc
.LFE6219:
	.size	_ZN3dbg12pretty_printISt6vectorINSt7__cxx1112basic_stringIcSt11char_traitsIcESaIcEEESaIS7_EEEENSt9enable_ifIXsrNS_6detail12is_containerIRKT_EE5valueEbE4typeERSoSF_, .-_ZN3dbg12pretty_printISt6vectorINSt7__cxx1112basic_stringIcSt11char_traitsIcESaIcEEESaIS7_EEEENSt9enable_ifIXsrNS_6detail12is_containerIRKT_EE5valueEbE4typeERSoSF_
	.section	.text._ZNSt8__detail16_Hashtable_allocISaINS_10_Hash_nodeISt4pairIKciELb0EEEEE18_M_deallocate_nodeEPS5_,"axG",@progbits,_ZNSt8__detail16_Hashtable_allocISaINS_10_Hash_nodeISt4pairIKciELb0EEEEE18_M_deallocate_nodeEPS5_,comdat
	.align	2
	.weak	_ZNSt8__detail16_Hashtable_allocISaINS_10_Hash_nodeISt4pairIKciELb0EEEEE18_M_deallocate_nodeEPS5_
	.type	_ZNSt8__detail16_Hashtable_allocISaINS_10_Hash_nodeISt4pairIKciELb0EEEEE18_M_deallocate_nodeEPS5_, %function
_ZNSt8__detail16_Hashtable_allocISaINS_10_Hash_nodeISt4pairIKciELb0EEEEE18_M_deallocate_nodeEPS5_:
.LFB6272:
	.cfi_startproc
	stp	x29, x30, [sp, -48]!
	.cfi_def_cfa_offset 48
	.cfi_offset 29, -48
	.cfi_offset 30, -40
	mov	x29, sp
	str	x19, [sp, 16]
	.cfi_offset 19, -32
	str	x0, [sp, 40]
	str	x1, [sp, 32]
	ldr	x0, [sp, 40]
	bl	_ZNSt8__detail16_Hashtable_allocISaINS_10_Hash_nodeISt4pairIKciELb0EEEEE17_M_node_allocatorEv
	mov	x19, x0
	ldr	x0, [sp, 32]
	add	x0, x0, 8
	bl	_ZNSt8__detail21_Hash_node_value_baseISt4pairIKciEE9_M_valptrEv
	mov	x1, x0
	mov	x0, x19
	bl	_ZNSt16allocator_traitsISaINSt8__detail10_Hash_nodeISt4pairIKciELb0EEEEE7destroyIS4_EEvRS6_PT_
	ldr	x1, [sp, 32]
	ldr	x0, [sp, 40]
	bl	_ZNSt8__detail16_Hashtable_allocISaINS_10_Hash_nodeISt4pairIKciELb0EEEEE22_M_deallocate_node_ptrEPS5_
	nop
	ldr	x19, [sp, 16]
	ldp	x29, x30, [sp], 48
	.cfi_restore 30
	.cfi_restore 29
	.cfi_restore 19
	.cfi_def_cfa_offset 0
	ret
	.cfi_endproc
.LFE6272:
	.size	_ZNSt8__detail16_Hashtable_allocISaINS_10_Hash_nodeISt4pairIKciELb0EEEEE18_M_deallocate_nodeEPS5_, .-_ZNSt8__detail16_Hashtable_allocISaINS_10_Hash_nodeISt4pairIKciELb0EEEEE18_M_deallocate_nodeEPS5_
	.section	.text._ZNKSt10_HashtableIcSt4pairIKciESaIS2_ENSt8__detail10_Select1stESt8equal_toIcESt4hashIcENS4_18_Mod_range_hashingENS4_20_Default_ranged_hashENS4_20_Prime_rehash_policyENS4_17_Hashtable_traitsILb0ELb0ELb1EEEE21_M_uses_single_bucketEPPNS4_15_Hash_node_baseE,"axG",@progbits,_ZNKSt10_HashtableIcSt4pairIKciESaIS2_ENSt8__detail10_Select1stESt8equal_toIcESt4hashIcENS4_18_Mod_range_hashingENS4_20_Default_ranged_hashENS4_20_Prime_rehash_policyENS4_17_Hashtable_traitsILb0ELb0ELb1EEEE21_M_uses_single_bucketEPPNS4_15_Hash_node_baseE,comdat
	.align	2
	.weak	_ZNKSt10_HashtableIcSt4pairIKciESaIS2_ENSt8__detail10_Select1stESt8equal_toIcESt4hashIcENS4_18_Mod_range_hashingENS4_20_Default_ranged_hashENS4_20_Prime_rehash_policyENS4_17_Hashtable_traitsILb0ELb0ELb1EEEE21_M_uses_single_bucketEPPNS4_15_Hash_node_baseE
	.type	_ZNKSt10_HashtableIcSt4pairIKciESaIS2_ENSt8__detail10_Select1stESt8equal_toIcESt4hashIcENS4_18_Mod_range_hashingENS4_20_Default_ranged_hashENS4_20_Prime_rehash_policyENS4_17_Hashtable_traitsILb0ELb0ELb1EEEE21_M_uses_single_bucketEPPNS4_15_Hash_node_baseE, %function
_ZNKSt10_HashtableIcSt4pairIKciESaIS2_ENSt8__detail10_Select1stESt8equal_toIcESt4hashIcENS4_18_Mod_range_hashingENS4_20_Default_ranged_hashENS4_20_Prime_rehash_policyENS4_17_Hashtable_traitsILb0ELb0ELb1EEEE21_M_uses_single_bucketEPPNS4_15_Hash_node_baseE:
.LFB6274:
	.cfi_startproc
	sub	sp, sp, #16
	.cfi_def_cfa_offset 16
	str	x0, [sp, 8]
	str	x1, [sp]
	ldr	x0, [sp, 8]
	add	x0, x0, 48
	ldr	x1, [sp]
	cmp	x1, x0
	cset	w0, eq
	and	w0, w0, 255
	and	x0, x0, 255
	cmp	x0, 0
	cset	w0, ne
	and	w0, w0, 255
	add	sp, sp, 16
	.cfi_def_cfa_offset 0
	ret
	.cfi_endproc
.LFE6274:
	.size	_ZNKSt10_HashtableIcSt4pairIKciESaIS2_ENSt8__detail10_Select1stESt8equal_toIcESt4hashIcENS4_18_Mod_range_hashingENS4_20_Default_ranged_hashENS4_20_Prime_rehash_policyENS4_17_Hashtable_traitsILb0ELb0ELb1EEEE21_M_uses_single_bucketEPPNS4_15_Hash_node_baseE, .-_ZNKSt10_HashtableIcSt4pairIKciESaIS2_ENSt8__detail10_Select1stESt8equal_toIcESt4hashIcENS4_18_Mod_range_hashingENS4_20_Default_ranged_hashENS4_20_Prime_rehash_policyENS4_17_Hashtable_traitsILb0ELb0ELb1EEEE21_M_uses_single_bucketEPPNS4_15_Hash_node_baseE
	.section	.text._ZNSt8__detail16_Hashtable_allocISaINS_10_Hash_nodeISt4pairIKciELb0EEEEE21_M_deallocate_bucketsEPPNS_15_Hash_node_baseEm,"axG",@progbits,_ZNSt8__detail16_Hashtable_allocISaINS_10_Hash_nodeISt4pairIKciELb0EEEEE21_M_deallocate_bucketsEPPNS_15_Hash_node_baseEm,comdat
	.align	2
	.weak	_ZNSt8__detail16_Hashtable_allocISaINS_10_Hash_nodeISt4pairIKciELb0EEEEE21_M_deallocate_bucketsEPPNS_15_Hash_node_baseEm
	.type	_ZNSt8__detail16_Hashtable_allocISaINS_10_Hash_nodeISt4pairIKciELb0EEEEE21_M_deallocate_bucketsEPPNS_15_Hash_node_baseEm, %function
_ZNSt8__detail16_Hashtable_allocISaINS_10_Hash_nodeISt4pairIKciELb0EEEEE21_M_deallocate_bucketsEPPNS_15_Hash_node_baseEm:
.LFB6275:
	.cfi_startproc
	.cfi_personality 0x9b,DW.ref.__gxx_personality_v0
	.cfi_lsda 0x1b,.LLSDA6275
	stp	x29, x30, [sp, -96]!
	.cfi_def_cfa_offset 96
	.cfi_offset 29, -96
	.cfi_offset 30, -88
	mov	x29, sp
	str	x19, [sp, 16]
	.cfi_offset 19, -80
	str	x0, [sp, 56]
	str	x1, [sp, 48]
	str	x2, [sp, 40]
	adrp	x0, :got:__stack_chk_guard
	ldr	x0, [x0, #:got_lo12:__stack_chk_guard]
	ldr	x1, [x0]
	str	x1, [sp, 88]
	mov	x1, 0
	ldr	x0, [sp, 48]
	bl	_ZNSt14pointer_traitsIPPNSt8__detail15_Hash_node_baseEE10pointer_toERS2_
	str	x0, [sp, 80]
	ldr	x0, [sp, 56]
.LEHB72:
	bl	_ZNSt8__detail16_Hashtable_allocISaINS_10_Hash_nodeISt4pairIKciELb0EEEEE17_M_node_allocatorEv
.LEHE72:
	mov	x1, x0
	add	x0, sp, 72
	bl	_ZNSaIPNSt8__detail15_Hash_node_baseEEC1INS_10_Hash_nodeISt4pairIKciELb0EEEEERKSaIT_E
	add	x0, sp, 72
	ldr	x2, [sp, 40]
	ldr	x1, [sp, 80]
.LEHB73:
	bl	_ZNSt16allocator_traitsISaIPNSt8__detail15_Hash_node_baseEEE10deallocateERS3_PS2_m
.LEHE73:
	add	x0, sp, 72
	bl	_ZNSaIPNSt8__detail15_Hash_node_baseEED1Ev
	adrp	x0, :got:__stack_chk_guard
	ldr	x0, [x0, #:got_lo12:__stack_chk_guard]
	ldr	x2, [sp, 88]
	ldr	x1, [x0]
	subs	x2, x2, x1
	mov	x1, 0
	beq	.L423
	b	.L425
.L424:
	mov	x19, x0
	add	x0, sp, 72
	bl	_ZNSaIPNSt8__detail15_Hash_node_baseEED1Ev
	mov	x0, x19
.LEHB74:
	bl	_Unwind_Resume
.LEHE74:
.L425:
	bl	__stack_chk_fail
.L423:
	ldr	x19, [sp, 16]
	ldp	x29, x30, [sp], 96
	.cfi_restore 30
	.cfi_restore 29
	.cfi_restore 19
	.cfi_def_cfa_offset 0
	ret
	.cfi_endproc
.LFE6275:
	.section	.gcc_except_table
.LLSDA6275:
	.byte	0xff
	.byte	0xff
	.byte	0x1
	.uleb128 .LLSDACSE6275-.LLSDACSB6275
.LLSDACSB6275:
	.uleb128 .LEHB72-.LFB6275
	.uleb128 .LEHE72-.LEHB72
	.uleb128 0
	.uleb128 0
	.uleb128 .LEHB73-.LFB6275
	.uleb128 .LEHE73-.LEHB73
	.uleb128 .L424-.LFB6275
	.uleb128 0
	.uleb128 .LEHB74-.LFB6275
	.uleb128 .LEHE74-.LEHB74
	.uleb128 0
	.uleb128 0
.LLSDACSE6275:
	.section	.text._ZNSt8__detail16_Hashtable_allocISaINS_10_Hash_nodeISt4pairIKciELb0EEEEE21_M_deallocate_bucketsEPPNS_15_Hash_node_baseEm,"axG",@progbits,_ZNSt8__detail16_Hashtable_allocISaINS_10_Hash_nodeISt4pairIKciELb0EEEEE21_M_deallocate_bucketsEPPNS_15_Hash_node_baseEm,comdat
	.size	_ZNSt8__detail16_Hashtable_allocISaINS_10_Hash_nodeISt4pairIKciELb0EEEEE21_M_deallocate_bucketsEPPNS_15_Hash_node_baseEm, .-_ZNSt8__detail16_Hashtable_allocISaINS_10_Hash_nodeISt4pairIKciELb0EEEEE21_M_deallocate_bucketsEPPNS_15_Hash_node_baseEm
	.section	.text._ZNKSt8__detail15_Hash_code_baseIcSt4pairIKciENS_10_Select1stESt4hashIcENS_18_Mod_range_hashingENS_20_Default_ranged_hashELb0EE7_M_hashEv,"axG",@progbits,_ZNKSt8__detail15_Hash_code_baseIcSt4pairIKciENS_10_Select1stESt4hashIcENS_18_Mod_range_hashingENS_20_Default_ranged_hashELb0EE7_M_hashEv,comdat
	.align	2
	.weak	_ZNKSt8__detail15_Hash_code_baseIcSt4pairIKciENS_10_Select1stESt4hashIcENS_18_Mod_range_hashingENS_20_Default_ranged_hashELb0EE7_M_hashEv
	.type	_ZNKSt8__detail15_Hash_code_baseIcSt4pairIKciENS_10_Select1stESt4hashIcENS_18_Mod_range_hashingENS_20_Default_ranged_hashELb0EE7_M_hashEv, %function
_ZNKSt8__detail15_Hash_code_baseIcSt4pairIKciENS_10_Select1stESt4hashIcENS_18_Mod_range_hashingENS_20_Default_ranged_hashELb0EE7_M_hashEv:
.LFB6276:
	.cfi_startproc
	stp	x29, x30, [sp, -32]!
	.cfi_def_cfa_offset 32
	.cfi_offset 29, -32
	.cfi_offset 30, -24
	mov	x29, sp
	str	x0, [sp, 24]
	ldr	x0, [sp, 24]
	bl	_ZNKSt8__detail21_Hashtable_ebo_helperILi1ESt4hashIcELb1EE7_M_cgetEv
	ldp	x29, x30, [sp], 32
	.cfi_restore 30
	.cfi_restore 29
	.cfi_def_cfa_offset 0
	ret
	.cfi_endproc
.LFE6276:
	.size	_ZNKSt8__detail15_Hash_code_baseIcSt4pairIKciENS_10_Select1stESt4hashIcENS_18_Mod_range_hashingENS_20_Default_ranged_hashELb0EE7_M_hashEv, .-_ZNKSt8__detail15_Hash_code_baseIcSt4pairIKciENS_10_Select1stESt4hashIcENS_18_Mod_range_hashingENS_20_Default_ranged_hashELb0EE7_M_hashEv
	.section	.text._ZNKSt8__detail15_Hash_code_baseIcSt4pairIKciENS_10_Select1stESt4hashIcENS_18_Mod_range_hashingENS_20_Default_ranged_hashELb0EE15_M_bucket_indexEmm,"axG",@progbits,_ZNKSt8__detail15_Hash_code_baseIcSt4pairIKciENS_10_Select1stESt4hashIcENS_18_Mod_range_hashingENS_20_Default_ranged_hashELb0EE15_M_bucket_indexEmm,comdat
	.align	2
	.weak	_ZNKSt8__detail15_Hash_code_baseIcSt4pairIKciENS_10_Select1stESt4hashIcENS_18_Mod_range_hashingENS_20_Default_ranged_hashELb0EE15_M_bucket_indexEmm
	.type	_ZNKSt8__detail15_Hash_code_baseIcSt4pairIKciENS_10_Select1stESt4hashIcENS_18_Mod_range_hashingENS_20_Default_ranged_hashELb0EE15_M_bucket_indexEmm, %function
_ZNKSt8__detail15_Hash_code_baseIcSt4pairIKciENS_10_Select1stESt4hashIcENS_18_Mod_range_hashingENS_20_Default_ranged_hashELb0EE15_M_bucket_indexEmm:
.LFB6277:
	.cfi_startproc
	stp	x29, x30, [sp, -64]!
	.cfi_def_cfa_offset 64
	.cfi_offset 29, -64
	.cfi_offset 30, -56
	mov	x29, sp
	str	x0, [sp, 40]
	str	x1, [sp, 32]
	str	x2, [sp, 24]
	adrp	x0, :got:__stack_chk_guard
	ldr	x0, [x0, #:got_lo12:__stack_chk_guard]
	ldr	x1, [x0]
	str	x1, [sp, 56]
	mov	x1, 0
	add	x0, sp, 48
	ldr	x2, [sp, 24]
	ldr	x1, [sp, 32]
	bl	_ZNKSt8__detail18_Mod_range_hashingclEmm
	mov	x1, x0
	adrp	x0, :got:__stack_chk_guard
	ldr	x0, [x0, #:got_lo12:__stack_chk_guard]
	ldr	x3, [sp, 56]
	ldr	x2, [x0]
	subs	x3, x3, x2
	mov	x2, 0
	beq	.L430
	bl	__stack_chk_fail
.L430:
	mov	x0, x1
	ldp	x29, x30, [sp], 64
	.cfi_restore 30
	.cfi_restore 29
	.cfi_def_cfa_offset 0
	ret
	.cfi_endproc
.LFE6277:
	.size	_ZNKSt8__detail15_Hash_code_baseIcSt4pairIKciENS_10_Select1stESt4hashIcENS_18_Mod_range_hashingENS_20_Default_ranged_hashELb0EE15_M_bucket_indexEmm, .-_ZNKSt8__detail15_Hash_code_baseIcSt4pairIKciENS_10_Select1stESt4hashIcENS_18_Mod_range_hashingENS_20_Default_ranged_hashELb0EE15_M_bucket_indexEmm
	.section	.text._ZNKSt10_HashtableIcSt4pairIKciESaIS2_ENSt8__detail10_Select1stESt8equal_toIcESt4hashIcENS4_18_Mod_range_hashingENS4_20_Default_ranged_hashENS4_20_Prime_rehash_policyENS4_17_Hashtable_traitsILb0ELb0ELb1EEEE19_M_find_before_nodeEmRS1_m,"axG",@progbits,_ZNKSt10_HashtableIcSt4pairIKciESaIS2_ENSt8__detail10_Select1stESt8equal_toIcESt4hashIcENS4_18_Mod_range_hashingENS4_20_Default_ranged_hashENS4_20_Prime_rehash_policyENS4_17_Hashtable_traitsILb0ELb0ELb1EEEE19_M_find_before_nodeEmRS1_m,comdat
	.align	2
	.weak	_ZNKSt10_HashtableIcSt4pairIKciESaIS2_ENSt8__detail10_Select1stESt8equal_toIcESt4hashIcENS4_18_Mod_range_hashingENS4_20_Default_ranged_hashENS4_20_Prime_rehash_policyENS4_17_Hashtable_traitsILb0ELb0ELb1EEEE19_M_find_before_nodeEmRS1_m
	.type	_ZNKSt10_HashtableIcSt4pairIKciESaIS2_ENSt8__detail10_Select1stESt8equal_toIcESt4hashIcENS4_18_Mod_range_hashingENS4_20_Default_ranged_hashENS4_20_Prime_rehash_policyENS4_17_Hashtable_traitsILb0ELb0ELb1EEEE19_M_find_before_nodeEmRS1_m, %function
_ZNKSt10_HashtableIcSt4pairIKciESaIS2_ENSt8__detail10_Select1stESt8equal_toIcESt4hashIcENS4_18_Mod_range_hashingENS4_20_Default_ranged_hashENS4_20_Prime_rehash_policyENS4_17_Hashtable_traitsILb0ELb0ELb1EEEE19_M_find_before_nodeEmRS1_m:
.LFB6278:
	.cfi_startproc
	stp	x29, x30, [sp, -64]!
	.cfi_def_cfa_offset 64
	.cfi_offset 29, -64
	.cfi_offset 30, -56
	mov	x29, sp
	str	x0, [sp, 40]
	str	x1, [sp, 32]
	str	x2, [sp, 24]
	str	x3, [sp, 16]
	ldr	x0, [sp, 40]
	ldr	x1, [x0]
	ldr	x0, [sp, 32]
	lsl	x0, x0, 3
	add	x0, x1, x0
	ldr	x0, [x0]
	str	x0, [sp, 48]
	ldr	x0, [sp, 48]
	cmp	x0, 0
	bne	.L432
	mov	x0, 0
	b	.L433
.L432:
	ldr	x0, [sp, 48]
	ldr	x0, [x0]
	str	x0, [sp, 56]
.L440:
	ldr	x0, [sp, 56]
	add	x0, x0, 8
	mov	x3, x0
	ldr	x2, [sp, 16]
	ldr	x1, [sp, 24]
	ldr	x0, [sp, 40]
	bl	_ZNKSt8__detail15_Hashtable_baseIcSt4pairIKciENS_10_Select1stESt8equal_toIcESt4hashIcENS_18_Mod_range_hashingENS_20_Default_ranged_hashENS_17_Hashtable_traitsILb0ELb0ELb1EEEE9_M_equalsERS2_mRKNS_16_Hash_node_valueIS3_Lb0EEE
