	.arch armv8-a
	.file	"Utils.cpp"
	.text
	.section	.text._ZNSt11char_traitsIcE6lengthEPKc,"axG",@progbits,_ZNSt11char_traitsIcE6lengthEPKc,comdat
	.align	2
	.weak	_ZNSt11char_traitsIcE6lengthEPKc
	.type	_ZNSt11char_traitsIcE6lengthEPKc, %function
_ZNSt11char_traitsIcE6lengthEPKc:
.LFB407:
	.cfi_startproc
	stp	x29, x30, [sp, -48]!
	.cfi_def_cfa_offset 48
	.cfi_offset 29, -48
	.cfi_offset 30, -40
	mov	x29, sp
	str	x0, [sp, 24]
	ldr	x0, [sp, 24]
	str	x0, [sp, 40]
	mov	w0, 0
	cmp	w0, 0
	beq	.L3
	ldr	x0, [sp, 24]
	bl	_ZN9__gnu_cxx11char_traitsIcE6lengthEPKc
	b	.L4
.L3:
	ldr	x0, [sp, 24]
	bl	strlen
	nop
.L4:
	ldp	x29, x30, [sp], 48
	.cfi_restore 30
	.cfi_restore 29
	.cfi_def_cfa_offset 0
	ret
	.cfi_endproc
.LFE407:
	.size	_ZNSt11char_traitsIcE6lengthEPKc, .-_ZNSt11char_traitsIcE6lengthEPKc
	.section	.text._ZStorSt12_Ios_IostateS_,"axG",@progbits,_ZStorSt12_Ios_IostateS_,comdat
	.align	2
	.weak	_ZStorSt12_Ios_IostateS_
	.type	_ZStorSt12_Ios_IostateS_, %function
_ZStorSt12_Ios_IostateS_:
.LFB1503:
	.cfi_startproc
	sub	sp, sp, #16
	.cfi_def_cfa_offset 16
	str	w0, [sp, 12]
	str	w1, [sp, 8]
	ldr	w1, [sp, 12]
	ldr	w0, [sp, 8]
	orr	w0, w1, w0
	add	sp, sp, 16
	.cfi_def_cfa_offset 0
	ret
	.cfi_endproc
.LFE1503:
	.size	_ZStorSt12_Ios_IostateS_, .-_ZStorSt12_Ios_IostateS_
	.section	.text._ZStoRRSt12_Ios_IostateS_,"axG",@progbits,_ZStoRRSt12_Ios_IostateS_,comdat
	.align	2
	.weak	_ZStoRRSt12_Ios_IostateS_
	.type	_ZStoRRSt12_Ios_IostateS_, %function
_ZStoRRSt12_Ios_IostateS_:
.LFB1506:
	.cfi_startproc
	stp	x29, x30, [sp, -32]!
	.cfi_def_cfa_offset 32
	.cfi_offset 29, -32
	.cfi_offset 30, -24
	mov	x29, sp
	str	x0, [sp, 24]
	str	w1, [sp, 20]
	ldr	x0, [sp, 24]
	ldr	w0, [x0]
	ldr	w1, [sp, 20]
	bl	_ZStorSt12_Ios_IostateS_
	mov	w1, w0
	ldr	x0, [sp, 24]
	str	w1, [x0]
	ldr	x0, [sp, 24]
	ldp	x29, x30, [sp], 32
	.cfi_restore 30
	.cfi_restore 29
	.cfi_def_cfa_offset 0
	ret
	.cfi_endproc
.LFE1506:
	.size	_ZStoRRSt12_Ios_IostateS_, .-_ZStoRRSt12_Ios_IostateS_
	.section	.text._ZNKSt8ios_base6getlocEv,"axG",@progbits,_ZNKSt8ios_base6getlocEv,comdat
	.align	2
	.weak	_ZNKSt8ios_base6getlocEv
	.type	_ZNKSt8ios_base6getlocEv, %function
_ZNKSt8ios_base6getlocEv:
.LFB1528:
	.cfi_startproc
	stp	x29, x30, [sp, -48]!
	.cfi_def_cfa_offset 48
	.cfi_offset 29, -48
	.cfi_offset 30, -40
	mov	x29, sp
	str	x19, [sp, 16]
	.cfi_offset 19, -32
	mov	x19, x8
	str	x0, [sp, 40]
	ldr	x0, [sp, 40]
	add	x0, x0, 208
	mov	x1, x0
	mov	x0, x19
	bl	_ZNSt6localeC1ERKS_
	mov	x0, x19
	ldr	x19, [sp, 16]
	ldp	x29, x30, [sp], 48
	.cfi_restore 30
	.cfi_restore 29
	.cfi_restore 19
	.cfi_def_cfa_offset 0
	ret
	.cfi_endproc
.LFE1528:
	.size	_ZNKSt8ios_base6getlocEv, .-_ZNKSt8ios_base6getlocEv
	.local	_ZStL8__ioinit
	.comm	_ZStL8__ioinit,1,8
	.section	.rodata
	.align	2
	.type	_ZN9__gnu_cxxL21__default_lock_policyE, %object
	.size	_ZN9__gnu_cxxL21__default_lock_policyE, 4
_ZN9__gnu_cxxL21__default_lock_policyE:
	.word	2
	.align	3
	.type	_ZN6__pstl9execution2v1L3seqE, %object
	.size	_ZN6__pstl9execution2v1L3seqE, 1
_ZN6__pstl9execution2v1L3seqE:
	.zero	1
	.align	3
	.type	_ZN6__pstl9execution2v1L3parE, %object
	.size	_ZN6__pstl9execution2v1L3parE, 1
_ZN6__pstl9execution2v1L3parE:
	.zero	1
	.align	3
	.type	_ZN6__pstl9execution2v1L9par_unseqE, %object
	.size	_ZN6__pstl9execution2v1L9par_unseqE, 1
_ZN6__pstl9execution2v1L9par_unseqE:
	.zero	1
	.align	3
	.type	_ZN6__pstl9execution2v1L5unseqE, %object
	.size	_ZN6__pstl9execution2v1L5unseqE, 1
_ZN6__pstl9execution2v1L5unseqE:
	.zero	1
	.section	.text._ZNKSt6chrono8durationIlSt5ratioILl1ELl1000000000EEE5countEv,"axG",@progbits,_ZNKSt6chrono8durationIlSt5ratioILl1ELl1000000000EEE5countEv,comdat
	.align	2
	.weak	_ZNKSt6chrono8durationIlSt5ratioILl1ELl1000000000EEE5countEv
	.type	_ZNKSt6chrono8durationIlSt5ratioILl1ELl1000000000EEE5countEv, %function
_ZNKSt6chrono8durationIlSt5ratioILl1ELl1000000000EEE5countEv:
.LFB3052:
	.cfi_startproc
	sub	sp, sp, #16
	.cfi_def_cfa_offset 16
	str	x0, [sp, 8]
	ldr	x0, [sp, 8]
	ldr	x0, [x0]
	add	sp, sp, 16
	.cfi_def_cfa_offset 0
	ret
	.cfi_endproc
.LFE3052:
	.size	_ZNKSt6chrono8durationIlSt5ratioILl1ELl1000000000EEE5countEv, .-_ZNKSt6chrono8durationIlSt5ratioILl1ELl1000000000EEE5countEv
	.section	.text._ZNSt6chrono8durationIlSt5ratioILl1ELl1000000000EEEC1IlvEERKT_,"axG",@progbits,_ZNSt6chrono8durationIlSt5ratioILl1ELl1000000000EEEC1IlvEERKT_,comdat
	.align	2
	.weak	_ZNSt6chrono8durationIlSt5ratioILl1ELl1000000000EEEC1IlvEERKT_
	.type	_ZNSt6chrono8durationIlSt5ratioILl1ELl1000000000EEEC1IlvEERKT_, %function
_ZNSt6chrono8durationIlSt5ratioILl1ELl1000000000EEEC1IlvEERKT_:
.LFB3057:
	.cfi_startproc
	sub	sp, sp, #16
	.cfi_def_cfa_offset 16
	str	x0, [sp, 8]
	str	x1, [sp]
	ldr	x0, [sp]
	ldr	x1, [x0]
	ldr	x0, [sp, 8]
	str	x1, [x0]
	nop
	add	sp, sp, 16
	.cfi_def_cfa_offset 0
	ret
	.cfi_endproc
.LFE3057:
	.size	_ZNSt6chrono8durationIlSt5ratioILl1ELl1000000000EEEC1IlvEERKT_, .-_ZNSt6chrono8durationIlSt5ratioILl1ELl1000000000EEEC1IlvEERKT_
	.section	.text._ZNSt6chrono3_V212system_clock9to_time_tERKNS_10time_pointIS1_NS_8durationIlSt5ratioILl1ELl1000000000EEEEEE,"axG",@progbits,_ZNSt6chrono3_V212system_clock9to_time_tERKNS_10time_pointIS1_NS_8durationIlSt5ratioILl1ELl1000000000EEEEEE,comdat
	.align	2
	.weak	_ZNSt6chrono3_V212system_clock9to_time_tERKNS_10time_pointIS1_NS_8durationIlSt5ratioILl1ELl1000000000EEEEEE
	.type	_ZNSt6chrono3_V212system_clock9to_time_tERKNS_10time_pointIS1_NS_8durationIlSt5ratioILl1ELl1000000000EEEEEE, %function
_ZNSt6chrono3_V212system_clock9to_time_tERKNS_10time_pointIS1_NS_8durationIlSt5ratioILl1ELl1000000000EEEEEE:
.LFB3060:
	.cfi_startproc
	.cfi_personality 0x9b,DW.ref.__gxx_personality_v0
	.cfi_lsda 0x1b,.LLSDA3060
	stp	x29, x30, [sp, -64]!
	.cfi_def_cfa_offset 64
	.cfi_offset 29, -64
	.cfi_offset 30, -56
	mov	x29, sp
	str	x0, [sp, 24]
	adrp	x0, :got:__stack_chk_guard
	ldr	x0, [x0, #:got_lo12:__stack_chk_guard]
	ldr	x1, [x0]
	str	x1, [sp, 56]
	mov	x1, 0
	ldr	x0, [sp, 24]
	bl	_ZNKSt6chrono10time_pointINS_3_V212system_clockENS_8durationIlSt5ratioILl1ELl1000000000EEEEE16time_since_epochEv
	str	x0, [sp, 40]
	add	x0, sp, 40
	bl	_ZNSt6chrono13duration_castINS_8durationIlSt5ratioILl1ELl1EEEElS2_ILl1ELl1000000000EEEENSt9enable_ifIXsrNS_13__is_durationIT_EE5valueES8_E4typeERKNS1_IT0_T1_EE
	str	x0, [sp, 48]
	add	x0, sp, 48
	bl	_ZNKSt6chrono8durationIlSt5ratioILl1ELl1EEE5countEv
	mov	x1, x0
	adrp	x0, :got:__stack_chk_guard
	ldr	x0, [x0, #:got_lo12:__stack_chk_guard]
	ldr	x3, [sp, 56]
	ldr	x2, [x0]
	subs	x3, x3, x2
	mov	x2, 0
	beq	.L16
	bl	__stack_chk_fail
.L16:
	mov	x0, x1
	ldp	x29, x30, [sp], 64
	.cfi_restore 30
	.cfi_restore 29
	.cfi_def_cfa_offset 0
	ret
	.cfi_endproc
.LFE3060:
	.global	__gxx_personality_v0
	.section	.gcc_except_table._ZNSt6chrono3_V212system_clock9to_time_tERKNS_10time_pointIS1_NS_8durationIlSt5ratioILl1ELl1000000000EEEEEE,"aG",@progbits,_ZNSt6chrono3_V212system_clock9to_time_tERKNS_10time_pointIS1_NS_8durationIlSt5ratioILl1ELl1000000000EEEEEE,comdat
.LLSDA3060:
	.byte	0xff
	.byte	0xff
	.byte	0x1
	.uleb128 .LLSDACSE3060-.LLSDACSB3060
.LLSDACSB3060:
.LLSDACSE3060:
	.section	.text._ZNSt6chrono3_V212system_clock9to_time_tERKNS_10time_pointIS1_NS_8durationIlSt5ratioILl1ELl1000000000EEEEEE,"axG",@progbits,_ZNSt6chrono3_V212system_clock9to_time_tERKNS_10time_pointIS1_NS_8durationIlSt5ratioILl1ELl1000000000EEEEEE,comdat
	.size	_ZNSt6chrono3_V212system_clock9to_time_tERKNS_10time_pointIS1_NS_8durationIlSt5ratioILl1ELl1000000000EEEEEE, .-_ZNSt6chrono3_V212system_clock9to_time_tERKNS_10time_pointIS1_NS_8durationIlSt5ratioILl1ELl1000000000EEEEEE
	.section	.text._ZNSt6chrono8durationIlSt5ratioILl1ELl1EEEC1IlvEERKT_,"axG",@progbits,_ZNSt6chrono8durationIlSt5ratioILl1ELl1EEEC1IlvEERKT_,comdat
	.align	2
	.weak	_ZNSt6chrono8durationIlSt5ratioILl1ELl1EEEC1IlvEERKT_
	.type	_ZNSt6chrono8durationIlSt5ratioILl1ELl1EEEC1IlvEERKT_, %function
_ZNSt6chrono8durationIlSt5ratioILl1ELl1EEEC1IlvEERKT_:
.LFB3078:
	.cfi_startproc
	sub	sp, sp, #16
	.cfi_def_cfa_offset 16
	str	x0, [sp, 8]
	str	x1, [sp]
	ldr	x0, [sp]
	ldr	x1, [x0]
	ldr	x0, [sp, 8]
	str	x1, [x0]
	nop
	add	sp, sp, 16
	.cfi_def_cfa_offset 0
	ret
	.cfi_endproc
.LFE3078:
	.size	_ZNSt6chrono8durationIlSt5ratioILl1ELl1EEEC1IlvEERKT_, .-_ZNSt6chrono8durationIlSt5ratioILl1ELl1EEEC1IlvEERKT_
	.text
	.align	2
	.global	_Z1pv
	.type	_Z1pv, %function
_Z1pv:
.LFB3354:
	.cfi_startproc
	nop
	ret
	.cfi_endproc
.LFE3354:
	.size	_Z1pv, .-_Z1pv
	.section	.rodata
	.align	3
.LC0:
	.string	"%c %Z"
	.text
	.align	2
	.global	_ZN5Timer5startEv
	.type	_ZN5Timer5startEv, %function
_ZN5Timer5startEv:
.LFB3355:
	.cfi_startproc
	stp	x29, x30, [sp, -80]!
	.cfi_def_cfa_offset 80
	.cfi_offset 29, -80
	.cfi_offset 30, -72
	mov	x29, sp
	str	x19, [sp, 16]
	.cfi_offset 19, -64
	str	x0, [sp, 40]
	adrp	x0, :got:__stack_chk_guard
	ldr	x0, [x0, #:got_lo12:__stack_chk_guard]
	ldr	x1, [x0]
	str	x1, [sp, 72]
	mov	x1, 0
	ldr	x19, [sp, 40]
	bl	_ZNSt6chrono3_V212system_clock3nowEv
	str	x0, [x19]
	ldr	x0, [sp, 40]
	bl	_ZNSt6chrono3_V212system_clock9to_time_tERKNS_10time_pointIS1_NS_8durationIlSt5ratioILl1ELl1000000000EEEEEE
	str	x0, [sp, 56]
	add	x0, sp, 56
	bl	localtime
	str	x0, [sp, 64]
	adrp	x0, .LC0
	add	x1, x0, :lo12:.LC0
	ldr	x0, [sp, 64]
	bl	_ZSt8put_timeIcESt9_Put_timeIT_EPK2tmPKS1_
	mov	x2, x1
	mov	x1, x0
	adrp	x0, :got:_ZSt4cout
	ldr	x0, [x0, #:got_lo12:_ZSt4cout]
	bl	_ZStlsIcSt11char_traitsIcEERSt13basic_ostreamIT_T0_ES6_St9_Put_timeIS3_E
	mov	x2, x0
	adrp	x0, :got:_ZSt4endlIcSt11char_traitsIcEERSt13basic_ostreamIT_T0_ES6_
	ldr	x1, [x0, #:got_lo12:_ZSt4endlIcSt11char_traitsIcEERSt13basic_ostreamIT_T0_ES6_]
	mov	x0, x2
	bl	_ZNSolsEPFRSoS_E
	nop
	adrp	x0, :got:__stack_chk_guard
	ldr	x0, [x0, #:got_lo12:__stack_chk_guard]
	ldr	x2, [sp, 72]
	ldr	x1, [x0]
	subs	x2, x2, x1
	mov	x1, 0
	beq	.L20
	bl	__stack_chk_fail
.L20:
	ldr	x19, [sp, 16]
	ldp	x29, x30, [sp], 80
	.cfi_restore 30
	.cfi_restore 29
	.cfi_restore 19
	.cfi_def_cfa_offset 0
	ret
	.cfi_endproc
.LFE3355:
	.size	_ZN5Timer5startEv, .-_ZN5Timer5startEv
	.section	.text._ZNKSt6chrono8durationIlSt5ratioILl1ELl1000000EEE5countEv,"axG",@progbits,_ZNKSt6chrono8durationIlSt5ratioILl1ELl1000000EEE5countEv,comdat
	.align	2
	.weak	_ZNKSt6chrono8durationIlSt5ratioILl1ELl1000000EEE5countEv
	.type	_ZNKSt6chrono8durationIlSt5ratioILl1ELl1000000EEE5countEv, %function
_ZNKSt6chrono8durationIlSt5ratioILl1ELl1000000EEE5countEv:
.LFB3357:
	.cfi_startproc
	sub	sp, sp, #16
	.cfi_def_cfa_offset 16
	str	x0, [sp, 8]
	ldr	x0, [sp, 8]
	ldr	x0, [x0]
	add	sp, sp, 16
	.cfi_def_cfa_offset 0
	ret
	.cfi_endproc
.LFE3357:
	.size	_ZNKSt6chrono8durationIlSt5ratioILl1ELl1000000EEE5countEv, .-_ZNKSt6chrono8durationIlSt5ratioILl1ELl1000000EEE5countEv
	.section	.rodata
	.align	3
.LC1:
	.string	"\350\212\261\350\264\271\344\272\206"
	.align	3
.LC2:
	.string	"\347\247\222"
	.text
	.align	2
	.global	_ZN5Timer3endEv
	.type	_ZN5Timer3endEv, %function
_ZN5Timer3endEv:
.LFB3356:
	.cfi_startproc
	stp	x29, x30, [sp, -96]!
	.cfi_def_cfa_offset 96
	.cfi_offset 29, -96
	.cfi_offset 30, -88
	mov	x29, sp
	str	x19, [sp, 16]
	.cfi_offset 19, -80
	str	x0, [sp, 40]
	adrp	x0, :got:__stack_chk_guard
	ldr	x0, [x0, #:got_lo12:__stack_chk_guard]
	ldr	x1, [x0]
	str	x1, [sp, 88]
	mov	x1, 0
	bl	_ZNSt6chrono3_V212system_clock3nowEv
	str	x0, [sp, 48]
	add	x0, sp, 48
	bl	_ZNSt6chrono3_V212system_clock9to_time_tERKNS_10time_pointIS1_NS_8durationIlSt5ratioILl1ELl1000000000EEEEEE
	str	x0, [sp, 56]
	add	x0, sp, 56
	bl	localtime
	str	x0, [sp, 80]
	adrp	x0, .LC0
	add	x1, x0, :lo12:.LC0
	ldr	x0, [sp, 80]
	bl	_ZSt8put_timeIcESt9_Put_timeIT_EPK2tmPKS1_
	mov	x2, x1
	mov	x1, x0
	adrp	x0, :got:_ZSt4cout
	ldr	x0, [x0, #:got_lo12:_ZSt4cout]
	bl	_ZStlsIcSt11char_traitsIcEERSt13basic_ostreamIT_T0_ES6_St9_Put_timeIS3_E
	mov	x2, x0
	adrp	x0, :got:_ZSt4endlIcSt11char_traitsIcEERSt13basic_ostreamIT_T0_ES6_
	ldr	x1, [x0, #:got_lo12:_ZSt4endlIcSt11char_traitsIcEERSt13basic_ostreamIT_T0_ES6_]
	mov	x0, x2
	bl	_ZNSolsEPFRSoS_E
	ldr	x1, [sp, 40]
	add	x0, sp, 48
	bl	_ZNSt6chronomiINS_3_V212system_clockENS_8durationIlSt5ratioILl1ELl1000000000EEEES6_EENSt11common_typeIJT0_T1_EE4typeERKNS_10time_pointIT_S8_EERKNSC_ISD_S9_EE
	str	x0, [sp, 72]
	add	x0, sp, 72
	bl	_ZNSt6chrono13duration_castINS_8durationIlSt5ratioILl1ELl1000000EEEElS2_ILl1ELl1000000000EEEENSt9enable_ifIXsrNS_13__is_durationIT_EE5valueES8_E4typeERKNS1_IT0_T1_EE
	str	x0, [sp, 64]
	adrp	x0, .LC1
	add	x1, x0, :lo12:.LC1
	adrp	x0, :got:_ZSt4cout
	ldr	x0, [x0, #:got_lo12:_ZSt4cout]
	bl	_ZStlsISt11char_traitsIcEERSt13basic_ostreamIcT_ES5_PKc
	mov	x19, x0
	add	x0, sp, 64
	bl	_ZNKSt6chrono8durationIlSt5ratioILl1ELl1000000EEE5countEv
	scvtf	d0, x0
	mov	x0, 145685290680320
	movk	x0, 0x412e, lsl 48
	fmov	d1, x0
	fdiv	d0, d0, d1
	mov	x0, x19
	bl	_ZNSolsEd
	mov	x2, x0
	adrp	x0, .LC2
	add	x1, x0, :lo12:.LC2
	mov	x0, x2
	bl	_ZStlsISt11char_traitsIcEERSt13basic_ostreamIcT_ES5_PKc
	mov	x2, x0
	adrp	x0, :got:_ZSt4endlIcSt11char_traitsIcEERSt13basic_ostreamIT_T0_ES6_
	ldr	x1, [x0, #:got_lo12:_ZSt4endlIcSt11char_traitsIcEERSt13basic_ostreamIT_T0_ES6_]
	mov	x0, x2
	bl	_ZNSolsEPFRSoS_E
	nop
	adrp	x0, :got:__stack_chk_guard
	ldr	x0, [x0, #:got_lo12:__stack_chk_guard]
	ldr	x2, [sp, 88]
	ldr	x1, [x0]
	subs	x2, x2, x1
	mov	x1, 0
	beq	.L24
	bl	__stack_chk_fail
.L24:
	ldr	x19, [sp, 16]
	ldp	x29, x30, [sp], 96
	.cfi_restore 30
	.cfi_restore 29
	.cfi_restore 19
	.cfi_def_cfa_offset 0
	ret
	.cfi_endproc
.LFE3356:
	.size	_ZN5Timer3endEv, .-_ZN5Timer3endEv
	.section	.rodata
	.align	3
.LC3:
	.string	"%D %T"
	.align	3
.LC4:
	.string	"file : "
	.align	3
.LC5:
	.string	"in line : "
	.align	3
.LC6:
	.string	"Current time: %s.%09ld UTC\n"
	.text
	.align	2
	.global	_ZN5Timer9printTimeERKNSt7__cxx1112basic_stringIcSt11char_traitsIcESaIcEEEi
	.type	_ZN5Timer9printTimeERKNSt7__cxx1112basic_stringIcSt11char_traitsIcESaIcEEEi, %function
_ZN5Timer9printTimeERKNSt7__cxx1112basic_stringIcSt11char_traitsIcESaIcEEEi:
.LFB3358:
	.cfi_startproc
	stp	x29, x30, [sp, -160]!
	.cfi_def_cfa_offset 160
	.cfi_offset 29, -160
	.cfi_offset 30, -152
	mov	x29, sp
	str	x0, [sp, 24]
	str	w1, [sp, 20]
	adrp	x0, :got:__stack_chk_guard
	ldr	x0, [x0, #:got_lo12:__stack_chk_guard]
	ldr	x1, [x0]
	str	x1, [sp, 152]
	mov	x1, 0
	add	x0, sp, 32
	mov	w1, 1
	bl	timespec_get
	add	x0, sp, 32
	bl	gmtime
	add	x4, sp, 48
	mov	x3, x0
	adrp	x0, .LC3
	add	x2, x0, :lo12:.LC3
	mov	x1, 100
	mov	x0, x4
	bl	strftime
	adrp	x0, .LC4
	add	x1, x0, :lo12:.LC4
	adrp	x0, :got:_ZSt4cout
	ldr	x0, [x0, #:got_lo12:_ZSt4cout]
	bl	_ZStlsISt11char_traitsIcEERSt13basic_ostreamIcT_ES5_PKc
	ldr	x1, [sp, 24]
	bl	_ZStlsIcSt11char_traitsIcESaIcEERSt13basic_ostreamIT_T0_ES7_RKNSt7__cxx1112basic_stringIS4_S5_T1_EE
	mov	x2, x0
	adrp	x0, :got:_ZSt4endlIcSt11char_traitsIcEERSt13basic_ostreamIT_T0_ES6_
	ldr	x1, [x0, #:got_lo12:_ZSt4endlIcSt11char_traitsIcEERSt13basic_ostreamIT_T0_ES6_]
	mov	x0, x2
	bl	_ZNSolsEPFRSoS_E
	mov	x2, x0
	adrp	x0, .LC5
	add	x1, x0, :lo12:.LC5
	mov	x0, x2
	bl	_ZStlsISt11char_traitsIcEERSt13basic_ostreamIcT_ES5_PKc
	ldr	w1, [sp, 20]
	bl	_ZNSolsEi
	mov	x2, x0
	adrp	x0, :got:_ZSt4endlIcSt11char_traitsIcEERSt13basic_ostreamIT_T0_ES6_
	ldr	x1, [x0, #:got_lo12:_ZSt4endlIcSt11char_traitsIcEERSt13basic_ostreamIT_T0_ES6_]
	mov	x0, x2
	bl	_ZNSolsEPFRSoS_E
	ldr	x1, [sp, 40]
	add	x0, sp, 48
	mov	x2, x1
	mov	x1, x0
	adrp	x0, .LC6
	add	x0, x0, :lo12:.LC6
	bl	printf
	nop
	adrp	x0, :got:__stack_chk_guard
	ldr	x0, [x0, #:got_lo12:__stack_chk_guard]
	ldr	x2, [sp, 152]
	ldr	x1, [x0]
	subs	x2, x2, x1
	mov	x1, 0
	beq	.L26
	bl	__stack_chk_fail
.L26:
	ldp	x29, x30, [sp], 160
	.cfi_restore 30
	.cfi_restore 29
	.cfi_def_cfa_offset 0
	ret
	.cfi_endproc
.LFE3358:
	.size	_ZN5Timer9printTimeERKNSt7__cxx1112basic_stringIcSt11char_traitsIcESaIcEEEi, .-_ZN5Timer9printTimeERKNSt7__cxx1112basic_stringIcSt11char_traitsIcESaIcEEEi
	.section	.text._ZN9__gnu_cxx11char_traitsIcE2eqERKcS3_,"axG",@progbits,_ZN9__gnu_cxx11char_traitsIcE2eqERKcS3_,comdat
	.align	2
	.weak	_ZN9__gnu_cxx11char_traitsIcE2eqERKcS3_
	.type	_ZN9__gnu_cxx11char_traitsIcE2eqERKcS3_, %function
_ZN9__gnu_cxx11char_traitsIcE2eqERKcS3_:
.LFB3360:
	.cfi_startproc
	sub	sp, sp, #16
	.cfi_def_cfa_offset 16
	str	x0, [sp, 8]
	str	x1, [sp]
	ldr	x0, [sp, 8]
	ldrb	w1, [x0]
	ldr	x0, [sp]
	ldrb	w0, [x0]
	cmp	w1, w0
	cset	w0, eq
	and	w0, w0, 255
	add	sp, sp, 16
	.cfi_def_cfa_offset 0
	ret
	.cfi_endproc
.LFE3360:
	.size	_ZN9__gnu_cxx11char_traitsIcE2eqERKcS3_, .-_ZN9__gnu_cxx11char_traitsIcE2eqERKcS3_
	.section	.text._ZN9__gnu_cxx11char_traitsIcE6lengthEPKc,"axG",@progbits,_ZN9__gnu_cxx11char_traitsIcE6lengthEPKc,comdat
	.align	2
	.weak	_ZN9__gnu_cxx11char_traitsIcE6lengthEPKc
	.type	_ZN9__gnu_cxx11char_traitsIcE6lengthEPKc, %function
_ZN9__gnu_cxx11char_traitsIcE6lengthEPKc:
.LFB3359:
	.cfi_startproc
	stp	x29, x30, [sp, -64]!
	.cfi_def_cfa_offset 64
	.cfi_offset 29, -64
	.cfi_offset 30, -56
	mov	x29, sp
	str	x0, [sp, 24]
	adrp	x0, :got:__stack_chk_guard
	ldr	x0, [x0, #:got_lo12:__stack_chk_guard]
	ldr	x1, [x0]
	str	x1, [sp, 56]
	mov	x1, 0
	str	xzr, [sp, 48]
	b	.L30
.L31:
	ldr	x0, [sp, 48]
	add	x0, x0, 1
	str	x0, [sp, 48]
.L30:
	ldr	x1, [sp, 24]
	ldr	x0, [sp, 48]
	add	x0, x1, x0
	strb	wzr, [sp, 47]
	add	x1, sp, 47
	bl	_ZN9__gnu_cxx11char_traitsIcE2eqERKcS3_
	and	w0, w0, 255
	eor	w0, w0, 1
	and	w0, w0, 255
	cmp	w0, 0
	bne	.L31
	ldr	x0, [sp, 48]
	mov	x1, x0
	adrp	x0, :got:__stack_chk_guard
	ldr	x0, [x0, #:got_lo12:__stack_chk_guard]
	ldr	x3, [sp, 56]
	ldr	x2, [x0]
	subs	x3, x3, x2
	mov	x2, 0
	beq	.L33
	bl	__stack_chk_fail
.L33:
	mov	x0, x1
	ldp	x29, x30, [sp], 64
	.cfi_restore 30
	.cfi_restore 29
	.cfi_def_cfa_offset 0
	ret
	.cfi_endproc
.LFE3359:
	.size	_ZN9__gnu_cxx11char_traitsIcE6lengthEPKc, .-_ZN9__gnu_cxx11char_traitsIcE6lengthEPKc
	.section	.text._ZNKSt6chrono10time_pointINS_3_V212system_clockENS_8durationIlSt5ratioILl1ELl1000000000EEEEE16time_since_epochEv,"axG",@progbits,_ZNKSt6chrono10time_pointINS_3_V212system_clockENS_8durationIlSt5ratioILl1ELl1000000000EEEEE16time_since_epochEv,comdat
	.align	2
	.weak	_ZNKSt6chrono10time_pointINS_3_V212system_clockENS_8durationIlSt5ratioILl1ELl1000000000EEEEE16time_since_epochEv
	.type	_ZNKSt6chrono10time_pointINS_3_V212system_clockENS_8durationIlSt5ratioILl1ELl1000000000EEEEE16time_since_epochEv, %function
_ZNKSt6chrono10time_pointINS_3_V212system_clockENS_8durationIlSt5ratioILl1ELl1000000000EEEEE16time_since_epochEv:
.LFB3640:
	.cfi_startproc
	sub	sp, sp, #16
	.cfi_def_cfa_offset 16
	str	x0, [sp, 8]
	ldr	x0, [sp, 8]
	ldr	x0, [x0]
	add	sp, sp, 16
	.cfi_def_cfa_offset 0
	ret
	.cfi_endproc
.LFE3640:
	.size	_ZNKSt6chrono10time_pointINS_3_V212system_clockENS_8durationIlSt5ratioILl1ELl1000000000EEEEE16time_since_epochEv, .-_ZNKSt6chrono10time_pointINS_3_V212system_clockENS_8durationIlSt5ratioILl1ELl1000000000EEEEE16time_since_epochEv
	.section	.text._ZNSt6chrono13duration_castINS_8durationIlSt5ratioILl1ELl1EEEElS2_ILl1ELl1000000000EEEENSt9enable_ifIXsrNS_13__is_durationIT_EE5valueES8_E4typeERKNS1_IT0_T1_EE,"axG",@progbits,_ZNSt6chrono13duration_castINS_8durationIlSt5ratioILl1ELl1EEEElS2_ILl1ELl1000000000EEEENSt9enable_ifIXsrNS_13__is_durationIT_EE5valueES8_E4typeERKNS1_IT0_T1_EE,comdat
	.align	2
	.weak	_ZNSt6chrono13duration_castINS_8durationIlSt5ratioILl1ELl1EEEElS2_ILl1ELl1000000000EEEENSt9enable_ifIXsrNS_13__is_durationIT_EE5valueES8_E4typeERKNS1_IT0_T1_EE
	.type	_ZNSt6chrono13duration_castINS_8durationIlSt5ratioILl1ELl1EEEElS2_ILl1ELl1000000000EEEENSt9enable_ifIXsrNS_13__is_durationIT_EE5valueES8_E4typeERKNS1_IT0_T1_EE, %function
_ZNSt6chrono13duration_castINS_8durationIlSt5ratioILl1ELl1EEEElS2_ILl1ELl1000000000EEEENSt9enable_ifIXsrNS_13__is_durationIT_EE5valueES8_E4typeERKNS1_IT0_T1_EE:
.LFB3641:
	.cfi_startproc
	stp	x29, x30, [sp, -32]!
	.cfi_def_cfa_offset 32
	.cfi_offset 29, -32
	.cfi_offset 30, -24
	mov	x29, sp
	str	x0, [sp, 24]
	ldr	x0, [sp, 24]
	bl	_ZNSt6chrono20__duration_cast_implINS_8durationIlSt5ratioILl1ELl1EEEES2_ILl1ELl1000000000EElLb1ELb0EE6__castIlS5_EES4_RKNS1_IT_T0_EE
	ldp	x29, x30, [sp], 32
	.cfi_restore 30
	.cfi_restore 29
	.cfi_def_cfa_offset 0
	ret
	.cfi_endproc
.LFE3641:
	.size	_ZNSt6chrono13duration_castINS_8durationIlSt5ratioILl1ELl1EEEElS2_ILl1ELl1000000000EEEENSt9enable_ifIXsrNS_13__is_durationIT_EE5valueES8_E4typeERKNS1_IT0_T1_EE, .-_ZNSt6chrono13duration_castINS_8durationIlSt5ratioILl1ELl1EEEElS2_ILl1ELl1000000000EEEENSt9enable_ifIXsrNS_13__is_durationIT_EE5valueES8_E4typeERKNS1_IT0_T1_EE
	.section	.text._ZNKSt6chrono8durationIlSt5ratioILl1ELl1EEE5countEv,"axG",@progbits,_ZNKSt6chrono8durationIlSt5ratioILl1ELl1EEE5countEv,comdat
	.align	2
	.weak	_ZNKSt6chrono8durationIlSt5ratioILl1ELl1EEE5countEv
	.type	_ZNKSt6chrono8durationIlSt5ratioILl1ELl1EEE5countEv, %function
_ZNKSt6chrono8durationIlSt5ratioILl1ELl1EEE5countEv:
.LFB3642:
	.cfi_startproc
	sub	sp, sp, #16
	.cfi_def_cfa_offset 16
	str	x0, [sp, 8]
	ldr	x0, [sp, 8]
	ldr	x0, [x0]
	add	sp, sp, 16
	.cfi_def_cfa_offset 0
	ret
	.cfi_endproc
.LFE3642:
	.size	_ZNKSt6chrono8durationIlSt5ratioILl1ELl1EEE5countEv, .-_ZNKSt6chrono8durationIlSt5ratioILl1ELl1EEE5countEv
	.section	.text._ZSt8put_timeIcESt9_Put_timeIT_EPK2tmPKS1_,"axG",@progbits,_ZSt8put_timeIcESt9_Put_timeIT_EPK2tmPKS1_,comdat
	.align	2
	.weak	_ZSt8put_timeIcESt9_Put_timeIT_EPK2tmPKS1_
	.type	_ZSt8put_timeIcESt9_Put_timeIT_EPK2tmPKS1_, %function
_ZSt8put_timeIcESt9_Put_timeIT_EPK2tmPKS1_:
.LFB3681:
	.cfi_startproc
	sub	sp, sp, #16
	.cfi_def_cfa_offset 16
	str	x0, [sp, 8]
	str	x1, [sp]
	ldr	x2, [sp, 8]
	ldr	x3, [sp]
	mov	x0, x2
	mov	x1, x3
	add	sp, sp, 16
	.cfi_def_cfa_offset 0
	ret
	.cfi_endproc
.LFE3681:
	.size	_ZSt8put_timeIcESt9_Put_timeIT_EPK2tmPKS1_, .-_ZSt8put_timeIcESt9_Put_timeIT_EPK2tmPKS1_
	.section	.text._ZStlsIcSt11char_traitsIcEERSt13basic_ostreamIT_T0_ES6_St9_Put_timeIS3_E,"axG",@progbits,_ZStlsIcSt11char_traitsIcEERSt13basic_ostreamIT_T0_ES6_St9_Put_timeIS3_E,comdat
	.align	2
	.weak	_ZStlsIcSt11char_traitsIcEERSt13basic_ostreamIT_T0_ES6_St9_Put_timeIS3_E
	.type	_ZStlsIcSt11char_traitsIcEERSt13basic_ostreamIT_T0_ES6_St9_Put_timeIS3_E, %function
_ZStlsIcSt11char_traitsIcEERSt13basic_ostreamIT_T0_ES6_St9_Put_timeIS3_E:
.LFB3682:
	.cfi_startproc
	.cfi_personality 0x9b,DW.ref.__gxx_personality_v0
	.cfi_lsda 0x1b,.LLSDA3682
	stp	x29, x30, [sp, -160]!
	.cfi_def_cfa_offset 160
	.cfi_offset 29, -160
	.cfi_offset 30, -152
	mov	x29, sp
	stp	x19, x20, [sp, 16]
	.cfi_offset 19, -144
	.cfi_offset 20, -136
	str	x0, [sp, 56]
	stp	x1, x2, [sp, 40]
	adrp	x0, :got:__stack_chk_guard
	ldr	x0, [x0, #:got_lo12:__stack_chk_guard]
	ldr	x1, [x0]
	str	x1, [sp, 152]
	mov	x1, 0
	add	x0, sp, 104
	ldr	x1, [sp, 56]
.LEHB0:
	bl	_ZNSo6sentryC1ERSo
.LEHE0:
	add	x0, sp, 104
.LEHB1:
	bl	_ZNKSo6sentrycvbEv
.LEHE1:
	and	w0, w0, 255
	cmp	w0, 0
	beq	.L43
	str	wzr, [sp, 76]
	ldr	x19, [sp, 48]
	ldr	x0, [sp, 48]
.LEHB2:
	bl	_ZNSt11char_traitsIcE6lengthEPKc
.LEHE2:
	add	x0, x19, x0
	str	x0, [sp, 80]
	ldr	x0, [sp, 56]
	ldr	x0, [x0]
	sub	x0, x0, #24
	ldr	x0, [x0]
	mov	x1, x0
	ldr	x0, [sp, 56]
	add	x0, x0, x1
	add	x1, sp, 136
	mov	x8, x1
	bl	_ZNKSt8ios_base6getlocEv
	add	x0, sp, 136
.LEHB3:
	bl	_ZSt9use_facetISt8time_putIcSt19ostreambuf_iteratorIcSt11char_traitsIcEEEERKT_RKSt6locale
.LEHE3:
	str	x0, [sp, 88]
	add	x0, sp, 136
	bl	_ZNSt6localeD1Ev
	ldr	x0, [sp, 56]
	ldr	x0, [x0]
	sub	x0, x0, #24
	ldr	x0, [x0]
	mov	x1, x0
	ldr	x0, [sp, 56]
	add	x0, x0, x1
.LEHB4:
	bl	_ZNKSt9basic_iosIcSt11char_traitsIcEE5rdbufEv
	mov	x1, x0
	add	x0, sp, 120
	bl	_ZNSt19ostreambuf_iteratorIcSt11char_traitsIcEEC1EPSt15basic_streambufIcS1_E
	ldr	x0, [sp, 56]
	ldr	x0, [x0]
	sub	x0, x0, #24
	ldr	x0, [x0]
	mov	x1, x0
	ldr	x0, [sp, 56]
	add	x19, x0, x1
	ldr	x0, [sp, 56]
	ldr	x0, [x0]
	sub	x0, x0, #24
	ldr	x0, [x0]
	mov	x1, x0
	ldr	x0, [sp, 56]
	add	x0, x0, x1
	bl	_ZNKSt9basic_iosIcSt11char_traitsIcEE4fillEv
	and	w2, w0, 255
	ldr	x0, [sp, 40]
	ldr	x1, [sp, 48]
	ldr	x7, [sp, 80]
	mov	x6, x1
	mov	x5, x0
	mov	w4, w2
	mov	x3, x19
	ldp	x1, x2, [sp, 120]
	ldr	x0, [sp, 88]
	bl	_ZNKSt8time_putIcSt19ostreambuf_iteratorIcSt11char_traitsIcEEE3putES3_RSt8ios_basecPK2tmPKcSB_
.LEHE4:
	stp	x0, x1, [sp, 136]
	add	x0, sp, 136
	bl	_ZNKSt19ostreambuf_iteratorIcSt11char_traitsIcEE6failedEv
	and	w0, w0, 255
	cmp	w0, 0
	beq	.L44
	add	x0, sp, 76
	mov	w1, 1
	bl	_ZStoRRSt12_Ios_IostateS_
.L44:
	ldr	w0, [sp, 76]
	cmp	w0, 0
	beq	.L43
	ldr	x0, [sp, 56]
	ldr	x0, [x0]
	sub	x0, x0, #24
	ldr	x0, [x0]
	mov	x1, x0
	ldr	x0, [sp, 56]
	add	x0, x0, x1
	ldr	w1, [sp, 76]
.LEHB5:
	bl	_ZNSt9basic_iosIcSt11char_traitsIcEE8setstateESt12_Ios_Iostate
.LEHE5:
.L43:
	ldr	x19, [sp, 56]
	add	x0, sp, 104
	bl	_ZNSo6sentryD1Ev
	mov	x1, x19
	adrp	x0, :got:__stack_chk_guard
	ldr	x0, [x0, #:got_lo12:__stack_chk_guard]
	ldr	x3, [sp, 152]
	ldr	x2, [x0]
	subs	x3, x3, x2
	mov	x2, 0
	beq	.L53
	b	.L59
.L56:
	mov	x20, x0
	mov	x19, x1
	add	x0, sp, 136
	bl	_ZNSt6localeD1Ev
	mov	x0, x20
	mov	x1, x19
	b	.L48
.L55:
.L48:
	cmp	x1, 1
	bne	.L49
	bl	__cxa_begin_catch
	str	x0, [sp, 96]
	ldr	x0, [sp, 56]
	ldr	x0, [x0]
	sub	x0, x0, #24
	ldr	x0, [x0]
	mov	x1, x0
	ldr	x0, [sp, 56]
	add	x0, x0, x1
	mov	w1, 1
.LEHB6:
	bl	_ZNSt9basic_iosIcSt11char_traitsIcEE11_M_setstateESt12_Ios_Iostate
	bl	__cxa_rethrow
.LEHE6:
.L49:
	bl	__cxa_begin_catch
	ldr	x0, [sp, 56]
	ldr	x0, [x0]
	sub	x0, x0, #24
	ldr	x0, [x0]
	mov	x1, x0
	ldr	x0, [sp, 56]
	add	x0, x0, x1
	mov	w1, 1
.LEHB7:
	bl	_ZNSt9basic_iosIcSt11char_traitsIcEE11_M_setstateESt12_Ios_Iostate
.LEHE7:
.LEHB8:
	bl	__cxa_end_catch
.LEHE8:
	b	.L44
.L57:
	mov	x19, x0
	bl	__cxa_end_catch
	b	.L51
.L58:
	mov	x19, x0
	bl	__cxa_end_catch
	b	.L51
.L54:
	mov	x19, x0
.L51:
	add	x0, sp, 104
	bl	_ZNSo6sentryD1Ev
	mov	x0, x19
.LEHB9:
	bl	_Unwind_Resume
.LEHE9:
.L59:
	bl	__stack_chk_fail
.L53:
	mov	x0, x1
	ldp	x19, x20, [sp, 16]
	ldp	x29, x30, [sp], 160
	.cfi_restore 30
	.cfi_restore 29
	.cfi_restore 19
	.cfi_restore 20
	.cfi_def_cfa_offset 0
	ret
	.cfi_endproc
.LFE3682:
	.section	.gcc_except_table._ZStlsIcSt11char_traitsIcEERSt13basic_ostreamIT_T0_ES6_St9_Put_timeIS3_E,"aG",@progbits,_ZStlsIcSt11char_traitsIcEERSt13basic_ostreamIT_T0_ES6_St9_Put_timeIS3_E,comdat
	.align	2
.LLSDA3682:
	.byte	0xff
	.byte	0x9b
	.uleb128 .LLSDATT3682-.LLSDATTD3682
.LLSDATTD3682:
	.byte	0x1
	.uleb128 .LLSDACSE3682-.LLSDACSB3682
.LLSDACSB3682:
	.uleb128 .LEHB0-.LFB3682
	.uleb128 .LEHE0-.LEHB0
	.uleb128 0
	.uleb128 0
	.uleb128 .LEHB1-.LFB3682
	.uleb128 .LEHE1-.LEHB1
	.uleb128 .L54-.LFB3682
	.uleb128 0
	.uleb128 .LEHB2-.LFB3682
	.uleb128 .LEHE2-.LEHB2
	.uleb128 .L55-.LFB3682
	.uleb128 0x3
	.uleb128 .LEHB3-.LFB3682
	.uleb128 .LEHE3-.LEHB3
	.uleb128 .L56-.LFB3682
	.uleb128 0x3
	.uleb128 .LEHB4-.LFB3682
	.uleb128 .LEHE4-.LEHB4
	.uleb128 .L55-.LFB3682
	.uleb128 0x3
	.uleb128 .LEHB5-.LFB3682
	.uleb128 .LEHE5-.LEHB5
	.uleb128 .L54-.LFB3682
	.uleb128 0
	.uleb128 .LEHB6-.LFB3682
	.uleb128 .LEHE6-.LEHB6
	.uleb128 .L57-.LFB3682
	.uleb128 0
	.uleb128 .LEHB7-.LFB3682
	.uleb128 .LEHE7-.LEHB7
	.uleb128 .L58-.LFB3682
	.uleb128 0
	.uleb128 .LEHB8-.LFB3682
	.uleb128 .LEHE8-.LEHB8
	.uleb128 .L54-.LFB3682
	.uleb128 0
	.uleb128 .LEHB9-.LFB3682
	.uleb128 .LEHE9-.LEHB9
	.uleb128 0
	.uleb128 0
.LLSDACSE3682:
	.byte	0x2
	.byte	0
	.byte	0x1
	.byte	0x7d
	.align	2
	.4byte	0

	.4byte	DW.ref._ZTIN10__cxxabiv115__forced_unwindE-.
.LLSDATT3682:
	.section	.text._ZStlsIcSt11char_traitsIcEERSt13basic_ostreamIT_T0_ES6_St9_Put_timeIS3_E,"axG",@progbits,_ZStlsIcSt11char_traitsIcEERSt13basic_ostreamIT_T0_ES6_St9_Put_timeIS3_E,comdat
	.size	_ZStlsIcSt11char_traitsIcEERSt13basic_ostreamIT_T0_ES6_St9_Put_timeIS3_E, .-_ZStlsIcSt11char_traitsIcEERSt13basic_ostreamIT_T0_ES6_St9_Put_timeIS3_E
	.section	.text._ZNSt6chronomiINS_3_V212system_clockENS_8durationIlSt5ratioILl1ELl1000000000EEEES6_EENSt11common_typeIJT0_T1_EE4typeERKNS_10time_pointIT_S8_EERKNSC_ISD_S9_EE,"axG",@progbits,_ZNSt6chronomiINS_3_V212system_clockENS_8durationIlSt5ratioILl1ELl1000000000EEEES6_EENSt11common_typeIJT0_T1_EE4typeERKNS_10time_pointIT_S8_EERKNSC_ISD_S9_EE,comdat
	.align	2
	.weak	_ZNSt6chronomiINS_3_V212system_clockENS_8durationIlSt5ratioILl1ELl1000000000EEEES6_EENSt11common_typeIJT0_T1_EE4typeERKNS_10time_pointIT_S8_EERKNSC_ISD_S9_EE
	.type	_ZNSt6chronomiINS_3_V212system_clockENS_8durationIlSt5ratioILl1ELl1000000000EEEES6_EENSt11common_typeIJT0_T1_EE4typeERKNS_10time_pointIT_S8_EERKNSC_ISD_S9_EE, %function
_ZNSt6chronomiINS_3_V212system_clockENS_8durationIlSt5ratioILl1ELl1000000000EEEES6_EENSt11common_typeIJT0_T1_EE4typeERKNS_10time_pointIT_S8_EERKNSC_ISD_S9_EE:
.LFB3685:
	.cfi_startproc
	stp	x29, x30, [sp, -64]!
	.cfi_def_cfa_offset 64
	.cfi_offset 29, -64
	.cfi_offset 30, -56
	mov	x29, sp
	str	x0, [sp, 24]
	str	x1, [sp, 16]
	adrp	x0, :got:__stack_chk_guard
	ldr	x0, [x0, #:got_lo12:__stack_chk_guard]
	ldr	x1, [x0]
	str	x1, [sp, 56]
	mov	x1, 0
	ldr	x0, [sp, 24]
	bl	_ZNKSt6chrono10time_pointINS_3_V212system_clockENS_8durationIlSt5ratioILl1ELl1000000000EEEEE16time_since_epochEv
	str	x0, [sp, 40]
	ldr	x0, [sp, 16]
	bl	_ZNKSt6chrono10time_pointINS_3_V212system_clockENS_8durationIlSt5ratioILl1ELl1000000000EEEEE16time_since_epochEv
	str	x0, [sp, 48]
	add	x1, sp, 48
	add	x0, sp, 40
	bl	_ZNSt6chronomiIlSt5ratioILl1ELl1000000000EElS2_EENSt11common_typeIJNS_8durationIT_T0_EENS4_IT1_T2_EEEE4typeERKS7_RKSA_
	mov	x1, x0
	adrp	x0, :got:__stack_chk_guard
	ldr	x0, [x0, #:got_lo12:__stack_chk_guard]
	ldr	x3, [sp, 56]
	ldr	x2, [x0]
	subs	x3, x3, x2
	mov	x2, 0
	beq	.L62
	bl	__stack_chk_fail
.L62:
	mov	x0, x1
	ldp	x29, x30, [sp], 64
	.cfi_restore 30
	.cfi_restore 29
	.cfi_def_cfa_offset 0
	ret
	.cfi_endproc
.LFE3685:
	.size	_ZNSt6chronomiINS_3_V212system_clockENS_8durationIlSt5ratioILl1ELl1000000000EEEES6_EENSt11common_typeIJT0_T1_EE4typeERKNS_10time_pointIT_S8_EERKNSC_ISD_S9_EE, .-_ZNSt6chronomiINS_3_V212system_clockENS_8durationIlSt5ratioILl1ELl1000000000EEEES6_EENSt11common_typeIJT0_T1_EE4typeERKNS_10time_pointIT_S8_EERKNSC_ISD_S9_EE
	.section	.text._ZNSt6chrono13duration_castINS_8durationIlSt5ratioILl1ELl1000000EEEElS2_ILl1ELl1000000000EEEENSt9enable_ifIXsrNS_13__is_durationIT_EE5valueES8_E4typeERKNS1_IT0_T1_EE,"axG",@progbits,_ZNSt6chrono13duration_castINS_8durationIlSt5ratioILl1ELl1000000EEEElS2_ILl1ELl1000000000EEEENSt9enable_ifIXsrNS_13__is_durationIT_EE5valueES8_E4typeERKNS1_IT0_T1_EE,comdat
	.align	2
	.weak	_ZNSt6chrono13duration_castINS_8durationIlSt5ratioILl1ELl1000000EEEElS2_ILl1ELl1000000000EEEENSt9enable_ifIXsrNS_13__is_durationIT_EE5valueES8_E4typeERKNS1_IT0_T1_EE
	.type	_ZNSt6chrono13duration_castINS_8durationIlSt5ratioILl1ELl1000000EEEElS2_ILl1ELl1000000000EEEENSt9enable_ifIXsrNS_13__is_durationIT_EE5valueES8_E4typeERKNS1_IT0_T1_EE, %function
_ZNSt6chrono13duration_castINS_8durationIlSt5ratioILl1ELl1000000EEEElS2_ILl1ELl1000000000EEEENSt9enable_ifIXsrNS_13__is_durationIT_EE5valueES8_E4typeERKNS1_IT0_T1_EE:
.LFB3686:
	.cfi_startproc
	stp	x29, x30, [sp, -32]!
	.cfi_def_cfa_offset 32
	.cfi_offset 29, -32
	.cfi_offset 30, -24
	mov	x29, sp
	str	x0, [sp, 24]
	ldr	x0, [sp, 24]
	bl	_ZNSt6chrono20__duration_cast_implINS_8durationIlSt5ratioILl1ELl1000000EEEES2_ILl1ELl1000EElLb1ELb0EE6__castIlS2_ILl1ELl1000000000EEEES4_RKNS1_IT_T0_EE
	ldp	x29, x30, [sp], 32
	.cfi_restore 30
	.cfi_restore 29
	.cfi_def_cfa_offset 0
	ret
	.cfi_endproc
.LFE3686:
	.size	_ZNSt6chrono13duration_castINS_8durationIlSt5ratioILl1ELl1000000EEEElS2_ILl1ELl1000000000EEEENSt9enable_ifIXsrNS_13__is_durationIT_EE5valueES8_E4typeERKNS1_IT0_T1_EE, .-_ZNSt6chrono13duration_castINS_8durationIlSt5ratioILl1ELl1000000EEEElS2_ILl1ELl1000000000EEEENSt9enable_ifIXsrNS_13__is_durationIT_EE5valueES8_E4typeERKNS1_IT0_T1_EE
	.section	.text._ZNSt6chrono20__duration_cast_implINS_8durationIlSt5ratioILl1ELl1EEEES2_ILl1ELl1000000000EElLb1ELb0EE6__castIlS5_EES4_RKNS1_IT_T0_EE,"axG",@progbits,_ZNSt6chrono20__duration_cast_implINS_8durationIlSt5ratioILl1ELl1EEEES2_ILl1ELl1000000000EElLb1ELb0EE6__castIlS5_EES4_RKNS1_IT_T0_EE,comdat
	.align	2
	.weak	_ZNSt6chrono20__duration_cast_implINS_8durationIlSt5ratioILl1ELl1EEEES2_ILl1ELl1000000000EElLb1ELb0EE6__castIlS5_EES4_RKNS1_IT_T0_EE
	.type	_ZNSt6chrono20__duration_cast_implINS_8durationIlSt5ratioILl1ELl1EEEES2_ILl1ELl1000000000EElLb1ELb0EE6__castIlS5_EES4_RKNS1_IT_T0_EE, %function
_ZNSt6chrono20__duration_cast_implINS_8durationIlSt5ratioILl1ELl1EEEES2_ILl1ELl1000000000EElLb1ELb0EE6__castIlS5_EES4_RKNS1_IT_T0_EE:
.LFB3781:
	.cfi_startproc
	stp	x29, x30, [sp, -64]!
	.cfi_def_cfa_offset 64
	.cfi_offset 29, -64
	.cfi_offset 30, -56
	mov	x29, sp
	str	x0, [sp, 24]
	adrp	x0, :got:__stack_chk_guard
	ldr	x0, [x0, #:got_lo12:__stack_chk_guard]
	ldr	x1, [x0]
	str	x1, [sp, 56]
	mov	x1, 0
	ldr	x0, [sp, 24]
	bl	_ZNKSt6chrono8durationIlSt5ratioILl1ELl1000000000EEE5countEv
	mov	x1, 38067
	movk	x1, 0x26d6, lsl 16
	movk	x1, 0xbe8, lsl 32
	movk	x1, 0x112e, lsl 48
	smulh	x1, x0, x1
	asr	x1, x1, 26
	asr	x0, x0, 63
	sub	x0, x1, x0
	str	x0, [sp, 40]
	add	x1, sp, 40
	add	x0, sp, 48
	bl	_ZNSt6chrono8durationIlSt5ratioILl1ELl1EEEC1IlvEERKT_
	ldr	x0, [sp, 48]
	mov	x1, x0
	adrp	x0, :got:__stack_chk_guard
	ldr	x0, [x0, #:got_lo12:__stack_chk_guard]
	ldr	x3, [sp, 56]
	ldr	x2, [x0]
	subs	x3, x3, x2
	mov	x2, 0
	beq	.L67
	bl	__stack_chk_fail
.L67:
	mov	x0, x1
	ldp	x29, x30, [sp], 64
	.cfi_restore 30
	.cfi_restore 29
	.cfi_def_cfa_offset 0
	ret
	.cfi_endproc
.LFE3781:
	.size	_ZNSt6chrono20__duration_cast_implINS_8durationIlSt5ratioILl1ELl1EEEES2_ILl1ELl1000000000EElLb1ELb0EE6__castIlS5_EES4_RKNS1_IT_T0_EE, .-_ZNSt6chrono20__duration_cast_implINS_8durationIlSt5ratioILl1ELl1EEEES2_ILl1ELl1000000000EElLb1ELb0EE6__castIlS5_EES4_RKNS1_IT_T0_EE
	.section	.text._ZNSt19ostreambuf_iteratorIcSt11char_traitsIcEEC2EPSt15basic_streambufIcS1_E,"axG",@progbits,_ZNSt19ostreambuf_iteratorIcSt11char_traitsIcEEC5EPSt15basic_streambufIcS1_E,comdat
	.align	2
	.weak	_ZNSt19ostreambuf_iteratorIcSt11char_traitsIcEEC2EPSt15basic_streambufIcS1_E
	.type	_ZNSt19ostreambuf_iteratorIcSt11char_traitsIcEEC2EPSt15basic_streambufIcS1_E, %function
_ZNSt19ostreambuf_iteratorIcSt11char_traitsIcEEC2EPSt15basic_streambufIcS1_E:
.LFB3797:
	.cfi_startproc
	sub	sp, sp, #16
	.cfi_def_cfa_offset 16
	str	x0, [sp, 8]
	str	x1, [sp]
	ldr	x0, [sp, 8]
	ldr	x1, [sp]
	str	x1, [x0]
	ldr	x0, [sp, 8]
	ldr	x0, [x0]
	cmp	x0, 0
	cset	w0, eq
	and	w1, w0, 255
	ldr	x0, [sp, 8]
	strb	w1, [x0, 8]
	nop
	add	sp, sp, 16
	.cfi_def_cfa_offset 0
	ret
	.cfi_endproc
.LFE3797:
	.size	_ZNSt19ostreambuf_iteratorIcSt11char_traitsIcEEC2EPSt15basic_streambufIcS1_E, .-_ZNSt19ostreambuf_iteratorIcSt11char_traitsIcEEC2EPSt15basic_streambufIcS1_E
	.weak	_ZNSt19ostreambuf_iteratorIcSt11char_traitsIcEEC1EPSt15basic_streambufIcS1_E
	.set	_ZNSt19ostreambuf_iteratorIcSt11char_traitsIcEEC1EPSt15basic_streambufIcS1_E,_ZNSt19ostreambuf_iteratorIcSt11char_traitsIcEEC2EPSt15basic_streambufIcS1_E
	.section	.text._ZNKSt19ostreambuf_iteratorIcSt11char_traitsIcEE6failedEv,"axG",@progbits,_ZNKSt19ostreambuf_iteratorIcSt11char_traitsIcEE6failedEv,comdat
	.align	2
	.weak	_ZNKSt19ostreambuf_iteratorIcSt11char_traitsIcEE6failedEv
	.type	_ZNKSt19ostreambuf_iteratorIcSt11char_traitsIcEE6failedEv, %function
_ZNKSt19ostreambuf_iteratorIcSt11char_traitsIcEE6failedEv:
.LFB3800:
	.cfi_startproc
	sub	sp, sp, #16
	.cfi_def_cfa_offset 16
	str	x0, [sp, 8]
	ldr	x0, [sp, 8]
	ldrb	w0, [x0, 8]
	add	sp, sp, 16
	.cfi_def_cfa_offset 0
	ret
	.cfi_endproc
.LFE3800:
	.size	_ZNKSt19ostreambuf_iteratorIcSt11char_traitsIcEE6failedEv, .-_ZNKSt19ostreambuf_iteratorIcSt11char_traitsIcEE6failedEv
	.section	.text._ZNSt6chronomiIlSt5ratioILl1ELl1000000000EElS2_EENSt11common_typeIJNS_8durationIT_T0_EENS4_IT1_T2_EEEE4typeERKS7_RKSA_,"axG",@progbits,_ZNSt6chronomiIlSt5ratioILl1ELl1000000000EElS2_EENSt11common_typeIJNS_8durationIT_T0_EENS4_IT1_T2_EEEE4typeERKS7_RKSA_,comdat
	.align	2
	.weak	_ZNSt6chronomiIlSt5ratioILl1ELl1000000000EElS2_EENSt11common_typeIJNS_8durationIT_T0_EENS4_IT1_T2_EEEE4typeERKS7_RKSA_
	.type	_ZNSt6chronomiIlSt5ratioILl1ELl1000000000EElS2_EENSt11common_typeIJNS_8durationIT_T0_EENS4_IT1_T2_EEEE4typeERKS7_RKSA_, %function
_ZNSt6chronomiIlSt5ratioILl1ELl1000000000EElS2_EENSt11common_typeIJNS_8durationIT_T0_EENS4_IT1_T2_EEEE4typeERKS7_RKSA_:
.LFB3805:
	.cfi_startproc
	stp	x29, x30, [sp, -96]!
	.cfi_def_cfa_offset 96
	.cfi_offset 29, -96
	.cfi_offset 30, -88
	mov	x29, sp
	str	x19, [sp, 16]
	.cfi_offset 19, -80
	str	x0, [sp, 40]
	str	x1, [sp, 32]
	adrp	x0, :got:__stack_chk_guard
	ldr	x0, [x0, #:got_lo12:__stack_chk_guard]
	ldr	x1, [x0]
	str	x1, [sp, 88]
	mov	x1, 0
	ldr	x0, [sp, 40]
	ldr	x0, [x0]
	str	x0, [sp, 56]
	add	x0, sp, 56
	bl	_ZNKSt6chrono8durationIlSt5ratioILl1ELl1000000000EEE5countEv
	mov	x19, x0
	ldr	x0, [sp, 32]
	ldr	x0, [x0]
	str	x0, [sp, 64]
	add	x0, sp, 64
	bl	_ZNKSt6chrono8durationIlSt5ratioILl1ELl1000000000EEE5countEv
	sub	x0, x19, x0
	str	x0, [sp, 72]
	add	x1, sp, 72
	add	x0, sp, 80
	bl	_ZNSt6chrono8durationIlSt5ratioILl1ELl1000000000EEEC1IlvEERKT_
	ldr	x0, [sp, 80]
	mov	x1, x0
	adrp	x0, :got:__stack_chk_guard
	ldr	x0, [x0, #:got_lo12:__stack_chk_guard]
	ldr	x3, [sp, 88]
	ldr	x2, [x0]
	subs	x3, x3, x2
	mov	x2, 0
	beq	.L73
	bl	__stack_chk_fail
.L73:
	mov	x0, x1
	ldr	x19, [sp, 16]
	ldp	x29, x30, [sp], 96
	.cfi_restore 30
	.cfi_restore 29
	.cfi_restore 19
	.cfi_def_cfa_offset 0
	ret
	.cfi_endproc
.LFE3805:
	.size	_ZNSt6chronomiIlSt5ratioILl1ELl1000000000EElS2_EENSt11common_typeIJNS_8durationIT_T0_EENS4_IT1_T2_EEEE4typeERKS7_RKSA_, .-_ZNSt6chronomiIlSt5ratioILl1ELl1000000000EElS2_EENSt11common_typeIJNS_8durationIT_T0_EENS4_IT1_T2_EEEE4typeERKS7_RKSA_
	.section	.text._ZNSt6chrono20__duration_cast_implINS_8durationIlSt5ratioILl1ELl1000000EEEES2_ILl1ELl1000EElLb1ELb0EE6__castIlS2_ILl1ELl1000000000EEEES4_RKNS1_IT_T0_EE,"axG",@progbits,_ZNSt6chrono20__duration_cast_implINS_8durationIlSt5ratioILl1ELl1000000EEEES2_ILl1ELl1000EElLb1ELb0EE6__castIlS2_ILl1ELl1000000000EEEES4_RKNS1_IT_T0_EE,comdat
	.align	2
	.weak	_ZNSt6chrono20__duration_cast_implINS_8durationIlSt5ratioILl1ELl1000000EEEES2_ILl1ELl1000EElLb1ELb0EE6__castIlS2_ILl1ELl1000000000EEEES4_RKNS1_IT_T0_EE
	.type	_ZNSt6chrono20__duration_cast_implINS_8durationIlSt5ratioILl1ELl1000000EEEES2_ILl1ELl1000EElLb1ELb0EE6__castIlS2_ILl1ELl1000000000EEEES4_RKNS1_IT_T0_EE, %function
_ZNSt6chrono20__duration_cast_implINS_8durationIlSt5ratioILl1ELl1000000EEEES2_ILl1ELl1000EElLb1ELb0EE6__castIlS2_ILl1ELl1000000000EEEES4_RKNS1_IT_T0_EE:
.LFB3806:
	.cfi_startproc
	stp	x29, x30, [sp, -64]!
	.cfi_def_cfa_offset 64
	.cfi_offset 29, -64
	.cfi_offset 30, -56
	mov	x29, sp
	str	x0, [sp, 24]
	adrp	x0, :got:__stack_chk_guard
	ldr	x0, [x0, #:got_lo12:__stack_chk_guard]
	ldr	x1, [x0]
	str	x1, [sp, 56]
	mov	x1, 0
	ldr	x0, [sp, 24]
	bl	_ZNKSt6chrono8durationIlSt5ratioILl1ELl1000000000EEE5countEv
	mov	x1, 63439
	movk	x1, 0xe353, lsl 16
	movk	x1, 0x9ba5, lsl 32
	movk	x1, 0x20c4, lsl 48
	smulh	x1, x0, x1
	asr	x1, x1, 7
	asr	x0, x0, 63
	sub	x0, x1, x0
	str	x0, [sp, 40]
	add	x1, sp, 40
	add	x0, sp, 48
	bl	_ZNSt6chrono8durationIlSt5ratioILl1ELl1000000EEEC1IlvEERKT_
	ldr	x0, [sp, 48]
	mov	x1, x0
	adrp	x0, :got:__stack_chk_guard
	ldr	x0, [x0, #:got_lo12:__stack_chk_guard]
	ldr	x3, [sp, 56]
	ldr	x2, [x0]
	subs	x3, x3, x2
	mov	x2, 0
	beq	.L76
	bl	__stack_chk_fail
.L76:
	mov	x0, x1
	ldp	x29, x30, [sp], 64
	.cfi_restore 30
	.cfi_restore 29
	.cfi_def_cfa_offset 0
	ret
	.cfi_endproc
.LFE3806:
	.size	_ZNSt6chrono20__duration_cast_implINS_8durationIlSt5ratioILl1ELl1000000EEEES2_ILl1ELl1000EElLb1ELb0EE6__castIlS2_ILl1ELl1000000000EEEES4_RKNS1_IT_T0_EE, .-_ZNSt6chrono20__duration_cast_implINS_8durationIlSt5ratioILl1ELl1000000EEEES2_ILl1ELl1000EElLb1ELb0EE6__castIlS2_ILl1ELl1000000000EEEES4_RKNS1_IT_T0_EE
	.section	.text._ZNSt6chrono8durationIlSt5ratioILl1ELl1000000EEEC2IlvEERKT_,"axG",@progbits,_ZNSt6chrono8durationIlSt5ratioILl1ELl1000000EEEC5IlvEERKT_,comdat
	.align	2
	.weak	_ZNSt6chrono8durationIlSt5ratioILl1ELl1000000EEEC2IlvEERKT_
	.type	_ZNSt6chrono8durationIlSt5ratioILl1ELl1000000EEEC2IlvEERKT_, %function
_ZNSt6chrono8durationIlSt5ratioILl1ELl1000000EEEC2IlvEERKT_:
.LFB3855:
	.cfi_startproc
	sub	sp, sp, #16
	.cfi_def_cfa_offset 16
	str	x0, [sp, 8]
	str	x1, [sp]
	ldr	x0, [sp]
	ldr	x1, [x0]
	ldr	x0, [sp, 8]
	str	x1, [x0]
	nop
	add	sp, sp, 16
	.cfi_def_cfa_offset 0
	ret
	.cfi_endproc
.LFE3855:
	.size	_ZNSt6chrono8durationIlSt5ratioILl1ELl1000000EEEC2IlvEERKT_, .-_ZNSt6chrono8durationIlSt5ratioILl1ELl1000000EEEC2IlvEERKT_
	.weak	_ZNSt6chrono8durationIlSt5ratioILl1ELl1000000EEEC1IlvEERKT_
	.set	_ZNSt6chrono8durationIlSt5ratioILl1ELl1000000EEEC1IlvEERKT_,_ZNSt6chrono8durationIlSt5ratioILl1ELl1000000EEEC2IlvEERKT_
	.text
	.align	2
	.type	_Z41__static_initialization_and_destruction_0ii, %function
_Z41__static_initialization_and_destruction_0ii:
.LFB3994:
	.cfi_startproc
	stp	x29, x30, [sp, -32]!
	.cfi_def_cfa_offset 32
	.cfi_offset 29, -32
	.cfi_offset 30, -24
	mov	x29, sp
	str	w0, [sp, 28]
	str	w1, [sp, 24]
	ldr	w0, [sp, 28]
	cmp	w0, 1
	bne	.L80
	ldr	w1, [sp, 24]
	mov	w0, 65535
	cmp	w1, w0
	bne	.L80
	adrp	x0, _ZStL8__ioinit
	add	x0, x0, :lo12:_ZStL8__ioinit
	bl	_ZNSt8ios_base4InitC1Ev
	adrp	x0, __dso_handle
	add	x2, x0, :lo12:__dso_handle
	adrp	x0, _ZStL8__ioinit
	add	x1, x0, :lo12:_ZStL8__ioinit
	adrp	x0, :got:_ZNSt8ios_base4InitD1Ev
	ldr	x0, [x0, #:got_lo12:_ZNSt8ios_base4InitD1Ev]
	bl	__cxa_atexit
.L80:
	nop
	ldp	x29, x30, [sp], 32
	.cfi_restore 30
	.cfi_restore 29
	.cfi_def_cfa_offset 0
	ret
	.cfi_endproc
.LFE3994:
	.size	_Z41__static_initialization_and_destruction_0ii, .-_Z41__static_initialization_and_destruction_0ii
	.align	2
	.type	_GLOBAL__sub_I_Utils.cpp, %function
_GLOBAL__sub_I_Utils.cpp:
.LFB4012:
	.cfi_startproc
	stp	x29, x30, [sp, -16]!
	.cfi_def_cfa_offset 16
	.cfi_offset 29, -16
	.cfi_offset 30, -8
	mov	x29, sp
	mov	w1, 65535
	mov	w0, 1
	bl	_Z41__static_initialization_and_destruction_0ii
	ldp	x29, x30, [sp], 16
	.cfi_restore 30
	.cfi_restore 29
	.cfi_def_cfa_offset 0
	ret
	.cfi_endproc
.LFE4012:
	.size	_GLOBAL__sub_I_Utils.cpp, .-_GLOBAL__sub_I_Utils.cpp
	.section	.init_array,"aw"
	.align	3
	.xword	_GLOBAL__sub_I_Utils.cpp
	.hidden	DW.ref._ZTIN10__cxxabiv115__forced_unwindE
	.weak	DW.ref._ZTIN10__cxxabiv115__forced_unwindE
	.section	.data.rel.local.DW.ref._ZTIN10__cxxabiv115__forced_unwindE,"awG",@progbits,DW.ref._ZTIN10__cxxabiv115__forced_unwindE,comdat
	.align	3
	.type	DW.ref._ZTIN10__cxxabiv115__forced_unwindE, %object
	.size	DW.ref._ZTIN10__cxxabiv115__forced_unwindE, 8
DW.ref._ZTIN10__cxxabiv115__forced_unwindE:
	.xword	_ZTIN10__cxxabiv115__forced_unwindE
	.hidden	DW.ref.__gxx_personality_v0
	.weak	DW.ref.__gxx_personality_v0
	.section	.data.rel.local.DW.ref.__gxx_personality_v0,"awG",@progbits,DW.ref.__gxx_personality_v0,comdat
	.align	3
	.type	DW.ref.__gxx_personality_v0, %object
	.size	DW.ref.__gxx_personality_v0, 8
DW.ref.__gxx_personality_v0:
	.xword	__gxx_personality_v0
	.hidden	__dso_handle
	.ident	"GCC: (Ubuntu 11.3.0-1ubuntu1~22.04) 11.3.0"
	.section	.note.GNU-stack,"",@progbits
