	.section	__TEXT,__text,regular,pure_instructions
	.build_version macos, 13, 0	sdk_version 13, 1
	.file	1 "/Applications/Xcode.app/Contents/Developer/Platforms/MacOSX.platform/Developer/SDKs/MacOSX13.1.sdk/usr/include/c++/v1" "__string"
	.file	2 "/Applications/Xcode.app/Contents/Developer/Toolchains/XcodeDefault.xctoolchain/usr/lib/clang/14.0.0/include" "stddef.h"
	.file	3 "/Applications/Xcode.app/Contents/Developer/Platforms/MacOSX.platform/Developer/SDKs/MacOSX13.1.sdk/usr/include/c++/v1/__memory" "allocator.h"
	.file	4 "/Applications/Xcode.app/Contents/Developer/Platforms/MacOSX.platform/Developer/SDKs/MacOSX13.1.sdk/usr/include/c++/v1" "string"
	.file	5 "/Applications/Xcode.app/Contents/Developer/Platforms/MacOSX.platform/Developer/SDKs/MacOSX13.1.sdk/usr/include/c++/v1/__memory" "allocator_traits.h"
	.file	6 "/Applications/Xcode.app/Contents/Developer/Platforms/MacOSX.platform/Developer/SDKs/MacOSX13.1.sdk/usr/include/c++/v1/__memory" "compressed_pair.h"
	.file	7 "/Applications/Xcode.app/Contents/Developer/Platforms/MacOSX.platform/Developer/SDKs/MacOSX13.1.sdk/usr/include/c++/v1" "initializer_list"
	.file	8 "/Applications/Xcode.app/Contents/Developer/Platforms/MacOSX.platform/Developer/SDKs/MacOSX13.1.sdk/usr/include/c++/v1" "string_view"
	.file	9 "/Applications/Xcode.app/Contents/Developer/Platforms/MacOSX.platform/Developer/SDKs/MacOSX13.1.sdk/usr/include/c++/v1/__iterator" "wrap_iter.h"
	.file	10 "/Applications/Xcode.app/Contents/Developer/Platforms/MacOSX.platform/Developer/SDKs/MacOSX13.1.sdk/usr/include/c++/v1/__iterator" "iterator_traits.h"
	.file	11 "/Applications/Xcode.app/Contents/Developer/Platforms/MacOSX.platform/Developer/SDKs/MacOSX13.1.sdk/usr/include/c++/v1" "type_traits"
	.file	12 "/Applications/Xcode.app/Contents/Developer/Platforms/MacOSX.platform/Developer/SDKs/MacOSX13.1.sdk/usr/include/c++/v1" "iosfwd"
	.file	13 "/opt/homebrew/include/log4cpp" "Appender.hh"
	.file	14 "/Applications/Xcode.app/Contents/Developer/Platforms/MacOSX.platform/Developer/SDKs/MacOSX13.1.sdk/usr/include/sys/_pthread" "_pthread_types.h"
	.file	15 "/Applications/Xcode.app/Contents/Developer/Platforms/MacOSX.platform/Developer/SDKs/MacOSX13.1.sdk/usr/include/sys/_pthread" "_pthread_mutex_t.h"
	.file	16 "/opt/homebrew/include/log4cpp/threading" "PThreads.hh"
	.file	17 "/opt/homebrew/include/log4cpp" "LoggingEvent.hh"
	.file	18 "/opt/homebrew/include/log4cpp" "Priority.hh"
	.file	19 "/opt/homebrew/include/log4cpp" "TimeStamp.hh"
	.file	20 "/opt/homebrew/include/log4cpp" "Layout.hh"
	.file	21 "/opt/homebrew/include/log4cpp" "Filter.hh"
	.file	22 "/opt/homebrew/include/log4cpp" "Category.hh"
	.file	23 "/Applications/Xcode.app/Contents/Developer/Platforms/MacOSX.platform/Developer/SDKs/MacOSX13.1.sdk/usr/include/c++/v1/__functional" "binary_function.h"
	.file	24 "/Applications/Xcode.app/Contents/Developer/Platforms/MacOSX.platform/Developer/SDKs/MacOSX13.1.sdk/usr/include/c++/v1/__functional" "operations.h"
	.file	25 "/Applications/Xcode.app/Contents/Developer/Platforms/MacOSX.platform/Developer/SDKs/MacOSX13.1.sdk/usr/include/c++/v1" "__tree"
	.file	26 "/Applications/Xcode.app/Contents/Developer/Platforms/MacOSX.platform/Developer/SDKs/MacOSX13.1.sdk/usr/include/c++/v1/__memory" "pointer_traits.h"
	.file	27 "/Applications/Xcode.app/Contents/Developer/Platforms/MacOSX.platform/Developer/SDKs/MacOSX13.1.sdk/usr/include/c++/v1" "set"
	.file	28 "/Applications/Xcode.app/Contents/Developer/Platforms/MacOSX.platform/Developer/SDKs/MacOSX13.1.sdk/usr/include/c++/v1" "__node_handle"
	.file	29 "/Applications/Xcode.app/Contents/Developer/Platforms/MacOSX.platform/Developer/SDKs/MacOSX13.1.sdk/usr/include/c++/v1" "map"
	.file	30 "/Applications/Xcode.app/Contents/Developer/Platforms/MacOSX.platform/Developer/SDKs/MacOSX13.1.sdk/usr/include/arm" "_types.h"
	.file	31 "/Applications/Xcode.app/Contents/Developer/Platforms/MacOSX.platform/Developer/SDKs/MacOSX13.1.sdk/usr/include/sys/_types" "_va_list.h"
	.file	32 "/opt/homebrew/include/log4cpp" "CategoryStream.hh"
	.file	33 "/Applications/Xcode.app/Contents/Developer/Platforms/MacOSX.platform/Developer/SDKs/MacOSX13.1.sdk/usr/include/c++/v1" "ios"
	.file	34 "/Applications/Xcode.app/Contents/Developer/Platforms/MacOSX.platform/Developer/SDKs/MacOSX13.1.sdk/usr/include/c++/v1" "__locale"
	.file	35 "/Applications/Xcode.app/Contents/Developer/Platforms/MacOSX.platform/Developer/SDKs/MacOSX13.1.sdk/usr/include/c++/v1/__memory" "shared_ptr.h"
	.file	36 "/Applications/Xcode.app/Contents/Developer/Platforms/MacOSX.platform/Developer/SDKs/MacOSX13.1.sdk/usr/include/c++/v1" "mutex"
	.file	37 "/Applications/Xcode.app/Contents/Developer/Platforms/MacOSX.platform/Developer/SDKs/MacOSX13.1.sdk/usr/include/sys/_types" "_int32_t.h"
	.file	38 "/Applications/Xcode.app/Contents/Developer/Platforms/MacOSX.platform/Developer/SDKs/MacOSX13.1.sdk/usr/include/c++/v1" "streambuf"
	.file	39 "/Applications/Xcode.app/Contents/Developer/Platforms/MacOSX.platform/Developer/SDKs/MacOSX13.1.sdk/usr/include/c++/v1" "ostream"
	.file	40 "/Applications/Xcode.app/Contents/Developer/Platforms/MacOSX.platform/Developer/SDKs/MacOSX13.1.sdk/usr/include/c++/v1" "__nullptr"
	.file	41 "/Applications/Xcode.app/Contents/Developer/Platforms/MacOSX.platform/Developer/SDKs/MacOSX13.1.sdk/usr/include/c++/v1" "sstream"
	.file	42 "/Users/xieyao/Desktop/git/C-/mac/myproject" "libframework/framework/include/framework/Log.h"
	.file	43 "/Applications/Xcode.app/Contents/Developer/Platforms/MacOSX.platform/Developer/SDKs/MacOSX13.1.sdk/usr/include/c++/v1" "filesystem"
	.file	44 "/Applications/Xcode.app/Contents/Developer/Platforms/MacOSX.platform/Developer/SDKs/MacOSX13.1.sdk/usr/include/sys/_types" "_wint_t.h"
	.file	45 "/Applications/Xcode.app/Contents/Developer/Platforms/MacOSX.platform/Developer/SDKs/MacOSX13.1.sdk/usr/include/_types" "_uint16_t.h"
	.file	46 "/Applications/Xcode.app/Contents/Developer/Platforms/MacOSX.platform/Developer/SDKs/MacOSX13.1.sdk/usr/include" "stdint.h"
	.file	47 "/Applications/Xcode.app/Contents/Developer/Platforms/MacOSX.platform/Developer/SDKs/MacOSX13.1.sdk/usr/include/_types" "_uint32_t.h"
	.file	48 "/Applications/Xcode.app/Contents/Developer/Platforms/MacOSX.platform/Developer/SDKs/MacOSX13.1.sdk/usr/include/c++/v1" "new"
	.file	49 "/Applications/Xcode.app/Contents/Developer/Platforms/MacOSX.platform/Developer/SDKs/MacOSX13.1.sdk/usr/include/c++/v1" "exception"
	.file	50 "/Applications/Xcode.app/Contents/Developer/Platforms/MacOSX.platform/Developer/SDKs/MacOSX13.1.sdk/usr/include/c++/v1" "stdexcept"
	.file	51 "/Applications/Xcode.app/Contents/Developer/Platforms/MacOSX.platform/Developer/SDKs/MacOSX13.1.sdk/usr/include/c++/v1/__iterator" "iterator.h"
	.file	52 "/Applications/Xcode.app/Contents/Developer/Platforms/MacOSX.platform/Developer/SDKs/MacOSX13.1.sdk/usr/include/c++/v1/__iterator" "ostreambuf_iterator.h"
	.file	53 "/Applications/Xcode.app/Contents/Developer/Platforms/MacOSX.platform/Developer/SDKs/MacOSX13.1.sdk/usr/include/c++/v1" "cstddef"
	.file	54 "/Applications/Xcode.app/Contents/Developer/Toolchains/XcodeDefault.xctoolchain/usr/lib/clang/14.0.0/include" "__stddef_max_align_t.h"
	.file	55 "/Applications/Xcode.app/Contents/Developer/Platforms/MacOSX.platform/Developer/SDKs/MacOSX13.1.sdk/usr/include/c++/v1" "stddef.h"
	.file	56 "/Applications/Xcode.app/Contents/Developer/Platforms/MacOSX.platform/Developer/SDKs/MacOSX13.1.sdk/usr/include/sys/_types" "_mbstate_t.h"
	.file	57 "/Applications/Xcode.app/Contents/Developer/Platforms/MacOSX.platform/Developer/SDKs/MacOSX13.1.sdk/usr/include/c++/v1" "__mbstate_t.h"
	.file	58 "/Applications/Xcode.app/Contents/Developer/Platforms/MacOSX.platform/Developer/SDKs/MacOSX13.1.sdk/usr/include/c++/v1" "cstring"
	.file	59 "/Applications/Xcode.app/Contents/Developer/Platforms/MacOSX.platform/Developer/SDKs/MacOSX13.1.sdk/usr/include" "string.h"
	.file	60 "/Applications/Xcode.app/Contents/Developer/Platforms/MacOSX.platform/Developer/SDKs/MacOSX13.1.sdk/usr/include/c++/v1" "string.h"
	.file	61 "/Applications/Xcode.app/Contents/Developer/Platforms/MacOSX.platform/Developer/SDKs/MacOSX13.1.sdk/usr/include/c++/v1" "cstdlib"
	.file	62 "/Applications/Xcode.app/Contents/Developer/Platforms/MacOSX.platform/Developer/SDKs/MacOSX13.1.sdk/usr/include" "stdlib.h"
	.file	63 "/Applications/Xcode.app/Contents/Developer/Platforms/MacOSX.platform/Developer/SDKs/MacOSX13.1.sdk/usr/include/malloc" "_malloc.h"
	.file	64 "/Applications/Xcode.app/Contents/Developer/Platforms/MacOSX.platform/Developer/SDKs/MacOSX13.1.sdk/usr/include/c++/v1" "stdlib.h"
	.file	65 "/Applications/Xcode.app/Contents/Developer/Platforms/MacOSX.platform/Developer/SDKs/MacOSX13.1.sdk/usr/include/sys/_types" "_int8_t.h"
	.file	66 "/Applications/Xcode.app/Contents/Developer/Platforms/MacOSX.platform/Developer/SDKs/MacOSX13.1.sdk/usr/include/c++/v1" "cstdint"
	.file	67 "/Applications/Xcode.app/Contents/Developer/Platforms/MacOSX.platform/Developer/SDKs/MacOSX13.1.sdk/usr/include/sys/_types" "_int16_t.h"
	.file	68 "/Applications/Xcode.app/Contents/Developer/Platforms/MacOSX.platform/Developer/SDKs/MacOSX13.1.sdk/usr/include/sys/_types" "_int64_t.h"
	.file	69 "/Applications/Xcode.app/Contents/Developer/Platforms/MacOSX.platform/Developer/SDKs/MacOSX13.1.sdk/usr/include/_types" "_uint8_t.h"
	.file	70 "/Applications/Xcode.app/Contents/Developer/Platforms/MacOSX.platform/Developer/SDKs/MacOSX13.1.sdk/usr/include/_types" "_uint64_t.h"
	.file	71 "/Applications/Xcode.app/Contents/Developer/Platforms/MacOSX.platform/Developer/SDKs/MacOSX13.1.sdk/usr/include/sys/_types" "_intptr_t.h"
	.file	72 "/Applications/Xcode.app/Contents/Developer/Platforms/MacOSX.platform/Developer/SDKs/MacOSX13.1.sdk/usr/include/sys/_types" "_uintptr_t.h"
	.file	73 "/Applications/Xcode.app/Contents/Developer/Platforms/MacOSX.platform/Developer/SDKs/MacOSX13.1.sdk/usr/include/_types" "_intmax_t.h"
	.file	74 "/Applications/Xcode.app/Contents/Developer/Platforms/MacOSX.platform/Developer/SDKs/MacOSX13.1.sdk/usr/include/_types" "_uintmax_t.h"
	.file	75 "/Applications/Xcode.app/Contents/Developer/Platforms/MacOSX.platform/Developer/SDKs/MacOSX13.1.sdk/usr/include/sys/_types" "_clock_t.h"
	.file	76 "/Applications/Xcode.app/Contents/Developer/Platforms/MacOSX.platform/Developer/SDKs/MacOSX13.1.sdk/usr/include/c++/v1" "ctime"
	.file	77 "/Applications/Xcode.app/Contents/Developer/Platforms/MacOSX.platform/Developer/SDKs/MacOSX13.1.sdk/usr/include/sys/_types" "_time_t.h"
	.file	78 "/Applications/Xcode.app/Contents/Developer/Platforms/MacOSX.platform/Developer/SDKs/MacOSX13.1.sdk/usr/include" "time.h"
	.file	79 "/Applications/Xcode.app/Contents/Developer/Platforms/MacOSX.platform/Developer/SDKs/MacOSX13.1.sdk/usr/include/sys/_types" "_timespec.h"
	.file	80 "/Applications/Xcode.app/Contents/Developer/Platforms/MacOSX.platform/Developer/SDKs/MacOSX13.1.sdk/usr/include/c++/v1" "chrono"
	.file	81 "/Applications/Xcode.app/Contents/Developer/Platforms/MacOSX.platform/Developer/SDKs/MacOSX13.1.sdk/usr/include" "_stdio.h"
	.file	82 "/Applications/Xcode.app/Contents/Developer/Platforms/MacOSX.platform/Developer/SDKs/MacOSX13.1.sdk/usr/include/sys" "_types.h"
	.file	83 "/Applications/Xcode.app/Contents/Developer/Platforms/MacOSX.platform/Developer/SDKs/MacOSX13.1.sdk/usr/include/c++/v1" "cstdio"
	.file	84 "/Applications/Xcode.app/Contents/Developer/Platforms/MacOSX.platform/Developer/SDKs/MacOSX13.1.sdk/usr/include" "stdio.h"
	.file	85 "/Applications/Xcode.app/Contents/Developer/Platforms/MacOSX.platform/Developer/SDKs/MacOSX13.1.sdk/usr/include" "_ctype.h"
	.file	86 "/Applications/Xcode.app/Contents/Developer/Platforms/MacOSX.platform/Developer/SDKs/MacOSX13.1.sdk/usr/include/c++/v1" "cctype"
	.file	87 "/Applications/Xcode.app/Contents/Developer/Platforms/MacOSX.platform/Developer/SDKs/MacOSX13.1.sdk/usr/include/c++/v1" "cwctype"
	.file	88 "/Applications/Xcode.app/Contents/Developer/Platforms/MacOSX.platform/Developer/SDKs/MacOSX13.1.sdk/usr/include" "_types.h"
	.file	89 "/Applications/Xcode.app/Contents/Developer/Platforms/MacOSX.platform/Developer/SDKs/MacOSX13.1.sdk/usr/include/_types" "_wctrans_t.h"
	.file	90 "/Applications/Xcode.app/Contents/Developer/Platforms/MacOSX.platform/Developer/SDKs/MacOSX13.1.sdk/usr/include/_types" "_wctype_t.h"
	.file	91 "/Applications/Xcode.app/Contents/Developer/Platforms/MacOSX.platform/Developer/SDKs/MacOSX13.1.sdk/usr/include" "_wctype.h"
	.file	92 "/Applications/Xcode.app/Contents/Developer/Platforms/MacOSX.platform/Developer/SDKs/MacOSX13.1.sdk/usr/include" "wctype.h"
	.file	93 "/Applications/Xcode.app/Contents/Developer/Platforms/MacOSX.platform/Developer/SDKs/MacOSX13.1.sdk/usr/include/c++/v1" "cwchar"
	.file	94 "/Applications/Xcode.app/Contents/Developer/Platforms/MacOSX.platform/Developer/SDKs/MacOSX13.1.sdk/usr/include" "wchar.h"
	.file	95 "/Applications/Xcode.app/Contents/Developer/Platforms/MacOSX.platform/Developer/SDKs/MacOSX13.1.sdk/usr/include/c++/v1" "wchar.h"
	.file	96 "/Applications/Xcode.app/Contents/Developer/Platforms/MacOSX.platform/Developer/SDKs/MacOSX13.1.sdk/usr/include/c++/v1" "cstdarg"
	.section	__TEXT,__StaticInit,regular,pure_instructions
	.p2align	2                               ; -- Begin function __cxx_global_var_init
___cxx_global_var_init:                 ; @__cxx_global_var_init
Lfunc_begin0:
	.file	97 "/Users/xieyao/Desktop/git/C-/mac/myproject/cmake-build-mac" "libframework/framework/CMakeFiles/framework.dir/src/Log.cpp"
	.loc	97 0 0                          ; libframework/framework/CMakeFiles/framework.dir/src/Log.cpp:0:0
	.cfi_startproc
; %bb.0:
	sub	sp, sp, #32
	stp	x29, x30, [sp, #16]             ; 16-byte Folded Spill
	add	x29, sp, #16
	.cfi_def_cfa w29, 16
	.cfi_offset w30, -8
	.cfi_offset w29, -16
Ltmp0:
	adrp	x0, __ZN7log4cppL29appenderMapStorageInitializerE@PAGE
	add	x0, x0, __ZN7log4cppL29appenderMapStorageInitializerE@PAGEOFF
	str	x0, [sp, #8]                    ; 8-byte Folded Spill
	.loc	13 164 49 prologue_end          ; /opt/homebrew/include/log4cpp/Appender.hh:164:49
	bl	__ZN7log4cpp8Appender29AppenderMapStorageInitializerC1Ev
	ldr	x1, [sp, #8]                    ; 8-byte Folded Reload
	.loc	97 0 0 is_stmt 0                ; libframework/framework/CMakeFiles/framework.dir/src/Log.cpp:0:0
	adrp	x0, __ZN7log4cpp8Appender29AppenderMapStorageInitializerD1Ev@GOTPAGE
	ldr	x0, [x0, __ZN7log4cpp8Appender29AppenderMapStorageInitializerD1Ev@GOTPAGEOFF]
	adrp	x2, ___dso_handle@PAGE
	add	x2, x2, ___dso_handle@PAGEOFF
	bl	___cxa_atexit
	.loc	13 164 49                       ; /opt/homebrew/include/log4cpp/Appender.hh:164:49
	ldp	x29, x30, [sp, #16]             ; 16-byte Folded Reload
	add	sp, sp, #32
	ret
Ltmp1:
Lfunc_end0:
	.cfi_endproc
                                        ; -- End function
	.p2align	2                               ; -- Begin function __cxx_global_var_init.1
___cxx_global_var_init.1:               ; @__cxx_global_var_init.1
Lfunc_begin1:
	.loc	97 0 0 is_stmt 1                ; libframework/framework/CMakeFiles/framework.dir/src/Log.cpp:0:0
	.cfi_startproc
	.cfi_personality 155, ___gxx_personality_v0
	.cfi_lsda 16, Lexception0
; %bb.0:
	sub	sp, sp, #48
	stp	x29, x30, [sp, #32]             ; 16-byte Folded Spill
	add	x29, sp, #32
	.cfi_def_cfa w29, 16
	.cfi_offset w30, -8
	.cfi_offset w29, -16
Ltmp5:
	adrp	x8, __ZGVN3Log5mNameE@GOTPAGE
	ldr	x8, [x8, __ZGVN3Log5mNameE@GOTPAGEOFF]
	str	x8, [sp, #8]                    ; 8-byte Folded Spill
	ldarb	w8, [x8]
	and	w8, w8, #0x1
	and	w8, w8, #0xff
	cbnz	w8, LBB1_4
	b	LBB1_1
LBB1_1:
	ldr	x0, [sp, #8]                    ; 8-byte Folded Reload
	bl	___cxa_guard_acquire
	cbz	w0, LBB1_4
	b	LBB1_2
LBB1_2:
Ltmp2:
	adrp	x0, __ZN3Log5mNameE@GOTPAGE
	ldr	x0, [x0, __ZN3Log5mNameE@GOTPAGEOFF]
	adrp	x1, l_.str@PAGE
	add	x1, x1, l_.str@PAGEOFF
	.loc	42 42 31 prologue_end           ; libframework/framework/include/framework/Log.h:42:31
	bl	__ZNSt3__112basic_stringIcNS_11char_traitsIcEENS_9allocatorIcEEEC1IDnEEPKc
Ltmp3:
	b	LBB1_3
LBB1_3:
	.loc	97 0 0 is_stmt 0                ; libframework/framework/CMakeFiles/framework.dir/src/Log.cpp:0:0
	adrp	x0, __ZNSt3__112basic_stringIcNS_11char_traitsIcEENS_9allocatorIcEEED1Ev@GOTPAGE
	ldr	x0, [x0, __ZNSt3__112basic_stringIcNS_11char_traitsIcEENS_9allocatorIcEEED1Ev@GOTPAGEOFF]
	adrp	x1, __ZN3Log5mNameE@GOTPAGE
	ldr	x1, [x1, __ZN3Log5mNameE@GOTPAGEOFF]
	adrp	x2, ___dso_handle@PAGE
	add	x2, x2, ___dso_handle@PAGEOFF
	bl	___cxa_atexit
	ldr	x0, [sp, #8]                    ; 8-byte Folded Reload
	bl	___cxa_guard_release
	b	LBB1_4
LBB1_4:
	.loc	42 42 5                         ; libframework/framework/include/framework/Log.h:42:5
	ldp	x29, x30, [sp, #32]             ; 16-byte Folded Reload
	add	sp, sp, #48
	ret
LBB1_5:
Ltmp4:
	mov	x9, x0
	ldr	x0, [sp, #8]                    ; 8-byte Folded Reload
	mov	x8, x1
	stur	x9, [x29, #-8]
	stur	w8, [x29, #-12]
	.loc	97 0 0                          ; libframework/framework/CMakeFiles/framework.dir/src/Log.cpp:0:0
	bl	___cxa_guard_abort
	b	LBB1_6
LBB1_6:
	ldur	x0, [x29, #-8]
	bl	__Unwind_Resume
Ltmp6:
Lfunc_end1:
	.cfi_endproc
	.section	__TEXT,__gcc_except_tab
	.p2align	2
GCC_except_table1:
Lexception0:
	.byte	255                             ; @LPStart Encoding = omit
	.byte	255                             ; @TType Encoding = omit
	.byte	1                               ; Call site Encoding = uleb128
	.uleb128 Lcst_end0-Lcst_begin0
Lcst_begin0:
	.uleb128 Ltmp2-Lfunc_begin1             ; >> Call Site 1 <<
	.uleb128 Ltmp3-Ltmp2                    ;   Call between Ltmp2 and Ltmp3
	.uleb128 Ltmp4-Lfunc_begin1             ;     jumps to Ltmp4
	.byte	0                               ;   On action: cleanup
	.uleb128 Ltmp3-Lfunc_begin1             ; >> Call Site 2 <<
	.uleb128 Lfunc_end1-Ltmp3               ;   Call between Ltmp3 and Lfunc_end1
	.byte	0                               ;     has no landing pad
	.byte	0                               ;   On action: cleanup
Lcst_end0:
	.p2align	2
                                        ; -- End function
	.section	__TEXT,__text,regular,pure_instructions
	.p2align	2                               ; -- Begin function _ZNSt3__112basic_stringIcNS_11char_traitsIcEENS_9allocatorIcEEEC1IDnEEPKc
__ZNSt3__112basic_stringIcNS_11char_traitsIcEENS_9allocatorIcEEEC1IDnEEPKc: ; @_ZNSt3__112basic_stringIcNS_11char_traitsIcEENS_9allocatorIcEEEC1IDnEEPKc
Lfunc_begin2:
	.loc	4 840 0 is_stmt 1               ; /Applications/Xcode.app/Contents/Developer/Platforms/MacOSX.platform/Developer/SDKs/MacOSX13.1.sdk/usr/include/c++/v1/string:840:0
	.cfi_startproc
; %bb.0:
	sub	sp, sp, #48
	stp	x29, x30, [sp, #32]             ; 16-byte Folded Spill
	add	x29, sp, #32
	.cfi_def_cfa w29, 16
	.cfi_offset w30, -8
	.cfi_offset w29, -16
	stur	x0, [x29, #-8]
	str	x1, [sp, #16]
	ldur	x0, [x29, #-8]
	str	x0, [sp, #8]                    ; 8-byte Folded Spill
Ltmp7:
	.loc	4 840 88 prologue_end           ; /Applications/Xcode.app/Contents/Developer/Platforms/MacOSX.platform/Developer/SDKs/MacOSX13.1.sdk/usr/include/c++/v1/string:840:88
	ldr	x1, [sp, #16]
	bl	__ZNSt3__112basic_stringIcNS_11char_traitsIcEENS_9allocatorIcEEEC2IDnEEPKc
	ldr	x0, [sp, #8]                    ; 8-byte Folded Reload
	.loc	4 846 5                         ; /Applications/Xcode.app/Contents/Developer/Platforms/MacOSX.platform/Developer/SDKs/MacOSX13.1.sdk/usr/include/c++/v1/string:846:5
	ldp	x29, x30, [sp, #32]             ; 16-byte Folded Reload
	add	sp, sp, #48
	ret
Ltmp8:
Lfunc_end2:
	.cfi_endproc
                                        ; -- End function
	.globl	__ZN3LogC2EPKciRKNSt3__112basic_stringIcNS2_11char_traitsIcEENS2_9allocatorIcEEEEi ; -- Begin function _ZN3LogC2EPKciRKNSt3__112basic_stringIcNS2_11char_traitsIcEENS2_9allocatorIcEEEEi
	.p2align	2
__ZN3LogC2EPKciRKNSt3__112basic_stringIcNS2_11char_traitsIcEENS2_9allocatorIcEEEEi: ; @_ZN3LogC2EPKciRKNSt3__112basic_stringIcNS2_11char_traitsIcEENS2_9allocatorIcEEEEi
Lfunc_begin3:
	.file	98 "/Users/xieyao/Desktop/git/C-/mac/myproject" "libframework/framework/src/Log.cpp"
	.loc	98 13 0                         ; libframework/framework/src/Log.cpp:13:0
	.cfi_startproc
	.cfi_personality 155, ___gxx_personality_v0
	.cfi_lsda 16, Lexception1
; %bb.0:
	sub	sp, sp, #240
	stp	x29, x30, [sp, #224]            ; 16-byte Folded Spill
	add	x29, sp, #224
	.cfi_def_cfa w29, 16
	.cfi_offset w30, -8
	.cfi_offset w29, -16
Ltmp40:
	.loc	98 0 0 is_stmt 0                ; libframework/framework/src/Log.cpp:0:0
	adrp	x8, __ZN3Log4mLogE@GOTPAGE
	ldr	x8, [x8, __ZN3Log4mLogE@GOTPAGEOFF]
	str	x8, [sp, #88]                   ; 8-byte Folded Spill
	stur	x0, [x29, #-16]
	sub	x8, x29, #24
	str	x8, [sp, #104]                  ; 8-byte Folded Spill
	stur	x1, [x29, #-24]
	stur	w2, [x29, #-28]
	stur	x3, [x29, #-40]
	stur	w4, [x29, #-44]
	ldur	x0, [x29, #-16]
	str	x0, [sp, #96]                   ; 8-byte Folded Spill
	mov	x8, x0
	stur	x8, [x29, #-8]
Ltmp41:
	.loc	98 13 6 prologue_end is_stmt 1  ; libframework/framework/src/Log.cpp:13:6
	bl	__ZNSt3__119basic_ostringstreamIcNS_11char_traitsIcEENS_9allocatorIcEEEC1Ev
	ldr	x9, [sp, #96]                   ; 8-byte Folded Reload
	ldr	x1, [sp, #104]                  ; 8-byte Folded Reload
	mov	w8, #700
	.loc	42 45 9                         ; libframework/framework/include/framework/Log.h:45:9
	str	w8, [x9, #264]
Ltmp9:
	sub	x0, x29, #72
	mov	w2, #0
Ltmp42:
	.loc	98 14 27                        ; libframework/framework/src/Log.cpp:14:27
	bl	__ZNSt3__14__fs10filesystem4pathC1IPKcvEERKT_NS2_6formatE
Ltmp10:
	b	LBB3_1
LBB3_1:
	.loc	98 0 27 is_stmt 0               ; libframework/framework/src/Log.cpp:0:27
	ldr	x0, [sp, #96]                   ; 8-byte Folded Reload
	.loc	98 15 19 is_stmt 1              ; libframework/framework/src/Log.cpp:15:19
	ldur	w8, [x29, #-44]
	.loc	98 15 17 is_stmt 0              ; libframework/framework/src/Log.cpp:15:17
	str	w8, [x0, #264]
Ltmp12:
	.loc	98 0 0                          ; libframework/framework/src/Log.cpp:0:0
	adrp	x1, __ZN3Log5mNameE@GOTPAGE
	ldr	x1, [x1, __ZN3Log5mNameE@GOTPAGEOFF]
	.loc	98 16 13 is_stmt 1              ; libframework/framework/src/Log.cpp:16:13
	bl	__ZNSt3__1lsIcNS_11char_traitsIcEENS_9allocatorIcEEEERNS_13basic_ostreamIT_T0_EES9_RKNS_12basic_stringIS6_S7_T1_EE
	str	x0, [sp, #80]                   ; 8-byte Folded Spill
Ltmp13:
	b	LBB3_2
LBB3_2:
Ltmp14:
	.loc	98 0 13 is_stmt 0               ; libframework/framework/src/Log.cpp:0:13
	ldr	x0, [sp, #80]                   ; 8-byte Folded Reload
	adrp	x1, l_.str.2@PAGE
	add	x1, x1, l_.str.2@PAGEOFF
	.loc	98 16 22                        ; libframework/framework/src/Log.cpp:16:22
	bl	__ZNSt3__1lsINS_11char_traitsIcEEEERNS_13basic_ostreamIcT_EES6_PKc
	str	x0, [sp, #72]                   ; 8-byte Folded Spill
Ltmp15:
	b	LBB3_3
LBB3_3:
	.loc	98 0 22                         ; libframework/framework/src/Log.cpp:0:22
	ldr	x0, [sp, #72]                   ; 8-byte Folded Reload
	.loc	98 16 32                        ; libframework/framework/src/Log.cpp:16:32
	ldur	x1, [x29, #-40]
Ltmp16:
	.loc	98 16 29                        ; libframework/framework/src/Log.cpp:16:29
	bl	__ZNSt3__1lsIcNS_11char_traitsIcEENS_9allocatorIcEEEERNS_13basic_ostreamIT_T0_EES9_RKNS_12basic_stringIS6_S7_T1_EE
	str	x0, [sp, #64]                   ; 8-byte Folded Spill
Ltmp17:
	b	LBB3_4
LBB3_4:
Ltmp18:
	.loc	98 0 29                         ; libframework/framework/src/Log.cpp:0:29
	ldr	x0, [sp, #64]                   ; 8-byte Folded Reload
	adrp	x1, l_.str.3@PAGE
	add	x1, x1, l_.str.3@PAGEOFF
	.loc	98 16 37                        ; libframework/framework/src/Log.cpp:16:37
	bl	__ZNSt3__1lsINS_11char_traitsIcEEEERNS_13basic_ostreamIcT_EES6_PKc
	str	x0, [sp, #56]                   ; 8-byte Folded Spill
Ltmp19:
	b	LBB3_5
LBB3_5:
Ltmp20:
	.loc	98 0 37                         ; libframework/framework/src/Log.cpp:0:37
	add	x8, sp, #112
	sub	x0, x29, #72
	.loc	98 16 51                        ; libframework/framework/src/Log.cpp:16:51
	bl	__ZNKSt3__14__fs10filesystem4path8filenameEv
Ltmp21:
	b	LBB3_6
LBB3_6:
Ltmp22:
	.loc	98 0 51                         ; libframework/framework/src/Log.cpp:0:51
	ldr	x0, [sp, #56]                   ; 8-byte Folded Reload
	add	x1, sp, #112
	.loc	98 16 46                        ; libframework/framework/src/Log.cpp:16:46
	bl	__ZNSt3__14__fs10filesystemlsIcNS_11char_traitsIcEEEENS_9enable_ifIXaasr7is_sameIT_cEE5valuesr7is_sameIT0_S4_EE5valueERNS_13basic_ostreamIS6_S7_EEE4typeESA_RKNS1_4pathE
	str	x0, [sp, #48]                   ; 8-byte Folded Spill
Ltmp23:
	b	LBB3_7
LBB3_7:
Ltmp24:
	.loc	98 0 46                         ; libframework/framework/src/Log.cpp:0:46
	ldr	x0, [sp, #48]                   ; 8-byte Folded Reload
	adrp	x1, l_.str.4@PAGE
	add	x1, x1, l_.str.4@PAGEOFF
	.loc	98 16 62                        ; libframework/framework/src/Log.cpp:16:62
	bl	__ZNSt3__1lsINS_11char_traitsIcEEEERNS_13basic_ostreamIcT_EES6_PKc
	str	x0, [sp, #40]                   ; 8-byte Folded Spill
Ltmp25:
	b	LBB3_8
LBB3_8:
	.loc	98 0 62                         ; libframework/framework/src/Log.cpp:0:62
	ldr	x0, [sp, #40]                   ; 8-byte Folded Reload
	.loc	98 16 79                        ; libframework/framework/src/Log.cpp:16:79
	ldur	w1, [x29, #-28]
Ltmp26:
	.loc	98 16 76                        ; libframework/framework/src/Log.cpp:16:76
	bl	__ZNSt3__113basic_ostreamIcNS_11char_traitsIcEEElsEi
	str	x0, [sp, #32]                   ; 8-byte Folded Spill
Ltmp27:
	b	LBB3_9
LBB3_9:
Ltmp28:
	.loc	98 0 76                         ; libframework/framework/src/Log.cpp:0:76
	ldr	x0, [sp, #32]                   ; 8-byte Folded Reload
	adrp	x1, l_.str.5@PAGE
	add	x1, x1, l_.str.5@PAGEOFF
	.loc	98 16 84                        ; libframework/framework/src/Log.cpp:16:84
	bl	__ZNSt3__1lsINS_11char_traitsIcEEEERNS_13basic_ostreamIcT_EES6_PKc
Ltmp29:
	b	LBB3_10
LBB3_10:
	.loc	98 0 84                         ; libframework/framework/src/Log.cpp:0:84
	add	x0, sp, #112
	.loc	98 16 5                         ; libframework/framework/src/Log.cpp:16:5
	bl	__ZNSt3__14__fs10filesystem4pathD1Ev
	ldr	x8, [sp, #88]                   ; 8-byte Folded Reload
Ltmp43:
	.loc	98 17 10 is_stmt 1              ; libframework/framework/src/Log.cpp:17:10
	ldr	x8, [x8]
Ltmp44:
	.loc	98 17 9 is_stmt 0               ; libframework/framework/src/Log.cpp:17:9
	cbnz	x8, LBB3_19
	b	LBB3_11
LBB3_11:
Ltmp31:
	.loc	98 0 0                          ; libframework/framework/src/Log.cpp:0:0
	adrp	x0, __ZN3Log5mNameE@GOTPAGE
	ldr	x0, [x0, __ZN3Log5mNameE@GOTPAGEOFF]
Ltmp45:
	.loc	98 18 17 is_stmt 1              ; libframework/framework/src/Log.cpp:18:17
	bl	__ZN7log4cpp8Category11getInstanceERKNSt3__112basic_stringIcNS1_11char_traitsIcEENS1_9allocatorIcEEEE
	str	x0, [sp, #24]                   ; 8-byte Folded Spill
Ltmp32:
	b	LBB3_12
LBB3_12:
	.loc	98 0 17 is_stmt 0               ; libframework/framework/src/Log.cpp:0:17
	ldr	x8, [sp, #88]                   ; 8-byte Folded Reload
	ldr	x9, [sp, #24]                   ; 8-byte Folded Reload
	.loc	98 18 14                        ; libframework/framework/src/Log.cpp:18:14
	str	x9, [x8]
	.loc	98 19 9 is_stmt 1               ; libframework/framework/src/Log.cpp:19:9
	ldr	x0, [x8]
	.loc	98 19 15 is_stmt 0              ; libframework/framework/src/Log.cpp:19:15
	ldr	x8, [x0]
	ldr	x8, [x8, #24]
Ltmp33:
	mov	w1, #700
	blr	x8
Ltmp34:
	b	LBB3_13
LBB3_13:
	.loc	98 0 15                         ; libframework/framework/src/Log.cpp:0:15
	ldr	x8, [sp, #88]                   ; 8-byte Folded Reload
	.loc	98 20 9 is_stmt 1               ; libframework/framework/src/Log.cpp:20:9
	ldr	x8, [x8]
	str	x8, [sp, #8]                    ; 8-byte Folded Spill
	.loc	98 0 0 is_stmt 0                ; libframework/framework/src/Log.cpp:0:0
	adrp	x8, __ZN3Log5mTypeE@GOTPAGE
	ldr	x8, [x8, __ZN3Log5mTypeE@GOTPAGEOFF]
	.loc	98 20 40                        ; libframework/framework/src/Log.cpp:20:40
	ldr	w0, [x8]
Ltmp35:
	.loc	98 20 27                        ; libframework/framework/src/Log.cpp:20:27
	bl	__ZN3Log12makeAppenderENS_7logTypeE
	str	x0, [sp, #16]                   ; 8-byte Folded Spill
Ltmp36:
	b	LBB3_14
LBB3_14:
	.loc	98 0 27                         ; libframework/framework/src/Log.cpp:0:27
	ldr	x1, [sp, #16]                   ; 8-byte Folded Reload
	ldr	x0, [sp, #8]                    ; 8-byte Folded Reload
	.loc	98 20 15                        ; libframework/framework/src/Log.cpp:20:15
	ldr	x8, [x0]
	ldr	x8, [x8, #56]
Ltmp37:
	blr	x8
Ltmp38:
	b	LBB3_15
LBB3_15:
	.loc	98 21 5 is_stmt 1               ; libframework/framework/src/Log.cpp:21:5
	b	LBB3_19
Ltmp46:
LBB3_16:
Ltmp11:
	.loc	98 22 1                         ; libframework/framework/src/Log.cpp:22:1
	mov	x8, x1
	stur	x0, [x29, #-80]
	stur	w8, [x29, #-84]
	b	LBB3_21
LBB3_17:
Ltmp39:
	mov	x8, x1
	stur	x0, [x29, #-80]
	stur	w8, [x29, #-84]
	b	LBB3_20
LBB3_18:
Ltmp30:
	mov	x8, x1
	stur	x0, [x29, #-80]
	stur	w8, [x29, #-84]
	add	x0, sp, #112
	.loc	98 16 5                         ; libframework/framework/src/Log.cpp:16:5
	bl	__ZNSt3__14__fs10filesystem4pathD1Ev
	b	LBB3_20
Ltmp47:
LBB3_19:
	.loc	98 0 5 is_stmt 0                ; libframework/framework/src/Log.cpp:0:5
	sub	x0, x29, #72
	.loc	98 22 1 is_stmt 1               ; libframework/framework/src/Log.cpp:22:1
	bl	__ZNSt3__14__fs10filesystem4pathD1Ev
	ldur	x0, [x29, #-8]
	ldp	x29, x30, [sp, #224]            ; 16-byte Folded Reload
	add	sp, sp, #240
	ret
LBB3_20:
	.loc	98 0 1 is_stmt 0                ; libframework/framework/src/Log.cpp:0:1
	sub	x0, x29, #72
	.loc	98 22 1                         ; libframework/framework/src/Log.cpp:22:1
	bl	__ZNSt3__14__fs10filesystem4pathD1Ev
	b	LBB3_21
LBB3_21:
	.loc	98 0 1                          ; libframework/framework/src/Log.cpp:0:1
	ldr	x0, [sp, #96]                   ; 8-byte Folded Reload
Ltmp48:
	.loc	98 22 1                         ; libframework/framework/src/Log.cpp:22:1
	bl	__ZNSt3__119basic_ostringstreamIcNS_11char_traitsIcEENS_9allocatorIcEEED1Ev
	b	LBB3_22
LBB3_22:
	ldur	x0, [x29, #-80]
	bl	__Unwind_Resume
Ltmp49:
Lfunc_end3:
	.cfi_endproc
	.section	__TEXT,__gcc_except_tab
	.p2align	2
GCC_except_table3:
Lexception1:
	.byte	255                             ; @LPStart Encoding = omit
	.byte	255                             ; @TType Encoding = omit
	.byte	1                               ; Call site Encoding = uleb128
	.uleb128 Lcst_end1-Lcst_begin1
Lcst_begin1:
	.uleb128 Lfunc_begin3-Lfunc_begin3      ; >> Call Site 1 <<
	.uleb128 Ltmp9-Lfunc_begin3             ;   Call between Lfunc_begin3 and Ltmp9
	.byte	0                               ;     has no landing pad
	.byte	0                               ;   On action: cleanup
	.uleb128 Ltmp9-Lfunc_begin3             ; >> Call Site 2 <<
	.uleb128 Ltmp10-Ltmp9                   ;   Call between Ltmp9 and Ltmp10
	.uleb128 Ltmp11-Lfunc_begin3            ;     jumps to Ltmp11
	.byte	0                               ;   On action: cleanup
	.uleb128 Ltmp12-Lfunc_begin3            ; >> Call Site 3 <<
	.uleb128 Ltmp21-Ltmp12                  ;   Call between Ltmp12 and Ltmp21
	.uleb128 Ltmp39-Lfunc_begin3            ;     jumps to Ltmp39
	.byte	0                               ;   On action: cleanup
	.uleb128 Ltmp22-Lfunc_begin3            ; >> Call Site 4 <<
	.uleb128 Ltmp29-Ltmp22                  ;   Call between Ltmp22 and Ltmp29
	.uleb128 Ltmp30-Lfunc_begin3            ;     jumps to Ltmp30
	.byte	0                               ;   On action: cleanup
	.uleb128 Ltmp31-Lfunc_begin3            ; >> Call Site 5 <<
	.uleb128 Ltmp38-Ltmp31                  ;   Call between Ltmp31 and Ltmp38
	.uleb128 Ltmp39-Lfunc_begin3            ;     jumps to Ltmp39
	.byte	0                               ;   On action: cleanup
	.uleb128 Ltmp38-Lfunc_begin3            ; >> Call Site 6 <<
	.uleb128 Lfunc_end3-Ltmp38              ;   Call between Ltmp38 and Lfunc_end3
	.byte	0                               ;     has no landing pad
	.byte	0                               ;   On action: cleanup
Lcst_end1:
	.p2align	2
                                        ; -- End function
	.section	__TEXT,__text,regular,pure_instructions
	.p2align	2                               ; -- Begin function _ZNSt3__119basic_ostringstreamIcNS_11char_traitsIcEENS_9allocatorIcEEEC1Ev
__ZNSt3__119basic_ostringstreamIcNS_11char_traitsIcEENS_9allocatorIcEEEC1Ev: ; @_ZNSt3__119basic_ostringstreamIcNS_11char_traitsIcEENS_9allocatorIcEEEC1Ev
Lfunc_begin4:
	.loc	41 722 0 is_stmt 1              ; /Applications/Xcode.app/Contents/Developer/Platforms/MacOSX.platform/Developer/SDKs/MacOSX13.1.sdk/usr/include/c++/v1/sstream:722:0
	.cfi_startproc
	.cfi_personality 155, ___gxx_personality_v0
	.cfi_lsda 16, Lexception2
; %bb.0:
	sub	sp, sp, #80
	stp	x29, x30, [sp, #64]             ; 16-byte Folded Spill
	add	x29, sp, #64
	.cfi_def_cfa w29, 16
	.cfi_offset w30, -8
	.cfi_offset w29, -16
Ltmp56:
	.loc	41 0 0 is_stmt 0                ; /Applications/Xcode.app/Contents/Developer/Platforms/MacOSX.platform/Developer/SDKs/MacOSX13.1.sdk/usr/include/c++/v1/sstream:0:0
	adrp	x8, __ZTVNSt3__119basic_ostringstreamIcNS_11char_traitsIcEENS_9allocatorIcEEEE@GOTPAGE
	ldr	x8, [x8, __ZTVNSt3__119basic_ostringstreamIcNS_11char_traitsIcEENS_9allocatorIcEEEE@GOTPAGEOFF]
	add	x9, x8, #24
	str	x9, [sp, #8]                    ; 8-byte Folded Spill
	add	x8, x8, #64
	str	x8, [sp, #16]                   ; 8-byte Folded Spill
	adrp	x8, __ZTTNSt3__119basic_ostringstreamIcNS_11char_traitsIcEENS_9allocatorIcEEEE@GOTPAGE
	ldr	x8, [x8, __ZTTNSt3__119basic_ostringstreamIcNS_11char_traitsIcEENS_9allocatorIcEEEE@GOTPAGEOFF]
	add	x8, x8, #8
	str	x8, [sp, #24]                   ; 8-byte Folded Spill
	stur	x0, [x29, #-8]
	ldur	x8, [x29, #-8]
	str	x8, [sp, #32]                   ; 8-byte Folded Spill
	.loc	41 722 72 prologue_end is_stmt 1 ; /Applications/Xcode.app/Contents/Developer/Platforms/MacOSX.platform/Developer/SDKs/MacOSX13.1.sdk/usr/include/c++/v1/sstream:722:72
	add	x0, x8, #112
	.loc	41 721 5                        ; /Applications/Xcode.app/Contents/Developer/Platforms/MacOSX.platform/Developer/SDKs/MacOSX13.1.sdk/usr/include/c++/v1/sstream:721:5
	bl	__ZNSt3__19basic_iosIcNS_11char_traitsIcEEEC2Ev
	ldr	x10, [sp, #8]                   ; 8-byte Folded Reload
	ldr	x9, [sp, #16]                   ; 8-byte Folded Reload
	ldr	x1, [sp, #24]                   ; 8-byte Folded Reload
	ldr	x8, [sp, #32]                   ; 8-byte Folded Reload
	.loc	41 722 72                       ; /Applications/Xcode.app/Contents/Developer/Platforms/MacOSX.platform/Developer/SDKs/MacOSX13.1.sdk/usr/include/c++/v1/sstream:722:72
	str	x10, [x8]
	str	x9, [x8, #112]
Ltmp50:
	.loc	41 722 11 is_stmt 0             ; /Applications/Xcode.app/Contents/Developer/Platforms/MacOSX.platform/Developer/SDKs/MacOSX13.1.sdk/usr/include/c++/v1/sstream:722:11
	mov	x0, x8
	.loc	41 722 43                       ; /Applications/Xcode.app/Contents/Developer/Platforms/MacOSX.platform/Developer/SDKs/MacOSX13.1.sdk/usr/include/c++/v1/sstream:722:43
	add	x2, x8, #8
	.loc	41 722 11                       ; /Applications/Xcode.app/Contents/Developer/Platforms/MacOSX.platform/Developer/SDKs/MacOSX13.1.sdk/usr/include/c++/v1/sstream:722:11
	bl	__ZNSt3__113basic_ostreamIcNS_11char_traitsIcEEEC2EPNS_15basic_streambufIcS2_EE
Ltmp51:
	b	LBB4_1
LBB4_1:
	.loc	41 0 11                         ; /Applications/Xcode.app/Contents/Developer/Platforms/MacOSX.platform/Developer/SDKs/MacOSX13.1.sdk/usr/include/c++/v1/sstream:0:11
	ldr	x8, [sp, #32]                   ; 8-byte Folded Reload
	ldr	x9, [sp, #16]                   ; 8-byte Folded Reload
	ldr	x10, [sp, #8]                   ; 8-byte Folded Reload
	.loc	41 722 72                       ; /Applications/Xcode.app/Contents/Developer/Platforms/MacOSX.platform/Developer/SDKs/MacOSX13.1.sdk/usr/include/c++/v1/sstream:722:72
	str	x10, [x8]
	str	x9, [x8, #112]
	.loc	41 722 51                       ; /Applications/Xcode.app/Contents/Developer/Platforms/MacOSX.platform/Developer/SDKs/MacOSX13.1.sdk/usr/include/c++/v1/sstream:722:51
	add	x0, x8, #8
Ltmp53:
	mov	w1, #16
	bl	__ZNSt3__115basic_stringbufIcNS_11char_traitsIcEENS_9allocatorIcEEEC1Ej
Ltmp54:
	b	LBB4_2
LBB4_2:
	.loc	41 0 51                         ; /Applications/Xcode.app/Contents/Developer/Platforms/MacOSX.platform/Developer/SDKs/MacOSX13.1.sdk/usr/include/c++/v1/sstream:0:51
	ldr	x0, [sp, #32]                   ; 8-byte Folded Reload
	.loc	41 722 73                       ; /Applications/Xcode.app/Contents/Developer/Platforms/MacOSX.platform/Developer/SDKs/MacOSX13.1.sdk/usr/include/c++/v1/sstream:722:73
	ldp	x29, x30, [sp, #64]             ; 16-byte Folded Reload
	add	sp, sp, #80
	ret
LBB4_3:
Ltmp52:
	mov	x8, x1
	stur	x0, [x29, #-16]
	stur	w8, [x29, #-20]
	b	LBB4_5
LBB4_4:
Ltmp55:
	mov	x9, x0
	ldr	x0, [sp, #32]                   ; 8-byte Folded Reload
	mov	x8, x1
	ldr	x1, [sp, #24]                   ; 8-byte Folded Reload
                                        ; kill: def $w8 killed $w8 killed $x8
	stur	x9, [x29, #-16]
	stur	w8, [x29, #-20]
Ltmp57:
	.loc	41 722 73                       ; /Applications/Xcode.app/Contents/Developer/Platforms/MacOSX.platform/Developer/SDKs/MacOSX13.1.sdk/usr/include/c++/v1/sstream:722:73
	bl	__ZNSt3__113basic_ostreamIcNS_11char_traitsIcEEED2Ev
	b	LBB4_5
LBB4_5:
	.loc	41 0 73                         ; /Applications/Xcode.app/Contents/Developer/Platforms/MacOSX.platform/Developer/SDKs/MacOSX13.1.sdk/usr/include/c++/v1/sstream:0:73
	ldr	x8, [sp, #32]                   ; 8-byte Folded Reload
	.loc	41 722 73                       ; /Applications/Xcode.app/Contents/Developer/Platforms/MacOSX.platform/Developer/SDKs/MacOSX13.1.sdk/usr/include/c++/v1/sstream:722:73
	add	x0, x8, #112
	bl	__ZNSt3__19basic_iosIcNS_11char_traitsIcEEED2Ev
	b	LBB4_6
LBB4_6:
	ldur	x0, [x29, #-16]
	bl	__Unwind_Resume
Ltmp58:
Lfunc_end4:
	.cfi_endproc
	.section	__TEXT,__gcc_except_tab
	.p2align	2
GCC_except_table4:
Lexception2:
	.byte	255                             ; @LPStart Encoding = omit
	.byte	255                             ; @TType Encoding = omit
	.byte	1                               ; Call site Encoding = uleb128
	.uleb128 Lcst_end2-Lcst_begin2
Lcst_begin2:
	.uleb128 Lfunc_begin4-Lfunc_begin4      ; >> Call Site 1 <<
	.uleb128 Ltmp50-Lfunc_begin4            ;   Call between Lfunc_begin4 and Ltmp50
	.byte	0                               ;     has no landing pad
	.byte	0                               ;   On action: cleanup
	.uleb128 Ltmp50-Lfunc_begin4            ; >> Call Site 2 <<
	.uleb128 Ltmp51-Ltmp50                  ;   Call between Ltmp50 and Ltmp51
	.uleb128 Ltmp52-Lfunc_begin4            ;     jumps to Ltmp52
	.byte	0                               ;   On action: cleanup
	.uleb128 Ltmp53-Lfunc_begin4            ; >> Call Site 3 <<
	.uleb128 Ltmp54-Ltmp53                  ;   Call between Ltmp53 and Ltmp54
	.uleb128 Ltmp55-Lfunc_begin4            ;     jumps to Ltmp55
	.byte	0                               ;   On action: cleanup
	.uleb128 Ltmp54-Lfunc_begin4            ; >> Call Site 4 <<
	.uleb128 Lfunc_end4-Ltmp54              ;   Call between Ltmp54 and Lfunc_end4
	.byte	0                               ;     has no landing pad
	.byte	0                               ;   On action: cleanup
Lcst_end2:
	.p2align	2
                                        ; -- End function
	.section	__TEXT,__text,regular,pure_instructions
	.globl	__ZNSt3__14__fs10filesystem4pathC1IPKcvEERKT_NS2_6formatE ; -- Begin function _ZNSt3__14__fs10filesystem4pathC1IPKcvEERKT_NS2_6formatE
	.weak_def_can_be_hidden	__ZNSt3__14__fs10filesystem4pathC1IPKcvEERKT_NS2_6formatE
	.p2align	2
__ZNSt3__14__fs10filesystem4pathC1IPKcvEERKT_NS2_6formatE: ; @_ZNSt3__14__fs10filesystem4pathC1IPKcvEERKT_NS2_6formatE
Lfunc_begin5:
	.loc	43 948 0 is_stmt 1              ; /Applications/Xcode.app/Contents/Developer/Platforms/MacOSX.platform/Developer/SDKs/MacOSX13.1.sdk/usr/include/c++/v1/filesystem:948:0
	.cfi_startproc
; %bb.0:
	sub	sp, sp, #48
	stp	x29, x30, [sp, #32]             ; 16-byte Folded Spill
	add	x29, sp, #32
	.cfi_def_cfa w29, 16
	.cfi_offset w30, -8
	.cfi_offset w29, -16
	stur	x0, [x29, #-8]
	str	x1, [sp, #16]
	strb	w2, [sp, #15]
	ldur	x0, [x29, #-8]
	str	x0, [sp]                        ; 8-byte Folded Spill
Ltmp59:
	.loc	43 948 60 prologue_end          ; /Applications/Xcode.app/Contents/Developer/Platforms/MacOSX.platform/Developer/SDKs/MacOSX13.1.sdk/usr/include/c++/v1/filesystem:948:60
	ldr	x1, [sp, #16]
	ldrb	w2, [sp, #15]
	bl	__ZNSt3__14__fs10filesystem4pathC2IPKcvEERKT_NS2_6formatE
	ldr	x0, [sp]                        ; 8-byte Folded Reload
	.loc	43 950 3                        ; /Applications/Xcode.app/Contents/Developer/Platforms/MacOSX.platform/Developer/SDKs/MacOSX13.1.sdk/usr/include/c++/v1/filesystem:950:3
	ldp	x29, x30, [sp, #32]             ; 16-byte Folded Reload
	add	sp, sp, #48
	ret
Ltmp60:
Lfunc_end5:
	.cfi_endproc
                                        ; -- End function
	.globl	__ZNSt3__1lsINS_11char_traitsIcEEEERNS_13basic_ostreamIcT_EES6_PKc ; -- Begin function _ZNSt3__1lsINS_11char_traitsIcEEEERNS_13basic_ostreamIcT_EES6_PKc
	.weak_definition	__ZNSt3__1lsINS_11char_traitsIcEEEERNS_13basic_ostreamIcT_EES6_PKc
	.p2align	2
__ZNSt3__1lsINS_11char_traitsIcEEEERNS_13basic_ostreamIcT_EES6_PKc: ; @_ZNSt3__1lsINS_11char_traitsIcEEEERNS_13basic_ostreamIcT_EES6_PKc
Lfunc_begin6:
	.loc	39 856 0                        ; /Applications/Xcode.app/Contents/Developer/Platforms/MacOSX.platform/Developer/SDKs/MacOSX13.1.sdk/usr/include/c++/v1/ostream:856:0
	.cfi_startproc
; %bb.0:
	sub	sp, sp, #48
	stp	x29, x30, [sp, #32]             ; 16-byte Folded Spill
	add	x29, sp, #32
	.cfi_def_cfa w29, 16
	.cfi_offset w30, -8
	.cfi_offset w29, -16
	stur	x0, [x29, #-8]
	str	x1, [sp, #16]
Ltmp61:
	.loc	39 857 47 prologue_end          ; /Applications/Xcode.app/Contents/Developer/Platforms/MacOSX.platform/Developer/SDKs/MacOSX13.1.sdk/usr/include/c++/v1/ostream:857:47
	ldur	x8, [x29, #-8]
	str	x8, [sp, #8]                    ; 8-byte Folded Spill
	.loc	39 857 53 is_stmt 0             ; /Applications/Xcode.app/Contents/Developer/Platforms/MacOSX.platform/Developer/SDKs/MacOSX13.1.sdk/usr/include/c++/v1/ostream:857:53
	ldr	x8, [sp, #16]
	str	x8, [sp]                        ; 8-byte Folded Spill
	.loc	39 857 76                       ; /Applications/Xcode.app/Contents/Developer/Platforms/MacOSX.platform/Developer/SDKs/MacOSX13.1.sdk/usr/include/c++/v1/ostream:857:76
	ldr	x0, [sp, #16]
	.loc	39 857 60                       ; /Applications/Xcode.app/Contents/Developer/Platforms/MacOSX.platform/Developer/SDKs/MacOSX13.1.sdk/usr/include/c++/v1/ostream:857:60
	bl	__ZNSt3__111char_traitsIcE6lengthEPKc
	ldr	x1, [sp]                        ; 8-byte Folded Reload
	mov	x2, x0
	ldr	x0, [sp, #8]                    ; 8-byte Folded Reload
	.loc	39 857 12                       ; /Applications/Xcode.app/Contents/Developer/Platforms/MacOSX.platform/Developer/SDKs/MacOSX13.1.sdk/usr/include/c++/v1/ostream:857:12
	bl	__ZNSt3__124__put_character_sequenceIcNS_11char_traitsIcEEEERNS_13basic_ostreamIT_T0_EES7_PKS4_m
	.loc	39 857 5                        ; /Applications/Xcode.app/Contents/Developer/Platforms/MacOSX.platform/Developer/SDKs/MacOSX13.1.sdk/usr/include/c++/v1/ostream:857:5
	ldp	x29, x30, [sp, #32]             ; 16-byte Folded Reload
	add	sp, sp, #48
	ret
Ltmp62:
Lfunc_end6:
	.cfi_endproc
                                        ; -- End function
	.p2align	2                               ; -- Begin function _ZNSt3__14__fs10filesystemlsIcNS_11char_traitsIcEEEENS_9enable_ifIXaasr7is_sameIT_cEE5valuesr7is_sameIT0_S4_EE5valueERNS_13basic_ostreamIS6_S7_EEE4typeESA_RKNS1_4pathE
__ZNSt3__14__fs10filesystemlsIcNS_11char_traitsIcEEEENS_9enable_ifIXaasr7is_sameIT_cEE5valuesr7is_sameIT0_S4_EE5valueERNS_13basic_ostreamIS6_S7_EEE4typeESA_RKNS1_4pathE: ; @_ZNSt3__14__fs10filesystemlsIcNS_11char_traitsIcEEEENS_9enable_ifIXaasr7is_sameIT_cEE5valuesr7is_sameIT0_S4_EE5valueERNS_13basic_ostreamIS6_S7_EEE4typeESA_RKNS1_4pathE
Lfunc_begin7:
	.loc	43 1456 0 is_stmt 1             ; /Applications/Xcode.app/Contents/Developer/Platforms/MacOSX.platform/Developer/SDKs/MacOSX13.1.sdk/usr/include/c++/v1/filesystem:1456:0
	.cfi_startproc
; %bb.0:
	sub	sp, sp, #80
	stp	x29, x30, [sp, #64]             ; 16-byte Folded Spill
	add	x29, sp, #64
	.cfi_def_cfa w29, 16
	.cfi_offset w30, -8
	.cfi_offset w29, -16
	stur	x0, [x29, #-8]
	stur	x1, [x29, #-16]
Ltmp63:
	.loc	43 1457 5 prologue_end          ; /Applications/Xcode.app/Contents/Developer/Platforms/MacOSX.platform/Developer/SDKs/MacOSX13.1.sdk/usr/include/c++/v1/filesystem:1457:5
	ldur	x8, [x29, #-8]
	str	x8, [sp, #8]                    ; 8-byte Folded Spill
	.loc	43 1457 32 is_stmt 0            ; /Applications/Xcode.app/Contents/Developer/Platforms/MacOSX.platform/Developer/SDKs/MacOSX13.1.sdk/usr/include/c++/v1/filesystem:1457:32
	ldur	x0, [x29, #-16]
	.loc	43 1457 36                      ; /Applications/Xcode.app/Contents/Developer/Platforms/MacOSX.platform/Developer/SDKs/MacOSX13.1.sdk/usr/include/c++/v1/filesystem:1457:36
	bl	__ZNKSt3__14__fs10filesystem4path6nativeEv
	add	x8, sp, #24
	str	x8, [sp, #16]                   ; 8-byte Folded Spill
	mov	w1, #34
	mov	w2, #92
	.loc	43 1457 13                      ; /Applications/Xcode.app/Contents/Developer/Platforms/MacOSX.platform/Developer/SDKs/MacOSX13.1.sdk/usr/include/c++/v1/filesystem:1457:13
	bl	__ZNSt3__1L8__quotedIcNS_11char_traitsIcEENS_9allocatorIcEEEENS_21__quoted_output_proxyIT_NS_12basic_stringIS6_T0_T1_E14const_iteratorENS1_IS6_EEEERKSA_S6_S6_
	ldr	x0, [sp, #8]                    ; 8-byte Folded Reload
	ldr	x1, [sp, #16]                   ; 8-byte Folded Reload
	.loc	43 1457 10                      ; /Applications/Xcode.app/Contents/Developer/Platforms/MacOSX.platform/Developer/SDKs/MacOSX13.1.sdk/usr/include/c++/v1/filesystem:1457:10
	bl	__ZNSt3__1lsIcNS_11char_traitsIcEENS_11__wrap_iterIPKcEEEERNS_13basic_ostreamIT_T0_EESB_RKNS_21__quoted_output_proxyIS8_T1_S9_EE
	.loc	43 1458 12 is_stmt 1            ; /Applications/Xcode.app/Contents/Developer/Platforms/MacOSX.platform/Developer/SDKs/MacOSX13.1.sdk/usr/include/c++/v1/filesystem:1458:12
	ldur	x0, [x29, #-8]
	.loc	43 1458 5 is_stmt 0             ; /Applications/Xcode.app/Contents/Developer/Platforms/MacOSX.platform/Developer/SDKs/MacOSX13.1.sdk/usr/include/c++/v1/filesystem:1458:5
	ldp	x29, x30, [sp, #64]             ; 16-byte Folded Reload
	add	sp, sp, #80
	ret
Ltmp64:
Lfunc_end7:
	.cfi_endproc
                                        ; -- End function
	.globl	__ZNSt3__1lsIcNS_11char_traitsIcEENS_9allocatorIcEEEERNS_13basic_ostreamIT_T0_EES9_RKNS_12basic_stringIS6_S7_T1_EE ; -- Begin function _ZNSt3__1lsIcNS_11char_traitsIcEENS_9allocatorIcEEEERNS_13basic_ostreamIT_T0_EES9_RKNS_12basic_stringIS6_S7_T1_EE
	.weak_definition	__ZNSt3__1lsIcNS_11char_traitsIcEENS_9allocatorIcEEEERNS_13basic_ostreamIT_T0_EES9_RKNS_12basic_stringIS6_S7_T1_EE
	.p2align	2
__ZNSt3__1lsIcNS_11char_traitsIcEENS_9allocatorIcEEEERNS_13basic_ostreamIT_T0_EES9_RKNS_12basic_stringIS6_S7_T1_EE: ; @_ZNSt3__1lsIcNS_11char_traitsIcEENS_9allocatorIcEEEERNS_13basic_ostreamIT_T0_EES9_RKNS_12basic_stringIS6_S7_T1_EE
Lfunc_begin8:
	.loc	39 1040 0 is_stmt 1             ; /Applications/Xcode.app/Contents/Developer/Platforms/MacOSX.platform/Developer/SDKs/MacOSX13.1.sdk/usr/include/c++/v1/ostream:1040:0
	.cfi_startproc
; %bb.0:
	sub	sp, sp, #48
	stp	x29, x30, [sp, #32]             ; 16-byte Folded Spill
	add	x29, sp, #32
	.cfi_def_cfa w29, 16
	.cfi_offset w30, -8
	.cfi_offset w29, -16
	stur	x0, [x29, #-8]
	str	x1, [sp, #16]
Ltmp65:
	.loc	39 1041 47 prologue_end         ; /Applications/Xcode.app/Contents/Developer/Platforms/MacOSX.platform/Developer/SDKs/MacOSX13.1.sdk/usr/include/c++/v1/ostream:1041:47
	ldur	x8, [x29, #-8]
	str	x8, [sp, #8]                    ; 8-byte Folded Spill
	.loc	39 1041 53 is_stmt 0            ; /Applications/Xcode.app/Contents/Developer/Platforms/MacOSX.platform/Developer/SDKs/MacOSX13.1.sdk/usr/include/c++/v1/ostream:1041:53
	ldr	x0, [sp, #16]
	.loc	39 1041 59                      ; /Applications/Xcode.app/Contents/Developer/Platforms/MacOSX.platform/Developer/SDKs/MacOSX13.1.sdk/usr/include/c++/v1/ostream:1041:59
	bl	__ZNKSt3__112basic_stringIcNS_11char_traitsIcEENS_9allocatorIcEEE4dataEv
	str	x0, [sp]                        ; 8-byte Folded Spill
	.loc	39 1041 67                      ; /Applications/Xcode.app/Contents/Developer/Platforms/MacOSX.platform/Developer/SDKs/MacOSX13.1.sdk/usr/include/c++/v1/ostream:1041:67
	ldr	x0, [sp, #16]
	.loc	39 1041 73                      ; /Applications/Xcode.app/Contents/Developer/Platforms/MacOSX.platform/Developer/SDKs/MacOSX13.1.sdk/usr/include/c++/v1/ostream:1041:73
	bl	__ZNKSt3__112basic_stringIcNS_11char_traitsIcEENS_9allocatorIcEEE4sizeEv
	ldr	x1, [sp]                        ; 8-byte Folded Reload
	mov	x2, x0
	ldr	x0, [sp, #8]                    ; 8-byte Folded Reload
	.loc	39 1041 12                      ; /Applications/Xcode.app/Contents/Developer/Platforms/MacOSX.platform/Developer/SDKs/MacOSX13.1.sdk/usr/include/c++/v1/ostream:1041:12
	bl	__ZNSt3__124__put_character_sequenceIcNS_11char_traitsIcEEEERNS_13basic_ostreamIT_T0_EES7_PKS4_m
	.loc	39 1041 5                       ; /Applications/Xcode.app/Contents/Developer/Platforms/MacOSX.platform/Developer/SDKs/MacOSX13.1.sdk/usr/include/c++/v1/ostream:1041:5
	ldp	x29, x30, [sp, #32]             ; 16-byte Folded Reload
	add	sp, sp, #48
	ret
Ltmp66:
Lfunc_end8:
	.cfi_endproc
                                        ; -- End function
	.p2align	2                               ; -- Begin function _ZNKSt3__14__fs10filesystem4path8filenameEv
__ZNKSt3__14__fs10filesystem4path8filenameEv: ; @_ZNKSt3__14__fs10filesystem4path8filenameEv
Lfunc_begin9:
	.loc	43 1369 0 is_stmt 1             ; /Applications/Xcode.app/Contents/Developer/Platforms/MacOSX.platform/Developer/SDKs/MacOSX13.1.sdk/usr/include/c++/v1/filesystem:1369:0
	.cfi_startproc
; %bb.0:
	sub	sp, sp, #96
	stp	x29, x30, [sp, #80]             ; 16-byte Folded Spill
	add	x29, sp, #80
	.cfi_def_cfa w29, 16
	.cfi_offset w30, -8
	.cfi_offset w29, -16
	str	x8, [sp, #8]                    ; 8-byte Folded Spill
	stur	x8, [x29, #-8]
	stur	x0, [x29, #-16]
	ldur	x0, [x29, #-16]
Ltmp67:
	.loc	43 1370 24 prologue_end         ; /Applications/Xcode.app/Contents/Developer/Platforms/MacOSX.platform/Developer/SDKs/MacOSX13.1.sdk/usr/include/c++/v1/filesystem:1370:24
	bl	__ZNKSt3__14__fs10filesystem4path10__filenameEv
	mov	x8, x1
	add	x1, sp, #24
	str	x0, [sp, #24]
	str	x8, [sp, #32]
	add	x0, sp, #40
	str	x0, [sp, #16]                   ; 8-byte Folded Spill
	.loc	43 1370 12 is_stmt 0            ; /Applications/Xcode.app/Contents/Developer/Platforms/MacOSX.platform/Developer/SDKs/MacOSX13.1.sdk/usr/include/c++/v1/filesystem:1370:12
	bl	__ZNSt3__112basic_stringIcNS_11char_traitsIcEENS_9allocatorIcEEEC1INS_17basic_string_viewIcS2_EEvEERKT_
	ldr	x0, [sp, #8]                    ; 8-byte Folded Reload
	ldr	x1, [sp, #16]                   ; 8-byte Folded Reload
	mov	w2, #0
	bl	__ZNSt3__14__fs10filesystem4pathC1EONS_12basic_stringIcNS_11char_traitsIcEENS_9allocatorIcEEEENS2_6formatE
	ldr	x0, [sp, #16]                   ; 8-byte Folded Reload
	.loc	43 1370 5                       ; /Applications/Xcode.app/Contents/Developer/Platforms/MacOSX.platform/Developer/SDKs/MacOSX13.1.sdk/usr/include/c++/v1/filesystem:1370:5
	bl	__ZNSt3__112basic_stringIcNS_11char_traitsIcEENS_9allocatorIcEEED1Ev
	ldp	x29, x30, [sp, #80]             ; 16-byte Folded Reload
	add	sp, sp, #96
	ret
Ltmp68:
Lfunc_end9:
	.cfi_endproc
                                        ; -- End function
	.p2align	2                               ; -- Begin function _ZNSt3__14__fs10filesystem4pathD1Ev
__ZNSt3__14__fs10filesystem4pathD1Ev:   ; @_ZNSt3__14__fs10filesystem4pathD1Ev
Lfunc_begin10:
	.loc	43 968 0 is_stmt 1              ; /Applications/Xcode.app/Contents/Developer/Platforms/MacOSX.platform/Developer/SDKs/MacOSX13.1.sdk/usr/include/c++/v1/filesystem:968:0
	.cfi_startproc
; %bb.0:
	sub	sp, sp, #32
	stp	x29, x30, [sp, #16]             ; 16-byte Folded Spill
	add	x29, sp, #16
	.cfi_def_cfa w29, 16
	.cfi_offset w30, -8
	.cfi_offset w29, -16
	str	x0, [sp, #8]
	ldr	x0, [sp, #8]
	str	x0, [sp]                        ; 8-byte Folded Spill
Ltmp69:
	.loc	43 968 19 prologue_end          ; /Applications/Xcode.app/Contents/Developer/Platforms/MacOSX.platform/Developer/SDKs/MacOSX13.1.sdk/usr/include/c++/v1/filesystem:968:19
	bl	__ZNSt3__14__fs10filesystem4pathD2Ev
	ldr	x0, [sp]                        ; 8-byte Folded Reload
	ldp	x29, x30, [sp, #16]             ; 16-byte Folded Reload
	add	sp, sp, #32
	ret
Ltmp70:
Lfunc_end10:
	.cfi_endproc
                                        ; -- End function
	.globl	__ZN3Log12makeAppenderENS_7logTypeE ; -- Begin function _ZN3Log12makeAppenderENS_7logTypeE
	.p2align	2
__ZN3Log12makeAppenderENS_7logTypeE:    ; @_ZN3Log12makeAppenderENS_7logTypeE
Lfunc_begin11:
	.loc	98 41 0                         ; libframework/framework/src/Log.cpp:41:0
	.cfi_startproc
	.cfi_personality 155, ___gxx_personality_v0
	.cfi_lsda 16, Lexception3
; %bb.0:
	sub	sp, sp, #192
	stp	x29, x30, [sp, #176]            ; 16-byte Folded Spill
	add	x29, sp, #176
	.cfi_def_cfa w29, 16
	.cfi_offset w30, -8
	.cfi_offset w29, -16
Ltmp89:
	.loc	98 0 0 is_stmt 0                ; libframework/framework/src/Log.cpp:0:0
	adrp	x8, __ZN3Log5mNameE@GOTPAGE
	ldr	x8, [x8, __ZN3Log5mNameE@GOTPAGEOFF]
	str	x8, [sp, #40]                   ; 8-byte Folded Spill
	stur	w0, [x29, #-4]
Ltmp90:
                                        ; kill: def $x8 killed $xzr
	.loc	98 42 24 prologue_end is_stmt 1 ; libframework/framework/src/Log.cpp:42:24
	stur	xzr, [x29, #-16]
	.loc	98 43 13                        ; libframework/framework/src/Log.cpp:43:13
	ldur	w8, [x29, #-4]
	str	w8, [sp, #52]                   ; 4-byte Folded Spill
	.loc	98 43 5 is_stmt 0               ; libframework/framework/src/Log.cpp:43:5
	cbz	w8, LBB11_10
	b	LBB11_1
LBB11_1:
	.loc	98 0 5                          ; libframework/framework/src/Log.cpp:0:5
	ldr	w8, [sp, #52]                   ; 4-byte Folded Reload
	.loc	98 43 5                         ; libframework/framework/src/Log.cpp:43:5
	subs	w8, w8, #1
	b.ne	LBB11_20
	b	LBB11_2
LBB11_2:
	.loc	98 0 5                          ; libframework/framework/src/Log.cpp:0:5
	mov	x0, #64
Ltmp91:
	.loc	98 45 24 is_stmt 1              ; libframework/framework/src/Log.cpp:45:24
	bl	__Znwm
	str	x0, [sp, #32]                   ; 8-byte Folded Spill
	mov	w8, #1
	and	w8, w8, #0x1
	and	w8, w8, #0x1
	sturb	w8, [x29, #-53]
Ltmp77:
	sub	x0, x29, #40
	.loc	98 0 0 is_stmt 0                ; libframework/framework/src/Log.cpp:0:0
	adrp	x1, l_.str.7@PAGE
	add	x1, x1, l_.str.7@PAGEOFF
	.loc	98 45 53                        ; libframework/framework/src/Log.cpp:45:53
	bl	__ZNSt3__112basic_stringIcNS_11char_traitsIcEENS_9allocatorIcEEEC1IDnEEPKc
Ltmp78:
	b	LBB11_3
LBB11_3:
Ltmp80:
	.loc	98 0 53                         ; libframework/framework/src/Log.cpp:0:53
	ldr	x0, [sp, #32]                   ; 8-byte Folded Reload
	sub	x1, x29, #40
	adrp	x2, __ZNSt3__14coutE@GOTPAGE
	ldr	x2, [x2, __ZNSt3__14coutE@GOTPAGEOFF]
	.loc	98 45 28                        ; libframework/framework/src/Log.cpp:45:28
	bl	__ZN7log4cpp15OstreamAppenderC1ERKNSt3__112basic_stringIcNS1_11char_traitsIcEENS1_9allocatorIcEEEEPNS1_13basic_ostreamIcS4_EE
Ltmp81:
	b	LBB11_4
LBB11_4:
	.loc	98 0 28                         ; libframework/framework/src/Log.cpp:0:28
	ldr	x8, [sp, #32]                   ; 8-byte Folded Reload
	mov	w9, #0
	.loc	98 45 24                        ; libframework/framework/src/Log.cpp:45:24
	and	w9, w9, #0x1
	and	w9, w9, #0x1
	sturb	w9, [x29, #-53]
	.loc	98 45 22                        ; libframework/framework/src/Log.cpp:45:22
	stur	x8, [x29, #-16]
	sub	x0, x29, #40
	.loc	98 45 13                        ; libframework/framework/src/Log.cpp:45:13
	bl	__ZNSt3__112basic_stringIcNS_11char_traitsIcEENS_9allocatorIcEEED1Ev
	.loc	98 46 13 is_stmt 1              ; libframework/framework/src/Log.cpp:46:13
	b	LBB11_21
LBB11_5:
Ltmp79:
	.loc	98 61 1                         ; libframework/framework/src/Log.cpp:61:1
	mov	x8, x1
	stur	x0, [x29, #-48]
	stur	w8, [x29, #-52]
	b	LBB11_7
LBB11_6:
Ltmp82:
	mov	x8, x1
	stur	x0, [x29, #-48]
	stur	w8, [x29, #-52]
	sub	x0, x29, #40
	.loc	98 45 13                        ; libframework/framework/src/Log.cpp:45:13
	bl	__ZNSt3__112basic_stringIcNS_11char_traitsIcEENS_9allocatorIcEEED1Ev
	b	LBB11_7
LBB11_7:
	ldurb	w8, [x29, #-53]
	tbz	w8, #0, LBB11_9
	b	LBB11_8
LBB11_8:
	.loc	98 0 13 is_stmt 0               ; libframework/framework/src/Log.cpp:0:13
	ldr	x0, [sp, #32]                   ; 8-byte Folded Reload
	.loc	98 45 13                        ; libframework/framework/src/Log.cpp:45:13
	bl	__ZdlPv
	b	LBB11_9
LBB11_9:
	b	LBB11_26
LBB11_10:
	.loc	98 0 13                         ; libframework/framework/src/Log.cpp:0:13
	ldr	x0, [sp, #40]                   ; 8-byte Folded Reload
Ltmp92:
	.loc	98 48 23 is_stmt 1              ; libframework/framework/src/Log.cpp:48:23
	bl	__ZNKSt3__112basic_stringIcNS_11char_traitsIcEENS_9allocatorIcEEE5emptyEv
Ltmp93:
	.loc	98 48 17 is_stmt 0              ; libframework/framework/src/Log.cpp:48:17
	tbz	w0, #0, LBB11_12
	b	LBB11_11
LBB11_11:
	.loc	98 0 17                         ; libframework/framework/src/Log.cpp:0:17
	mov	w0, #-1
Ltmp94:
	.loc	98 49 17 is_stmt 1              ; libframework/framework/src/Log.cpp:49:17
	bl	_exit
Ltmp95:
LBB11_12:
	.loc	98 0 17 is_stmt 0               ; libframework/framework/src/Log.cpp:0:17
	mov	x0, #96
	.loc	98 51 24 is_stmt 1              ; libframework/framework/src/Log.cpp:51:24
	bl	__Znwm
	mov	x1, x0
	ldr	x0, [sp, #40]                   ; 8-byte Folded Reload
	str	x1, [sp, #24]                   ; 8-byte Folded Spill
	mov	w8, #1
	and	w8, w8, #0x1
	and	w8, w8, #0x1
	sturb	w8, [x29, #-81]
Ltmp71:
	sub	x8, x29, #80
	.loc	98 0 0 is_stmt 0                ; libframework/framework/src/Log.cpp:0:0
	adrp	x1, l_.str.8@PAGE
	add	x1, x1, l_.str.8@PAGEOFF
	.loc	98 51 63                        ; libframework/framework/src/Log.cpp:51:63
	bl	__ZNSt3__1plIcNS_11char_traitsIcEENS_9allocatorIcEEEENS_12basic_stringIT_T0_T1_EERKS9_PKS6_
Ltmp72:
	b	LBB11_13
LBB11_13:
Ltmp74:
	.loc	98 0 63                         ; libframework/framework/src/Log.cpp:0:63
	ldr	x1, [sp, #40]                   ; 8-byte Folded Reload
	ldr	x0, [sp, #24]                   ; 8-byte Folded Reload
	sub	x2, x29, #80
	mov	w8, #1
	.loc	98 51 28                        ; libframework/framework/src/Log.cpp:51:28
	and	w3, w8, #0x1
	mov	w4, #420
	bl	__ZN7log4cpp12FileAppenderC1ERKNSt3__112basic_stringIcNS1_11char_traitsIcEENS1_9allocatorIcEEEES9_bt
Ltmp75:
	b	LBB11_14
LBB11_14:
	.loc	98 0 28                         ; libframework/framework/src/Log.cpp:0:28
	ldr	x8, [sp, #24]                   ; 8-byte Folded Reload
	mov	w9, #0
	.loc	98 51 24                        ; libframework/framework/src/Log.cpp:51:24
	and	w9, w9, #0x1
	and	w9, w9, #0x1
	sturb	w9, [x29, #-81]
	.loc	98 51 22                        ; libframework/framework/src/Log.cpp:51:22
	stur	x8, [x29, #-16]
	sub	x0, x29, #80
	.loc	98 51 13                        ; libframework/framework/src/Log.cpp:51:13
	bl	__ZNSt3__112basic_stringIcNS_11char_traitsIcEENS_9allocatorIcEEED1Ev
	.loc	98 52 13 is_stmt 1              ; libframework/framework/src/Log.cpp:52:13
	b	LBB11_21
LBB11_15:
Ltmp73:
	.loc	98 61 1                         ; libframework/framework/src/Log.cpp:61:1
	mov	x8, x1
	stur	x0, [x29, #-48]
	stur	w8, [x29, #-52]
	b	LBB11_17
LBB11_16:
Ltmp76:
	mov	x8, x1
	stur	x0, [x29, #-48]
	stur	w8, [x29, #-52]
	sub	x0, x29, #80
	.loc	98 51 13                        ; libframework/framework/src/Log.cpp:51:13
	bl	__ZNSt3__112basic_stringIcNS_11char_traitsIcEENS_9allocatorIcEEED1Ev
	b	LBB11_17
LBB11_17:
	ldurb	w8, [x29, #-81]
	tbz	w8, #0, LBB11_19
	b	LBB11_18
LBB11_18:
	.loc	98 0 13 is_stmt 0               ; libframework/framework/src/Log.cpp:0:13
	ldr	x0, [sp, #24]                   ; 8-byte Folded Reload
	.loc	98 51 13                        ; libframework/framework/src/Log.cpp:51:13
	bl	__ZdlPv
	b	LBB11_19
LBB11_19:
	b	LBB11_26
LBB11_20:
	.loc	98 54 13 is_stmt 1              ; libframework/framework/src/Log.cpp:54:13
	b	LBB11_21
Ltmp96:
LBB11_21:
	.loc	98 0 13 is_stmt 0               ; libframework/framework/src/Log.cpp:0:13
	mov	x0, #56
	.loc	98 56 38 is_stmt 1              ; libframework/framework/src/Log.cpp:56:38
	bl	__Znwm
	str	x0, [sp, #16]                   ; 8-byte Folded Spill
Ltmp83:
	.loc	98 56 42 is_stmt 0              ; libframework/framework/src/Log.cpp:56:42
	bl	__ZN7log4cpp13PatternLayoutC1Ev
Ltmp84:
	b	LBB11_22
LBB11_22:
	.loc	98 0 42                         ; libframework/framework/src/Log.cpp:0:42
	ldr	x8, [sp, #16]                   ; 8-byte Folded Reload
	.loc	98 56 29                        ; libframework/framework/src/Log.cpp:56:29
	str	x8, [sp, #80]
	.loc	98 58 5 is_stmt 1               ; libframework/framework/src/Log.cpp:58:5
	ldr	x8, [sp, #80]
	str	x8, [sp]                        ; 8-byte Folded Spill
	add	x0, sp, #56
	str	x0, [sp, #8]                    ; 8-byte Folded Spill
	.loc	98 0 0 is_stmt 0                ; libframework/framework/src/Log.cpp:0:0
	adrp	x1, l_.str.9@PAGE
	add	x1, x1, l_.str.9@PAGEOFF
	.loc	98 58 34                        ; libframework/framework/src/Log.cpp:58:34
	bl	__ZNSt3__112basic_stringIcNS_11char_traitsIcEENS_9allocatorIcEEEC1IDnEEPKc
	ldr	x0, [sp]                        ; 8-byte Folded Reload
	ldr	x1, [sp, #8]                    ; 8-byte Folded Reload
	.loc	98 58 13                        ; libframework/framework/src/Log.cpp:58:13
	ldr	x8, [x0]
	ldr	x8, [x8, #24]
Ltmp86:
	blr	x8
Ltmp87:
	b	LBB11_23
LBB11_23:
	.loc	98 0 13                         ; libframework/framework/src/Log.cpp:0:13
	add	x0, sp, #56
	.loc	98 58 5                         ; libframework/framework/src/Log.cpp:58:5
	bl	__ZNSt3__112basic_stringIcNS_11char_traitsIcEENS_9allocatorIcEEED1Ev
	.loc	98 59 5 is_stmt 1               ; libframework/framework/src/Log.cpp:59:5
	ldur	x0, [x29, #-16]
	.loc	98 59 25 is_stmt 0              ; libframework/framework/src/Log.cpp:59:25
	ldr	x1, [sp, #80]
	.loc	98 59 15                        ; libframework/framework/src/Log.cpp:59:15
	ldr	x8, [x0]
	ldr	x8, [x8, #48]
	blr	x8
	.loc	98 60 12 is_stmt 1              ; libframework/framework/src/Log.cpp:60:12
	ldur	x0, [x29, #-16]
	.loc	98 60 5 is_stmt 0               ; libframework/framework/src/Log.cpp:60:5
	ldp	x29, x30, [sp, #176]            ; 16-byte Folded Reload
	add	sp, sp, #192
	ret
LBB11_24:
Ltmp85:
	.loc	98 61 1 is_stmt 1               ; libframework/framework/src/Log.cpp:61:1
	mov	x9, x0
	ldr	x0, [sp, #16]                   ; 8-byte Folded Reload
	mov	x8, x1
	stur	x9, [x29, #-48]
	stur	w8, [x29, #-52]
	.loc	98 56 38                        ; libframework/framework/src/Log.cpp:56:38
	bl	__ZdlPv
	b	LBB11_26
LBB11_25:
Ltmp88:
	.loc	98 61 1                         ; libframework/framework/src/Log.cpp:61:1
	mov	x8, x1
	stur	x0, [x29, #-48]
	stur	w8, [x29, #-52]
	add	x0, sp, #56
	.loc	98 58 5                         ; libframework/framework/src/Log.cpp:58:5
	bl	__ZNSt3__112basic_stringIcNS_11char_traitsIcEENS_9allocatorIcEEED1Ev
	b	LBB11_26
LBB11_26:
Ltmp97:
	.loc	98 45 13                        ; libframework/framework/src/Log.cpp:45:13
	ldur	x0, [x29, #-48]
	bl	__Unwind_Resume
Ltmp98:
Lfunc_end11:
	.cfi_endproc
	.section	__TEXT,__gcc_except_tab
	.p2align	2
GCC_except_table11:
Lexception3:
	.byte	255                             ; @LPStart Encoding = omit
	.byte	255                             ; @TType Encoding = omit
	.byte	1                               ; Call site Encoding = uleb128
	.uleb128 Lcst_end3-Lcst_begin3
Lcst_begin3:
	.uleb128 Lfunc_begin11-Lfunc_begin11    ; >> Call Site 1 <<
	.uleb128 Ltmp77-Lfunc_begin11           ;   Call between Lfunc_begin11 and Ltmp77
	.byte	0                               ;     has no landing pad
	.byte	0                               ;   On action: cleanup
	.uleb128 Ltmp77-Lfunc_begin11           ; >> Call Site 2 <<
	.uleb128 Ltmp78-Ltmp77                  ;   Call between Ltmp77 and Ltmp78
	.uleb128 Ltmp79-Lfunc_begin11           ;     jumps to Ltmp79
	.byte	0                               ;   On action: cleanup
	.uleb128 Ltmp80-Lfunc_begin11           ; >> Call Site 3 <<
	.uleb128 Ltmp81-Ltmp80                  ;   Call between Ltmp80 and Ltmp81
	.uleb128 Ltmp82-Lfunc_begin11           ;     jumps to Ltmp82
	.byte	0                               ;   On action: cleanup
	.uleb128 Ltmp81-Lfunc_begin11           ; >> Call Site 4 <<
	.uleb128 Ltmp71-Ltmp81                  ;   Call between Ltmp81 and Ltmp71
	.byte	0                               ;     has no landing pad
	.byte	0                               ;   On action: cleanup
	.uleb128 Ltmp71-Lfunc_begin11           ; >> Call Site 5 <<
	.uleb128 Ltmp72-Ltmp71                  ;   Call between Ltmp71 and Ltmp72
	.uleb128 Ltmp73-Lfunc_begin11           ;     jumps to Ltmp73
	.byte	0                               ;   On action: cleanup
	.uleb128 Ltmp74-Lfunc_begin11           ; >> Call Site 6 <<
	.uleb128 Ltmp75-Ltmp74                  ;   Call between Ltmp74 and Ltmp75
	.uleb128 Ltmp76-Lfunc_begin11           ;     jumps to Ltmp76
	.byte	0                               ;   On action: cleanup
	.uleb128 Ltmp75-Lfunc_begin11           ; >> Call Site 7 <<
	.uleb128 Ltmp83-Ltmp75                  ;   Call between Ltmp75 and Ltmp83
	.byte	0                               ;     has no landing pad
	.byte	0                               ;   On action: cleanup
	.uleb128 Ltmp83-Lfunc_begin11           ; >> Call Site 8 <<
	.uleb128 Ltmp84-Ltmp83                  ;   Call between Ltmp83 and Ltmp84
	.uleb128 Ltmp85-Lfunc_begin11           ;     jumps to Ltmp85
	.byte	0                               ;   On action: cleanup
	.uleb128 Ltmp84-Lfunc_begin11           ; >> Call Site 9 <<
	.uleb128 Ltmp86-Ltmp84                  ;   Call between Ltmp84 and Ltmp86
	.byte	0                               ;     has no landing pad
	.byte	0                               ;   On action: cleanup
	.uleb128 Ltmp86-Lfunc_begin11           ; >> Call Site 10 <<
	.uleb128 Ltmp87-Ltmp86                  ;   Call between Ltmp86 and Ltmp87
	.uleb128 Ltmp88-Lfunc_begin11           ;     jumps to Ltmp88
	.byte	0                               ;   On action: cleanup
	.uleb128 Ltmp87-Lfunc_begin11           ; >> Call Site 11 <<
	.uleb128 Lfunc_end11-Ltmp87             ;   Call between Ltmp87 and Lfunc_end11
	.byte	0                               ;     has no landing pad
	.byte	0                               ;   On action: cleanup
Lcst_end3:
	.p2align	2
                                        ; -- End function
	.section	__TEXT,__text,regular,pure_instructions
	.globl	__ZNSt3__119basic_ostringstreamIcNS_11char_traitsIcEENS_9allocatorIcEEED1Ev ; -- Begin function _ZNSt3__119basic_ostringstreamIcNS_11char_traitsIcEENS_9allocatorIcEEED1Ev
	.weak_def_can_be_hidden	__ZNSt3__119basic_ostringstreamIcNS_11char_traitsIcEENS_9allocatorIcEEED1Ev
	.p2align	2
__ZNSt3__119basic_ostringstreamIcNS_11char_traitsIcEENS_9allocatorIcEEED1Ev: ; @_ZNSt3__119basic_ostringstreamIcNS_11char_traitsIcEENS_9allocatorIcEEED1Ev
Lfunc_begin12:
	.loc	41 863 0                        ; /Applications/Xcode.app/Contents/Developer/Platforms/MacOSX.platform/Developer/SDKs/MacOSX13.1.sdk/usr/include/c++/v1/sstream:863:0
	.cfi_startproc
; %bb.0:
	sub	sp, sp, #32
	stp	x29, x30, [sp, #16]             ; 16-byte Folded Spill
	add	x29, sp, #16
	.cfi_def_cfa w29, 16
	.cfi_offset w30, -8
	.cfi_offset w29, -16
	str	x0, [sp, #8]
	ldr	x0, [sp, #8]
	str	x0, [sp]                        ; 8-byte Folded Spill
Ltmp99:
	.loc	41 0 0 is_stmt 0                ; /Applications/Xcode.app/Contents/Developer/Platforms/MacOSX.platform/Developer/SDKs/MacOSX13.1.sdk/usr/include/c++/v1/sstream:0:0
	adrp	x1, __ZTTNSt3__119basic_ostringstreamIcNS_11char_traitsIcEENS_9allocatorIcEEEE@GOTPAGE
	ldr	x1, [x1, __ZTTNSt3__119basic_ostringstreamIcNS_11char_traitsIcEENS_9allocatorIcEEEE@GOTPAGEOFF]
	.loc	41 863 67 prologue_end is_stmt 1 ; /Applications/Xcode.app/Contents/Developer/Platforms/MacOSX.platform/Developer/SDKs/MacOSX13.1.sdk/usr/include/c++/v1/sstream:863:67
	bl	__ZNSt3__119basic_ostringstreamIcNS_11char_traitsIcEENS_9allocatorIcEEED2Ev
	ldr	x8, [sp]                        ; 8-byte Folded Reload
	add	x0, x8, #112
	bl	__ZNSt3__19basic_iosIcNS_11char_traitsIcEEED2Ev
	ldr	x0, [sp]                        ; 8-byte Folded Reload
	ldp	x29, x30, [sp, #16]             ; 16-byte Folded Reload
	add	sp, sp, #32
	ret
Ltmp100:
Lfunc_end12:
	.cfi_endproc
                                        ; -- End function
	.globl	__ZN3LogC1EPKciRKNSt3__112basic_stringIcNS2_11char_traitsIcEENS2_9allocatorIcEEEEi ; -- Begin function _ZN3LogC1EPKciRKNSt3__112basic_stringIcNS2_11char_traitsIcEENS2_9allocatorIcEEEEi
	.p2align	2
__ZN3LogC1EPKciRKNSt3__112basic_stringIcNS2_11char_traitsIcEENS2_9allocatorIcEEEEi: ; @_ZN3LogC1EPKciRKNSt3__112basic_stringIcNS2_11char_traitsIcEENS2_9allocatorIcEEEEi
Lfunc_begin13:
	.loc	98 13 0                         ; libframework/framework/src/Log.cpp:13:0
	.cfi_startproc
; %bb.0:
	sub	sp, sp, #64
	stp	x29, x30, [sp, #48]             ; 16-byte Folded Spill
	add	x29, sp, #48
	.cfi_def_cfa w29, 16
	.cfi_offset w30, -8
	.cfi_offset w29, -16
	stur	x0, [x29, #-8]
	stur	x1, [x29, #-16]
	stur	w2, [x29, #-20]
	str	x3, [sp, #16]
	str	w4, [sp, #12]
	ldur	x0, [x29, #-8]
	str	x0, [sp]                        ; 8-byte Folded Spill
Ltmp101:
	.loc	98 13 74 prologue_end           ; libframework/framework/src/Log.cpp:13:74
	ldur	x1, [x29, #-16]
	ldur	w2, [x29, #-20]
	ldr	x3, [sp, #16]
	ldr	w4, [sp, #12]
	bl	__ZN3LogC2EPKciRKNSt3__112basic_stringIcNS2_11char_traitsIcEENS2_9allocatorIcEEEEi
	ldr	x0, [sp]                        ; 8-byte Folded Reload
	.loc	98 22 1                         ; libframework/framework/src/Log.cpp:22:1
	ldp	x29, x30, [sp, #48]             ; 16-byte Folded Reload
	add	sp, sp, #64
	ret
Ltmp102:
Lfunc_end13:
	.cfi_endproc
                                        ; -- End function
	.globl	__ZN3Log4initERKNSt3__112basic_stringIcNS0_11char_traitsIcEENS0_9allocatorIcEEEENS_7logTypeEi ; -- Begin function _ZN3Log4initERKNSt3__112basic_stringIcNS0_11char_traitsIcEENS0_9allocatorIcEEEENS_7logTypeEi
	.p2align	2
__ZN3Log4initERKNSt3__112basic_stringIcNS0_11char_traitsIcEENS0_9allocatorIcEEEENS_7logTypeEi: ; @_ZN3Log4initERKNSt3__112basic_stringIcNS0_11char_traitsIcEENS0_9allocatorIcEEEENS_7logTypeEi
Lfunc_begin14:
	.loc	98 24 0                         ; libframework/framework/src/Log.cpp:24:0
	.cfi_startproc
; %bb.0:
	sub	sp, sp, #64
	stp	x29, x30, [sp, #48]             ; 16-byte Folded Spill
	add	x29, sp, #48
	.cfi_def_cfa w29, 16
	.cfi_offset w30, -8
	.cfi_offset w29, -16
Ltmp103:
	.loc	98 0 0 is_stmt 0                ; libframework/framework/src/Log.cpp:0:0
	adrp	x8, __ZN3Log4mLogE@GOTPAGE
	ldr	x8, [x8, __ZN3Log4mLogE@GOTPAGEOFF]
	str	x8, [sp, #8]                    ; 8-byte Folded Spill
	stur	x0, [x29, #-8]
	stur	w1, [x29, #-12]
	stur	w2, [x29, #-16]
	.loc	98 25 13 prologue_end is_stmt 1 ; libframework/framework/src/Log.cpp:25:13
	ldur	x1, [x29, #-8]
	.loc	98 0 0 is_stmt 0                ; libframework/framework/src/Log.cpp:0:0
	adrp	x0, __ZN3Log5mNameE@GOTPAGE
	ldr	x0, [x0, __ZN3Log5mNameE@GOTPAGEOFF]
	str	x0, [sp]                        ; 8-byte Folded Spill
	.loc	98 25 11                        ; libframework/framework/src/Log.cpp:25:11
	bl	__ZNSt3__112basic_stringIcNS_11char_traitsIcEENS_9allocatorIcEEEaSERKS5_
	ldr	x0, [sp]                        ; 8-byte Folded Reload
	.loc	98 26 13 is_stmt 1              ; libframework/framework/src/Log.cpp:26:13
	ldur	w8, [x29, #-12]
	.loc	98 0 0 is_stmt 0                ; libframework/framework/src/Log.cpp:0:0
	adrp	x9, __ZN3Log5mTypeE@GOTPAGE
	ldr	x9, [x9, __ZN3Log5mTypeE@GOTPAGEOFF]
	str	x9, [sp, #16]                   ; 8-byte Folded Spill
	.loc	98 26 11                        ; libframework/framework/src/Log.cpp:26:11
	str	w8, [x9]
	.loc	98 27 13 is_stmt 1              ; libframework/framework/src/Log.cpp:27:13
	bl	__ZN7log4cpp8Category11getInstanceERKNSt3__112basic_stringIcNS1_11char_traitsIcEENS1_9allocatorIcEEEE
	ldr	x8, [sp, #8]                    ; 8-byte Folded Reload
	.loc	98 27 10 is_stmt 0              ; libframework/framework/src/Log.cpp:27:10
	str	x0, [x8]
	.loc	98 28 5 is_stmt 1               ; libframework/framework/src/Log.cpp:28:5
	ldr	x0, [x8]
	.loc	98 28 23 is_stmt 0              ; libframework/framework/src/Log.cpp:28:23
	ldur	w1, [x29, #-16]
	.loc	98 28 11                        ; libframework/framework/src/Log.cpp:28:11
	ldr	x8, [x0]
	ldr	x8, [x8, #24]
	blr	x8
	ldr	x9, [sp, #8]                    ; 8-byte Folded Reload
	ldr	x8, [sp, #16]                   ; 8-byte Folded Reload
	.loc	98 29 5 is_stmt 1               ; libframework/framework/src/Log.cpp:29:5
	ldr	x9, [x9]
	str	x9, [sp, #24]                   ; 8-byte Folded Spill
	.loc	98 29 36 is_stmt 0              ; libframework/framework/src/Log.cpp:29:36
	ldr	w0, [x8]
	.loc	98 29 23                        ; libframework/framework/src/Log.cpp:29:23
	bl	__ZN3Log12makeAppenderENS_7logTypeE
	mov	x1, x0
	ldr	x0, [sp, #24]                   ; 8-byte Folded Reload
	.loc	98 29 11                        ; libframework/framework/src/Log.cpp:29:11
	ldr	x8, [x0]
	ldr	x8, [x8, #56]
	blr	x8
	.loc	98 30 1 is_stmt 1               ; libframework/framework/src/Log.cpp:30:1
	ldp	x29, x30, [sp, #48]             ; 16-byte Folded Reload
	add	sp, sp, #64
	ret
Ltmp104:
Lfunc_end14:
	.cfi_endproc
                                        ; -- End function
	.globl	__ZN3LogD2Ev                    ; -- Begin function _ZN3LogD2Ev
	.p2align	2
__ZN3LogD2Ev:                           ; @_ZN3LogD2Ev
Lfunc_begin15:
	.loc	98 32 0                         ; libframework/framework/src/Log.cpp:32:0
	.cfi_startproc
	.cfi_personality 155, ___gxx_personality_v0
	.cfi_lsda 16, Lexception4
; %bb.0:
	sub	sp, sp, #128
	stp	x29, x30, [sp, #112]            ; 16-byte Folded Spill
	add	x29, sp, #112
	.cfi_def_cfa w29, 16
	.cfi_offset w30, -8
	.cfi_offset w29, -16
	stur	x0, [x29, #-16]
	ldur	x0, [x29, #-16]
	str	x0, [sp, #24]                   ; 8-byte Folded Spill
	mov	x8, x0
	stur	x8, [x29, #-8]
Ltmp121:
	.loc	98 0 0 is_stmt 0                ; libframework/framework/src/Log.cpp:0:0
	adrp	x8, __ZN3Log4mLogE@GOTPAGE
	ldr	x8, [x8, __ZN3Log4mLogE@GOTPAGEOFF]
	.loc	98 34 9 prologue_end is_stmt 1  ; libframework/framework/src/Log.cpp:34:9
	ldr	x8, [x8]
	str	x8, [sp, #32]                   ; 8-byte Folded Spill
	.loc	98 34 19 is_stmt 0              ; libframework/framework/src/Log.cpp:34:19
	ldr	w8, [x0, #264]
	str	w8, [sp, #44]                   ; 4-byte Folded Spill
Ltmp105:
	sub	x8, x29, #40
	.loc	98 34 34                        ; libframework/framework/src/Log.cpp:34:34
	bl	__ZNKSt3__119basic_ostringstreamIcNS_11char_traitsIcEENS_9allocatorIcEEE3strEv
Ltmp106:
	b	LBB15_1
LBB15_1:
	.loc	98 0 34                         ; libframework/framework/src/Log.cpp:0:34
	sub	x0, x29, #40
	str	x0, [sp, #16]                   ; 8-byte Folded Spill
	.loc	98 34 40                        ; libframework/framework/src/Log.cpp:34:40
	bl	__ZNKSt3__112basic_stringIcNS_11char_traitsIcEENS_9allocatorIcEEE5c_strEv
	ldr	w1, [sp, #44]                   ; 4-byte Folded Reload
	mov	x2, x0
	ldr	x0, [sp, #32]                   ; 8-byte Folded Reload
	.loc	98 34 15                        ; libframework/framework/src/Log.cpp:34:15
	ldr	x8, [x0]
	ldr	x8, [x8, #168]
	blr	x8
	ldr	x0, [sp, #16]                   ; 8-byte Folded Reload
	.loc	98 34 9                         ; libframework/framework/src/Log.cpp:34:9
	bl	__ZNSt3__112basic_stringIcNS_11char_traitsIcEENS_9allocatorIcEEED1Ev
	.loc	98 35 5 is_stmt 1               ; libframework/framework/src/Log.cpp:35:5
	b	LBB15_9
LBB15_2:
Ltmp107:
	.loc	98 39 1                         ; libframework/framework/src/Log.cpp:39:1
	mov	x8, x1
	stur	x0, [x29, #-48]
	stur	w8, [x29, #-52]
	b	LBB15_3
LBB15_3:
	.loc	98 35 5                         ; libframework/framework/src/Log.cpp:35:5
	ldur	w8, [x29, #-52]
	subs	w8, w8, #2
	b.ne	LBB15_13
	b	LBB15_4
LBB15_4:
	ldur	x0, [x29, #-48]
	bl	___cxa_begin_catch
	str	x0, [sp, #48]
Ltmp122:
Ltmp108:
	.loc	98 0 0 is_stmt 0                ; libframework/framework/src/Log.cpp:0:0
	adrp	x0, __ZNSt3__14coutE@GOTPAGE
	ldr	x0, [x0, __ZNSt3__14coutE@GOTPAGEOFF]
	adrp	x1, l_.str.6@PAGE
	add	x1, x1, l_.str.6@PAGEOFF
	.loc	98 37 19 is_stmt 1              ; libframework/framework/src/Log.cpp:37:19
	bl	__ZNSt3__1lsINS_11char_traitsIcEEEERNS_13basic_ostreamIcT_EES6_PKc
	str	x0, [sp, #8]                    ; 8-byte Folded Spill
Ltmp109:
	b	LBB15_5
LBB15_5:
	.loc	98 37 38 is_stmt 0              ; libframework/framework/src/Log.cpp:37:38
	ldr	x0, [sp, #48]
	.loc	98 37 40                        ; libframework/framework/src/Log.cpp:37:40
	ldr	x8, [x0]
	ldr	x8, [x8, #16]
	blr	x8
	mov	x1, x0
	ldr	x0, [sp, #8]                    ; 8-byte Folded Reload
Ltmp110:
	.loc	98 37 35                        ; libframework/framework/src/Log.cpp:37:35
	bl	__ZNSt3__1lsINS_11char_traitsIcEEEERNS_13basic_ostreamIcT_EES6_PKc
	str	x0, [sp]                        ; 8-byte Folded Spill
Ltmp111:
	b	LBB15_6
LBB15_6:
Ltmp112:
	.loc	98 0 35                         ; libframework/framework/src/Log.cpp:0:35
	ldr	x0, [sp]                        ; 8-byte Folded Reload
	adrp	x1, __ZNSt3__14endlIcNS_11char_traitsIcEEEERNS_13basic_ostreamIT_T0_EES7_@GOTPAGE
	ldr	x1, [x1, __ZNSt3__14endlIcNS_11char_traitsIcEEEERNS_13basic_ostreamIT_T0_EES7_@GOTPAGEOFF]
	.loc	98 37 47                        ; libframework/framework/src/Log.cpp:37:47
	bl	__ZNSt3__113basic_ostreamIcNS_11char_traitsIcEEElsEPFRS3_S4_E
Ltmp113:
	b	LBB15_7
LBB15_7:
Ltmp118:
	.loc	98 38 5 is_stmt 1               ; libframework/framework/src/Log.cpp:38:5
	bl	___cxa_end_catch
Ltmp119:
	b	LBB15_8
LBB15_8:
	b	LBB15_9
Ltmp123:
LBB15_9:
	.loc	98 0 5 is_stmt 0                ; libframework/framework/src/Log.cpp:0:5
	ldr	x0, [sp, #24]                   ; 8-byte Folded Reload
	.loc	98 39 1 is_stmt 1               ; libframework/framework/src/Log.cpp:39:1
	bl	__ZNSt3__119basic_ostringstreamIcNS_11char_traitsIcEENS_9allocatorIcEEED1Ev
Ltmp124:
	.loc	98 39 1 is_stmt 0               ; libframework/framework/src/Log.cpp:39:1
	ldur	x0, [x29, #-8]
	ldp	x29, x30, [sp, #112]            ; 16-byte Folded Reload
	add	sp, sp, #128
	ret
LBB15_10:
Ltmp114:
Ltmp125:
	.loc	98 39 1                         ; libframework/framework/src/Log.cpp:39:1
	mov	x8, x1
	stur	x0, [x29, #-48]
	stur	w8, [x29, #-52]
Ltmp115:
	.loc	98 38 5 is_stmt 1               ; libframework/framework/src/Log.cpp:38:5
	bl	___cxa_end_catch
Ltmp116:
	b	LBB15_12
Ltmp126:
LBB15_11:
Ltmp120:
	.loc	98 39 1                         ; libframework/framework/src/Log.cpp:39:1
	mov	x8, x1
	stur	x0, [x29, #-48]
	stur	w8, [x29, #-52]
	b	LBB15_13
LBB15_12:
Ltmp127:
	.loc	98 38 5                         ; libframework/framework/src/Log.cpp:38:5
	b	LBB15_13
Ltmp128:
LBB15_13:
	.loc	98 0 5 is_stmt 0                ; libframework/framework/src/Log.cpp:0:5
	ldr	x0, [sp, #24]                   ; 8-byte Folded Reload
	.loc	98 39 1 is_stmt 1               ; libframework/framework/src/Log.cpp:39:1
	bl	__ZNSt3__119basic_ostringstreamIcNS_11char_traitsIcEENS_9allocatorIcEEED1Ev
	b	LBB15_15
LBB15_14:
Ltmp117:
Ltmp129:
	.loc	98 38 5                         ; libframework/framework/src/Log.cpp:38:5
	bl	___clang_call_terminate
Ltmp130:
LBB15_15:
	.loc	98 39 1                         ; libframework/framework/src/Log.cpp:39:1
	ldur	x0, [x29, #-48]
	bl	___clang_call_terminate
Ltmp131:
Lfunc_end15:
	.cfi_endproc
	.section	__TEXT,__gcc_except_tab
	.p2align	2
GCC_except_table15:
Lexception4:
	.byte	255                             ; @LPStart Encoding = omit
	.byte	155                             ; @TType Encoding = indirect pcrel sdata4
	.uleb128 Lttbase0-Lttbaseref0
Lttbaseref0:
	.byte	1                               ; Call site Encoding = uleb128
	.uleb128 Lcst_end4-Lcst_begin4
Lcst_begin4:
	.uleb128 Ltmp105-Lfunc_begin15          ; >> Call Site 1 <<
	.uleb128 Ltmp106-Ltmp105                ;   Call between Ltmp105 and Ltmp106
	.uleb128 Ltmp107-Lfunc_begin15          ;     jumps to Ltmp107
	.byte	3                               ;   On action: 2
	.uleb128 Ltmp106-Lfunc_begin15          ; >> Call Site 2 <<
	.uleb128 Ltmp108-Ltmp106                ;   Call between Ltmp106 and Ltmp108
	.byte	0                               ;     has no landing pad
	.byte	0                               ;   On action: cleanup
	.uleb128 Ltmp108-Lfunc_begin15          ; >> Call Site 3 <<
	.uleb128 Ltmp109-Ltmp108                ;   Call between Ltmp108 and Ltmp109
	.uleb128 Ltmp114-Lfunc_begin15          ;     jumps to Ltmp114
	.byte	1                               ;   On action: 1
	.uleb128 Ltmp109-Lfunc_begin15          ; >> Call Site 4 <<
	.uleb128 Ltmp110-Ltmp109                ;   Call between Ltmp109 and Ltmp110
	.byte	0                               ;     has no landing pad
	.byte	0                               ;   On action: cleanup
	.uleb128 Ltmp110-Lfunc_begin15          ; >> Call Site 5 <<
	.uleb128 Ltmp113-Ltmp110                ;   Call between Ltmp110 and Ltmp113
	.uleb128 Ltmp114-Lfunc_begin15          ;     jumps to Ltmp114
	.byte	1                               ;   On action: 1
	.uleb128 Ltmp118-Lfunc_begin15          ; >> Call Site 6 <<
	.uleb128 Ltmp119-Ltmp118                ;   Call between Ltmp118 and Ltmp119
	.uleb128 Ltmp120-Lfunc_begin15          ;     jumps to Ltmp120
	.byte	1                               ;   On action: 1
	.uleb128 Ltmp115-Lfunc_begin15          ; >> Call Site 7 <<
	.uleb128 Ltmp116-Ltmp115                ;   Call between Ltmp115 and Ltmp116
	.uleb128 Ltmp117-Lfunc_begin15          ;     jumps to Ltmp117
	.byte	1                               ;   On action: 1
Lcst_end4:
	.byte	1                               ; >> Action Record 1 <<
                                        ;   Catch TypeInfo 1
	.byte	0                               ;   No further actions
	.byte	2                               ; >> Action Record 2 <<
                                        ;   Catch TypeInfo 2
	.byte	125                             ;   Continue to action 1
	.p2align	2
                                        ; >> Catch TypeInfos <<
Ltmp132:                                ; TypeInfo 2
	.long	__ZTISt9exception@GOT-Ltmp132
	.long	0                               ; TypeInfo 1
Lttbase0:
	.p2align	2
                                        ; -- End function
	.section	__TEXT,__text,regular,pure_instructions
	.p2align	2                               ; -- Begin function _ZNKSt3__119basic_ostringstreamIcNS_11char_traitsIcEENS_9allocatorIcEEE3strEv
__ZNKSt3__119basic_ostringstreamIcNS_11char_traitsIcEENS_9allocatorIcEEE3strEv: ; @_ZNKSt3__119basic_ostringstreamIcNS_11char_traitsIcEENS_9allocatorIcEEE3strEv
Lfunc_begin16:
	.loc	41 762 0                        ; /Applications/Xcode.app/Contents/Developer/Platforms/MacOSX.platform/Developer/SDKs/MacOSX13.1.sdk/usr/include/c++/v1/sstream:762:0
	.cfi_startproc
; %bb.0:
	sub	sp, sp, #32
	stp	x29, x30, [sp, #16]             ; 16-byte Folded Spill
	add	x29, sp, #16
	.cfi_def_cfa w29, 16
	.cfi_offset w30, -8
	.cfi_offset w29, -16
	mov	x9, x8
	str	x9, [sp, #8]
	str	x0, [sp]
	ldr	x9, [sp]
Ltmp133:
	.loc	41 763 16 prologue_end          ; /Applications/Xcode.app/Contents/Developer/Platforms/MacOSX.platform/Developer/SDKs/MacOSX13.1.sdk/usr/include/c++/v1/sstream:763:16
	add	x0, x9, #8
	.loc	41 763 22 is_stmt 0             ; /Applications/Xcode.app/Contents/Developer/Platforms/MacOSX.platform/Developer/SDKs/MacOSX13.1.sdk/usr/include/c++/v1/sstream:763:22
	bl	__ZNKSt3__115basic_stringbufIcNS_11char_traitsIcEENS_9allocatorIcEEE3strEv
	.loc	41 763 9                        ; /Applications/Xcode.app/Contents/Developer/Platforms/MacOSX.platform/Developer/SDKs/MacOSX13.1.sdk/usr/include/c++/v1/sstream:763:9
	ldp	x29, x30, [sp, #16]             ; 16-byte Folded Reload
	add	sp, sp, #32
	ret
Ltmp134:
Lfunc_end16:
	.cfi_endproc
                                        ; -- End function
	.p2align	2                               ; -- Begin function _ZNKSt3__112basic_stringIcNS_11char_traitsIcEENS_9allocatorIcEEE5c_strEv
__ZNKSt3__112basic_stringIcNS_11char_traitsIcEENS_9allocatorIcEEE5c_strEv: ; @_ZNKSt3__112basic_stringIcNS_11char_traitsIcEENS_9allocatorIcEEE5c_strEv
Lfunc_begin17:
	.loc	4 1263 0 is_stmt 1              ; /Applications/Xcode.app/Contents/Developer/Platforms/MacOSX.platform/Developer/SDKs/MacOSX13.1.sdk/usr/include/c++/v1/string:1263:0
	.cfi_startproc
; %bb.0:
	sub	sp, sp, #32
	stp	x29, x30, [sp, #16]             ; 16-byte Folded Spill
	add	x29, sp, #16
	.cfi_def_cfa w29, 16
	.cfi_offset w30, -8
	.cfi_offset w29, -16
	str	x0, [sp, #8]
	ldr	x0, [sp, #8]
Ltmp135:
	.loc	4 1263 54 prologue_end          ; /Applications/Xcode.app/Contents/Developer/Platforms/MacOSX.platform/Developer/SDKs/MacOSX13.1.sdk/usr/include/c++/v1/string:1263:54
	bl	__ZNKSt3__112basic_stringIcNS_11char_traitsIcEENS_9allocatorIcEEE4dataEv
	.loc	4 1263 47 is_stmt 0             ; /Applications/Xcode.app/Contents/Developer/Platforms/MacOSX.platform/Developer/SDKs/MacOSX13.1.sdk/usr/include/c++/v1/string:1263:47
	ldp	x29, x30, [sp, #16]             ; 16-byte Folded Reload
	add	sp, sp, #32
	ret
Ltmp136:
Lfunc_end17:
	.cfi_endproc
                                        ; -- End function
	.p2align	2                               ; -- Begin function _ZNSt3__113basic_ostreamIcNS_11char_traitsIcEEElsEPFRS3_S4_E
__ZNSt3__113basic_ostreamIcNS_11char_traitsIcEEElsEPFRS3_S4_E: ; @_ZNSt3__113basic_ostreamIcNS_11char_traitsIcEEElsEPFRS3_S4_E
Lfunc_begin18:
	.loc	39 189 0 is_stmt 1              ; /Applications/Xcode.app/Contents/Developer/Platforms/MacOSX.platform/Developer/SDKs/MacOSX13.1.sdk/usr/include/c++/v1/ostream:189:0
	.cfi_startproc
; %bb.0:
	sub	sp, sp, #32
	stp	x29, x30, [sp, #16]             ; 16-byte Folded Spill
	add	x29, sp, #16
	.cfi_def_cfa w29, 16
	.cfi_offset w30, -8
	.cfi_offset w29, -16
	str	x0, [sp, #8]
	str	x1, [sp]
	ldr	x0, [sp, #8]
Ltmp137:
	.loc	39 189 14 prologue_end          ; /Applications/Xcode.app/Contents/Developer/Platforms/MacOSX.platform/Developer/SDKs/MacOSX13.1.sdk/usr/include/c++/v1/ostream:189:14
	ldr	x8, [sp]
	blr	x8
	.loc	39 189 7 is_stmt 0              ; /Applications/Xcode.app/Contents/Developer/Platforms/MacOSX.platform/Developer/SDKs/MacOSX13.1.sdk/usr/include/c++/v1/ostream:189:7
	ldp	x29, x30, [sp, #16]             ; 16-byte Folded Reload
	add	sp, sp, #32
	ret
Ltmp138:
Lfunc_end18:
	.cfi_endproc
                                        ; -- End function
	.globl	__ZNSt3__14endlIcNS_11char_traitsIcEEEERNS_13basic_ostreamIT_T0_EES7_ ; -- Begin function _ZNSt3__14endlIcNS_11char_traitsIcEEEERNS_13basic_ostreamIT_T0_EES7_
	.weak_definition	__ZNSt3__14endlIcNS_11char_traitsIcEEEERNS_13basic_ostreamIT_T0_EES7_
	.p2align	2
__ZNSt3__14endlIcNS_11char_traitsIcEEEERNS_13basic_ostreamIT_T0_EES7_: ; @_ZNSt3__14endlIcNS_11char_traitsIcEEEERNS_13basic_ostreamIT_T0_EES7_
Lfunc_begin19:
	.loc	39 993 0 is_stmt 1              ; /Applications/Xcode.app/Contents/Developer/Platforms/MacOSX.platform/Developer/SDKs/MacOSX13.1.sdk/usr/include/c++/v1/ostream:993:0
	.cfi_startproc
; %bb.0:
	sub	sp, sp, #32
	stp	x29, x30, [sp, #16]             ; 16-byte Folded Spill
	add	x29, sp, #16
	.cfi_def_cfa w29, 16
	.cfi_offset w30, -8
	.cfi_offset w29, -16
	str	x0, [sp, #8]
Ltmp139:
	.loc	39 994 5 prologue_end           ; /Applications/Xcode.app/Contents/Developer/Platforms/MacOSX.platform/Developer/SDKs/MacOSX13.1.sdk/usr/include/c++/v1/ostream:994:5
	ldr	x8, [sp, #8]
	str	x8, [sp]                        ; 8-byte Folded Spill
	.loc	39 994 14 is_stmt 0             ; /Applications/Xcode.app/Contents/Developer/Platforms/MacOSX.platform/Developer/SDKs/MacOSX13.1.sdk/usr/include/c++/v1/ostream:994:14
	ldr	x8, [sp, #8]
	ldr	x9, [x8]
	ldur	x9, [x9, #-24]
	add	x0, x8, x9
	mov	w1, #10
	.loc	39 994 19                       ; /Applications/Xcode.app/Contents/Developer/Platforms/MacOSX.platform/Developer/SDKs/MacOSX13.1.sdk/usr/include/c++/v1/ostream:994:19
	bl	__ZNKSt3__19basic_iosIcNS_11char_traitsIcEEE5widenEc
	mov	x8, x0
	ldr	x0, [sp]                        ; 8-byte Folded Reload
	.loc	39 994 10                       ; /Applications/Xcode.app/Contents/Developer/Platforms/MacOSX.platform/Developer/SDKs/MacOSX13.1.sdk/usr/include/c++/v1/ostream:994:10
	sxtb	w1, w8
	bl	__ZNSt3__113basic_ostreamIcNS_11char_traitsIcEEE3putEc
	.loc	39 995 5 is_stmt 1              ; /Applications/Xcode.app/Contents/Developer/Platforms/MacOSX.platform/Developer/SDKs/MacOSX13.1.sdk/usr/include/c++/v1/ostream:995:5
	ldr	x0, [sp, #8]
	.loc	39 995 10 is_stmt 0             ; /Applications/Xcode.app/Contents/Developer/Platforms/MacOSX.platform/Developer/SDKs/MacOSX13.1.sdk/usr/include/c++/v1/ostream:995:10
	bl	__ZNSt3__113basic_ostreamIcNS_11char_traitsIcEEE5flushEv
	.loc	39 996 12 is_stmt 1             ; /Applications/Xcode.app/Contents/Developer/Platforms/MacOSX.platform/Developer/SDKs/MacOSX13.1.sdk/usr/include/c++/v1/ostream:996:12
	ldr	x0, [sp, #8]
	.loc	39 996 5 is_stmt 0              ; /Applications/Xcode.app/Contents/Developer/Platforms/MacOSX.platform/Developer/SDKs/MacOSX13.1.sdk/usr/include/c++/v1/ostream:996:5
	ldp	x29, x30, [sp, #16]             ; 16-byte Folded Reload
	add	sp, sp, #32
	ret
Ltmp140:
Lfunc_end19:
	.cfi_endproc
                                        ; -- End function
	.private_extern	___clang_call_terminate ; -- Begin function __clang_call_terminate
	.globl	___clang_call_terminate
	.weak_definition	___clang_call_terminate
	.p2align	2
___clang_call_terminate:                ; @__clang_call_terminate
Lfunc_begin20:
	.cfi_startproc
; %bb.0:
	stp	x29, x30, [sp, #-16]!           ; 16-byte Folded Spill
	.cfi_def_cfa_offset 16
	.cfi_offset w30, -8
	.cfi_offset w29, -16
	bl	___cxa_begin_catch
	bl	__ZSt9terminatev
Lfunc_end20:
	.cfi_endproc
                                        ; -- End function
	.globl	__ZN3LogD1Ev                    ; -- Begin function _ZN3LogD1Ev
	.p2align	2
__ZN3LogD1Ev:                           ; @_ZN3LogD1Ev
Lfunc_begin21:
	.loc	98 32 0 is_stmt 1               ; libframework/framework/src/Log.cpp:32:0
	.cfi_startproc
; %bb.0:
	sub	sp, sp, #32
	stp	x29, x30, [sp, #16]             ; 16-byte Folded Spill
	add	x29, sp, #16
	.cfi_def_cfa w29, 16
	.cfi_offset w30, -8
	.cfi_offset w29, -16
	str	x0, [sp, #8]
	ldr	x0, [sp, #8]
	str	x0, [sp]                        ; 8-byte Folded Spill
Ltmp141:
	.loc	98 32 13 prologue_end           ; libframework/framework/src/Log.cpp:32:13
	bl	__ZN3LogD2Ev
	ldr	x0, [sp]                        ; 8-byte Folded Reload
	.loc	98 39 1                         ; libframework/framework/src/Log.cpp:39:1
	ldp	x29, x30, [sp, #16]             ; 16-byte Folded Reload
	add	sp, sp, #32
	ret
Ltmp142:
Lfunc_end21:
	.cfi_endproc
                                        ; -- End function
	.p2align	2                               ; -- Begin function _ZNKSt3__112basic_stringIcNS_11char_traitsIcEENS_9allocatorIcEEE5emptyEv
__ZNKSt3__112basic_stringIcNS_11char_traitsIcEENS_9allocatorIcEEE5emptyEv: ; @_ZNKSt3__112basic_stringIcNS_11char_traitsIcEENS_9allocatorIcEEE5emptyEv
Lfunc_begin22:
	.loc	4 998 0                         ; /Applications/Xcode.app/Contents/Developer/Platforms/MacOSX.platform/Developer/SDKs/MacOSX13.1.sdk/usr/include/c++/v1/string:998:0
	.cfi_startproc
; %bb.0:
	sub	sp, sp, #32
	stp	x29, x30, [sp, #16]             ; 16-byte Folded Spill
	add	x29, sp, #16
	.cfi_def_cfa w29, 16
	.cfi_offset w30, -8
	.cfi_offset w29, -16
	str	x0, [sp, #8]
	ldr	x0, [sp, #8]
Ltmp143:
	.loc	4 998 41 prologue_end           ; /Applications/Xcode.app/Contents/Developer/Platforms/MacOSX.platform/Developer/SDKs/MacOSX13.1.sdk/usr/include/c++/v1/string:998:41
	bl	__ZNKSt3__112basic_stringIcNS_11char_traitsIcEENS_9allocatorIcEEE4sizeEv
	.loc	4 998 48 is_stmt 0              ; /Applications/Xcode.app/Contents/Developer/Platforms/MacOSX.platform/Developer/SDKs/MacOSX13.1.sdk/usr/include/c++/v1/string:998:48
	subs	x8, x0, #0
	cset	w8, eq
	.loc	4 998 34                        ; /Applications/Xcode.app/Contents/Developer/Platforms/MacOSX.platform/Developer/SDKs/MacOSX13.1.sdk/usr/include/c++/v1/string:998:34
	and	w0, w8, #0x1
	ldp	x29, x30, [sp, #16]             ; 16-byte Folded Reload
	add	sp, sp, #32
	ret
Ltmp144:
Lfunc_end22:
	.cfi_endproc
                                        ; -- End function
	.p2align	2                               ; -- Begin function _ZNSt3__1plIcNS_11char_traitsIcEENS_9allocatorIcEEEENS_12basic_stringIT_T0_T1_EERKS9_PKS6_
__ZNSt3__1plIcNS_11char_traitsIcEENS_9allocatorIcEEEENS_12basic_stringIT_T0_T1_EERKS9_PKS6_: ; @_ZNSt3__1plIcNS_11char_traitsIcEENS_9allocatorIcEEEENS_12basic_stringIT_T0_T1_EERKS9_PKS6_
Lfunc_begin23:
	.loc	4 4312 0 is_stmt 1              ; /Applications/Xcode.app/Contents/Developer/Platforms/MacOSX.platform/Developer/SDKs/MacOSX13.1.sdk/usr/include/c++/v1/string:4312:0
	.cfi_startproc
	.cfi_personality 155, ___gxx_personality_v0
	.cfi_lsda 16, Lexception5
; %bb.0:
	sub	sp, sp, #96
	stp	x29, x30, [sp, #80]             ; 16-byte Folded Spill
	add	x29, sp, #80
	.cfi_def_cfa w29, 16
	.cfi_offset w30, -8
	.cfi_offset w29, -16
	str	x8, [sp, #8]                    ; 8-byte Folded Spill
	stur	x8, [x29, #-8]
	stur	x0, [x29, #-16]
	stur	x1, [x29, #-24]
	mov	w8, #0
Ltmp150:
	.loc	4 4313 5 prologue_end           ; /Applications/Xcode.app/Contents/Developer/Platforms/MacOSX.platform/Developer/SDKs/MacOSX13.1.sdk/usr/include/c++/v1/string:4313:5
	and	w8, w8, #0x1
	and	w8, w8, #0x1
	sturb	w8, [x29, #-25]
	.loc	4 4313 51 is_stmt 0             ; /Applications/Xcode.app/Contents/Developer/Platforms/MacOSX.platform/Developer/SDKs/MacOSX13.1.sdk/usr/include/c++/v1/string:4313:51
	ldur	x0, [x29, #-16]
	.loc	4 4313 57                       ; /Applications/Xcode.app/Contents/Developer/Platforms/MacOSX.platform/Developer/SDKs/MacOSX13.1.sdk/usr/include/c++/v1/string:4313:57
	bl	__ZNKSt3__112basic_stringIcNS_11char_traitsIcEENS_9allocatorIcEEE13get_allocatorEv
	ldr	x0, [sp, #8]                    ; 8-byte Folded Reload
	sub	x1, x29, #26
	.loc	4 4313 47                       ; /Applications/Xcode.app/Contents/Developer/Platforms/MacOSX.platform/Developer/SDKs/MacOSX13.1.sdk/usr/include/c++/v1/string:4313:47
	bl	__ZNSt3__112basic_stringIcNS_11char_traitsIcEENS_9allocatorIcEEEC1ERKS4_
	.loc	4 4314 78 is_stmt 1             ; /Applications/Xcode.app/Contents/Developer/Platforms/MacOSX.platform/Developer/SDKs/MacOSX13.1.sdk/usr/include/c++/v1/string:4314:78
	ldur	x0, [x29, #-16]
	.loc	4 4314 84 is_stmt 0             ; /Applications/Xcode.app/Contents/Developer/Platforms/MacOSX.platform/Developer/SDKs/MacOSX13.1.sdk/usr/include/c++/v1/string:4314:84
	bl	__ZNKSt3__112basic_stringIcNS_11char_traitsIcEENS_9allocatorIcEEE4sizeEv
	.loc	4 4314 67                       ; /Applications/Xcode.app/Contents/Developer/Platforms/MacOSX.platform/Developer/SDKs/MacOSX13.1.sdk/usr/include/c++/v1/string:4314:67
	str	x0, [sp, #40]
	.loc	4 4315 94 is_stmt 1             ; /Applications/Xcode.app/Contents/Developer/Platforms/MacOSX.platform/Developer/SDKs/MacOSX13.1.sdk/usr/include/c++/v1/string:4315:94
	ldur	x0, [x29, #-24]
	.loc	4 4315 78 is_stmt 0             ; /Applications/Xcode.app/Contents/Developer/Platforms/MacOSX.platform/Developer/SDKs/MacOSX13.1.sdk/usr/include/c++/v1/string:4315:78
	bl	__ZNSt3__111char_traitsIcE6lengthEPKc
	.loc	4 4315 67                       ; /Applications/Xcode.app/Contents/Developer/Platforms/MacOSX.platform/Developer/SDKs/MacOSX13.1.sdk/usr/include/c++/v1/string:4315:67
	str	x0, [sp, #32]
	.loc	4 4316 16 is_stmt 1             ; /Applications/Xcode.app/Contents/Developer/Platforms/MacOSX.platform/Developer/SDKs/MacOSX13.1.sdk/usr/include/c++/v1/string:4316:16
	ldur	x0, [x29, #-16]
	.loc	4 4316 22 is_stmt 0             ; /Applications/Xcode.app/Contents/Developer/Platforms/MacOSX.platform/Developer/SDKs/MacOSX13.1.sdk/usr/include/c++/v1/string:4316:22
	bl	__ZNKSt3__112basic_stringIcNS_11char_traitsIcEENS_9allocatorIcEEE4dataEv
	mov	x1, x0
	ldr	x0, [sp, #8]                    ; 8-byte Folded Reload
	.loc	4 4316 30                       ; /Applications/Xcode.app/Contents/Developer/Platforms/MacOSX.platform/Developer/SDKs/MacOSX13.1.sdk/usr/include/c++/v1/string:4316:30
	ldr	x2, [sp, #40]
	.loc	4 4316 40                       ; /Applications/Xcode.app/Contents/Developer/Platforms/MacOSX.platform/Developer/SDKs/MacOSX13.1.sdk/usr/include/c++/v1/string:4316:40
	ldr	x8, [sp, #40]
	.loc	4 4316 51                       ; /Applications/Xcode.app/Contents/Developer/Platforms/MacOSX.platform/Developer/SDKs/MacOSX13.1.sdk/usr/include/c++/v1/string:4316:51
	ldr	x9, [sp, #32]
	.loc	4 4316 49                       ; /Applications/Xcode.app/Contents/Developer/Platforms/MacOSX.platform/Developer/SDKs/MacOSX13.1.sdk/usr/include/c++/v1/string:4316:49
	add	x3, x8, x9
Ltmp145:
	.loc	4 4316 9                        ; /Applications/Xcode.app/Contents/Developer/Platforms/MacOSX.platform/Developer/SDKs/MacOSX13.1.sdk/usr/include/c++/v1/string:4316:9
	bl	__ZNSt3__112basic_stringIcNS_11char_traitsIcEENS_9allocatorIcEEE6__initEPKcmm
Ltmp146:
	b	LBB23_1
LBB23_1:
	.loc	4 0 9                           ; /Applications/Xcode.app/Contents/Developer/Platforms/MacOSX.platform/Developer/SDKs/MacOSX13.1.sdk/usr/include/c++/v1/string:0:9
	ldr	x0, [sp, #8]                    ; 8-byte Folded Reload
	.loc	4 4317 16 is_stmt 1             ; /Applications/Xcode.app/Contents/Developer/Platforms/MacOSX.platform/Developer/SDKs/MacOSX13.1.sdk/usr/include/c++/v1/string:4317:16
	ldur	x1, [x29, #-24]
	.loc	4 4317 23 is_stmt 0             ; /Applications/Xcode.app/Contents/Developer/Platforms/MacOSX.platform/Developer/SDKs/MacOSX13.1.sdk/usr/include/c++/v1/string:4317:23
	ldr	x2, [sp, #32]
Ltmp147:
	.loc	4 4317 9                        ; /Applications/Xcode.app/Contents/Developer/Platforms/MacOSX.platform/Developer/SDKs/MacOSX13.1.sdk/usr/include/c++/v1/string:4317:9
	bl	__ZNSt3__112basic_stringIcNS_11char_traitsIcEENS_9allocatorIcEEE6appendEPKcm
Ltmp148:
	b	LBB23_2
LBB23_2:
	.loc	4 0 9                           ; /Applications/Xcode.app/Contents/Developer/Platforms/MacOSX.platform/Developer/SDKs/MacOSX13.1.sdk/usr/include/c++/v1/string:0:9
	mov	w8, #1
	.loc	4 4318 5 is_stmt 1              ; /Applications/Xcode.app/Contents/Developer/Platforms/MacOSX.platform/Developer/SDKs/MacOSX13.1.sdk/usr/include/c++/v1/string:4318:5
	and	w8, w8, #0x1
	and	w8, w8, #0x1
	sturb	w8, [x29, #-25]
	.loc	4 4319 1                        ; /Applications/Xcode.app/Contents/Developer/Platforms/MacOSX.platform/Developer/SDKs/MacOSX13.1.sdk/usr/include/c++/v1/string:4319:1
	ldurb	w8, [x29, #-25]
	tbnz	w8, #0, LBB23_5
	b	LBB23_4
LBB23_3:
Ltmp149:
	mov	x9, x0
	ldr	x0, [sp, #8]                    ; 8-byte Folded Reload
	mov	x8, x1
	str	x9, [sp, #24]
	str	w8, [sp, #20]
	bl	__ZNSt3__112basic_stringIcNS_11char_traitsIcEENS_9allocatorIcEEED1Ev
	b	LBB23_6
LBB23_4:
	.loc	4 0 1 is_stmt 0                 ; /Applications/Xcode.app/Contents/Developer/Platforms/MacOSX.platform/Developer/SDKs/MacOSX13.1.sdk/usr/include/c++/v1/string:0:1
	ldr	x0, [sp, #8]                    ; 8-byte Folded Reload
	.loc	4 4319 1                        ; /Applications/Xcode.app/Contents/Developer/Platforms/MacOSX.platform/Developer/SDKs/MacOSX13.1.sdk/usr/include/c++/v1/string:4319:1
	bl	__ZNSt3__112basic_stringIcNS_11char_traitsIcEENS_9allocatorIcEEED1Ev
	b	LBB23_5
LBB23_5:
	ldp	x29, x30, [sp, #80]             ; 16-byte Folded Reload
	add	sp, sp, #96
	ret
LBB23_6:
	ldr	x0, [sp, #24]
	bl	__Unwind_Resume
Ltmp151:
Lfunc_end23:
	.cfi_endproc
	.section	__TEXT,__gcc_except_tab
	.p2align	2
GCC_except_table23:
Lexception5:
	.byte	255                             ; @LPStart Encoding = omit
	.byte	255                             ; @TType Encoding = omit
	.byte	1                               ; Call site Encoding = uleb128
	.uleb128 Lcst_end5-Lcst_begin5
Lcst_begin5:
	.uleb128 Ltmp145-Lfunc_begin23          ; >> Call Site 1 <<
	.uleb128 Ltmp148-Ltmp145                ;   Call between Ltmp145 and Ltmp148
	.uleb128 Ltmp149-Lfunc_begin23          ;     jumps to Ltmp149
	.byte	0                               ;   On action: cleanup
	.uleb128 Ltmp148-Lfunc_begin23          ; >> Call Site 2 <<
	.uleb128 Lfunc_end23-Ltmp148            ;   Call between Ltmp148 and Lfunc_end23
	.byte	0                               ;     has no landing pad
	.byte	0                               ;   On action: cleanup
Lcst_end5:
	.p2align	2
                                        ; -- End function
	.section	__TEXT,__text,regular,pure_instructions
	.globl	__ZlsRNSt3__113basic_ostreamIcNS_11char_traitsIcEEEERK3Log ; -- Begin function _ZlsRNSt3__113basic_ostreamIcNS_11char_traitsIcEEEERK3Log
	.p2align	2
__ZlsRNSt3__113basic_ostreamIcNS_11char_traitsIcEEEERK3Log: ; @_ZlsRNSt3__113basic_ostreamIcNS_11char_traitsIcEEEERK3Log
Lfunc_begin24:
	.loc	98 63 0 is_stmt 1               ; libframework/framework/src/Log.cpp:63:0
	.cfi_startproc
; %bb.0:
	sub	sp, sp, #16
	.cfi_def_cfa_offset 16
	str	x0, [sp, #8]
	str	x1, [sp]
Ltmp153:
	.loc	98 64 12 prologue_end           ; libframework/framework/src/Log.cpp:64:12
	ldr	x0, [sp, #8]
	.loc	98 64 5 is_stmt 0               ; libframework/framework/src/Log.cpp:64:5
	add	sp, sp, #16
	ret
Ltmp154:
Lfunc_end24:
	.cfi_endproc
                                        ; -- End function
	.globl	__ZN3Log6streamEv               ; -- Begin function _ZN3Log6streamEv
	.p2align	2
__ZN3Log6streamEv:                      ; @_ZN3Log6streamEv
Lfunc_begin25:
	.loc	98 67 0 is_stmt 1               ; libframework/framework/src/Log.cpp:67:0
	.cfi_startproc
; %bb.0:
	sub	sp, sp, #16
	.cfi_def_cfa_offset 16
	str	x0, [sp, #8]
	ldr	x0, [sp, #8]
Ltmp156:
	.loc	98 68 5 prologue_end            ; libframework/framework/src/Log.cpp:68:5
	add	sp, sp, #16
	ret
Ltmp157:
Lfunc_end25:
	.cfi_endproc
                                        ; -- End function
	.globl	__Z6beforev                     ; -- Begin function _Z6beforev
	.p2align	2
__Z6beforev:                            ; @_Z6beforev
Lfunc_begin26:
	.loc	98 71 0                         ; libframework/framework/src/Log.cpp:71:0
	.cfi_startproc
; %bb.0:
	stp	x29, x30, [sp, #-16]!           ; 16-byte Folded Spill
	mov	x29, sp
	.cfi_def_cfa w29, 16
	.cfi_offset w30, -8
	.cfi_offset w29, -16
Ltmp158:
	.loc	98 0 0 is_stmt 0                ; libframework/framework/src/Log.cpp:0:0
	adrp	x0, l_.str.10@PAGE
	add	x0, x0, l_.str.10@PAGEOFF
	.loc	98 72 5 prologue_end is_stmt 1  ; libframework/framework/src/Log.cpp:72:5
	bl	_printf
	.loc	98 73 1                         ; libframework/framework/src/Log.cpp:73:1
	ldp	x29, x30, [sp], #16             ; 16-byte Folded Reload
	ret
Ltmp159:
Lfunc_end26:
	.cfi_endproc
                                        ; -- End function
	.globl	__Z5afterv                      ; -- Begin function _Z5afterv
	.p2align	2
__Z5afterv:                             ; @_Z5afterv
Lfunc_begin27:
	.loc	98 75 0                         ; libframework/framework/src/Log.cpp:75:0
	.cfi_startproc
; %bb.0:
	stp	x29, x30, [sp, #-16]!           ; 16-byte Folded Spill
	mov	x29, sp
	.cfi_def_cfa w29, 16
	.cfi_offset w30, -8
	.cfi_offset w29, -16
Ltmp160:
	.loc	98 0 0 is_stmt 0                ; libframework/framework/src/Log.cpp:0:0
	adrp	x0, l_.str.11@PAGE
	add	x0, x0, l_.str.11@PAGEOFF
	.loc	98 76 5 prologue_end is_stmt 1  ; libframework/framework/src/Log.cpp:76:5
	bl	_printf
	.loc	98 77 5                         ; libframework/framework/src/Log.cpp:77:5
	bl	__ZN7log4cpp8Category8shutdownEv
	.loc	98 78 1                         ; libframework/framework/src/Log.cpp:78:1
	ldp	x29, x30, [sp], #16             ; 16-byte Folded Reload
	ret
Ltmp161:
Lfunc_end27:
	.cfi_endproc
                                        ; -- End function
	.globl	__ZNSt3__112basic_stringIcNS_11char_traitsIcEENS_9allocatorIcEEEC1INS_17basic_string_viewIcS2_EEvEERKT_ ; -- Begin function _ZNSt3__112basic_stringIcNS_11char_traitsIcEENS_9allocatorIcEEEC1INS_17basic_string_viewIcS2_EEvEERKT_
	.weak_def_can_be_hidden	__ZNSt3__112basic_stringIcNS_11char_traitsIcEENS_9allocatorIcEEEC1INS_17basic_string_viewIcS2_EEvEERKT_
	.p2align	2
__ZNSt3__112basic_stringIcNS_11char_traitsIcEENS_9allocatorIcEEEC1INS_17basic_string_viewIcS2_EEvEERKT_: ; @_ZNSt3__112basic_stringIcNS_11char_traitsIcEENS_9allocatorIcEEEC1INS_17basic_string_viewIcS2_EEvEERKT_
Lfunc_begin28:
	.loc	4 2152 0                        ; /Applications/Xcode.app/Contents/Developer/Platforms/MacOSX.platform/Developer/SDKs/MacOSX13.1.sdk/usr/include/c++/v1/string:2152:0
	.cfi_startproc
; %bb.0:
	sub	sp, sp, #48
	stp	x29, x30, [sp, #32]             ; 16-byte Folded Spill
	add	x29, sp, #32
	.cfi_def_cfa w29, 16
	.cfi_offset w30, -8
	.cfi_offset w29, -16
	stur	x0, [x29, #-8]
	str	x1, [sp, #16]
	ldur	x0, [x29, #-8]
	str	x0, [sp, #8]                    ; 8-byte Folded Spill
Ltmp162:
	.loc	4 2152 1 prologue_end           ; /Applications/Xcode.app/Contents/Developer/Platforms/MacOSX.platform/Developer/SDKs/MacOSX13.1.sdk/usr/include/c++/v1/string:2152:1
	ldr	x1, [sp, #16]
	bl	__ZNSt3__112basic_stringIcNS_11char_traitsIcEENS_9allocatorIcEEEC2INS_17basic_string_viewIcS2_EEvEERKT_
	ldr	x0, [sp, #8]                    ; 8-byte Folded Reload
	.loc	4 2158 1                        ; /Applications/Xcode.app/Contents/Developer/Platforms/MacOSX.platform/Developer/SDKs/MacOSX13.1.sdk/usr/include/c++/v1/string:2158:1
	ldp	x29, x30, [sp, #32]             ; 16-byte Folded Reload
	add	sp, sp, #48
	ret
Ltmp163:
Lfunc_end28:
	.cfi_endproc
                                        ; -- End function
	.p2align	2                               ; -- Begin function _ZNSt3__14__fs10filesystem4pathC1EONS_12basic_stringIcNS_11char_traitsIcEENS_9allocatorIcEEEENS2_6formatE
__ZNSt3__14__fs10filesystem4pathC1EONS_12basic_stringIcNS_11char_traitsIcEENS_9allocatorIcEEEENS2_6formatE: ; @_ZNSt3__14__fs10filesystem4pathC1EONS_12basic_stringIcNS_11char_traitsIcEENS_9allocatorIcEEEENS2_6formatE
Lfunc_begin29:
	.loc	43 945 0                        ; /Applications/Xcode.app/Contents/Developer/Platforms/MacOSX.platform/Developer/SDKs/MacOSX13.1.sdk/usr/include/c++/v1/filesystem:945:0
	.cfi_startproc
; %bb.0:
	sub	sp, sp, #48
	stp	x29, x30, [sp, #32]             ; 16-byte Folded Spill
	add	x29, sp, #32
	.cfi_def_cfa w29, 16
	.cfi_offset w30, -8
	.cfi_offset w29, -16
	stur	x0, [x29, #-8]
	str	x1, [sp, #16]
	strb	w2, [sp, #15]
	ldur	x0, [x29, #-8]
	str	x0, [sp]                        ; 8-byte Folded Spill
Ltmp164:
	.loc	43 945 36 prologue_end          ; /Applications/Xcode.app/Contents/Developer/Platforms/MacOSX.platform/Developer/SDKs/MacOSX13.1.sdk/usr/include/c++/v1/filesystem:945:36
	ldr	x1, [sp, #16]
	ldrb	w2, [sp, #15]
	bl	__ZNSt3__14__fs10filesystem4pathC2EONS_12basic_stringIcNS_11char_traitsIcEENS_9allocatorIcEEEENS2_6formatE
	ldr	x0, [sp]                        ; 8-byte Folded Reload
	.loc	43 945 37 is_stmt 0             ; /Applications/Xcode.app/Contents/Developer/Platforms/MacOSX.platform/Developer/SDKs/MacOSX13.1.sdk/usr/include/c++/v1/filesystem:945:37
	ldp	x29, x30, [sp, #32]             ; 16-byte Folded Reload
	add	sp, sp, #48
	ret
Ltmp165:
Lfunc_end29:
	.cfi_endproc
                                        ; -- End function
	.globl	__ZNSt3__112basic_stringIcNS_11char_traitsIcEENS_9allocatorIcEEEC2INS_17basic_string_viewIcS2_EEvEERKT_ ; -- Begin function _ZNSt3__112basic_stringIcNS_11char_traitsIcEENS_9allocatorIcEEEC2INS_17basic_string_viewIcS2_EEvEERKT_
	.weak_def_can_be_hidden	__ZNSt3__112basic_stringIcNS_11char_traitsIcEENS_9allocatorIcEEEC2INS_17basic_string_viewIcS2_EEvEERKT_
	.p2align	2
__ZNSt3__112basic_stringIcNS_11char_traitsIcEENS_9allocatorIcEEEC2INS_17basic_string_viewIcS2_EEvEERKT_: ; @_ZNSt3__112basic_stringIcNS_11char_traitsIcEENS_9allocatorIcEEEC2INS_17basic_string_viewIcS2_EEvEERKT_
Lfunc_begin30:
	.loc	4 2152 0 is_stmt 1              ; /Applications/Xcode.app/Contents/Developer/Platforms/MacOSX.platform/Developer/SDKs/MacOSX13.1.sdk/usr/include/c++/v1/string:2152:0
	.cfi_startproc
; %bb.0:
	sub	sp, sp, #96
	stp	x29, x30, [sp, #80]             ; 16-byte Folded Spill
	add	x29, sp, #80
	.cfi_def_cfa w29, 16
	.cfi_offset w30, -8
	.cfi_offset w29, -16
	stur	x0, [x29, #-8]
	stur	x1, [x29, #-16]
	ldur	x0, [x29, #-8]
	str	x0, [sp, #24]                   ; 8-byte Folded Spill
	sub	x1, x29, #17
	sub	x2, x29, #18
Ltmp166:
	.loc	4 2151 8 prologue_end           ; /Applications/Xcode.app/Contents/Developer/Platforms/MacOSX.platform/Developer/SDKs/MacOSX13.1.sdk/usr/include/c++/v1/string:2151:8
	bl	__ZNSt3__117__compressed_pairINS_12basic_stringIcNS_11char_traitsIcEENS_9allocatorIcEEE5__repES5_EC1INS_18__default_init_tagESA_EEOT_OT0_
Ltmp167:
	.loc	4 2153 24                       ; /Applications/Xcode.app/Contents/Developer/Platforms/MacOSX.platform/Developer/SDKs/MacOSX13.1.sdk/usr/include/c++/v1/string:2153:24
	ldur	x8, [x29, #-16]
	ldr	q0, [x8]
	add	x0, sp, #32
	str	x0, [sp, #8]                    ; 8-byte Folded Spill
	str	q0, [sp, #32]
	.loc	4 2154 17                       ; /Applications/Xcode.app/Contents/Developer/Platforms/MacOSX.platform/Developer/SDKs/MacOSX13.1.sdk/usr/include/c++/v1/string:2154:17
	bl	__ZNKSt3__117basic_string_viewIcNS_11char_traitsIcEEE4dataEv
	mov	x1, x0
	ldr	x0, [sp, #8]                    ; 8-byte Folded Reload
	str	x1, [sp, #16]                   ; 8-byte Folded Spill
	.loc	4 2154 30 is_stmt 0             ; /Applications/Xcode.app/Contents/Developer/Platforms/MacOSX.platform/Developer/SDKs/MacOSX13.1.sdk/usr/include/c++/v1/string:2154:30
	bl	__ZNKSt3__117basic_string_viewIcNS_11char_traitsIcEEE4sizeEv
	ldr	x1, [sp, #16]                   ; 8-byte Folded Reload
	mov	x2, x0
	ldr	x0, [sp, #24]                   ; 8-byte Folded Reload
	.loc	4 2154 5                        ; /Applications/Xcode.app/Contents/Developer/Platforms/MacOSX.platform/Developer/SDKs/MacOSX13.1.sdk/usr/include/c++/v1/string:2154:5
	bl	__ZNSt3__112basic_stringIcNS_11char_traitsIcEENS_9allocatorIcEEE6__initEPKcm
	ldr	x0, [sp, #24]                   ; 8-byte Folded Reload
Ltmp168:
	.loc	4 2158 1 is_stmt 1              ; /Applications/Xcode.app/Contents/Developer/Platforms/MacOSX.platform/Developer/SDKs/MacOSX13.1.sdk/usr/include/c++/v1/string:2158:1
	ldp	x29, x30, [sp, #80]             ; 16-byte Folded Reload
	add	sp, sp, #96
	ret
Ltmp169:
Lfunc_end30:
	.cfi_endproc
                                        ; -- End function
	.p2align	2                               ; -- Begin function _ZNSt3__117__compressed_pairINS_12basic_stringIcNS_11char_traitsIcEENS_9allocatorIcEEE5__repES5_EC1INS_18__default_init_tagESA_EEOT_OT0_
__ZNSt3__117__compressed_pairINS_12basic_stringIcNS_11char_traitsIcEENS_9allocatorIcEEE5__repES5_EC1INS_18__default_init_tagESA_EEOT_OT0_: ; @_ZNSt3__117__compressed_pairINS_12basic_stringIcNS_11char_traitsIcEENS_9allocatorIcEEE5__repES5_EC1INS_18__default_init_tagESA_EEOT_OT0_
Lfunc_begin31:
	.loc	6 136 0                         ; /Applications/Xcode.app/Contents/Developer/Platforms/MacOSX.platform/Developer/SDKs/MacOSX13.1.sdk/usr/include/c++/v1/__memory/compressed_pair.h:136:0
	.cfi_startproc
; %bb.0:
	sub	sp, sp, #48
	stp	x29, x30, [sp, #32]             ; 16-byte Folded Spill
	add	x29, sp, #32
	.cfi_def_cfa w29, 16
	.cfi_offset w30, -8
	.cfi_offset w29, -16
	stur	x0, [x29, #-8]
	str	x1, [sp, #16]
	str	x2, [sp, #8]
	ldur	x0, [x29, #-8]
	str	x0, [sp]                        ; 8-byte Folded Spill
Ltmp170:
	.loc	6 136 84 prologue_end           ; /Applications/Xcode.app/Contents/Developer/Platforms/MacOSX.platform/Developer/SDKs/MacOSX13.1.sdk/usr/include/c++/v1/__memory/compressed_pair.h:136:84
	ldr	x1, [sp, #16]
	ldr	x2, [sp, #8]
	bl	__ZNSt3__117__compressed_pairINS_12basic_stringIcNS_11char_traitsIcEENS_9allocatorIcEEE5__repES5_EC2INS_18__default_init_tagESA_EEOT_OT0_
	ldr	x0, [sp]                        ; 8-byte Folded Reload
	.loc	6 136 85 is_stmt 0              ; /Applications/Xcode.app/Contents/Developer/Platforms/MacOSX.platform/Developer/SDKs/MacOSX13.1.sdk/usr/include/c++/v1/__memory/compressed_pair.h:136:85
	ldp	x29, x30, [sp, #32]             ; 16-byte Folded Reload
	add	sp, sp, #48
	ret
Ltmp171:
Lfunc_end31:
	.cfi_endproc
                                        ; -- End function
	.p2align	2                               ; -- Begin function _ZNKSt3__117basic_string_viewIcNS_11char_traitsIcEEE4dataEv
__ZNKSt3__117basic_string_viewIcNS_11char_traitsIcEEE4dataEv: ; @_ZNKSt3__117basic_string_viewIcNS_11char_traitsIcEEE4dataEv
Lfunc_begin32:
	.loc	8 348 0 is_stmt 1               ; /Applications/Xcode.app/Contents/Developer/Platforms/MacOSX.platform/Developer/SDKs/MacOSX13.1.sdk/usr/include/c++/v1/string_view:348:0
	.cfi_startproc
; %bb.0:
	sub	sp, sp, #16
	.cfi_def_cfa_offset 16
	str	x0, [sp, #8]
	ldr	x8, [sp, #8]
Ltmp173:
	.loc	8 348 50 prologue_end           ; /Applications/Xcode.app/Contents/Developer/Platforms/MacOSX.platform/Developer/SDKs/MacOSX13.1.sdk/usr/include/c++/v1/string_view:348:50
	ldr	x0, [x8]
	.loc	8 348 43 is_stmt 0              ; /Applications/Xcode.app/Contents/Developer/Platforms/MacOSX.platform/Developer/SDKs/MacOSX13.1.sdk/usr/include/c++/v1/string_view:348:43
	add	sp, sp, #16
	ret
Ltmp174:
Lfunc_end32:
	.cfi_endproc
                                        ; -- End function
	.p2align	2                               ; -- Begin function _ZNKSt3__117basic_string_viewIcNS_11char_traitsIcEEE4sizeEv
__ZNKSt3__117basic_string_viewIcNS_11char_traitsIcEEE4sizeEv: ; @_ZNKSt3__117basic_string_viewIcNS_11char_traitsIcEEE4sizeEv
Lfunc_begin33:
	.loc	8 310 0 is_stmt 1               ; /Applications/Xcode.app/Contents/Developer/Platforms/MacOSX.platform/Developer/SDKs/MacOSX13.1.sdk/usr/include/c++/v1/string_view:310:0
	.cfi_startproc
; %bb.0:
	sub	sp, sp, #16
	.cfi_def_cfa_offset 16
	str	x0, [sp, #8]
	ldr	x8, [sp, #8]
Ltmp176:
	.loc	8 310 46 prologue_end           ; /Applications/Xcode.app/Contents/Developer/Platforms/MacOSX.platform/Developer/SDKs/MacOSX13.1.sdk/usr/include/c++/v1/string_view:310:46
	ldr	x0, [x8, #8]
	.loc	8 310 39 is_stmt 0              ; /Applications/Xcode.app/Contents/Developer/Platforms/MacOSX.platform/Developer/SDKs/MacOSX13.1.sdk/usr/include/c++/v1/string_view:310:39
	add	sp, sp, #16
	ret
Ltmp177:
Lfunc_end33:
	.cfi_endproc
                                        ; -- End function
	.p2align	2                               ; -- Begin function _ZNSt3__117__compressed_pairINS_12basic_stringIcNS_11char_traitsIcEENS_9allocatorIcEEE5__repES5_EC2INS_18__default_init_tagESA_EEOT_OT0_
__ZNSt3__117__compressed_pairINS_12basic_stringIcNS_11char_traitsIcEENS_9allocatorIcEEE5__repES5_EC2INS_18__default_init_tagESA_EEOT_OT0_: ; @_ZNSt3__117__compressed_pairINS_12basic_stringIcNS_11char_traitsIcEENS_9allocatorIcEEE5__repES5_EC2INS_18__default_init_tagESA_EEOT_OT0_
Lfunc_begin34:
	.loc	6 136 0 is_stmt 1               ; /Applications/Xcode.app/Contents/Developer/Platforms/MacOSX.platform/Developer/SDKs/MacOSX13.1.sdk/usr/include/c++/v1/__memory/compressed_pair.h:136:0
	.cfi_startproc
; %bb.0:
	sub	sp, sp, #64
	stp	x29, x30, [sp, #48]             ; 16-byte Folded Spill
	add	x29, sp, #48
	.cfi_def_cfa w29, 16
	.cfi_offset w30, -8
	.cfi_offset w29, -16
	stur	x0, [x29, #-8]
	stur	x1, [x29, #-16]
	str	x2, [sp, #24]
	ldur	x8, [x29, #-8]
	str	x8, [sp, #8]                    ; 8-byte Folded Spill
Ltmp178:
	.loc	6 136 39 prologue_end           ; /Applications/Xcode.app/Contents/Developer/Platforms/MacOSX.platform/Developer/SDKs/MacOSX13.1.sdk/usr/include/c++/v1/__memory/compressed_pair.h:136:39
	ldur	x0, [x29, #-16]
	.loc	6 136 16 is_stmt 0              ; /Applications/Xcode.app/Contents/Developer/Platforms/MacOSX.platform/Developer/SDKs/MacOSX13.1.sdk/usr/include/c++/v1/__memory/compressed_pair.h:136:16
	bl	__ZNSt3__1L7forwardINS_18__default_init_tagEEEOT_RNS_16remove_referenceIS2_E4typeE
	ldr	x0, [sp, #8]                    ; 8-byte Folded Reload
	.loc	6 136 9                         ; /Applications/Xcode.app/Contents/Developer/Platforms/MacOSX.platform/Developer/SDKs/MacOSX13.1.sdk/usr/include/c++/v1/__memory/compressed_pair.h:136:9
	bl	__ZNSt3__122__compressed_pair_elemINS_12basic_stringIcNS_11char_traitsIcEENS_9allocatorIcEEE5__repELi0ELb0EEC2ENS_18__default_init_tagE
	.loc	6 136 77                        ; /Applications/Xcode.app/Contents/Developer/Platforms/MacOSX.platform/Developer/SDKs/MacOSX13.1.sdk/usr/include/c++/v1/__memory/compressed_pair.h:136:77
	ldr	x0, [sp, #24]
	.loc	6 136 54                        ; /Applications/Xcode.app/Contents/Developer/Platforms/MacOSX.platform/Developer/SDKs/MacOSX13.1.sdk/usr/include/c++/v1/__memory/compressed_pair.h:136:54
	bl	__ZNSt3__1L7forwardINS_18__default_init_tagEEEOT_RNS_16remove_referenceIS2_E4typeE
	ldr	x0, [sp, #8]                    ; 8-byte Folded Reload
	.loc	6 136 47                        ; /Applications/Xcode.app/Contents/Developer/Platforms/MacOSX.platform/Developer/SDKs/MacOSX13.1.sdk/usr/include/c++/v1/__memory/compressed_pair.h:136:47
	bl	__ZNSt3__122__compressed_pair_elemINS_9allocatorIcEELi1ELb1EEC2ENS_18__default_init_tagE
	ldr	x0, [sp, #8]                    ; 8-byte Folded Reload
	.loc	6 136 85                        ; /Applications/Xcode.app/Contents/Developer/Platforms/MacOSX.platform/Developer/SDKs/MacOSX13.1.sdk/usr/include/c++/v1/__memory/compressed_pair.h:136:85
	ldp	x29, x30, [sp, #48]             ; 16-byte Folded Reload
	add	sp, sp, #64
	ret
Ltmp179:
Lfunc_end34:
	.cfi_endproc
                                        ; -- End function
	.p2align	2                               ; -- Begin function _ZNSt3__1L7forwardINS_18__default_init_tagEEEOT_RNS_16remove_referenceIS2_E4typeE
__ZNSt3__1L7forwardINS_18__default_init_tagEEEOT_RNS_16remove_referenceIS2_E4typeE: ; @_ZNSt3__1L7forwardINS_18__default_init_tagEEEOT_RNS_16remove_referenceIS2_E4typeE
Lfunc_begin35:
	.file	99 "/Applications/Xcode.app/Contents/Developer/Platforms/MacOSX.platform/Developer/SDKs/MacOSX13.1.sdk/usr/include/c++/v1/__utility" "forward.h"
	.loc	99 27 0 is_stmt 1               ; /Applications/Xcode.app/Contents/Developer/Platforms/MacOSX.platform/Developer/SDKs/MacOSX13.1.sdk/usr/include/c++/v1/__utility/forward.h:27:0
	.cfi_startproc
; %bb.0:
	sub	sp, sp, #16
	.cfi_def_cfa_offset 16
	str	x0, [sp, #8]
Ltmp181:
	.loc	99 28 29 prologue_end           ; /Applications/Xcode.app/Contents/Developer/Platforms/MacOSX.platform/Developer/SDKs/MacOSX13.1.sdk/usr/include/c++/v1/__utility/forward.h:28:29
	ldr	x0, [sp, #8]
	.loc	99 28 3 is_stmt 0               ; /Applications/Xcode.app/Contents/Developer/Platforms/MacOSX.platform/Developer/SDKs/MacOSX13.1.sdk/usr/include/c++/v1/__utility/forward.h:28:3
	add	sp, sp, #16
	ret
Ltmp182:
Lfunc_end35:
	.cfi_endproc
                                        ; -- End function
	.p2align	2                               ; -- Begin function _ZNSt3__122__compressed_pair_elemINS_12basic_stringIcNS_11char_traitsIcEENS_9allocatorIcEEE5__repELi0ELb0EEC2ENS_18__default_init_tagE
__ZNSt3__122__compressed_pair_elemINS_12basic_stringIcNS_11char_traitsIcEENS_9allocatorIcEEE5__repELi0ELb0EEC2ENS_18__default_init_tagE: ; @_ZNSt3__122__compressed_pair_elemINS_12basic_stringIcNS_11char_traitsIcEENS_9allocatorIcEEE5__repELi0ELb0EEC2ENS_18__default_init_tagE
Lfunc_begin36:
	.loc	6 41 0 is_stmt 1                ; /Applications/Xcode.app/Contents/Developer/Platforms/MacOSX.platform/Developer/SDKs/MacOSX13.1.sdk/usr/include/c++/v1/__memory/compressed_pair.h:41:0
	.cfi_startproc
; %bb.0:
	sub	sp, sp, #16
	.cfi_def_cfa_offset 16
	str	x0, [sp]
	ldr	x0, [sp]
Ltmp184:
	.loc	6 41 47 prologue_end            ; /Applications/Xcode.app/Contents/Developer/Platforms/MacOSX.platform/Developer/SDKs/MacOSX13.1.sdk/usr/include/c++/v1/__memory/compressed_pair.h:41:47
	add	sp, sp, #16
	ret
Ltmp185:
Lfunc_end36:
	.cfi_endproc
                                        ; -- End function
	.p2align	2                               ; -- Begin function _ZNSt3__122__compressed_pair_elemINS_9allocatorIcEELi1ELb1EEC2ENS_18__default_init_tagE
__ZNSt3__122__compressed_pair_elemINS_9allocatorIcEELi1ELb1EEC2ENS_18__default_init_tagE: ; @_ZNSt3__122__compressed_pair_elemINS_9allocatorIcEELi1ELb1EEC2ENS_18__default_init_tagE
Lfunc_begin37:
	.loc	6 82 0                          ; /Applications/Xcode.app/Contents/Developer/Platforms/MacOSX.platform/Developer/SDKs/MacOSX13.1.sdk/usr/include/c++/v1/__memory/compressed_pair.h:82:0
	.cfi_startproc
; %bb.0:
	sub	sp, sp, #48
	stp	x29, x30, [sp, #32]             ; 16-byte Folded Spill
	add	x29, sp, #32
	.cfi_def_cfa w29, 16
	.cfi_offset w30, -8
	.cfi_offset w29, -16
	str	x0, [sp, #16]
	ldr	x0, [sp, #16]
	str	x0, [sp, #8]                    ; 8-byte Folded Spill
Ltmp186:
	.loc	6 82 3 prologue_end             ; /Applications/Xcode.app/Contents/Developer/Platforms/MacOSX.platform/Developer/SDKs/MacOSX13.1.sdk/usr/include/c++/v1/__memory/compressed_pair.h:82:3
	bl	__ZNSt3__19allocatorIcEC2Ev
	ldr	x0, [sp, #8]                    ; 8-byte Folded Reload
	.loc	6 82 47 is_stmt 0               ; /Applications/Xcode.app/Contents/Developer/Platforms/MacOSX.platform/Developer/SDKs/MacOSX13.1.sdk/usr/include/c++/v1/__memory/compressed_pair.h:82:47
	ldp	x29, x30, [sp, #32]             ; 16-byte Folded Reload
	add	sp, sp, #48
	ret
Ltmp187:
Lfunc_end37:
	.cfi_endproc
                                        ; -- End function
	.p2align	2                               ; -- Begin function _ZNSt3__19allocatorIcEC2Ev
__ZNSt3__19allocatorIcEC2Ev:            ; @_ZNSt3__19allocatorIcEC2Ev
Lfunc_begin38:
	.loc	3 94 0 is_stmt 1                ; /Applications/Xcode.app/Contents/Developer/Platforms/MacOSX.platform/Developer/SDKs/MacOSX13.1.sdk/usr/include/c++/v1/__memory/allocator.h:94:0
	.cfi_startproc
; %bb.0:
	sub	sp, sp, #32
	stp	x29, x30, [sp, #16]             ; 16-byte Folded Spill
	add	x29, sp, #16
	.cfi_def_cfa w29, 16
	.cfi_offset w30, -8
	.cfi_offset w29, -16
	str	x0, [sp, #8]
	ldr	x0, [sp, #8]
	str	x0, [sp]                        ; 8-byte Folded Spill
Ltmp188:
	.loc	3 94 5 prologue_end             ; /Applications/Xcode.app/Contents/Developer/Platforms/MacOSX.platform/Developer/SDKs/MacOSX13.1.sdk/usr/include/c++/v1/__memory/allocator.h:94:5
	bl	__ZNSt3__116__non_trivial_ifILb1ENS_9allocatorIcEEEC2Ev
	ldr	x0, [sp]                        ; 8-byte Folded Reload
	.loc	3 94 34 is_stmt 0               ; /Applications/Xcode.app/Contents/Developer/Platforms/MacOSX.platform/Developer/SDKs/MacOSX13.1.sdk/usr/include/c++/v1/__memory/allocator.h:94:34
	ldp	x29, x30, [sp, #16]             ; 16-byte Folded Reload
	add	sp, sp, #32
	ret
Ltmp189:
Lfunc_end38:
	.cfi_endproc
                                        ; -- End function
	.p2align	2                               ; -- Begin function _ZNSt3__116__non_trivial_ifILb1ENS_9allocatorIcEEEC2Ev
__ZNSt3__116__non_trivial_ifILb1ENS_9allocatorIcEEEC2Ev: ; @_ZNSt3__116__non_trivial_ifILb1ENS_9allocatorIcEEEC2Ev
Lfunc_begin39:
	.loc	3 74 0 is_stmt 1                ; /Applications/Xcode.app/Contents/Developer/Platforms/MacOSX.platform/Developer/SDKs/MacOSX13.1.sdk/usr/include/c++/v1/__memory/allocator.h:74:0
	.cfi_startproc
; %bb.0:
	sub	sp, sp, #16
	.cfi_def_cfa_offset 16
	str	x0, [sp, #8]
	ldr	x0, [sp, #8]
Ltmp191:
	.loc	3 74 45 prologue_end            ; /Applications/Xcode.app/Contents/Developer/Platforms/MacOSX.platform/Developer/SDKs/MacOSX13.1.sdk/usr/include/c++/v1/__memory/allocator.h:74:45
	add	sp, sp, #16
	ret
Ltmp192:
Lfunc_end39:
	.cfi_endproc
                                        ; -- End function
	.p2align	2                               ; -- Begin function _ZNSt3__14__fs10filesystem4pathC2EONS_12basic_stringIcNS_11char_traitsIcEENS_9allocatorIcEEEENS2_6formatE
__ZNSt3__14__fs10filesystem4pathC2EONS_12basic_stringIcNS_11char_traitsIcEENS_9allocatorIcEEEENS2_6formatE: ; @_ZNSt3__14__fs10filesystem4pathC2EONS_12basic_stringIcNS_11char_traitsIcEENS_9allocatorIcEEEENS2_6formatE
Lfunc_begin40:
	.loc	43 945 0                        ; /Applications/Xcode.app/Contents/Developer/Platforms/MacOSX.platform/Developer/SDKs/MacOSX13.1.sdk/usr/include/c++/v1/filesystem:945:0
	.cfi_startproc
; %bb.0:
	sub	sp, sp, #48
	stp	x29, x30, [sp, #32]             ; 16-byte Folded Spill
	add	x29, sp, #32
	.cfi_def_cfa w29, 16
	.cfi_offset w30, -8
	.cfi_offset w29, -16
	stur	x0, [x29, #-8]
	str	x1, [sp, #16]
	strb	w2, [sp, #15]
	ldur	x8, [x29, #-8]
	str	x8, [sp]                        ; 8-byte Folded Spill
Ltmp193:
	.loc	43 945 30 prologue_end          ; /Applications/Xcode.app/Contents/Developer/Platforms/MacOSX.platform/Developer/SDKs/MacOSX13.1.sdk/usr/include/c++/v1/filesystem:945:30
	ldr	x0, [sp, #16]
	.loc	43 945 15 is_stmt 0             ; /Applications/Xcode.app/Contents/Developer/Platforms/MacOSX.platform/Developer/SDKs/MacOSX13.1.sdk/usr/include/c++/v1/filesystem:945:15
	bl	__ZNSt3__1L4moveIRNS_12basic_stringIcNS_11char_traitsIcEENS_9allocatorIcEEEEEEONS_16remove_referenceIT_E4typeEOS9_
	mov	x1, x0
	ldr	x0, [sp]                        ; 8-byte Folded Reload
	.loc	43 945 9                        ; /Applications/Xcode.app/Contents/Developer/Platforms/MacOSX.platform/Developer/SDKs/MacOSX13.1.sdk/usr/include/c++/v1/filesystem:945:9
	bl	__ZNSt3__112basic_stringIcNS_11char_traitsIcEENS_9allocatorIcEEEC1EOS5_
	ldr	x0, [sp]                        ; 8-byte Folded Reload
	.loc	43 945 37                       ; /Applications/Xcode.app/Contents/Developer/Platforms/MacOSX.platform/Developer/SDKs/MacOSX13.1.sdk/usr/include/c++/v1/filesystem:945:37
	ldp	x29, x30, [sp, #32]             ; 16-byte Folded Reload
	add	sp, sp, #48
	ret
Ltmp194:
Lfunc_end40:
	.cfi_endproc
                                        ; -- End function
	.p2align	2                               ; -- Begin function _ZNSt3__1L4moveIRNS_12basic_stringIcNS_11char_traitsIcEENS_9allocatorIcEEEEEEONS_16remove_referenceIT_E4typeEOS9_
__ZNSt3__1L4moveIRNS_12basic_stringIcNS_11char_traitsIcEENS_9allocatorIcEEEEEEONS_16remove_referenceIT_E4typeEOS9_: ; @_ZNSt3__1L4moveIRNS_12basic_stringIcNS_11char_traitsIcEENS_9allocatorIcEEEEEEONS_16remove_referenceIT_E4typeEOS9_
Lfunc_begin41:
	.file	100 "/Applications/Xcode.app/Contents/Developer/Platforms/MacOSX.platform/Developer/SDKs/MacOSX13.1.sdk/usr/include/c++/v1/__utility" "move.h"
	.loc	100 27 0 is_stmt 1              ; /Applications/Xcode.app/Contents/Developer/Platforms/MacOSX.platform/Developer/SDKs/MacOSX13.1.sdk/usr/include/c++/v1/__utility/move.h:27:0
	.cfi_startproc
; %bb.0:
	sub	sp, sp, #16
	.cfi_def_cfa_offset 16
	str	x0, [sp, #8]
Ltmp196:
	.loc	100 29 29 prologue_end          ; /Applications/Xcode.app/Contents/Developer/Platforms/MacOSX.platform/Developer/SDKs/MacOSX13.1.sdk/usr/include/c++/v1/__utility/move.h:29:29
	ldr	x0, [sp, #8]
	.loc	100 29 3 is_stmt 0              ; /Applications/Xcode.app/Contents/Developer/Platforms/MacOSX.platform/Developer/SDKs/MacOSX13.1.sdk/usr/include/c++/v1/__utility/move.h:29:3
	add	sp, sp, #16
	ret
Ltmp197:
Lfunc_end41:
	.cfi_endproc
                                        ; -- End function
	.p2align	2                               ; -- Begin function _ZNSt3__112basic_stringIcNS_11char_traitsIcEENS_9allocatorIcEEEC1EOS5_
__ZNSt3__112basic_stringIcNS_11char_traitsIcEENS_9allocatorIcEEEC1EOS5_: ; @_ZNSt3__112basic_stringIcNS_11char_traitsIcEENS_9allocatorIcEEEC1EOS5_
Lfunc_begin42:
	.loc	4 2028 0 is_stmt 1              ; /Applications/Xcode.app/Contents/Developer/Platforms/MacOSX.platform/Developer/SDKs/MacOSX13.1.sdk/usr/include/c++/v1/string:2028:0
	.cfi_startproc
; %bb.0:
	sub	sp, sp, #48
	stp	x29, x30, [sp, #32]             ; 16-byte Folded Spill
	add	x29, sp, #32
	.cfi_def_cfa w29, 16
	.cfi_offset w30, -8
	.cfi_offset w29, -16
	stur	x0, [x29, #-8]
	str	x1, [sp, #16]
	ldur	x0, [x29, #-8]
	str	x0, [sp, #8]                    ; 8-byte Folded Spill
Ltmp198:
	.loc	4 2028 1 prologue_end           ; /Applications/Xcode.app/Contents/Developer/Platforms/MacOSX.platform/Developer/SDKs/MacOSX13.1.sdk/usr/include/c++/v1/string:2028:1
	ldr	x1, [sp, #16]
	bl	__ZNSt3__112basic_stringIcNS_11char_traitsIcEENS_9allocatorIcEEEC2EOS5_
	ldr	x0, [sp, #8]                    ; 8-byte Folded Reload
	.loc	4 2035 1                        ; /Applications/Xcode.app/Contents/Developer/Platforms/MacOSX.platform/Developer/SDKs/MacOSX13.1.sdk/usr/include/c++/v1/string:2035:1
	ldp	x29, x30, [sp, #32]             ; 16-byte Folded Reload
	add	sp, sp, #48
	ret
Ltmp199:
Lfunc_end42:
	.cfi_endproc
                                        ; -- End function
	.p2align	2                               ; -- Begin function _ZNSt3__112basic_stringIcNS_11char_traitsIcEENS_9allocatorIcEEEC2EOS5_
__ZNSt3__112basic_stringIcNS_11char_traitsIcEENS_9allocatorIcEEEC2EOS5_: ; @_ZNSt3__112basic_stringIcNS_11char_traitsIcEENS_9allocatorIcEEEC2EOS5_
Lfunc_begin43:
	.loc	4 2028 0                        ; /Applications/Xcode.app/Contents/Developer/Platforms/MacOSX.platform/Developer/SDKs/MacOSX13.1.sdk/usr/include/c++/v1/string:2028:0
	.cfi_startproc
; %bb.0:
	sub	sp, sp, #48
	stp	x29, x30, [sp, #32]             ; 16-byte Folded Spill
	add	x29, sp, #32
	.cfi_def_cfa w29, 16
	.cfi_offset w30, -8
	.cfi_offset w29, -16
	stur	x0, [x29, #-8]
	str	x1, [sp, #16]
	ldur	x8, [x29, #-8]
	str	x8, [sp, #8]                    ; 8-byte Folded Spill
Ltmp200:
	.loc	4 2027 27 prologue_end          ; /Applications/Xcode.app/Contents/Developer/Platforms/MacOSX.platform/Developer/SDKs/MacOSX13.1.sdk/usr/include/c++/v1/string:2027:27
	ldr	x0, [sp, #16]
	.loc	4 2027 12 is_stmt 0             ; /Applications/Xcode.app/Contents/Developer/Platforms/MacOSX.platform/Developer/SDKs/MacOSX13.1.sdk/usr/include/c++/v1/string:2027:12
	bl	__ZNSt3__1L4moveIRNS_17__compressed_pairINS_12basic_stringIcNS_11char_traitsIcEENS_9allocatorIcEEE5__repES6_EEEEONS_16remove_referenceIT_E4typeEOSC_
	ldr	x9, [sp, #8]                    ; 8-byte Folded Reload
	.loc	4 2027 7                        ; /Applications/Xcode.app/Contents/Developer/Platforms/MacOSX.platform/Developer/SDKs/MacOSX13.1.sdk/usr/include/c++/v1/string:2027:7
	ldr	q0, [x0]
	str	q0, [x9]
	ldr	x8, [x0, #16]
	str	x8, [x9, #16]
Ltmp201:
	.loc	4 2029 5 is_stmt 1              ; /Applications/Xcode.app/Contents/Developer/Platforms/MacOSX.platform/Developer/SDKs/MacOSX13.1.sdk/usr/include/c++/v1/string:2029:5
	ldr	x0, [sp, #16]
	.loc	4 2029 11 is_stmt 0             ; /Applications/Xcode.app/Contents/Developer/Platforms/MacOSX.platform/Developer/SDKs/MacOSX13.1.sdk/usr/include/c++/v1/string:2029:11
	bl	__ZNSt3__112basic_stringIcNS_11char_traitsIcEENS_9allocatorIcEEE6__zeroEv
	ldr	x0, [sp, #8]                    ; 8-byte Folded Reload
Ltmp202:
	.loc	4 2035 1 is_stmt 1              ; /Applications/Xcode.app/Contents/Developer/Platforms/MacOSX.platform/Developer/SDKs/MacOSX13.1.sdk/usr/include/c++/v1/string:2035:1
	ldp	x29, x30, [sp, #32]             ; 16-byte Folded Reload
	add	sp, sp, #48
	ret
Ltmp203:
Lfunc_end43:
	.cfi_endproc
                                        ; -- End function
	.p2align	2                               ; -- Begin function _ZNSt3__1L4moveIRNS_17__compressed_pairINS_12basic_stringIcNS_11char_traitsIcEENS_9allocatorIcEEE5__repES6_EEEEONS_16remove_referenceIT_E4typeEOSC_
__ZNSt3__1L4moveIRNS_17__compressed_pairINS_12basic_stringIcNS_11char_traitsIcEENS_9allocatorIcEEE5__repES6_EEEEONS_16remove_referenceIT_E4typeEOSC_: ; @_ZNSt3__1L4moveIRNS_17__compressed_pairINS_12basic_stringIcNS_11char_traitsIcEENS_9allocatorIcEEE5__repES6_EEEEONS_16remove_referenceIT_E4typeEOSC_
Lfunc_begin44:
	.loc	100 27 0                        ; /Applications/Xcode.app/Contents/Developer/Platforms/MacOSX.platform/Developer/SDKs/MacOSX13.1.sdk/usr/include/c++/v1/__utility/move.h:27:0
	.cfi_startproc
; %bb.0:
	sub	sp, sp, #16
	.cfi_def_cfa_offset 16
	str	x0, [sp, #8]
Ltmp205:
	.loc	100 29 29 prologue_end          ; /Applications/Xcode.app/Contents/Developer/Platforms/MacOSX.platform/Developer/SDKs/MacOSX13.1.sdk/usr/include/c++/v1/__utility/move.h:29:29
	ldr	x0, [sp, #8]
	.loc	100 29 3 is_stmt 0              ; /Applications/Xcode.app/Contents/Developer/Platforms/MacOSX.platform/Developer/SDKs/MacOSX13.1.sdk/usr/include/c++/v1/__utility/move.h:29:3
	add	sp, sp, #16
	ret
Ltmp206:
Lfunc_end44:
	.cfi_endproc
                                        ; -- End function
	.p2align	2                               ; -- Begin function _ZNSt3__112basic_stringIcNS_11char_traitsIcEENS_9allocatorIcEEE6__zeroEv
__ZNSt3__112basic_stringIcNS_11char_traitsIcEENS_9allocatorIcEEE6__zeroEv: ; @_ZNSt3__112basic_stringIcNS_11char_traitsIcEENS_9allocatorIcEEE6__zeroEv
Lfunc_begin45:
	.loc	4 1585 0 is_stmt 1              ; /Applications/Xcode.app/Contents/Developer/Platforms/MacOSX.platform/Developer/SDKs/MacOSX13.1.sdk/usr/include/c++/v1/string:1585:0
	.cfi_startproc
; %bb.0:
	sub	sp, sp, #48
	stp	x29, x30, [sp, #32]             ; 16-byte Folded Spill
	add	x29, sp, #32
	.cfi_def_cfa w29, 16
	.cfi_offset w30, -8
	.cfi_offset w29, -16
	stur	x0, [x29, #-8]
	ldur	x0, [x29, #-8]
Ltmp207:
	.loc	4 1586 48 prologue_end          ; /Applications/Xcode.app/Contents/Developer/Platforms/MacOSX.platform/Developer/SDKs/MacOSX13.1.sdk/usr/include/c++/v1/string:1586:48
	bl	__ZNSt3__117__compressed_pairINS_12basic_stringIcNS_11char_traitsIcEENS_9allocatorIcEEE5__repES5_E5firstEv
	.loc	4 1586 25 is_stmt 0             ; /Applications/Xcode.app/Contents/Developer/Platforms/MacOSX.platform/Developer/SDKs/MacOSX13.1.sdk/usr/include/c++/v1/string:1586:25
	str	x0, [sp, #16]
Ltmp208:
	.loc	4 1587 27 is_stmt 1             ; /Applications/Xcode.app/Contents/Developer/Platforms/MacOSX.platform/Developer/SDKs/MacOSX13.1.sdk/usr/include/c++/v1/string:1587:27
	str	wzr, [sp, #12]
	.loc	4 1587 18 is_stmt 0             ; /Applications/Xcode.app/Contents/Developer/Platforms/MacOSX.platform/Developer/SDKs/MacOSX13.1.sdk/usr/include/c++/v1/string:1587:18
	b	LBB45_1
LBB45_1:                                ; =>This Inner Loop Header: Depth=1
Ltmp209:
	.loc	4 1587 36                       ; /Applications/Xcode.app/Contents/Developer/Platforms/MacOSX.platform/Developer/SDKs/MacOSX13.1.sdk/usr/include/c++/v1/string:1587:36
	ldr	w8, [sp, #12]
Ltmp210:
	.loc	4 1587 13                       ; /Applications/Xcode.app/Contents/Developer/Platforms/MacOSX.platform/Developer/SDKs/MacOSX13.1.sdk/usr/include/c++/v1/string:1587:13
	subs	w8, w8, #3
	b.hs	LBB45_4
	b	LBB45_2
LBB45_2:                                ;   in Loop: Header=BB45_1 Depth=1
Ltmp211:
	.loc	4 1588 17 is_stmt 1             ; /Applications/Xcode.app/Contents/Developer/Platforms/MacOSX.platform/Developer/SDKs/MacOSX13.1.sdk/usr/include/c++/v1/string:1588:17
	ldr	x9, [sp, #16]
	.loc	4 1588 21 is_stmt 0             ; /Applications/Xcode.app/Contents/Developer/Platforms/MacOSX.platform/Developer/SDKs/MacOSX13.1.sdk/usr/include/c++/v1/string:1588:21
	ldr	w8, [sp, #12]
	mov	x10, x8
	mov	x8, #0
	.loc	4 1588 26                       ; /Applications/Xcode.app/Contents/Developer/Platforms/MacOSX.platform/Developer/SDKs/MacOSX13.1.sdk/usr/include/c++/v1/string:1588:26
	str	x8, [x9, x10, lsl #3]
	.loc	4 1588 17                       ; /Applications/Xcode.app/Contents/Developer/Platforms/MacOSX.platform/Developer/SDKs/MacOSX13.1.sdk/usr/include/c++/v1/string:1588:17
	b	LBB45_3
LBB45_3:                                ;   in Loop: Header=BB45_1 Depth=1
	.loc	4 1587 53 is_stmt 1             ; /Applications/Xcode.app/Contents/Developer/Platforms/MacOSX.platform/Developer/SDKs/MacOSX13.1.sdk/usr/include/c++/v1/string:1587:53
	ldr	w8, [sp, #12]
	add	w8, w8, #1
	str	w8, [sp, #12]
	.loc	4 1587 13 is_stmt 0             ; /Applications/Xcode.app/Contents/Developer/Platforms/MacOSX.platform/Developer/SDKs/MacOSX13.1.sdk/usr/include/c++/v1/string:1587:13
	b	LBB45_1
Ltmp212:
LBB45_4:
	.loc	4 1589 9 is_stmt 1              ; /Applications/Xcode.app/Contents/Developer/Platforms/MacOSX.platform/Developer/SDKs/MacOSX13.1.sdk/usr/include/c++/v1/string:1589:9
	ldp	x29, x30, [sp, #32]             ; 16-byte Folded Reload
	add	sp, sp, #48
	ret
Ltmp213:
Lfunc_end45:
	.cfi_endproc
                                        ; -- End function
	.p2align	2                               ; -- Begin function _ZNSt3__117__compressed_pairINS_12basic_stringIcNS_11char_traitsIcEENS_9allocatorIcEEE5__repES5_E5firstEv
__ZNSt3__117__compressed_pairINS_12basic_stringIcNS_11char_traitsIcEENS_9allocatorIcEEE5__repES5_E5firstEv: ; @_ZNSt3__117__compressed_pairINS_12basic_stringIcNS_11char_traitsIcEENS_9allocatorIcEEE5__repES5_E5firstEv
Lfunc_begin46:
	.loc	6 150 0                         ; /Applications/Xcode.app/Contents/Developer/Platforms/MacOSX.platform/Developer/SDKs/MacOSX13.1.sdk/usr/include/c++/v1/__memory/compressed_pair.h:150:0
	.cfi_startproc
; %bb.0:
	sub	sp, sp, #32
	stp	x29, x30, [sp, #16]             ; 16-byte Folded Spill
	add	x29, sp, #16
	.cfi_def_cfa w29, 16
	.cfi_offset w30, -8
	.cfi_offset w29, -16
	str	x0, [sp, #8]
	ldr	x0, [sp, #8]
Ltmp214:
	.loc	6 151 40 prologue_end           ; /Applications/Xcode.app/Contents/Developer/Platforms/MacOSX.platform/Developer/SDKs/MacOSX13.1.sdk/usr/include/c++/v1/__memory/compressed_pair.h:151:40
	bl	__ZNSt3__122__compressed_pair_elemINS_12basic_stringIcNS_11char_traitsIcEENS_9allocatorIcEEE5__repELi0ELb0EE5__getEv
	.loc	6 151 5 is_stmt 0               ; /Applications/Xcode.app/Contents/Developer/Platforms/MacOSX.platform/Developer/SDKs/MacOSX13.1.sdk/usr/include/c++/v1/__memory/compressed_pair.h:151:5
	ldp	x29, x30, [sp, #16]             ; 16-byte Folded Reload
	add	sp, sp, #32
	ret
Ltmp215:
Lfunc_end46:
	.cfi_endproc
                                        ; -- End function
	.p2align	2                               ; -- Begin function _ZNSt3__122__compressed_pair_elemINS_12basic_stringIcNS_11char_traitsIcEENS_9allocatorIcEEE5__repELi0ELb0EE5__getEv
__ZNSt3__122__compressed_pair_elemINS_12basic_stringIcNS_11char_traitsIcEENS_9allocatorIcEEE5__repELi0ELb0EE5__getEv: ; @_ZNSt3__122__compressed_pair_elemINS_12basic_stringIcNS_11char_traitsIcEENS_9allocatorIcEEE5__repELi0ELb0EE5__getEv
Lfunc_begin47:
	.loc	6 65 0 is_stmt 1                ; /Applications/Xcode.app/Contents/Developer/Platforms/MacOSX.platform/Developer/SDKs/MacOSX13.1.sdk/usr/include/c++/v1/__memory/compressed_pair.h:65:0
	.cfi_startproc
; %bb.0:
	sub	sp, sp, #16
	.cfi_def_cfa_offset 16
	str	x0, [sp, #8]
	ldr	x0, [sp, #8]
Ltmp217:
	.loc	6 65 110 prologue_end           ; /Applications/Xcode.app/Contents/Developer/Platforms/MacOSX.platform/Developer/SDKs/MacOSX13.1.sdk/usr/include/c++/v1/__memory/compressed_pair.h:65:110
	add	sp, sp, #16
	ret
Ltmp218:
Lfunc_end47:
	.cfi_endproc
                                        ; -- End function
	.p2align	2                               ; -- Begin function _ZNSt3__14__fs10filesystem4pathD2Ev
__ZNSt3__14__fs10filesystem4pathD2Ev:   ; @_ZNSt3__14__fs10filesystem4pathD2Ev
Lfunc_begin48:
	.loc	43 968 0                        ; /Applications/Xcode.app/Contents/Developer/Platforms/MacOSX.platform/Developer/SDKs/MacOSX13.1.sdk/usr/include/c++/v1/filesystem:968:0
	.cfi_startproc
; %bb.0:
	sub	sp, sp, #32
	stp	x29, x30, [sp, #16]             ; 16-byte Folded Spill
	add	x29, sp, #16
	.cfi_def_cfa w29, 16
	.cfi_offset w30, -8
	.cfi_offset w29, -16
	str	x0, [sp, #8]
	ldr	x0, [sp, #8]
	str	x0, [sp]                        ; 8-byte Folded Spill
Ltmp219:
	.loc	43 968 19 prologue_end          ; /Applications/Xcode.app/Contents/Developer/Platforms/MacOSX.platform/Developer/SDKs/MacOSX13.1.sdk/usr/include/c++/v1/filesystem:968:19
	bl	__ZNSt3__112basic_stringIcNS_11char_traitsIcEENS_9allocatorIcEEED1Ev
	ldr	x0, [sp]                        ; 8-byte Folded Reload
Ltmp220:
	.loc	43 968 19 is_stmt 0             ; /Applications/Xcode.app/Contents/Developer/Platforms/MacOSX.platform/Developer/SDKs/MacOSX13.1.sdk/usr/include/c++/v1/filesystem:968:19
	ldp	x29, x30, [sp, #16]             ; 16-byte Folded Reload
	add	sp, sp, #32
	ret
Ltmp221:
Lfunc_end48:
	.cfi_endproc
                                        ; -- End function
	.globl	__ZNSt3__119basic_ostringstreamIcNS_11char_traitsIcEENS_9allocatorIcEEED2Ev ; -- Begin function _ZNSt3__119basic_ostringstreamIcNS_11char_traitsIcEENS_9allocatorIcEEED2Ev
	.weak_def_can_be_hidden	__ZNSt3__119basic_ostringstreamIcNS_11char_traitsIcEENS_9allocatorIcEEED2Ev
	.p2align	2
__ZNSt3__119basic_ostringstreamIcNS_11char_traitsIcEENS_9allocatorIcEEED2Ev: ; @_ZNSt3__119basic_ostringstreamIcNS_11char_traitsIcEENS_9allocatorIcEEED2Ev
Lfunc_begin49:
	.loc	41 863 0 is_stmt 1              ; /Applications/Xcode.app/Contents/Developer/Platforms/MacOSX.platform/Developer/SDKs/MacOSX13.1.sdk/usr/include/c++/v1/sstream:863:0
	.cfi_startproc
; %bb.0:
	sub	sp, sp, #48
	stp	x29, x30, [sp, #32]             ; 16-byte Folded Spill
	add	x29, sp, #32
	.cfi_def_cfa w29, 16
	.cfi_offset w30, -8
	.cfi_offset w29, -16
	stur	x0, [x29, #-8]
	str	x1, [sp, #16]
	ldur	x8, [x29, #-8]
	str	x8, [sp, #8]                    ; 8-byte Folded Spill
	ldr	x9, [sp, #16]
	str	x9, [sp]                        ; 8-byte Folded Spill
Ltmp222:
	.loc	41 863 67 prologue_end          ; /Applications/Xcode.app/Contents/Developer/Platforms/MacOSX.platform/Developer/SDKs/MacOSX13.1.sdk/usr/include/c++/v1/sstream:863:67
	ldr	x10, [x9]
	str	x10, [x8]
	ldr	x9, [x9, #24]
	ldr	x10, [x8]
	ldur	x10, [x10, #-24]
	str	x9, [x8, x10]
Ltmp223:
	.loc	41 863 67 is_stmt 0             ; /Applications/Xcode.app/Contents/Developer/Platforms/MacOSX.platform/Developer/SDKs/MacOSX13.1.sdk/usr/include/c++/v1/sstream:863:67
	add	x0, x8, #8
	bl	__ZNSt3__115basic_stringbufIcNS_11char_traitsIcEENS_9allocatorIcEEED1Ev
	ldr	x0, [sp, #8]                    ; 8-byte Folded Reload
	ldr	x8, [sp]                        ; 8-byte Folded Reload
	add	x1, x8, #8
	bl	__ZNSt3__113basic_ostreamIcNS_11char_traitsIcEEED2Ev
	ldr	x0, [sp, #8]                    ; 8-byte Folded Reload
Ltmp224:
	.loc	41 863 67                       ; /Applications/Xcode.app/Contents/Developer/Platforms/MacOSX.platform/Developer/SDKs/MacOSX13.1.sdk/usr/include/c++/v1/sstream:863:67
	ldp	x29, x30, [sp, #32]             ; 16-byte Folded Reload
	add	sp, sp, #48
	ret
Ltmp225:
Lfunc_end49:
	.cfi_endproc
                                        ; -- End function
	.globl	__ZTv0_n24_NSt3__119basic_ostringstreamIcNS_11char_traitsIcEENS_9allocatorIcEEED1Ev ; -- Begin function _ZTv0_n24_NSt3__119basic_ostringstreamIcNS_11char_traitsIcEENS_9allocatorIcEEED1Ev
	.weak_def_can_be_hidden	__ZTv0_n24_NSt3__119basic_ostringstreamIcNS_11char_traitsIcEENS_9allocatorIcEEED1Ev
	.p2align	2
__ZTv0_n24_NSt3__119basic_ostringstreamIcNS_11char_traitsIcEENS_9allocatorIcEEED1Ev: ; @_ZTv0_n24_NSt3__119basic_ostringstreamIcNS_11char_traitsIcEENS_9allocatorIcEEED1Ev
Lfunc_begin50:
	.loc	41 0 0 is_stmt 1                ; /Applications/Xcode.app/Contents/Developer/Platforms/MacOSX.platform/Developer/SDKs/MacOSX13.1.sdk/usr/include/c++/v1/sstream:0:0
	.cfi_startproc
; %bb.0:
	sub	sp, sp, #16
	.cfi_def_cfa_offset 16
	str	x0, [sp]
Ltmp227:
	ldr	x8, [sp]
	mov	x9, x8
	str	x9, [sp, #8]
	ldr	x9, [x8]
	ldur	x9, [x9, #-24]
	add	x0, x8, x9
	add	sp, sp, #16
	b	__ZNSt3__119basic_ostringstreamIcNS_11char_traitsIcEENS_9allocatorIcEEED1Ev
Ltmp228:
Lfunc_end50:
	.cfi_endproc
                                        ; -- End function
	.globl	__ZNSt3__115basic_stringbufIcNS_11char_traitsIcEENS_9allocatorIcEEED1Ev ; -- Begin function _ZNSt3__115basic_stringbufIcNS_11char_traitsIcEENS_9allocatorIcEEED1Ev
	.weak_def_can_be_hidden	__ZNSt3__115basic_stringbufIcNS_11char_traitsIcEENS_9allocatorIcEEED1Ev
	.p2align	2
__ZNSt3__115basic_stringbufIcNS_11char_traitsIcEENS_9allocatorIcEEED1Ev: ; @_ZNSt3__115basic_stringbufIcNS_11char_traitsIcEENS_9allocatorIcEEED1Ev
Lfunc_begin51:
	.loc	41 861 0                        ; /Applications/Xcode.app/Contents/Developer/Platforms/MacOSX.platform/Developer/SDKs/MacOSX13.1.sdk/usr/include/c++/v1/sstream:861:0
	.cfi_startproc
; %bb.0:
	sub	sp, sp, #32
	stp	x29, x30, [sp, #16]             ; 16-byte Folded Spill
	add	x29, sp, #16
	.cfi_def_cfa w29, 16
	.cfi_offset w30, -8
	.cfi_offset w29, -16
	str	x0, [sp, #8]
	ldr	x0, [sp, #8]
	str	x0, [sp]                        ; 8-byte Folded Spill
Ltmp229:
	.loc	41 861 67 prologue_end          ; /Applications/Xcode.app/Contents/Developer/Platforms/MacOSX.platform/Developer/SDKs/MacOSX13.1.sdk/usr/include/c++/v1/sstream:861:67
	bl	__ZNSt3__115basic_stringbufIcNS_11char_traitsIcEENS_9allocatorIcEEED2Ev
	ldr	x0, [sp]                        ; 8-byte Folded Reload
	ldp	x29, x30, [sp, #16]             ; 16-byte Folded Reload
	add	sp, sp, #32
	ret
Ltmp230:
Lfunc_end51:
	.cfi_endproc
                                        ; -- End function
	.globl	__ZNSt3__115basic_stringbufIcNS_11char_traitsIcEENS_9allocatorIcEEED2Ev ; -- Begin function _ZNSt3__115basic_stringbufIcNS_11char_traitsIcEENS_9allocatorIcEEED2Ev
	.weak_def_can_be_hidden	__ZNSt3__115basic_stringbufIcNS_11char_traitsIcEENS_9allocatorIcEEED2Ev
	.p2align	2
__ZNSt3__115basic_stringbufIcNS_11char_traitsIcEENS_9allocatorIcEEED2Ev: ; @_ZNSt3__115basic_stringbufIcNS_11char_traitsIcEENS_9allocatorIcEEED2Ev
Lfunc_begin52:
	.loc	41 861 0                        ; /Applications/Xcode.app/Contents/Developer/Platforms/MacOSX.platform/Developer/SDKs/MacOSX13.1.sdk/usr/include/c++/v1/sstream:861:0
	.cfi_startproc
; %bb.0:
	sub	sp, sp, #32
	stp	x29, x30, [sp, #16]             ; 16-byte Folded Spill
	add	x29, sp, #16
	.cfi_def_cfa w29, 16
	.cfi_offset w30, -8
	.cfi_offset w29, -16
Ltmp231:
	.loc	41 0 0 is_stmt 0                ; /Applications/Xcode.app/Contents/Developer/Platforms/MacOSX.platform/Developer/SDKs/MacOSX13.1.sdk/usr/include/c++/v1/sstream:0:0
	adrp	x8, __ZTVNSt3__115basic_stringbufIcNS_11char_traitsIcEENS_9allocatorIcEEEE@GOTPAGE
	ldr	x8, [x8, __ZTVNSt3__115basic_stringbufIcNS_11char_traitsIcEENS_9allocatorIcEEEE@GOTPAGEOFF]
	add	x9, x8, #16
	str	x0, [sp, #8]
	ldr	x8, [sp, #8]
	str	x8, [sp]                        ; 8-byte Folded Spill
	.loc	41 861 67 prologue_end is_stmt 1 ; /Applications/Xcode.app/Contents/Developer/Platforms/MacOSX.platform/Developer/SDKs/MacOSX13.1.sdk/usr/include/c++/v1/sstream:861:67
	str	x9, [x8]
Ltmp232:
	.loc	41 861 67 is_stmt 0             ; /Applications/Xcode.app/Contents/Developer/Platforms/MacOSX.platform/Developer/SDKs/MacOSX13.1.sdk/usr/include/c++/v1/sstream:861:67
	add	x0, x8, #64
	bl	__ZNSt3__112basic_stringIcNS_11char_traitsIcEENS_9allocatorIcEEED1Ev
	ldr	x0, [sp]                        ; 8-byte Folded Reload
	bl	__ZNSt3__115basic_streambufIcNS_11char_traitsIcEEED2Ev
	ldr	x0, [sp]                        ; 8-byte Folded Reload
Ltmp233:
	.loc	41 861 67                       ; /Applications/Xcode.app/Contents/Developer/Platforms/MacOSX.platform/Developer/SDKs/MacOSX13.1.sdk/usr/include/c++/v1/sstream:861:67
	ldp	x29, x30, [sp, #16]             ; 16-byte Folded Reload
	add	sp, sp, #32
	ret
Ltmp234:
Lfunc_end52:
	.cfi_endproc
                                        ; -- End function
	.p2align	2                               ; -- Begin function _ZNSt3__112basic_stringIcNS_11char_traitsIcEENS_9allocatorIcEEEC2IDnEEPKc
__ZNSt3__112basic_stringIcNS_11char_traitsIcEENS_9allocatorIcEEEC2IDnEEPKc: ; @_ZNSt3__112basic_stringIcNS_11char_traitsIcEENS_9allocatorIcEEEC2IDnEEPKc
Lfunc_begin53:
	.loc	4 840 0 is_stmt 1               ; /Applications/Xcode.app/Contents/Developer/Platforms/MacOSX.platform/Developer/SDKs/MacOSX13.1.sdk/usr/include/c++/v1/string:840:0
	.cfi_startproc
; %bb.0:
	sub	sp, sp, #64
	stp	x29, x30, [sp, #48]             ; 16-byte Folded Spill
	add	x29, sp, #48
	.cfi_def_cfa w29, 16
	.cfi_offset w30, -8
	.cfi_offset w29, -16
	stur	x0, [x29, #-8]
	stur	x1, [x29, #-16]
	ldur	x0, [x29, #-8]
	str	x0, [sp, #16]                   ; 8-byte Folded Spill
	sub	x1, x29, #17
	sub	x2, x29, #18
Ltmp235:
	.loc	4 840 39 prologue_end           ; /Applications/Xcode.app/Contents/Developer/Platforms/MacOSX.platform/Developer/SDKs/MacOSX13.1.sdk/usr/include/c++/v1/string:840:39
	bl	__ZNSt3__117__compressed_pairINS_12basic_stringIcNS_11char_traitsIcEENS_9allocatorIcEEE5__repES5_EC1INS_18__default_init_tagESA_EEOT_OT0_
Ltmp236:
	.loc	4 842 14                        ; /Applications/Xcode.app/Contents/Developer/Platforms/MacOSX.platform/Developer/SDKs/MacOSX13.1.sdk/usr/include/c++/v1/string:842:14
	ldur	x8, [x29, #-16]
	str	x8, [sp, #8]                    ; 8-byte Folded Spill
	.loc	4 842 39 is_stmt 0              ; /Applications/Xcode.app/Contents/Developer/Platforms/MacOSX.platform/Developer/SDKs/MacOSX13.1.sdk/usr/include/c++/v1/string:842:39
	ldur	x0, [x29, #-16]
	.loc	4 842 19                        ; /Applications/Xcode.app/Contents/Developer/Platforms/MacOSX.platform/Developer/SDKs/MacOSX13.1.sdk/usr/include/c++/v1/string:842:19
	bl	__ZNSt3__111char_traitsIcE6lengthEPKc
	ldr	x1, [sp, #8]                    ; 8-byte Folded Reload
	mov	x2, x0
	ldr	x0, [sp, #16]                   ; 8-byte Folded Reload
	.loc	4 842 7                         ; /Applications/Xcode.app/Contents/Developer/Platforms/MacOSX.platform/Developer/SDKs/MacOSX13.1.sdk/usr/include/c++/v1/string:842:7
	bl	__ZNSt3__112basic_stringIcNS_11char_traitsIcEENS_9allocatorIcEEE6__initEPKcm
	ldr	x0, [sp, #16]                   ; 8-byte Folded Reload
Ltmp237:
	.loc	4 846 5 is_stmt 1               ; /Applications/Xcode.app/Contents/Developer/Platforms/MacOSX.platform/Developer/SDKs/MacOSX13.1.sdk/usr/include/c++/v1/string:846:5
	ldp	x29, x30, [sp, #48]             ; 16-byte Folded Reload
	add	sp, sp, #64
	ret
Ltmp238:
Lfunc_end53:
	.cfi_endproc
                                        ; -- End function
	.globl	__ZNSt3__111char_traitsIcE6lengthEPKc ; -- Begin function _ZNSt3__111char_traitsIcE6lengthEPKc
	.weak_definition	__ZNSt3__111char_traitsIcE6lengthEPKc
	.p2align	2
__ZNSt3__111char_traitsIcE6lengthEPKc:  ; @_ZNSt3__111char_traitsIcE6lengthEPKc
Lfunc_begin54:
	.loc	1 342 0                         ; /Applications/Xcode.app/Contents/Developer/Platforms/MacOSX.platform/Developer/SDKs/MacOSX13.1.sdk/usr/include/c++/v1/__string:342:0
	.cfi_startproc
; %bb.0:
	sub	sp, sp, #32
	stp	x29, x30, [sp, #16]             ; 16-byte Folded Spill
	add	x29, sp, #16
	.cfi_def_cfa w29, 16
	.cfi_offset w30, -8
	.cfi_offset w29, -16
	str	x0, [sp, #8]
Ltmp239:
	.loc	1 342 68 prologue_end           ; /Applications/Xcode.app/Contents/Developer/Platforms/MacOSX.platform/Developer/SDKs/MacOSX13.1.sdk/usr/include/c++/v1/__string:342:68
	ldr	x0, [sp, #8]
	.loc	1 342 51 is_stmt 0              ; /Applications/Xcode.app/Contents/Developer/Platforms/MacOSX.platform/Developer/SDKs/MacOSX13.1.sdk/usr/include/c++/v1/__string:342:51
	bl	_strlen
	.loc	1 342 44                        ; /Applications/Xcode.app/Contents/Developer/Platforms/MacOSX.platform/Developer/SDKs/MacOSX13.1.sdk/usr/include/c++/v1/__string:342:44
	ldp	x29, x30, [sp, #16]             ; 16-byte Folded Reload
	add	sp, sp, #32
	ret
Ltmp240:
Lfunc_end54:
	.cfi_endproc
                                        ; -- End function
	.p2align	2                               ; -- Begin function _ZNKSt3__112basic_stringIcNS_11char_traitsIcEENS_9allocatorIcEEE4dataEv
__ZNKSt3__112basic_stringIcNS_11char_traitsIcEENS_9allocatorIcEEE4dataEv: ; @_ZNKSt3__112basic_stringIcNS_11char_traitsIcEENS_9allocatorIcEEE4dataEv
Lfunc_begin55:
	.loc	4 1265 0 is_stmt 1              ; /Applications/Xcode.app/Contents/Developer/Platforms/MacOSX.platform/Developer/SDKs/MacOSX13.1.sdk/usr/include/c++/v1/string:1265:0
	.cfi_startproc
; %bb.0:
	sub	sp, sp, #32
	stp	x29, x30, [sp, #16]             ; 16-byte Folded Spill
	add	x29, sp, #16
	.cfi_def_cfa w29, 16
	.cfi_offset w30, -8
	.cfi_offset w29, -16
	str	x0, [sp, #8]
	ldr	x0, [sp, #8]
Ltmp241:
	.loc	4 1265 76 prologue_end          ; /Applications/Xcode.app/Contents/Developer/Platforms/MacOSX.platform/Developer/SDKs/MacOSX13.1.sdk/usr/include/c++/v1/string:1265:76
	bl	__ZNKSt3__112basic_stringIcNS_11char_traitsIcEENS_9allocatorIcEEE13__get_pointerEv
	.loc	4 1265 53 is_stmt 0             ; /Applications/Xcode.app/Contents/Developer/Platforms/MacOSX.platform/Developer/SDKs/MacOSX13.1.sdk/usr/include/c++/v1/string:1265:53
	bl	__ZNSt3__1L12__to_addressIKcEEPT_S3_
	.loc	4 1265 46                       ; /Applications/Xcode.app/Contents/Developer/Platforms/MacOSX.platform/Developer/SDKs/MacOSX13.1.sdk/usr/include/c++/v1/string:1265:46
	ldp	x29, x30, [sp, #16]             ; 16-byte Folded Reload
	add	sp, sp, #32
	ret
Ltmp242:
Lfunc_end55:
	.cfi_endproc
                                        ; -- End function
	.p2align	2                               ; -- Begin function _ZNSt3__1L12__to_addressIKcEEPT_S3_
__ZNSt3__1L12__to_addressIKcEEPT_S3_:   ; @_ZNSt3__1L12__to_addressIKcEEPT_S3_
Lfunc_begin56:
	.loc	26 173 0 is_stmt 1              ; /Applications/Xcode.app/Contents/Developer/Platforms/MacOSX.platform/Developer/SDKs/MacOSX13.1.sdk/usr/include/c++/v1/__memory/pointer_traits.h:173:0
	.cfi_startproc
; %bb.0:
	sub	sp, sp, #16
	.cfi_def_cfa_offset 16
	str	x0, [sp, #8]
Ltmp244:
	.loc	26 175 12 prologue_end          ; /Applications/Xcode.app/Contents/Developer/Platforms/MacOSX.platform/Developer/SDKs/MacOSX13.1.sdk/usr/include/c++/v1/__memory/pointer_traits.h:175:12
	ldr	x0, [sp, #8]
	.loc	26 175 5 is_stmt 0              ; /Applications/Xcode.app/Contents/Developer/Platforms/MacOSX.platform/Developer/SDKs/MacOSX13.1.sdk/usr/include/c++/v1/__memory/pointer_traits.h:175:5
	add	sp, sp, #16
	ret
Ltmp245:
Lfunc_end56:
	.cfi_endproc
                                        ; -- End function
	.p2align	2                               ; -- Begin function _ZNKSt3__112basic_stringIcNS_11char_traitsIcEENS_9allocatorIcEEE13__get_pointerEv
__ZNKSt3__112basic_stringIcNS_11char_traitsIcEENS_9allocatorIcEEE13__get_pointerEv: ; @_ZNKSt3__112basic_stringIcNS_11char_traitsIcEENS_9allocatorIcEEE13__get_pointerEv
Lfunc_begin57:
	.loc	4 1581 0 is_stmt 1              ; /Applications/Xcode.app/Contents/Developer/Platforms/MacOSX.platform/Developer/SDKs/MacOSX13.1.sdk/usr/include/c++/v1/string:1581:0
	.cfi_startproc
; %bb.0:
	sub	sp, sp, #48
	stp	x29, x30, [sp, #32]             ; 16-byte Folded Spill
	add	x29, sp, #32
	.cfi_def_cfa w29, 16
	.cfi_offset w30, -8
	.cfi_offset w29, -16
	stur	x0, [x29, #-8]
	ldur	x0, [x29, #-8]
	str	x0, [sp, #16]                   ; 8-byte Folded Spill
Ltmp246:
	.loc	4 1581 17 prologue_end          ; /Applications/Xcode.app/Contents/Developer/Platforms/MacOSX.platform/Developer/SDKs/MacOSX13.1.sdk/usr/include/c++/v1/string:1581:17
	bl	__ZNKSt3__112basic_stringIcNS_11char_traitsIcEENS_9allocatorIcEEE9__is_longEv
	tbz	w0, #0, LBB57_2
	b	LBB57_1
LBB57_1:
	.loc	4 0 17 is_stmt 0                ; /Applications/Xcode.app/Contents/Developer/Platforms/MacOSX.platform/Developer/SDKs/MacOSX13.1.sdk/usr/include/c++/v1/string:0:17
	ldr	x0, [sp, #16]                   ; 8-byte Folded Reload
	.loc	4 1581 31                       ; /Applications/Xcode.app/Contents/Developer/Platforms/MacOSX.platform/Developer/SDKs/MacOSX13.1.sdk/usr/include/c++/v1/string:1581:31
	bl	__ZNKSt3__112basic_stringIcNS_11char_traitsIcEENS_9allocatorIcEEE18__get_long_pointerEv
	str	x0, [sp, #8]                    ; 8-byte Folded Spill
	.loc	4 1581 17                       ; /Applications/Xcode.app/Contents/Developer/Platforms/MacOSX.platform/Developer/SDKs/MacOSX13.1.sdk/usr/include/c++/v1/string:1581:17
	b	LBB57_3
LBB57_2:
	.loc	4 0 17                          ; /Applications/Xcode.app/Contents/Developer/Platforms/MacOSX.platform/Developer/SDKs/MacOSX13.1.sdk/usr/include/c++/v1/string:0:17
	ldr	x0, [sp, #16]                   ; 8-byte Folded Reload
	.loc	4 1581 54                       ; /Applications/Xcode.app/Contents/Developer/Platforms/MacOSX.platform/Developer/SDKs/MacOSX13.1.sdk/usr/include/c++/v1/string:1581:54
	bl	__ZNKSt3__112basic_stringIcNS_11char_traitsIcEENS_9allocatorIcEEE19__get_short_pointerEv
	str	x0, [sp, #8]                    ; 8-byte Folded Spill
	.loc	4 1581 17                       ; /Applications/Xcode.app/Contents/Developer/Platforms/MacOSX.platform/Developer/SDKs/MacOSX13.1.sdk/usr/include/c++/v1/string:1581:17
	b	LBB57_3
LBB57_3:
	.loc	4 0 17                          ; /Applications/Xcode.app/Contents/Developer/Platforms/MacOSX.platform/Developer/SDKs/MacOSX13.1.sdk/usr/include/c++/v1/string:0:17
	ldr	x0, [sp, #8]                    ; 8-byte Folded Reload
	.loc	4 1581 10                       ; /Applications/Xcode.app/Contents/Developer/Platforms/MacOSX.platform/Developer/SDKs/MacOSX13.1.sdk/usr/include/c++/v1/string:1581:10
	ldp	x29, x30, [sp, #32]             ; 16-byte Folded Reload
	add	sp, sp, #48
	ret
Ltmp247:
Lfunc_end57:
	.cfi_endproc
                                        ; -- End function
	.p2align	2                               ; -- Begin function _ZNKSt3__112basic_stringIcNS_11char_traitsIcEENS_9allocatorIcEEE9__is_longEv
__ZNKSt3__112basic_stringIcNS_11char_traitsIcEENS_9allocatorIcEEE9__is_longEv: ; @_ZNKSt3__112basic_stringIcNS_11char_traitsIcEENS_9allocatorIcEEE9__is_longEv
Lfunc_begin58:
	.loc	4 1459 0 is_stmt 1              ; /Applications/Xcode.app/Contents/Developer/Platforms/MacOSX.platform/Developer/SDKs/MacOSX13.1.sdk/usr/include/c++/v1/string:1459:0
	.cfi_startproc
; %bb.0:
	sub	sp, sp, #32
	stp	x29, x30, [sp, #16]             ; 16-byte Folded Spill
	add	x29, sp, #16
	.cfi_def_cfa w29, 16
	.cfi_offset w30, -8
	.cfi_offset w29, -16
	str	x0, [sp, #8]
	ldr	x0, [sp, #8]
Ltmp248:
	.loc	4 1459 27 prologue_end          ; /Applications/Xcode.app/Contents/Developer/Platforms/MacOSX.platform/Developer/SDKs/MacOSX13.1.sdk/usr/include/c++/v1/string:1459:27
	bl	__ZNKSt3__117__compressed_pairINS_12basic_stringIcNS_11char_traitsIcEENS_9allocatorIcEEE5__repES5_E5firstEv
	.loc	4 1459 39 is_stmt 0             ; /Applications/Xcode.app/Contents/Developer/Platforms/MacOSX.platform/Developer/SDKs/MacOSX13.1.sdk/usr/include/c++/v1/string:1459:39
	ldrb	w8, [x0, #23]
                                        ; kill: def $x8 killed $w8
	.loc	4 1459 22                       ; /Applications/Xcode.app/Contents/Developer/Platforms/MacOSX.platform/Developer/SDKs/MacOSX13.1.sdk/usr/include/c++/v1/string:1459:22
	ands	x8, x8, #0x80
	cset	w8, ne
	.loc	4 1459 10                       ; /Applications/Xcode.app/Contents/Developer/Platforms/MacOSX.platform/Developer/SDKs/MacOSX13.1.sdk/usr/include/c++/v1/string:1459:10
	and	w0, w8, #0x1
	ldp	x29, x30, [sp, #16]             ; 16-byte Folded Reload
	add	sp, sp, #32
	ret
Ltmp249:
Lfunc_end58:
	.cfi_endproc
                                        ; -- End function
	.p2align	2                               ; -- Begin function _ZNKSt3__112basic_stringIcNS_11char_traitsIcEENS_9allocatorIcEEE18__get_long_pointerEv
__ZNKSt3__112basic_stringIcNS_11char_traitsIcEENS_9allocatorIcEEE18__get_long_pointerEv: ; @_ZNKSt3__112basic_stringIcNS_11char_traitsIcEENS_9allocatorIcEEE18__get_long_pointerEv
Lfunc_begin59:
	.loc	4 1569 0 is_stmt 1              ; /Applications/Xcode.app/Contents/Developer/Platforms/MacOSX.platform/Developer/SDKs/MacOSX13.1.sdk/usr/include/c++/v1/string:1569:0
	.cfi_startproc
; %bb.0:
	sub	sp, sp, #32
	stp	x29, x30, [sp, #16]             ; 16-byte Folded Spill
	add	x29, sp, #16
	.cfi_def_cfa w29, 16
	.cfi_offset w30, -8
	.cfi_offset w29, -16
	str	x0, [sp, #8]
	ldr	x0, [sp, #8]
Ltmp250:
	.loc	4 1569 22 prologue_end          ; /Applications/Xcode.app/Contents/Developer/Platforms/MacOSX.platform/Developer/SDKs/MacOSX13.1.sdk/usr/include/c++/v1/string:1569:22
	bl	__ZNKSt3__117__compressed_pairINS_12basic_stringIcNS_11char_traitsIcEENS_9allocatorIcEEE5__repES5_E5firstEv
	.loc	4 1569 34 is_stmt 0             ; /Applications/Xcode.app/Contents/Developer/Platforms/MacOSX.platform/Developer/SDKs/MacOSX13.1.sdk/usr/include/c++/v1/string:1569:34
	ldr	x0, [x0]
	.loc	4 1569 10                       ; /Applications/Xcode.app/Contents/Developer/Platforms/MacOSX.platform/Developer/SDKs/MacOSX13.1.sdk/usr/include/c++/v1/string:1569:10
	ldp	x29, x30, [sp, #16]             ; 16-byte Folded Reload
	add	sp, sp, #32
	ret
Ltmp251:
Lfunc_end59:
	.cfi_endproc
                                        ; -- End function
	.p2align	2                               ; -- Begin function _ZNKSt3__112basic_stringIcNS_11char_traitsIcEENS_9allocatorIcEEE19__get_short_pointerEv
__ZNKSt3__112basic_stringIcNS_11char_traitsIcEENS_9allocatorIcEEE19__get_short_pointerEv: ; @_ZNKSt3__112basic_stringIcNS_11char_traitsIcEENS_9allocatorIcEEE19__get_short_pointerEv
Lfunc_begin60:
	.loc	4 1575 0 is_stmt 1              ; /Applications/Xcode.app/Contents/Developer/Platforms/MacOSX.platform/Developer/SDKs/MacOSX13.1.sdk/usr/include/c++/v1/string:1575:0
	.cfi_startproc
; %bb.0:
	sub	sp, sp, #32
	stp	x29, x30, [sp, #16]             ; 16-byte Folded Spill
	add	x29, sp, #16
	.cfi_def_cfa w29, 16
	.cfi_offset w30, -8
	.cfi_offset w29, -16
	str	x0, [sp, #8]
	ldr	x0, [sp, #8]
Ltmp252:
	.loc	4 1575 64 prologue_end          ; /Applications/Xcode.app/Contents/Developer/Platforms/MacOSX.platform/Developer/SDKs/MacOSX13.1.sdk/usr/include/c++/v1/string:1575:64
	bl	__ZNKSt3__117__compressed_pairINS_12basic_stringIcNS_11char_traitsIcEENS_9allocatorIcEEE5__repES5_E5firstEv
	.loc	4 1575 17 is_stmt 0             ; /Applications/Xcode.app/Contents/Developer/Platforms/MacOSX.platform/Developer/SDKs/MacOSX13.1.sdk/usr/include/c++/v1/string:1575:17
	bl	__ZNSt3__114pointer_traitsIPKcE10pointer_toERS1_
	.loc	4 1575 10                       ; /Applications/Xcode.app/Contents/Developer/Platforms/MacOSX.platform/Developer/SDKs/MacOSX13.1.sdk/usr/include/c++/v1/string:1575:10
	ldp	x29, x30, [sp, #16]             ; 16-byte Folded Reload
	add	sp, sp, #32
	ret
Ltmp253:
Lfunc_end60:
	.cfi_endproc
                                        ; -- End function
	.p2align	2                               ; -- Begin function _ZNKSt3__117__compressed_pairINS_12basic_stringIcNS_11char_traitsIcEENS_9allocatorIcEEE5__repES5_E5firstEv
__ZNKSt3__117__compressed_pairINS_12basic_stringIcNS_11char_traitsIcEENS_9allocatorIcEEE5__repES5_E5firstEv: ; @_ZNKSt3__117__compressed_pairINS_12basic_stringIcNS_11char_traitsIcEENS_9allocatorIcEEE5__repES5_E5firstEv
Lfunc_begin61:
	.loc	6 155 0 is_stmt 1               ; /Applications/Xcode.app/Contents/Developer/Platforms/MacOSX.platform/Developer/SDKs/MacOSX13.1.sdk/usr/include/c++/v1/__memory/compressed_pair.h:155:0
	.cfi_startproc
; %bb.0:
	sub	sp, sp, #32
	stp	x29, x30, [sp, #16]             ; 16-byte Folded Spill
	add	x29, sp, #16
	.cfi_def_cfa w29, 16
	.cfi_offset w30, -8
	.cfi_offset w29, -16
	str	x0, [sp, #8]
	ldr	x0, [sp, #8]
Ltmp254:
	.loc	6 156 46 prologue_end           ; /Applications/Xcode.app/Contents/Developer/Platforms/MacOSX.platform/Developer/SDKs/MacOSX13.1.sdk/usr/include/c++/v1/__memory/compressed_pair.h:156:46
	bl	__ZNKSt3__122__compressed_pair_elemINS_12basic_stringIcNS_11char_traitsIcEENS_9allocatorIcEEE5__repELi0ELb0EE5__getEv
	.loc	6 156 5 is_stmt 0               ; /Applications/Xcode.app/Contents/Developer/Platforms/MacOSX.platform/Developer/SDKs/MacOSX13.1.sdk/usr/include/c++/v1/__memory/compressed_pair.h:156:5
	ldp	x29, x30, [sp, #16]             ; 16-byte Folded Reload
	add	sp, sp, #32
	ret
Ltmp255:
Lfunc_end61:
	.cfi_endproc
                                        ; -- End function
	.p2align	2                               ; -- Begin function _ZNKSt3__122__compressed_pair_elemINS_12basic_stringIcNS_11char_traitsIcEENS_9allocatorIcEEE5__repELi0ELb0EE5__getEv
__ZNKSt3__122__compressed_pair_elemINS_12basic_stringIcNS_11char_traitsIcEENS_9allocatorIcEEE5__repELi0ELb0EE5__getEv: ; @_ZNKSt3__122__compressed_pair_elemINS_12basic_stringIcNS_11char_traitsIcEENS_9allocatorIcEEE5__repELi0ELb0EE5__getEv
Lfunc_begin62:
	.loc	6 67 0 is_stmt 1                ; /Applications/Xcode.app/Contents/Developer/Platforms/MacOSX.platform/Developer/SDKs/MacOSX13.1.sdk/usr/include/c++/v1/__memory/compressed_pair.h:67:0
	.cfi_startproc
; %bb.0:
	sub	sp, sp, #16
	.cfi_def_cfa_offset 16
	str	x0, [sp, #8]
	ldr	x0, [sp, #8]
Ltmp257:
	.loc	6 67 44 prologue_end            ; /Applications/Xcode.app/Contents/Developer/Platforms/MacOSX.platform/Developer/SDKs/MacOSX13.1.sdk/usr/include/c++/v1/__memory/compressed_pair.h:67:44
	add	sp, sp, #16
	ret
Ltmp258:
Lfunc_end62:
	.cfi_endproc
                                        ; -- End function
	.p2align	2                               ; -- Begin function _ZNSt3__114pointer_traitsIPKcE10pointer_toERS1_
__ZNSt3__114pointer_traitsIPKcE10pointer_toERS1_: ; @_ZNSt3__114pointer_traitsIPKcE10pointer_toERS1_
Lfunc_begin63:
	.loc	26 154 0                        ; /Applications/Xcode.app/Contents/Developer/Platforms/MacOSX.platform/Developer/SDKs/MacOSX13.1.sdk/usr/include/c++/v1/__memory/pointer_traits.h:154:0
	.cfi_startproc
; %bb.0:
	sub	sp, sp, #32
	stp	x29, x30, [sp, #16]             ; 16-byte Folded Spill
	add	x29, sp, #16
	.cfi_def_cfa w29, 16
	.cfi_offset w30, -8
	.cfi_offset w29, -16
	str	x0, [sp, #8]
Ltmp259:
	.loc	26 154 37 prologue_end          ; /Applications/Xcode.app/Contents/Developer/Platforms/MacOSX.platform/Developer/SDKs/MacOSX13.1.sdk/usr/include/c++/v1/__memory/pointer_traits.h:154:37
	ldr	x0, [sp, #8]
	.loc	26 154 17 is_stmt 0             ; /Applications/Xcode.app/Contents/Developer/Platforms/MacOSX.platform/Developer/SDKs/MacOSX13.1.sdk/usr/include/c++/v1/__memory/pointer_traits.h:154:17
	bl	__ZNSt3__1L9addressofIKcEEPT_RS2_
	.loc	26 154 10                       ; /Applications/Xcode.app/Contents/Developer/Platforms/MacOSX.platform/Developer/SDKs/MacOSX13.1.sdk/usr/include/c++/v1/__memory/pointer_traits.h:154:10
	ldp	x29, x30, [sp, #16]             ; 16-byte Folded Reload
	add	sp, sp, #32
	ret
Ltmp260:
Lfunc_end63:
	.cfi_endproc
                                        ; -- End function
	.p2align	2                               ; -- Begin function _ZNSt3__1L9addressofIKcEEPT_RS2_
__ZNSt3__1L9addressofIKcEEPT_RS2_:      ; @_ZNSt3__1L9addressofIKcEEPT_RS2_
Lfunc_begin64:
	.file	101 "/Applications/Xcode.app/Contents/Developer/Platforms/MacOSX.platform/Developer/SDKs/MacOSX13.1.sdk/usr/include/c++/v1/__memory" "addressof.h"
	.loc	101 31 0 is_stmt 1              ; /Applications/Xcode.app/Contents/Developer/Platforms/MacOSX.platform/Developer/SDKs/MacOSX13.1.sdk/usr/include/c++/v1/__memory/addressof.h:31:0
	.cfi_startproc
; %bb.0:
	sub	sp, sp, #16
	.cfi_def_cfa_offset 16
	str	x0, [sp, #8]
Ltmp262:
	.loc	101 32 32 prologue_end          ; /Applications/Xcode.app/Contents/Developer/Platforms/MacOSX.platform/Developer/SDKs/MacOSX13.1.sdk/usr/include/c++/v1/__memory/addressof.h:32:32
	ldr	x0, [sp, #8]
	.loc	101 32 5 is_stmt 0              ; /Applications/Xcode.app/Contents/Developer/Platforms/MacOSX.platform/Developer/SDKs/MacOSX13.1.sdk/usr/include/c++/v1/__memory/addressof.h:32:5
	add	sp, sp, #16
	ret
Ltmp263:
Lfunc_end64:
	.cfi_endproc
                                        ; -- End function
	.p2align	2                               ; -- Begin function _ZNKSt3__112basic_stringIcNS_11char_traitsIcEENS_9allocatorIcEEE4sizeEv
__ZNKSt3__112basic_stringIcNS_11char_traitsIcEENS_9allocatorIcEEE4sizeEv: ; @_ZNKSt3__112basic_stringIcNS_11char_traitsIcEENS_9allocatorIcEEE4sizeEv
Lfunc_begin65:
	.loc	4 978 0 is_stmt 1               ; /Applications/Xcode.app/Contents/Developer/Platforms/MacOSX.platform/Developer/SDKs/MacOSX13.1.sdk/usr/include/c++/v1/string:978:0
	.cfi_startproc
; %bb.0:
	sub	sp, sp, #48
	stp	x29, x30, [sp, #32]             ; 16-byte Folded Spill
	add	x29, sp, #32
	.cfi_def_cfa w29, 16
	.cfi_offset w30, -8
	.cfi_offset w29, -16
	stur	x0, [x29, #-8]
	ldur	x0, [x29, #-8]
	str	x0, [sp, #16]                   ; 8-byte Folded Spill
Ltmp264:
	.loc	4 978 17 prologue_end           ; /Applications/Xcode.app/Contents/Developer/Platforms/MacOSX.platform/Developer/SDKs/MacOSX13.1.sdk/usr/include/c++/v1/string:978:17
	bl	__ZNKSt3__112basic_stringIcNS_11char_traitsIcEENS_9allocatorIcEEE9__is_longEv
	tbz	w0, #0, LBB65_2
	b	LBB65_1
LBB65_1:
	.loc	4 0 17 is_stmt 0                ; /Applications/Xcode.app/Contents/Developer/Platforms/MacOSX.platform/Developer/SDKs/MacOSX13.1.sdk/usr/include/c++/v1/string:0:17
	ldr	x0, [sp, #16]                   ; 8-byte Folded Reload
	.loc	4 978 31                        ; /Applications/Xcode.app/Contents/Developer/Platforms/MacOSX.platform/Developer/SDKs/MacOSX13.1.sdk/usr/include/c++/v1/string:978:31
	bl	__ZNKSt3__112basic_stringIcNS_11char_traitsIcEENS_9allocatorIcEEE15__get_long_sizeEv
	str	x0, [sp, #8]                    ; 8-byte Folded Spill
	.loc	4 978 17                        ; /Applications/Xcode.app/Contents/Developer/Platforms/MacOSX.platform/Developer/SDKs/MacOSX13.1.sdk/usr/include/c++/v1/string:978:17
	b	LBB65_3
LBB65_2:
	.loc	4 0 17                          ; /Applications/Xcode.app/Contents/Developer/Platforms/MacOSX.platform/Developer/SDKs/MacOSX13.1.sdk/usr/include/c++/v1/string:0:17
	ldr	x0, [sp, #16]                   ; 8-byte Folded Reload
	.loc	4 978 51                        ; /Applications/Xcode.app/Contents/Developer/Platforms/MacOSX.platform/Developer/SDKs/MacOSX13.1.sdk/usr/include/c++/v1/string:978:51
	bl	__ZNKSt3__112basic_stringIcNS_11char_traitsIcEENS_9allocatorIcEEE16__get_short_sizeEv
	str	x0, [sp, #8]                    ; 8-byte Folded Spill
	.loc	4 978 17                        ; /Applications/Xcode.app/Contents/Developer/Platforms/MacOSX.platform/Developer/SDKs/MacOSX13.1.sdk/usr/include/c++/v1/string:978:17
	b	LBB65_3
LBB65_3:
	.loc	4 0 17                          ; /Applications/Xcode.app/Contents/Developer/Platforms/MacOSX.platform/Developer/SDKs/MacOSX13.1.sdk/usr/include/c++/v1/string:0:17
	ldr	x0, [sp, #8]                    ; 8-byte Folded Reload
	.loc	4 978 10                        ; /Applications/Xcode.app/Contents/Developer/Platforms/MacOSX.platform/Developer/SDKs/MacOSX13.1.sdk/usr/include/c++/v1/string:978:10
	ldp	x29, x30, [sp, #32]             ; 16-byte Folded Reload
	add	sp, sp, #48
	ret
Ltmp265:
Lfunc_end65:
	.cfi_endproc
                                        ; -- End function
	.p2align	2                               ; -- Begin function _ZNKSt3__112basic_stringIcNS_11char_traitsIcEENS_9allocatorIcEEE15__get_long_sizeEv
__ZNKSt3__112basic_stringIcNS_11char_traitsIcEENS_9allocatorIcEEE15__get_long_sizeEv: ; @_ZNKSt3__112basic_stringIcNS_11char_traitsIcEENS_9allocatorIcEEE15__get_long_sizeEv
Lfunc_begin66:
	.loc	4 1549 0 is_stmt 1              ; /Applications/Xcode.app/Contents/Developer/Platforms/MacOSX.platform/Developer/SDKs/MacOSX13.1.sdk/usr/include/c++/v1/string:1549:0
	.cfi_startproc
; %bb.0:
	sub	sp, sp, #32
	stp	x29, x30, [sp, #16]             ; 16-byte Folded Spill
	add	x29, sp, #16
	.cfi_def_cfa w29, 16
	.cfi_offset w30, -8
	.cfi_offset w29, -16
	str	x0, [sp, #8]
	ldr	x0, [sp, #8]
Ltmp266:
	.loc	4 1549 22 prologue_end          ; /Applications/Xcode.app/Contents/Developer/Platforms/MacOSX.platform/Developer/SDKs/MacOSX13.1.sdk/usr/include/c++/v1/string:1549:22
	bl	__ZNKSt3__117__compressed_pairINS_12basic_stringIcNS_11char_traitsIcEENS_9allocatorIcEEE5__repES5_E5firstEv
	.loc	4 1549 34 is_stmt 0             ; /Applications/Xcode.app/Contents/Developer/Platforms/MacOSX.platform/Developer/SDKs/MacOSX13.1.sdk/usr/include/c++/v1/string:1549:34
	ldr	x0, [x0, #8]
	.loc	4 1549 10                       ; /Applications/Xcode.app/Contents/Developer/Platforms/MacOSX.platform/Developer/SDKs/MacOSX13.1.sdk/usr/include/c++/v1/string:1549:10
	ldp	x29, x30, [sp, #16]             ; 16-byte Folded Reload
	add	sp, sp, #32
	ret
Ltmp267:
Lfunc_end66:
	.cfi_endproc
                                        ; -- End function
	.p2align	2                               ; -- Begin function _ZNKSt3__112basic_stringIcNS_11char_traitsIcEENS_9allocatorIcEEE16__get_short_sizeEv
__ZNKSt3__112basic_stringIcNS_11char_traitsIcEENS_9allocatorIcEEE16__get_short_sizeEv: ; @_ZNKSt3__112basic_stringIcNS_11char_traitsIcEENS_9allocatorIcEEE16__get_short_sizeEv
Lfunc_begin67:
	.loc	4 1521 0 is_stmt 1              ; /Applications/Xcode.app/Contents/Developer/Platforms/MacOSX.platform/Developer/SDKs/MacOSX13.1.sdk/usr/include/c++/v1/string:1521:0
	.cfi_startproc
; %bb.0:
	sub	sp, sp, #32
	stp	x29, x30, [sp, #16]             ; 16-byte Folded Spill
	add	x29, sp, #16
	.cfi_def_cfa w29, 16
	.cfi_offset w30, -8
	.cfi_offset w29, -16
	str	x0, [sp, #8]
	ldr	x0, [sp, #8]
Ltmp268:
	.loc	4 1521 22 prologue_end          ; /Applications/Xcode.app/Contents/Developer/Platforms/MacOSX.platform/Developer/SDKs/MacOSX13.1.sdk/usr/include/c++/v1/string:1521:22
	bl	__ZNKSt3__117__compressed_pairINS_12basic_stringIcNS_11char_traitsIcEENS_9allocatorIcEEE5__repES5_E5firstEv
	.loc	4 1521 34 is_stmt 0             ; /Applications/Xcode.app/Contents/Developer/Platforms/MacOSX.platform/Developer/SDKs/MacOSX13.1.sdk/usr/include/c++/v1/string:1521:34
	ldrb	w8, [x0, #23]
	mov	x0, x8
	.loc	4 1521 10                       ; /Applications/Xcode.app/Contents/Developer/Platforms/MacOSX.platform/Developer/SDKs/MacOSX13.1.sdk/usr/include/c++/v1/string:1521:10
	ldp	x29, x30, [sp, #16]             ; 16-byte Folded Reload
	add	sp, sp, #32
	ret
Ltmp269:
Lfunc_end67:
	.cfi_endproc
                                        ; -- End function
	.p2align	2                               ; -- Begin function _ZNSt3__19basic_iosIcNS_11char_traitsIcEEEC2Ev
__ZNSt3__19basic_iosIcNS_11char_traitsIcEEEC2Ev: ; @_ZNSt3__19basic_iosIcNS_11char_traitsIcEEEC2Ev
Lfunc_begin68:
	.loc	33 665 0 is_stmt 1              ; /Applications/Xcode.app/Contents/Developer/Platforms/MacOSX.platform/Developer/SDKs/MacOSX13.1.sdk/usr/include/c++/v1/ios:665:0
	.cfi_startproc
; %bb.0:
	sub	sp, sp, #48
	stp	x29, x30, [sp, #32]             ; 16-byte Folded Spill
	add	x29, sp, #32
	.cfi_def_cfa w29, 16
	.cfi_offset w30, -8
	.cfi_offset w29, -16
Ltmp270:
	.loc	33 0 0 is_stmt 0                ; /Applications/Xcode.app/Contents/Developer/Platforms/MacOSX.platform/Developer/SDKs/MacOSX13.1.sdk/usr/include/c++/v1/ios:0:0
	adrp	x8, __ZTVNSt3__19basic_iosIcNS_11char_traitsIcEEEE@GOTPAGE
	ldr	x8, [x8, __ZTVNSt3__19basic_iosIcNS_11char_traitsIcEEEE@GOTPAGEOFF]
	add	x8, x8, #16
	str	x8, [sp, #16]                   ; 8-byte Folded Spill
	stur	x0, [x29, #-8]
	ldur	x0, [x29, #-8]
	str	x0, [sp, #8]                    ; 8-byte Folded Spill
	.loc	33 665 5 prologue_end is_stmt 1 ; /Applications/Xcode.app/Contents/Developer/Platforms/MacOSX.platform/Developer/SDKs/MacOSX13.1.sdk/usr/include/c++/v1/ios:665:5
	bl	__ZNSt3__18ios_baseC2Ev
	ldr	x0, [sp, #8]                    ; 8-byte Folded Reload
	ldr	x8, [sp, #16]                   ; 8-byte Folded Reload
	.loc	33 665 17 is_stmt 0             ; /Applications/Xcode.app/Contents/Developer/Platforms/MacOSX.platform/Developer/SDKs/MacOSX13.1.sdk/usr/include/c++/v1/ios:665:17
	str	x8, [x0]
	.loc	33 666 17 is_stmt 1             ; /Applications/Xcode.app/Contents/Developer/Platforms/MacOSX.platform/Developer/SDKs/MacOSX13.1.sdk/usr/include/c++/v1/ios:666:17
	ldp	x29, x30, [sp, #32]             ; 16-byte Folded Reload
	add	sp, sp, #48
	ret
Ltmp271:
Lfunc_end68:
	.cfi_endproc
                                        ; -- End function
	.p2align	2                               ; -- Begin function _ZNSt3__113basic_ostreamIcNS_11char_traitsIcEEEC2EPNS_15basic_streambufIcS2_EE
__ZNSt3__113basic_ostreamIcNS_11char_traitsIcEEEC2EPNS_15basic_streambufIcS2_EE: ; @_ZNSt3__113basic_ostreamIcNS_11char_traitsIcEEEC2EPNS_15basic_streambufIcS2_EE
Lfunc_begin69:
	.loc	39 165 0                        ; /Applications/Xcode.app/Contents/Developer/Platforms/MacOSX.platform/Developer/SDKs/MacOSX13.1.sdk/usr/include/c++/v1/ostream:165:0
	.cfi_startproc
; %bb.0:
	sub	sp, sp, #48
	stp	x29, x30, [sp, #32]             ; 16-byte Folded Spill
	add	x29, sp, #32
	.cfi_def_cfa w29, 16
	.cfi_offset w30, -8
	.cfi_offset w29, -16
	stur	x0, [x29, #-8]
	str	x1, [sp, #16]
	str	x2, [sp, #8]
	ldur	x8, [x29, #-8]
	str	x8, [sp]                        ; 8-byte Folded Spill
	ldr	x9, [sp, #16]
Ltmp272:
	.loc	39 165 5 prologue_end           ; /Applications/Xcode.app/Contents/Developer/Platforms/MacOSX.platform/Developer/SDKs/MacOSX13.1.sdk/usr/include/c++/v1/ostream:165:5
	ldr	x10, [x9]
	str	x10, [x8]
	ldr	x9, [x9, #8]
	ldr	x10, [x8]
	ldur	x10, [x10, #-24]
	str	x9, [x8, x10]
Ltmp273:
	.loc	39 165 13 is_stmt 0             ; /Applications/Xcode.app/Contents/Developer/Platforms/MacOSX.platform/Developer/SDKs/MacOSX13.1.sdk/usr/include/c++/v1/ostream:165:13
	ldr	x9, [x8]
	ldur	x9, [x9, #-24]
	.loc	39 165 18                       ; /Applications/Xcode.app/Contents/Developer/Platforms/MacOSX.platform/Developer/SDKs/MacOSX13.1.sdk/usr/include/c++/v1/ostream:165:18
	ldr	x1, [sp, #8]
	.loc	39 165 13                       ; /Applications/Xcode.app/Contents/Developer/Platforms/MacOSX.platform/Developer/SDKs/MacOSX13.1.sdk/usr/include/c++/v1/ostream:165:13
	add	x0, x8, x9
	bl	__ZNSt3__19basic_iosIcNS_11char_traitsIcEEE4initEPNS_15basic_streambufIcS2_EE
	ldr	x0, [sp]                        ; 8-byte Folded Reload
Ltmp274:
	.loc	39 165 25                       ; /Applications/Xcode.app/Contents/Developer/Platforms/MacOSX.platform/Developer/SDKs/MacOSX13.1.sdk/usr/include/c++/v1/ostream:165:25
	ldp	x29, x30, [sp, #32]             ; 16-byte Folded Reload
	add	sp, sp, #48
	ret
Ltmp275:
Lfunc_end69:
	.cfi_endproc
                                        ; -- End function
	.p2align	2                               ; -- Begin function _ZNSt3__115basic_stringbufIcNS_11char_traitsIcEENS_9allocatorIcEEEC1Ej
__ZNSt3__115basic_stringbufIcNS_11char_traitsIcEENS_9allocatorIcEEEC1Ej: ; @_ZNSt3__115basic_stringbufIcNS_11char_traitsIcEENS_9allocatorIcEEEC1Ej
Lfunc_begin70:
	.loc	41 228 0 is_stmt 1              ; /Applications/Xcode.app/Contents/Developer/Platforms/MacOSX.platform/Developer/SDKs/MacOSX13.1.sdk/usr/include/c++/v1/sstream:228:0
	.cfi_startproc
; %bb.0:
	sub	sp, sp, #48
	stp	x29, x30, [sp, #32]             ; 16-byte Folded Spill
	add	x29, sp, #32
	.cfi_def_cfa w29, 16
	.cfi_offset w30, -8
	.cfi_offset w29, -16
	stur	x0, [x29, #-8]
	stur	w1, [x29, #-12]
	ldur	x0, [x29, #-8]
	str	x0, [sp, #8]                    ; 8-byte Folded Spill
Ltmp276:
	.loc	41 228 42 prologue_end          ; /Applications/Xcode.app/Contents/Developer/Platforms/MacOSX.platform/Developer/SDKs/MacOSX13.1.sdk/usr/include/c++/v1/sstream:228:42
	ldur	w1, [x29, #-12]
	bl	__ZNSt3__115basic_stringbufIcNS_11char_traitsIcEENS_9allocatorIcEEEC2Ej
	ldr	x0, [sp, #8]                    ; 8-byte Folded Reload
	.loc	41 228 43 is_stmt 0             ; /Applications/Xcode.app/Contents/Developer/Platforms/MacOSX.platform/Developer/SDKs/MacOSX13.1.sdk/usr/include/c++/v1/sstream:228:43
	ldp	x29, x30, [sp, #32]             ; 16-byte Folded Reload
	add	sp, sp, #48
	ret
Ltmp277:
Lfunc_end70:
	.cfi_endproc
                                        ; -- End function
	.p2align	2                               ; -- Begin function _ZNSt3__18ios_baseC2Ev
__ZNSt3__18ios_baseC2Ev:                ; @_ZNSt3__18ios_baseC2Ev
Lfunc_begin71:
	.loc	33 344 0 is_stmt 1              ; /Applications/Xcode.app/Contents/Developer/Platforms/MacOSX.platform/Developer/SDKs/MacOSX13.1.sdk/usr/include/c++/v1/ios:344:0
	.cfi_startproc
; %bb.0:
	sub	sp, sp, #16
	.cfi_def_cfa_offset 16
Ltmp279:
	.loc	33 0 0 is_stmt 0                ; /Applications/Xcode.app/Contents/Developer/Platforms/MacOSX.platform/Developer/SDKs/MacOSX13.1.sdk/usr/include/c++/v1/ios:0:0
	adrp	x8, __ZTVNSt3__18ios_baseE@GOTPAGE
	ldr	x8, [x8, __ZTVNSt3__18ios_baseE@GOTPAGEOFF]
	add	x8, x8, #16
	str	x0, [sp, #8]
	ldr	x0, [sp, #8]
	.loc	33 344 16 prologue_end is_stmt 1 ; /Applications/Xcode.app/Contents/Developer/Platforms/MacOSX.platform/Developer/SDKs/MacOSX13.1.sdk/usr/include/c++/v1/ios:344:16
	str	x8, [x0]
	.loc	33 345 16                       ; /Applications/Xcode.app/Contents/Developer/Platforms/MacOSX.platform/Developer/SDKs/MacOSX13.1.sdk/usr/include/c++/v1/ios:345:16
	add	sp, sp, #16
	ret
Ltmp280:
Lfunc_end71:
	.cfi_endproc
                                        ; -- End function
	.p2align	2                               ; -- Begin function _ZNSt3__19basic_iosIcNS_11char_traitsIcEEE4initEPNS_15basic_streambufIcS2_EE
__ZNSt3__19basic_iosIcNS_11char_traitsIcEEE4initEPNS_15basic_streambufIcS2_EE: ; @_ZNSt3__19basic_iosIcNS_11char_traitsIcEEE4initEPNS_15basic_streambufIcS2_EE
Lfunc_begin72:
	.loc	33 699 0                        ; /Applications/Xcode.app/Contents/Developer/Platforms/MacOSX.platform/Developer/SDKs/MacOSX13.1.sdk/usr/include/c++/v1/ios:699:0
	.cfi_startproc
; %bb.0:
	sub	sp, sp, #48
	stp	x29, x30, [sp, #32]             ; 16-byte Folded Spill
	add	x29, sp, #32
	.cfi_def_cfa w29, 16
	.cfi_offset w30, -8
	.cfi_offset w29, -16
	stur	x0, [x29, #-8]
	str	x1, [sp, #16]
	ldur	x0, [x29, #-8]
	str	x0, [sp, #8]                    ; 8-byte Folded Spill
Ltmp281:
	.loc	33 700 20 prologue_end          ; /Applications/Xcode.app/Contents/Developer/Platforms/MacOSX.platform/Developer/SDKs/MacOSX13.1.sdk/usr/include/c++/v1/ios:700:20
	ldr	x1, [sp, #16]
	.loc	33 700 15 is_stmt 0             ; /Applications/Xcode.app/Contents/Developer/Platforms/MacOSX.platform/Developer/SDKs/MacOSX13.1.sdk/usr/include/c++/v1/ios:700:15
	bl	__ZNSt3__18ios_base4initEPv
	ldr	x8, [sp, #8]                    ; 8-byte Folded Reload
                                        ; kill: def $x9 killed $xzr
	.loc	33 701 12 is_stmt 1             ; /Applications/Xcode.app/Contents/Developer/Platforms/MacOSX.platform/Developer/SDKs/MacOSX13.1.sdk/usr/include/c++/v1/ios:701:12
	str	xzr, [x8, #136]
	.loc	33 702 15                       ; /Applications/Xcode.app/Contents/Developer/Platforms/MacOSX.platform/Developer/SDKs/MacOSX13.1.sdk/usr/include/c++/v1/ios:702:15
	bl	__ZNSt3__111char_traitsIcE3eofEv
	ldr	x8, [sp, #8]                    ; 8-byte Folded Reload
	.loc	33 702 13 is_stmt 0             ; /Applications/Xcode.app/Contents/Developer/Platforms/MacOSX.platform/Developer/SDKs/MacOSX13.1.sdk/usr/include/c++/v1/ios:702:13
	str	w0, [x8, #144]
	.loc	33 703 1 is_stmt 1              ; /Applications/Xcode.app/Contents/Developer/Platforms/MacOSX.platform/Developer/SDKs/MacOSX13.1.sdk/usr/include/c++/v1/ios:703:1
	ldp	x29, x30, [sp, #32]             ; 16-byte Folded Reload
	add	sp, sp, #48
	ret
Ltmp282:
Lfunc_end72:
	.cfi_endproc
                                        ; -- End function
	.globl	__ZNSt3__111char_traitsIcE3eofEv ; -- Begin function _ZNSt3__111char_traitsIcE3eofEv
	.weak_definition	__ZNSt3__111char_traitsIcE3eofEv
	.p2align	2
__ZNSt3__111char_traitsIcE3eofEv:       ; @_ZNSt3__111char_traitsIcE3eofEv
Lfunc_begin73:
	.loc	1 377 0                         ; /Applications/Xcode.app/Contents/Developer/Platforms/MacOSX.platform/Developer/SDKs/MacOSX13.1.sdk/usr/include/c++/v1/__string:377:0
	.cfi_startproc
; %bb.0:
	mov	w0, #-1
Ltmp283:
	.loc	1 377 10 prologue_end           ; /Applications/Xcode.app/Contents/Developer/Platforms/MacOSX.platform/Developer/SDKs/MacOSX13.1.sdk/usr/include/c++/v1/__string:377:10
	ret
Ltmp284:
Lfunc_end73:
	.cfi_endproc
                                        ; -- End function
	.p2align	2                               ; -- Begin function _ZNSt3__115basic_stringbufIcNS_11char_traitsIcEENS_9allocatorIcEEEC2Ej
__ZNSt3__115basic_stringbufIcNS_11char_traitsIcEENS_9allocatorIcEEEC2Ej: ; @_ZNSt3__115basic_stringbufIcNS_11char_traitsIcEENS_9allocatorIcEEEC2Ej
Lfunc_begin74:
	.loc	41 228 0                        ; /Applications/Xcode.app/Contents/Developer/Platforms/MacOSX.platform/Developer/SDKs/MacOSX13.1.sdk/usr/include/c++/v1/sstream:228:0
	.cfi_startproc
; %bb.0:
	sub	sp, sp, #48
	stp	x29, x30, [sp, #32]             ; 16-byte Folded Spill
	add	x29, sp, #32
	.cfi_def_cfa w29, 16
	.cfi_offset w30, -8
	.cfi_offset w29, -16
Ltmp285:
	.loc	41 0 0 is_stmt 0                ; /Applications/Xcode.app/Contents/Developer/Platforms/MacOSX.platform/Developer/SDKs/MacOSX13.1.sdk/usr/include/c++/v1/sstream:0:0
	adrp	x8, __ZTVNSt3__115basic_stringbufIcNS_11char_traitsIcEENS_9allocatorIcEEEE@GOTPAGE
	ldr	x8, [x8, __ZTVNSt3__115basic_stringbufIcNS_11char_traitsIcEENS_9allocatorIcEEEE@GOTPAGEOFF]
	add	x8, x8, #16
	str	x8, [sp]                        ; 8-byte Folded Spill
	stur	x0, [x29, #-8]
	stur	w1, [x29, #-12]
	ldur	x0, [x29, #-8]
	str	x0, [sp, #8]                    ; 8-byte Folded Spill
	.loc	41 227 14 prologue_end is_stmt 1 ; /Applications/Xcode.app/Contents/Developer/Platforms/MacOSX.platform/Developer/SDKs/MacOSX13.1.sdk/usr/include/c++/v1/sstream:227:14
	bl	__ZNSt3__115basic_streambufIcNS_11char_traitsIcEEEC2Ev
	ldr	x9, [sp]                        ; 8-byte Folded Reload
	ldr	x8, [sp, #8]                    ; 8-byte Folded Reload
	.loc	41 228 42                       ; /Applications/Xcode.app/Contents/Developer/Platforms/MacOSX.platform/Developer/SDKs/MacOSX13.1.sdk/usr/include/c++/v1/sstream:228:42
	str	x9, [x8]
	.loc	41 227 14                       ; /Applications/Xcode.app/Contents/Developer/Platforms/MacOSX.platform/Developer/SDKs/MacOSX13.1.sdk/usr/include/c++/v1/sstream:227:14
	add	x0, x8, #64
	bl	__ZNSt3__112basic_stringIcNS_11char_traitsIcEENS_9allocatorIcEEEC1Ev
	ldr	x0, [sp, #8]                    ; 8-byte Folded Reload
                                        ; kill: def $x8 killed $xzr
	.loc	41 228 11                       ; /Applications/Xcode.app/Contents/Developer/Platforms/MacOSX.platform/Developer/SDKs/MacOSX13.1.sdk/usr/include/c++/v1/sstream:228:11
	str	xzr, [x0, #88]
	.loc	41 228 35 is_stmt 0             ; /Applications/Xcode.app/Contents/Developer/Platforms/MacOSX.platform/Developer/SDKs/MacOSX13.1.sdk/usr/include/c++/v1/sstream:228:35
	ldur	w8, [x29, #-12]
	.loc	41 228 27                       ; /Applications/Xcode.app/Contents/Developer/Platforms/MacOSX.platform/Developer/SDKs/MacOSX13.1.sdk/usr/include/c++/v1/sstream:228:27
	str	w8, [x0, #96]
	.loc	41 228 43                       ; /Applications/Xcode.app/Contents/Developer/Platforms/MacOSX.platform/Developer/SDKs/MacOSX13.1.sdk/usr/include/c++/v1/sstream:228:43
	ldp	x29, x30, [sp, #32]             ; 16-byte Folded Reload
	add	sp, sp, #48
	ret
Ltmp286:
Lfunc_end74:
	.cfi_endproc
                                        ; -- End function
	.p2align	2                               ; -- Begin function _ZNSt3__112basic_stringIcNS_11char_traitsIcEENS_9allocatorIcEEEC1Ev
__ZNSt3__112basic_stringIcNS_11char_traitsIcEENS_9allocatorIcEEEC1Ev: ; @_ZNSt3__112basic_stringIcNS_11char_traitsIcEENS_9allocatorIcEEEC1Ev
Lfunc_begin75:
	.loc	4 1860 0 is_stmt 1              ; /Applications/Xcode.app/Contents/Developer/Platforms/MacOSX.platform/Developer/SDKs/MacOSX13.1.sdk/usr/include/c++/v1/string:1860:0
	.cfi_startproc
; %bb.0:
	sub	sp, sp, #32
	stp	x29, x30, [sp, #16]             ; 16-byte Folded Spill
	add	x29, sp, #16
	.cfi_def_cfa w29, 16
	.cfi_offset w30, -8
	.cfi_offset w29, -16
	str	x0, [sp, #8]
	ldr	x0, [sp, #8]
	str	x0, [sp]                        ; 8-byte Folded Spill
Ltmp287:
	.loc	4 1860 1 prologue_end           ; /Applications/Xcode.app/Contents/Developer/Platforms/MacOSX.platform/Developer/SDKs/MacOSX13.1.sdk/usr/include/c++/v1/string:1860:1
	bl	__ZNSt3__112basic_stringIcNS_11char_traitsIcEENS_9allocatorIcEEEC2Ev
	ldr	x0, [sp]                        ; 8-byte Folded Reload
	.loc	4 1865 1                        ; /Applications/Xcode.app/Contents/Developer/Platforms/MacOSX.platform/Developer/SDKs/MacOSX13.1.sdk/usr/include/c++/v1/string:1865:1
	ldp	x29, x30, [sp, #16]             ; 16-byte Folded Reload
	add	sp, sp, #32
	ret
Ltmp288:
Lfunc_end75:
	.cfi_endproc
                                        ; -- End function
	.p2align	2                               ; -- Begin function _ZNSt3__112basic_stringIcNS_11char_traitsIcEENS_9allocatorIcEEEC2Ev
__ZNSt3__112basic_stringIcNS_11char_traitsIcEENS_9allocatorIcEEEC2Ev: ; @_ZNSt3__112basic_stringIcNS_11char_traitsIcEENS_9allocatorIcEEEC2Ev
Lfunc_begin76:
	.loc	4 1860 0                        ; /Applications/Xcode.app/Contents/Developer/Platforms/MacOSX.platform/Developer/SDKs/MacOSX13.1.sdk/usr/include/c++/v1/string:1860:0
	.cfi_startproc
	.cfi_personality 155, ___gxx_personality_v0
	.cfi_lsda 16, Lexception6
; %bb.0:
	sub	sp, sp, #48
	stp	x29, x30, [sp, #32]             ; 16-byte Folded Spill
	add	x29, sp, #32
	.cfi_def_cfa w29, 16
	.cfi_offset w30, -8
	.cfi_offset w29, -16
	stur	x0, [x29, #-8]
	ldur	x0, [x29, #-8]
	str	x0, [sp, #8]                    ; 8-byte Folded Spill
Ltmp289:
	sub	x1, x29, #9
	sub	x2, x29, #10
Ltmp292:
	.loc	4 1859 8 prologue_end           ; /Applications/Xcode.app/Contents/Developer/Platforms/MacOSX.platform/Developer/SDKs/MacOSX13.1.sdk/usr/include/c++/v1/string:1859:8
	bl	__ZNSt3__117__compressed_pairINS_12basic_stringIcNS_11char_traitsIcEENS_9allocatorIcEEE5__repES5_EC1INS_18__default_init_tagESA_EEOT_OT0_
Ltmp290:
	b	LBB76_1
LBB76_1:
	.loc	4 0 8 is_stmt 0                 ; /Applications/Xcode.app/Contents/Developer/Platforms/MacOSX.platform/Developer/SDKs/MacOSX13.1.sdk/usr/include/c++/v1/string:0:8
	ldr	x0, [sp, #8]                    ; 8-byte Folded Reload
Ltmp293:
	.loc	4 1864 5 is_stmt 1              ; /Applications/Xcode.app/Contents/Developer/Platforms/MacOSX.platform/Developer/SDKs/MacOSX13.1.sdk/usr/include/c++/v1/string:1864:5
	bl	__ZNSt3__112basic_stringIcNS_11char_traitsIcEENS_9allocatorIcEEE6__zeroEv
	ldr	x0, [sp, #8]                    ; 8-byte Folded Reload
Ltmp294:
	.loc	4 1865 1                        ; /Applications/Xcode.app/Contents/Developer/Platforms/MacOSX.platform/Developer/SDKs/MacOSX13.1.sdk/usr/include/c++/v1/string:1865:1
	ldp	x29, x30, [sp, #32]             ; 16-byte Folded Reload
	add	sp, sp, #48
	ret
LBB76_2:
Ltmp291:
	.loc	4 1859 8                        ; /Applications/Xcode.app/Contents/Developer/Platforms/MacOSX.platform/Developer/SDKs/MacOSX13.1.sdk/usr/include/c++/v1/string:1859:8
	bl	___clang_call_terminate
Ltmp295:
Lfunc_end76:
	.cfi_endproc
	.section	__TEXT,__gcc_except_tab
	.p2align	2
GCC_except_table76:
Lexception6:
	.byte	255                             ; @LPStart Encoding = omit
	.byte	155                             ; @TType Encoding = indirect pcrel sdata4
	.uleb128 Lttbase1-Lttbaseref1
Lttbaseref1:
	.byte	1                               ; Call site Encoding = uleb128
	.uleb128 Lcst_end6-Lcst_begin6
Lcst_begin6:
	.uleb128 Ltmp289-Lfunc_begin76          ; >> Call Site 1 <<
	.uleb128 Ltmp290-Ltmp289                ;   Call between Ltmp289 and Ltmp290
	.uleb128 Ltmp291-Lfunc_begin76          ;     jumps to Ltmp291
	.byte	1                               ;   On action: 1
Lcst_end6:
	.byte	1                               ; >> Action Record 1 <<
                                        ;   Catch TypeInfo 1
	.byte	0                               ;   No further actions
	.p2align	2
                                        ; >> Catch TypeInfos <<
	.long	0                               ; TypeInfo 1
Lttbase1:
	.p2align	2
                                        ; -- End function
	.section	__TEXT,__text,regular,pure_instructions
	.globl	__ZNSt3__14__fs10filesystem4pathC2IPKcvEERKT_NS2_6formatE ; -- Begin function _ZNSt3__14__fs10filesystem4pathC2IPKcvEERKT_NS2_6formatE
	.weak_def_can_be_hidden	__ZNSt3__14__fs10filesystem4pathC2IPKcvEERKT_NS2_6formatE
	.p2align	2
__ZNSt3__14__fs10filesystem4pathC2IPKcvEERKT_NS2_6formatE: ; @_ZNSt3__14__fs10filesystem4pathC2IPKcvEERKT_NS2_6formatE
Lfunc_begin77:
	.loc	43 948 0                        ; /Applications/Xcode.app/Contents/Developer/Platforms/MacOSX.platform/Developer/SDKs/MacOSX13.1.sdk/usr/include/c++/v1/filesystem:948:0
	.cfi_startproc
	.cfi_personality 155, ___gxx_personality_v0
	.cfi_lsda 16, Lexception7
; %bb.0:
	sub	sp, sp, #64
	stp	x29, x30, [sp, #48]             ; 16-byte Folded Spill
	add	x29, sp, #48
	.cfi_def_cfa w29, 16
	.cfi_offset w30, -8
	.cfi_offset w29, -16
	stur	x0, [x29, #-8]
	stur	x1, [x29, #-16]
	sturb	w2, [x29, #-17]
	ldur	x0, [x29, #-8]
	str	x0, [sp]                        ; 8-byte Folded Spill
Ltmp299:
	.loc	43 948 3 prologue_end           ; /Applications/Xcode.app/Contents/Developer/Platforms/MacOSX.platform/Developer/SDKs/MacOSX13.1.sdk/usr/include/c++/v1/filesystem:948:3
	bl	__ZNSt3__112basic_stringIcNS_11char_traitsIcEENS_9allocatorIcEEEC1Ev
	ldr	x0, [sp]                        ; 8-byte Folded Reload
Ltmp300:
	.loc	43 949 49                       ; /Applications/Xcode.app/Contents/Developer/Platforms/MacOSX.platform/Developer/SDKs/MacOSX13.1.sdk/usr/include/c++/v1/filesystem:949:49
	ldur	x1, [x29, #-16]
Ltmp296:
	.loc	43 949 5 is_stmt 0              ; /Applications/Xcode.app/Contents/Developer/Platforms/MacOSX.platform/Developer/SDKs/MacOSX13.1.sdk/usr/include/c++/v1/filesystem:949:5
	bl	__ZNSt3__14__fs10filesystem8_PathCVTIcE15__append_sourceIPKcEEvRNS_12basic_stringIcNS_11char_traitsIcEENS_9allocatorIcEEEERKT_
Ltmp297:
	b	LBB77_1
Ltmp301:
LBB77_1:
	.loc	43 0 5                          ; /Applications/Xcode.app/Contents/Developer/Platforms/MacOSX.platform/Developer/SDKs/MacOSX13.1.sdk/usr/include/c++/v1/filesystem:0:5
	ldr	x0, [sp]                        ; 8-byte Folded Reload
	.loc	43 950 3 is_stmt 1              ; /Applications/Xcode.app/Contents/Developer/Platforms/MacOSX.platform/Developer/SDKs/MacOSX13.1.sdk/usr/include/c++/v1/filesystem:950:3
	ldp	x29, x30, [sp, #48]             ; 16-byte Folded Reload
	add	sp, sp, #64
	ret
LBB77_2:
Ltmp298:
Ltmp302:
	.loc	43 950 3 is_stmt 0              ; /Applications/Xcode.app/Contents/Developer/Platforms/MacOSX.platform/Developer/SDKs/MacOSX13.1.sdk/usr/include/c++/v1/filesystem:950:3
	mov	x9, x0
	ldr	x0, [sp]                        ; 8-byte Folded Reload
	mov	x8, x1
	str	x9, [sp, #16]
	str	w8, [sp, #12]
	bl	__ZNSt3__112basic_stringIcNS_11char_traitsIcEENS_9allocatorIcEEED1Ev
	b	LBB77_3
LBB77_3:
	ldr	x0, [sp, #16]
	bl	__Unwind_Resume
Ltmp303:
Lfunc_end77:
	.cfi_endproc
	.section	__TEXT,__gcc_except_tab
	.p2align	2
GCC_except_table77:
Lexception7:
	.byte	255                             ; @LPStart Encoding = omit
	.byte	255                             ; @TType Encoding = omit
	.byte	1                               ; Call site Encoding = uleb128
	.uleb128 Lcst_end7-Lcst_begin7
Lcst_begin7:
	.uleb128 Ltmp296-Lfunc_begin77          ; >> Call Site 1 <<
	.uleb128 Ltmp297-Ltmp296                ;   Call between Ltmp296 and Ltmp297
	.uleb128 Ltmp298-Lfunc_begin77          ;     jumps to Ltmp298
	.byte	0                               ;   On action: cleanup
	.uleb128 Ltmp297-Lfunc_begin77          ; >> Call Site 2 <<
	.uleb128 Lfunc_end77-Ltmp297            ;   Call between Ltmp297 and Lfunc_end77
	.byte	0                               ;     has no landing pad
	.byte	0                               ;   On action: cleanup
Lcst_end7:
	.p2align	2
                                        ; -- End function
	.section	__TEXT,__text,regular,pure_instructions
	.globl	__ZNSt3__14__fs10filesystem8_PathCVTIcE15__append_sourceIPKcEEvRNS_12basic_stringIcNS_11char_traitsIcEENS_9allocatorIcEEEERKT_ ; -- Begin function _ZNSt3__14__fs10filesystem8_PathCVTIcE15__append_sourceIPKcEEvRNS_12basic_stringIcNS_11char_traitsIcEENS_9allocatorIcEEEERKT_
	.weak_definition	__ZNSt3__14__fs10filesystem8_PathCVTIcE15__append_sourceIPKcEEvRNS_12basic_stringIcNS_11char_traitsIcEENS_9allocatorIcEEEERKT_
	.p2align	2
__ZNSt3__14__fs10filesystem8_PathCVTIcE15__append_sourceIPKcEEvRNS_12basic_stringIcNS_11char_traitsIcEENS_9allocatorIcEEEERKT_: ; @_ZNSt3__14__fs10filesystem8_PathCVTIcE15__append_sourceIPKcEEvRNS_12basic_stringIcNS_11char_traitsIcEENS_9allocatorIcEEEERKT_
Lfunc_begin78:
	.loc	43 806 0 is_stmt 1              ; /Applications/Xcode.app/Contents/Developer/Platforms/MacOSX.platform/Developer/SDKs/MacOSX13.1.sdk/usr/include/c++/v1/filesystem:806:0
	.cfi_startproc
; %bb.0:
	sub	sp, sp, #48
	stp	x29, x30, [sp, #32]             ; 16-byte Folded Spill
	add	x29, sp, #32
	.cfi_def_cfa w29, 16
	.cfi_offset w30, -8
	.cfi_offset w29, -16
	stur	x0, [x29, #-8]
	str	x1, [sp, #16]
Ltmp304:
	.loc	43 808 20 prologue_end          ; /Applications/Xcode.app/Contents/Developer/Platforms/MacOSX.platform/Developer/SDKs/MacOSX13.1.sdk/usr/include/c++/v1/filesystem:808:20
	ldur	x8, [x29, #-8]
	str	x8, [sp, #8]                    ; 8-byte Folded Spill
	.loc	43 808 51 is_stmt 0             ; /Applications/Xcode.app/Contents/Developer/Platforms/MacOSX.platform/Developer/SDKs/MacOSX13.1.sdk/usr/include/c++/v1/filesystem:808:51
	ldr	x8, [sp, #16]
	ldr	x0, [x8]
	.loc	43 808 28                       ; /Applications/Xcode.app/Contents/Developer/Platforms/MacOSX.platform/Developer/SDKs/MacOSX13.1.sdk/usr/include/c++/v1/filesystem:808:28
	bl	__ZNSt3__14__fs10filesystem24__is_pathable_char_arrayIPKcS4_cLb1EE13__range_beginES4_
	str	x0, [sp]                        ; 8-byte Folded Spill
	.loc	43 809 41 is_stmt 1             ; /Applications/Xcode.app/Contents/Developer/Platforms/MacOSX.platform/Developer/SDKs/MacOSX13.1.sdk/usr/include/c++/v1/filesystem:809:41
	ldr	x8, [sp, #16]
	ldr	x0, [x8]
	.loc	43 809 20 is_stmt 0             ; /Applications/Xcode.app/Contents/Developer/Platforms/MacOSX.platform/Developer/SDKs/MacOSX13.1.sdk/usr/include/c++/v1/filesystem:809:20
	bl	__ZNSt3__14__fs10filesystem24__is_pathable_char_arrayIPKcS4_cLb1EE11__range_endES4_
	ldr	x1, [sp]                        ; 8-byte Folded Reload
	mov	x2, x0
	ldr	x0, [sp, #8]                    ; 8-byte Folded Reload
	.loc	43 808 5 is_stmt 1              ; /Applications/Xcode.app/Contents/Developer/Platforms/MacOSX.platform/Developer/SDKs/MacOSX13.1.sdk/usr/include/c++/v1/filesystem:808:5
	bl	__ZNSt3__14__fs10filesystem8_PathCVTIcE14__append_rangeIPKcEENS_9enable_ifIXsr27__is_cpp17_forward_iteratorIT_EE5valueEvE4typeERNS_12basic_stringIcNS_11char_traitsIcEENS_9allocatorIcEEEES8_S8_
	.loc	43 810 3                        ; /Applications/Xcode.app/Contents/Developer/Platforms/MacOSX.platform/Developer/SDKs/MacOSX13.1.sdk/usr/include/c++/v1/filesystem:810:3
	ldp	x29, x30, [sp, #32]             ; 16-byte Folded Reload
	add	sp, sp, #48
	ret
Ltmp305:
Lfunc_end78:
	.cfi_endproc
                                        ; -- End function
	.globl	__ZNSt3__14__fs10filesystem8_PathCVTIcE14__append_rangeIPKcEENS_9enable_ifIXsr27__is_cpp17_forward_iteratorIT_EE5valueEvE4typeERNS_12basic_stringIcNS_11char_traitsIcEENS_9allocatorIcEEEES8_S8_ ; -- Begin function _ZNSt3__14__fs10filesystem8_PathCVTIcE14__append_rangeIPKcEENS_9enable_ifIXsr27__is_cpp17_forward_iteratorIT_EE5valueEvE4typeERNS_12basic_stringIcNS_11char_traitsIcEENS_9allocatorIcEEEES8_S8_
	.weak_definition	__ZNSt3__14__fs10filesystem8_PathCVTIcE14__append_rangeIPKcEENS_9enable_ifIXsr27__is_cpp17_forward_iteratorIT_EE5valueEvE4typeERNS_12basic_stringIcNS_11char_traitsIcEENS_9allocatorIcEEEES8_S8_
	.p2align	2
__ZNSt3__14__fs10filesystem8_PathCVTIcE14__append_rangeIPKcEENS_9enable_ifIXsr27__is_cpp17_forward_iteratorIT_EE5valueEvE4typeERNS_12basic_stringIcNS_11char_traitsIcEENS_9allocatorIcEEEES8_S8_: ; @_ZNSt3__14__fs10filesystem8_PathCVTIcE14__append_rangeIPKcEENS_9enable_ifIXsr27__is_cpp17_forward_iteratorIT_EE5valueEvE4typeERNS_12basic_stringIcNS_11char_traitsIcEENS_9allocatorIcEEEES8_S8_
Lfunc_begin79:
	.loc	43 794 0                        ; /Applications/Xcode.app/Contents/Developer/Platforms/MacOSX.platform/Developer/SDKs/MacOSX13.1.sdk/usr/include/c++/v1/filesystem:794:0
	.cfi_startproc
; %bb.0:
	sub	sp, sp, #48
	stp	x29, x30, [sp, #32]             ; 16-byte Folded Spill
	add	x29, sp, #32
	.cfi_def_cfa w29, 16
	.cfi_offset w30, -8
	.cfi_offset w29, -16
	stur	x0, [x29, #-8]
	str	x1, [sp, #16]
	str	x2, [sp, #8]
Ltmp306:
	.loc	43 795 5 prologue_end           ; /Applications/Xcode.app/Contents/Developer/Platforms/MacOSX.platform/Developer/SDKs/MacOSX13.1.sdk/usr/include/c++/v1/filesystem:795:5
	ldur	x0, [x29, #-8]
	.loc	43 795 19 is_stmt 0             ; /Applications/Xcode.app/Contents/Developer/Platforms/MacOSX.platform/Developer/SDKs/MacOSX13.1.sdk/usr/include/c++/v1/filesystem:795:19
	ldr	x1, [sp, #16]
	.loc	43 795 24                       ; /Applications/Xcode.app/Contents/Developer/Platforms/MacOSX.platform/Developer/SDKs/MacOSX13.1.sdk/usr/include/c++/v1/filesystem:795:24
	ldr	x2, [sp, #8]
	.loc	43 795 12                       ; /Applications/Xcode.app/Contents/Developer/Platforms/MacOSX.platform/Developer/SDKs/MacOSX13.1.sdk/usr/include/c++/v1/filesystem:795:12
	bl	__ZNSt3__112basic_stringIcNS_11char_traitsIcEENS_9allocatorIcEEE6appendIPKcEENS_9_MetaBaseIXsr27__is_cpp17_forward_iteratorIT_EE5valueEE13_EnableIfImplIRS5_EESA_SA_
	.loc	43 796 3 is_stmt 1              ; /Applications/Xcode.app/Contents/Developer/Platforms/MacOSX.platform/Developer/SDKs/MacOSX13.1.sdk/usr/include/c++/v1/filesystem:796:3
	ldp	x29, x30, [sp, #32]             ; 16-byte Folded Reload
	add	sp, sp, #48
	ret
Ltmp307:
Lfunc_end79:
	.cfi_endproc
                                        ; -- End function
	.globl	__ZNSt3__14__fs10filesystem24__is_pathable_char_arrayIPKcS4_cLb1EE13__range_beginES4_ ; -- Begin function _ZNSt3__14__fs10filesystem24__is_pathable_char_arrayIPKcS4_cLb1EE13__range_beginES4_
	.weak_definition	__ZNSt3__14__fs10filesystem24__is_pathable_char_arrayIPKcS4_cLb1EE13__range_beginES4_
	.p2align	2
__ZNSt3__14__fs10filesystem24__is_pathable_char_arrayIPKcS4_cLb1EE13__range_beginES4_: ; @_ZNSt3__14__fs10filesystem24__is_pathable_char_arrayIPKcS4_cLb1EE13__range_beginES4_
Lfunc_begin80:
	.loc	43 647 0                        ; /Applications/Xcode.app/Contents/Developer/Platforms/MacOSX.platform/Developer/SDKs/MacOSX13.1.sdk/usr/include/c++/v1/filesystem:647:0
	.cfi_startproc
; %bb.0:
	sub	sp, sp, #16
	.cfi_def_cfa_offset 16
	str	x0, [sp, #8]
Ltmp309:
	.loc	43 647 68 prologue_end          ; /Applications/Xcode.app/Contents/Developer/Platforms/MacOSX.platform/Developer/SDKs/MacOSX13.1.sdk/usr/include/c++/v1/filesystem:647:68
	ldr	x0, [sp, #8]
	.loc	43 647 61 is_stmt 0             ; /Applications/Xcode.app/Contents/Developer/Platforms/MacOSX.platform/Developer/SDKs/MacOSX13.1.sdk/usr/include/c++/v1/filesystem:647:61
	add	sp, sp, #16
	ret
Ltmp310:
Lfunc_end80:
	.cfi_endproc
                                        ; -- End function
	.globl	__ZNSt3__14__fs10filesystem24__is_pathable_char_arrayIPKcS4_cLb1EE11__range_endES4_ ; -- Begin function _ZNSt3__14__fs10filesystem24__is_pathable_char_arrayIPKcS4_cLb1EE11__range_endES4_
	.weak_definition	__ZNSt3__14__fs10filesystem24__is_pathable_char_arrayIPKcS4_cLb1EE11__range_endES4_
	.p2align	2
__ZNSt3__14__fs10filesystem24__is_pathable_char_arrayIPKcS4_cLb1EE11__range_endES4_: ; @_ZNSt3__14__fs10filesystem24__is_pathable_char_arrayIPKcS4_cLb1EE11__range_endES4_
Lfunc_begin81:
	.loc	43 648 0 is_stmt 1              ; /Applications/Xcode.app/Contents/Developer/Platforms/MacOSX.platform/Developer/SDKs/MacOSX13.1.sdk/usr/include/c++/v1/filesystem:648:0
	.cfi_startproc
; %bb.0:
	sub	sp, sp, #32
	.cfi_def_cfa_offset 32
	str	x0, [sp, #24]
Ltmp312:
	.loc	43 650 19 prologue_end          ; /Applications/Xcode.app/Contents/Developer/Platforms/MacOSX.platform/Developer/SDKs/MacOSX13.1.sdk/usr/include/c++/v1/filesystem:650:19
	strb	wzr, [sp, #23]
	.loc	43 651 17                       ; /Applications/Xcode.app/Contents/Developer/Platforms/MacOSX.platform/Developer/SDKs/MacOSX13.1.sdk/usr/include/c++/v1/filesystem:651:17
	ldr	x8, [sp, #24]
	.loc	43 651 11 is_stmt 0             ; /Applications/Xcode.app/Contents/Developer/Platforms/MacOSX.platform/Developer/SDKs/MacOSX13.1.sdk/usr/include/c++/v1/filesystem:651:11
	str	x8, [sp, #8]
	.loc	43 652 5 is_stmt 1              ; /Applications/Xcode.app/Contents/Developer/Platforms/MacOSX.platform/Developer/SDKs/MacOSX13.1.sdk/usr/include/c++/v1/filesystem:652:5
	b	LBB81_1
LBB81_1:                                ; =>This Inner Loop Header: Depth=1
Ltmp313:
	.loc	43 652 13 is_stmt 0             ; /Applications/Xcode.app/Contents/Developer/Platforms/MacOSX.platform/Developer/SDKs/MacOSX13.1.sdk/usr/include/c++/v1/filesystem:652:13
	ldr	x8, [sp, #8]
	.loc	43 652 12                       ; /Applications/Xcode.app/Contents/Developer/Platforms/MacOSX.platform/Developer/SDKs/MacOSX13.1.sdk/usr/include/c++/v1/filesystem:652:12
	ldrsb	w8, [x8]
Ltmp314:
	.loc	43 652 5                        ; /Applications/Xcode.app/Contents/Developer/Platforms/MacOSX.platform/Developer/SDKs/MacOSX13.1.sdk/usr/include/c++/v1/filesystem:652:5
	cbz	w8, LBB81_4
	b	LBB81_2
LBB81_2:                                ;   in Loop: Header=BB81_1 Depth=1
	b	LBB81_3
LBB81_3:                                ;   in Loop: Header=BB81_1 Depth=1
Ltmp315:
	.loc	43 652 32                       ; /Applications/Xcode.app/Contents/Developer/Platforms/MacOSX.platform/Developer/SDKs/MacOSX13.1.sdk/usr/include/c++/v1/filesystem:652:32
	ldr	x8, [sp, #8]
	add	x8, x8, #1
	str	x8, [sp, #8]
	.loc	43 652 5                        ; /Applications/Xcode.app/Contents/Developer/Platforms/MacOSX.platform/Developer/SDKs/MacOSX13.1.sdk/usr/include/c++/v1/filesystem:652:5
	b	LBB81_1
Ltmp316:
LBB81_4:
	.loc	43 654 12 is_stmt 1             ; /Applications/Xcode.app/Contents/Developer/Platforms/MacOSX.platform/Developer/SDKs/MacOSX13.1.sdk/usr/include/c++/v1/filesystem:654:12
	ldr	x0, [sp, #8]
	.loc	43 654 5 is_stmt 0              ; /Applications/Xcode.app/Contents/Developer/Platforms/MacOSX.platform/Developer/SDKs/MacOSX13.1.sdk/usr/include/c++/v1/filesystem:654:5
	add	sp, sp, #32
	ret
Ltmp317:
Lfunc_end81:
	.cfi_endproc
                                        ; -- End function
	.p2align	2                               ; -- Begin function _ZNSt3__112basic_stringIcNS_11char_traitsIcEENS_9allocatorIcEEE6appendIPKcEENS_9_MetaBaseIXsr27__is_cpp17_forward_iteratorIT_EE5valueEE13_EnableIfImplIRS5_EESA_SA_
__ZNSt3__112basic_stringIcNS_11char_traitsIcEENS_9allocatorIcEEE6appendIPKcEENS_9_MetaBaseIXsr27__is_cpp17_forward_iteratorIT_EE5valueEE13_EnableIfImplIRS5_EESA_SA_: ; @_ZNSt3__112basic_stringIcNS_11char_traitsIcEENS_9allocatorIcEEE6appendIPKcEENS_9_MetaBaseIXsr27__is_cpp17_forward_iteratorIT_EE5valueEE13_EnableIfImplIRS5_EESA_SA_
Lfunc_begin82:
	.loc	4 2729 0 is_stmt 1              ; /Applications/Xcode.app/Contents/Developer/Platforms/MacOSX.platform/Developer/SDKs/MacOSX13.1.sdk/usr/include/c++/v1/string:2729:0
	.cfi_startproc
	.cfi_personality 155, ___gxx_personality_v0
	.cfi_lsda 16, Lexception8
; %bb.0:
	sub	sp, sp, #160
	stp	x29, x30, [sp, #144]            ; 16-byte Folded Spill
	add	x29, sp, #144
	.cfi_def_cfa w29, 16
	.cfi_offset w30, -8
	.cfi_offset w29, -16
	stur	x0, [x29, #-8]
	stur	x1, [x29, #-16]
	stur	x2, [x29, #-24]
	ldur	x0, [x29, #-8]
	str	x0, [sp, #32]                   ; 8-byte Folded Spill
Ltmp321:
	.loc	4 2730 22 prologue_end          ; /Applications/Xcode.app/Contents/Developer/Platforms/MacOSX.platform/Developer/SDKs/MacOSX13.1.sdk/usr/include/c++/v1/string:2730:22
	bl	__ZNKSt3__112basic_stringIcNS_11char_traitsIcEENS_9allocatorIcEEE4sizeEv
	mov	x8, x0
	ldr	x0, [sp, #32]                   ; 8-byte Folded Reload
	.loc	4 2730 15 is_stmt 0             ; /Applications/Xcode.app/Contents/Developer/Platforms/MacOSX.platform/Developer/SDKs/MacOSX13.1.sdk/usr/include/c++/v1/string:2730:15
	stur	x8, [x29, #-32]
	.loc	4 2731 23 is_stmt 1             ; /Applications/Xcode.app/Contents/Developer/Platforms/MacOSX.platform/Developer/SDKs/MacOSX13.1.sdk/usr/include/c++/v1/string:2731:23
	bl	__ZNKSt3__112basic_stringIcNS_11char_traitsIcEENS_9allocatorIcEEE8capacityEv
	.loc	4 2731 15 is_stmt 0             ; /Applications/Xcode.app/Contents/Developer/Platforms/MacOSX.platform/Developer/SDKs/MacOSX13.1.sdk/usr/include/c++/v1/string:2731:15
	stur	x0, [x29, #-40]
	.loc	4 2732 63 is_stmt 1             ; /Applications/Xcode.app/Contents/Developer/Platforms/MacOSX.platform/Developer/SDKs/MacOSX13.1.sdk/usr/include/c++/v1/string:2732:63
	ldur	x0, [x29, #-16]
	.loc	4 2732 72 is_stmt 0             ; /Applications/Xcode.app/Contents/Developer/Platforms/MacOSX.platform/Developer/SDKs/MacOSX13.1.sdk/usr/include/c++/v1/string:2732:72
	ldur	x1, [x29, #-24]
	.loc	4 2732 44                       ; /Applications/Xcode.app/Contents/Developer/Platforms/MacOSX.platform/Developer/SDKs/MacOSX13.1.sdk/usr/include/c++/v1/string:2732:44
	bl	__ZNSt3__1L8distanceIPKcEENS_15iterator_traitsIT_E15difference_typeES4_S4_
	.loc	4 2732 15                       ; /Applications/Xcode.app/Contents/Developer/Platforms/MacOSX.platform/Developer/SDKs/MacOSX13.1.sdk/usr/include/c++/v1/string:2732:15
	stur	x0, [x29, #-48]
Ltmp322:
	.loc	4 2733 9 is_stmt 1              ; /Applications/Xcode.app/Contents/Developer/Platforms/MacOSX.platform/Developer/SDKs/MacOSX13.1.sdk/usr/include/c++/v1/string:2733:9
	ldur	x8, [x29, #-48]
Ltmp323:
	.loc	4 2733 9 is_stmt 0              ; /Applications/Xcode.app/Contents/Developer/Platforms/MacOSX.platform/Developer/SDKs/MacOSX13.1.sdk/usr/include/c++/v1/string:2733:9
	cbz	x8, LBB82_13
	b	LBB82_1
LBB82_1:
	.loc	4 0 9                           ; /Applications/Xcode.app/Contents/Developer/Platforms/MacOSX.platform/Developer/SDKs/MacOSX13.1.sdk/usr/include/c++/v1/string:0:9
	ldr	x0, [sp, #32]                   ; 8-byte Folded Reload
Ltmp324:
	.loc	4 2736 31 is_stmt 1             ; /Applications/Xcode.app/Contents/Developer/Platforms/MacOSX.platform/Developer/SDKs/MacOSX13.1.sdk/usr/include/c++/v1/string:2736:31
	ldur	x1, [x29, #-16]
	.loc	4 2736 14 is_stmt 0             ; /Applications/Xcode.app/Contents/Developer/Platforms/MacOSX.platform/Developer/SDKs/MacOSX13.1.sdk/usr/include/c++/v1/string:2736:14
	bl	__ZNKSt3__112basic_stringIcNS_11char_traitsIcEENS_9allocatorIcEEE15__addr_in_rangeIRKcEEbOT_
Ltmp325:
	.loc	4 2735 13 is_stmt 1             ; /Applications/Xcode.app/Contents/Developer/Platforms/MacOSX.platform/Developer/SDKs/MacOSX13.1.sdk/usr/include/c++/v1/string:2735:13
	tbnz	w0, #0, LBB82_9
	b	LBB82_2
LBB82_2:
Ltmp326:
	.loc	4 2738 17                       ; /Applications/Xcode.app/Contents/Developer/Platforms/MacOSX.platform/Developer/SDKs/MacOSX13.1.sdk/usr/include/c++/v1/string:2738:17
	ldur	x8, [x29, #-40]
	.loc	4 2738 25 is_stmt 0             ; /Applications/Xcode.app/Contents/Developer/Platforms/MacOSX.platform/Developer/SDKs/MacOSX13.1.sdk/usr/include/c++/v1/string:2738:25
	ldur	x9, [x29, #-32]
	.loc	4 2738 23                       ; /Applications/Xcode.app/Contents/Developer/Platforms/MacOSX.platform/Developer/SDKs/MacOSX13.1.sdk/usr/include/c++/v1/string:2738:23
	subs	x8, x8, x9
	.loc	4 2738 32                       ; /Applications/Xcode.app/Contents/Developer/Platforms/MacOSX.platform/Developer/SDKs/MacOSX13.1.sdk/usr/include/c++/v1/string:2738:32
	ldur	x9, [x29, #-48]
Ltmp327:
	.loc	4 2738 17                       ; /Applications/Xcode.app/Contents/Developer/Platforms/MacOSX.platform/Developer/SDKs/MacOSX13.1.sdk/usr/include/c++/v1/string:2738:17
	subs	x8, x8, x9
	b.hs	LBB82_4
	b	LBB82_3
LBB82_3:
	.loc	4 0 17                          ; /Applications/Xcode.app/Contents/Developer/Platforms/MacOSX.platform/Developer/SDKs/MacOSX13.1.sdk/usr/include/c++/v1/string:0:17
	ldr	x0, [sp, #32]                   ; 8-byte Folded Reload
Ltmp328:
	.loc	4 2739 27 is_stmt 1             ; /Applications/Xcode.app/Contents/Developer/Platforms/MacOSX.platform/Developer/SDKs/MacOSX13.1.sdk/usr/include/c++/v1/string:2739:27
	ldur	x1, [x29, #-40]
	.loc	4 2739 34 is_stmt 0             ; /Applications/Xcode.app/Contents/Developer/Platforms/MacOSX.platform/Developer/SDKs/MacOSX13.1.sdk/usr/include/c++/v1/string:2739:34
	ldur	x8, [x29, #-32]
	.loc	4 2739 41                       ; /Applications/Xcode.app/Contents/Developer/Platforms/MacOSX.platform/Developer/SDKs/MacOSX13.1.sdk/usr/include/c++/v1/string:2739:41
	ldur	x9, [x29, #-48]
	.loc	4 2739 39                       ; /Applications/Xcode.app/Contents/Developer/Platforms/MacOSX.platform/Developer/SDKs/MacOSX13.1.sdk/usr/include/c++/v1/string:2739:39
	add	x8, x8, x9
	.loc	4 2739 47                       ; /Applications/Xcode.app/Contents/Developer/Platforms/MacOSX.platform/Developer/SDKs/MacOSX13.1.sdk/usr/include/c++/v1/string:2739:47
	ldur	x9, [x29, #-40]
	.loc	4 2739 45                       ; /Applications/Xcode.app/Contents/Developer/Platforms/MacOSX.platform/Developer/SDKs/MacOSX13.1.sdk/usr/include/c++/v1/string:2739:45
	subs	x2, x8, x9
	.loc	4 2739 54                       ; /Applications/Xcode.app/Contents/Developer/Platforms/MacOSX.platform/Developer/SDKs/MacOSX13.1.sdk/usr/include/c++/v1/string:2739:54
	ldur	x3, [x29, #-32]
	.loc	4 2739 60                       ; /Applications/Xcode.app/Contents/Developer/Platforms/MacOSX.platform/Developer/SDKs/MacOSX13.1.sdk/usr/include/c++/v1/string:2739:60
	ldur	x4, [x29, #-32]
	mov	x6, #0
	.loc	4 2739 17                       ; /Applications/Xcode.app/Contents/Developer/Platforms/MacOSX.platform/Developer/SDKs/MacOSX13.1.sdk/usr/include/c++/v1/string:2739:17
	mov	x5, x6
	bl	__ZNSt3__112basic_stringIcNS_11char_traitsIcEENS_9allocatorIcEEE9__grow_byEmmmmmm
	b	LBB82_4
Ltmp329:
LBB82_4:
	.loc	4 0 17                          ; /Applications/Xcode.app/Contents/Developer/Platforms/MacOSX.platform/Developer/SDKs/MacOSX13.1.sdk/usr/include/c++/v1/string:0:17
	ldr	x0, [sp, #32]                   ; 8-byte Folded Reload
	.loc	4 2740 27 is_stmt 1             ; /Applications/Xcode.app/Contents/Developer/Platforms/MacOSX.platform/Developer/SDKs/MacOSX13.1.sdk/usr/include/c++/v1/string:2740:27
	bl	__ZNSt3__112basic_stringIcNS_11char_traitsIcEENS_9allocatorIcEEE13__get_pointerEv
	.loc	4 2740 45 is_stmt 0             ; /Applications/Xcode.app/Contents/Developer/Platforms/MacOSX.platform/Developer/SDKs/MacOSX13.1.sdk/usr/include/c++/v1/string:2740:45
	ldur	x8, [x29, #-32]
	.loc	4 2740 43                       ; /Applications/Xcode.app/Contents/Developer/Platforms/MacOSX.platform/Developer/SDKs/MacOSX13.1.sdk/usr/include/c++/v1/string:2740:43
	add	x8, x0, x8
	.loc	4 2740 21                       ; /Applications/Xcode.app/Contents/Developer/Platforms/MacOSX.platform/Developer/SDKs/MacOSX13.1.sdk/usr/include/c++/v1/string:2740:21
	stur	x8, [x29, #-56]
	.loc	4 2741 13 is_stmt 1             ; /Applications/Xcode.app/Contents/Developer/Platforms/MacOSX.platform/Developer/SDKs/MacOSX13.1.sdk/usr/include/c++/v1/string:2741:13
	b	LBB82_5
LBB82_5:                                ; =>This Inner Loop Header: Depth=1
Ltmp330:
	.loc	4 2741 20 is_stmt 0             ; /Applications/Xcode.app/Contents/Developer/Platforms/MacOSX.platform/Developer/SDKs/MacOSX13.1.sdk/usr/include/c++/v1/string:2741:20
	ldur	x8, [x29, #-16]
	.loc	4 2741 31                       ; /Applications/Xcode.app/Contents/Developer/Platforms/MacOSX.platform/Developer/SDKs/MacOSX13.1.sdk/usr/include/c++/v1/string:2741:31
	ldur	x9, [x29, #-24]
Ltmp331:
	.loc	4 2741 13                       ; /Applications/Xcode.app/Contents/Developer/Platforms/MacOSX.platform/Developer/SDKs/MacOSX13.1.sdk/usr/include/c++/v1/string:2741:13
	subs	x8, x8, x9
	b.eq	LBB82_8
	b	LBB82_6
LBB82_6:                                ;   in Loop: Header=BB82_5 Depth=1
Ltmp332:
	.loc	4 2742 38 is_stmt 1             ; /Applications/Xcode.app/Contents/Developer/Platforms/MacOSX.platform/Developer/SDKs/MacOSX13.1.sdk/usr/include/c++/v1/string:2742:38
	ldur	x0, [x29, #-56]
	.loc	4 2742 44 is_stmt 0             ; /Applications/Xcode.app/Contents/Developer/Platforms/MacOSX.platform/Developer/SDKs/MacOSX13.1.sdk/usr/include/c++/v1/string:2742:44
	ldur	x1, [x29, #-16]
	.loc	4 2742 17                       ; /Applications/Xcode.app/Contents/Developer/Platforms/MacOSX.platform/Developer/SDKs/MacOSX13.1.sdk/usr/include/c++/v1/string:2742:17
	bl	__ZNSt3__111char_traitsIcE6assignERcRKc
	b	LBB82_7
LBB82_7:                                ;   in Loop: Header=BB82_5 Depth=1
	.loc	4 2741 39 is_stmt 1             ; /Applications/Xcode.app/Contents/Developer/Platforms/MacOSX.platform/Developer/SDKs/MacOSX13.1.sdk/usr/include/c++/v1/string:2741:39
	ldur	x8, [x29, #-56]
	add	x8, x8, #1
	stur	x8, [x29, #-56]
	.loc	4 2741 46 is_stmt 0             ; /Applications/Xcode.app/Contents/Developer/Platforms/MacOSX.platform/Developer/SDKs/MacOSX13.1.sdk/usr/include/c++/v1/string:2741:46
	ldur	x8, [x29, #-16]
	add	x8, x8, #1
	stur	x8, [x29, #-16]
	.loc	4 2741 13                       ; /Applications/Xcode.app/Contents/Developer/Platforms/MacOSX.platform/Developer/SDKs/MacOSX13.1.sdk/usr/include/c++/v1/string:2741:13
	b	LBB82_5
Ltmp333:
LBB82_8:
	.loc	4 2743 34 is_stmt 1             ; /Applications/Xcode.app/Contents/Developer/Platforms/MacOSX.platform/Developer/SDKs/MacOSX13.1.sdk/usr/include/c++/v1/string:2743:34
	ldur	x0, [x29, #-56]
	sub	x1, x29, #57
	.loc	4 2743 39 is_stmt 0             ; /Applications/Xcode.app/Contents/Developer/Platforms/MacOSX.platform/Developer/SDKs/MacOSX13.1.sdk/usr/include/c++/v1/string:2743:39
	sturb	wzr, [x29, #-57]
	.loc	4 2743 13                       ; /Applications/Xcode.app/Contents/Developer/Platforms/MacOSX.platform/Developer/SDKs/MacOSX13.1.sdk/usr/include/c++/v1/string:2743:13
	bl	__ZNSt3__111char_traitsIcE6assignERcRKc
	ldr	x0, [sp, #32]                   ; 8-byte Folded Reload
	.loc	4 2744 24 is_stmt 1             ; /Applications/Xcode.app/Contents/Developer/Platforms/MacOSX.platform/Developer/SDKs/MacOSX13.1.sdk/usr/include/c++/v1/string:2744:24
	ldur	x8, [x29, #-32]
	.loc	4 2744 31 is_stmt 0             ; /Applications/Xcode.app/Contents/Developer/Platforms/MacOSX.platform/Developer/SDKs/MacOSX13.1.sdk/usr/include/c++/v1/string:2744:31
	ldur	x9, [x29, #-48]
	.loc	4 2744 29                       ; /Applications/Xcode.app/Contents/Developer/Platforms/MacOSX.platform/Developer/SDKs/MacOSX13.1.sdk/usr/include/c++/v1/string:2744:29
	add	x1, x8, x9
	.loc	4 2744 13                       ; /Applications/Xcode.app/Contents/Developer/Platforms/MacOSX.platform/Developer/SDKs/MacOSX13.1.sdk/usr/include/c++/v1/string:2744:13
	bl	__ZNSt3__112basic_stringIcNS_11char_traitsIcEENS_9allocatorIcEEE10__set_sizeEm
	.loc	4 2745 9 is_stmt 1              ; /Applications/Xcode.app/Contents/Developer/Platforms/MacOSX.platform/Developer/SDKs/MacOSX13.1.sdk/usr/include/c++/v1/string:2745:9
	b	LBB82_12
Ltmp334:
LBB82_9:
	.loc	4 0 9 is_stmt 0                 ; /Applications/Xcode.app/Contents/Developer/Platforms/MacOSX.platform/Developer/SDKs/MacOSX13.1.sdk/usr/include/c++/v1/string:0:9
	ldr	x0, [sp, #32]                   ; 8-byte Folded Reload
Ltmp335:
	.loc	4 2748 39 is_stmt 1             ; /Applications/Xcode.app/Contents/Developer/Platforms/MacOSX.platform/Developer/SDKs/MacOSX13.1.sdk/usr/include/c++/v1/string:2748:39
	ldur	x8, [x29, #-16]
	str	x8, [sp]                        ; 8-byte Folded Spill
	.loc	4 2748 48 is_stmt 0             ; /Applications/Xcode.app/Contents/Developer/Platforms/MacOSX.platform/Developer/SDKs/MacOSX13.1.sdk/usr/include/c++/v1/string:2748:48
	ldur	x8, [x29, #-24]
	str	x8, [sp, #8]                    ; 8-byte Folded Spill
	.loc	4 2748 56                       ; /Applications/Xcode.app/Contents/Developer/Platforms/MacOSX.platform/Developer/SDKs/MacOSX13.1.sdk/usr/include/c++/v1/string:2748:56
	bl	__ZNSt3__112basic_stringIcNS_11char_traitsIcEENS_9allocatorIcEEE7__allocEv
	ldr	x1, [sp]                        ; 8-byte Folded Reload
	ldr	x2, [sp, #8]                    ; 8-byte Folded Reload
	mov	x3, x0
	add	x0, sp, #56
	str	x0, [sp, #16]                   ; 8-byte Folded Spill
	.loc	4 2748 32                       ; /Applications/Xcode.app/Contents/Developer/Platforms/MacOSX.platform/Developer/SDKs/MacOSX13.1.sdk/usr/include/c++/v1/string:2748:32
	bl	__ZNSt3__112basic_stringIcNS_11char_traitsIcEENS_9allocatorIcEEEC1IPKcvEET_S9_RKS4_
	ldr	x0, [sp, #16]                   ; 8-byte Folded Reload
	.loc	4 2749 27 is_stmt 1             ; /Applications/Xcode.app/Contents/Developer/Platforms/MacOSX.platform/Developer/SDKs/MacOSX13.1.sdk/usr/include/c++/v1/string:2749:27
	bl	__ZNKSt3__112basic_stringIcNS_11char_traitsIcEENS_9allocatorIcEEE4dataEv
	mov	x1, x0
	ldr	x0, [sp, #16]                   ; 8-byte Folded Reload
	str	x1, [sp, #24]                   ; 8-byte Folded Spill
	.loc	4 2749 42 is_stmt 0             ; /Applications/Xcode.app/Contents/Developer/Platforms/MacOSX.platform/Developer/SDKs/MacOSX13.1.sdk/usr/include/c++/v1/string:2749:42
	bl	__ZNKSt3__112basic_stringIcNS_11char_traitsIcEENS_9allocatorIcEEE4sizeEv
	ldr	x1, [sp, #24]                   ; 8-byte Folded Reload
	mov	x2, x0
	ldr	x0, [sp, #32]                   ; 8-byte Folded Reload
Ltmp318:
	.loc	4 2749 13                       ; /Applications/Xcode.app/Contents/Developer/Platforms/MacOSX.platform/Developer/SDKs/MacOSX13.1.sdk/usr/include/c++/v1/string:2749:13
	bl	__ZNSt3__112basic_stringIcNS_11char_traitsIcEENS_9allocatorIcEEE6appendEPKcm
Ltmp319:
	b	LBB82_10
Ltmp336:
LBB82_10:
	.loc	4 0 13                          ; /Applications/Xcode.app/Contents/Developer/Platforms/MacOSX.platform/Developer/SDKs/MacOSX13.1.sdk/usr/include/c++/v1/string:0:13
	add	x0, sp, #56
	.loc	4 2750 9 is_stmt 1              ; /Applications/Xcode.app/Contents/Developer/Platforms/MacOSX.platform/Developer/SDKs/MacOSX13.1.sdk/usr/include/c++/v1/string:2750:9
	bl	__ZNSt3__112basic_stringIcNS_11char_traitsIcEENS_9allocatorIcEEED1Ev
	b	LBB82_12
LBB82_11:
Ltmp320:
Ltmp337:
	.loc	4 2753 1                        ; /Applications/Xcode.app/Contents/Developer/Platforms/MacOSX.platform/Developer/SDKs/MacOSX13.1.sdk/usr/include/c++/v1/string:2753:1
	mov	x8, x1
	str	x0, [sp, #48]
	str	w8, [sp, #44]
	add	x0, sp, #56
Ltmp338:
	.loc	4 2750 9                        ; /Applications/Xcode.app/Contents/Developer/Platforms/MacOSX.platform/Developer/SDKs/MacOSX13.1.sdk/usr/include/c++/v1/string:2750:9
	bl	__ZNSt3__112basic_stringIcNS_11char_traitsIcEENS_9allocatorIcEEED1Ev
	b	LBB82_14
Ltmp339:
LBB82_12:
	.loc	4 2751 5                        ; /Applications/Xcode.app/Contents/Developer/Platforms/MacOSX.platform/Developer/SDKs/MacOSX13.1.sdk/usr/include/c++/v1/string:2751:5
	b	LBB82_13
Ltmp340:
LBB82_13:
	.loc	4 0 5 is_stmt 0                 ; /Applications/Xcode.app/Contents/Developer/Platforms/MacOSX.platform/Developer/SDKs/MacOSX13.1.sdk/usr/include/c++/v1/string:0:5
	ldr	x0, [sp, #32]                   ; 8-byte Folded Reload
	.loc	4 2752 5 is_stmt 1              ; /Applications/Xcode.app/Contents/Developer/Platforms/MacOSX.platform/Developer/SDKs/MacOSX13.1.sdk/usr/include/c++/v1/string:2752:5
	ldp	x29, x30, [sp, #144]            ; 16-byte Folded Reload
	add	sp, sp, #160
	ret
LBB82_14:
Ltmp341:
	.loc	4 2750 9                        ; /Applications/Xcode.app/Contents/Developer/Platforms/MacOSX.platform/Developer/SDKs/MacOSX13.1.sdk/usr/include/c++/v1/string:2750:9
	ldr	x0, [sp, #48]
	bl	__Unwind_Resume
Ltmp342:
Lfunc_end82:
	.cfi_endproc
	.section	__TEXT,__gcc_except_tab
	.p2align	2
GCC_except_table82:
Lexception8:
	.byte	255                             ; @LPStart Encoding = omit
	.byte	255                             ; @TType Encoding = omit
	.byte	1                               ; Call site Encoding = uleb128
	.uleb128 Lcst_end8-Lcst_begin8
Lcst_begin8:
	.uleb128 Lfunc_begin82-Lfunc_begin82    ; >> Call Site 1 <<
	.uleb128 Ltmp318-Lfunc_begin82          ;   Call between Lfunc_begin82 and Ltmp318
	.byte	0                               ;     has no landing pad
	.byte	0                               ;   On action: cleanup
	.uleb128 Ltmp318-Lfunc_begin82          ; >> Call Site 2 <<
	.uleb128 Ltmp319-Ltmp318                ;   Call between Ltmp318 and Ltmp319
	.uleb128 Ltmp320-Lfunc_begin82          ;     jumps to Ltmp320
	.byte	0                               ;   On action: cleanup
	.uleb128 Ltmp319-Lfunc_begin82          ; >> Call Site 3 <<
	.uleb128 Lfunc_end82-Ltmp319            ;   Call between Ltmp319 and Lfunc_end82
	.byte	0                               ;     has no landing pad
	.byte	0                               ;   On action: cleanup
Lcst_end8:
	.p2align	2
                                        ; -- End function
	.section	__TEXT,__text,regular,pure_instructions
	.p2align	2                               ; -- Begin function _ZNKSt3__112basic_stringIcNS_11char_traitsIcEENS_9allocatorIcEEE8capacityEv
__ZNKSt3__112basic_stringIcNS_11char_traitsIcEENS_9allocatorIcEEE8capacityEv: ; @_ZNKSt3__112basic_stringIcNS_11char_traitsIcEENS_9allocatorIcEEE8capacityEv
Lfunc_begin83:
	.loc	4 982 0                         ; /Applications/Xcode.app/Contents/Developer/Platforms/MacOSX.platform/Developer/SDKs/MacOSX13.1.sdk/usr/include/c++/v1/string:982:0
	.cfi_startproc
; %bb.0:
	sub	sp, sp, #48
	stp	x29, x30, [sp, #32]             ; 16-byte Folded Spill
	add	x29, sp, #32
	.cfi_def_cfa w29, 16
	.cfi_offset w30, -8
	.cfi_offset w29, -16
	stur	x0, [x29, #-8]
	ldur	x0, [x29, #-8]
	str	x0, [sp, #16]                   ; 8-byte Folded Spill
Ltmp343:
	.loc	4 982 18 prologue_end           ; /Applications/Xcode.app/Contents/Developer/Platforms/MacOSX.platform/Developer/SDKs/MacOSX13.1.sdk/usr/include/c++/v1/string:982:18
	bl	__ZNKSt3__112basic_stringIcNS_11char_traitsIcEENS_9allocatorIcEEE9__is_longEv
	tbz	w0, #0, LBB83_2
	b	LBB83_1
LBB83_1:
	.loc	4 0 18 is_stmt 0                ; /Applications/Xcode.app/Contents/Developer/Platforms/MacOSX.platform/Developer/SDKs/MacOSX13.1.sdk/usr/include/c++/v1/string:0:18
	ldr	x0, [sp, #16]                   ; 8-byte Folded Reload
	.loc	4 982 32                        ; /Applications/Xcode.app/Contents/Developer/Platforms/MacOSX.platform/Developer/SDKs/MacOSX13.1.sdk/usr/include/c++/v1/string:982:32
	bl	__ZNKSt3__112basic_stringIcNS_11char_traitsIcEENS_9allocatorIcEEE14__get_long_capEv
	str	x0, [sp, #8]                    ; 8-byte Folded Spill
	.loc	4 982 18                        ; /Applications/Xcode.app/Contents/Developer/Platforms/MacOSX.platform/Developer/SDKs/MacOSX13.1.sdk/usr/include/c++/v1/string:982:18
	b	LBB83_3
LBB83_2:
	.loc	4 0 18                          ; /Applications/Xcode.app/Contents/Developer/Platforms/MacOSX.platform/Developer/SDKs/MacOSX13.1.sdk/usr/include/c++/v1/string:0:18
	mov	x8, #23
	str	x8, [sp, #8]                    ; 8-byte Folded Spill
	.loc	4 982 18                        ; /Applications/Xcode.app/Contents/Developer/Platforms/MacOSX.platform/Developer/SDKs/MacOSX13.1.sdk/usr/include/c++/v1/string:982:18
	b	LBB83_3
LBB83_3:
	.loc	4 0 18                          ; /Applications/Xcode.app/Contents/Developer/Platforms/MacOSX.platform/Developer/SDKs/MacOSX13.1.sdk/usr/include/c++/v1/string:0:18
	ldr	x8, [sp, #8]                    ; 8-byte Folded Reload
	.loc	4 983 67 is_stmt 1              ; /Applications/Xcode.app/Contents/Developer/Platforms/MacOSX.platform/Developer/SDKs/MacOSX13.1.sdk/usr/include/c++/v1/string:983:67
	subs	x0, x8, #1
	.loc	4 982 10                        ; /Applications/Xcode.app/Contents/Developer/Platforms/MacOSX.platform/Developer/SDKs/MacOSX13.1.sdk/usr/include/c++/v1/string:982:10
	ldp	x29, x30, [sp, #32]             ; 16-byte Folded Reload
	add	sp, sp, #48
	ret
Ltmp344:
Lfunc_end83:
	.cfi_endproc
                                        ; -- End function
	.p2align	2                               ; -- Begin function _ZNSt3__1L8distanceIPKcEENS_15iterator_traitsIT_E15difference_typeES4_S4_
__ZNSt3__1L8distanceIPKcEENS_15iterator_traitsIT_E15difference_typeES4_S4_: ; @_ZNSt3__1L8distanceIPKcEENS_15iterator_traitsIT_E15difference_typeES4_S4_
Lfunc_begin84:
	.file	102 "/Applications/Xcode.app/Contents/Developer/Platforms/MacOSX.platform/Developer/SDKs/MacOSX13.1.sdk/usr/include/c++/v1/__iterator" "distance.h"
	.loc	102 48 0                        ; /Applications/Xcode.app/Contents/Developer/Platforms/MacOSX.platform/Developer/SDKs/MacOSX13.1.sdk/usr/include/c++/v1/__iterator/distance.h:48:0
	.cfi_startproc
; %bb.0:
	sub	sp, sp, #48
	stp	x29, x30, [sp, #32]             ; 16-byte Folded Spill
	add	x29, sp, #32
	.cfi_def_cfa w29, 16
	.cfi_offset w30, -8
	.cfi_offset w29, -16
	stur	x0, [x29, #-8]
	str	x1, [sp, #16]
Ltmp345:
	.loc	102 49 33 prologue_end          ; /Applications/Xcode.app/Contents/Developer/Platforms/MacOSX.platform/Developer/SDKs/MacOSX13.1.sdk/usr/include/c++/v1/__iterator/distance.h:49:33
	ldur	x0, [x29, #-8]
	.loc	102 49 42 is_stmt 0             ; /Applications/Xcode.app/Contents/Developer/Platforms/MacOSX.platform/Developer/SDKs/MacOSX13.1.sdk/usr/include/c++/v1/__iterator/distance.h:49:42
	ldr	x1, [sp, #16]
	.loc	102 49 12                       ; /Applications/Xcode.app/Contents/Developer/Platforms/MacOSX.platform/Developer/SDKs/MacOSX13.1.sdk/usr/include/c++/v1/__iterator/distance.h:49:12
	bl	__ZNSt3__1L10__distanceIPKcEENS_15iterator_traitsIT_E15difference_typeES4_S4_NS_26random_access_iterator_tagE
	.loc	102 49 5                        ; /Applications/Xcode.app/Contents/Developer/Platforms/MacOSX.platform/Developer/SDKs/MacOSX13.1.sdk/usr/include/c++/v1/__iterator/distance.h:49:5
	ldp	x29, x30, [sp, #32]             ; 16-byte Folded Reload
	add	sp, sp, #48
	ret
Ltmp346:
Lfunc_end84:
	.cfi_endproc
                                        ; -- End function
	.p2align	2                               ; -- Begin function _ZNKSt3__112basic_stringIcNS_11char_traitsIcEENS_9allocatorIcEEE15__addr_in_rangeIRKcEEbOT_
__ZNKSt3__112basic_stringIcNS_11char_traitsIcEENS_9allocatorIcEEE15__addr_in_rangeIRKcEEbOT_: ; @_ZNKSt3__112basic_stringIcNS_11char_traitsIcEENS_9allocatorIcEEE15__addr_in_rangeIRKcEEbOT_
Lfunc_begin85:
	.loc	4 1744 0 is_stmt 1              ; /Applications/Xcode.app/Contents/Developer/Platforms/MacOSX.platform/Developer/SDKs/MacOSX13.1.sdk/usr/include/c++/v1/string:1744:0
	.cfi_startproc
; %bb.0:
	sub	sp, sp, #80
	stp	x29, x30, [sp, #64]             ; 16-byte Folded Spill
	add	x29, sp, #64
	.cfi_def_cfa w29, 16
	.cfi_offset w30, -8
	.cfi_offset w29, -16
	stur	x0, [x29, #-8]
	stur	x1, [x29, #-16]
	ldur	x8, [x29, #-8]
	str	x8, [sp, #24]                   ; 8-byte Folded Spill
Ltmp347:
	.loc	4 1745 56 prologue_end          ; /Applications/Xcode.app/Contents/Developer/Platforms/MacOSX.platform/Developer/SDKs/MacOSX13.1.sdk/usr/include/c++/v1/string:1745:56
	ldur	x0, [x29, #-16]
	.loc	4 1745 36 is_stmt 0             ; /Applications/Xcode.app/Contents/Developer/Platforms/MacOSX.platform/Developer/SDKs/MacOSX13.1.sdk/usr/include/c++/v1/string:1745:36
	bl	__ZNSt3__1L9addressofIKcEEPT_RS2_
	mov	x8, x0
	ldr	x0, [sp, #24]                   ; 8-byte Folded Reload
	.loc	4 1745 30                       ; /Applications/Xcode.app/Contents/Developer/Platforms/MacOSX.platform/Developer/SDKs/MacOSX13.1.sdk/usr/include/c++/v1/string:1745:30
	stur	x8, [x29, #-24]
	.loc	4 1746 16 is_stmt 1             ; /Applications/Xcode.app/Contents/Developer/Platforms/MacOSX.platform/Developer/SDKs/MacOSX13.1.sdk/usr/include/c++/v1/string:1746:16
	bl	__ZNKSt3__112basic_stringIcNS_11char_traitsIcEENS_9allocatorIcEEE4dataEv
	.loc	4 1746 26 is_stmt 0             ; /Applications/Xcode.app/Contents/Developer/Platforms/MacOSX.platform/Developer/SDKs/MacOSX13.1.sdk/usr/include/c++/v1/string:1746:26
	ldur	x9, [x29, #-24]
	mov	w8, #0
	.loc	4 1746 30                       ; /Applications/Xcode.app/Contents/Developer/Platforms/MacOSX.platform/Developer/SDKs/MacOSX13.1.sdk/usr/include/c++/v1/string:1746:30
	subs	x9, x0, x9
	stur	w8, [x29, #-28]                 ; 4-byte Folded Spill
	b.hi	LBB85_2
	b	LBB85_1
LBB85_1:
	.loc	4 0 30                          ; /Applications/Xcode.app/Contents/Developer/Platforms/MacOSX.platform/Developer/SDKs/MacOSX13.1.sdk/usr/include/c++/v1/string:0:30
	ldr	x0, [sp, #24]                   ; 8-byte Folded Reload
	.loc	4 1746 33                       ; /Applications/Xcode.app/Contents/Developer/Platforms/MacOSX.platform/Developer/SDKs/MacOSX13.1.sdk/usr/include/c++/v1/string:1746:33
	ldur	x8, [x29, #-24]
	str	x8, [sp, #8]                    ; 8-byte Folded Spill
	.loc	4 1746 40                       ; /Applications/Xcode.app/Contents/Developer/Platforms/MacOSX.platform/Developer/SDKs/MacOSX13.1.sdk/usr/include/c++/v1/string:1746:40
	bl	__ZNKSt3__112basic_stringIcNS_11char_traitsIcEENS_9allocatorIcEEE4dataEv
	mov	x8, x0
	ldr	x0, [sp, #24]                   ; 8-byte Folded Reload
	str	x8, [sp, #16]                   ; 8-byte Folded Spill
	.loc	4 1746 49                       ; /Applications/Xcode.app/Contents/Developer/Platforms/MacOSX.platform/Developer/SDKs/MacOSX13.1.sdk/usr/include/c++/v1/string:1746:49
	bl	__ZNKSt3__112basic_stringIcNS_11char_traitsIcEENS_9allocatorIcEEE4sizeEv
	ldr	x8, [sp, #8]                    ; 8-byte Folded Reload
	mov	x9, x0
	ldr	x0, [sp, #16]                   ; 8-byte Folded Reload
	.loc	4 1746 47                       ; /Applications/Xcode.app/Contents/Developer/Platforms/MacOSX.platform/Developer/SDKs/MacOSX13.1.sdk/usr/include/c++/v1/string:1746:47
	add	x9, x0, x9
	.loc	4 1746 37                       ; /Applications/Xcode.app/Contents/Developer/Platforms/MacOSX.platform/Developer/SDKs/MacOSX13.1.sdk/usr/include/c++/v1/string:1746:37
	subs	x8, x8, x9
	cset	w8, ls
	stur	w8, [x29, #-28]                 ; 4-byte Folded Spill
	b	LBB85_2
LBB85_2:
	.loc	4 0 37                          ; /Applications/Xcode.app/Contents/Developer/Platforms/MacOSX.platform/Developer/SDKs/MacOSX13.1.sdk/usr/include/c++/v1/string:0:37
	ldur	w8, [x29, #-28]                 ; 4-byte Folded Reload
	.loc	4 1746 9                        ; /Applications/Xcode.app/Contents/Developer/Platforms/MacOSX.platform/Developer/SDKs/MacOSX13.1.sdk/usr/include/c++/v1/string:1746:9
	and	w0, w8, #0x1
	ldp	x29, x30, [sp, #64]             ; 16-byte Folded Reload
	add	sp, sp, #80
	ret
Ltmp348:
Lfunc_end85:
	.cfi_endproc
                                        ; -- End function
	.p2align	2                               ; -- Begin function _ZNSt3__112basic_stringIcNS_11char_traitsIcEENS_9allocatorIcEEE13__get_pointerEv
__ZNSt3__112basic_stringIcNS_11char_traitsIcEENS_9allocatorIcEEE13__get_pointerEv: ; @_ZNSt3__112basic_stringIcNS_11char_traitsIcEENS_9allocatorIcEEE13__get_pointerEv
Lfunc_begin86:
	.loc	4 1578 0 is_stmt 1              ; /Applications/Xcode.app/Contents/Developer/Platforms/MacOSX.platform/Developer/SDKs/MacOSX13.1.sdk/usr/include/c++/v1/string:1578:0
	.cfi_startproc
; %bb.0:
	sub	sp, sp, #48
	stp	x29, x30, [sp, #32]             ; 16-byte Folded Spill
	add	x29, sp, #32
	.cfi_def_cfa w29, 16
	.cfi_offset w30, -8
	.cfi_offset w29, -16
	stur	x0, [x29, #-8]
	ldur	x0, [x29, #-8]
	str	x0, [sp, #16]                   ; 8-byte Folded Spill
Ltmp349:
	.loc	4 1578 17 prologue_end          ; /Applications/Xcode.app/Contents/Developer/Platforms/MacOSX.platform/Developer/SDKs/MacOSX13.1.sdk/usr/include/c++/v1/string:1578:17
	bl	__ZNKSt3__112basic_stringIcNS_11char_traitsIcEENS_9allocatorIcEEE9__is_longEv
	tbz	w0, #0, LBB86_2
	b	LBB86_1
LBB86_1:
	.loc	4 0 17 is_stmt 0                ; /Applications/Xcode.app/Contents/Developer/Platforms/MacOSX.platform/Developer/SDKs/MacOSX13.1.sdk/usr/include/c++/v1/string:0:17
	ldr	x0, [sp, #16]                   ; 8-byte Folded Reload
	.loc	4 1578 31                       ; /Applications/Xcode.app/Contents/Developer/Platforms/MacOSX.platform/Developer/SDKs/MacOSX13.1.sdk/usr/include/c++/v1/string:1578:31
	bl	__ZNSt3__112basic_stringIcNS_11char_traitsIcEENS_9allocatorIcEEE18__get_long_pointerEv
	str	x0, [sp, #8]                    ; 8-byte Folded Spill
	.loc	4 1578 17                       ; /Applications/Xcode.app/Contents/Developer/Platforms/MacOSX.platform/Developer/SDKs/MacOSX13.1.sdk/usr/include/c++/v1/string:1578:17
	b	LBB86_3
LBB86_2:
	.loc	4 0 17                          ; /Applications/Xcode.app/Contents/Developer/Platforms/MacOSX.platform/Developer/SDKs/MacOSX13.1.sdk/usr/include/c++/v1/string:0:17
	ldr	x0, [sp, #16]                   ; 8-byte Folded Reload
	.loc	4 1578 54                       ; /Applications/Xcode.app/Contents/Developer/Platforms/MacOSX.platform/Developer/SDKs/MacOSX13.1.sdk/usr/include/c++/v1/string:1578:54
	bl	__ZNSt3__112basic_stringIcNS_11char_traitsIcEENS_9allocatorIcEEE19__get_short_pointerEv
	str	x0, [sp, #8]                    ; 8-byte Folded Spill
	.loc	4 1578 17                       ; /Applications/Xcode.app/Contents/Developer/Platforms/MacOSX.platform/Developer/SDKs/MacOSX13.1.sdk/usr/include/c++/v1/string:1578:17
	b	LBB86_3
LBB86_3:
	.loc	4 0 17                          ; /Applications/Xcode.app/Contents/Developer/Platforms/MacOSX.platform/Developer/SDKs/MacOSX13.1.sdk/usr/include/c++/v1/string:0:17
	ldr	x0, [sp, #8]                    ; 8-byte Folded Reload
	.loc	4 1578 10                       ; /Applications/Xcode.app/Contents/Developer/Platforms/MacOSX.platform/Developer/SDKs/MacOSX13.1.sdk/usr/include/c++/v1/string:1578:10
	ldp	x29, x30, [sp, #32]             ; 16-byte Folded Reload
	add	sp, sp, #48
	ret
Ltmp350:
Lfunc_end86:
	.cfi_endproc
                                        ; -- End function
	.globl	__ZNSt3__111char_traitsIcE6assignERcRKc ; -- Begin function _ZNSt3__111char_traitsIcE6assignERcRKc
	.weak_definition	__ZNSt3__111char_traitsIcE6assignERcRKc
	.p2align	2
__ZNSt3__111char_traitsIcE6assignERcRKc: ; @_ZNSt3__111char_traitsIcE6assignERcRKc
Lfunc_begin87:
	.loc	1 333 0 is_stmt 1               ; /Applications/Xcode.app/Contents/Developer/Platforms/MacOSX.platform/Developer/SDKs/MacOSX13.1.sdk/usr/include/c++/v1/__string:333:0
	.cfi_startproc
; %bb.0:
	sub	sp, sp, #16
	.cfi_def_cfa_offset 16
	str	x0, [sp, #8]
	str	x1, [sp]
Ltmp352:
	.loc	1 333 74 prologue_end           ; /Applications/Xcode.app/Contents/Developer/Platforms/MacOSX.platform/Developer/SDKs/MacOSX13.1.sdk/usr/include/c++/v1/__string:333:74
	ldr	x8, [sp]
	ldrb	w8, [x8]
	.loc	1 333 67 is_stmt 0              ; /Applications/Xcode.app/Contents/Developer/Platforms/MacOSX.platform/Developer/SDKs/MacOSX13.1.sdk/usr/include/c++/v1/__string:333:67
	ldr	x9, [sp, #8]
	.loc	1 333 72                        ; /Applications/Xcode.app/Contents/Developer/Platforms/MacOSX.platform/Developer/SDKs/MacOSX13.1.sdk/usr/include/c++/v1/__string:333:72
	strb	w8, [x9]
	.loc	1 333 79                        ; /Applications/Xcode.app/Contents/Developer/Platforms/MacOSX.platform/Developer/SDKs/MacOSX13.1.sdk/usr/include/c++/v1/__string:333:79
	add	sp, sp, #16
	ret
Ltmp353:
Lfunc_end87:
	.cfi_endproc
                                        ; -- End function
	.p2align	2                               ; -- Begin function _ZNSt3__112basic_stringIcNS_11char_traitsIcEENS_9allocatorIcEEE10__set_sizeEm
__ZNSt3__112basic_stringIcNS_11char_traitsIcEENS_9allocatorIcEEE10__set_sizeEm: ; @_ZNSt3__112basic_stringIcNS_11char_traitsIcEENS_9allocatorIcEEE10__set_sizeEm
Lfunc_begin88:
	.loc	4 1552 0 is_stmt 1              ; /Applications/Xcode.app/Contents/Developer/Platforms/MacOSX.platform/Developer/SDKs/MacOSX13.1.sdk/usr/include/c++/v1/string:1552:0
	.cfi_startproc
; %bb.0:
	sub	sp, sp, #48
	stp	x29, x30, [sp, #32]             ; 16-byte Folded Spill
	add	x29, sp, #32
	.cfi_def_cfa w29, 16
	.cfi_offset w30, -8
	.cfi_offset w29, -16
	stur	x0, [x29, #-8]
	str	x1, [sp, #16]
	ldur	x0, [x29, #-8]
	str	x0, [sp, #8]                    ; 8-byte Folded Spill
Ltmp354:
	.loc	4 1552 14 prologue_end          ; /Applications/Xcode.app/Contents/Developer/Platforms/MacOSX.platform/Developer/SDKs/MacOSX13.1.sdk/usr/include/c++/v1/string:1552:14
	bl	__ZNKSt3__112basic_stringIcNS_11char_traitsIcEENS_9allocatorIcEEE9__is_longEv
Ltmp355:
	.loc	4 1552 14 is_stmt 0             ; /Applications/Xcode.app/Contents/Developer/Platforms/MacOSX.platform/Developer/SDKs/MacOSX13.1.sdk/usr/include/c++/v1/string:1552:14
	tbz	w0, #0, LBB88_2
	b	LBB88_1
LBB88_1:
	.loc	4 0 14                          ; /Applications/Xcode.app/Contents/Developer/Platforms/MacOSX.platform/Developer/SDKs/MacOSX13.1.sdk/usr/include/c++/v1/string:0:14
	ldr	x0, [sp, #8]                    ; 8-byte Folded Reload
Ltmp356:
	.loc	4 1552 43                       ; /Applications/Xcode.app/Contents/Developer/Platforms/MacOSX.platform/Developer/SDKs/MacOSX13.1.sdk/usr/include/c++/v1/string:1552:43
	ldr	x1, [sp, #16]
	.loc	4 1552 27                       ; /Applications/Xcode.app/Contents/Developer/Platforms/MacOSX.platform/Developer/SDKs/MacOSX13.1.sdk/usr/include/c++/v1/string:1552:27
	bl	__ZNSt3__112basic_stringIcNS_11char_traitsIcEENS_9allocatorIcEEE15__set_long_sizeEm
	b	LBB88_3
LBB88_2:
	.loc	4 0 27                          ; /Applications/Xcode.app/Contents/Developer/Platforms/MacOSX.platform/Developer/SDKs/MacOSX13.1.sdk/usr/include/c++/v1/string:0:27
	ldr	x0, [sp, #8]                    ; 8-byte Folded Reload
	.loc	4 1552 71                       ; /Applications/Xcode.app/Contents/Developer/Platforms/MacOSX.platform/Developer/SDKs/MacOSX13.1.sdk/usr/include/c++/v1/string:1552:71
	ldr	x1, [sp, #16]
	.loc	4 1552 54                       ; /Applications/Xcode.app/Contents/Developer/Platforms/MacOSX.platform/Developer/SDKs/MacOSX13.1.sdk/usr/include/c++/v1/string:1552:54
	bl	__ZNSt3__112basic_stringIcNS_11char_traitsIcEENS_9allocatorIcEEE16__set_short_sizeEm
	b	LBB88_3
Ltmp357:
LBB88_3:
	.loc	4 1552 76                       ; /Applications/Xcode.app/Contents/Developer/Platforms/MacOSX.platform/Developer/SDKs/MacOSX13.1.sdk/usr/include/c++/v1/string:1552:76
	ldp	x29, x30, [sp, #32]             ; 16-byte Folded Reload
	add	sp, sp, #48
	ret
Ltmp358:
Lfunc_end88:
	.cfi_endproc
                                        ; -- End function
	.p2align	2                               ; -- Begin function _ZNSt3__112basic_stringIcNS_11char_traitsIcEENS_9allocatorIcEEE7__allocEv
__ZNSt3__112basic_stringIcNS_11char_traitsIcEENS_9allocatorIcEEE7__allocEv: ; @_ZNSt3__112basic_stringIcNS_11char_traitsIcEENS_9allocatorIcEEE7__allocEv
Lfunc_begin89:
	.loc	4 1503 0 is_stmt 1              ; /Applications/Xcode.app/Contents/Developer/Platforms/MacOSX.platform/Developer/SDKs/MacOSX13.1.sdk/usr/include/c++/v1/string:1503:0
	.cfi_startproc
; %bb.0:
	sub	sp, sp, #32
	stp	x29, x30, [sp, #16]             ; 16-byte Folded Spill
	add	x29, sp, #16
	.cfi_def_cfa w29, 16
	.cfi_offset w30, -8
	.cfi_offset w29, -16
	str	x0, [sp, #8]
	ldr	x0, [sp, #8]
Ltmp359:
	.loc	4 1503 132 prologue_end         ; /Applications/Xcode.app/Contents/Developer/Platforms/MacOSX.platform/Developer/SDKs/MacOSX13.1.sdk/usr/include/c++/v1/string:1503:132
	bl	__ZNSt3__117__compressed_pairINS_12basic_stringIcNS_11char_traitsIcEENS_9allocatorIcEEE5__repES5_E6secondEv
	.loc	4 1503 120 is_stmt 0            ; /Applications/Xcode.app/Contents/Developer/Platforms/MacOSX.platform/Developer/SDKs/MacOSX13.1.sdk/usr/include/c++/v1/string:1503:120
	ldp	x29, x30, [sp, #16]             ; 16-byte Folded Reload
	add	sp, sp, #32
	ret
Ltmp360:
Lfunc_end89:
	.cfi_endproc
                                        ; -- End function
	.p2align	2                               ; -- Begin function _ZNSt3__112basic_stringIcNS_11char_traitsIcEENS_9allocatorIcEEEC1IPKcvEET_S9_RKS4_
__ZNSt3__112basic_stringIcNS_11char_traitsIcEENS_9allocatorIcEEEC1IPKcvEET_S9_RKS4_: ; @_ZNSt3__112basic_stringIcNS_11char_traitsIcEENS_9allocatorIcEEEC1IPKcvEET_S9_RKS4_
Lfunc_begin90:
	.loc	4 2260 0 is_stmt 1              ; /Applications/Xcode.app/Contents/Developer/Platforms/MacOSX.platform/Developer/SDKs/MacOSX13.1.sdk/usr/include/c++/v1/string:2260:0
	.cfi_startproc
; %bb.0:
	sub	sp, sp, #64
	stp	x29, x30, [sp, #48]             ; 16-byte Folded Spill
	add	x29, sp, #48
	.cfi_def_cfa w29, 16
	.cfi_offset w30, -8
	.cfi_offset w29, -16
	stur	x0, [x29, #-8]
	stur	x1, [x29, #-16]
	str	x2, [sp, #24]
	str	x3, [sp, #16]
	ldur	x0, [x29, #-8]
	str	x0, [sp, #8]                    ; 8-byte Folded Spill
Ltmp361:
	.loc	4 2260 1 prologue_end           ; /Applications/Xcode.app/Contents/Developer/Platforms/MacOSX.platform/Developer/SDKs/MacOSX13.1.sdk/usr/include/c++/v1/string:2260:1
	ldur	x1, [x29, #-16]
	ldr	x2, [sp, #24]
	ldr	x3, [sp, #16]
	bl	__ZNSt3__112basic_stringIcNS_11char_traitsIcEENS_9allocatorIcEEEC2IPKcvEET_S9_RKS4_
	ldr	x0, [sp, #8]                    ; 8-byte Folded Reload
	.loc	4 2265 1                        ; /Applications/Xcode.app/Contents/Developer/Platforms/MacOSX.platform/Developer/SDKs/MacOSX13.1.sdk/usr/include/c++/v1/string:2265:1
	ldp	x29, x30, [sp, #48]             ; 16-byte Folded Reload
	add	sp, sp, #64
	ret
Ltmp362:
Lfunc_end90:
	.cfi_endproc
                                        ; -- End function
	.p2align	2                               ; -- Begin function _ZNKSt3__112basic_stringIcNS_11char_traitsIcEENS_9allocatorIcEEE14__get_long_capEv
__ZNKSt3__112basic_stringIcNS_11char_traitsIcEENS_9allocatorIcEEE14__get_long_capEv: ; @_ZNKSt3__112basic_stringIcNS_11char_traitsIcEENS_9allocatorIcEEE14__get_long_capEv
Lfunc_begin91:
	.loc	4 1559 0                        ; /Applications/Xcode.app/Contents/Developer/Platforms/MacOSX.platform/Developer/SDKs/MacOSX13.1.sdk/usr/include/c++/v1/string:1559:0
	.cfi_startproc
; %bb.0:
	sub	sp, sp, #32
	stp	x29, x30, [sp, #16]             ; 16-byte Folded Spill
	add	x29, sp, #16
	.cfi_def_cfa w29, 16
	.cfi_offset w30, -8
	.cfi_offset w29, -16
	str	x0, [sp, #8]
	ldr	x0, [sp, #8]
Ltmp363:
	.loc	4 1559 22 prologue_end          ; /Applications/Xcode.app/Contents/Developer/Platforms/MacOSX.platform/Developer/SDKs/MacOSX13.1.sdk/usr/include/c++/v1/string:1559:22
	bl	__ZNKSt3__117__compressed_pairINS_12basic_stringIcNS_11char_traitsIcEENS_9allocatorIcEEE5__repES5_E5firstEv
	.loc	4 1559 34 is_stmt 0             ; /Applications/Xcode.app/Contents/Developer/Platforms/MacOSX.platform/Developer/SDKs/MacOSX13.1.sdk/usr/include/c++/v1/string:1559:34
	ldr	x8, [x0, #16]
	.loc	4 1559 41                       ; /Applications/Xcode.app/Contents/Developer/Platforms/MacOSX.platform/Developer/SDKs/MacOSX13.1.sdk/usr/include/c++/v1/string:1559:41
	and	x0, x8, #0x7fffffffffffffff
	.loc	4 1559 10                       ; /Applications/Xcode.app/Contents/Developer/Platforms/MacOSX.platform/Developer/SDKs/MacOSX13.1.sdk/usr/include/c++/v1/string:1559:10
	ldp	x29, x30, [sp, #16]             ; 16-byte Folded Reload
	add	sp, sp, #32
	ret
Ltmp364:
Lfunc_end91:
	.cfi_endproc
                                        ; -- End function
	.p2align	2                               ; -- Begin function _ZNSt3__1L10__distanceIPKcEENS_15iterator_traitsIT_E15difference_typeES4_S4_NS_26random_access_iterator_tagE
__ZNSt3__1L10__distanceIPKcEENS_15iterator_traitsIT_E15difference_typeES4_S4_NS_26random_access_iterator_tagE: ; @_ZNSt3__1L10__distanceIPKcEENS_15iterator_traitsIT_E15difference_typeES4_S4_NS_26random_access_iterator_tagE
Lfunc_begin92:
	.loc	102 40 0 is_stmt 1              ; /Applications/Xcode.app/Contents/Developer/Platforms/MacOSX.platform/Developer/SDKs/MacOSX13.1.sdk/usr/include/c++/v1/__iterator/distance.h:40:0
	.cfi_startproc
; %bb.0:
	sub	sp, sp, #32
	.cfi_def_cfa_offset 32
	str	x0, [sp, #16]
	str	x1, [sp, #8]
Ltmp366:
	.loc	102 41 12 prologue_end          ; /Applications/Xcode.app/Contents/Developer/Platforms/MacOSX.platform/Developer/SDKs/MacOSX13.1.sdk/usr/include/c++/v1/__iterator/distance.h:41:12
	ldr	x8, [sp, #8]
	.loc	102 41 21 is_stmt 0             ; /Applications/Xcode.app/Contents/Developer/Platforms/MacOSX.platform/Developer/SDKs/MacOSX13.1.sdk/usr/include/c++/v1/__iterator/distance.h:41:21
	ldr	x9, [sp, #16]
	.loc	102 41 19                       ; /Applications/Xcode.app/Contents/Developer/Platforms/MacOSX.platform/Developer/SDKs/MacOSX13.1.sdk/usr/include/c++/v1/__iterator/distance.h:41:19
	subs	x0, x8, x9
	.loc	102 41 5                        ; /Applications/Xcode.app/Contents/Developer/Platforms/MacOSX.platform/Developer/SDKs/MacOSX13.1.sdk/usr/include/c++/v1/__iterator/distance.h:41:5
	add	sp, sp, #32
	ret
Ltmp367:
Lfunc_end92:
	.cfi_endproc
                                        ; -- End function
	.p2align	2                               ; -- Begin function _ZNSt3__112basic_stringIcNS_11char_traitsIcEENS_9allocatorIcEEE18__get_long_pointerEv
__ZNSt3__112basic_stringIcNS_11char_traitsIcEENS_9allocatorIcEEE18__get_long_pointerEv: ; @_ZNSt3__112basic_stringIcNS_11char_traitsIcEENS_9allocatorIcEEE18__get_long_pointerEv
Lfunc_begin93:
	.loc	4 1566 0 is_stmt 1              ; /Applications/Xcode.app/Contents/Developer/Platforms/MacOSX.platform/Developer/SDKs/MacOSX13.1.sdk/usr/include/c++/v1/string:1566:0
	.cfi_startproc
; %bb.0:
	sub	sp, sp, #32
	stp	x29, x30, [sp, #16]             ; 16-byte Folded Spill
	add	x29, sp, #16
	.cfi_def_cfa w29, 16
	.cfi_offset w30, -8
	.cfi_offset w29, -16
	str	x0, [sp, #8]
	ldr	x0, [sp, #8]
Ltmp368:
	.loc	4 1566 22 prologue_end          ; /Applications/Xcode.app/Contents/Developer/Platforms/MacOSX.platform/Developer/SDKs/MacOSX13.1.sdk/usr/include/c++/v1/string:1566:22
	bl	__ZNSt3__117__compressed_pairINS_12basic_stringIcNS_11char_traitsIcEENS_9allocatorIcEEE5__repES5_E5firstEv
	.loc	4 1566 34 is_stmt 0             ; /Applications/Xcode.app/Contents/Developer/Platforms/MacOSX.platform/Developer/SDKs/MacOSX13.1.sdk/usr/include/c++/v1/string:1566:34
	ldr	x0, [x0]
	.loc	4 1566 10                       ; /Applications/Xcode.app/Contents/Developer/Platforms/MacOSX.platform/Developer/SDKs/MacOSX13.1.sdk/usr/include/c++/v1/string:1566:10
	ldp	x29, x30, [sp, #16]             ; 16-byte Folded Reload
	add	sp, sp, #32
	ret
Ltmp369:
Lfunc_end93:
	.cfi_endproc
                                        ; -- End function
	.p2align	2                               ; -- Begin function _ZNSt3__112basic_stringIcNS_11char_traitsIcEENS_9allocatorIcEEE19__get_short_pointerEv
__ZNSt3__112basic_stringIcNS_11char_traitsIcEENS_9allocatorIcEEE19__get_short_pointerEv: ; @_ZNSt3__112basic_stringIcNS_11char_traitsIcEENS_9allocatorIcEEE19__get_short_pointerEv
Lfunc_begin94:
	.loc	4 1572 0 is_stmt 1              ; /Applications/Xcode.app/Contents/Developer/Platforms/MacOSX.platform/Developer/SDKs/MacOSX13.1.sdk/usr/include/c++/v1/string:1572:0
	.cfi_startproc
; %bb.0:
	sub	sp, sp, #32
	stp	x29, x30, [sp, #16]             ; 16-byte Folded Spill
	add	x29, sp, #16
	.cfi_def_cfa w29, 16
	.cfi_offset w30, -8
	.cfi_offset w29, -16
	str	x0, [sp, #8]
	ldr	x0, [sp, #8]
Ltmp370:
	.loc	4 1572 58 prologue_end          ; /Applications/Xcode.app/Contents/Developer/Platforms/MacOSX.platform/Developer/SDKs/MacOSX13.1.sdk/usr/include/c++/v1/string:1572:58
	bl	__ZNSt3__117__compressed_pairINS_12basic_stringIcNS_11char_traitsIcEENS_9allocatorIcEEE5__repES5_E5firstEv
	.loc	4 1572 17 is_stmt 0             ; /Applications/Xcode.app/Contents/Developer/Platforms/MacOSX.platform/Developer/SDKs/MacOSX13.1.sdk/usr/include/c++/v1/string:1572:17
	bl	__ZNSt3__114pointer_traitsIPcE10pointer_toERc
	.loc	4 1572 10                       ; /Applications/Xcode.app/Contents/Developer/Platforms/MacOSX.platform/Developer/SDKs/MacOSX13.1.sdk/usr/include/c++/v1/string:1572:10
	ldp	x29, x30, [sp, #16]             ; 16-byte Folded Reload
	add	sp, sp, #32
	ret
Ltmp371:
Lfunc_end94:
	.cfi_endproc
                                        ; -- End function
	.p2align	2                               ; -- Begin function _ZNSt3__114pointer_traitsIPcE10pointer_toERc
__ZNSt3__114pointer_traitsIPcE10pointer_toERc: ; @_ZNSt3__114pointer_traitsIPcE10pointer_toERc
Lfunc_begin95:
	.loc	26 154 0 is_stmt 1              ; /Applications/Xcode.app/Contents/Developer/Platforms/MacOSX.platform/Developer/SDKs/MacOSX13.1.sdk/usr/include/c++/v1/__memory/pointer_traits.h:154:0
	.cfi_startproc
; %bb.0:
	sub	sp, sp, #32
