	.section	__TEXT,__text,regular,pure_instructions
	.build_version macos, 13, 0	sdk_version 13, 1
	.file	1 "/Applications/Xcode.app/Contents/Developer/Platforms/MacOSX.platform/Developer/SDKs/MacOSX13.1.sdk/usr/include/c++/v1/__memory" "shared_ptr.h"
	.file	2 "/Applications/Xcode.app/Contents/Developer/Platforms/MacOSX.platform/Developer/SDKs/MacOSX13.1.sdk/usr/include/c++/v1" "typeinfo"
	.file	3 "/Applications/Xcode.app/Contents/Developer/Platforms/MacOSX.platform/Developer/SDKs/MacOSX13.1.sdk/usr/include/sys/_types" "_uintptr_t.h"
	.file	4 "/Applications/Xcode.app/Contents/Developer/Toolchains/XcodeDefault.xctoolchain/usr/lib/clang/14.0.0/include" "stddef.h"
	.file	5 "/Users/xieyao/Desktop/git/C-/mac/myproject" "libframework/framework/include/framework/Looper.h"
	.file	6 "/Users/xieyao/Desktop/git/C-/mac/myproject" "libframework/framework/include/framework/Message.h"
	.file	7 "/Applications/Xcode.app/Contents/Developer/Platforms/MacOSX.platform/Developer/SDKs/MacOSX13.1.sdk/usr/include/c++/v1/__functional" "unary_function.h"
	.file	8 "/Applications/Xcode.app/Contents/Developer/Platforms/MacOSX.platform/Developer/SDKs/MacOSX13.1.sdk/usr/include/c++/v1/__functional" "hash.h"
	.file	9 "/Applications/Xcode.app/Contents/Developer/Platforms/MacOSX.platform/Developer/SDKs/MacOSX13.1.sdk/usr/include/c++/v1/__functional" "binary_function.h"
	.file	10 "/Applications/Xcode.app/Contents/Developer/Platforms/MacOSX.platform/Developer/SDKs/MacOSX13.1.sdk/usr/include/c++/v1/__functional" "operations.h"
	.file	11 "/Applications/Xcode.app/Contents/Developer/Platforms/MacOSX.platform/Developer/SDKs/MacOSX13.1.sdk/usr/include/c++/v1/__memory" "allocator.h"
	.file	12 "/Applications/Xcode.app/Contents/Developer/Platforms/MacOSX.platform/Developer/SDKs/MacOSX13.1.sdk/usr/include/c++/v1" "unordered_map"
	.file	13 "/Applications/Xcode.app/Contents/Developer/Platforms/MacOSX.platform/Developer/SDKs/MacOSX13.1.sdk/usr/include/c++/v1" "type_traits"
	.file	14 "/Applications/Xcode.app/Contents/Developer/Platforms/MacOSX.platform/Developer/SDKs/MacOSX13.1.sdk/usr/include/c++/v1" "__hash_table"
	.file	15 "/Applications/Xcode.app/Contents/Developer/Platforms/MacOSX.platform/Developer/SDKs/MacOSX13.1.sdk/usr/include/c++/v1/__memory" "compressed_pair.h"
	.file	16 "/Applications/Xcode.app/Contents/Developer/Platforms/MacOSX.platform/Developer/SDKs/MacOSX13.1.sdk/usr/include/c++/v1/__memory" "allocator_traits.h"
	.file	17 "/Applications/Xcode.app/Contents/Developer/Platforms/MacOSX.platform/Developer/SDKs/MacOSX13.1.sdk/usr/include/c++/v1/__memory" "unique_ptr.h"
	.file	18 "/Applications/Xcode.app/Contents/Developer/Platforms/MacOSX.platform/Developer/SDKs/MacOSX13.1.sdk/usr/include/c++/v1" "__nullptr"
	.file	19 "/Applications/Xcode.app/Contents/Developer/Platforms/MacOSX.platform/Developer/SDKs/MacOSX13.1.sdk/usr/include/c++/v1" "__node_handle"
	.file	20 "/Applications/Xcode.app/Contents/Developer/Platforms/MacOSX.platform/Developer/SDKs/MacOSX13.1.sdk/usr/include/sys/_pthread" "_pthread_types.h"
	.file	21 "/Applications/Xcode.app/Contents/Developer/Platforms/MacOSX.platform/Developer/SDKs/MacOSX13.1.sdk/usr/include/sys/_pthread" "_pthread_mutex_t.h"
	.file	22 "/Applications/Xcode.app/Contents/Developer/Platforms/MacOSX.platform/Developer/SDKs/MacOSX13.1.sdk/usr/include/c++/v1" "__threading_support"
	.file	23 "/Applications/Xcode.app/Contents/Developer/Platforms/MacOSX.platform/Developer/SDKs/MacOSX13.1.sdk/usr/include/c++/v1" "__mutex_base"
	.file	24 "/opt/homebrew/include/event2" "event_struct.h"
	.file	25 "/Applications/Xcode.app/Contents/Developer/Platforms/MacOSX.platform/Developer/SDKs/MacOSX13.1.sdk/usr/include/_types" "_uint8_t.h"
	.file	26 "/Applications/Xcode.app/Contents/Developer/Platforms/MacOSX.platform/Developer/SDKs/MacOSX13.1.sdk/usr/include/arm" "_types.h"
	.file	27 "/Applications/Xcode.app/Contents/Developer/Platforms/MacOSX.platform/Developer/SDKs/MacOSX13.1.sdk/usr/include/sys/_types" "_timeval.h"
	.file	28 "/Applications/Xcode.app/Contents/Developer/Platforms/MacOSX.platform/Developer/SDKs/MacOSX13.1.sdk/usr/include/sys" "_types.h"
	.file	29 "/Applications/Xcode.app/Contents/Developer/Platforms/MacOSX.platform/Developer/SDKs/MacOSX13.1.sdk/usr/include/c++/v1" "atomic"
	.file	30 "/Applications/Xcode.app/Contents/Developer/Platforms/MacOSX.platform/Developer/SDKs/MacOSX13.1.sdk/usr/include/_types" "_intmax_t.h"
	.file	31 "/Applications/Xcode.app/Contents/Developer/Platforms/MacOSX.platform/Developer/SDKs/MacOSX13.1.sdk/usr/include/c++/v1" "ratio"
	.file	32 "/Applications/Xcode.app/Contents/Developer/Platforms/MacOSX.platform/Developer/SDKs/MacOSX13.1.sdk/usr/include/c++/v1" "chrono"
	.file	33 "/opt/homebrew/include/event2" "event.h"
	.file	34 "/Applications/Xcode.app/Contents/Developer/Platforms/MacOSX.platform/Developer/SDKs/MacOSX13.1.sdk/usr/include/c++/v1" "cstddef"
	.file	35 "/Applications/Xcode.app/Contents/Developer/Toolchains/XcodeDefault.xctoolchain/usr/lib/clang/14.0.0/include" "__stddef_max_align_t.h"
	.file	36 "/Applications/Xcode.app/Contents/Developer/Platforms/MacOSX.platform/Developer/SDKs/MacOSX13.1.sdk/usr/include/c++/v1" "cstdlib"
	.file	37 "/Applications/Xcode.app/Contents/Developer/Platforms/MacOSX.platform/Developer/SDKs/MacOSX13.1.sdk/usr/include" "stdlib.h"
	.file	38 "/Applications/Xcode.app/Contents/Developer/Platforms/MacOSX.platform/Developer/SDKs/MacOSX13.1.sdk/usr/include/malloc" "_malloc.h"
	.file	39 "/Applications/Xcode.app/Contents/Developer/Platforms/MacOSX.platform/Developer/SDKs/MacOSX13.1.sdk/usr/include/c++/v1" "stdlib.h"
	.file	40 "/Applications/Xcode.app/Contents/Developer/Platforms/MacOSX.platform/Developer/SDKs/MacOSX13.1.sdk/usr/include/sys/_types" "_int8_t.h"
	.file	41 "/Applications/Xcode.app/Contents/Developer/Platforms/MacOSX.platform/Developer/SDKs/MacOSX13.1.sdk/usr/include/c++/v1" "cstdint"
	.file	42 "/Applications/Xcode.app/Contents/Developer/Platforms/MacOSX.platform/Developer/SDKs/MacOSX13.1.sdk/usr/include/sys/_types" "_int16_t.h"
	.file	43 "/Applications/Xcode.app/Contents/Developer/Platforms/MacOSX.platform/Developer/SDKs/MacOSX13.1.sdk/usr/include/sys/_types" "_int32_t.h"
	.file	44 "/Applications/Xcode.app/Contents/Developer/Platforms/MacOSX.platform/Developer/SDKs/MacOSX13.1.sdk/usr/include/sys/_types" "_int64_t.h"
	.file	45 "/Applications/Xcode.app/Contents/Developer/Platforms/MacOSX.platform/Developer/SDKs/MacOSX13.1.sdk/usr/include/_types" "_uint16_t.h"
	.file	46 "/Applications/Xcode.app/Contents/Developer/Platforms/MacOSX.platform/Developer/SDKs/MacOSX13.1.sdk/usr/include/_types" "_uint32_t.h"
	.file	47 "/Applications/Xcode.app/Contents/Developer/Platforms/MacOSX.platform/Developer/SDKs/MacOSX13.1.sdk/usr/include/_types" "_uint64_t.h"
	.file	48 "/Applications/Xcode.app/Contents/Developer/Platforms/MacOSX.platform/Developer/SDKs/MacOSX13.1.sdk/usr/include" "stdint.h"
	.file	49 "/Applications/Xcode.app/Contents/Developer/Platforms/MacOSX.platform/Developer/SDKs/MacOSX13.1.sdk/usr/include/sys/_types" "_intptr_t.h"
	.file	50 "/Applications/Xcode.app/Contents/Developer/Platforms/MacOSX.platform/Developer/SDKs/MacOSX13.1.sdk/usr/include/_types" "_uintmax_t.h"
	.file	51 "/Applications/Xcode.app/Contents/Developer/Platforms/MacOSX.platform/Developer/SDKs/MacOSX13.1.sdk/usr/include/c++/v1" "stddef.h"
	.file	52 "/Applications/Xcode.app/Contents/Developer/Platforms/MacOSX.platform/Developer/SDKs/MacOSX13.1.sdk/usr/include/sys/_types" "_mbstate_t.h"
	.file	53 "/Applications/Xcode.app/Contents/Developer/Platforms/MacOSX.platform/Developer/SDKs/MacOSX13.1.sdk/usr/include/c++/v1" "__mbstate_t.h"
	.file	54 "/Applications/Xcode.app/Contents/Developer/Platforms/MacOSX.platform/Developer/SDKs/MacOSX13.1.sdk/usr/include/c++/v1" "cstring"
	.file	55 "/Applications/Xcode.app/Contents/Developer/Platforms/MacOSX.platform/Developer/SDKs/MacOSX13.1.sdk/usr/include" "string.h"
	.file	56 "/Applications/Xcode.app/Contents/Developer/Platforms/MacOSX.platform/Developer/SDKs/MacOSX13.1.sdk/usr/include/c++/v1" "string.h"
	.file	57 "/Applications/Xcode.app/Contents/Developer/Platforms/MacOSX.platform/Developer/SDKs/MacOSX13.1.sdk/usr/include/sys/_types" "_clock_t.h"
	.file	58 "/Applications/Xcode.app/Contents/Developer/Platforms/MacOSX.platform/Developer/SDKs/MacOSX13.1.sdk/usr/include/c++/v1" "ctime"
	.file	59 "/Applications/Xcode.app/Contents/Developer/Platforms/MacOSX.platform/Developer/SDKs/MacOSX13.1.sdk/usr/include/sys/_types" "_time_t.h"
	.file	60 "/Applications/Xcode.app/Contents/Developer/Platforms/MacOSX.platform/Developer/SDKs/MacOSX13.1.sdk/usr/include" "time.h"
	.file	61 "/Applications/Xcode.app/Contents/Developer/Platforms/MacOSX.platform/Developer/SDKs/MacOSX13.1.sdk/usr/include/sys/_types" "_timespec.h"
	.file	62 "/Applications/Xcode.app/Contents/Developer/Platforms/MacOSX.platform/Developer/SDKs/MacOSX13.1.sdk/usr/include/c++/v1" "math.h"
	.file	63 "/Applications/Xcode.app/Contents/Developer/Platforms/MacOSX.platform/Developer/SDKs/MacOSX13.1.sdk/usr/include/c++/v1" "cmath"
	.file	64 "/Applications/Xcode.app/Contents/Developer/Platforms/MacOSX.platform/Developer/SDKs/MacOSX13.1.sdk/usr/include" "math.h"
	.file	65 "/Applications/Xcode.app/Contents/Developer/Platforms/MacOSX.platform/Developer/SDKs/MacOSX13.1.sdk/usr/include" "_stdio.h"
	.file	66 "/Applications/Xcode.app/Contents/Developer/Platforms/MacOSX.platform/Developer/SDKs/MacOSX13.1.sdk/usr/include/c++/v1" "cstdio"
	.file	67 "/Applications/Xcode.app/Contents/Developer/Platforms/MacOSX.platform/Developer/SDKs/MacOSX13.1.sdk/usr/include" "stdio.h"
	.file	68 "/Applications/Xcode.app/Contents/Developer/Platforms/MacOSX.platform/Developer/SDKs/MacOSX13.1.sdk/usr/include/sys/_types" "_va_list.h"
	.file	69 "/Applications/Xcode.app/Contents/Developer/Platforms/MacOSX.platform/Developer/SDKs/MacOSX13.1.sdk/usr/include" "_ctype.h"
	.file	70 "/Applications/Xcode.app/Contents/Developer/Platforms/MacOSX.platform/Developer/SDKs/MacOSX13.1.sdk/usr/include/c++/v1" "cctype"
	.file	71 "/Applications/Xcode.app/Contents/Developer/Platforms/MacOSX.platform/Developer/SDKs/MacOSX13.1.sdk/usr/include/sys/_types" "_wint_t.h"
	.file	72 "/Applications/Xcode.app/Contents/Developer/Platforms/MacOSX.platform/Developer/SDKs/MacOSX13.1.sdk/usr/include/c++/v1" "cwctype"
	.file	73 "/Applications/Xcode.app/Contents/Developer/Platforms/MacOSX.platform/Developer/SDKs/MacOSX13.1.sdk/usr/include" "_types.h"
	.file	74 "/Applications/Xcode.app/Contents/Developer/Platforms/MacOSX.platform/Developer/SDKs/MacOSX13.1.sdk/usr/include/_types" "_wctrans_t.h"
	.file	75 "/Applications/Xcode.app/Contents/Developer/Platforms/MacOSX.platform/Developer/SDKs/MacOSX13.1.sdk/usr/include/_types" "_wctype_t.h"
	.file	76 "/Applications/Xcode.app/Contents/Developer/Platforms/MacOSX.platform/Developer/SDKs/MacOSX13.1.sdk/usr/include" "_wctype.h"
	.file	77 "/Applications/Xcode.app/Contents/Developer/Platforms/MacOSX.platform/Developer/SDKs/MacOSX13.1.sdk/usr/include" "wctype.h"
	.file	78 "/Applications/Xcode.app/Contents/Developer/Platforms/MacOSX.platform/Developer/SDKs/MacOSX13.1.sdk/usr/include/c++/v1" "cwchar"
	.file	79 "/Applications/Xcode.app/Contents/Developer/Platforms/MacOSX.platform/Developer/SDKs/MacOSX13.1.sdk/usr/include" "wchar.h"
	.file	80 "/Applications/Xcode.app/Contents/Developer/Platforms/MacOSX.platform/Developer/SDKs/MacOSX13.1.sdk/usr/include/c++/v1" "wchar.h"
	.section	__TEXT,__StaticInit,regular,pure_instructions
	.p2align	2                               ; -- Begin function __cxx_global_var_init
___cxx_global_var_init:                 ; @__cxx_global_var_init
Lfunc_begin0:
	.file	81 "/Users/xieyao/Desktop/git/C-/mac/myproject/cmake-build-mac" "libframework/framework/CMakeFiles/framework.dir/src/Message.cpp"
	.loc	81 0 0                          ; libframework/framework/CMakeFiles/framework.dir/src/Message.cpp:0:0
	.cfi_startproc
; %bb.0:
	sub	sp, sp, #32
	stp	x29, x30, [sp, #16]             ; 16-byte Folded Spill
	add	x29, sp, #16
	.cfi_def_cfa w29, 16
	.cfi_offset w30, -8
	.cfi_offset w29, -16
Ltmp0:
	adrp	x8, __ZGVN5Invok7mLooperE@GOTPAGE
	ldr	x8, [x8, __ZGVN5Invok7mLooperE@GOTPAGEOFF]
	str	x8, [sp, #8]                    ; 8-byte Folded Spill
	ldarb	w8, [x8]
	and	w8, w8, #0x1
	and	w8, w8, #0xff
	cbnz	w8, LBB0_3
	b	LBB0_1
LBB0_1:
	ldr	x0, [sp, #8]                    ; 8-byte Folded Reload
	bl	___cxa_guard_acquire
	cbz	w0, LBB0_3
	b	LBB0_2
LBB0_2:
	adrp	x0, __ZNSt3__110shared_ptrI6LooperED1Ev@GOTPAGE
	ldr	x0, [x0, __ZNSt3__110shared_ptrI6LooperED1Ev@GOTPAGEOFF]
	adrp	x1, __ZN5Invok7mLooperE@GOTPAGE
	ldr	x1, [x1, __ZN5Invok7mLooperE@GOTPAGEOFF]
	adrp	x2, ___dso_handle@PAGE
	add	x2, x2, ___dso_handle@PAGEOFF
	bl	___cxa_atexit
	ldr	x0, [sp, #8]                    ; 8-byte Folded Reload
	bl	___cxa_guard_release
	b	LBB0_3
LBB0_3:
	ldp	x29, x30, [sp, #16]             ; 16-byte Folded Reload
	add	sp, sp, #32
	ret
Ltmp1:
Lfunc_end0:
	.cfi_endproc
                                        ; -- End function
	.section	__TEXT,__text,regular,pure_instructions
	.globl	__ZNSt3__110shared_ptrI6LooperED1Ev ; -- Begin function _ZNSt3__110shared_ptrI6LooperED1Ev
	.weak_def_can_be_hidden	__ZNSt3__110shared_ptrI6LooperED1Ev
	.p2align	2
__ZNSt3__110shared_ptrI6LooperED1Ev:    ; @_ZNSt3__110shared_ptrI6LooperED1Ev
Lfunc_begin1:
	.loc	1 957 0                         ; /Applications/Xcode.app/Contents/Developer/Platforms/MacOSX.platform/Developer/SDKs/MacOSX13.1.sdk/usr/include/c++/v1/__memory/shared_ptr.h:957:0
	.cfi_startproc
; %bb.0:
	sub	sp, sp, #32
	stp	x29, x30, [sp, #16]             ; 16-byte Folded Spill
	add	x29, sp, #16
	.cfi_def_cfa w29, 16
	.cfi_offset w30, -8
	.cfi_offset w29, -16
	str	x0, [sp, #8]
	ldr	x0, [sp, #8]
	str	x0, [sp]                        ; 8-byte Folded Spill
Ltmp2:
	.loc	1 957 1 prologue_end            ; /Applications/Xcode.app/Contents/Developer/Platforms/MacOSX.platform/Developer/SDKs/MacOSX13.1.sdk/usr/include/c++/v1/__memory/shared_ptr.h:957:1
	bl	__ZNSt3__110shared_ptrI6LooperED2Ev
	ldr	x0, [sp]                        ; 8-byte Folded Reload
	.loc	1 960 1                         ; /Applications/Xcode.app/Contents/Developer/Platforms/MacOSX.platform/Developer/SDKs/MacOSX13.1.sdk/usr/include/c++/v1/__memory/shared_ptr.h:960:1
	ldp	x29, x30, [sp, #16]             ; 16-byte Folded Reload
	add	sp, sp, #32
	ret
Ltmp3:
Lfunc_end1:
	.cfi_endproc
                                        ; -- End function
	.globl	__ZN7Message4sendEv             ; -- Begin function _ZN7Message4sendEv
	.p2align	2
__ZN7Message4sendEv:                    ; @_ZN7Message4sendEv
Lfunc_begin2:
	.file	82 "/Users/xieyao/Desktop/git/C-/mac/myproject" "libframework/framework/src/Message.cpp"
	.loc	82 7 0                          ; libframework/framework/src/Message.cpp:7:0
	.cfi_startproc
	.cfi_personality 155, ___gxx_personality_v0
	.cfi_lsda 16, Lexception0
; %bb.0:
	sub	sp, sp, #80
	stp	x29, x30, [sp, #64]             ; 16-byte Folded Spill
	add	x29, sp, #64
	.cfi_def_cfa w29, 16
	.cfi_offset w30, -8
	.cfi_offset w29, -16
	stur	x0, [x29, #-8]
	ldur	x8, [x29, #-8]
	str	x8, [sp, #8]                    ; 8-byte Folded Spill
Ltmp7:
	.loc	82 8 5 prologue_end             ; libframework/framework/src/Message.cpp:8:5
	add	x0, x8, #24
	bl	__ZNKSt3__110shared_ptrI6LooperEptEv
	mov	x1, x0
	ldr	x0, [sp, #8]                    ; 8-byte Folded Reload
	str	x1, [sp]                        ; 8-byte Folded Spill
	sub	x8, x29, #24
	str	x8, [sp, #16]                   ; 8-byte Folded Spill
	.loc	82 8 36 is_stmt 0               ; libframework/framework/src/Message.cpp:8:36
	bl	__ZNSt3__123enable_shared_from_thisI7MessageE16shared_from_thisEv
	ldr	x0, [sp]                        ; 8-byte Folded Reload
	ldr	x8, [sp, #8]                    ; 8-byte Folded Reload
	ldr	x2, [sp, #16]                   ; 8-byte Folded Reload
Ltmp4:
	.loc	82 8 26                         ; libframework/framework/src/Message.cpp:8:26
	add	x1, x8, #40
	.loc	82 8 14                         ; libframework/framework/src/Message.cpp:8:14
	bl	__ZN6Looper11sendMessageERKNSt3__110shared_ptrI14MessageHandlerEERKNS1_I7MessageEE
Ltmp5:
	b	LBB2_1
LBB2_1:
	.loc	82 0 14                         ; libframework/framework/src/Message.cpp:0:14
	sub	x0, x29, #24
	.loc	82 8 5                          ; libframework/framework/src/Message.cpp:8:5
	bl	__ZNSt3__110shared_ptrI7MessageED1Ev
	.loc	82 9 1 is_stmt 1                ; libframework/framework/src/Message.cpp:9:1
	ldp	x29, x30, [sp, #64]             ; 16-byte Folded Reload
	add	sp, sp, #80
	ret
LBB2_2:
Ltmp6:
	mov	x8, x1
	str	x0, [sp, #32]
	str	w8, [sp, #28]
	sub	x0, x29, #24
	.loc	82 8 5                          ; libframework/framework/src/Message.cpp:8:5
	bl	__ZNSt3__110shared_ptrI7MessageED1Ev
	b	LBB2_3
LBB2_3:
	ldr	x0, [sp, #32]
	bl	__Unwind_Resume
Ltmp8:
Lfunc_end2:
	.cfi_endproc
	.section	__TEXT,__gcc_except_tab
	.p2align	2
GCC_except_table2:
Lexception0:
	.byte	255                             ; @LPStart Encoding = omit
	.byte	255                             ; @TType Encoding = omit
	.byte	1                               ; Call site Encoding = uleb128
	.uleb128 Lcst_end0-Lcst_begin0
Lcst_begin0:
	.uleb128 Lfunc_begin2-Lfunc_begin2      ; >> Call Site 1 <<
	.uleb128 Ltmp4-Lfunc_begin2             ;   Call between Lfunc_begin2 and Ltmp4
	.byte	0                               ;     has no landing pad
	.byte	0                               ;   On action: cleanup
	.uleb128 Ltmp4-Lfunc_begin2             ; >> Call Site 2 <<
	.uleb128 Ltmp5-Ltmp4                    ;   Call between Ltmp4 and Ltmp5
	.uleb128 Ltmp6-Lfunc_begin2             ;     jumps to Ltmp6
	.byte	0                               ;   On action: cleanup
	.uleb128 Ltmp5-Lfunc_begin2             ; >> Call Site 3 <<
	.uleb128 Lfunc_end2-Ltmp5               ;   Call between Ltmp5 and Lfunc_end2
	.byte	0                               ;     has no landing pad
	.byte	0                               ;   On action: cleanup
Lcst_end0:
	.p2align	2
                                        ; -- End function
	.section	__TEXT,__text,regular,pure_instructions
	.p2align	2                               ; -- Begin function _ZNKSt3__110shared_ptrI6LooperEptEv
__ZNKSt3__110shared_ptrI6LooperEptEv:   ; @_ZNKSt3__110shared_ptrI6LooperEptEv
Lfunc_begin3:
	.loc	1 586 0                         ; /Applications/Xcode.app/Contents/Developer/Platforms/MacOSX.platform/Developer/SDKs/MacOSX13.1.sdk/usr/include/c++/v1/__memory/shared_ptr.h:586:0
	.cfi_startproc
; %bb.0:
	sub	sp, sp, #16
	.cfi_def_cfa_offset 16
	str	x0, [sp, #8]
	ldr	x8, [sp, #8]
Ltmp10:
	.loc	1 589 16 prologue_end           ; /Applications/Xcode.app/Contents/Developer/Platforms/MacOSX.platform/Developer/SDKs/MacOSX13.1.sdk/usr/include/c++/v1/__memory/shared_ptr.h:589:16
	ldr	x0, [x8]
	.loc	1 589 9 is_stmt 0               ; /Applications/Xcode.app/Contents/Developer/Platforms/MacOSX.platform/Developer/SDKs/MacOSX13.1.sdk/usr/include/c++/v1/__memory/shared_ptr.h:589:9
	add	sp, sp, #16
	ret
Ltmp11:
Lfunc_end3:
	.cfi_endproc
                                        ; -- End function
	.p2align	2                               ; -- Begin function _ZNSt3__123enable_shared_from_thisI7MessageE16shared_from_thisEv
__ZNSt3__123enable_shared_from_thisI7MessageE16shared_from_thisEv: ; @_ZNSt3__123enable_shared_from_thisI7MessageE16shared_from_thisEv
Lfunc_begin4:
	.loc	1 1692 0 is_stmt 1              ; /Applications/Xcode.app/Contents/Developer/Platforms/MacOSX.platform/Developer/SDKs/MacOSX13.1.sdk/usr/include/c++/v1/__memory/shared_ptr.h:1692:0
	.cfi_startproc
; %bb.0:
	sub	sp, sp, #48
	stp	x29, x30, [sp, #32]             ; 16-byte Folded Spill
	add	x29, sp, #32
	.cfi_def_cfa w29, 16
	.cfi_offset w30, -8
	.cfi_offset w29, -16
	str	x8, [sp]                        ; 8-byte Folded Spill
	mov	x8, x0
	ldr	x0, [sp]                        ; 8-byte Folded Reload
	mov	x9, x0
	stur	x9, [x29, #-8]
	str	x8, [sp, #16]
	ldr	x1, [sp, #16]
Ltmp12:
	.loc	1 1692 17 prologue_end          ; /Applications/Xcode.app/Contents/Developer/Platforms/MacOSX.platform/Developer/SDKs/MacOSX13.1.sdk/usr/include/c++/v1/__memory/shared_ptr.h:1692:17
	str	wzr, [sp, #12]
	ldr	w8, [sp, #12]
	mov	x2, x8
	bl	__ZNSt3__110shared_ptrI7MessageEC1IS1_EERKNS_8weak_ptrIT_EENS_9enable_ifIXsr14is_convertibleIPS5_PS1_EE5valueENS2_5__natEE4typeE
	.loc	1 1692 10 is_stmt 0             ; /Applications/Xcode.app/Contents/Developer/Platforms/MacOSX.platform/Developer/SDKs/MacOSX13.1.sdk/usr/include/c++/v1/__memory/shared_ptr.h:1692:10
	ldp	x29, x30, [sp, #32]             ; 16-byte Folded Reload
	add	sp, sp, #48
	ret
Ltmp13:
Lfunc_end4:
	.cfi_endproc
                                        ; -- End function
	.globl	__ZNSt3__110shared_ptrI7MessageED1Ev ; -- Begin function _ZNSt3__110shared_ptrI7MessageED1Ev
	.weak_def_can_be_hidden	__ZNSt3__110shared_ptrI7MessageED1Ev
	.p2align	2
__ZNSt3__110shared_ptrI7MessageED1Ev:   ; @_ZNSt3__110shared_ptrI7MessageED1Ev
Lfunc_begin5:
	.loc	1 957 0 is_stmt 1               ; /Applications/Xcode.app/Contents/Developer/Platforms/MacOSX.platform/Developer/SDKs/MacOSX13.1.sdk/usr/include/c++/v1/__memory/shared_ptr.h:957:0
	.cfi_startproc
; %bb.0:
	sub	sp, sp, #32
	stp	x29, x30, [sp, #16]             ; 16-byte Folded Spill
	add	x29, sp, #16
	.cfi_def_cfa w29, 16
	.cfi_offset w30, -8
	.cfi_offset w29, -16
	str	x0, [sp, #8]
	ldr	x0, [sp, #8]
	str	x0, [sp]                        ; 8-byte Folded Spill
Ltmp14:
	.loc	1 957 1 prologue_end            ; /Applications/Xcode.app/Contents/Developer/Platforms/MacOSX.platform/Developer/SDKs/MacOSX13.1.sdk/usr/include/c++/v1/__memory/shared_ptr.h:957:1
	bl	__ZNSt3__110shared_ptrI7MessageED2Ev
	ldr	x0, [sp]                        ; 8-byte Folded Reload
	.loc	1 960 1                         ; /Applications/Xcode.app/Contents/Developer/Platforms/MacOSX.platform/Developer/SDKs/MacOSX13.1.sdk/usr/include/c++/v1/__memory/shared_ptr.h:960:1
	ldp	x29, x30, [sp, #16]             ; 16-byte Folded Reload
	add	sp, sp, #32
	ret
Ltmp15:
Lfunc_end5:
	.cfi_endproc
                                        ; -- End function
	.globl	__ZN7Message9sendDelayENSt3__16chrono8durationIxNS0_5ratioILl1ELl1000000000EEEEE ; -- Begin function _ZN7Message9sendDelayENSt3__16chrono8durationIxNS0_5ratioILl1ELl1000000000EEEEE
	.p2align	2
__ZN7Message9sendDelayENSt3__16chrono8durationIxNS0_5ratioILl1ELl1000000000EEEEE: ; @_ZN7Message9sendDelayENSt3__16chrono8durationIxNS0_5ratioILl1ELl1000000000EEEEE
Lfunc_begin6:
	.loc	82 11 0                         ; libframework/framework/src/Message.cpp:11:0
	.cfi_startproc
	.cfi_personality 155, ___gxx_personality_v0
	.cfi_lsda 16, Lexception1
; %bb.0:
	sub	sp, sp, #96
	stp	x29, x30, [sp, #80]             ; 16-byte Folded Spill
	add	x29, sp, #80
	.cfi_def_cfa w29, 16
	.cfi_offset w30, -8
	.cfi_offset w29, -16
	stur	x1, [x29, #-8]
	stur	x0, [x29, #-16]
	ldur	x8, [x29, #-16]
	str	x8, [sp, #8]                    ; 8-byte Folded Spill
Ltmp19:
	.loc	82 12 5 prologue_end            ; libframework/framework/src/Message.cpp:12:5
	add	x0, x8, #24
	bl	__ZNKSt3__110shared_ptrI6LooperEptEv
	mov	x1, x0
	ldr	x0, [sp, #8]                    ; 8-byte Folded Reload
	str	x1, [sp]                        ; 8-byte Folded Spill
	.loc	82 12 31 is_stmt 0              ; libframework/framework/src/Message.cpp:12:31
	ldur	x8, [x29, #-8]
	stur	x8, [x29, #-24]
	add	x8, sp, #40
	str	x8, [sp, #16]                   ; 8-byte Folded Spill
	.loc	82 12 54                        ; libframework/framework/src/Message.cpp:12:54
	bl	__ZNSt3__123enable_shared_from_thisI7MessageE16shared_from_thisEv
	ldr	x0, [sp]                        ; 8-byte Folded Reload
	ldr	x8, [sp, #8]                    ; 8-byte Folded Reload
	ldr	x3, [sp, #16]                   ; 8-byte Folded Reload
	.loc	82 12 14                        ; libframework/framework/src/Message.cpp:12:14
	ldur	x1, [x29, #-24]
Ltmp16:
	.loc	82 12 44                        ; libframework/framework/src/Message.cpp:12:44
	add	x2, x8, #40
	.loc	82 12 14                        ; libframework/framework/src/Message.cpp:12:14
	bl	__ZN6Looper16sendMessageDelayENSt3__16chrono8durationIxNS0_5ratioILl1ELl1000000000EEEEERKNS0_10shared_ptrI14MessageHandlerEERKNS6_I7MessageEE
Ltmp17:
	b	LBB6_1
LBB6_1:
	.loc	82 0 14                         ; libframework/framework/src/Message.cpp:0:14
	add	x0, sp, #40
	.loc	82 12 5                         ; libframework/framework/src/Message.cpp:12:5
	bl	__ZNSt3__110shared_ptrI7MessageED1Ev
	.loc	82 13 1 is_stmt 1               ; libframework/framework/src/Message.cpp:13:1
	ldp	x29, x30, [sp, #80]             ; 16-byte Folded Reload
	add	sp, sp, #96
	ret
LBB6_2:
Ltmp18:
	mov	x8, x1
	str	x0, [sp, #32]
	str	w8, [sp, #28]
	add	x0, sp, #40
	.loc	82 12 5                         ; libframework/framework/src/Message.cpp:12:5
	bl	__ZNSt3__110shared_ptrI7MessageED1Ev
	b	LBB6_3
LBB6_3:
	ldr	x0, [sp, #32]
	bl	__Unwind_Resume
Ltmp20:
Lfunc_end6:
	.cfi_endproc
	.section	__TEXT,__gcc_except_tab
	.p2align	2
GCC_except_table6:
Lexception1:
	.byte	255                             ; @LPStart Encoding = omit
	.byte	255                             ; @TType Encoding = omit
	.byte	1                               ; Call site Encoding = uleb128
	.uleb128 Lcst_end1-Lcst_begin1
Lcst_begin1:
	.uleb128 Lfunc_begin6-Lfunc_begin6      ; >> Call Site 1 <<
	.uleb128 Ltmp16-Lfunc_begin6            ;   Call between Lfunc_begin6 and Ltmp16
	.byte	0                               ;     has no landing pad
	.byte	0                               ;   On action: cleanup
	.uleb128 Ltmp16-Lfunc_begin6            ; >> Call Site 2 <<
	.uleb128 Ltmp17-Ltmp16                  ;   Call between Ltmp16 and Ltmp17
	.uleb128 Ltmp18-Lfunc_begin6            ;     jumps to Ltmp18
	.byte	0                               ;   On action: cleanup
	.uleb128 Ltmp17-Lfunc_begin6            ; >> Call Site 3 <<
	.uleb128 Lfunc_end6-Ltmp17              ;   Call between Ltmp17 and Lfunc_end6
	.byte	0                               ;     has no landing pad
	.byte	0                               ;   On action: cleanup
Lcst_end1:
	.p2align	2
                                        ; -- End function
	.section	__TEXT,__text,regular,pure_instructions
	.globl	__ZNSt3__110shared_ptrI6LooperED2Ev ; -- Begin function _ZNSt3__110shared_ptrI6LooperED2Ev
	.weak_def_can_be_hidden	__ZNSt3__110shared_ptrI6LooperED2Ev
	.p2align	2
__ZNSt3__110shared_ptrI6LooperED2Ev:    ; @_ZNSt3__110shared_ptrI6LooperED2Ev
Lfunc_begin7:
	.loc	1 957 0                         ; /Applications/Xcode.app/Contents/Developer/Platforms/MacOSX.platform/Developer/SDKs/MacOSX13.1.sdk/usr/include/c++/v1/__memory/shared_ptr.h:957:0
	.cfi_startproc
; %bb.0:
	sub	sp, sp, #48
	stp	x29, x30, [sp, #32]             ; 16-byte Folded Spill
	add	x29, sp, #32
	.cfi_def_cfa w29, 16
	.cfi_offset w30, -8
	.cfi_offset w29, -16
	str	x0, [sp, #16]
	ldr	x8, [sp, #16]
	str	x8, [sp, #8]                    ; 8-byte Folded Spill
	mov	x9, x8
	stur	x9, [x29, #-8]
Ltmp21:
	.loc	1 958 9 prologue_end            ; /Applications/Xcode.app/Contents/Developer/Platforms/MacOSX.platform/Developer/SDKs/MacOSX13.1.sdk/usr/include/c++/v1/__memory/shared_ptr.h:958:9
	ldr	x8, [x8, #8]
Ltmp22:
	.loc	1 958 9 is_stmt 0               ; /Applications/Xcode.app/Contents/Developer/Platforms/MacOSX.platform/Developer/SDKs/MacOSX13.1.sdk/usr/include/c++/v1/__memory/shared_ptr.h:958:9
	cbz	x8, LBB7_2
	b	LBB7_1
LBB7_1:
	.loc	1 0 9                           ; /Applications/Xcode.app/Contents/Developer/Platforms/MacOSX.platform/Developer/SDKs/MacOSX13.1.sdk/usr/include/c++/v1/__memory/shared_ptr.h:0:9
	ldr	x8, [sp, #8]                    ; 8-byte Folded Reload
Ltmp23:
	.loc	1 959 9 is_stmt 1               ; /Applications/Xcode.app/Contents/Developer/Platforms/MacOSX.platform/Developer/SDKs/MacOSX13.1.sdk/usr/include/c++/v1/__memory/shared_ptr.h:959:9
	ldr	x0, [x8, #8]
	.loc	1 959 19 is_stmt 0              ; /Applications/Xcode.app/Contents/Developer/Platforms/MacOSX.platform/Developer/SDKs/MacOSX13.1.sdk/usr/include/c++/v1/__memory/shared_ptr.h:959:19
	bl	__ZNSt3__119__shared_weak_count16__release_sharedEv
	.loc	1 959 9                         ; /Applications/Xcode.app/Contents/Developer/Platforms/MacOSX.platform/Developer/SDKs/MacOSX13.1.sdk/usr/include/c++/v1/__memory/shared_ptr.h:959:9
	b	LBB7_2
Ltmp24:
LBB7_2:
	.loc	1 960 1 is_stmt 1               ; /Applications/Xcode.app/Contents/Developer/Platforms/MacOSX.platform/Developer/SDKs/MacOSX13.1.sdk/usr/include/c++/v1/__memory/shared_ptr.h:960:1
	ldur	x0, [x29, #-8]
	ldp	x29, x30, [sp, #32]             ; 16-byte Folded Reload
	add	sp, sp, #48
	ret
Ltmp25:
Lfunc_end7:
	.cfi_endproc
                                        ; -- End function
	.p2align	2                               ; -- Begin function _ZNSt3__119__shared_weak_count16__release_sharedEv
__ZNSt3__119__shared_weak_count16__release_sharedEv: ; @_ZNSt3__119__shared_weak_count16__release_sharedEv
Lfunc_begin8:
	.loc	1 218 0                         ; /Applications/Xcode.app/Contents/Developer/Platforms/MacOSX.platform/Developer/SDKs/MacOSX13.1.sdk/usr/include/c++/v1/__memory/shared_ptr.h:218:0
	.cfi_startproc
; %bb.0:
	sub	sp, sp, #32
	stp	x29, x30, [sp, #16]             ; 16-byte Folded Spill
	add	x29, sp, #16
	.cfi_def_cfa w29, 16
	.cfi_offset w30, -8
	.cfi_offset w29, -16
	str	x0, [sp, #8]
	ldr	x0, [sp, #8]
	str	x0, [sp]                        ; 8-byte Folded Spill
Ltmp26:
	.loc	1 219 27 prologue_end           ; /Applications/Xcode.app/Contents/Developer/Platforms/MacOSX.platform/Developer/SDKs/MacOSX13.1.sdk/usr/include/c++/v1/__memory/shared_ptr.h:219:27
	bl	__ZNSt3__114__shared_count16__release_sharedEv
Ltmp27:
	.loc	1 219 11 is_stmt 0              ; /Applications/Xcode.app/Contents/Developer/Platforms/MacOSX.platform/Developer/SDKs/MacOSX13.1.sdk/usr/include/c++/v1/__memory/shared_ptr.h:219:11
	tbz	w0, #0, LBB8_2
	b	LBB8_1
LBB8_1:
	.loc	1 0 11                          ; /Applications/Xcode.app/Contents/Developer/Platforms/MacOSX.platform/Developer/SDKs/MacOSX13.1.sdk/usr/include/c++/v1/__memory/shared_ptr.h:0:11
	ldr	x0, [sp]                        ; 8-byte Folded Reload
Ltmp28:
	.loc	1 220 9 is_stmt 1               ; /Applications/Xcode.app/Contents/Developer/Platforms/MacOSX.platform/Developer/SDKs/MacOSX13.1.sdk/usr/include/c++/v1/__memory/shared_ptr.h:220:9
	bl	__ZNSt3__119__shared_weak_count14__release_weakEv
	b	LBB8_2
Ltmp29:
LBB8_2:
	.loc	1 221 5                         ; /Applications/Xcode.app/Contents/Developer/Platforms/MacOSX.platform/Developer/SDKs/MacOSX13.1.sdk/usr/include/c++/v1/__memory/shared_ptr.h:221:5
	ldp	x29, x30, [sp, #16]             ; 16-byte Folded Reload
	add	sp, sp, #32
	ret
Ltmp30:
Lfunc_end8:
	.cfi_endproc
                                        ; -- End function
	.p2align	2                               ; -- Begin function _ZNSt3__114__shared_count16__release_sharedEv
__ZNSt3__114__shared_count16__release_sharedEv: ; @_ZNSt3__114__shared_count16__release_sharedEv
Lfunc_begin9:
	.loc	1 175 0                         ; /Applications/Xcode.app/Contents/Developer/Platforms/MacOSX.platform/Developer/SDKs/MacOSX13.1.sdk/usr/include/c++/v1/__memory/shared_ptr.h:175:0
	.cfi_startproc
; %bb.0:
	sub	sp, sp, #48
	stp	x29, x30, [sp, #32]             ; 16-byte Folded Spill
	add	x29, sp, #32
	.cfi_def_cfa w29, 16
	.cfi_offset w30, -8
	.cfi_offset w29, -16
	str	x0, [sp, #16]
	ldr	x8, [sp, #16]
	str	x8, [sp, #8]                    ; 8-byte Folded Spill
Ltmp31:
	.loc	1 176 46 prologue_end           ; /Applications/Xcode.app/Contents/Developer/Platforms/MacOSX.platform/Developer/SDKs/MacOSX13.1.sdk/usr/include/c++/v1/__memory/shared_ptr.h:176:46
	add	x0, x8, #8
	.loc	1 176 11 is_stmt 0              ; /Applications/Xcode.app/Contents/Developer/Platforms/MacOSX.platform/Developer/SDKs/MacOSX13.1.sdk/usr/include/c++/v1/__memory/shared_ptr.h:176:11
	bl	__ZNSt3__1L34__libcpp_atomic_refcount_decrementIlEET_RS1_
Ltmp32:
	.loc	1 176 11                        ; /Applications/Xcode.app/Contents/Developer/Platforms/MacOSX.platform/Developer/SDKs/MacOSX13.1.sdk/usr/include/c++/v1/__memory/shared_ptr.h:176:11
	adds	x8, x0, #1
	b.ne	LBB9_2
	b	LBB9_1
LBB9_1:
	.loc	1 0 11                          ; /Applications/Xcode.app/Contents/Developer/Platforms/MacOSX.platform/Developer/SDKs/MacOSX13.1.sdk/usr/include/c++/v1/__memory/shared_ptr.h:0:11
	ldr	x0, [sp, #8]                    ; 8-byte Folded Reload
Ltmp33:
	.loc	1 177 9 is_stmt 1               ; /Applications/Xcode.app/Contents/Developer/Platforms/MacOSX.platform/Developer/SDKs/MacOSX13.1.sdk/usr/include/c++/v1/__memory/shared_ptr.h:177:9
	ldr	x8, [x0]
	ldr	x8, [x8, #16]
	blr	x8
	mov	w8, #1
	.loc	1 178 9                         ; /Applications/Xcode.app/Contents/Developer/Platforms/MacOSX.platform/Developer/SDKs/MacOSX13.1.sdk/usr/include/c++/v1/__memory/shared_ptr.h:178:9
	and	w8, w8, #0x1
	and	w8, w8, #0x1
	sturb	w8, [x29, #-1]
	b	LBB9_3
Ltmp34:
LBB9_2:
	.loc	1 0 9 is_stmt 0                 ; /Applications/Xcode.app/Contents/Developer/Platforms/MacOSX.platform/Developer/SDKs/MacOSX13.1.sdk/usr/include/c++/v1/__memory/shared_ptr.h:0:9
	mov	w8, #0
	.loc	1 180 7 is_stmt 1               ; /Applications/Xcode.app/Contents/Developer/Platforms/MacOSX.platform/Developer/SDKs/MacOSX13.1.sdk/usr/include/c++/v1/__memory/shared_ptr.h:180:7
	and	w8, w8, #0x1
	and	w8, w8, #0x1
	sturb	w8, [x29, #-1]
	b	LBB9_3
LBB9_3:
	.loc	1 181 5                         ; /Applications/Xcode.app/Contents/Developer/Platforms/MacOSX.platform/Developer/SDKs/MacOSX13.1.sdk/usr/include/c++/v1/__memory/shared_ptr.h:181:5
	ldurb	w8, [x29, #-1]
	and	w0, w8, #0x1
	ldp	x29, x30, [sp, #32]             ; 16-byte Folded Reload
	add	sp, sp, #48
	ret
Ltmp35:
Lfunc_end9:
	.cfi_endproc
                                        ; -- End function
	.p2align	2                               ; -- Begin function _ZNSt3__1L34__libcpp_atomic_refcount_decrementIlEET_RS1_
__ZNSt3__1L34__libcpp_atomic_refcount_decrementIlEET_RS1_: ; @_ZNSt3__1L34__libcpp_atomic_refcount_decrementIlEET_RS1_
Lfunc_begin10:
	.loc	1 119 0                         ; /Applications/Xcode.app/Contents/Developer/Platforms/MacOSX.platform/Developer/SDKs/MacOSX13.1.sdk/usr/include/c++/v1/__memory/shared_ptr.h:119:0
	.cfi_startproc
; %bb.0:
	sub	sp, sp, #32
	.cfi_def_cfa_offset 32
	str	x0, [sp, #24]
Ltmp37:
	.loc	1 121 32 prologue_end           ; /Applications/Xcode.app/Contents/Developer/Platforms/MacOSX.platform/Developer/SDKs/MacOSX13.1.sdk/usr/include/c++/v1/__memory/shared_ptr.h:121:32
	ldr	x8, [sp, #24]
	mov	x9, #-1
	.loc	1 121 12 is_stmt 0              ; /Applications/Xcode.app/Contents/Developer/Platforms/MacOSX.platform/Developer/SDKs/MacOSX13.1.sdk/usr/include/c++/v1/__memory/shared_ptr.h:121:12
	str	x9, [sp, #16]
	ldr	x9, [sp, #16]
	ldaddal	x9, x8, [x8]
	add	x8, x8, x9
	str	x8, [sp, #8]
	ldr	x0, [sp, #8]
	.loc	1 121 5                         ; /Applications/Xcode.app/Contents/Developer/Platforms/MacOSX.platform/Developer/SDKs/MacOSX13.1.sdk/usr/include/c++/v1/__memory/shared_ptr.h:121:5
	add	sp, sp, #32
	ret
Ltmp38:
Lfunc_end10:
	.cfi_endproc
                                        ; -- End function
	.globl	__ZNSt3__110shared_ptrI7MessageEC1IS1_EERKNS_8weak_ptrIT_EENS_9enable_ifIXsr14is_convertibleIPS5_PS1_EE5valueENS2_5__natEE4typeE ; -- Begin function _ZNSt3__110shared_ptrI7MessageEC1IS1_EERKNS_8weak_ptrIT_EENS_9enable_ifIXsr14is_convertibleIPS5_PS1_EE5valueENS2_5__natEE4typeE
	.weak_def_can_be_hidden	__ZNSt3__110shared_ptrI7MessageEC1IS1_EERKNS_8weak_ptrIT_EENS_9enable_ifIXsr14is_convertibleIPS5_PS1_EE5valueENS2_5__natEE4typeE
	.p2align	2
__ZNSt3__110shared_ptrI7MessageEC1IS1_EERKNS_8weak_ptrIT_EENS_9enable_ifIXsr14is_convertibleIPS5_PS1_EE5valueENS2_5__natEE4typeE: ; @_ZNSt3__110shared_ptrI7MessageEC1IS1_EERKNS_8weak_ptrIT_EENS_9enable_ifIXsr14is_convertibleIPS5_PS1_EE5valueENS2_5__natEE4typeE
Lfunc_begin11:
	.loc	1 1580 0 is_stmt 1              ; /Applications/Xcode.app/Contents/Developer/Platforms/MacOSX.platform/Developer/SDKs/MacOSX13.1.sdk/usr/include/c++/v1/__memory/shared_ptr.h:1580:0
	.cfi_startproc
; %bb.0:
	sub	sp, sp, #48
	stp	x29, x30, [sp, #32]             ; 16-byte Folded Spill
	add	x29, sp, #32
	.cfi_def_cfa w29, 16
	.cfi_offset w30, -8
	.cfi_offset w29, -16
	mov	x8, x2
	stur	w8, [x29, #-4]
	str	x0, [sp, #16]
	str	x1, [sp, #8]
	ldr	x0, [sp, #16]
	str	x0, [sp]                        ; 8-byte Folded Spill
Ltmp39:
	.loc	1 1580 1 prologue_end           ; /Applications/Xcode.app/Contents/Developer/Platforms/MacOSX.platform/Developer/SDKs/MacOSX13.1.sdk/usr/include/c++/v1/__memory/shared_ptr.h:1580:1
	ldr	x1, [sp, #8]
	ldur	w8, [x29, #-4]
	mov	x2, x8
	bl	__ZNSt3__110shared_ptrI7MessageEC2IS1_EERKNS_8weak_ptrIT_EENS_9enable_ifIXsr14is_convertibleIPS5_PS1_EE5valueENS2_5__natEE4typeE
	ldr	x0, [sp]                        ; 8-byte Folded Reload
	.loc	1 1583 1                        ; /Applications/Xcode.app/Contents/Developer/Platforms/MacOSX.platform/Developer/SDKs/MacOSX13.1.sdk/usr/include/c++/v1/__memory/shared_ptr.h:1583:1
	ldp	x29, x30, [sp, #32]             ; 16-byte Folded Reload
	add	sp, sp, #48
	ret
Ltmp40:
Lfunc_end11:
	.cfi_endproc
                                        ; -- End function
	.globl	__ZNSt3__110shared_ptrI7MessageEC2IS1_EERKNS_8weak_ptrIT_EENS_9enable_ifIXsr14is_convertibleIPS5_PS1_EE5valueENS2_5__natEE4typeE ; -- Begin function _ZNSt3__110shared_ptrI7MessageEC2IS1_EERKNS_8weak_ptrIT_EENS_9enable_ifIXsr14is_convertibleIPS5_PS1_EE5valueENS2_5__natEE4typeE
	.weak_def_can_be_hidden	__ZNSt3__110shared_ptrI7MessageEC2IS1_EERKNS_8weak_ptrIT_EENS_9enable_ifIXsr14is_convertibleIPS5_PS1_EE5valueENS2_5__natEE4typeE
	.p2align	2
__ZNSt3__110shared_ptrI7MessageEC2IS1_EERKNS_8weak_ptrIT_EENS_9enable_ifIXsr14is_convertibleIPS5_PS1_EE5valueENS2_5__natEE4typeE: ; @_ZNSt3__110shared_ptrI7MessageEC2IS1_EERKNS_8weak_ptrIT_EENS_9enable_ifIXsr14is_convertibleIPS5_PS1_EE5valueENS2_5__natEE4typeE
Lfunc_begin12:
	.loc	1 1580 0                        ; /Applications/Xcode.app/Contents/Developer/Platforms/MacOSX.platform/Developer/SDKs/MacOSX13.1.sdk/usr/include/c++/v1/__memory/shared_ptr.h:1580:0
	.cfi_startproc
; %bb.0:
	sub	sp, sp, #64
	stp	x29, x30, [sp, #48]             ; 16-byte Folded Spill
	add	x29, sp, #48
	.cfi_def_cfa w29, 16
	.cfi_offset w30, -8
	.cfi_offset w29, -16
	mov	x8, x2
	stur	w8, [x29, #-12]
	str	x0, [sp, #24]
	str	x1, [sp, #16]
	ldr	x9, [sp, #24]
	str	x9, [sp, #8]                    ; 8-byte Folded Spill
	mov	x8, x9
	stur	x8, [x29, #-8]
Ltmp41:
	.loc	1 1578 14 prologue_end          ; /Applications/Xcode.app/Contents/Developer/Platforms/MacOSX.platform/Developer/SDKs/MacOSX13.1.sdk/usr/include/c++/v1/__memory/shared_ptr.h:1578:14
	ldr	x8, [sp, #16]
	.loc	1 1578 18 is_stmt 0             ; /Applications/Xcode.app/Contents/Developer/Platforms/MacOSX.platform/Developer/SDKs/MacOSX13.1.sdk/usr/include/c++/v1/__memory/shared_ptr.h:1578:18
	ldr	x8, [x8]
	.loc	1 1578 7                        ; /Applications/Xcode.app/Contents/Developer/Platforms/MacOSX.platform/Developer/SDKs/MacOSX13.1.sdk/usr/include/c++/v1/__memory/shared_ptr.h:1578:7
	str	x8, [x9]
	.loc	1 1579 16 is_stmt 1             ; /Applications/Xcode.app/Contents/Developer/Platforms/MacOSX.platform/Developer/SDKs/MacOSX13.1.sdk/usr/include/c++/v1/__memory/shared_ptr.h:1579:16
	ldr	x8, [sp, #16]
	.loc	1 1579 20 is_stmt 0             ; /Applications/Xcode.app/Contents/Developer/Platforms/MacOSX.platform/Developer/SDKs/MacOSX13.1.sdk/usr/include/c++/v1/__memory/shared_ptr.h:1579:20
	ldr	x8, [x8, #8]
	.loc	1 1579 16                       ; /Applications/Xcode.app/Contents/Developer/Platforms/MacOSX.platform/Developer/SDKs/MacOSX13.1.sdk/usr/include/c++/v1/__memory/shared_ptr.h:1579:16
	cbz	x8, LBB12_2
	b	LBB12_1
LBB12_1:
	.loc	1 1579 31                       ; /Applications/Xcode.app/Contents/Developer/Platforms/MacOSX.platform/Developer/SDKs/MacOSX13.1.sdk/usr/include/c++/v1/__memory/shared_ptr.h:1579:31
	ldr	x8, [sp, #16]
	.loc	1 1579 35                       ; /Applications/Xcode.app/Contents/Developer/Platforms/MacOSX.platform/Developer/SDKs/MacOSX13.1.sdk/usr/include/c++/v1/__memory/shared_ptr.h:1579:35
	ldr	x0, [x8, #8]
	.loc	1 1579 45                       ; /Applications/Xcode.app/Contents/Developer/Platforms/MacOSX.platform/Developer/SDKs/MacOSX13.1.sdk/usr/include/c++/v1/__memory/shared_ptr.h:1579:45
	bl	__ZNSt3__119__shared_weak_count4lockEv
	str	x0, [sp]                        ; 8-byte Folded Spill
	.loc	1 1579 16                       ; /Applications/Xcode.app/Contents/Developer/Platforms/MacOSX.platform/Developer/SDKs/MacOSX13.1.sdk/usr/include/c++/v1/__memory/shared_ptr.h:1579:16
	b	LBB12_3
LBB12_2:
	.loc	1 1579 54                       ; /Applications/Xcode.app/Contents/Developer/Platforms/MacOSX.platform/Developer/SDKs/MacOSX13.1.sdk/usr/include/c++/v1/__memory/shared_ptr.h:1579:54
	ldr	x8, [sp, #16]
	.loc	1 1579 58                       ; /Applications/Xcode.app/Contents/Developer/Platforms/MacOSX.platform/Developer/SDKs/MacOSX13.1.sdk/usr/include/c++/v1/__memory/shared_ptr.h:1579:58
	ldr	x8, [x8, #8]
	str	x8, [sp]                        ; 8-byte Folded Spill
	.loc	1 1579 16                       ; /Applications/Xcode.app/Contents/Developer/Platforms/MacOSX.platform/Developer/SDKs/MacOSX13.1.sdk/usr/include/c++/v1/__memory/shared_ptr.h:1579:16
	b	LBB12_3
LBB12_3:
	.loc	1 0 16                          ; /Applications/Xcode.app/Contents/Developer/Platforms/MacOSX.platform/Developer/SDKs/MacOSX13.1.sdk/usr/include/c++/v1/__memory/shared_ptr.h:0:16
	ldr	x8, [sp, #8]                    ; 8-byte Folded Reload
	ldr	x9, [sp]                        ; 8-byte Folded Reload
	.loc	1 1579 7                        ; /Applications/Xcode.app/Contents/Developer/Platforms/MacOSX.platform/Developer/SDKs/MacOSX13.1.sdk/usr/include/c++/v1/__memory/shared_ptr.h:1579:7
	str	x9, [x8, #8]
Ltmp42:
	.loc	1 1581 9 is_stmt 1              ; /Applications/Xcode.app/Contents/Developer/Platforms/MacOSX.platform/Developer/SDKs/MacOSX13.1.sdk/usr/include/c++/v1/__memory/shared_ptr.h:1581:9
	ldr	x8, [x8, #8]
Ltmp43:
	.loc	1 1581 9 is_stmt 0              ; /Applications/Xcode.app/Contents/Developer/Platforms/MacOSX.platform/Developer/SDKs/MacOSX13.1.sdk/usr/include/c++/v1/__memory/shared_ptr.h:1581:9
	cbnz	x8, LBB12_5
	b	LBB12_4
LBB12_4:
Ltmp44:
	.loc	1 1582 9 is_stmt 1              ; /Applications/Xcode.app/Contents/Developer/Platforms/MacOSX.platform/Developer/SDKs/MacOSX13.1.sdk/usr/include/c++/v1/__memory/shared_ptr.h:1582:9
	bl	__ZNSt3__1L20__throw_bad_weak_ptrEv
Ltmp45:
LBB12_5:
	.loc	1 1583 1                        ; /Applications/Xcode.app/Contents/Developer/Platforms/MacOSX.platform/Developer/SDKs/MacOSX13.1.sdk/usr/include/c++/v1/__memory/shared_ptr.h:1583:1
	ldur	x0, [x29, #-8]
	ldp	x29, x30, [sp, #48]             ; 16-byte Folded Reload
	add	sp, sp, #64
	ret
Ltmp46:
Lfunc_end12:
	.cfi_endproc
                                        ; -- End function
	.p2align	2                               ; -- Begin function _ZNSt3__1L20__throw_bad_weak_ptrEv
__ZNSt3__1L20__throw_bad_weak_ptrEv:    ; @_ZNSt3__1L20__throw_bad_weak_ptrEv
Lfunc_begin13:
	.loc	1 139 0                         ; /Applications/Xcode.app/Contents/Developer/Platforms/MacOSX.platform/Developer/SDKs/MacOSX13.1.sdk/usr/include/c++/v1/__memory/shared_ptr.h:139:0
	.cfi_startproc
; %bb.0:
	sub	sp, sp, #32
	stp	x29, x30, [sp, #16]             ; 16-byte Folded Spill
	add	x29, sp, #16
	.cfi_def_cfa w29, 16
	.cfi_offset w30, -8
	.cfi_offset w29, -16
	mov	x0, #8
Ltmp47:
	.loc	1 141 5 prologue_end            ; /Applications/Xcode.app/Contents/Developer/Platforms/MacOSX.platform/Developer/SDKs/MacOSX13.1.sdk/usr/include/c++/v1/__memory/shared_ptr.h:141:5
	bl	___cxa_allocate_exception
	str	x0, [sp, #8]                    ; 8-byte Folded Spill
	.loc	1 141 11 is_stmt 0              ; /Applications/Xcode.app/Contents/Developer/Platforms/MacOSX.platform/Developer/SDKs/MacOSX13.1.sdk/usr/include/c++/v1/__memory/shared_ptr.h:141:11
	str	xzr, [x0]
	bl	__ZNSt3__112bad_weak_ptrC1Ev
	ldr	x0, [sp, #8]                    ; 8-byte Folded Reload
	.loc	1 0 0                           ; /Applications/Xcode.app/Contents/Developer/Platforms/MacOSX.platform/Developer/SDKs/MacOSX13.1.sdk/usr/include/c++/v1/__memory/shared_ptr.h:0:0
	adrp	x1, __ZTINSt3__112bad_weak_ptrE@GOTPAGE
	ldr	x1, [x1, __ZTINSt3__112bad_weak_ptrE@GOTPAGEOFF]
	adrp	x2, __ZNSt3__112bad_weak_ptrD1Ev@GOTPAGE
	ldr	x2, [x2, __ZNSt3__112bad_weak_ptrD1Ev@GOTPAGEOFF]
	.loc	1 141 5                         ; /Applications/Xcode.app/Contents/Developer/Platforms/MacOSX.platform/Developer/SDKs/MacOSX13.1.sdk/usr/include/c++/v1/__memory/shared_ptr.h:141:5
	bl	___cxa_throw
Ltmp48:
Lfunc_end13:
	.cfi_endproc
                                        ; -- End function
	.globl	__ZNSt3__112bad_weak_ptrC1Ev    ; -- Begin function _ZNSt3__112bad_weak_ptrC1Ev
	.weak_def_can_be_hidden	__ZNSt3__112bad_weak_ptrC1Ev
	.p2align	2
__ZNSt3__112bad_weak_ptrC1Ev:           ; @_ZNSt3__112bad_weak_ptrC1Ev
Lfunc_begin14:
	.loc	1 131 0 is_stmt 1               ; /Applications/Xcode.app/Contents/Developer/Platforms/MacOSX.platform/Developer/SDKs/MacOSX13.1.sdk/usr/include/c++/v1/__memory/shared_ptr.h:131:0
	.cfi_startproc
; %bb.0:
	sub	sp, sp, #32
	stp	x29, x30, [sp, #16]             ; 16-byte Folded Spill
	add	x29, sp, #16
	.cfi_def_cfa w29, 16
	.cfi_offset w30, -8
	.cfi_offset w29, -16
	str	x0, [sp, #8]
	ldr	x0, [sp, #8]
	str	x0, [sp]                        ; 8-byte Folded Spill
Ltmp49:
	.loc	1 131 37 prologue_end           ; /Applications/Xcode.app/Contents/Developer/Platforms/MacOSX.platform/Developer/SDKs/MacOSX13.1.sdk/usr/include/c++/v1/__memory/shared_ptr.h:131:37
	bl	__ZNSt3__112bad_weak_ptrC2Ev
	ldr	x0, [sp]                        ; 8-byte Folded Reload
	ldp	x29, x30, [sp, #16]             ; 16-byte Folded Reload
	add	sp, sp, #32
	ret
Ltmp50:
Lfunc_end14:
	.cfi_endproc
	.file	83 "/Applications/Xcode.app/Contents/Developer/Platforms/MacOSX.platform/Developer/SDKs/MacOSX13.1.sdk/usr/include/c++/v1" "exception"
                                        ; -- End function
	.globl	__ZNSt3__112bad_weak_ptrC2Ev    ; -- Begin function _ZNSt3__112bad_weak_ptrC2Ev
	.weak_def_can_be_hidden	__ZNSt3__112bad_weak_ptrC2Ev
	.p2align	2
__ZNSt3__112bad_weak_ptrC2Ev:           ; @_ZNSt3__112bad_weak_ptrC2Ev
Lfunc_begin15:
	.loc	1 131 0                         ; /Applications/Xcode.app/Contents/Developer/Platforms/MacOSX.platform/Developer/SDKs/MacOSX13.1.sdk/usr/include/c++/v1/__memory/shared_ptr.h:131:0
	.cfi_startproc
; %bb.0:
	sub	sp, sp, #48
	stp	x29, x30, [sp, #32]             ; 16-byte Folded Spill
	add	x29, sp, #32
	.cfi_def_cfa w29, 16
	.cfi_offset w30, -8
	.cfi_offset w29, -16
Ltmp51:
	.loc	1 0 0 is_stmt 0                 ; /Applications/Xcode.app/Contents/Developer/Platforms/MacOSX.platform/Developer/SDKs/MacOSX13.1.sdk/usr/include/c++/v1/__memory/shared_ptr.h:0:0
	adrp	x8, __ZTVNSt3__112bad_weak_ptrE@GOTPAGE
	ldr	x8, [x8, __ZTVNSt3__112bad_weak_ptrE@GOTPAGEOFF]
	add	x8, x8, #16
	str	x8, [sp, #16]                   ; 8-byte Folded Spill
	stur	x0, [x29, #-8]
	ldur	x0, [x29, #-8]
	str	x0, [sp, #8]                    ; 8-byte Folded Spill
	.loc	1 131 5 prologue_end is_stmt 1  ; /Applications/Xcode.app/Contents/Developer/Platforms/MacOSX.platform/Developer/SDKs/MacOSX13.1.sdk/usr/include/c++/v1/__memory/shared_ptr.h:131:5
	bl	__ZNSt9exceptionC2Ev
	ldr	x0, [sp, #8]                    ; 8-byte Folded Reload
	ldr	x8, [sp, #16]                   ; 8-byte Folded Reload
	.loc	1 131 37 is_stmt 0              ; /Applications/Xcode.app/Contents/Developer/Platforms/MacOSX.platform/Developer/SDKs/MacOSX13.1.sdk/usr/include/c++/v1/__memory/shared_ptr.h:131:37
	str	x8, [x0]
	ldp	x29, x30, [sp, #32]             ; 16-byte Folded Reload
	add	sp, sp, #48
	ret
Ltmp52:
Lfunc_end15:
	.cfi_endproc
                                        ; -- End function
	.p2align	2                               ; -- Begin function _ZNSt9exceptionC2Ev
__ZNSt9exceptionC2Ev:                   ; @_ZNSt9exceptionC2Ev
Lfunc_begin16:
	.loc	83 102 0 is_stmt 1              ; /Applications/Xcode.app/Contents/Developer/Platforms/MacOSX.platform/Developer/SDKs/MacOSX13.1.sdk/usr/include/c++/v1/exception:102:0
	.cfi_startproc
; %bb.0:
	sub	sp, sp, #16
	.cfi_def_cfa_offset 16
Ltmp54:
	.loc	83 0 0 is_stmt 0                ; /Applications/Xcode.app/Contents/Developer/Platforms/MacOSX.platform/Developer/SDKs/MacOSX13.1.sdk/usr/include/c++/v1/exception:0:0
	adrp	x8, __ZTVSt9exception@GOTPAGE
	ldr	x8, [x8, __ZTVSt9exception@GOTPAGEOFF]
	add	x8, x8, #16
	str	x0, [sp, #8]
	ldr	x0, [sp, #8]
	.loc	83 102 104 prologue_end is_stmt 1 ; /Applications/Xcode.app/Contents/Developer/Platforms/MacOSX.platform/Developer/SDKs/MacOSX13.1.sdk/usr/include/c++/v1/exception:102:104
	str	x8, [x0]
	.loc	83 102 105 is_stmt 0            ; /Applications/Xcode.app/Contents/Developer/Platforms/MacOSX.platform/Developer/SDKs/MacOSX13.1.sdk/usr/include/c++/v1/exception:102:105
	add	sp, sp, #16
	ret
Ltmp55:
Lfunc_end16:
	.cfi_endproc
                                        ; -- End function
	.globl	__ZNSt3__110shared_ptrI7MessageED2Ev ; -- Begin function _ZNSt3__110shared_ptrI7MessageED2Ev
	.weak_def_can_be_hidden	__ZNSt3__110shared_ptrI7MessageED2Ev
	.p2align	2
__ZNSt3__110shared_ptrI7MessageED2Ev:   ; @_ZNSt3__110shared_ptrI7MessageED2Ev
Lfunc_begin17:
	.loc	1 957 0 is_stmt 1               ; /Applications/Xcode.app/Contents/Developer/Platforms/MacOSX.platform/Developer/SDKs/MacOSX13.1.sdk/usr/include/c++/v1/__memory/shared_ptr.h:957:0
	.cfi_startproc
; %bb.0:
	sub	sp, sp, #48
	stp	x29, x30, [sp, #32]             ; 16-byte Folded Spill
	add	x29, sp, #32
	.cfi_def_cfa w29, 16
	.cfi_offset w30, -8
	.cfi_offset w29, -16
	str	x0, [sp, #16]
	ldr	x8, [sp, #16]
	str	x8, [sp, #8]                    ; 8-byte Folded Spill
	mov	x9, x8
	stur	x9, [x29, #-8]
Ltmp56:
	.loc	1 958 9 prologue_end            ; /Applications/Xcode.app/Contents/Developer/Platforms/MacOSX.platform/Developer/SDKs/MacOSX13.1.sdk/usr/include/c++/v1/__memory/shared_ptr.h:958:9
	ldr	x8, [x8, #8]
Ltmp57:
	.loc	1 958 9 is_stmt 0               ; /Applications/Xcode.app/Contents/Developer/Platforms/MacOSX.platform/Developer/SDKs/MacOSX13.1.sdk/usr/include/c++/v1/__memory/shared_ptr.h:958:9
	cbz	x8, LBB17_2
	b	LBB17_1
LBB17_1:
	.loc	1 0 9                           ; /Applications/Xcode.app/Contents/Developer/Platforms/MacOSX.platform/Developer/SDKs/MacOSX13.1.sdk/usr/include/c++/v1/__memory/shared_ptr.h:0:9
	ldr	x8, [sp, #8]                    ; 8-byte Folded Reload
Ltmp58:
	.loc	1 959 9 is_stmt 1               ; /Applications/Xcode.app/Contents/Developer/Platforms/MacOSX.platform/Developer/SDKs/MacOSX13.1.sdk/usr/include/c++/v1/__memory/shared_ptr.h:959:9
	ldr	x0, [x8, #8]
	.loc	1 959 19 is_stmt 0              ; /Applications/Xcode.app/Contents/Developer/Platforms/MacOSX.platform/Developer/SDKs/MacOSX13.1.sdk/usr/include/c++/v1/__memory/shared_ptr.h:959:19
	bl	__ZNSt3__119__shared_weak_count16__release_sharedEv
	.loc	1 959 9                         ; /Applications/Xcode.app/Contents/Developer/Platforms/MacOSX.platform/Developer/SDKs/MacOSX13.1.sdk/usr/include/c++/v1/__memory/shared_ptr.h:959:9
	b	LBB17_2
Ltmp59:
LBB17_2:
	.loc	1 960 1 is_stmt 1               ; /Applications/Xcode.app/Contents/Developer/Platforms/MacOSX.platform/Developer/SDKs/MacOSX13.1.sdk/usr/include/c++/v1/__memory/shared_ptr.h:960:1
	ldur	x0, [x29, #-8]
	ldp	x29, x30, [sp, #32]             ; 16-byte Folded Reload
	add	sp, sp, #48
	ret
Ltmp60:
Lfunc_end17:
	.cfi_endproc
                                        ; -- End function
	.section	__DATA,__data
	.globl	__ZN5Invok7mLooperE             ; @_ZN5Invok7mLooperE
	.weak_definition	__ZN5Invok7mLooperE
	.p2align	3
__ZN5Invok7mLooperE:
	.space	16

	.globl	__ZGVN5Invok7mLooperE           ; @_ZGVN5Invok7mLooperE
	.weak_definition	__ZGVN5Invok7mLooperE
	.p2align	3
__ZGVN5Invok7mLooperE:
	.quad	0                               ; 0x0

	.section	__DATA,__mod_init_func,mod_init_funcs
	.p2align	3
	.quad	___cxx_global_var_init