	.section	__TEXT,__text,regular,pure_instructions
	.build_version macos, 13, 0	sdk_version 13, 1
	.file	1 "/Applications/Xcode.app/Contents/Developer/Platforms/MacOSX.platform/Developer/SDKs/MacOSX13.1.sdk/usr/include/c++/v1/__memory" "shared_ptr.h"
	.file	2 "/Applications/Xcode.app/Contents/Developer/Platforms/MacOSX.platform/Developer/SDKs/MacOSX13.1.sdk/usr/include/c++/v1" "typeinfo"
	.file	3 "/Applications/Xcode.app/Contents/Developer/Platforms/MacOSX.platform/Developer/SDKs/MacOSX13.1.sdk/usr/include/sys/_types" "_uintptr_t.h"
	.file	4 "/Applications/Xcode.app/Contents/Developer/Toolchains/XcodeDefault.xctoolchain/usr/lib/clang/14.0.0/include" "stddef.h"
	.file	5 "/Users/xieyao/Desktop/git/C-/mac/myproject" "libframework/framework/include/framework/Looper.h"
	.file	6 "/Users/xieyao/Desktop/git/C-/mac/myproject" "libframework/framework/include/framework/Message.h"
	.file	7 "/Applications/Xcode.app/Contents/Developer/Platforms/MacOSX.platform/Developer/SDKs/MacOSX13.1.sdk/usr/include/c++/v1/__functional" "unary_function.h"
	.file	8 "/Applications/Xcode.app/Contents/Developer/Platforms/MacOSX.platform/Developer/SDKs/MacOSX13.1.sdk/usr/include/c++/v1/__functional" "hash.h"
	.file	9 "/Applications/Xcode.app/Contents/Developer/Platforms/MacOSX.platform/Developer/SDKs/MacOSX13.1.sdk/usr/include/c++/v1/__functional" "binary_function.h"
	.file	10 "/Applications/Xcode.app/Contents/Developer/Platforms/MacOSX.platform/Developer/SDKs/MacOSX13.1.sdk/usr/include/c++/v1/__functional" "operations.h"
	.file	11 "/Applications/Xcode.app/Contents/Developer/Platforms/MacOSX.platform/Developer/SDKs/MacOSX13.1.sdk/usr/include/c++/v1/__memory" "allocator.h"
	.file	12 "/Applications/Xcode.app/Contents/Developer/Platforms/MacOSX.platform/Developer/SDKs/MacOSX13.1.sdk/usr/include/c++/v1" "unordered_map"
	.file	13 "/Applications/Xcode.app/Contents/Developer/Platforms/MacOSX.platform/Developer/SDKs/MacOSX13.1.sdk/usr/include/c++/v1" "type_traits"
	.file	14 "/Applications/Xcode.app/Contents/Developer/Platforms/MacOSX.platform/Developer/SDKs/MacOSX13.1.sdk/usr/include/c++/v1" "__hash_table"
	.file	15 "/Applications/Xcode.app/Contents/Developer/Platforms/MacOSX.platform/Developer/SDKs/MacOSX13.1.sdk/usr/include/c++/v1/__memory" "compressed_pair.h"
	.file	16 "/Applications/Xcode.app/Contents/Developer/Platforms/MacOSX.platform/Developer/SDKs/MacOSX13.1.sdk/usr/include/c++/v1/__memory" "allocator_traits.h"
	.file	17 "/Applications/Xcode.app/Contents/Developer/Platforms/MacOSX.platform/Developer/SDKs/MacOSX13.1.sdk/usr/include/c++/v1/__memory" "unique_ptr.h"
	.file	18 "/Applications/Xcode.app/Contents/Developer/Platforms/MacOSX.platform/Developer/SDKs/MacOSX13.1.sdk/usr/include/c++/v1" "__nullptr"
	.file	19 "/Applications/Xcode.app/Contents/Developer/Platforms/MacOSX.platform/Developer/SDKs/MacOSX13.1.sdk/usr/include/c++/v1" "__node_handle"
	.file	20 "/Applications/Xcode.app/Contents/Developer/Platforms/MacOSX.platform/Developer/SDKs/MacOSX13.1.sdk/usr/include/sys/_pthread" "_pthread_types.h"
	.file	21 "/Applications/Xcode.app/Contents/Developer/Platforms/MacOSX.platform/Developer/SDKs/MacOSX13.1.sdk/usr/include/sys/_pthread" "_pthread_mutex_t.h"
	.file	22 "/Applications/Xcode.app/Contents/Developer/Platforms/MacOSX.platform/Developer/SDKs/MacOSX13.1.sdk/usr/include/c++/v1" "__threading_support"
	.file	23 "/Applications/Xcode.app/Contents/Developer/Platforms/MacOSX.platform/Developer/SDKs/MacOSX13.1.sdk/usr/include/c++/v1" "__mutex_base"
	.file	24 "/opt/homebrew/include/event2" "event_struct.h"
	.file	25 "/Applications/Xcode.app/Contents/Developer/Platforms/MacOSX.platform/Developer/SDKs/MacOSX13.1.sdk/usr/include/_types" "_uint8_t.h"
	.file	26 "/Applications/Xcode.app/Contents/Developer/Platforms/MacOSX.platform/Developer/SDKs/MacOSX13.1.sdk/usr/include/arm" "_types.h"
	.file	27 "/Applications/Xcode.app/Contents/Developer/Platforms/MacOSX.platform/Developer/SDKs/MacOSX13.1.sdk/usr/include/sys/_types" "_timeval.h"
	.file	28 "/Applications/Xcode.app/Contents/Developer/Platforms/MacOSX.platform/Developer/SDKs/MacOSX13.1.sdk/usr/include/sys" "_types.h"
	.file	29 "/Applications/Xcode.app/Contents/Developer/Platforms/MacOSX.platform/Developer/SDKs/MacOSX13.1.sdk/usr/include/c++/v1" "atomic"
	.file	30 "/Applications/Xcode.app/Contents/Developer/Platforms/MacOSX.platform/Developer/SDKs/MacOSX13.1.sdk/usr/include/_types" "_intmax_t.h"
	.file	31 "/Applications/Xcode.app/Contents/Developer/Platforms/MacOSX.platform/Developer/SDKs/MacOSX13.1.sdk/usr/include/c++/v1" "ratio"
	.file	32 "/Applications/Xcode.app/Contents/Developer/Platforms/MacOSX.platform/Developer/SDKs/MacOSX13.1.sdk/usr/include/c++/v1" "chrono"
	.file	33 "/opt/homebrew/include/event2" "event.h"
	.file	34 "/Applications/Xcode.app/Contents/Developer/Platforms/MacOSX.platform/Developer/SDKs/MacOSX13.1.sdk/usr/include/c++/v1" "ios"
	.file	35 "/Applications/Xcode.app/Contents/Developer/Platforms/MacOSX.platform/Developer/SDKs/MacOSX13.1.sdk/usr/include/c++/v1" "__locale"
	.file	36 "/Applications/Xcode.app/Contents/Developer/Platforms/MacOSX.platform/Developer/SDKs/MacOSX13.1.sdk/usr/include/c++/v1" "__string"
	.file	37 "/Applications/Xcode.app/Contents/Developer/Platforms/MacOSX.platform/Developer/SDKs/MacOSX13.1.sdk/usr/include/c++/v1" "string"
	.file	38 "/Applications/Xcode.app/Contents/Developer/Platforms/MacOSX.platform/Developer/SDKs/MacOSX13.1.sdk/usr/include/c++/v1" "initializer_list"
	.file	39 "/Applications/Xcode.app/Contents/Developer/Platforms/MacOSX.platform/Developer/SDKs/MacOSX13.1.sdk/usr/include/c++/v1" "string_view"
	.file	40 "/Applications/Xcode.app/Contents/Developer/Platforms/MacOSX.platform/Developer/SDKs/MacOSX13.1.sdk/usr/include/c++/v1/__iterator" "wrap_iter.h"
	.file	41 "/Applications/Xcode.app/Contents/Developer/Platforms/MacOSX.platform/Developer/SDKs/MacOSX13.1.sdk/usr/include/c++/v1/__iterator" "iterator_traits.h"
	.file	42 "/Applications/Xcode.app/Contents/Developer/Platforms/MacOSX.platform/Developer/SDKs/MacOSX13.1.sdk/usr/include/c++/v1" "iosfwd"
	.file	43 "/Applications/Xcode.app/Contents/Developer/Platforms/MacOSX.platform/Developer/SDKs/MacOSX13.1.sdk/usr/include/c++/v1" "mutex"
	.file	44 "/Applications/Xcode.app/Contents/Developer/Platforms/MacOSX.platform/Developer/SDKs/MacOSX13.1.sdk/usr/include/sys/_types" "_int32_t.h"
	.file	45 "/Applications/Xcode.app/Contents/Developer/Platforms/MacOSX.platform/Developer/SDKs/MacOSX13.1.sdk/usr/include/c++/v1" "new"
	.file	46 "/Applications/Xcode.app/Contents/Developer/Platforms/MacOSX.platform/Developer/SDKs/MacOSX13.1.sdk/usr/include/c++/v1/__iterator" "iterator.h"
	.file	47 "/Applications/Xcode.app/Contents/Developer/Platforms/MacOSX.platform/Developer/SDKs/MacOSX13.1.sdk/usr/include/c++/v1" "streambuf"
	.file	48 "/Applications/Xcode.app/Contents/Developer/Platforms/MacOSX.platform/Developer/SDKs/MacOSX13.1.sdk/usr/include/c++/v1/__iterator" "ostreambuf_iterator.h"
	.file	49 "/Applications/Xcode.app/Contents/Developer/Platforms/MacOSX.platform/Developer/SDKs/MacOSX13.1.sdk/usr/include/c++/v1" "ostream"
	.file	50 "/Applications/Xcode.app/Contents/Developer/Platforms/MacOSX.platform/Developer/SDKs/MacOSX13.1.sdk/usr/include/c++/v1/__functional" "function.h"
	.file	51 "/Users/xieyao/Desktop/git/C-/mac/myproject" "libframework/framework/include/framework/dbg.h"
	.file	52 "/Applications/Xcode.app/Contents/Developer/Platforms/MacOSX.platform/Developer/SDKs/MacOSX13.1.sdk/usr/include/c++/v1" "cstddef"
	.file	53 "/Applications/Xcode.app/Contents/Developer/Toolchains/XcodeDefault.xctoolchain/usr/lib/clang/14.0.0/include" "__stddef_max_align_t.h"
	.file	54 "/Applications/Xcode.app/Contents/Developer/Platforms/MacOSX.platform/Developer/SDKs/MacOSX13.1.sdk/usr/include/c++/v1" "cstdlib"
	.file	55 "/Applications/Xcode.app/Contents/Developer/Platforms/MacOSX.platform/Developer/SDKs/MacOSX13.1.sdk/usr/include" "stdlib.h"
	.file	56 "/Applications/Xcode.app/Contents/Developer/Platforms/MacOSX.platform/Developer/SDKs/MacOSX13.1.sdk/usr/include/malloc" "_malloc.h"
	.file	57 "/Applications/Xcode.app/Contents/Developer/Platforms/MacOSX.platform/Developer/SDKs/MacOSX13.1.sdk/usr/include/c++/v1" "stdlib.h"
	.file	58 "/Applications/Xcode.app/Contents/Developer/Platforms/MacOSX.platform/Developer/SDKs/MacOSX13.1.sdk/usr/include/sys/_types" "_int8_t.h"
	.file	59 "/Applications/Xcode.app/Contents/Developer/Platforms/MacOSX.platform/Developer/SDKs/MacOSX13.1.sdk/usr/include/c++/v1" "cstdint"
	.file	60 "/Applications/Xcode.app/Contents/Developer/Platforms/MacOSX.platform/Developer/SDKs/MacOSX13.1.sdk/usr/include/sys/_types" "_int16_t.h"
	.file	61 "/Applications/Xcode.app/Contents/Developer/Platforms/MacOSX.platform/Developer/SDKs/MacOSX13.1.sdk/usr/include/sys/_types" "_int64_t.h"
	.file	62 "/Applications/Xcode.app/Contents/Developer/Platforms/MacOSX.platform/Developer/SDKs/MacOSX13.1.sdk/usr/include/_types" "_uint16_t.h"
	.file	63 "/Applications/Xcode.app/Contents/Developer/Platforms/MacOSX.platform/Developer/SDKs/MacOSX13.1.sdk/usr/include/_types" "_uint32_t.h"
	.file	64 "/Applications/Xcode.app/Contents/Developer/Platforms/MacOSX.platform/Developer/SDKs/MacOSX13.1.sdk/usr/include/_types" "_uint64_t.h"
	.file	65 "/Applications/Xcode.app/Contents/Developer/Platforms/MacOSX.platform/Developer/SDKs/MacOSX13.1.sdk/usr/include" "stdint.h"
	.file	66 "/Applications/Xcode.app/Contents/Developer/Platforms/MacOSX.platform/Developer/SDKs/MacOSX13.1.sdk/usr/include/sys/_types" "_intptr_t.h"
	.file	67 "/Applications/Xcode.app/Contents/Developer/Platforms/MacOSX.platform/Developer/SDKs/MacOSX13.1.sdk/usr/include/_types" "_uintmax_t.h"
	.file	68 "/Applications/Xcode.app/Contents/Developer/Platforms/MacOSX.platform/Developer/SDKs/MacOSX13.1.sdk/usr/include/c++/v1" "stddef.h"
	.file	69 "/Applications/Xcode.app/Contents/Developer/Platforms/MacOSX.platform/Developer/SDKs/MacOSX13.1.sdk/usr/include/sys/_types" "_mbstate_t.h"
	.file	70 "/Applications/Xcode.app/Contents/Developer/Platforms/MacOSX.platform/Developer/SDKs/MacOSX13.1.sdk/usr/include/c++/v1" "__mbstate_t.h"
	.file	71 "/Applications/Xcode.app/Contents/Developer/Platforms/MacOSX.platform/Developer/SDKs/MacOSX13.1.sdk/usr/include/c++/v1" "cstring"
	.file	72 "/Applications/Xcode.app/Contents/Developer/Platforms/MacOSX.platform/Developer/SDKs/MacOSX13.1.sdk/usr/include" "string.h"
	.file	73 "/Applications/Xcode.app/Contents/Developer/Platforms/MacOSX.platform/Developer/SDKs/MacOSX13.1.sdk/usr/include/c++/v1" "string.h"
	.file	74 "/Applications/Xcode.app/Contents/Developer/Platforms/MacOSX.platform/Developer/SDKs/MacOSX13.1.sdk/usr/include/sys/_types" "_clock_t.h"
	.file	75 "/Applications/Xcode.app/Contents/Developer/Platforms/MacOSX.platform/Developer/SDKs/MacOSX13.1.sdk/usr/include/c++/v1" "ctime"
	.file	76 "/Applications/Xcode.app/Contents/Developer/Platforms/MacOSX.platform/Developer/SDKs/MacOSX13.1.sdk/usr/include/sys/_types" "_time_t.h"
	.file	77 "/Applications/Xcode.app/Contents/Developer/Platforms/MacOSX.platform/Developer/SDKs/MacOSX13.1.sdk/usr/include" "time.h"
	.file	78 "/Applications/Xcode.app/Contents/Developer/Platforms/MacOSX.platform/Developer/SDKs/MacOSX13.1.sdk/usr/include/sys/_types" "_timespec.h"
	.file	79 "/Applications/Xcode.app/Contents/Developer/Platforms/MacOSX.platform/Developer/SDKs/MacOSX13.1.sdk/usr/include/c++/v1" "math.h"
	.file	80 "/Applications/Xcode.app/Contents/Developer/Platforms/MacOSX.platform/Developer/SDKs/MacOSX13.1.sdk/usr/include/c++/v1" "cmath"
	.file	81 "/Applications/Xcode.app/Contents/Developer/Platforms/MacOSX.platform/Developer/SDKs/MacOSX13.1.sdk/usr/include" "math.h"
	.file	82 "/Applications/Xcode.app/Contents/Developer/Platforms/MacOSX.platform/Developer/SDKs/MacOSX13.1.sdk/usr/include" "_stdio.h"
	.file	83 "/Applications/Xcode.app/Contents/Developer/Platforms/MacOSX.platform/Developer/SDKs/MacOSX13.1.sdk/usr/include/c++/v1" "cstdio"
	.file	84 "/Applications/Xcode.app/Contents/Developer/Platforms/MacOSX.platform/Developer/SDKs/MacOSX13.1.sdk/usr/include" "stdio.h"
	.file	85 "/Applications/Xcode.app/Contents/Developer/Platforms/MacOSX.platform/Developer/SDKs/MacOSX13.1.sdk/usr/include/sys/_types" "_va_list.h"
	.file	86 "/Applications/Xcode.app/Contents/Developer/Platforms/MacOSX.platform/Developer/SDKs/MacOSX13.1.sdk/usr/include" "_ctype.h"
	.file	87 "/Applications/Xcode.app/Contents/Developer/Platforms/MacOSX.platform/Developer/SDKs/MacOSX13.1.sdk/usr/include/c++/v1" "cctype"
	.file	88 "/Applications/Xcode.app/Contents/Developer/Platforms/MacOSX.platform/Developer/SDKs/MacOSX13.1.sdk/usr/include/sys/_types" "_wint_t.h"
	.file	89 "/Applications/Xcode.app/Contents/Developer/Platforms/MacOSX.platform/Developer/SDKs/MacOSX13.1.sdk/usr/include/c++/v1" "cwctype"
	.file	90 "/Applications/Xcode.app/Contents/Developer/Platforms/MacOSX.platform/Developer/SDKs/MacOSX13.1.sdk/usr/include" "_types.h"
	.file	91 "/Applications/Xcode.app/Contents/Developer/Platforms/MacOSX.platform/Developer/SDKs/MacOSX13.1.sdk/usr/include/_types" "_wctrans_t.h"
	.file	92 "/Applications/Xcode.app/Contents/Developer/Platforms/MacOSX.platform/Developer/SDKs/MacOSX13.1.sdk/usr/include/_types" "_wctype_t.h"
	.file	93 "/Applications/Xcode.app/Contents/Developer/Platforms/MacOSX.platform/Developer/SDKs/MacOSX13.1.sdk/usr/include" "_wctype.h"
	.file	94 "/Applications/Xcode.app/Contents/Developer/Platforms/MacOSX.platform/Developer/SDKs/MacOSX13.1.sdk/usr/include" "wctype.h"
	.file	95 "/Applications/Xcode.app/Contents/Developer/Platforms/MacOSX.platform/Developer/SDKs/MacOSX13.1.sdk/usr/include/c++/v1" "cwchar"
	.file	96 "/Applications/Xcode.app/Contents/Developer/Platforms/MacOSX.platform/Developer/SDKs/MacOSX13.1.sdk/usr/include" "wchar.h"
	.file	97 "/Applications/Xcode.app/Contents/Developer/Platforms/MacOSX.platform/Developer/SDKs/MacOSX13.1.sdk/usr/include/c++/v1" "wchar.h"
	.file	98 "/Users/xieyao/Desktop/git/C-/mac/myproject" "libframework/framework/include/framework/SubProcess.h"
	.section	__TEXT,__StaticInit,regular,pure_instructions
	.p2align	2                               ; -- Begin function __cxx_global_var_init
___cxx_global_var_init:                 ; @__cxx_global_var_init
Lfunc_begin0:
	.file	99 "/Users/xieyao/Desktop/git/C-/mac/myproject/cmake-build-mac" "libframework/framework/CMakeFiles/framework.dir/src/SubProcess.cpp"
	.loc	99 0 0                          ; libframework/framework/CMakeFiles/framework.dir/src/SubProcess.cpp:0:0
	.cfi_startproc
; %bb.0:
	sub	sp, sp, #32
	stp	x29, x30, [sp, #16]             ; 16-byte Folded Spill
	add	x29, sp, #16
	.cfi_def_cfa w29, 16
	.cfi_offset w30, -8
	.cfi_offset w29, -16
Ltmp0:
	adrp	x8, __ZGVN5Invok7mLooperE@GOTPAGE
	ldr	x8, [x8, __ZGVN5Invok7mLooperE@GOTPAGEOFF]
	str	x8, [sp, #8]                    ; 8-byte Folded Spill
	ldarb	w8, [x8]
	and	w8, w8, #0x1
	and	w8, w8, #0xff
	cbnz	w8, LBB0_3
	b	LBB0_1
LBB0_1:
	ldr	x0, [sp, #8]                    ; 8-byte Folded Reload
	bl	___cxa_guard_acquire
	cbz	w0, LBB0_3
	b	LBB0_2
LBB0_2:
	adrp	x0, __ZNSt3__110shared_ptrI6LooperED1Ev@GOTPAGE
	ldr	x0, [x0, __ZNSt3__110shared_ptrI6LooperED1Ev@GOTPAGEOFF]
	adrp	x1, __ZN5Invok7mLooperE@GOTPAGE
	ldr	x1, [x1, __ZN5Invok7mLooperE@GOTPAGEOFF]
	adrp	x2, ___dso_handle@PAGE
	add	x2, x2, ___dso_handle@PAGEOFF
	bl	___cxa_atexit
	ldr	x0, [sp, #8]                    ; 8-byte Folded Reload
	bl	___cxa_guard_release
	b	LBB0_3
LBB0_3:
	ldp	x29, x30, [sp, #16]             ; 16-byte Folded Reload
	add	sp, sp, #32
	ret
Ltmp1:
Lfunc_end0:
	.cfi_endproc
                                        ; -- End function
	.section	__TEXT,__text,regular,pure_instructions
	.globl	__ZNSt3__110shared_ptrI6LooperED1Ev ; -- Begin function _ZNSt3__110shared_ptrI6LooperED1Ev
	.weak_def_can_be_hidden	__ZNSt3__110shared_ptrI6LooperED1Ev
	.p2align	2
__ZNSt3__110shared_ptrI6LooperED1Ev:    ; @_ZNSt3__110shared_ptrI6LooperED1Ev
Lfunc_begin1:
	.loc	1 957 0                         ; /Applications/Xcode.app/Contents/Developer/Platforms/MacOSX.platform/Developer/SDKs/MacOSX13.1.sdk/usr/include/c++/v1/__memory/shared_ptr.h:957:0
	.cfi_startproc
; %bb.0:
	sub	sp, sp, #32
	stp	x29, x30, [sp, #16]             ; 16-byte Folded Spill
	add	x29, sp, #16
	.cfi_def_cfa w29, 16
	.cfi_offset w30, -8
	.cfi_offset w29, -16
	str	x0, [sp, #8]
	ldr	x0, [sp, #8]
	str	x0, [sp]                        ; 8-byte Folded Spill
Ltmp2:
	.loc	1 957 1 prologue_end            ; /Applications/Xcode.app/Contents/Developer/Platforms/MacOSX.platform/Developer/SDKs/MacOSX13.1.sdk/usr/include/c++/v1/__memory/shared_ptr.h:957:1
	bl	__ZNSt3__110shared_ptrI6LooperED2Ev
	ldr	x0, [sp]                        ; 8-byte Folded Reload
	.loc	1 960 1                         ; /Applications/Xcode.app/Contents/Developer/Platforms/MacOSX.platform/Developer/SDKs/MacOSX13.1.sdk/usr/include/c++/v1/__memory/shared_ptr.h:960:1
	ldp	x29, x30, [sp, #16]             ; 16-byte Folded Reload
	add	sp, sp, #32
	ret
Ltmp3:
Lfunc_end1:
	.cfi_endproc
                                        ; -- End function
	.globl	__ZN10SubProcessC2ERKNSt3__112basic_stringIcNS0_11char_traitsIcEENS0_9allocatorIcEEEE ; -- Begin function _ZN10SubProcessC2ERKNSt3__112basic_stringIcNS0_11char_traitsIcEENS0_9allocatorIcEEEE
	.p2align	2
__ZN10SubProcessC2ERKNSt3__112basic_stringIcNS0_11char_traitsIcEENS0_9allocatorIcEEEE: ; @_ZN10SubProcessC2ERKNSt3__112basic_stringIcNS0_11char_traitsIcEENS0_9allocatorIcEEEE
Lfunc_begin2:
	.file	100 "/Users/xieyao/Desktop/git/C-/mac/myproject" "libframework/framework/src/SubProcess.cpp"
	.loc	100 16 0                        ; libframework/framework/src/SubProcess.cpp:16:0
	.cfi_startproc
	.cfi_personality 155, ___gxx_personality_v0
	.cfi_lsda 16, Lexception0
; %bb.0:
	sub	sp, sp, #80
	stp	x29, x30, [sp, #64]             ; 16-byte Folded Spill
	add	x29, sp, #64
	.cfi_def_cfa w29, 16
	.cfi_offset w30, -8
	.cfi_offset w29, -16
Ltmp7:
	.loc	100 0 0 is_stmt 0               ; libframework/framework/src/SubProcess.cpp:0:0
	adrp	x8, __ZTV10SubProcess@PAGE
	add	x8, x8, __ZTV10SubProcess@PAGEOFF
	add	x8, x8, #16
	str	x8, [sp, #8]                    ; 8-byte Folded Spill
	stur	x0, [x29, #-8]
	stur	x1, [x29, #-16]
	ldur	x0, [x29, #-8]
	str	x0, [sp, #24]                   ; 8-byte Folded Spill
	.loc	100 15 13 prologue_end is_stmt 1 ; libframework/framework/src/SubProcess.cpp:15:13
	bl	__ZN14LooperCallbackC2Ev
	ldr	x9, [sp, #8]                    ; 8-byte Folded Reload
	ldr	x8, [sp, #24]                   ; 8-byte Folded Reload
	.loc	100 16 1                        ; libframework/framework/src/SubProcess.cpp:16:1
	str	x9, [x8]
	.loc	100 15 13                       ; libframework/framework/src/SubProcess.cpp:15:13
	add	x0, x8, #24
	str	x0, [sp, #16]                   ; 8-byte Folded Spill
	bl	__ZNSt3__18weak_ptrI6LooperEC1Ev
	ldr	x8, [sp, #24]                   ; 8-byte Folded Reload
	.loc	100 15 59 is_stmt 0             ; libframework/framework/src/SubProcess.cpp:15:59
	ldur	x1, [x29, #-16]
Ltmp4:
	.loc	100 15 50                       ; libframework/framework/src/SubProcess.cpp:15:50
	add	x0, x8, #40
	bl	__ZNSt3__112basic_stringIcNS_11char_traitsIcEENS_9allocatorIcEEEC1ERKS5_
Ltmp5:
	b	LBB2_1
LBB2_1:
	.loc	100 0 50                        ; libframework/framework/src/SubProcess.cpp:0:50
	ldr	x8, [sp, #24]                   ; 8-byte Folded Reload
	.loc	98 37 51 is_stmt 1              ; libframework/framework/include/framework/SubProcess.h:37:51
	add	x0, x8, #64
	mov	x1, #0
	.loc	98 37 59 is_stmt 0              ; libframework/framework/include/framework/SubProcess.h:37:59
	bl	__ZNSt3__18functionIFvRKNS_12basic_stringIcNS_11char_traitsIcEENS_9allocatorIcEEEEiEEC1EDn
	ldr	x8, [sp, #24]                   ; 8-byte Folded Reload
	.loc	98 38 11 is_stmt 1              ; libframework/framework/include/framework/SubProcess.h:38:11
	str	xzr, [x8, #96]
	mov	w9, #-1
	.loc	98 39 11                        ; libframework/framework/include/framework/SubProcess.h:39:11
	str	w9, [x8, #104]
	.loc	98 40 9                         ; libframework/framework/include/framework/SubProcess.h:40:9
	str	w9, [x8, #108]
	.loc	100 15 13                       ; libframework/framework/src/SubProcess.cpp:15:13
	add	x0, x8, #112
	bl	__ZNSt3__15mutexC1Ev
	ldr	x0, [sp, #24]                   ; 8-byte Folded Reload
	.loc	100 17 1                        ; libframework/framework/src/SubProcess.cpp:17:1
	ldp	x29, x30, [sp, #64]             ; 16-byte Folded Reload
	add	sp, sp, #80
	ret
LBB2_2:
Ltmp6:
	.loc	100 17 1 is_stmt 0              ; libframework/framework/src/SubProcess.cpp:17:1
	mov	x9, x0
	ldr	x0, [sp, #16]                   ; 8-byte Folded Reload
	mov	x8, x1
	stur	x9, [x29, #-24]
	stur	w8, [x29, #-28]
Ltmp8:
	.loc	100 17 1                        ; libframework/framework/src/SubProcess.cpp:17:1
	bl	__ZNSt3__18weak_ptrI6LooperED1Ev
	ldr	x0, [sp, #24]                   ; 8-byte Folded Reload
	bl	__ZN14LooperCallbackD2Ev
	b	LBB2_3
LBB2_3:
	ldur	x0, [x29, #-24]
	bl	__Unwind_Resume
Ltmp9:
Lfunc_end2:
	.cfi_endproc
	.file	101 "/Applications/Xcode.app/Contents/Developer/Platforms/MacOSX.platform/Developer/SDKs/MacOSX13.1.sdk/usr/include/sys/_types" "_pid_t.h"
	.section	__TEXT,__gcc_except_tab
	.p2align	2
GCC_except_table2:
Lexception0:
	.byte	255                             ; @LPStart Encoding = omit
	.byte	255                             ; @TType Encoding = omit
	.byte	1                               ; Call site Encoding = uleb128
	.uleb128 Lcst_end0-Lcst_begin0
Lcst_begin0:
	.uleb128 Ltmp4-Lfunc_begin2             ; >> Call Site 1 <<
	.uleb128 Ltmp5-Ltmp4                    ;   Call between Ltmp4 and Ltmp5
	.uleb128 Ltmp6-Lfunc_begin2             ;     jumps to Ltmp6
	.byte	0                               ;   On action: cleanup
	.uleb128 Ltmp5-Lfunc_begin2             ; >> Call Site 2 <<
	.uleb128 Lfunc_end2-Ltmp5               ;   Call between Ltmp5 and Lfunc_end2
	.byte	0                               ;     has no landing pad
	.byte	0                               ;   On action: cleanup
Lcst_end0:
	.p2align	2
                                        ; -- End function
	.section	__TEXT,__text,regular,pure_instructions
	.globl	__ZN14LooperCallbackC2Ev        ; -- Begin function _ZN14LooperCallbackC2Ev
	.weak_def_can_be_hidden	__ZN14LooperCallbackC2Ev
	.p2align	2
__ZN14LooperCallbackC2Ev:               ; @_ZN14LooperCallbackC2Ev
Lfunc_begin3:
	.loc	5 26 0 is_stmt 1                ; libframework/framework/include/framework/Looper.h:26:0
	.cfi_startproc
; %bb.0:
	sub	sp, sp, #48
	stp	x29, x30, [sp, #32]             ; 16-byte Folded Spill
	add	x29, sp, #32
	.cfi_def_cfa w29, 16
	.cfi_offset w30, -8
	.cfi_offset w29, -16
Ltmp10:
	.loc	5 0 0 is_stmt 0                 ; libframework/framework/include/framework/Looper.h:0:0
	adrp	x8, __ZTV14LooperCallback@GOTPAGE
	ldr	x8, [x8, __ZTV14LooperCallback@GOTPAGEOFF]
	add	x8, x8, #16
	str	x8, [sp, #16]                   ; 8-byte Folded Spill
	stur	x0, [x29, #-8]
	ldur	x8, [x29, #-8]
	str	x8, [sp, #8]                    ; 8-byte Folded Spill
	.loc	5 26 7 prologue_end is_stmt 1   ; libframework/framework/include/framework/Looper.h:26:7
	add	x0, x8, #8
	bl	__ZNSt3__123enable_shared_from_thisI14LooperCallbackEC2Ev
	ldr	x0, [sp, #8]                    ; 8-byte Folded Reload
	ldr	x8, [sp, #16]                   ; 8-byte Folded Reload
	str	x8, [x0]
	ldp	x29, x30, [sp, #32]             ; 16-byte Folded Reload
	add	sp, sp, #48
	ret
Ltmp11:
Lfunc_end3:
	.cfi_endproc
                                        ; -- End function
	.p2align	2                               ; -- Begin function _ZNSt3__18weak_ptrI6LooperEC1Ev
__ZNSt3__18weak_ptrI6LooperEC1Ev:       ; @_ZNSt3__18weak_ptrI6LooperEC1Ev
Lfunc_begin4:
	.loc	1 1420 0                        ; /Applications/Xcode.app/Contents/Developer/Platforms/MacOSX.platform/Developer/SDKs/MacOSX13.1.sdk/usr/include/c++/v1/__memory/shared_ptr.h:1420:0
	.cfi_startproc
; %bb.0:
	sub	sp, sp, #32
	stp	x29, x30, [sp, #16]             ; 16-byte Folded Spill
	add	x29, sp, #16
	.cfi_def_cfa w29, 16
	.cfi_offset w30, -8
	.cfi_offset w29, -16
	str	x0, [sp, #8]
	ldr	x0, [sp, #8]
	str	x0, [sp]                        ; 8-byte Folded Spill
Ltmp12:
	.loc	1 1420 1 prologue_end           ; /Applications/Xcode.app/Contents/Developer/Platforms/MacOSX.platform/Developer/SDKs/MacOSX13.1.sdk/usr/include/c++/v1/__memory/shared_ptr.h:1420:1
	bl	__ZNSt3__18weak_ptrI6LooperEC2Ev
	ldr	x0, [sp]                        ; 8-byte Folded Reload
	.loc	1 1421 1                        ; /Applications/Xcode.app/Contents/Developer/Platforms/MacOSX.platform/Developer/SDKs/MacOSX13.1.sdk/usr/include/c++/v1/__memory/shared_ptr.h:1421:1
	ldp	x29, x30, [sp, #16]             ; 16-byte Folded Reload
	add	sp, sp, #32
	ret
Ltmp13:
Lfunc_end4:
	.cfi_endproc
                                        ; -- End function
	.p2align	2                               ; -- Begin function _ZNSt3__18functionIFvRKNS_12basic_stringIcNS_11char_traitsIcEENS_9allocatorIcEEEEiEEC1EDn
__ZNSt3__18functionIFvRKNS_12basic_stringIcNS_11char_traitsIcEENS_9allocatorIcEEEEiEEC1EDn: ; @_ZNSt3__18functionIFvRKNS_12basic_stringIcNS_11char_traitsIcEENS_9allocatorIcEEEEiEEC1EDn
Lfunc_begin5:
	.loc	50 992 0                        ; /Applications/Xcode.app/Contents/Developer/Platforms/MacOSX.platform/Developer/SDKs/MacOSX13.1.sdk/usr/include/c++/v1/__functional/function.h:992:0
	.cfi_startproc
; %bb.0:
	sub	sp, sp, #48
	stp	x29, x30, [sp, #32]             ; 16-byte Folded Spill
	add	x29, sp, #32
	.cfi_def_cfa w29, 16
	.cfi_offset w30, -8
	.cfi_offset w29, -16
	stur	x0, [x29, #-8]
	str	x1, [sp, #16]
	ldur	x0, [x29, #-8]
	str	x0, [sp, #8]                    ; 8-byte Folded Spill
Ltmp14:
	.loc	50 992 34 prologue_end          ; /Applications/Xcode.app/Contents/Developer/Platforms/MacOSX.platform/Developer/SDKs/MacOSX13.1.sdk/usr/include/c++/v1/__functional/function.h:992:34
	ldr	x1, [sp, #16]
	bl	__ZNSt3__18functionIFvRKNS_12basic_stringIcNS_11char_traitsIcEENS_9allocatorIcEEEEiEEC2EDn
	ldr	x0, [sp, #8]                    ; 8-byte Folded Reload
	.loc	50 992 35 is_stmt 0             ; /Applications/Xcode.app/Contents/Developer/Platforms/MacOSX.platform/Developer/SDKs/MacOSX13.1.sdk/usr/include/c++/v1/__functional/function.h:992:35
	ldp	x29, x30, [sp, #32]             ; 16-byte Folded Reload
	add	sp, sp, #48
	ret
Ltmp15:
Lfunc_end5:
	.cfi_endproc
                                        ; -- End function
	.p2align	2                               ; -- Begin function _ZNSt3__15mutexC1Ev
__ZNSt3__15mutexC1Ev:                   ; @_ZNSt3__15mutexC1Ev
Lfunc_begin6:
	.loc	23 37 0 is_stmt 1               ; /Applications/Xcode.app/Contents/Developer/Platforms/MacOSX.platform/Developer/SDKs/MacOSX13.1.sdk/usr/include/c++/v1/__mutex_base:37:0
	.cfi_startproc
; %bb.0:
	sub	sp, sp, #32
	stp	x29, x30, [sp, #16]             ; 16-byte Folded Spill
	add	x29, sp, #16
	.cfi_def_cfa w29, 16
	.cfi_offset w30, -8
	.cfi_offset w29, -16
	str	x0, [sp, #8]
	ldr	x0, [sp, #8]
	str	x0, [sp]                        ; 8-byte Folded Spill
Ltmp16:
	.loc	23 37 31 prologue_end           ; /Applications/Xcode.app/Contents/Developer/Platforms/MacOSX.platform/Developer/SDKs/MacOSX13.1.sdk/usr/include/c++/v1/__mutex_base:37:31
	bl	__ZNSt3__15mutexC2Ev
	ldr	x0, [sp]                        ; 8-byte Folded Reload
	ldp	x29, x30, [sp, #16]             ; 16-byte Folded Reload
	add	sp, sp, #32
	ret
Ltmp17:
Lfunc_end6:
	.cfi_endproc
                                        ; -- End function
	.globl	__ZNSt3__18weak_ptrI6LooperED1Ev ; -- Begin function _ZNSt3__18weak_ptrI6LooperED1Ev
	.weak_def_can_be_hidden	__ZNSt3__18weak_ptrI6LooperED1Ev
	.p2align	2
__ZNSt3__18weak_ptrI6LooperED1Ev:       ; @_ZNSt3__18weak_ptrI6LooperED1Ev
Lfunc_begin7:
	.loc	1 1484 0                        ; /Applications/Xcode.app/Contents/Developer/Platforms/MacOSX.platform/Developer/SDKs/MacOSX13.1.sdk/usr/include/c++/v1/__memory/shared_ptr.h:1484:0
	.cfi_startproc
; %bb.0:
	sub	sp, sp, #32
	stp	x29, x30, [sp, #16]             ; 16-byte Folded Spill
	add	x29, sp, #16
	.cfi_def_cfa w29, 16
	.cfi_offset w30, -8
	.cfi_offset w29, -16
	str	x0, [sp, #8]
	ldr	x0, [sp, #8]
	str	x0, [sp]                        ; 8-byte Folded Spill
Ltmp18:
	.loc	1 1484 1 prologue_end           ; /Applications/Xcode.app/Contents/Developer/Platforms/MacOSX.platform/Developer/SDKs/MacOSX13.1.sdk/usr/include/c++/v1/__memory/shared_ptr.h:1484:1
	bl	__ZNSt3__18weak_ptrI6LooperED2Ev
	ldr	x0, [sp]                        ; 8-byte Folded Reload
	.loc	1 1487 1                        ; /Applications/Xcode.app/Contents/Developer/Platforms/MacOSX.platform/Developer/SDKs/MacOSX13.1.sdk/usr/include/c++/v1/__memory/shared_ptr.h:1487:1
	ldp	x29, x30, [sp, #16]             ; 16-byte Folded Reload
	add	sp, sp, #32
	ret
Ltmp19:
Lfunc_end7:
	.cfi_endproc
                                        ; -- End function
	.globl	__ZN14LooperCallbackD2Ev        ; -- Begin function _ZN14LooperCallbackD2Ev
	.weak_def_can_be_hidden	__ZN14LooperCallbackD2Ev
	.p2align	2
__ZN14LooperCallbackD2Ev:               ; @_ZN14LooperCallbackD2Ev
Lfunc_begin8:
	.loc	5 28 0                          ; libframework/framework/include/framework/Looper.h:28:0
	.cfi_startproc
; %bb.0:
	sub	sp, sp, #32
	stp	x29, x30, [sp, #16]             ; 16-byte Folded Spill
	add	x29, sp, #16
	.cfi_def_cfa w29, 16
	.cfi_offset w30, -8
	.cfi_offset w29, -16
	str	x0, [sp, #8]
	ldr	x8, [sp, #8]
	str	x8, [sp]                        ; 8-byte Folded Spill
Ltmp20:
	.loc	5 28 39 prologue_end            ; libframework/framework/include/framework/Looper.h:28:39
	add	x0, x8, #8
	bl	__ZNSt3__123enable_shared_from_thisI14LooperCallbackED2Ev
	ldr	x0, [sp]                        ; 8-byte Folded Reload
Ltmp21:
	.loc	5 28 39 is_stmt 0               ; libframework/framework/include/framework/Looper.h:28:39
	ldp	x29, x30, [sp, #16]             ; 16-byte Folded Reload
	add	sp, sp, #32
	ret
Ltmp22:
Lfunc_end8:
	.cfi_endproc
                                        ; -- End function
	.globl	__ZN10SubProcessC1ERKNSt3__112basic_stringIcNS0_11char_traitsIcEENS0_9allocatorIcEEEE ; -- Begin function _ZN10SubProcessC1ERKNSt3__112basic_stringIcNS0_11char_traitsIcEENS0_9allocatorIcEEEE
	.p2align	2
__ZN10SubProcessC1ERKNSt3__112basic_stringIcNS0_11char_traitsIcEENS0_9allocatorIcEEEE: ; @_ZN10SubProcessC1ERKNSt3__112basic_stringIcNS0_11char_traitsIcEENS0_9allocatorIcEEEE
Lfunc_begin9:
	.loc	100 16 0 is_stmt 1              ; libframework/framework/src/SubProcess.cpp:16:0
	.cfi_startproc
; %bb.0:
	sub	sp, sp, #48
	stp	x29, x30, [sp, #32]             ; 16-byte Folded Spill
	add	x29, sp, #32
	.cfi_def_cfa w29, 16
	.cfi_offset w30, -8
	.cfi_offset w29, -16
	stur	x0, [x29, #-8]
	str	x1, [sp, #16]
	ldur	x0, [x29, #-8]
	str	x0, [sp, #8]                    ; 8-byte Folded Spill
Ltmp23:
	.loc	100 16 1 prologue_end           ; libframework/framework/src/SubProcess.cpp:16:1
	ldr	x1, [sp, #16]
	bl	__ZN10SubProcessC2ERKNSt3__112basic_stringIcNS0_11char_traitsIcEENS0_9allocatorIcEEEE
	ldr	x0, [sp, #8]                    ; 8-byte Folded Reload
	.loc	100 17 1                        ; libframework/framework/src/SubProcess.cpp:17:1
	ldp	x29, x30, [sp, #32]             ; 16-byte Folded Reload
	add	sp, sp, #48
	ret
Ltmp24:
Lfunc_end9:
	.cfi_endproc
                                        ; -- End function
	.globl	__ZN10SubProcessD2Ev            ; -- Begin function _ZN10SubProcessD2Ev
	.p2align	2
__ZN10SubProcessD2Ev:                   ; @_ZN10SubProcessD2Ev
Lfunc_begin10:
	.loc	100 20 0                        ; libframework/framework/src/SubProcess.cpp:20:0
	.cfi_startproc
	.cfi_personality 155, ___gxx_personality_v0
	.cfi_lsda 16, Lexception1
; %bb.0:
	sub	sp, sp, #48
	stp	x29, x30, [sp, #32]             ; 16-byte Folded Spill
	add	x29, sp, #32
	.cfi_def_cfa w29, 16
	.cfi_offset w30, -8
	.cfi_offset w29, -16
Ltmp28:
	.loc	100 0 0 is_stmt 0               ; libframework/framework/src/SubProcess.cpp:0:0
	adrp	x8, __ZTV10SubProcess@PAGE
	add	x8, x8, __ZTV10SubProcess@PAGEOFF
	add	x8, x8, #16
	stur	x0, [x29, #-8]
	ldur	x0, [x29, #-8]
	str	x0, [sp]                        ; 8-byte Folded Spill
	.loc	100 20 1 prologue_end is_stmt 1 ; libframework/framework/src/SubProcess.cpp:20:1
	str	x8, [x0]
Ltmp25:
Ltmp29:
	.loc	100 21 5                        ; libframework/framework/src/SubProcess.cpp:21:5
	bl	__ZN10SubProcess7cleanupEv
Ltmp26:
	b	LBB10_1
LBB10_1:
	.loc	100 0 5 is_stmt 0               ; libframework/framework/src/SubProcess.cpp:0:5
	ldr	x8, [sp]                        ; 8-byte Folded Reload
	.loc	100 22 1 is_stmt 1              ; libframework/framework/src/SubProcess.cpp:22:1
	add	x0, x8, #112
	bl	__ZNSt3__15mutexD1Ev
	ldr	x8, [sp]                        ; 8-byte Folded Reload
	add	x0, x8, #64
	bl	__ZNSt3__18functionIFvRKNS_12basic_stringIcNS_11char_traitsIcEENS_9allocatorIcEEEEiEED1Ev
	ldr	x8, [sp]                        ; 8-byte Folded Reload
	add	x0, x8, #40
	bl	__ZNSt3__112basic_stringIcNS_11char_traitsIcEENS_9allocatorIcEEED1Ev
	ldr	x8, [sp]                        ; 8-byte Folded Reload
	add	x0, x8, #24
	bl	__ZNSt3__18weak_ptrI6LooperED1Ev
	ldr	x0, [sp]                        ; 8-byte Folded Reload
	bl	__ZN14LooperCallbackD2Ev
	ldr	x0, [sp]                        ; 8-byte Folded Reload
Ltmp30:
	.loc	100 22 1 is_stmt 0              ; libframework/framework/src/SubProcess.cpp:22:1
	ldp	x29, x30, [sp, #32]             ; 16-byte Folded Reload
	add	sp, sp, #48
	ret
LBB10_2:
Ltmp27:
	.loc	100 0 1                         ; libframework/framework/src/SubProcess.cpp:0:1
	ldr	x8, [sp]                        ; 8-byte Folded Reload
Ltmp31:
	.loc	100 22 1                        ; libframework/framework/src/SubProcess.cpp:22:1
	mov	x9, x1
	str	x0, [sp, #16]
	str	w9, [sp, #12]
	add	x0, x8, #112
	bl	__ZNSt3__15mutexD1Ev
	ldr	x8, [sp]                        ; 8-byte Folded Reload
	add	x0, x8, #64
	bl	__ZNSt3__18functionIFvRKNS_12basic_stringIcNS_11char_traitsIcEENS_9allocatorIcEEEEiEED1Ev
	ldr	x8, [sp]                        ; 8-byte Folded Reload
	add	x0, x8, #40
	bl	__ZNSt3__112basic_stringIcNS_11char_traitsIcEENS_9allocatorIcEEED1Ev
	ldr	x8, [sp]                        ; 8-byte Folded Reload
	add	x0, x8, #24
	bl	__ZNSt3__18weak_ptrI6LooperED1Ev
	ldr	x0, [sp]                        ; 8-byte Folded Reload
	bl	__ZN14LooperCallbackD2Ev
	b	LBB10_3
LBB10_3:
	ldr	x0, [sp, #16]
	bl	___clang_call_terminate
Ltmp32:
Lfunc_end10:
	.cfi_endproc
	.section	__TEXT,__gcc_except_tab
	.p2align	2
GCC_except_table10:
Lexception1:
	.byte	255                             ; @LPStart Encoding = omit
	.byte	155                             ; @TType Encoding = indirect pcrel sdata4
	.uleb128 Lttbase0-Lttbaseref0
Lttbaseref0:
	.byte	1                               ; Call site Encoding = uleb128
	.uleb128 Lcst_end1-Lcst_begin1
Lcst_begin1:
	.uleb128 Ltmp25-Lfunc_begin10           ; >> Call Site 1 <<
	.uleb128 Ltmp26-Ltmp25                  ;   Call between Ltmp25 and Ltmp26
	.uleb128 Ltmp27-Lfunc_begin10           ;     jumps to Ltmp27
	.byte	1                               ;   On action: 1
Lcst_end1:
	.byte	1                               ; >> Action Record 1 <<
                                        ;   Catch TypeInfo 1
	.byte	0                               ;   No further actions
	.p2align	2
                                        ; >> Catch TypeInfos <<
	.long	0                               ; TypeInfo 1
Lttbase0:
	.p2align	2
                                        ; -- End function
	.section	__TEXT,__text,regular,pure_instructions
	.globl	__ZN10SubProcess7cleanupEv      ; -- Begin function _ZN10SubProcess7cleanupEv
	.p2align	2
__ZN10SubProcess7cleanupEv:             ; @_ZN10SubProcess7cleanupEv
Lfunc_begin11:
	.loc	100 123 0 is_stmt 1             ; libframework/framework/src/SubProcess.cpp:123:0
	.cfi_startproc
; %bb.0:
	sub	sp, sp, #32
	stp	x29, x30, [sp, #16]             ; 16-byte Folded Spill
	add	x29, sp, #16
	.cfi_def_cfa w29, 16
	.cfi_offset w30, -8
	.cfi_offset w29, -16
	str	x0, [sp, #8]
	ldr	x8, [sp, #8]
	str	x8, [sp]                        ; 8-byte Folded Spill
Ltmp33:
	.loc	100 124 9 prologue_end          ; libframework/framework/src/SubProcess.cpp:124:9
	ldr	x8, [x8, #96]
Ltmp34:
	.loc	100 124 9 is_stmt 0             ; libframework/framework/src/SubProcess.cpp:124:9
	cbz	x8, LBB11_2
	b	LBB11_1
LBB11_1:
	.loc	100 0 9                         ; libframework/framework/src/SubProcess.cpp:0:9
	ldr	x8, [sp]                        ; 8-byte Folded Reload
Ltmp35:
	.loc	100 126 16 is_stmt 1            ; libframework/framework/src/SubProcess.cpp:126:16
	ldr	x0, [x8, #96]
	.loc	100 126 9 is_stmt 0             ; libframework/framework/src/SubProcess.cpp:126:9
	bl	_fclose
	ldr	x8, [sp]                        ; 8-byte Folded Reload
                                        ; kill: def $x9 killed $xzr
	.loc	100 127 15 is_stmt 1            ; libframework/framework/src/SubProcess.cpp:127:15
	str	xzr, [x8, #96]
	.loc	100 128 5                       ; libframework/framework/src/SubProcess.cpp:128:5
	b	LBB11_2
Ltmp36:
LBB11_2:
	.loc	100 0 5 is_stmt 0               ; libframework/framework/src/SubProcess.cpp:0:5
	ldr	x0, [sp]                        ; 8-byte Folded Reload
	.loc	100 129 11 is_stmt 1            ; libframework/framework/src/SubProcess.cpp:129:11
	bl	__ZN10SubProcess4killEv
	.loc	100 130 1                       ; libframework/framework/src/SubProcess.cpp:130:1
	ldp	x29, x30, [sp, #16]             ; 16-byte Folded Reload
	add	sp, sp, #32
	ret
Ltmp37:
Lfunc_end11:
	.cfi_endproc
                                        ; -- End function
	.globl	__ZNSt3__18functionIFvRKNS_12basic_stringIcNS_11char_traitsIcEENS_9allocatorIcEEEEiEED1Ev ; -- Begin function _ZNSt3__18functionIFvRKNS_12basic_stringIcNS_11char_traitsIcEENS_9allocatorIcEEEEiEED1Ev
	.weak_def_can_be_hidden	__ZNSt3__18functionIFvRKNS_12basic_stringIcNS_11char_traitsIcEENS_9allocatorIcEEEEiEED1Ev
	.p2align	2
__ZNSt3__18functionIFvRKNS_12basic_stringIcNS_11char_traitsIcEENS_9allocatorIcEEEEiEED1Ev: ; @_ZNSt3__18functionIFvRKNS_12basic_stringIcNS_11char_traitsIcEENS_9allocatorIcEEEEiEED1Ev
Lfunc_begin12:
	.loc	50 1169 0                       ; /Applications/Xcode.app/Contents/Developer/Platforms/MacOSX.platform/Developer/SDKs/MacOSX13.1.sdk/usr/include/c++/v1/__functional/function.h:1169:0
	.cfi_startproc
; %bb.0:
	sub	sp, sp, #32
	stp	x29, x30, [sp, #16]             ; 16-byte Folded Spill
	add	x29, sp, #16
	.cfi_def_cfa w29, 16
	.cfi_offset w30, -8
	.cfi_offset w29, -16
	str	x0, [sp, #8]
	ldr	x0, [sp, #8]
	str	x0, [sp]                        ; 8-byte Folded Spill
Ltmp38:
	.loc	50 1169 42 prologue_end         ; /Applications/Xcode.app/Contents/Developer/Platforms/MacOSX.platform/Developer/SDKs/MacOSX13.1.sdk/usr/include/c++/v1/__functional/function.h:1169:42
	bl	__ZNSt3__18functionIFvRKNS_12basic_stringIcNS_11char_traitsIcEENS_9allocatorIcEEEEiEED2Ev
	ldr	x0, [sp]                        ; 8-byte Folded Reload
	.loc	50 1169 43 is_stmt 0            ; /Applications/Xcode.app/Contents/Developer/Platforms/MacOSX.platform/Developer/SDKs/MacOSX13.1.sdk/usr/include/c++/v1/__functional/function.h:1169:43
	ldp	x29, x30, [sp, #16]             ; 16-byte Folded Reload
	add	sp, sp, #32
	ret
Ltmp39:
Lfunc_end12:
	.cfi_endproc
                                        ; -- End function
	.private_extern	___clang_call_terminate ; -- Begin function __clang_call_terminate
	.globl	___clang_call_terminate
	.weak_definition	___clang_call_terminate
	.p2align	2
___clang_call_terminate:                ; @__clang_call_terminate
Lfunc_begin13:
	.cfi_startproc
; %bb.0:
	stp	x29, x30, [sp, #-16]!           ; 16-byte Folded Spill
	.cfi_def_cfa_offset 16
	.cfi_offset w30, -8
	.cfi_offset w29, -16
	bl	___cxa_begin_catch
	bl	__ZSt9terminatev
Lfunc_end13:
	.cfi_endproc
                                        ; -- End function
	.globl	__ZN10SubProcessD1Ev            ; -- Begin function _ZN10SubProcessD1Ev
	.p2align	2
__ZN10SubProcessD1Ev:                   ; @_ZN10SubProcessD1Ev
Lfunc_begin14:
	.loc	100 20 0 is_stmt 1              ; libframework/framework/src/SubProcess.cpp:20:0
	.cfi_startproc
; %bb.0:
	sub	sp, sp, #32
	stp	x29, x30, [sp, #16]             ; 16-byte Folded Spill
	add	x29, sp, #16
	.cfi_def_cfa w29, 16
	.cfi_offset w30, -8
	.cfi_offset w29, -16
	str	x0, [sp, #8]
	ldr	x0, [sp, #8]
	str	x0, [sp]                        ; 8-byte Folded Spill
Ltmp40:
	.loc	100 20 1 prologue_end           ; libframework/framework/src/SubProcess.cpp:20:1
	bl	__ZN10SubProcessD2Ev
	ldr	x0, [sp]                        ; 8-byte Folded Reload
	.loc	100 22 1                        ; libframework/framework/src/SubProcess.cpp:22:1
	ldp	x29, x30, [sp, #16]             ; 16-byte Folded Reload
	add	sp, sp, #32
	ret
Ltmp41:
Lfunc_end14:
	.cfi_endproc
                                        ; -- End function
	.globl	__ZN10SubProcessD0Ev            ; -- Begin function _ZN10SubProcessD0Ev
	.p2align	2
__ZN10SubProcessD0Ev:                   ; @_ZN10SubProcessD0Ev
Lfunc_begin15:
	.loc	100 20 0                        ; libframework/framework/src/SubProcess.cpp:20:0
	.cfi_startproc
; %bb.0:
	sub	sp, sp, #32
	stp	x29, x30, [sp, #16]             ; 16-byte Folded Spill
	add	x29, sp, #16
	.cfi_def_cfa w29, 16
	.cfi_offset w30, -8
	.cfi_offset w29, -16
	str	x0, [sp, #8]
	ldr	x0, [sp, #8]
	str	x0, [sp]                        ; 8-byte Folded Spill
Ltmp42:
	.loc	100 20 1 prologue_end           ; libframework/framework/src/SubProcess.cpp:20:1
	bl	__ZN10SubProcessD1Ev
	ldr	x0, [sp]                        ; 8-byte Folded Reload
	bl	__ZdlPv
	.loc	100 22 1                        ; libframework/framework/src/SubProcess.cpp:22:1
	ldp	x29, x30, [sp, #16]             ; 16-byte Folded Reload
	add	sp, sp, #32
	ret
Ltmp43:
Lfunc_end15:
	.cfi_endproc
                                        ; -- End function
	.globl	__ZN10SubProcess4killEv         ; -- Begin function _ZN10SubProcess4killEv
	.p2align	2
__ZN10SubProcess4killEv:                ; @_ZN10SubProcess4killEv
Lfunc_begin16:
	.loc	100 25 0                        ; libframework/framework/src/SubProcess.cpp:25:0
	.cfi_startproc
	.cfi_personality 155, ___gxx_personality_v0
	.cfi_lsda 16, Lexception2
; %bb.0:
	sub	sp, sp, #80
	stp	x29, x30, [sp, #64]             ; 16-byte Folded Spill
	add	x29, sp, #64
	.cfi_def_cfa w29, 16
	.cfi_offset w30, -8
	.cfi_offset w29, -16
	stur	x0, [x29, #-16]
	ldur	x8, [x29, #-16]
	str	x8, [sp, #8]                    ; 8-byte Folded Spill
	sub	x0, x29, #24
Ltmp49:
	.loc	100 26 36 prologue_end          ; libframework/framework/src/SubProcess.cpp:26:36
	add	x1, x8, #112
	.loc	100 26 33 is_stmt 0             ; libframework/framework/src/SubProcess.cpp:26:33
	bl	__ZNSt3__110lock_guardINS_5mutexEEC1ERS1_
	ldr	x8, [sp, #8]                    ; 8-byte Folded Reload
Ltmp50:
	.loc	100 27 9 is_stmt 1              ; libframework/framework/src/SubProcess.cpp:27:9
	ldr	w8, [x8, #104]
Ltmp51:
	.loc	100 27 9 is_stmt 0              ; libframework/framework/src/SubProcess.cpp:27:9
	subs	w8, w8, #0
	b.ge	LBB16_2
	b	LBB16_1
LBB16_1:
Ltmp52:
	.loc	100 29 9 is_stmt 1              ; libframework/framework/src/SubProcess.cpp:29:9
	stur	wzr, [x29, #-4]
	mov	w8, #1
	stur	w8, [x29, #-28]
	b	LBB16_8
Ltmp53:
LBB16_2:
	.loc	100 0 9 is_stmt 0               ; libframework/framework/src/SubProcess.cpp:0:9
	ldr	x8, [sp, #8]                    ; 8-byte Folded Reload
	add	x1, sp, #32
	.loc	100 31 9 is_stmt 1              ; libframework/framework/src/SubProcess.cpp:31:9
	str	wzr, [sp, #32]
Ltmp54:
	.loc	100 32 17                       ; libframework/framework/src/SubProcess.cpp:32:17
	ldr	w0, [x8, #104]
Ltmp44:
	mov	w2, #1
	.loc	100 32 9 is_stmt 0              ; libframework/framework/src/SubProcess.cpp:32:9
	bl	_waitpid
	str	w0, [sp, #4]                    ; 4-byte Folded Spill
Ltmp45:
	b	LBB16_3
Ltmp55:
LBB16_3:
	.loc	100 0 9                         ; libframework/framework/src/SubProcess.cpp:0:9
	ldr	w8, [sp, #4]                    ; 4-byte Folded Reload
	.loc	100 32 9                        ; libframework/framework/src/SubProcess.cpp:32:9
	cbz	w8, LBB16_7
	b	LBB16_4
LBB16_4:
	.loc	100 0 9                         ; libframework/framework/src/SubProcess.cpp:0:9
	ldr	x0, [sp, #8]                    ; 8-byte Folded Reload
Ltmp56:
	.loc	100 34 21 is_stmt 1             ; libframework/framework/src/SubProcess.cpp:34:21
	ldr	w1, [sp, #32]
Ltmp46:
	.loc	100 34 9 is_stmt 0              ; libframework/framework/src/SubProcess.cpp:34:9
	bl	__ZN10SubProcess11checkStatusEi
Ltmp47:
	b	LBB16_5
LBB16_5:
	.loc	100 0 9                         ; libframework/framework/src/SubProcess.cpp:0:9
	ldr	x9, [sp, #8]                    ; 8-byte Folded Reload
	mov	w8, #-1
	.loc	100 35 14 is_stmt 1             ; libframework/framework/src/SubProcess.cpp:35:14
	str	w8, [x9, #104]
	.loc	100 36 5                        ; libframework/framework/src/SubProcess.cpp:36:5
	b	LBB16_7
Ltmp57:
LBB16_6:
Ltmp48:
	.loc	100 38 1                        ; libframework/framework/src/SubProcess.cpp:38:1
	mov	x8, x1
	str	x0, [sp, #24]
	str	w8, [sp, #20]
	sub	x0, x29, #24
Ltmp58:
	.loc	100 38 1 is_stmt 0              ; libframework/framework/src/SubProcess.cpp:38:1
	bl	__ZNSt3__110lock_guardINS_5mutexEED1Ev
	b	LBB16_9
LBB16_7:
	.loc	100 0 1                         ; libframework/framework/src/SubProcess.cpp:0:1
	ldr	x8, [sp, #8]                    ; 8-byte Folded Reload
	.loc	100 37 12 is_stmt 1             ; libframework/framework/src/SubProcess.cpp:37:12
	ldr	w8, [x8, #104]
	.loc	100 37 17 is_stmt 0             ; libframework/framework/src/SubProcess.cpp:37:17
	subs	w8, w8, #0
	cset	w8, gt
	.loc	100 37 12                       ; libframework/framework/src/SubProcess.cpp:37:12
	and	w8, w8, #0x1
	.loc	100 37 5                        ; libframework/framework/src/SubProcess.cpp:37:5
	stur	w8, [x29, #-4]
	mov	w8, #1
	stur	w8, [x29, #-28]
	b	LBB16_8
LBB16_8:
	.loc	100 0 5                         ; libframework/framework/src/SubProcess.cpp:0:5
	sub	x0, x29, #24
	.loc	100 38 1 is_stmt 1              ; libframework/framework/src/SubProcess.cpp:38:1
	bl	__ZNSt3__110lock_guardINS_5mutexEED1Ev
	ldur	w0, [x29, #-4]
	ldp	x29, x30, [sp, #64]             ; 16-byte Folded Reload
	add	sp, sp, #80
	ret
LBB16_9:
	ldr	x0, [sp, #24]
	bl	__Unwind_Resume
Ltmp59:
Lfunc_end16:
	.cfi_endproc
	.section	__TEXT,__gcc_except_tab
	.p2align	2
GCC_except_table16:
Lexception2:
	.byte	255                             ; @LPStart Encoding = omit
	.byte	255                             ; @TType Encoding = omit
	.byte	1                               ; Call site Encoding = uleb128
	.uleb128 Lcst_end2-Lcst_begin2
Lcst_begin2:
	.uleb128 Lfunc_begin16-Lfunc_begin16    ; >> Call Site 1 <<
	.uleb128 Ltmp44-Lfunc_begin16           ;   Call between Lfunc_begin16 and Ltmp44
	.byte	0                               ;     has no landing pad
	.byte	0                               ;   On action: cleanup
	.uleb128 Ltmp44-Lfunc_begin16           ; >> Call Site 2 <<
	.uleb128 Ltmp47-Ltmp44                  ;   Call between Ltmp44 and Ltmp47
	.uleb128 Ltmp48-Lfunc_begin16           ;     jumps to Ltmp48
	.byte	0                               ;   On action: cleanup
	.uleb128 Ltmp47-Lfunc_begin16           ; >> Call Site 3 <<
	.uleb128 Lfunc_end16-Ltmp47             ;   Call between Ltmp47 and Lfunc_end16
	.byte	0                               ;     has no landing pad
	.byte	0                               ;   On action: cleanup
Lcst_end2:
	.p2align	2
                                        ; -- End function
	.section	__TEXT,__text,regular,pure_instructions
	.p2align	2                               ; -- Begin function _ZNSt3__110lock_guardINS_5mutexEEC1ERS1_
__ZNSt3__110lock_guardINS_5mutexEEC1ERS1_: ; @_ZNSt3__110lock_guardINS_5mutexEEC1ERS1_
Lfunc_begin17:
	.loc	23 90 0                         ; /Applications/Xcode.app/Contents/Developer/Platforms/MacOSX.platform/Developer/SDKs/MacOSX13.1.sdk/usr/include/c++/v1/__mutex_base:90:0
	.cfi_startproc
; %bb.0:
	sub	sp, sp, #48
	stp	x29, x30, [sp, #32]             ; 16-byte Folded Spill
	add	x29, sp, #32
	.cfi_def_cfa w29, 16
	.cfi_offset w30, -8
	.cfi_offset w29, -16
	stur	x0, [x29, #-8]
	str	x1, [sp, #16]
	ldur	x0, [x29, #-8]
	str	x0, [sp, #8]                    ; 8-byte Folded Spill
Ltmp60:
	.loc	23 90 21 prologue_end           ; /Applications/Xcode.app/Contents/Developer/Platforms/MacOSX.platform/Developer/SDKs/MacOSX13.1.sdk/usr/include/c++/v1/__mutex_base:90:21
	ldr	x1, [sp, #16]
	bl	__ZNSt3__110lock_guardINS_5mutexEEC2ERS1_
	ldr	x0, [sp, #8]                    ; 8-byte Folded Reload
	.loc	23 90 34 is_stmt 0              ; /Applications/Xcode.app/Contents/Developer/Platforms/MacOSX.platform/Developer/SDKs/MacOSX13.1.sdk/usr/include/c++/v1/__mutex_base:90:34
	ldp	x29, x30, [sp, #32]             ; 16-byte Folded Reload
	add	sp, sp, #48
	ret
Ltmp61:
Lfunc_end17:
	.cfi_endproc
                                        ; -- End function
	.globl	__ZN10SubProcess11checkStatusEi ; -- Begin function _ZN10SubProcess11checkStatusEi
	.p2align	2
__ZN10SubProcess11checkStatusEi:        ; @_ZN10SubProcess11checkStatusEi
Lfunc_begin18:
	.loc	100 213 0 is_stmt 1             ; libframework/framework/src/SubProcess.cpp:213:0
	.cfi_startproc
; %bb.0:
	sub	sp, sp, #48
	stp	x29, x30, [sp, #32]             ; 16-byte Folded Spill
	add	x29, sp, #32
	.cfi_def_cfa w29, 16
	.cfi_offset w30, -8
	.cfi_offset w29, -16
	stur	x0, [x29, #-8]
	stur	w1, [x29, #-12]
	ldur	x8, [x29, #-8]
	str	x8, [sp, #8]                    ; 8-byte Folded Spill
Ltmp62:
	.loc	100 214 12 prologue_end         ; libframework/framework/src/SubProcess.cpp:214:12
	ldur	w8, [x29, #-12]
	.loc	100 214 31 is_stmt 0            ; libframework/framework/src/SubProcess.cpp:214:31
	and	w8, w8, #0x7f
Ltmp63:
	.loc	100 214 9                       ; libframework/framework/src/SubProcess.cpp:214:9
	cbnz	w8, LBB18_2
	b	LBB18_1
LBB18_1:
Ltmp64:
	.loc	100 0 0                         ; libframework/framework/src/SubProcess.cpp:0:0
	adrp	x0, __ZNSt3__14coutE@GOTPAGE
	ldr	x0, [x0, __ZNSt3__14coutE@GOTPAGEOFF]
	adrp	x1, l_.str.26@PAGE
	add	x1, x1, l_.str.26@PAGEOFF
Ltmp65:
	.loc	100 216 19 is_stmt 1            ; libframework/framework/src/SubProcess.cpp:216:19
	bl	__ZNSt3__1lsINS_11char_traitsIcEEEERNS_13basic_ostreamIcT_EES6_PKc
	ldr	x8, [sp, #8]                    ; 8-byte Folded Reload
	.loc	100 216 39 is_stmt 0            ; libframework/framework/src/SubProcess.cpp:216:39
	ldr	w1, [x8, #104]
	.loc	100 216 36                      ; libframework/framework/src/SubProcess.cpp:216:36
	bl	__ZNSt3__113basic_ostreamIcNS_11char_traitsIcEEElsEi
	.loc	100 0 0                         ; libframework/framework/src/SubProcess.cpp:0:0
	adrp	x1, l_.str.27@PAGE
	add	x1, x1, l_.str.27@PAGEOFF
	.loc	100 216 44                      ; libframework/framework/src/SubProcess.cpp:216:44
	bl	__ZNSt3__1lsINS_11char_traitsIcEEEERNS_13basic_ostreamIcT_EES6_PKc
	.loc	100 216 74                      ; libframework/framework/src/SubProcess.cpp:216:74
	ldur	w8, [x29, #-12]
	.loc	100 216 93                      ; libframework/framework/src/SubProcess.cpp:216:93
	asr	w8, w8, #8
	.loc	100 216 99                      ; libframework/framework/src/SubProcess.cpp:216:99
	and	w1, w8, #0xff
	.loc	100 216 68                      ; libframework/framework/src/SubProcess.cpp:216:68
	bl	__ZNSt3__113basic_ostreamIcNS_11char_traitsIcEEElsEi
Ltmp66:
	.loc	100 0 0                         ; libframework/framework/src/SubProcess.cpp:0:0
	adrp	x1, __ZNSt3__14endlIcNS_11char_traitsIcEEEERNS_13basic_ostreamIT_T0_EES7_@GOTPAGE
	ldr	x1, [x1, __ZNSt3__14endlIcNS_11char_traitsIcEEEERNS_13basic_ostreamIT_T0_EES7_@GOTPAGEOFF]
Ltmp67:
	.loc	100 216 113                     ; libframework/framework/src/SubProcess.cpp:216:113
	bl	__ZNSt3__113basic_ostreamIcNS_11char_traitsIcEEElsEPFRS3_S4_E
	ldr	x9, [sp, #8]                    ; 8-byte Folded Reload
	.loc	100 217 27 is_stmt 1            ; libframework/framework/src/SubProcess.cpp:217:27
	ldur	w8, [x29, #-12]
	.loc	100 217 46 is_stmt 0            ; libframework/framework/src/SubProcess.cpp:217:46
	asr	w8, w8, #8
	.loc	100 217 52                      ; libframework/framework/src/SubProcess.cpp:217:52
	and	w8, w8, #0xff
	.loc	100 217 22                      ; libframework/framework/src/SubProcess.cpp:217:22
	str	w8, [x9, #108]
	.loc	100 218 5 is_stmt 1             ; libframework/framework/src/SubProcess.cpp:218:5
	b	LBB18_6
Ltmp68:
LBB18_2:
	.loc	100 219 17                      ; libframework/framework/src/SubProcess.cpp:219:17
	ldur	w8, [x29, #-12]
	.loc	100 219 36 is_stmt 0            ; libframework/framework/src/SubProcess.cpp:219:36
	and	w8, w8, #0x7f
	.loc	100 219 52                      ; libframework/framework/src/SubProcess.cpp:219:52
	subs	w8, w8, #127
	b.eq	LBB18_5
	b	LBB18_3
LBB18_3:
	.loc	100 219 57                      ; libframework/framework/src/SubProcess.cpp:219:57
	ldur	w8, [x29, #-12]
	.loc	100 219 76                      ; libframework/framework/src/SubProcess.cpp:219:76
	and	w8, w8, #0x7f
Ltmp69:
	.loc	100 219 14                      ; libframework/framework/src/SubProcess.cpp:219:14
	cbz	w8, LBB18_5
	b	LBB18_4
LBB18_4:
Ltmp70:
	.loc	100 0 0                         ; libframework/framework/src/SubProcess.cpp:0:0
	adrp	x0, __ZNSt3__14coutE@GOTPAGE
	ldr	x0, [x0, __ZNSt3__14coutE@GOTPAGEOFF]
	adrp	x1, l_.str.26@PAGE
	add	x1, x1, l_.str.26@PAGEOFF
	.loc	100 221 19 is_stmt 1            ; libframework/framework/src/SubProcess.cpp:221:19
	bl	__ZNSt3__1lsINS_11char_traitsIcEEEERNS_13basic_ostreamIcT_EES6_PKc
	ldr	x8, [sp, #8]                    ; 8-byte Folded Reload
	.loc	100 221 39 is_stmt 0            ; libframework/framework/src/SubProcess.cpp:221:39
	ldr	w1, [x8, #104]
	.loc	100 221 36                      ; libframework/framework/src/SubProcess.cpp:221:36
	bl	__ZNSt3__113basic_ostreamIcNS_11char_traitsIcEEElsEi
	.loc	100 0 0                         ; libframework/framework/src/SubProcess.cpp:0:0
	adrp	x1, l_.str.28@PAGE
	add	x1, x1, l_.str.28@PAGEOFF
	.loc	100 221 44                      ; libframework/framework/src/SubProcess.cpp:221:44
	bl	__ZNSt3__1lsINS_11char_traitsIcEEEERNS_13basic_ostreamIcT_EES6_PKc
	.loc	100 221 80                      ; libframework/framework/src/SubProcess.cpp:221:80
	ldur	w8, [x29, #-12]
	.loc	100 221 99                      ; libframework/framework/src/SubProcess.cpp:221:99
	asr	w8, w8, #8
	.loc	100 221 105                     ; libframework/framework/src/SubProcess.cpp:221:105
	and	w1, w8, #0xff
	.loc	100 221 74                      ; libframework/framework/src/SubProcess.cpp:221:74
	bl	__ZNSt3__113basic_ostreamIcNS_11char_traitsIcEEElsEi
	.loc	100 0 0                         ; libframework/framework/src/SubProcess.cpp:0:0
	adrp	x1, __ZNSt3__14endlIcNS_11char_traitsIcEEEERNS_13basic_ostreamIT_T0_EES7_@GOTPAGE
	ldr	x1, [x1, __ZNSt3__14endlIcNS_11char_traitsIcEEEERNS_13basic_ostreamIT_T0_EES7_@GOTPAGEOFF]
	.loc	100 221 119                     ; libframework/framework/src/SubProcess.cpp:221:119
	bl	__ZNSt3__113basic_ostreamIcNS_11char_traitsIcEEElsEPFRS3_S4_E
	ldr	x9, [sp, #8]                    ; 8-byte Folded Reload
	.loc	100 222 27 is_stmt 1            ; libframework/framework/src/SubProcess.cpp:222:27
	ldur	w8, [x29, #-12]
	.loc	100 222 46 is_stmt 0            ; libframework/framework/src/SubProcess.cpp:222:46
	asr	w8, w8, #8
	.loc	100 222 52                      ; libframework/framework/src/SubProcess.cpp:222:52
	and	w8, w8, #0xff
	.loc	100 222 22                      ; libframework/framework/src/SubProcess.cpp:222:22
	str	w8, [x9, #108]
	.loc	100 223 5 is_stmt 1             ; libframework/framework/src/SubProcess.cpp:223:5
	b	LBB18_5
Ltmp71:
LBB18_5:
	.loc	100 0 5 is_stmt 0               ; libframework/framework/src/SubProcess.cpp:0:5
	b	LBB18_6
LBB18_6:
	.loc	100 224 1 is_stmt 1             ; libframework/framework/src/SubProcess.cpp:224:1
	ldp	x29, x30, [sp, #32]             ; 16-byte Folded Reload
	add	sp, sp, #48
	ret
Ltmp72:
Lfunc_end18:
	.cfi_endproc
                                        ; -- End function
	.p2align	2                               ; -- Begin function _ZNSt3__110lock_guardINS_5mutexEED1Ev
__ZNSt3__110lock_guardINS_5mutexEED1Ev: ; @_ZNSt3__110lock_guardINS_5mutexEED1Ev
Lfunc_begin19:
	.loc	23 96 0                         ; /Applications/Xcode.app/Contents/Developer/Platforms/MacOSX.platform/Developer/SDKs/MacOSX13.1.sdk/usr/include/c++/v1/__mutex_base:96:0
	.cfi_startproc
; %bb.0:
	sub	sp, sp, #32
	stp	x29, x30, [sp, #16]             ; 16-byte Folded Spill
	add	x29, sp, #16
	.cfi_def_cfa w29, 16
	.cfi_offset w30, -8
	.cfi_offset w29, -16
	str	x0, [sp, #8]
	ldr	x0, [sp, #8]
	str	x0, [sp]                        ; 8-byte Folded Spill
Ltmp73:
	.loc	23 96 19 prologue_end           ; /Applications/Xcode.app/Contents/Developer/Platforms/MacOSX.platform/Developer/SDKs/MacOSX13.1.sdk/usr/include/c++/v1/__mutex_base:96:19
	bl	__ZNSt3__110lock_guardINS_5mutexEED2Ev
	ldr	x0, [sp]                        ; 8-byte Folded Reload
	.loc	23 96 34 is_stmt 0              ; /Applications/Xcode.app/Contents/Developer/Platforms/MacOSX.platform/Developer/SDKs/MacOSX13.1.sdk/usr/include/c++/v1/__mutex_base:96:34
	ldp	x29, x30, [sp, #16]             ; 16-byte Folded Reload
	add	sp, sp, #32
	ret
Ltmp74:
Lfunc_end19:
	.cfi_endproc
                                        ; -- End function
	.globl	__ZN10SubProcess3runEv          ; -- Begin function _ZN10SubProcess3runEv
	.p2align	2
__ZN10SubProcess3runEv:                 ; @_ZN10SubProcess3runEv
Lfunc_begin20:
	.loc	100 41 0 is_stmt 1              ; libframework/framework/src/SubProcess.cpp:41:0
	.cfi_startproc
	.cfi_personality 155, ___gxx_personality_v0
	.cfi_lsda 16, Lexception3
; %bb.0:
	sub	sp, sp, #160
	stp	x29, x30, [sp, #144]            ; 16-byte Folded Spill
	add	x29, sp, #144
	.cfi_def_cfa w29, 16
	.cfi_offset w30, -8
	.cfi_offset w29, -16
	mov	x8, x0
Ltmp124:
	.loc	100 0 0 is_stmt 0               ; libframework/framework/src/SubProcess.cpp:0:0
	adrp	x0, __ZNSt3__14coutE@GOTPAGE
	ldr	x0, [x0, __ZNSt3__14coutE@GOTPAGEOFF]
	str	x0, [sp, #64]                   ; 8-byte Folded Spill
	adrp	x9, ___stack_chk_guard@GOTPAGE
	ldr	x9, [x9, ___stack_chk_guard@GOTPAGEOFF]
	ldr	x9, [x9]
	stur	x9, [x29, #-8]
	stur	x8, [x29, #-32]
	ldur	x8, [x29, #-32]
	str	x8, [sp, #72]                   ; 8-byte Folded Spill
	adrp	x1, l_.str@PAGE
	add	x1, x1, l_.str@PAGEOFF
	.loc	100 42 15 prologue_end is_stmt 1 ; libframework/framework/src/SubProcess.cpp:42:15
	bl	__ZNSt3__1lsINS_11char_traitsIcEEEERNS_13basic_ostreamIcT_EES6_PKc
	ldr	x8, [sp, #72]                   ; 8-byte Folded Reload
	sub	x0, x29, #40
	.loc	100 43 36                       ; libframework/framework/src/SubProcess.cpp:43:36
	add	x1, x8, #112
	.loc	100 43 33 is_stmt 0             ; libframework/framework/src/SubProcess.cpp:43:33
	bl	__ZNSt3__110lock_guardINS_5mutexEEC1ERS1_
	ldr	x8, [sp, #72]                   ; 8-byte Folded Reload
	.loc	100 44 9 is_stmt 1              ; libframework/framework/src/SubProcess.cpp:44:9
	stur	xzr, [x29, #-16]
Ltmp125:
	.loc	100 45 10                       ; libframework/framework/src/SubProcess.cpp:45:10
	ldr	x8, [x8, #96]
	.loc	100 45 28 is_stmt 0             ; libframework/framework/src/SubProcess.cpp:45:28
	cbnz	x8, LBB20_2
	b	LBB20_1
LBB20_1:
	.loc	100 0 28                        ; libframework/framework/src/SubProcess.cpp:0:28
	ldr	x8, [sp, #72]                   ; 8-byte Folded Reload
	.loc	100 45 31                       ; libframework/framework/src/SubProcess.cpp:45:31
	ldr	w8, [x8, #104]
Ltmp126:
	.loc	100 45 9                        ; libframework/framework/src/SubProcess.cpp:45:9
	subs	w8, w8, #0
	b.le	LBB20_5
	b	LBB20_2
LBB20_2:
Ltmp121:
	.loc	100 0 9                         ; libframework/framework/src/SubProcess.cpp:0:9
	ldr	x0, [sp, #64]                   ; 8-byte Folded Reload
Ltmp127:
	adrp	x1, l_.str.1@PAGE
	add	x1, x1, l_.str.1@PAGEOFF
	.loc	100 47 19 is_stmt 1             ; libframework/framework/src/SubProcess.cpp:47:19
	bl	__ZNSt3__1lsINS_11char_traitsIcEEEERNS_13basic_ostreamIcT_EES6_PKc
Ltmp122:
	b	LBB20_3
LBB20_3:
	.loc	100 48 9                        ; libframework/framework/src/SubProcess.cpp:48:9
	stur	wzr, [x29, #-20]
	mov	w8, #1
	stur	w8, [x29, #-56]
	b	LBB20_37
LBB20_4:
Ltmp123:
	.loc	100 96 1                        ; libframework/framework/src/SubProcess.cpp:96:1
	mov	x8, x1
	stur	x0, [x29, #-48]
	stur	w8, [x29, #-52]
	sub	x0, x29, #40
Ltmp128:
	.loc	100 96 1 is_stmt 0              ; libframework/framework/src/SubProcess.cpp:96:1
	bl	__ZNSt3__110lock_guardINS_5mutexEED1Ev
	b	LBB20_40
LBB20_5:
Ltmp75:
	.loc	100 0 1                         ; libframework/framework/src/SubProcess.cpp:0:1
	sub	x0, x29, #16
Ltmp129:
	.loc	100 51 9 is_stmt 1              ; libframework/framework/src/SubProcess.cpp:51:9
	bl	_pipe
	str	w0, [sp, #60]                   ; 4-byte Folded Spill
Ltmp76:
	b	LBB20_6
Ltmp130:
LBB20_6:
	.loc	100 0 9 is_stmt 0               ; libframework/framework/src/SubProcess.cpp:0:9
	ldr	w8, [sp, #60]                   ; 4-byte Folded Reload
	.loc	100 51 9                        ; libframework/framework/src/SubProcess.cpp:51:9
	cbz	w8, LBB20_9
	b	LBB20_7
LBB20_7:
Ltmp119:
	.loc	100 0 9                         ; libframework/framework/src/SubProcess.cpp:0:9
	ldr	x0, [sp, #64]                   ; 8-byte Folded Reload
Ltmp131:
	adrp	x1, l_.str.2@PAGE
	add	x1, x1, l_.str.2@PAGEOFF
	.loc	100 53 19 is_stmt 1             ; libframework/framework/src/SubProcess.cpp:53:19
	bl	__ZNSt3__1lsINS_11char_traitsIcEEEERNS_13basic_ostreamIcT_EES6_PKc
Ltmp120:
	b	LBB20_8
LBB20_8:
	.loc	100 54 9                        ; libframework/framework/src/SubProcess.cpp:54:9
	stur	wzr, [x29, #-20]
	mov	w8, #1
	stur	w8, [x29, #-56]
	b	LBB20_37
Ltmp132:
LBB20_9:
	.loc	100 57 23                       ; libframework/framework/src/SubProcess.cpp:57:23
	ldur	w0, [x29, #-16]
Ltmp77:
	.loc	100 57 17 is_stmt 0             ; libframework/framework/src/SubProcess.cpp:57:17
	mov	x8, sp
	str	xzr, [x8]
	mov	w1, #1
	bl	_fcntl
	str	w0, [sp, #56]                   ; 4-byte Folded Spill
Ltmp78:
	b	LBB20_10
LBB20_10:
	.loc	100 0 17                        ; libframework/framework/src/SubProcess.cpp:0:17
	ldr	w8, [sp, #56]                   ; 4-byte Folded Reload
	.loc	100 57 9                        ; libframework/framework/src/SubProcess.cpp:57:9
	stur	w8, [x29, #-60]
	.loc	100 58 11 is_stmt 1             ; libframework/framework/src/SubProcess.cpp:58:11
	ldur	w8, [x29, #-60]
	orr	w8, w8, #0x1
	stur	w8, [x29, #-60]
	.loc	100 59 11                       ; libframework/framework/src/SubProcess.cpp:59:11
	ldur	w0, [x29, #-16]
	.loc	100 59 22 is_stmt 0             ; libframework/framework/src/SubProcess.cpp:59:22
	ldur	w9, [x29, #-60]
                                        ; implicit-def: $x8
	mov	x8, x9
Ltmp79:
	.loc	100 59 5                        ; libframework/framework/src/SubProcess.cpp:59:5
	mov	x9, sp
	str	x8, [x9]
	mov	w1, #2
	bl	_fcntl
Ltmp80:
	b	LBB20_11
LBB20_11:
	.loc	100 61 19 is_stmt 1             ; libframework/framework/src/SubProcess.cpp:61:19
	ldur	w0, [x29, #-12]
Ltmp81:
	.loc	100 61 13 is_stmt 0             ; libframework/framework/src/SubProcess.cpp:61:13
	mov	x8, sp
	str	xzr, [x8]
	mov	w1, #1
	bl	_fcntl
	str	w0, [sp, #52]                   ; 4-byte Folded Spill
Ltmp82:
	b	LBB20_12
LBB20_12:
	.loc	100 0 13                        ; libframework/framework/src/SubProcess.cpp:0:13
	ldr	w8, [sp, #52]                   ; 4-byte Folded Reload
	.loc	100 61 11                       ; libframework/framework/src/SubProcess.cpp:61:11
	stur	w8, [x29, #-60]
	.loc	100 62 11 is_stmt 1             ; libframework/framework/src/SubProcess.cpp:62:11
	ldur	w8, [x29, #-60]
	orr	w8, w8, #0x1
	stur	w8, [x29, #-60]
	.loc	100 63 11                       ; libframework/framework/src/SubProcess.cpp:63:11
	ldur	w0, [x29, #-12]
	.loc	100 63 22 is_stmt 0             ; libframework/framework/src/SubProcess.cpp:63:22
	ldur	w9, [x29, #-60]
                                        ; implicit-def: $x8
	mov	x8, x9
Ltmp83:
	.loc	100 63 5                        ; libframework/framework/src/SubProcess.cpp:63:5
	mov	x9, sp
	str	x8, [x9]
	mov	w1, #2
	bl	_fcntl
Ltmp84:
	b	LBB20_13
LBB20_13:
	.loc	100 65 20 is_stmt 1             ; libframework/framework/src/SubProcess.cpp:65:20
	ldur	w0, [x29, #-16]
Ltmp85:
	.loc	100 0 0 is_stmt 0               ; libframework/framework/src/SubProcess.cpp:0:0
	adrp	x1, l_.str.3@PAGE
	add	x1, x1, l_.str.3@PAGEOFF
	.loc	100 65 13                       ; libframework/framework/src/SubProcess.cpp:65:13
	bl	_fdopen
	str	x0, [sp, #40]                   ; 8-byte Folded Spill
Ltmp86:
	b	LBB20_14
LBB20_14:
	.loc	100 0 13                        ; libframework/framework/src/SubProcess.cpp:0:13
	ldr	x8, [sp, #72]                   ; 8-byte Folded Reload
	ldr	x9, [sp, #40]                   ; 8-byte Folded Reload
	.loc	100 65 11                       ; libframework/framework/src/SubProcess.cpp:65:11
	str	x9, [x8, #96]
Ltmp133:
	.loc	100 66 10 is_stmt 1             ; libframework/framework/src/SubProcess.cpp:66:10
	ldr	x8, [x8, #96]
Ltmp134:
	.loc	100 66 9 is_stmt 0              ; libframework/framework/src/SubProcess.cpp:66:9
	cbnz	x8, LBB20_19
	b	LBB20_15
LBB20_15:
Ltmp87:
	.loc	100 0 9                         ; libframework/framework/src/SubProcess.cpp:0:9
	ldr	x0, [sp, #64]                   ; 8-byte Folded Reload
Ltmp135:
	adrp	x1, l_.str.4@PAGE
	add	x1, x1, l_.str.4@PAGEOFF
	.loc	100 68 19 is_stmt 1             ; libframework/framework/src/SubProcess.cpp:68:19
	bl	__ZNSt3__1lsINS_11char_traitsIcEEEERNS_13basic_ostreamIcT_EES6_PKc
Ltmp88:
	b	LBB20_16
LBB20_16:
	.loc	100 69 15                       ; libframework/framework/src/SubProcess.cpp:69:15
	ldur	w0, [x29, #-16]
Ltmp89:
	.loc	100 69 9 is_stmt 0              ; libframework/framework/src/SubProcess.cpp:69:9
	bl	_close
Ltmp90:
	b	LBB20_17
LBB20_17:
	.loc	100 70 15 is_stmt 1             ; libframework/framework/src/SubProcess.cpp:70:15
	ldur	w0, [x29, #-12]
Ltmp91:
	.loc	100 70 9 is_stmt 0              ; libframework/framework/src/SubProcess.cpp:70:9
	bl	_close
Ltmp92:
	b	LBB20_18
LBB20_18:
	.loc	100 71 9 is_stmt 1              ; libframework/framework/src/SubProcess.cpp:71:9
	stur	wzr, [x29, #-20]
	mov	w8, #1
	stur	w8, [x29, #-56]
	b	LBB20_37
Ltmp136:
LBB20_19:
Ltmp93:
	.loc	100 74 12                       ; libframework/framework/src/SubProcess.cpp:74:12
	bl	_fork
	str	w0, [sp, #36]                   ; 4-byte Folded Spill
Ltmp94:
	b	LBB20_20
LBB20_20:
	.loc	100 0 12 is_stmt 0              ; libframework/framework/src/SubProcess.cpp:0:12
	ldr	x8, [sp, #72]                   ; 8-byte Folded Reload
	ldr	w9, [sp, #36]                   ; 4-byte Folded Reload
	.loc	100 74 10                       ; libframework/framework/src/SubProcess.cpp:74:10
	str	w9, [x8, #104]
Ltmp137:
	.loc	100 75 9 is_stmt 1              ; libframework/framework/src/SubProcess.cpp:75:9
	ldr	w8, [x8, #104]
Ltmp138:
	.loc	100 75 9 is_stmt 0              ; libframework/framework/src/SubProcess.cpp:75:9
	subs	w8, w8, #0
	b.ge	LBB20_25
	b	LBB20_21
LBB20_21:
Ltmp113:
	.loc	100 0 9                         ; libframework/framework/src/SubProcess.cpp:0:9
	ldr	x0, [sp, #64]                   ; 8-byte Folded Reload
Ltmp139:
	adrp	x1, l_.str.5@PAGE
	add	x1, x1, l_.str.5@PAGEOFF
	.loc	100 77 19 is_stmt 1             ; libframework/framework/src/SubProcess.cpp:77:19
	bl	__ZNSt3__1lsINS_11char_traitsIcEEEERNS_13basic_ostreamIcT_EES6_PKc
Ltmp114:
	b	LBB20_22
LBB20_22:
	.loc	100 78 15                       ; libframework/framework/src/SubProcess.cpp:78:15
	ldur	w0, [x29, #-16]
Ltmp115:
	.loc	100 78 9 is_stmt 0              ; libframework/framework/src/SubProcess.cpp:78:9
	bl	_close
Ltmp116:
	b	LBB20_23
LBB20_23:
	.loc	100 79 15 is_stmt 1             ; libframework/framework/src/SubProcess.cpp:79:15
	ldur	w0, [x29, #-12]
Ltmp117:
	.loc	100 79 9 is_stmt 0              ; libframework/framework/src/SubProcess.cpp:79:9
	bl	_close
Ltmp118:
	b	LBB20_24
LBB20_24:
	.loc	100 80 9 is_stmt 1              ; libframework/framework/src/SubProcess.cpp:80:9
	stur	wzr, [x29, #-20]
	mov	w8, #1
	stur	w8, [x29, #-56]
	b	LBB20_37
Ltmp140:
LBB20_25:
	.loc	100 0 9 is_stmt 0               ; libframework/framework/src/SubProcess.cpp:0:9
	ldr	x8, [sp, #72]                   ; 8-byte Folded Reload
Ltmp141:
	.loc	100 83 9 is_stmt 1              ; libframework/framework/src/SubProcess.cpp:83:9
	ldr	w8, [x8, #104]
Ltmp142:
	.loc	100 83 9 is_stmt 0              ; libframework/framework/src/SubProcess.cpp:83:9
	cbnz	w8, LBB20_34
	b	LBB20_26
LBB20_26:
Ltmp99:
	.loc	100 0 9                         ; libframework/framework/src/SubProcess.cpp:0:9
	ldr	x0, [sp, #64]                   ; 8-byte Folded Reload
Ltmp143:
	adrp	x1, l_.str.6@PAGE
	add	x1, x1, l_.str.6@PAGEOFF
	.loc	100 85 19 is_stmt 1             ; libframework/framework/src/SubProcess.cpp:85:19
	bl	__ZNSt3__1lsINS_11char_traitsIcEEEERNS_13basic_ostreamIcT_EES6_PKc
Ltmp100:
	b	LBB20_27
LBB20_27:
	.loc	100 86 15                       ; libframework/framework/src/SubProcess.cpp:86:15
	ldur	w0, [x29, #-16]
Ltmp101:
	.loc	100 86 9 is_stmt 0              ; libframework/framework/src/SubProcess.cpp:86:9
	bl	_close
Ltmp102:
	b	LBB20_28
LBB20_28:
	.loc	100 87 14 is_stmt 1             ; libframework/framework/src/SubProcess.cpp:87:14
	ldur	w0, [x29, #-12]
Ltmp103:
	mov	w1, #1
	.loc	100 87 9 is_stmt 0              ; libframework/framework/src/SubProcess.cpp:87:9
	bl	_dup2
Ltmp104:
	b	LBB20_29
LBB20_29:
Ltmp105:
	.loc	100 0 9                         ; libframework/framework/src/SubProcess.cpp:0:9
	mov	w0, #1
	adrp	x1, l_.str.7@PAGE
	add	x1, x1, l_.str.7@PAGEOFF
	mov	x2, #2
	.loc	100 88 9 is_stmt 1              ; libframework/framework/src/SubProcess.cpp:88:9
	bl	_write
Ltmp106:
	b	LBB20_30
LBB20_30:
	.loc	100 0 9 is_stmt 0               ; libframework/framework/src/SubProcess.cpp:0:9
	ldr	x8, [sp, #72]                   ; 8-byte Folded Reload
	.loc	100 89 38 is_stmt 1             ; libframework/framework/src/SubProcess.cpp:89:38
	add	x0, x8, #40
	.loc	100 89 47 is_stmt 0             ; libframework/framework/src/SubProcess.cpp:89:47
	bl	__ZNKSt3__112basic_stringIcNS_11char_traitsIcEENS_9allocatorIcEEE5c_strEv
Ltmp107:
	.loc	100 89 9                        ; libframework/framework/src/SubProcess.cpp:89:9
	mov	x8, sp
	.loc	100 0 0                         ; libframework/framework/src/SubProcess.cpp:0:0
	adrp	x9, l_.str.10@PAGE
	add	x9, x9, l_.str.10@PAGEOFF
	.loc	100 89 9                        ; libframework/framework/src/SubProcess.cpp:89:9
	str	x9, [x8]
	str	x0, [x8, #8]
                                        ; kill: def $x9 killed $xzr
	str	xzr, [x8, #16]
	.loc	100 0 0                         ; libframework/framework/src/SubProcess.cpp:0:0
	adrp	x0, l_.str.8@PAGE
	add	x0, x0, l_.str.8@PAGEOFF
	adrp	x1, l_.str.9@PAGE
	add	x1, x1, l_.str.9@PAGEOFF
	.loc	100 89 9                        ; libframework/framework/src/SubProcess.cpp:89:9
	bl	_execl
Ltmp108:
	b	LBB20_31
LBB20_31:
Ltmp109:
	.loc	100 0 9                         ; libframework/framework/src/SubProcess.cpp:0:9
	ldr	x0, [sp, #64]                   ; 8-byte Folded Reload
	adrp	x1, l_.str.11@PAGE
	add	x1, x1, l_.str.11@PAGEOFF
	.loc	100 90 19 is_stmt 1             ; libframework/framework/src/SubProcess.cpp:90:19
	bl	__ZNSt3__1lsINS_11char_traitsIcEEEERNS_13basic_ostreamIcT_EES6_PKc
Ltmp110:
	b	LBB20_32
LBB20_32:
Ltmp111:
	.loc	100 0 19 is_stmt 0              ; libframework/framework/src/SubProcess.cpp:0:19
	mov	w0, #1
	.loc	100 91 9 is_stmt 1              ; libframework/framework/src/SubProcess.cpp:91:9
	bl	__exit
Ltmp112:
	b	LBB20_33
LBB20_33:
	brk	#0x1
Ltmp144:
LBB20_34:
Ltmp95:
	.loc	100 0 9 is_stmt 0               ; libframework/framework/src/SubProcess.cpp:0:9
	ldr	x0, [sp, #64]                   ; 8-byte Folded Reload
	adrp	x1, l_.str.12@PAGE
	add	x1, x1, l_.str.12@PAGEOFF
	.loc	100 93 15 is_stmt 1             ; libframework/framework/src/SubProcess.cpp:93:15
	bl	__ZNSt3__1lsINS_11char_traitsIcEEEERNS_13basic_ostreamIcT_EES6_PKc
Ltmp96:
	b	LBB20_35
LBB20_35:
	.loc	100 94 11                       ; libframework/framework/src/SubProcess.cpp:94:11
	ldur	w0, [x29, #-12]
Ltmp97:
	.loc	100 94 5 is_stmt 0              ; libframework/framework/src/SubProcess.cpp:94:5
	bl	_close
Ltmp98:
	b	LBB20_36
LBB20_36:
	.loc	100 0 5                         ; libframework/framework/src/SubProcess.cpp:0:5
	mov	w8, #1
	.loc	100 95 5 is_stmt 1              ; libframework/framework/src/SubProcess.cpp:95:5
	stur	w8, [x29, #-20]
	stur	w8, [x29, #-56]
	b	LBB20_37
LBB20_37:
	.loc	100 0 5 is_stmt 0               ; libframework/framework/src/SubProcess.cpp:0:5
	sub	x0, x29, #40
	.loc	100 96 1 is_stmt 1              ; libframework/framework/src/SubProcess.cpp:96:1
	bl	__ZNSt3__110lock_guardINS_5mutexEED1Ev
	ldur	w8, [x29, #-20]
	str	w8, [sp, #32]                   ; 4-byte Folded Spill
	ldur	x9, [x29, #-8]
	adrp	x8, ___stack_chk_guard@GOTPAGE
	ldr	x8, [x8, ___stack_chk_guard@GOTPAGEOFF]
	ldr	x8, [x8]
	subs	x8, x8, x9
	b.eq	LBB20_39
	b	LBB20_38
LBB20_38:
	bl	___stack_chk_fail
LBB20_39:
	.loc	100 0 1 is_stmt 0               ; libframework/framework/src/SubProcess.cpp:0:1
	ldr	w0, [sp, #32]                   ; 4-byte Folded Reload
	.loc	100 96 1                        ; libframework/framework/src/SubProcess.cpp:96:1
	ldp	x29, x30, [sp, #144]            ; 16-byte Folded Reload
	add	sp, sp, #160
	ret
LBB20_40:
	ldur	x0, [x29, #-48]
	bl	__Unwind_Resume
Ltmp145:
Lfunc_end20:
	.cfi_endproc
	.section	__TEXT,__gcc_except_tab
	.p2align	2
GCC_except_table20:
Lexception3:
	.byte	255                             ; @LPStart Encoding = omit
	.byte	255                             ; @TType Encoding = omit
	.byte	1                               ; Call site Encoding = uleb128
	.uleb128 Lcst_end3-Lcst_begin3
Lcst_begin3:
	.uleb128 Lfunc_begin20-Lfunc_begin20    ; >> Call Site 1 <<
	.uleb128 Ltmp121-Lfunc_begin20          ;   Call between Lfunc_begin20 and Ltmp121
	.byte	0                               ;     has no landing pad
	.byte	0                               ;   On action: cleanup
	.uleb128 Ltmp121-Lfunc_begin20          ; >> Call Site 2 <<
	.uleb128 Ltmp98-Ltmp121                 ;   Call between Ltmp121 and Ltmp98
	.uleb128 Ltmp123-Lfunc_begin20          ;     jumps to Ltmp123
	.byte	0                               ;   On action: cleanup
	.uleb128 Ltmp98-Lfunc_begin20           ; >> Call Site 3 <<
	.uleb128 Lfunc_end20-Ltmp98             ;   Call between Ltmp98 and Lfunc_end20
	.byte	0                               ;     has no landing pad
	.byte	0                               ;   On action: cleanup
Lcst_end3:
	.p2align	2
                                        ; -- End function
	.section	__TEXT,__text,regular,pure_instructions
	.globl	__ZNSt3__1lsINS_11char_traitsIcEEEERNS_13basic_ostreamIcT_EES6_PKc ; -- Begin function _ZNSt3__1lsINS_11char_traitsIcEEEERNS_13basic_ostreamIcT_EES6_PKc
	.weak_definition	__ZNSt3__1lsINS_11char_traitsIcEEEERNS_13basic_ostreamIcT_EES6_PKc
	.p2align	2
__ZNSt3__1lsINS_11char_traitsIcEEEERNS_13basic_ostreamIcT_EES6_PKc: ; @_ZNSt3__1lsINS_11char_traitsIcEEEERNS_13basic_ostreamIcT_EES6_PKc
Lfunc_begin21:
	.loc	49 856 0 is_stmt 1              ; /Applications/Xcode.app/Contents/Developer/Platforms/MacOSX.platform/Developer/SDKs/MacOSX13.1.sdk/usr/include/c++/v1/ostream:856:0
	.cfi_startproc
; %bb.0:
	sub	sp, sp, #48
	stp	x29, x30, [sp, #32]             ; 16-byte Folded Spill
	add	x29, sp, #32
	.cfi_def_cfa w29, 16
	.cfi_offset w30, -8
	.cfi_offset w29, -16
	stur	x0, [x29, #-8]
	str	x1, [sp, #16]
Ltmp146:
	.loc	49 857 47 prologue_end          ; /Applications/Xcode.app/Contents/Developer/Platforms/MacOSX.platform/Developer/SDKs/MacOSX13.1.sdk/usr/include/c++/v1/ostream:857:47
	ldur	x8, [x29, #-8]
	str	x8, [sp, #8]                    ; 8-byte Folded Spill
	.loc	49 857 53 is_stmt 0             ; /Applications/Xcode.app/Contents/Developer/Platforms/MacOSX.platform/Developer/SDKs/MacOSX13.1.sdk/usr/include/c++/v1/ostream:857:53
	ldr	x8, [sp, #16]
	str	x8, [sp]                        ; 8-byte Folded Spill
	.loc	49 857 76                       ; /Applications/Xcode.app/Contents/Developer/Platforms/MacOSX.platform/Developer/SDKs/MacOSX13.1.sdk/usr/include/c++/v1/ostream:857:76
	ldr	x0, [sp, #16]
	.loc	49 857 60                       ; /Applications/Xcode.app/Contents/Developer/Platforms/MacOSX.platform/Developer/SDKs/MacOSX13.1.sdk/usr/include/c++/v1/ostream:857:60
	bl	__ZNSt3__111char_traitsIcE6lengthEPKc
	ldr	x1, [sp]                        ; 8-byte Folded Reload
	mov	x2, x0
	ldr	x0, [sp, #8]                    ; 8-byte Folded Reload
	.loc	49 857 12                       ; /Applications/Xcode.app/Contents/Developer/Platforms/MacOSX.platform/Developer/SDKs/MacOSX13.1.sdk/usr/include/c++/v1/ostream:857:12
	bl	__ZNSt3__124__put_character_sequenceIcNS_11char_traitsIcEEEERNS_13basic_ostreamIT_T0_EES7_PKS4_m
	.loc	49 857 5                        ; /Applications/Xcode.app/Contents/Developer/Platforms/MacOSX.platform/Developer/SDKs/MacOSX13.1.sdk/usr/include/c++/v1/ostream:857:5
	ldp	x29, x30, [sp, #32]             ; 16-byte Folded Reload
	add	sp, sp, #48
	ret
Ltmp147:
Lfunc_end21:
	.cfi_endproc
                                        ; -- End function
	.p2align	2                               ; -- Begin function _ZNKSt3__112basic_stringIcNS_11char_traitsIcEENS_9allocatorIcEEE5c_strEv
__ZNKSt3__112basic_stringIcNS_11char_traitsIcEENS_9allocatorIcEEE5c_strEv: ; @_ZNKSt3__112basic_stringIcNS_11char_traitsIcEENS_9allocatorIcEEE5c_strEv
Lfunc_begin22:
	.loc	37 1263 0 is_stmt 1             ; /Applications/Xcode.app/Contents/Developer/Platforms/MacOSX.platform/Developer/SDKs/MacOSX13.1.sdk/usr/include/c++/v1/string:1263:0
	.cfi_startproc
; %bb.0:
	sub	sp, sp, #32
	stp	x29, x30, [sp, #16]             ; 16-byte Folded Spill
	add	x29, sp, #16
	.cfi_def_cfa w29, 16
	.cfi_offset w30, -8
	.cfi_offset w29, -16
	str	x0, [sp, #8]
	ldr	x0, [sp, #8]
Ltmp148:
	.loc	37 1263 54 prologue_end         ; /Applications/Xcode.app/Contents/Developer/Platforms/MacOSX.platform/Developer/SDKs/MacOSX13.1.sdk/usr/include/c++/v1/string:1263:54
	bl	__ZNKSt3__112basic_stringIcNS_11char_traitsIcEENS_9allocatorIcEEE4dataEv
	.loc	37 1263 47 is_stmt 0            ; /Applications/Xcode.app/Contents/Developer/Platforms/MacOSX.platform/Developer/SDKs/MacOSX13.1.sdk/usr/include/c++/v1/string:1263:47
	ldp	x29, x30, [sp, #16]             ; 16-byte Folded Reload
	add	sp, sp, #32
	ret
Ltmp149:
Lfunc_end22:
	.cfi_endproc
                                        ; -- End function
	.globl	__ZN10SubProcess13addReadOutPutERNSt3__110shared_ptrI6LooperEENS0_8functionIFvRKNS0_12basic_stringIcNS0_11char_traitsIcEENS0_9allocatorIcEEEEiEEE ; -- Begin function _ZN10SubProcess13addReadOutPutERNSt3__110shared_ptrI6LooperEENS0_8functionIFvRKNS0_12basic_stringIcNS0_11char_traitsIcEENS0_9allocatorIcEEEEiEEE
	.p2align	2
__ZN10SubProcess13addReadOutPutERNSt3__110shared_ptrI6LooperEENS0_8functionIFvRKNS0_12basic_stringIcNS0_11char_traitsIcEENS0_9allocatorIcEEEEiEEE: ; @_ZN10SubProcess13addReadOutPutERNSt3__110shared_ptrI6LooperEENS0_8functionIFvRKNS0_12basic_stringIcNS0_11char_traitsIcEENS0_9allocatorIcEEEEiEEE
Lfunc_begin23:
	.loc	100 99 0 is_stmt 1              ; libframework/framework/src/SubProcess.cpp:99:0
	.cfi_startproc
	.cfi_personality 155, ___gxx_personality_v0
	.cfi_lsda 16, Lexception4
; %bb.0:
	sub	sp, sp, #128
	stp	x29, x30, [sp, #112]            ; 16-byte Folded Spill
	add	x29, sp, #112
	.cfi_def_cfa w29, 16
	.cfi_offset w30, -8
	.cfi_offset w29, -16
	str	x2, [sp, #40]                   ; 8-byte Folded Spill
	stur	x0, [x29, #-16]
	stur	x1, [x29, #-24]
Ltmp161:
	;DEBUG_VALUE: addReadOutPut:handler <- [DW_OP_plus_uconst 40, DW_OP_deref] [$sp+0]
	ldur	x8, [x29, #-16]
	str	x8, [sp, #48]                   ; 8-byte Folded Spill
Ltmp162:
	.loc	100 100 15 prologue_end         ; libframework/framework/src/SubProcess.cpp:100:15
	ldur	x1, [x29, #-24]
	.loc	100 100 5 is_stmt 0             ; libframework/framework/src/SubProcess.cpp:100:5
	add	x0, x8, #24
	.loc	100 100 13                      ; libframework/framework/src/SubProcess.cpp:100:13
	bl	__ZNSt3__18weak_ptrI6LooperEaSIS1_EENS_9enable_ifIXsr14is_convertibleIPT_PS1_EE5valueERS2_E4typeERKNS_10shared_ptrIS5_EE
	ldr	x0, [sp, #40]                   ; 8-byte Folded Reload
	.loc	100 101 16 is_stmt 1            ; libframework/framework/src/SubProcess.cpp:101:16
	bl	__ZNSt3__1L4moveIRNS_8functionIFvRKNS_12basic_stringIcNS_11char_traitsIcEENS_9allocatorIcEEEEiEEEEEONS_16remove_referenceIT_E4typeEOSE_
	ldr	x8, [sp, #48]                   ; 8-byte Folded Reload
	mov	x1, x0
	.loc	100 101 5 is_stmt 0             ; libframework/framework/src/SubProcess.cpp:101:5
	add	x0, x8, #64
	.loc	100 101 14                      ; libframework/framework/src/SubProcess.cpp:101:14
	bl	__ZNSt3__18functionIFvRKNS_12basic_stringIcNS_11char_traitsIcEENS_9allocatorIcEEEEiEEaSEOSA_
	ldr	x8, [sp, #48]                   ; 8-byte Folded Reload
Ltmp163:
	.loc	100 102 9 is_stmt 1             ; libframework/framework/src/SubProcess.cpp:102:9
	ldr	x8, [x8, #96]
Ltmp164:
	.loc	100 102 9 is_stmt 0             ; libframework/framework/src/SubProcess.cpp:102:9
	cbnz	x8, LBB23_2
	b	LBB23_1
Ltmp165:
LBB23_1:
	;DEBUG_VALUE: addReadOutPut:handler <- [DW_OP_plus_uconst 40, DW_OP_deref] [$sp+0]
	.loc	100 0 0                         ; libframework/framework/src/SubProcess.cpp:0:0
	adrp	x0, __ZNSt3__14coutE@GOTPAGE
	ldr	x0, [x0, __ZNSt3__14coutE@GOTPAGEOFF]
Ltmp166:
	adrp	x1, l_.str.13@PAGE
	add	x1, x1, l_.str.13@PAGEOFF
	.loc	100 104 19 is_stmt 1            ; libframework/framework/src/SubProcess.cpp:104:19
	bl	__ZNSt3__1lsINS_11char_traitsIcEEEERNS_13basic_ostreamIcT_EES6_PKc
Ltmp167:
	.loc	100 0 0 is_stmt 0               ; libframework/framework/src/SubProcess.cpp:0:0
	adrp	x1, __ZNSt3__14endlIcNS_11char_traitsIcEEEERNS_13basic_ostreamIT_T0_EES7_@GOTPAGE
	ldr	x1, [x1, __ZNSt3__14endlIcNS_11char_traitsIcEEEERNS_13basic_ostreamIT_T0_EES7_@GOTPAGEOFF]
Ltmp168:
	.loc	100 104 41                      ; libframework/framework/src/SubProcess.cpp:104:41
	bl	__ZNSt3__113basic_ostreamIcNS_11char_traitsIcEEElsEPFRS3_S4_E
	.loc	100 105 9 is_stmt 1             ; libframework/framework/src/SubProcess.cpp:105:9
	stur	wzr, [x29, #-4]
	b	LBB23_9
Ltmp169:
LBB23_2:
	;DEBUG_VALUE: addReadOutPut:handler <- [DW_OP_plus_uconst 40, DW_OP_deref] [$sp+0]
	.loc	100 0 9 is_stmt 0               ; libframework/framework/src/SubProcess.cpp:0:9
	ldr	x8, [sp, #48]                   ; 8-byte Folded Reload
	.loc	100 107 14 is_stmt 1            ; libframework/framework/src/SubProcess.cpp:107:14
	add	x0, x8, #8
	sub	x8, x29, #40
	bl	__ZNSt3__123enable_shared_from_thisI14LooperCallbackE16shared_from_thisEv
	ldr	x8, [sp, #48]                   ; 8-byte Folded Reload
	.loc	100 108 25                      ; libframework/framework/src/SubProcess.cpp:108:25
	ldr	x0, [x8, #96]
Ltmp150:
	.loc	100 108 18 is_stmt 0            ; libframework/framework/src/SubProcess.cpp:108:18
	bl	_fileno
	str	w0, [sp, #36]                   ; 4-byte Folded Spill
Ltmp151:
	b	LBB23_3
Ltmp170:
LBB23_3:
	;DEBUG_VALUE: addReadOutPut:handler <- [DW_OP_plus_uconst 40, DW_OP_deref] [$sp+0]
Ltmp152:
	.loc	100 0 18                        ; libframework/framework/src/SubProcess.cpp:0:18
	ldr	w1, [sp, #36]                   ; 4-byte Folded Reload
	adrp	x0, __ZNSt3__14coutE@GOTPAGE
	ldr	x0, [x0, __ZNSt3__14coutE@GOTPAGEOFF]
	.loc	100 108 15                      ; libframework/framework/src/SubProcess.cpp:108:15
	bl	__ZNSt3__113basic_ostreamIcNS_11char_traitsIcEEElsEi
	str	x0, [sp, #24]                   ; 8-byte Folded Spill
Ltmp153:
	b	LBB23_4
Ltmp171:
LBB23_4:
	;DEBUG_VALUE: addReadOutPut:handler <- [DW_OP_plus_uconst 40, DW_OP_deref] [$sp+0]
Ltmp154:
	.loc	100 0 15                        ; libframework/framework/src/SubProcess.cpp:0:15
	ldr	x0, [sp, #24]                   ; 8-byte Folded Reload
	adrp	x1, __ZNSt3__14endlIcNS_11char_traitsIcEEEERNS_13basic_ostreamIT_T0_EES7_@GOTPAGE
	ldr	x1, [x1, __ZNSt3__14endlIcNS_11char_traitsIcEEEERNS_13basic_ostreamIT_T0_EES7_@GOTPAGEOFF]
	.loc	100 108 32                      ; libframework/framework/src/SubProcess.cpp:108:32
	bl	__ZNSt3__113basic_ostreamIcNS_11char_traitsIcEEElsEPFRS3_S4_E
Ltmp155:
	b	LBB23_5
Ltmp172:
LBB23_5:
	;DEBUG_VALUE: addReadOutPut:handler <- [DW_OP_plus_uconst 40, DW_OP_deref] [$sp+0]
	.loc	100 109 12 is_stmt 1            ; libframework/framework/src/SubProcess.cpp:109:12
	ldur	x0, [x29, #-24]
	bl	__ZNKSt3__110shared_ptrI6LooperEptEv
	ldr	x8, [sp, #48]                   ; 8-byte Folded Reload
	str	x0, [sp, #8]                    ; 8-byte Folded Spill
	.loc	100 109 33 is_stmt 0            ; libframework/framework/src/SubProcess.cpp:109:33
	ldr	x0, [x8, #96]
Ltmp156:
	.loc	100 109 26                      ; libframework/framework/src/SubProcess.cpp:109:26
	bl	_fileno
	str	w0, [sp, #20]                   ; 4-byte Folded Spill
Ltmp157:
	b	LBB23_6
Ltmp173:
LBB23_6:
	;DEBUG_VALUE: addReadOutPut:handler <- [DW_OP_plus_uconst 40, DW_OP_deref] [$sp+0]
Ltmp158:
	.loc	100 0 26                        ; libframework/framework/src/SubProcess.cpp:0:26
	ldr	w1, [sp, #20]                   ; 4-byte Folded Reload
	ldr	x0, [sp, #8]                    ; 8-byte Folded Reload
	sub	x2, x29, #40
	mov	w3, #18
	.loc	100 109 20                      ; libframework/framework/src/SubProcess.cpp:109:20
	bl	__ZN6Looper5addFdEiRNSt3__110shared_ptrI14LooperCallbackEEs
	str	w0, [sp, #4]                    ; 4-byte Folded Spill
Ltmp159:
	b	LBB23_7
Ltmp174:
LBB23_7:
	;DEBUG_VALUE: addReadOutPut:handler <- [DW_OP_plus_uconst 40, DW_OP_deref] [$sp+0]
	.loc	100 0 20                        ; libframework/framework/src/SubProcess.cpp:0:20
	ldr	w8, [sp, #4]                    ; 4-byte Folded Reload
	.loc	100 109 5                       ; libframework/framework/src/SubProcess.cpp:109:5
	stur	w8, [x29, #-4]
	sub	x0, x29, #40
	.loc	100 110 1 is_stmt 1             ; libframework/framework/src/SubProcess.cpp:110:1
	bl	__ZNSt3__110shared_ptrI14LooperCallbackED1Ev
	b	LBB23_9
Ltmp175:
LBB23_8:
	;DEBUG_VALUE: addReadOutPut:handler <- [DW_OP_plus_uconst 40, DW_OP_deref] [$sp+0]
Ltmp160:
	mov	x8, x1
	stur	x0, [x29, #-48]
	stur	w8, [x29, #-52]
	sub	x0, x29, #40
	bl	__ZNSt3__110shared_ptrI14LooperCallbackED1Ev
	b	LBB23_10
Ltmp176:
LBB23_9:
	;DEBUG_VALUE: addReadOutPut:handler <- [DW_OP_plus_uconst 40, DW_OP_deref] [$sp+0]
	ldur	w0, [x29, #-4]
	ldp	x29, x30, [sp, #112]            ; 16-byte Folded Reload
	add	sp, sp, #128
Ltmp177:
	ret
LBB23_10:
Ltmp178:
	;DEBUG_VALUE: addReadOutPut:handler <- [DW_OP_plus_uconst 40, DW_OP_deref] [$sp+0]
	ldur	x0, [x29, #-48]
	bl	__Unwind_Resume
Ltmp179:
Lfunc_end23:
	.cfi_endproc
	.section	__TEXT,__gcc_except_tab
	.p2align	2
GCC_except_table23:
Lexception4:
	.byte	255                             ; @LPStart Encoding = omit
	.byte	255                             ; @TType Encoding = omit
	.byte	1                               ; Call site Encoding = uleb128
	.uleb128 Lcst_end4-Lcst_begin4
Lcst_begin4:
	.uleb128 Lfunc_begin23-Lfunc_begin23    ; >> Call Site 1 <<
	.uleb128 Ltmp150-Lfunc_begin23          ;   Call between Lfunc_begin23 and Ltmp150
	.byte	0                               ;     has no landing pad
	.byte	0                               ;   On action: cleanup
	.uleb128 Ltmp150-Lfunc_begin23          ; >> Call Site 2 <<
	.uleb128 Ltmp159-Ltmp150                ;   Call between Ltmp150 and Ltmp159
	.uleb128 Ltmp160-Lfunc_begin23          ;     jumps to Ltmp160
	.byte	0                               ;   On action: cleanup
	.uleb128 Ltmp159-Lfunc_begin23          ; >> Call Site 3 <<
	.uleb128 Lfunc_end23-Ltmp159            ;   Call between Ltmp159 and Lfunc_end23
	.byte	0                               ;     has no landing pad
	.byte	0                               ;   On action: cleanup
Lcst_end4:
	.p2align	2
                                        ; -- End function
	.section	__TEXT,__text,regular,pure_instructions
	.p2align	2                               ; -- Begin function _ZNSt3__18weak_ptrI6LooperEaSIS1_EENS_9enable_ifIXsr14is_convertibleIPT_PS1_EE5valueERS2_E4typeERKNS_10shared_ptrIS5_EE
__ZNSt3__18weak_ptrI6LooperEaSIS1_EENS_9enable_ifIXsr14is_convertibleIPT_PS1_EE5valueERS2_E4typeERKNS_10shared_ptrIS5_EE: ; @_ZNSt3__18weak_ptrI6LooperEaSIS1_EENS_9enable_ifIXsr14is_convertibleIPT_PS1_EE5valueERS2_E4typeERKNS_10shared_ptrIS5_EE
Lfunc_begin24:
	.loc	1 1544 0                        ; /Applications/Xcode.app/Contents/Developer/Platforms/MacOSX.platform/Developer/SDKs/MacOSX13.1.sdk/usr/include/c++/v1/__memory/shared_ptr.h:1544:0
	.cfi_startproc
; %bb.0:
	sub	sp, sp, #64
	stp	x29, x30, [sp, #48]             ; 16-byte Folded Spill
	add	x29, sp, #48
	.cfi_def_cfa w29, 16
	.cfi_offset w30, -8
	.cfi_offset w29, -16
	stur	x0, [x29, #-8]
	stur	x1, [x29, #-16]
	ldur	x8, [x29, #-8]
	str	x8, [sp, #8]                    ; 8-byte Folded Spill
Ltmp180:
	.loc	1 1545 14 prologue_end          ; /Applications/Xcode.app/Contents/Developer/Platforms/MacOSX.platform/Developer/SDKs/MacOSX13.1.sdk/usr/include/c++/v1/__memory/shared_ptr.h:1545:14
	ldur	x1, [x29, #-16]
	add	x0, sp, #16
	str	x0, [sp]                        ; 8-byte Folded Spill
	mov	x2, #0
	.loc	1 1545 5 is_stmt 0              ; /Applications/Xcode.app/Contents/Developer/Platforms/MacOSX.platform/Developer/SDKs/MacOSX13.1.sdk/usr/include/c++/v1/__memory/shared_ptr.h:1545:5
	bl	__ZNSt3__18weak_ptrI6LooperEC1IS1_EERKNS_10shared_ptrIT_EENS_9enable_ifIXsr14is_convertibleIPS5_PS1_EE5valueEPNS_5__natEE4typeE
	ldr	x0, [sp]                        ; 8-byte Folded Reload
	ldr	x1, [sp, #8]                    ; 8-byte Folded Reload
	.loc	1 1545 19                       ; /Applications/Xcode.app/Contents/Developer/Platforms/MacOSX.platform/Developer/SDKs/MacOSX13.1.sdk/usr/include/c++/v1/__memory/shared_ptr.h:1545:19
	bl	__ZNSt3__18weak_ptrI6LooperE4swapERS2_
	ldr	x0, [sp]                        ; 8-byte Folded Reload
	.loc	1 1545 5                        ; /Applications/Xcode.app/Contents/Developer/Platforms/MacOSX.platform/Developer/SDKs/MacOSX13.1.sdk/usr/include/c++/v1/__memory/shared_ptr.h:1545:5
	bl	__ZNSt3__18weak_ptrI6LooperED1Ev
	ldr	x0, [sp, #8]                    ; 8-byte Folded Reload
	.loc	1 1546 5 is_stmt 1              ; /Applications/Xcode.app/Contents/Developer/Platforms/MacOSX.platform/Developer/SDKs/MacOSX13.1.sdk/usr/include/c++/v1/__memory/shared_ptr.h:1546:5
	ldp	x29, x30, [sp, #48]             ; 16-byte Folded Reload
	add	sp, sp, #64
	ret
Ltmp181:
Lfunc_end24:
	.cfi_endproc
                                        ; -- End function
	.p2align	2                               ; -- Begin function _ZNSt3__1L4moveIRNS_8functionIFvRKNS_12basic_stringIcNS_11char_traitsIcEENS_9allocatorIcEEEEiEEEEEONS_16remove_referenceIT_E4typeEOSE_
__ZNSt3__1L4moveIRNS_8functionIFvRKNS_12basic_stringIcNS_11char_traitsIcEENS_9allocatorIcEEEEiEEEEEONS_16remove_referenceIT_E4typeEOSE_: ; @_ZNSt3__1L4moveIRNS_8functionIFvRKNS_12basic_stringIcNS_11char_traitsIcEENS_9allocatorIcEEEEiEEEEEONS_16remove_referenceIT_E4typeEOSE_
Lfunc_begin25:
	.file	102 "/Applications/Xcode.app/Contents/Developer/Platforms/MacOSX.platform/Developer/SDKs/MacOSX13.1.sdk/usr/include/c++/v1/__utility" "move.h"
	.loc	102 27 0                        ; /Applications/Xcode.app/Contents/Developer/Platforms/MacOSX.platform/Developer/SDKs/MacOSX13.1.sdk/usr/include/c++/v1/__utility/move.h:27:0
	.cfi_startproc
; %bb.0:
	sub	sp, sp, #16
	.cfi_def_cfa_offset 16
	str	x0, [sp, #8]
Ltmp183:
	.loc	102 29 29 prologue_end          ; /Applications/Xcode.app/Contents/Developer/Platforms/MacOSX.platform/Developer/SDKs/MacOSX13.1.sdk/usr/include/c++/v1/__utility/move.h:29:29
	ldr	x0, [sp, #8]
	.loc	102 29 3 is_stmt 0              ; /Applications/Xcode.app/Contents/Developer/Platforms/MacOSX.platform/Developer/SDKs/MacOSX13.1.sdk/usr/include/c++/v1/__utility/move.h:29:3
	add	sp, sp, #16
	ret
Ltmp184:
Lfunc_end25:
	.cfi_endproc
                                        ; -- End function
	.globl	__ZNSt3__18functionIFvRKNS_12basic_stringIcNS_11char_traitsIcEENS_9allocatorIcEEEEiEEaSEOSA_ ; -- Begin function _ZNSt3__18functionIFvRKNS_12basic_stringIcNS_11char_traitsIcEENS_9allocatorIcEEEEiEEaSEOSA_
	.weak_definition	__ZNSt3__18functionIFvRKNS_12basic_stringIcNS_11char_traitsIcEENS_9allocatorIcEEEEiEEaSEOSA_
	.p2align	2
__ZNSt3__18functionIFvRKNS_12basic_stringIcNS_11char_traitsIcEENS_9allocatorIcEEEEiEEaSEOSA_: ; @_ZNSt3__18functionIFvRKNS_12basic_stringIcNS_11char_traitsIcEENS_9allocatorIcEEEEiEEaSEOSA_
Lfunc_begin26:
	.loc	50 1146 0 is_stmt 1             ; /Applications/Xcode.app/Contents/Developer/Platforms/MacOSX.platform/Developer/SDKs/MacOSX13.1.sdk/usr/include/c++/v1/__functional/function.h:1146:0
	.cfi_startproc
	.cfi_personality 155, ___gxx_personality_v0
	.cfi_lsda 16, Lexception5
; %bb.0:
	sub	sp, sp, #48
	stp	x29, x30, [sp, #32]             ; 16-byte Folded Spill
	add	x29, sp, #32
	.cfi_def_cfa w29, 16
	.cfi_offset w30, -8
	.cfi_offset w29, -16
	stur	x0, [x29, #-8]
	str	x1, [sp, #16]
	ldur	x8, [x29, #-8]
	str	x8, [sp, #8]                    ; 8-byte Folded Spill
Ltmp188:
	.loc	50 1147 27 prologue_end         ; /Applications/Xcode.app/Contents/Developer/Platforms/MacOSX.platform/Developer/SDKs/MacOSX13.1.sdk/usr/include/c++/v1/__functional/function.h:1147:27
	ldr	x0, [sp, #16]
	.loc	50 1147 12 is_stmt 0            ; /Applications/Xcode.app/Contents/Developer/Platforms/MacOSX.platform/Developer/SDKs/MacOSX13.1.sdk/usr/include/c++/v1/__functional/function.h:1147:12
	bl	__ZNSt3__1L4moveIRNS_10__function12__value_funcIFvRKNS_12basic_stringIcNS_11char_traitsIcEENS_9allocatorIcEEEEiEEEEEONS_16remove_referenceIT_E4typeEOSF_
	mov	x1, x0
	ldr	x0, [sp, #8]                    ; 8-byte Folded Reload
Ltmp185:
	.loc	50 1147 10                      ; /Applications/Xcode.app/Contents/Developer/Platforms/MacOSX.platform/Developer/SDKs/MacOSX13.1.sdk/usr/include/c++/v1/__functional/function.h:1147:10
	bl	__ZNSt3__110__function12__value_funcIFvRKNS_12basic_stringIcNS_11char_traitsIcEENS_9allocatorIcEEEEiEEaSEOSB_
Ltmp186:
	b	LBB26_1
LBB26_1:
	.loc	50 0 10                         ; /Applications/Xcode.app/Contents/Developer/Platforms/MacOSX.platform/Developer/SDKs/MacOSX13.1.sdk/usr/include/c++/v1/__functional/function.h:0:10
	ldr	x0, [sp, #8]                    ; 8-byte Folded Reload
	.loc	50 1148 5 is_stmt 1             ; /Applications/Xcode.app/Contents/Developer/Platforms/MacOSX.platform/Developer/SDKs/MacOSX13.1.sdk/usr/include/c++/v1/__functional/function.h:1148:5
	ldp	x29, x30, [sp, #32]             ; 16-byte Folded Reload
	add	sp, sp, #48
	ret
LBB26_2:
Ltmp187:
	.loc	50 1147 10                      ; /Applications/Xcode.app/Contents/Developer/Platforms/MacOSX.platform/Developer/SDKs/MacOSX13.1.sdk/usr/include/c++/v1/__functional/function.h:1147:10
	bl	___clang_call_terminate
Ltmp189:
Lfunc_end26:
	.cfi_endproc
	.section	__TEXT,__gcc_except_tab
	.p2align	2
GCC_except_table26:
Lexception5:
	.byte	255                             ; @LPStart Encoding = omit
	.byte	155                             ; @TType Encoding = indirect pcrel sdata4
	.uleb128 Lttbase1-Lttbaseref1
Lttbaseref1:
	.byte	1                               ; Call site Encoding = uleb128
	.uleb128 Lcst_end5-Lcst_begin5
Lcst_begin5:
	.uleb128 Ltmp185-Lfunc_begin26          ; >> Call Site 1 <<
	.uleb128 Ltmp186-Ltmp185                ;   Call between Ltmp185 and Ltmp186
	.uleb128 Ltmp187-Lfunc_begin26          ;     jumps to Ltmp187
	.byte	1                               ;   On action: 1
Lcst_end5:
	.byte	1                               ; >> Action Record 1 <<
                                        ;   Catch TypeInfo 1
	.byte	0                               ;   No further actions
	.p2align	2
                                        ; >> Catch TypeInfos <<
	.long	0                               ; TypeInfo 1
Lttbase1:
	.p2align	2
                                        ; -- End function
	.section	__TEXT,__text,regular,pure_instructions
	.p2align	2                               ; -- Begin function _ZNSt3__113basic_ostreamIcNS_11char_traitsIcEEElsEPFRS3_S4_E
__ZNSt3__113basic_ostreamIcNS_11char_traitsIcEEElsEPFRS3_S4_E: ; @_ZNSt3__113basic_ostreamIcNS_11char_traitsIcEEElsEPFRS3_S4_E
Lfunc_begin27:
	.loc	49 189 0                        ; /Applications/Xcode.app/Contents/Developer/Platforms/MacOSX.platform/Developer/SDKs/MacOSX13.1.sdk/usr/include/c++/v1/ostream:189:0
	.cfi_startproc
; %bb.0:
	sub	sp, sp, #32
	stp	x29, x30, [sp, #16]             ; 16-byte Folded Spill
	add	x29, sp, #16
	.cfi_def_cfa w29, 16
	.cfi_offset w30, -8
	.cfi_offset w29, -16
	str	x0, [sp, #8]
	str	x1, [sp]
	ldr	x0, [sp, #8]
Ltmp190:
	.loc	49 189 14 prologue_end          ; /Applications/Xcode.app/Contents/Developer/Platforms/MacOSX.platform/Developer/SDKs/MacOSX13.1.sdk/usr/include/c++/v1/ostream:189:14
	ldr	x8, [sp]
	blr	x8
	.loc	49 189 7 is_stmt 0              ; /Applications/Xcode.app/Contents/Developer/Platforms/MacOSX.platform/Developer/SDKs/MacOSX13.1.sdk/usr/include/c++/v1/ostream:189:7
	ldp	x29, x30, [sp, #16]             ; 16-byte Folded Reload
	add	sp, sp, #32
	ret
Ltmp191:
Lfunc_end27:
	.cfi_endproc
                                        ; -- End function
	.globl	__ZNSt3__14endlIcNS_11char_traitsIcEEEERNS_13basic_ostreamIT_T0_EES7_ ; -- Begin function _ZNSt3__14endlIcNS_11char_traitsIcEEEERNS_13basic_ostreamIT_T0_EES7_
	.weak_definition	__ZNSt3__14endlIcNS_11char_traitsIcEEEERNS_13basic_ostreamIT_T0_EES7_
	.p2align	2
__ZNSt3__14endlIcNS_11char_traitsIcEEEERNS_13basic_ostreamIT_T0_EES7_: ; @_ZNSt3__14endlIcNS_11char_traitsIcEEEERNS_13basic_ostreamIT_T0_EES7_
Lfunc_begin28:
	.loc	49 993 0 is_stmt 1              ; /Applications/Xcode.app/Contents/Developer/Platforms/MacOSX.platform/Developer/SDKs/MacOSX13.1.sdk/usr/include/c++/v1/ostream:993:0
	.cfi_startproc
; %bb.0:
	sub	sp, sp, #32
	stp	x29, x30, [sp, #16]             ; 16-byte Folded Spill
	add	x29, sp, #16
	.cfi_def_cfa w29, 16
	.cfi_offset w30, -8
	.cfi_offset w29, -16
	str	x0, [sp, #8]
Ltmp192:
	.loc	49 994 5 prologue_end           ; /Applications/Xcode.app/Contents/Developer/Platforms/MacOSX.platform/Developer/SDKs/MacOSX13.1.sdk/usr/include/c++/v1/ostream:994:5
	ldr	x8, [sp, #8]
	str	x8, [sp]                        ; 8-byte Folded Spill
	.loc	49 994 14 is_stmt 0             ; /Applications/Xcode.app/Contents/Developer/Platforms/MacOSX.platform/Developer/SDKs/MacOSX13.1.sdk/usr/include/c++/v1/ostream:994:14
	ldr	x8, [sp, #8]
	ldr	x9, [x8]
	ldur	x9, [x9, #-24]
	add	x0, x8, x9
	mov	w1, #10
	.loc	49 994 19                       ; /Applications/Xcode.app/Contents/Developer/Platforms/MacOSX.platform/Developer/SDKs/MacOSX13.1.sdk/usr/include/c++/v1/ostream:994:19
	bl	__ZNKSt3__19basic_iosIcNS_11char_traitsIcEEE5widenEc
	mov	x8, x0
	ldr	x0, [sp]                        ; 8-byte Folded Reload
	.loc	49 994 10                       ; /Applications/Xcode.app/Contents/Developer/Platforms/MacOSX.platform/Developer/SDKs/MacOSX13.1.sdk/usr/include/c++/v1/ostream:994:10
	sxtb	w1, w8
	bl	__ZNSt3__113basic_ostreamIcNS_11char_traitsIcEEE3putEc
	.loc	49 995 5 is_stmt 1              ; /Applications/Xcode.app/Contents/Developer/Platforms/MacOSX.platform/Developer/SDKs/MacOSX13.1.sdk/usr/include/c++/v1/ostream:995:5
	ldr	x0, [sp, #8]
	.loc	49 995 10 is_stmt 0             ; /Applications/Xcode.app/Contents/Developer/Platforms/MacOSX.platform/Developer/SDKs/MacOSX13.1.sdk/usr/include/c++/v1/ostream:995:10
	bl	__ZNSt3__113basic_ostreamIcNS_11char_traitsIcEEE5flushEv
	.loc	49 996 12 is_stmt 1             ; /Applications/Xcode.app/Contents/Developer/Platforms/MacOSX.platform/Developer/SDKs/MacOSX13.1.sdk/usr/include/c++/v1/ostream:996:12
	ldr	x0, [sp, #8]
	.loc	49 996 5 is_stmt 0              ; /Applications/Xcode.app/Contents/Developer/Platforms/MacOSX.platform/Developer/SDKs/MacOSX13.1.sdk/usr/include/c++/v1/ostream:996:5
	ldp	x29, x30, [sp, #16]             ; 16-byte Folded Reload
	add	sp, sp, #32
	ret
Ltmp193:
Lfunc_end28:
	.cfi_endproc
                                        ; -- End function
	.p2align	2                               ; -- Begin function _ZNSt3__123enable_shared_from_thisI14LooperCallbackE16shared_from_thisEv
__ZNSt3__123enable_shared_from_thisI14LooperCallbackE16shared_from_thisEv: ; @_ZNSt3__123enable_shared_from_thisI14LooperCallbackE16shared_from_thisEv
Lfunc_begin29:
	.loc	1 1692 0 is_stmt 1              ; /Applications/Xcode.app/Contents/Developer/Platforms/MacOSX.platform/Developer/SDKs/MacOSX13.1.sdk/usr/include/c++/v1/__memory/shared_ptr.h:1692:0
	.cfi_startproc
; %bb.0:
	sub	sp, sp, #48
	stp	x29, x30, [sp, #32]             ; 16-byte Folded Spill
	add	x29, sp, #32
	.cfi_def_cfa w29, 16
	.cfi_offset w30, -8
	.cfi_offset w29, -16
	str	x8, [sp]                        ; 8-byte Folded Spill
	mov	x8, x0
	ldr	x0, [sp]                        ; 8-byte Folded Reload
	mov	x9, x0
	stur	x9, [x29, #-8]
	str	x8, [sp, #16]
	ldr	x1, [sp, #16]
Ltmp194:
	.loc	1 1692 17 prologue_end          ; /Applications/Xcode.app/Contents/Developer/Platforms/MacOSX.platform/Developer/SDKs/MacOSX13.1.sdk/usr/include/c++/v1/__memory/shared_ptr.h:1692:17
	str	wzr, [sp, #12]
	ldr	w8, [sp, #12]
	mov	x2, x8
	bl	__ZNSt3__110shared_ptrI14LooperCallbackEC1IS1_EERKNS_8weak_ptrIT_EENS_9enable_ifIXsr14is_convertibleIPS5_PS1_EE5valueENS2_5__natEE4typeE
	.loc	1 1692 10 is_stmt 0             ; /Applications/Xcode.app/Contents/Developer/Platforms/MacOSX.platform/Developer/SDKs/MacOSX13.1.sdk/usr/include/c++/v1/__memory/shared_ptr.h:1692:10
	ldp	x29, x30, [sp, #32]             ; 16-byte Folded Reload
	add	sp, sp, #48
	ret
Ltmp195:
Lfunc_end29:
	.cfi_endproc
                                        ; -- End function
	.p2align	2                               ; -- Begin function _ZNKSt3__110shared_ptrI6LooperEptEv
__ZNKSt3__110shared_ptrI6LooperEptEv:   ; @_ZNKSt3__110shared_ptrI6LooperEptEv
Lfunc_begin30:
	.loc	1 586 0 is_stmt 1               ; /Applications/Xcode.app/Contents/Developer/Platforms/MacOSX.platform/Developer/SDKs/MacOSX13.1.sdk/usr/include/c++/v1/__memory/shared_ptr.h:586:0
	.cfi_startproc
; %bb.0:
	sub	sp, sp, #16
	.cfi_def_cfa_offset 16
	str	x0, [sp, #8]
	ldr	x8, [sp, #8]
Ltmp197:
	.loc	1 589 16 prologue_end           ; /Applications/Xcode.app/Contents/Developer/Platforms/MacOSX.platform/Developer/SDKs/MacOSX13.1.sdk/usr/include/c++/v1/__memory/shared_ptr.h:589:16
	ldr	x0, [x8]
	.loc	1 589 9 is_stmt 0               ; /Applications/Xcode.app/Contents/Developer/Platforms/MacOSX.platform/Developer/SDKs/MacOSX13.1.sdk/usr/include/c++/v1/__memory/shared_ptr.h:589:9
	add	sp, sp, #16
	ret
Ltmp198:
Lfunc_end30:
	.cfi_endproc
                                        ; -- End function
	.globl	__ZNSt3__110shared_ptrI14LooperCallbackED1Ev ; -- Begin function _ZNSt3__110shared_ptrI14LooperCallbackED1Ev
	.weak_def_can_be_hidden	__ZNSt3__110shared_ptrI14LooperCallbackED1Ev
	.p2align	2
__ZNSt3__110shared_ptrI14LooperCallbackED1Ev: ; @_ZNSt3__110shared_ptrI14LooperCallbackED1Ev
Lfunc_begin31:
	.loc	1 957 0 is_stmt 1               ; /Applications/Xcode.app/Contents/Developer/Platforms/MacOSX.platform/Developer/SDKs/MacOSX13.1.sdk/usr/include/c++/v1/__memory/shared_ptr.h:957:0
	.cfi_startproc
; %bb.0:
	sub	sp, sp, #32
	stp	x29, x30, [sp, #16]             ; 16-byte Folded Spill
	add	x29, sp, #16
	.cfi_def_cfa w29, 16
	.cfi_offset w30, -8
	.cfi_offset w29, -16
	str	x0, [sp, #8]
	ldr	x0, [sp, #8]
	str	x0, [sp]                        ; 8-byte Folded Spill
Ltmp199:
	.loc	1 957 1 prologue_end            ; /Applications/Xcode.app/Contents/Developer/Platforms/MacOSX.platform/Developer/SDKs/MacOSX13.1.sdk/usr/include/c++/v1/__memory/shared_ptr.h:957:1
	bl	__ZNSt3__110shared_ptrI14LooperCallbackED2Ev
	ldr	x0, [sp]                        ; 8-byte Folded Reload
	.loc	1 960 1                         ; /Applications/Xcode.app/Contents/Developer/Platforms/MacOSX.platform/Developer/SDKs/MacOSX13.1.sdk/usr/include/c++/v1/__memory/shared_ptr.h:960:1
	ldp	x29, x30, [sp, #16]             ; 16-byte Folded Reload
	add	sp, sp, #32
	ret
Ltmp200:
Lfunc_end31:
	.cfi_endproc
                                        ; -- End function
	.globl	__ZN10SubProcess11handleEventEisPv ; -- Begin function _ZN10SubProcess11handleEventEisPv
	.p2align	2
__ZN10SubProcess11handleEventEisPv:     ; @_ZN10SubProcess11handleEventEisPv
Lfunc_begin32:
	.loc	100 113 0                       ; libframework/framework/src/SubProcess.cpp:113:0
	.cfi_startproc
; %bb.0:
	sub	sp, sp, #48
	stp	x29, x30, [sp, #32]             ; 16-byte Folded Spill
	add	x29, sp, #32
	.cfi_def_cfa w29, 16
	.cfi_offset w30, -8
	.cfi_offset w29, -16
	stur	x0, [x29, #-8]
	stur	w1, [x29, #-12]
	sturh	w2, [x29, #-14]
	str	x3, [sp, #8]
	ldur	x8, [x29, #-8]
	str	x8, [sp]                        ; 8-byte Folded Spill
Ltmp201:
	.loc	100 0 0 is_stmt 0               ; libframework/framework/src/SubProcess.cpp:0:0
	adrp	x0, __ZNSt3__14coutE@GOTPAGE
	ldr	x0, [x0, __ZNSt3__14coutE@GOTPAGEOFF]
	adrp	x1, l_.str.14@PAGE
	add	x1, x1, l_.str.14@PAGEOFF
	.loc	100 114 15 prologue_end is_stmt 1 ; libframework/framework/src/SubProcess.cpp:114:15
	bl	__ZNSt3__1lsINS_11char_traitsIcEEEERNS_13basic_ostreamIcT_EES6_PKc
	.loc	100 0 0 is_stmt 0               ; libframework/framework/src/SubProcess.cpp:0:0
	adrp	x1, __ZNSt3__14endlIcNS_11char_traitsIcEEEERNS_13basic_ostreamIT_T0_EES7_@GOTPAGE
	ldr	x1, [x1, __ZNSt3__14endlIcNS_11char_traitsIcEEEERNS_13basic_ostreamIT_T0_EES7_@GOTPAGEOFF]
	.loc	100 114 32                      ; libframework/framework/src/SubProcess.cpp:114:32
	bl	__ZNSt3__113basic_ostreamIcNS_11char_traitsIcEEElsEPFRS3_S4_E
Ltmp202:
	.loc	100 115 10 is_stmt 1            ; libframework/framework/src/SubProcess.cpp:115:10
	ldursh	w8, [x29, #-14]
	.loc	100 115 17 is_stmt 0            ; libframework/framework/src/SubProcess.cpp:115:17
	and	w8, w8, #0x2
Ltmp203:
	.loc	100 115 9                       ; libframework/framework/src/SubProcess.cpp:115:9
	subs	w8, w8, #2
	b.ne	LBB32_2
	b	LBB32_1
LBB32_1:
	.loc	100 0 9                         ; libframework/framework/src/SubProcess.cpp:0:9
	ldr	x0, [sp]                        ; 8-byte Folded Reload
Ltmp204:
	.loc	100 117 16 is_stmt 1            ; libframework/framework/src/SubProcess.cpp:117:16
	ldur	w1, [x29, #-12]
	.loc	100 117 9 is_stmt 0             ; libframework/framework/src/SubProcess.cpp:117:9
	bl	__ZN10SubProcess6onReadEi
	.loc	100 118 5 is_stmt 1             ; libframework/framework/src/SubProcess.cpp:118:5
	b	LBB32_2
Ltmp205:
LBB32_2:
	.loc	100 0 5 is_stmt 0               ; libframework/framework/src/SubProcess.cpp:0:5
	mov	w0, #1
	.loc	100 119 5 is_stmt 1             ; libframework/framework/src/SubProcess.cpp:119:5
	ldp	x29, x30, [sp, #32]             ; 16-byte Folded Reload
	add	sp, sp, #48
	ret
Ltmp206:
Lfunc_end32:
	.cfi_endproc
                                        ; -- End function
	.globl	__ZN10SubProcess6onReadEi       ; -- Begin function _ZN10SubProcess6onReadEi
	.p2align	2
__ZN10SubProcess6onReadEi:              ; @_ZN10SubProcess6onReadEi
Lfunc_begin33:
	.loc	100 133 0                       ; libframework/framework/src/SubProcess.cpp:133:0
	.cfi_startproc
	.cfi_personality 155, ___gxx_personality_v0
	.cfi_lsda 16, Lexception6
; %bb.0:
	stp	x28, x27, [sp, #-32]!           ; 16-byte Folded Spill
	stp	x29, x30, [sp, #16]             ; 16-byte Folded Spill
	add	x29, sp, #16
	sub	sp, sp, #496
	.cfi_def_cfa w29, 16
	.cfi_offset w30, -8
	.cfi_offset w29, -16
	.cfi_offset w27, -24
	.cfi_offset w28, -32
	adrp	x8, ___stack_chk_guard@GOTPAGE
	ldr	x8, [x8, ___stack_chk_guard@GOTPAGEOFF]
	ldr	x8, [x8]
	stur	x8, [x29, #-24]
	stur	x0, [x29, #-96]
	stur	w1, [x29, #-100]
	ldur	x8, [x29, #-96]
	str	x8, [sp, #152]                  ; 8-byte Folded Spill
Ltmp230:
	.loc	100 134 13 prologue_end         ; libframework/framework/src/SubProcess.cpp:134:13
	stur	xzr, [x29, #-112]
	sub	x1, x29, #120
	.loc	100 135 12                      ; libframework/framework/src/SubProcess.cpp:135:12
	stur	xzr, [x29, #-120]
	sub	x0, x29, #128
                                        ; kill: def $x9 killed $xzr
	.loc	100 136 11                      ; libframework/framework/src/SubProcess.cpp:136:11
	stur	xzr, [x29, #-128]
	.loc	100 137 29                      ; libframework/framework/src/SubProcess.cpp:137:29
	ldr	x2, [x8, #96]
	.loc	100 137 11 is_stmt 0            ; libframework/framework/src/SubProcess.cpp:137:11
	bl	_getline
	.loc	100 137 9                       ; libframework/framework/src/SubProcess.cpp:137:9
	stur	x0, [x29, #-112]
Ltmp231:
	.loc	100 138 9 is_stmt 1             ; libframework/framework/src/SubProcess.cpp:138:9
	ldur	x8, [x29, #-112]
Ltmp232:
	.loc	100 138 9 is_stmt 0             ; libframework/framework/src/SubProcess.cpp:138:9
	subs	x8, x8, #0
	b.ge	LBB33_7
	b	LBB33_1
LBB33_1:
	.loc	100 0 9                         ; libframework/framework/src/SubProcess.cpp:0:9
	ldr	x8, [sp, #152]                  ; 8-byte Folded Reload
Ltmp233:
	.loc	100 140 9 is_stmt 1             ; libframework/framework/src/SubProcess.cpp:140:9
	add	x8, x8, #64
	str	x8, [sp, #136]                  ; 8-byte Folded Spill
	sub	x0, x29, #152
	str	x0, [sp, #144]                  ; 8-byte Folded Spill
	.loc	100 0 0 is_stmt 0               ; libframework/framework/src/SubProcess.cpp:0:0
	adrp	x1, l_.str.15@PAGE
	add	x1, x1, l_.str.15@PAGEOFF
	.loc	100 140 18                      ; libframework/framework/src/SubProcess.cpp:140:18
	bl	__ZNSt3__112basic_stringIcNS_11char_traitsIcEENS_9allocatorIcEEEC1IDnEEPKc
	ldr	x0, [sp, #136]                  ; 8-byte Folded Reload
	ldr	x1, [sp, #144]                  ; 8-byte Folded Reload
Ltmp222:
	mov	w2, #-1
	.loc	100 140 9                       ; libframework/framework/src/SubProcess.cpp:140:9
	bl	__ZNKSt3__18functionIFvRKNS_12basic_stringIcNS_11char_traitsIcEENS_9allocatorIcEEEEiEEclES8_i
Ltmp223:
	b	LBB33_2
LBB33_2:
	.loc	100 0 9                         ; libframework/framework/src/SubProcess.cpp:0:9
	sub	x0, x29, #152
	.loc	100 140 9                       ; libframework/framework/src/SubProcess.cpp:140:9
	bl	__ZNSt3__112basic_stringIcNS_11char_traitsIcEENS_9allocatorIcEEED1Ev
	ldr	x8, [sp, #152]                  ; 8-byte Folded Reload
	.loc	100 141 9 is_stmt 1             ; libframework/framework/src/SubProcess.cpp:141:9
	add	x0, x8, #24
	sub	x8, x29, #184
	str	x8, [sp, #112]                  ; 8-byte Folded Spill
	.loc	100 141 17 is_stmt 0            ; libframework/framework/src/SubProcess.cpp:141:17
	bl	__ZNKSt3__18weak_ptrI6LooperE4lockEv
	ldr	x0, [sp, #112]                  ; 8-byte Folded Reload
	.loc	100 141 9                       ; libframework/framework/src/SubProcess.cpp:141:9
	bl	__ZNKSt3__110shared_ptrI6LooperEptEv
	ldr	x8, [sp, #152]                  ; 8-byte Folded Reload
	str	x0, [sp, #120]                  ; 8-byte Folded Spill
	.loc	100 141 41                      ; libframework/framework/src/SubProcess.cpp:141:41
	ldr	x0, [x8, #96]
Ltmp225:
	.loc	100 141 34                      ; libframework/framework/src/SubProcess.cpp:141:34
	bl	_fileno
	str	w0, [sp, #132]                  ; 4-byte Folded Spill
Ltmp226:
	b	LBB33_3
LBB33_3:
Ltmp227:
	.loc	100 0 34                        ; libframework/framework/src/SubProcess.cpp:0:34
	ldr	w1, [sp, #132]                  ; 4-byte Folded Reload
	ldr	x0, [sp, #120]                  ; 8-byte Folded Reload
	.loc	100 141 25                      ; libframework/framework/src/SubProcess.cpp:141:25
	bl	__ZN6Looper8removeFdEi
Ltmp228:
	b	LBB33_4
LBB33_4:
	.loc	100 0 25                        ; libframework/framework/src/SubProcess.cpp:0:25
	sub	x0, x29, #184
	.loc	100 141 9                       ; libframework/framework/src/SubProcess.cpp:141:9
	bl	__ZNSt3__110shared_ptrI6LooperED1Ev
	.loc	100 0 0                         ; libframework/framework/src/SubProcess.cpp:0:0
	adrp	x0, __ZNSt3__14coutE@GOTPAGE
	ldr	x0, [x0, __ZNSt3__14coutE@GOTPAGEOFF]
	adrp	x1, l_.str.16@PAGE
	add	x1, x1, l_.str.16@PAGEOFF
	.loc	100 142 19 is_stmt 1            ; libframework/framework/src/SubProcess.cpp:142:19
	bl	__ZNSt3__1lsINS_11char_traitsIcEEEERNS_13basic_ostreamIcT_EES6_PKc
	.loc	100 143 9                       ; libframework/framework/src/SubProcess.cpp:143:9
	b	LBB33_36
LBB33_5:
Ltmp224:
	.loc	100 156 1                       ; libframework/framework/src/SubProcess.cpp:156:1
	mov	x8, x1
	stur	x0, [x29, #-160]
	stur	w8, [x29, #-164]
	sub	x0, x29, #152
	.loc	100 140 9                       ; libframework/framework/src/SubProcess.cpp:140:9
	bl	__ZNSt3__112basic_stringIcNS_11char_traitsIcEENS_9allocatorIcEEED1Ev
	b	LBB33_39
LBB33_6:
Ltmp229:
	.loc	100 156 1                       ; libframework/framework/src/SubProcess.cpp:156:1
	mov	x8, x1
	stur	x0, [x29, #-160]
	stur	w8, [x29, #-164]
	sub	x0, x29, #184
	.loc	100 141 9                       ; libframework/framework/src/SubProcess.cpp:141:9
	bl	__ZNSt3__110shared_ptrI6LooperED1Ev
	b	LBB33_39
Ltmp234:
LBB33_7:
	.loc	100 145 9                       ; libframework/framework/src/SubProcess.cpp:145:9
	ldur	x8, [x29, #-112]
Ltmp235:
	.loc	100 145 9 is_stmt 0             ; libframework/framework/src/SubProcess.cpp:145:9
	subs	x8, x8, #0
	b.le	LBB33_31
	b	LBB33_8
LBB33_8:
	.loc	100 0 9                         ; libframework/framework/src/SubProcess.cpp:0:9
	sub	x0, x29, #216
Ltmp236:
	adrp	x1, l_.str.17@PAGE
	add	x1, x1, l_.str.17@PAGEOFF
	mov	w2, #147
	adrp	x3, l___func__._ZN10SubProcess6onReadEi@PAGE
	add	x3, x3, l___func__._ZN10SubProcess6onReadEi@PAGEOFF
	.loc	100 147 9 is_stmt 1             ; libframework/framework/src/SubProcess.cpp:147:9
	bl	__ZN3dbg11DebugOutputC1EPKciS2_
	sub	x8, x29, #32
	.loc	100 0 0 is_stmt 0               ; libframework/framework/src/SubProcess.cpp:0:0
	adrp	x9, l_.str.18@PAGE
	add	x9, x9, l_.str.18@PAGEOFF
	.loc	100 147 136                     ; libframework/framework/src/SubProcess.cpp:147:136
	stur	x9, [x29, #-32]
	stur	x8, [x29, #-232]
	mov	x8, #1
	stur	x8, [x29, #-224]
	sub	x8, x29, #56
	.loc	100 147 145                     ; libframework/framework/src/SubProcess.cpp:147:145
	mov	x9, x8
	str	x9, [sp, #256]
Ltmp207:
	.loc	100 147 146                     ; libframework/framework/src/SubProcess.cpp:147:146
	bl	__ZN3dbg9type_nameIlEENSt3__112basic_stringIcNS1_11char_traitsIcEENS1_9allocatorIcEEEEv
Ltmp208:
	b	LBB33_9
LBB33_9:
	.loc	100 0 146                       ; libframework/framework/src/SubProcess.cpp:0:146
	sub	x8, x29, #56
	.loc	100 147 145                     ; libframework/framework/src/SubProcess.cpp:147:145
	stur	x8, [x29, #-248]
	mov	x8, #1
	stur	x8, [x29, #-240]
	.loc	100 147 130                     ; libframework/framework/src/SubProcess.cpp:147:130
	ldur	x1, [x29, #-232]
	ldur	x2, [x29, #-224]
	ldur	x3, [x29, #-248]
	ldur	x4, [x29, #-240]
Ltmp210:
	sub	x0, x29, #216
	sub	x5, x29, #112
	bl	__ZN3dbg11DebugOutput5printIJRlEEENS_4lastIDpT_E4typeESt16initializer_listIPKcES8_INSt3__112basic_stringIcNSC_11char_traitsIcEENSC_9allocatorIcEEEEEDpOS4_
Ltmp211:
	b	LBB33_10
LBB33_10:
	.loc	100 0 130                       ; libframework/framework/src/SubProcess.cpp:0:130
	sub	x8, x29, #56
	.loc	100 147 9                       ; libframework/framework/src/SubProcess.cpp:147:9
	add	x8, x8, #24
	str	x8, [sp, #104]                  ; 8-byte Folded Spill
	b	LBB33_11
LBB33_11:                               ; =>This Inner Loop Header: Depth=1
	.loc	100 0 9                         ; libframework/framework/src/SubProcess.cpp:0:9
	ldr	x8, [sp, #104]                  ; 8-byte Folded Reload
	.loc	100 147 9                       ; libframework/framework/src/SubProcess.cpp:147:9
	subs	x0, x8, #24
	str	x0, [sp, #96]                   ; 8-byte Folded Spill
	bl	__ZNSt3__112basic_stringIcNS_11char_traitsIcEENS_9allocatorIcEEED1Ev
	ldr	x8, [sp, #96]                   ; 8-byte Folded Reload
	sub	x9, x29, #56
	subs	x9, x8, x9
	str	x8, [sp, #104]                  ; 8-byte Folded Spill
	b.ne	LBB33_11
	b	LBB33_12
LBB33_12:
	.loc	100 0 9                         ; libframework/framework/src/SubProcess.cpp:0:9
	sub	x0, x29, #216
	.loc	100 147 9                       ; libframework/framework/src/SubProcess.cpp:147:9
	bl	__ZN3dbg11DebugOutputD1Ev
	add	x0, sp, #224
	.loc	100 0 0                         ; libframework/framework/src/SubProcess.cpp:0:0
	adrp	x1, l_.str.17@PAGE
	add	x1, x1, l_.str.17@PAGEOFF
	mov	w2, #148
	adrp	x3, l___func__._ZN10SubProcess6onReadEi@PAGE
	add	x3, x3, l___func__._ZN10SubProcess6onReadEi@PAGEOFF
	.loc	100 148 9 is_stmt 1             ; libframework/framework/src/SubProcess.cpp:148:9
	bl	__ZN3dbg11DebugOutputC1EPKciS2_
	sub	x8, x29, #64
	.loc	100 0 0 is_stmt 0               ; libframework/framework/src/SubProcess.cpp:0:0
	adrp	x9, l_.str.19@PAGE
	add	x9, x9, l_.str.19@PAGEOFF
	.loc	100 148 136                     ; libframework/framework/src/SubProcess.cpp:148:136
	stur	x9, [x29, #-64]
	str	x8, [sp, #208]
	mov	x8, #1
	str	x8, [sp, #216]
	sub	x8, x29, #88
	.loc	100 148 143                     ; libframework/framework/src/SubProcess.cpp:148:143
	mov	x9, x8
	str	x9, [sp, #184]
Ltmp213:
	.loc	100 148 144                     ; libframework/framework/src/SubProcess.cpp:148:144
	bl	__ZN3dbg9type_nameImEENSt3__112basic_stringIcNS1_11char_traitsIcEENS1_9allocatorIcEEEEv
Ltmp214:
	b	LBB33_13
LBB33_13:
	.loc	100 0 144                       ; libframework/framework/src/SubProcess.cpp:0:144
	sub	x8, x29, #88
	.loc	100 148 143                     ; libframework/framework/src/SubProcess.cpp:148:143
	str	x8, [sp, #192]
	mov	x8, #1
	str	x8, [sp, #200]
	.loc	100 148 130                     ; libframework/framework/src/SubProcess.cpp:148:130
	ldr	x1, [sp, #208]
	ldr	x2, [sp, #216]
	ldr	x3, [sp, #192]
	ldr	x4, [sp, #200]
Ltmp216:
	add	x0, sp, #224
	sub	x5, x29, #120
	bl	__ZN3dbg11DebugOutput5printIJRmEEENS_4lastIDpT_E4typeESt16initializer_listIPKcES8_INSt3__112basic_stringIcNSC_11char_traitsIcEENSC_9allocatorIcEEEEEDpOS4_
Ltmp217:
	b	LBB33_14
LBB33_14:
	.loc	100 0 130                       ; libframework/framework/src/SubProcess.cpp:0:130
	sub	x8, x29, #88
	.loc	100 148 9                       ; libframework/framework/src/SubProcess.cpp:148:9
	add	x8, x8, #24
	str	x8, [sp, #88]                   ; 8-byte Folded Spill
	b	LBB33_15
LBB33_15:                               ; =>This Inner Loop Header: Depth=1
	.loc	100 0 9                         ; libframework/framework/src/SubProcess.cpp:0:9
	ldr	x8, [sp, #88]                   ; 8-byte Folded Reload
	.loc	100 148 9                       ; libframework/framework/src/SubProcess.cpp:148:9
	subs	x0, x8, #24
	str	x0, [sp, #80]                   ; 8-byte Folded Spill
	bl	__ZNSt3__112basic_stringIcNS_11char_traitsIcEENS_9allocatorIcEEED1Ev
	ldr	x8, [sp, #80]                   ; 8-byte Folded Reload
	sub	x9, x29, #88
	subs	x9, x8, x9
	str	x8, [sp, #88]                   ; 8-byte Folded Spill
	b.ne	LBB33_15
	b	LBB33_16
LBB33_16:
	.loc	100 0 9                         ; libframework/framework/src/SubProcess.cpp:0:9
	add	x0, sp, #224
	.loc	100 148 9                       ; libframework/framework/src/SubProcess.cpp:148:9
	bl	__ZN3dbg11DebugOutputD1Ev
	.loc	100 149 9 is_stmt 1             ; libframework/framework/src/SubProcess.cpp:149:9
	ldur	x8, [x29, #-128]
	.loc	100 149 13 is_stmt 0            ; libframework/framework/src/SubProcess.cpp:149:13
	ldur	x9, [x29, #-112]
	.loc	100 149 17                      ; libframework/framework/src/SubProcess.cpp:149:17
	subs	x9, x9, #1
	.loc	100 149 9                       ; libframework/framework/src/SubProcess.cpp:149:9
	add	x8, x8, x9
	.loc	100 149 22                      ; libframework/framework/src/SubProcess.cpp:149:22
	strb	wzr, [x8]
	.loc	100 150 5 is_stmt 1             ; libframework/framework/src/SubProcess.cpp:150:5
	b	LBB33_31
LBB33_17:
Ltmp209:
	.loc	100 156 1                       ; libframework/framework/src/SubProcess.cpp:156:1
	mov	x8, x1
	stur	x0, [x29, #-160]
	stur	w8, [x29, #-164]
	.loc	100 147 145                     ; libframework/framework/src/SubProcess.cpp:147:145
	ldr	x8, [sp, #256]
	sub	x9, x29, #56
	subs	x9, x9, x8
	str	x8, [sp, #72]                   ; 8-byte Folded Spill
	b.eq	LBB33_19
	b	LBB33_18
LBB33_18:                               ; =>This Inner Loop Header: Depth=1
	.loc	100 0 145 is_stmt 0             ; libframework/framework/src/SubProcess.cpp:0:145
	ldr	x8, [sp, #72]                   ; 8-byte Folded Reload
	.loc	100 147 145                     ; libframework/framework/src/SubProcess.cpp:147:145
	subs	x0, x8, #24
	str	x0, [sp, #64]                   ; 8-byte Folded Spill
	bl	__ZNSt3__112basic_stringIcNS_11char_traitsIcEENS_9allocatorIcEEED1Ev
	ldr	x8, [sp, #64]                   ; 8-byte Folded Reload
	sub	x9, x29, #56
	subs	x9, x8, x9
	str	x8, [sp, #72]                   ; 8-byte Folded Spill
	b.ne	LBB33_18
	b	LBB33_19
LBB33_19:
	b	LBB33_23
LBB33_20:
Ltmp212:
	.loc	100 156 1 is_stmt 1             ; libframework/framework/src/SubProcess.cpp:156:1
	mov	x8, x1
	stur	x0, [x29, #-160]
	stur	w8, [x29, #-164]
	sub	x8, x29, #56
	.loc	100 147 9                       ; libframework/framework/src/SubProcess.cpp:147:9
	add	x8, x8, #24
	str	x8, [sp, #56]                   ; 8-byte Folded Spill
	b	LBB33_21
LBB33_21:                               ; =>This Inner Loop Header: Depth=1
	.loc	100 0 9 is_stmt 0               ; libframework/framework/src/SubProcess.cpp:0:9
	ldr	x8, [sp, #56]                   ; 8-byte Folded Reload
	.loc	100 147 9                       ; libframework/framework/src/SubProcess.cpp:147:9
	subs	x0, x8, #24
	str	x0, [sp, #48]                   ; 8-byte Folded Spill
	bl	__ZNSt3__112basic_stringIcNS_11char_traitsIcEENS_9allocatorIcEEED1Ev
	ldr	x8, [sp, #48]                   ; 8-byte Folded Reload
	sub	x9, x29, #56
	subs	x9, x8, x9
	str	x8, [sp, #56]                   ; 8-byte Folded Spill
	b.ne	LBB33_21
	b	LBB33_22
LBB33_22:
	b	LBB33_23
LBB33_23:
	.loc	100 0 9                         ; libframework/framework/src/SubProcess.cpp:0:9
	sub	x0, x29, #216
	.loc	100 147 9                       ; libframework/framework/src/SubProcess.cpp:147:9
	bl	__ZN3dbg11DebugOutputD1Ev
	b	LBB33_39
LBB33_24:
Ltmp215:
	.loc	100 156 1 is_stmt 1             ; libframework/framework/src/SubProcess.cpp:156:1
	mov	x8, x1
	stur	x0, [x29, #-160]
	stur	w8, [x29, #-164]
	.loc	100 148 143                     ; libframework/framework/src/SubProcess.cpp:148:143
	ldr	x8, [sp, #184]
	sub	x9, x29, #88
	subs	x9, x9, x8
	str	x8, [sp, #40]                   ; 8-byte Folded Spill
	b.eq	LBB33_26
	b	LBB33_25
LBB33_25:                               ; =>This Inner Loop Header: Depth=1
	.loc	100 0 143 is_stmt 0             ; libframework/framework/src/SubProcess.cpp:0:143
	ldr	x8, [sp, #40]                   ; 8-byte Folded Reload
	.loc	100 148 143                     ; libframework/framework/src/SubProcess.cpp:148:143
	subs	x0, x8, #24
	str	x0, [sp, #32]                   ; 8-byte Folded Spill
	bl	__ZNSt3__112basic_stringIcNS_11char_traitsIcEENS_9allocatorIcEEED1Ev
	ldr	x8, [sp, #32]                   ; 8-byte Folded Reload
	sub	x9, x29, #88
	subs	x9, x8, x9
	str	x8, [sp, #40]                   ; 8-byte Folded Spill
	b.ne	LBB33_25
	b	LBB33_26
LBB33_26:
	b	LBB33_30
LBB33_27:
Ltmp218:
	.loc	100 156 1 is_stmt 1             ; libframework/framework/src/SubProcess.cpp:156:1
	mov	x8, x1
	stur	x0, [x29, #-160]
	stur	w8, [x29, #-164]
	sub	x8, x29, #88
	.loc	100 148 9                       ; libframework/framework/src/SubProcess.cpp:148:9
	add	x8, x8, #24
	str	x8, [sp, #24]                   ; 8-byte Folded Spill
	b	LBB33_28
LBB33_28:                               ; =>This Inner Loop Header: Depth=1
	.loc	100 0 9 is_stmt 0               ; libframework/framework/src/SubProcess.cpp:0:9
	ldr	x8, [sp, #24]                   ; 8-byte Folded Reload
	.loc	100 148 9                       ; libframework/framework/src/SubProcess.cpp:148:9
	subs	x0, x8, #24
	str	x0, [sp, #16]                   ; 8-byte Folded Spill
	bl	__ZNSt3__112basic_stringIcNS_11char_traitsIcEENS_9allocatorIcEEED1Ev
	ldr	x8, [sp, #16]                   ; 8-byte Folded Reload
	sub	x9, x29, #88
	subs	x9, x8, x9
	str	x8, [sp, #24]                   ; 8-byte Folded Spill
	b.ne	LBB33_28
	b	LBB33_29
LBB33_29:
	b	LBB33_30
LBB33_30:
	.loc	100 0 9                         ; libframework/framework/src/SubProcess.cpp:0:9
	add	x0, sp, #224
	.loc	100 148 9                       ; libframework/framework/src/SubProcess.cpp:148:9
	bl	__ZN3dbg11DebugOutputD1Ev
	b	LBB33_39
Ltmp237:
LBB33_31:
	.loc	100 0 9                         ; libframework/framework/src/SubProcess.cpp:0:9
	ldr	x8, [sp, #152]                  ; 8-byte Folded Reload
Ltmp238:
	.loc	100 151 9 is_stmt 1             ; libframework/framework/src/SubProcess.cpp:151:9
	add	x0, x8, #64
	bl	__ZNKSt3__18functionIFvRKNS_12basic_stringIcNS_11char_traitsIcEENS_9allocatorIcEEEEiEEcvbEv
Ltmp239:
	.loc	100 151 9 is_stmt 0             ; libframework/framework/src/SubProcess.cpp:151:9
	tbz	w0, #0, LBB33_35
	b	LBB33_32
LBB33_32:
	.loc	100 0 9                         ; libframework/framework/src/SubProcess.cpp:0:9
	ldr	x8, [sp, #152]                  ; 8-byte Folded Reload
Ltmp240:
	.loc	100 153 9 is_stmt 1             ; libframework/framework/src/SubProcess.cpp:153:9
	add	x8, x8, #64
	str	x8, [sp]                        ; 8-byte Folded Spill
	.loc	100 153 18 is_stmt 0            ; libframework/framework/src/SubProcess.cpp:153:18
	ldur	x1, [x29, #-128]
	add	x0, sp, #160
	str	x0, [sp, #8]                    ; 8-byte Folded Spill
	bl	__ZNSt3__112basic_stringIcNS_11char_traitsIcEENS_9allocatorIcEEEC1IDnEEPKc
	ldr	x0, [sp]                        ; 8-byte Folded Reload
	ldr	x1, [sp, #8]                    ; 8-byte Folded Reload
Ltmp219:
	mov	w2, #0
	.loc	100 153 9                       ; libframework/framework/src/SubProcess.cpp:153:9
	bl	__ZNKSt3__18functionIFvRKNS_12basic_stringIcNS_11char_traitsIcEENS_9allocatorIcEEEEiEEclES8_i
Ltmp220:
	b	LBB33_33
LBB33_33:
	.loc	100 0 9                         ; libframework/framework/src/SubProcess.cpp:0:9
	add	x0, sp, #160
	.loc	100 153 9                       ; libframework/framework/src/SubProcess.cpp:153:9
	bl	__ZNSt3__112basic_stringIcNS_11char_traitsIcEENS_9allocatorIcEEED1Ev
	.loc	100 154 5 is_stmt 1             ; libframework/framework/src/SubProcess.cpp:154:5
	b	LBB33_35
LBB33_34:
Ltmp221:
	.loc	100 156 1                       ; libframework/framework/src/SubProcess.cpp:156:1
	mov	x8, x1
	stur	x0, [x29, #-160]
	stur	w8, [x29, #-164]
	add	x0, sp, #160
	.loc	100 153 9                       ; libframework/framework/src/SubProcess.cpp:153:9
	bl	__ZNSt3__112basic_stringIcNS_11char_traitsIcEENS_9allocatorIcEEED1Ev
	b	LBB33_39
Ltmp241:
LBB33_35:
	.loc	100 155 10                      ; libframework/framework/src/SubProcess.cpp:155:10
	ldur	x0, [x29, #-128]
	.loc	100 155 5 is_stmt 0             ; libframework/framework/src/SubProcess.cpp:155:5
	bl	_free
	.loc	100 156 1 is_stmt 1             ; libframework/framework/src/SubProcess.cpp:156:1
	b	LBB33_36
LBB33_36:
	ldur	x9, [x29, #-24]
	adrp	x8, ___stack_chk_guard@GOTPAGE
	ldr	x8, [x8, ___stack_chk_guard@GOTPAGEOFF]
	ldr	x8, [x8]
	subs	x8, x8, x9
	b.eq	LBB33_38
	b	LBB33_37
LBB33_37:
	bl	___stack_chk_fail
LBB33_38:
	add	sp, sp, #496
	ldp	x29, x30, [sp, #16]             ; 16-byte Folded Reload
	ldp	x28, x27, [sp], #32             ; 16-byte Folded Reload
	ret
LBB33_39:
Ltmp242:
	.loc	100 140 9                       ; libframework/framework/src/SubProcess.cpp:140:9
	ldur	x0, [x29, #-160]
	bl	__Unwind_Resume
Ltmp243:
Lfunc_end33:
	.cfi_endproc
	.section	__TEXT,__gcc_except_tab
	.p2align	2
GCC_except_table33:
Lexception6:
	.byte	255                             ; @LPStart Encoding = omit
	.byte	255                             ; @TType Encoding = omit
	.byte	1                               ; Call site Encoding = uleb128
	.uleb128 Lcst_end6-Lcst_begin6
Lcst_begin6:
	.uleb128 Lfunc_begin33-Lfunc_begin33    ; >> Call Site 1 <<
	.uleb128 Ltmp222-Lfunc_begin33          ;   Call between Lfunc_begin33 and Ltmp222
	.byte	0                               ;     has no landing pad
	.byte	0                               ;   On action: cleanup
	.uleb128 Ltmp222-Lfunc_begin33          ; >> Call Site 2 <<
	.uleb128 Ltmp223-Ltmp222                ;   Call between Ltmp222 and Ltmp223
	.uleb128 Ltmp224-Lfunc_begin33          ;     jumps to Ltmp224
	.byte	0                               ;   On action: cleanup
	.uleb128 Ltmp225-Lfunc_begin33          ; >> Call Site 3 <<
	.uleb128 Ltmp228-Ltmp225                ;   Call between Ltmp225 and Ltmp228
	.uleb128 Ltmp229-Lfunc_begin33          ;     jumps to Ltmp229
	.byte	0                               ;   On action: cleanup
	.uleb128 Ltmp228-Lfunc_begin33          ; >> Call Site 4 <<
	.uleb128 Ltmp207-Ltmp228                ;   Call between Ltmp228 and Ltmp207
	.byte	0                               ;     has no landing pad
	.byte	0                               ;   On action: cleanup
	.uleb128 Ltmp207-Lfunc_begin33          ; >> Call Site 5 <<
	.uleb128 Ltmp208-Ltmp207                ;   Call between Ltmp207 and Ltmp208
	.uleb128 Ltmp209-Lfunc_begin33          ;     jumps to Ltmp209
	.byte	0                               ;   On action: cleanup
	.uleb128 Ltmp210-Lfunc_begin33          ; >> Call Site 6 <<
	.uleb128 Ltmp211-Ltmp210                ;   Call between Ltmp210 and Ltmp211
	.uleb128 Ltmp212-Lfunc_begin33          ;     jumps to Ltmp212
	.byte	0                               ;   On action: cleanup
	.uleb128 Ltmp211-Lfunc_begin33          ; >> Call Site 7 <<
	.uleb128 Ltmp213-Ltmp211                ;   Call between Ltmp211 and Ltmp213
	.byte	0                               ;     has no landing pad
	.byte	0                               ;   On action: cleanup
	.uleb128 Ltmp213-Lfunc_begin33          ; >> Call Site 8 <<
	.uleb128 Ltmp214-Ltmp213                ;   Call between Ltmp213 and Ltmp214
	.uleb128 Ltmp215-Lfunc_begin33          ;     jumps to Ltmp215
	.byte	0                               ;   On action: cleanup
	.uleb128 Ltmp216-Lfunc_begin33          ; >> Call Site 9 <<
	.uleb128 Ltmp217-Ltmp216                ;   Call between Ltmp216 and Ltmp217
	.uleb128 Ltmp218-Lfunc_begin33          ;     jumps to Ltmp218
	.byte	0                               ;   On action: cleanup
	.uleb128 Ltmp217-Lfunc_begin33          ; >> Call Site 10 <<
	.uleb128 Ltmp219-Ltmp217                ;   Call between Ltmp217 and Ltmp219
	.byte	0                               ;     has no landing pad
	.byte	0                               ;   On action: cleanup
	.uleb128 Ltmp219-Lfunc_begin33          ; >> Call Site 11 <<
	.uleb128 Ltmp220-Ltmp219                ;   Call between Ltmp219 and Ltmp220
	.uleb128 Ltmp221-Lfunc_begin33          ;     jumps to Ltmp221
	.byte	0                               ;   On action: cleanup
	.uleb128 Ltmp220-Lfunc_begin33          ; >> Call Site 12 <<
	.uleb128 Lfunc_end33-Ltmp220            ;   Call between Ltmp220 and Lfunc_end33
	.byte	0                               ;     has no landing pad
	.byte	0                               ;   On action: cleanup
Lcst_end6:
	.p2align	2
                                        ; -- End function
	.section	__TEXT,__text,regular,pure_instructions
	.globl	__ZNKSt3__18functionIFvRKNS_12basic_stringIcNS_11char_traitsIcEENS_9allocatorIcEEEEiEEclES8_i ; -- Begin function _ZNKSt3__18functionIFvRKNS_12basic_stringIcNS_11char_traitsIcEENS_9allocatorIcEEEEiEEclES8_i
	.weak_definition	__ZNKSt3__18functionIFvRKNS_12basic_stringIcNS_11char_traitsIcEENS_9allocatorIcEEEEiEEclES8_i
	.p2align	2
__ZNKSt3__18functionIFvRKNS_12basic_stringIcNS_11char_traitsIcEENS_9allocatorIcEEEEiEEclES8_i: ; @_ZNKSt3__18functionIFvRKNS_12basic_stringIcNS_11char_traitsIcEENS_9allocatorIcEEEEiEEclES8_i
Lfunc_begin34:
	.loc	50 1181 0                       ; /Applications/Xcode.app/Contents/Developer/Platforms/MacOSX.platform/Developer/SDKs/MacOSX13.1.sdk/usr/include/c++/v1/__functional/function.h:1181:0
	.cfi_startproc
; %bb.0:
	sub	sp, sp, #64
	stp	x29, x30, [sp, #48]             ; 16-byte Folded Spill
	add	x29, sp, #48
	.cfi_def_cfa w29, 16
	.cfi_offset w30, -8
	.cfi_offset w29, -16
	stur	x0, [x29, #-8]
	stur	x1, [x29, #-16]
	sub	x8, x29, #20
	str	x8, [sp]                        ; 8-byte Folded Spill
	stur	w2, [x29, #-20]
	ldur	x8, [x29, #-8]
	str	x8, [sp, #16]                   ; 8-byte Folded Spill
Ltmp244:
	.loc	50 1182 46 prologue_end         ; /Applications/Xcode.app/Contents/Developer/Platforms/MacOSX.platform/Developer/SDKs/MacOSX13.1.sdk/usr/include/c++/v1/__functional/function.h:1182:46
	ldur	x0, [x29, #-16]
	.loc	50 1182 17 is_stmt 0            ; /Applications/Xcode.app/Contents/Developer/Platforms/MacOSX.platform/Developer/SDKs/MacOSX13.1.sdk/usr/include/c++/v1/__functional/function.h:1182:17
	bl	__ZNSt3__1L7forwardIRKNS_12basic_stringIcNS_11char_traitsIcEENS_9allocatorIcEEEEEEOT_RNS_16remove_referenceIS9_E4typeE
	mov	x1, x0
	ldr	x0, [sp]                        ; 8-byte Folded Reload
	str	x1, [sp, #8]                    ; 8-byte Folded Spill
	bl	__ZNSt3__1L7forwardIiEEOT_RNS_16remove_referenceIS1_E4typeE
	ldr	x1, [sp, #8]                    ; 8-byte Folded Reload
	mov	x2, x0
	ldr	x0, [sp, #16]                   ; 8-byte Folded Reload
	.loc	50 1182 12                      ; /Applications/Xcode.app/Contents/Developer/Platforms/MacOSX.platform/Developer/SDKs/MacOSX13.1.sdk/usr/include/c++/v1/__functional/function.h:1182:12
	bl	__ZNKSt3__110__function12__value_funcIFvRKNS_12basic_stringIcNS_11char_traitsIcEENS_9allocatorIcEEEEiEEclES9_Oi
	.loc	50 1182 5                       ; /Applications/Xcode.app/Contents/Developer/Platforms/MacOSX.platform/Developer/SDKs/MacOSX13.1.sdk/usr/include/c++/v1/__functional/function.h:1182:5
	ldp	x29, x30, [sp, #48]             ; 16-byte Folded Reload
	add	sp, sp, #64
	ret
Ltmp245:
Lfunc_end34:
	.cfi_endproc
                                        ; -- End function
	.p2align	2                               ; -- Begin function _ZNSt3__112basic_stringIcNS_11char_traitsIcEENS_9allocatorIcEEEC1IDnEEPKc
__ZNSt3__112basic_stringIcNS_11char_traitsIcEENS_9allocatorIcEEEC1IDnEEPKc: ; @_ZNSt3__112basic_stringIcNS_11char_traitsIcEENS_9allocatorIcEEEC1IDnEEPKc
Lfunc_begin35:
	.loc	37 840 0 is_stmt 1              ; /Applications/Xcode.app/Contents/Developer/Platforms/MacOSX.platform/Developer/SDKs/MacOSX13.1.sdk/usr/include/c++/v1/string:840:0
	.cfi_startproc
; %bb.0:
	sub	sp, sp, #48
	stp	x29, x30, [sp, #32]             ; 16-byte Folded Spill
	add	x29, sp, #32
	.cfi_def_cfa w29, 16
	.cfi_offset w30, -8
	.cfi_offset w29, -16
	stur	x0, [x29, #-8]
	str	x1, [sp, #16]
	ldur	x0, [x29, #-8]
	str	x0, [sp, #8]                    ; 8-byte Folded Spill
Ltmp246:
	.loc	37 840 88 prologue_end          ; /Applications/Xcode.app/Contents/Developer/Platforms/MacOSX.platform/Developer/SDKs/MacOSX13.1.sdk/usr/include/c++/v1/string:840:88
	ldr	x1, [sp, #16]
	bl	__ZNSt3__112basic_stringIcNS_11char_traitsIcEENS_9allocatorIcEEEC2IDnEEPKc
	ldr	x0, [sp, #8]                    ; 8-byte Folded Reload
	.loc	37 846 5                        ; /Applications/Xcode.app/Contents/Developer/Platforms/MacOSX.platform/Developer/SDKs/MacOSX13.1.sdk/usr/include/c++/v1/string:846:5
	ldp	x29, x30, [sp, #32]             ; 16-byte Folded Reload
	add	sp, sp, #48
	ret
Ltmp247:
Lfunc_end35:
	.cfi_endproc
                                        ; -- End function
	.globl	__ZNKSt3__18weak_ptrI6LooperE4lockEv ; -- Begin function _ZNKSt3__18weak_ptrI6LooperE4lockEv
	.weak_definition	__ZNKSt3__18weak_ptrI6LooperE4lockEv
	.p2align	2
__ZNKSt3__18weak_ptrI6LooperE4lockEv:   ; @_ZNKSt3__18weak_ptrI6LooperE4lockEv
Lfunc_begin36:
	.loc	1 1588 0                        ; /Applications/Xcode.app/Contents/Developer/Platforms/MacOSX.platform/Developer/SDKs/MacOSX13.1.sdk/usr/include/c++/v1/__memory/shared_ptr.h:1588:0
	.cfi_startproc
; %bb.0:
	sub	sp, sp, #64
	stp	x29, x30, [sp, #48]             ; 16-byte Folded Spill
	add	x29, sp, #48
	.cfi_def_cfa w29, 16
	.cfi_offset w30, -8
	.cfi_offset w29, -16
	str	x8, [sp, #8]                    ; 8-byte Folded Spill
	mov	x8, x0
	ldr	x0, [sp, #8]                    ; 8-byte Folded Reload
	mov	x9, x0
	stur	x9, [x29, #-8]
	stur	x8, [x29, #-16]
	ldur	x8, [x29, #-16]
	str	x8, [sp, #16]                   ; 8-byte Folded Spill
	mov	w8, #0
Ltmp248:
	.loc	1 1589 5 prologue_end           ; /Applications/Xcode.app/Contents/Developer/Platforms/MacOSX.platform/Developer/SDKs/MacOSX13.1.sdk/usr/include/c++/v1/__memory/shared_ptr.h:1589:5
	and	w8, w8, #0x1
	and	w8, w8, #0x1
	sturb	w8, [x29, #-17]
	.loc	1 1589 21 is_stmt 0             ; /Applications/Xcode.app/Contents/Developer/Platforms/MacOSX.platform/Developer/SDKs/MacOSX13.1.sdk/usr/include/c++/v1/__memory/shared_ptr.h:1589:21
	bl	__ZNSt3__110shared_ptrI6LooperEC1Ev
	ldr	x8, [sp, #16]                   ; 8-byte Folded Reload
	.loc	1 1590 20 is_stmt 1             ; /Applications/Xcode.app/Contents/Developer/Platforms/MacOSX.platform/Developer/SDKs/MacOSX13.1.sdk/usr/include/c++/v1/__memory/shared_ptr.h:1590:20
	ldr	x8, [x8, #8]
	cbz	x8, LBB36_2
	b	LBB36_1
LBB36_1:
	.loc	1 0 20 is_stmt 0                ; /Applications/Xcode.app/Contents/Developer/Platforms/MacOSX.platform/Developer/SDKs/MacOSX13.1.sdk/usr/include/c++/v1/__memory/shared_ptr.h:0:20
	ldr	x8, [sp, #16]                   ; 8-byte Folded Reload
	.loc	1 1590 31                       ; /Applications/Xcode.app/Contents/Developer/Platforms/MacOSX.platform/Developer/SDKs/MacOSX13.1.sdk/usr/include/c++/v1/__memory/shared_ptr.h:1590:31
	ldr	x0, [x8, #8]
	.loc	1 1590 41                       ; /Applications/Xcode.app/Contents/Developer/Platforms/MacOSX.platform/Developer/SDKs/MacOSX13.1.sdk/usr/include/c++/v1/__memory/shared_ptr.h:1590:41
	bl	__ZNSt3__119__shared_weak_count4lockEv
	str	x0, [sp]                        ; 8-byte Folded Spill
	.loc	1 1590 20                       ; /Applications/Xcode.app/Contents/Developer/Platforms/MacOSX.platform/Developer/SDKs/MacOSX13.1.sdk/usr/include/c++/v1/__memory/shared_ptr.h:1590:20
	b	LBB36_3
LBB36_2:
	.loc	1 0 20                          ; /Applications/Xcode.app/Contents/Developer/Platforms/MacOSX.platform/Developer/SDKs/MacOSX13.1.sdk/usr/include/c++/v1/__memory/shared_ptr.h:0:20
	ldr	x8, [sp, #16]                   ; 8-byte Folded Reload
	.loc	1 1590 50                       ; /Applications/Xcode.app/Contents/Developer/Platforms/MacOSX.platform/Developer/SDKs/MacOSX13.1.sdk/usr/include/c++/v1/__memory/shared_ptr.h:1590:50
	ldr	x8, [x8, #8]
	str	x8, [sp]                        ; 8-byte Folded Spill
	.loc	1 1590 20                       ; /Applications/Xcode.app/Contents/Developer/Platforms/MacOSX.platform/Developer/SDKs/MacOSX13.1.sdk/usr/include/c++/v1/__memory/shared_ptr.h:1590:20
	b	LBB36_3
LBB36_3:
	.loc	1 0 20                          ; /Applications/Xcode.app/Contents/Developer/Platforms/MacOSX.platform/Developer/SDKs/MacOSX13.1.sdk/usr/include/c++/v1/__memory/shared_ptr.h:0:20
	ldr	x8, [sp, #8]                    ; 8-byte Folded Reload
	ldr	x9, [sp]                        ; 8-byte Folded Reload
	.loc	1 1590 18                       ; /Applications/Xcode.app/Contents/Developer/Platforms/MacOSX.platform/Developer/SDKs/MacOSX13.1.sdk/usr/include/c++/v1/__memory/shared_ptr.h:1590:18
	str	x9, [x8, #8]
Ltmp249:
	.loc	1 1591 13 is_stmt 1             ; /Applications/Xcode.app/Contents/Developer/Platforms/MacOSX.platform/Developer/SDKs/MacOSX13.1.sdk/usr/include/c++/v1/__memory/shared_ptr.h:1591:13
	ldr	x8, [x8, #8]
Ltmp250:
	.loc	1 1591 9 is_stmt 0              ; /Applications/Xcode.app/Contents/Developer/Platforms/MacOSX.platform/Developer/SDKs/MacOSX13.1.sdk/usr/include/c++/v1/__memory/shared_ptr.h:1591:9
	cbz	x8, LBB36_5
	b	LBB36_4
LBB36_4:
	.loc	1 0 9                           ; /Applications/Xcode.app/Contents/Developer/Platforms/MacOSX.platform/Developer/SDKs/MacOSX13.1.sdk/usr/include/c++/v1/__memory/shared_ptr.h:0:9
	ldr	x9, [sp, #8]                    ; 8-byte Folded Reload
	ldr	x8, [sp, #16]                   ; 8-byte Folded Reload
Ltmp251:
	.loc	1 1592 22 is_stmt 1             ; /Applications/Xcode.app/Contents/Developer/Platforms/MacOSX.platform/Developer/SDKs/MacOSX13.1.sdk/usr/include/c++/v1/__memory/shared_ptr.h:1592:22
	ldr	x8, [x8]
	.loc	1 1592 20 is_stmt 0             ; /Applications/Xcode.app/Contents/Developer/Platforms/MacOSX.platform/Developer/SDKs/MacOSX13.1.sdk/usr/include/c++/v1/__memory/shared_ptr.h:1592:20
	str	x8, [x9]
	.loc	1 1592 9                        ; /Applications/Xcode.app/Contents/Developer/Platforms/MacOSX.platform/Developer/SDKs/MacOSX13.1.sdk/usr/include/c++/v1/__memory/shared_ptr.h:1592:9
	b	LBB36_5
Ltmp252:
LBB36_5:
	.loc	1 0 9                           ; /Applications/Xcode.app/Contents/Developer/Platforms/MacOSX.platform/Developer/SDKs/MacOSX13.1.sdk/usr/include/c++/v1/__memory/shared_ptr.h:0:9
	mov	w8, #1
	.loc	1 1593 5 is_stmt 1              ; /Applications/Xcode.app/Contents/Developer/Platforms/MacOSX.platform/Developer/SDKs/MacOSX13.1.sdk/usr/include/c++/v1/__memory/shared_ptr.h:1593:5
	and	w8, w8, #0x1
	and	w8, w8, #0x1
	sturb	w8, [x29, #-17]
	.loc	1 1594 1                        ; /Applications/Xcode.app/Contents/Developer/Platforms/MacOSX.platform/Developer/SDKs/MacOSX13.1.sdk/usr/include/c++/v1/__memory/shared_ptr.h:1594:1
	ldurb	w8, [x29, #-17]
	tbnz	w8, #0, LBB36_7
	b	LBB36_6
LBB36_6:
	.loc	1 0 1 is_stmt 0                 ; /Applications/Xcode.app/Contents/Developer/Platforms/MacOSX.platform/Developer/SDKs/MacOSX13.1.sdk/usr/include/c++/v1/__memory/shared_ptr.h:0:1
	ldr	x0, [sp, #8]                    ; 8-byte Folded Reload
	.loc	1 1594 1                        ; /Applications/Xcode.app/Contents/Developer/Platforms/MacOSX.platform/Developer/SDKs/MacOSX13.1.sdk/usr/include/c++/v1/__memory/shared_ptr.h:1594:1
	bl	__ZNSt3__110shared_ptrI6LooperED1Ev
	b	LBB36_7
LBB36_7:
	ldp	x29, x30, [sp, #48]             ; 16-byte Folded Reload
	add	sp, sp, #64
	ret
Ltmp253:
Lfunc_end36:
	.cfi_endproc
                                        ; -- End function
	.globl	__ZN3dbg11DebugOutputC1EPKciS2_ ; -- Begin function _ZN3dbg11DebugOutputC1EPKciS2_
	.weak_def_can_be_hidden	__ZN3dbg11DebugOutputC1EPKciS2_
	.p2align	2
__ZN3dbg11DebugOutputC1EPKciS2_:        ; @_ZN3dbg11DebugOutputC1EPKciS2_
Lfunc_begin37:
	.loc	51 716 0 is_stmt 1              ; libframework/framework/include/framework/dbg.h:716:0
	.cfi_startproc
; %bb.0:
	sub	sp, sp, #64
	stp	x29, x30, [sp, #48]             ; 16-byte Folded Spill
	add	x29, sp, #48
	.cfi_def_cfa w29, 16
	.cfi_offset w30, -8
	.cfi_offset w29, -16
	stur	x0, [x29, #-8]
	stur	x1, [x29, #-16]
	stur	w2, [x29, #-20]
	str	x3, [sp, #16]
	ldur	x0, [x29, #-8]
	str	x0, [sp, #8]                    ; 8-byte Folded Spill
Ltmp254:
	.loc	51 716 70 prologue_end          ; libframework/framework/include/framework/dbg.h:716:70
	ldur	x1, [x29, #-16]
	ldur	w2, [x29, #-20]
	ldr	x3, [sp, #16]
	bl	__ZN3dbg11DebugOutputC2EPKciS2_
	ldr	x0, [sp, #8]                    ; 8-byte Folded Reload
	.loc	51 726 9                        ; libframework/framework/include/framework/dbg.h:726:9
	ldp	x29, x30, [sp, #48]             ; 16-byte Folded Reload
	add	sp, sp, #64
	ret
Ltmp255:
Lfunc_end37:
	.cfi_endproc
                                        ; -- End function
	.globl	__ZN3dbg11DebugOutput5printIJRlEEENS_4lastIDpT_E4typeESt16initializer_listIPKcES8_INSt3__112basic_stringIcNSC_11char_traitsIcEENSC_9allocatorIcEEEEEDpOS4_ ; -- Begin function _ZN3dbg11DebugOutput5printIJRlEEENS_4lastIDpT_E4typeESt16initializer_listIPKcES8_INSt3__112basic_stringIcNSC_11char_traitsIcEENSC_9allocatorIcEEEEEDpOS4_
	.weak_definition	__ZN3dbg11DebugOutput5printIJRlEEENS_4lastIDpT_E4typeESt16initializer_listIPKcES8_INSt3__112basic_stringIcNSC_11char_traitsIcEENSC_9allocatorIcEEEEEDpOS4_
	.p2align	2
__ZN3dbg11DebugOutput5printIJRlEEENS_4lastIDpT_E4typeESt16initializer_listIPKcES8_INSt3__112basic_stringIcNSC_11char_traitsIcEENSC_9allocatorIcEEEEEDpOS4_: ; @_ZN3dbg11DebugOutput5printIJRlEEENS_4lastIDpT_E4typeESt16initializer_listIPKcES8_INSt3__112basic_stringIcNSC_11char_traitsIcEENSC_9allocatorIcEEEEEDpOS4_
Lfunc_begin38:
	.loc	51 731 0                        ; libframework/framework/include/framework/dbg.h:731:0
	.cfi_startproc
; %bb.0:
	sub	sp, sp, #112
	stp	x29, x30, [sp, #96]             ; 16-byte Folded Spill
	add	x29, sp, #96
	.cfi_def_cfa w29, 16
	.cfi_offset w30, -8
	.cfi_offset w29, -16
	mov	x8, x0
	sub	x0, x29, #16
	stur	x1, [x29, #-16]
	stur	x2, [x29, #-8]
	stur	x3, [x29, #-32]
	stur	x4, [x29, #-24]
	stur	x8, [x29, #-40]
	str	x5, [sp, #48]
	ldur	x8, [x29, #-40]
	str	x8, [sp, #40]                   ; 8-byte Folded Spill
Ltmp256:
	.loc	51 732 23 prologue_end          ; libframework/framework/include/framework/dbg.h:732:23
	bl	__ZNKSt16initializer_listIPKcE4sizeEv
Ltmp257:
	.loc	51 732 17 is_stmt 0             ; libframework/framework/include/framework/dbg.h:732:17
	subs	x8, x0, #1
	b.eq	LBB38_2
	b	LBB38_1
LBB38_1:
	.loc	51 0 17                         ; libframework/framework/include/framework/dbg.h:0:17
	ldr	x8, [sp, #40]                   ; 8-byte Folded Reload
Ltmp258:
	.loc	51 734 28 is_stmt 1             ; libframework/framework/include/framework/dbg.h:734:28
	add	x1, x8, #8
	.loc	51 0 0 is_stmt 0                ; libframework/framework/include/framework/dbg.h:0:0
	adrp	x0, __ZNSt3__14cerrE@GOTPAGE
	ldr	x0, [x0, __ZNSt3__14cerrE@GOTPAGEOFF]
	.loc	51 734 25                       ; libframework/framework/include/framework/dbg.h:734:25
	bl	__ZNSt3__1lsIcNS_11char_traitsIcEENS_9allocatorIcEEEERNS_13basic_ostreamIT_T0_EES9_RKNS_12basic_stringIS6_S7_T1_EE
	mov	x1, x0
	ldr	x0, [sp, #40]                   ; 8-byte Folded Reload
	str	x1, [sp, #24]                   ; 8-byte Folded Spill
	.loc	51 0 0                          ; libframework/framework/include/framework/dbg.h:0:0
	adrp	x1, l_.str.37@PAGE
	add	x1, x1, l_.str.37@PAGEOFF
	.loc	51 734 42                       ; libframework/framework/include/framework/dbg.h:734:42
	bl	__ZNK3dbg11DebugOutput4ansiEPKc
	mov	x1, x0
	ldr	x0, [sp, #24]                   ; 8-byte Folded Reload
	.loc	51 734 39                       ; libframework/framework/include/framework/dbg.h:734:39
	bl	__ZNSt3__1lsINS_11char_traitsIcEEEERNS_13basic_ostreamIcT_EES6_PKc
	.loc	51 0 0                          ; libframework/framework/include/framework/dbg.h:0:0
	adrp	x1, l_.str.38@PAGE
	add	x1, x1, l_.str.38@PAGEOFF
	.loc	51 735 25 is_stmt 1             ; libframework/framework/include/framework/dbg.h:735:25
	bl	__ZNSt3__1lsINS_11char_traitsIcEEEERNS_13basic_ostreamIcT_EES6_PKc
	mov	x1, x0
	ldr	x0, [sp, #40]                   ; 8-byte Folded Reload
	str	x1, [sp, #32]                   ; 8-byte Folded Spill
	.loc	51 0 0 is_stmt 0                ; libframework/framework/include/framework/dbg.h:0:0
	adrp	x1, l_.str.35@PAGE
	add	x1, x1, l_.str.35@PAGEOFF
	.loc	51 736 28 is_stmt 1             ; libframework/framework/include/framework/dbg.h:736:28
	bl	__ZNK3dbg11DebugOutput4ansiEPKc
	mov	x1, x0
	ldr	x0, [sp, #32]                   ; 8-byte Folded Reload
	.loc	51 736 25 is_stmt 0             ; libframework/framework/include/framework/dbg.h:736:25
	bl	__ZNSt3__1lsINS_11char_traitsIcEEEERNS_13basic_ostreamIcT_EES6_PKc
	.loc	51 0 0                          ; libframework/framework/include/framework/dbg.h:0:0
	adrp	x1, __ZNSt3__14endlIcNS_11char_traitsIcEEEERNS_13basic_ostreamIT_T0_EES7_@GOTPAGE
	ldr	x1, [x1, __ZNSt3__14endlIcNS_11char_traitsIcEEEERNS_13basic_ostreamIT_T0_EES7_@GOTPAGEOFF]
	.loc	51 736 45                       ; libframework/framework/include/framework/dbg.h:736:45
	bl	__ZNSt3__113basic_ostreamIcNS_11char_traitsIcEEElsEPFRS3_S4_E
	.loc	51 737 13 is_stmt 1             ; libframework/framework/include/framework/dbg.h:737:13
	b	LBB38_2
Ltmp259:
LBB38_2:
	.loc	51 0 13 is_stmt 0               ; libframework/framework/include/framework/dbg.h:0:13
	sub	x0, x29, #16
	.loc	51 738 37 is_stmt 1             ; libframework/framework/include/framework/dbg.h:738:37
	bl	__ZNKSt16initializer_listIPKcE5beginEv
	str	x0, [sp, #8]                    ; 8-byte Folded Spill
	sub	x0, x29, #32
	.loc	51 738 52 is_stmt 0             ; libframework/framework/include/framework/dbg.h:738:52
	bl	__ZNKSt16initializer_listINSt3__112basic_stringIcNS0_11char_traitsIcEENS0_9allocatorIcEEEEE5beginEv
	str	x0, [sp, #16]                   ; 8-byte Folded Spill
	.loc	51 738 77                       ; libframework/framework/include/framework/dbg.h:738:77
	ldr	x0, [sp, #48]
	.loc	51 738 61                       ; libframework/framework/include/framework/dbg.h:738:61
	bl	__ZNSt3__1L7forwardIRlEEOT_RNS_16remove_referenceIS2_E4typeE
	ldr	x1, [sp, #8]                    ; 8-byte Folded Reload
	ldr	x2, [sp, #16]                   ; 8-byte Folded Reload
	mov	x3, x0
	ldr	x0, [sp, #40]                   ; 8-byte Folded Reload
	.loc	51 738 20                       ; libframework/framework/include/framework/dbg.h:738:20
	bl	__ZN3dbg11DebugOutput10print_implIRlEEOT_PKPKcPKNSt3__112basic_stringIcNS9_11char_traitsIcEENS9_9allocatorIcEEEES4_
	.loc	51 738 13                       ; libframework/framework/include/framework/dbg.h:738:13
	ldp	x29, x30, [sp, #96]             ; 16-byte Folded Reload
	add	sp, sp, #112
	ret
Ltmp260:
Lfunc_end38:
	.cfi_endproc
                                        ; -- End function
	.globl	__ZN3dbg9type_nameIlEENSt3__112basic_stringIcNS1_11char_traitsIcEENS1_9allocatorIcEEEEv ; -- Begin function _ZN3dbg9type_nameIlEENSt3__112basic_stringIcNS1_11char_traitsIcEENS1_9allocatorIcEEEEv
	.weak_definition	__ZN3dbg9type_nameIlEENSt3__112basic_stringIcNS1_11char_traitsIcEENS1_9allocatorIcEEEEv
	.p2align	2
__ZN3dbg9type_nameIlEENSt3__112basic_stringIcNS1_11char_traitsIcEENS1_9allocatorIcEEEEv: ; @_ZN3dbg9type_nameIlEENSt3__112basic_stringIcNS1_11char_traitsIcEENS1_9allocatorIcEEEEv
Lfunc_begin39:
	.loc	51 164 0 is_stmt 1              ; libframework/framework/include/framework/dbg.h:164:0
	.cfi_startproc
; %bb.0:
	sub	sp, sp, #32
	stp	x29, x30, [sp, #16]             ; 16-byte Folded Spill
	add	x29, sp, #16
	.cfi_def_cfa w29, 16
	.cfi_offset w30, -8
	.cfi_offset w29, -16
	mov	x9, x8
	str	x9, [sp, #8]
Ltmp261:
	.loc	51 199 16 prologue_end          ; libframework/framework/include/framework/dbg.h:199:16
	bl	__ZN3dbg13get_type_nameENS_8type_tagIlEE
	.loc	51 199 9 is_stmt 0              ; libframework/framework/include/framework/dbg.h:199:9
	ldp	x29, x30, [sp, #16]             ; 16-byte Folded Reload
	add	sp, sp, #32
	ret
Ltmp262:
Lfunc_end39:
	.cfi_endproc
                                        ; -- End function
	.globl	__ZN3dbg11DebugOutputD1Ev       ; -- Begin function _ZN3dbg11DebugOutputD1Ev
	.weak_def_can_be_hidden	__ZN3dbg11DebugOutputD1Ev
	.p2align	2
__ZN3dbg11DebugOutputD1Ev:              ; @_ZN3dbg11DebugOutputD1Ev
Lfunc_begin40:
	.loc	51 710 0 is_stmt 1              ; libframework/framework/include/framework/dbg.h:710:0
	.cfi_startproc
; %bb.0:
	sub	sp, sp, #32
	stp	x29, x30, [sp, #16]             ; 16-byte Folded Spill
	add	x29, sp, #16
	.cfi_def_cfa w29, 16
	.cfi_offset w30, -8
	.cfi_offset w29, -16
	str	x0, [sp, #8]
	ldr	x0, [sp, #8]
	str	x0, [sp]                        ; 8-byte Folded Spill
Ltmp263:
	.loc	51 710 11 prologue_end          ; libframework/framework/include/framework/dbg.h:710:11
	bl	__ZN3dbg11DebugOutputD2Ev
	ldr	x0, [sp]                        ; 8-byte Folded Reload
	ldp	x29, x30, [sp, #16]             ; 16-byte Folded Reload
	add	sp, sp, #32
	ret
Ltmp264:
Lfunc_end40:
	.cfi_endproc
                                        ; -- End function
	.globl	__ZN3dbg11DebugOutput5printIJRmEEENS_4lastIDpT_E4typeESt16initializer_listIPKcES8_INSt3__112basic_stringIcNSC_11char_traitsIcEENSC_9allocatorIcEEEEEDpOS4_ ; -- Begin function _ZN3dbg11DebugOutput5printIJRmEEENS_4lastIDpT_E4typeESt16initializer_listIPKcES8_INSt3__112basic_stringIcNSC_11char_traitsIcEENSC_9allocatorIcEEEEEDpOS4_
	.weak_definition	__ZN3dbg11DebugOutput5printIJRmEEENS_4lastIDpT_E4typeESt16initializer_listIPKcES8_INSt3__112basic_stringIcNSC_11char_traitsIcEENSC_9allocatorIcEEEEEDpOS4_
	.p2align	2
__ZN3dbg11DebugOutput5printIJRmEEENS_4lastIDpT_E4typeESt16initializer_listIPKcES8_INSt3__112basic_stringIcNSC_11char_traitsIcEENSC_9allocatorIcEEEEEDpOS4_: ; @_ZN3dbg11DebugOutput5printIJRmEEENS_4lastIDpT_E4typeESt16initializer_listIPKcES8_INSt3__112basic_stringIcNSC_11char_traitsIcEENSC_9allocatorIcEEEEEDpOS4_
Lfunc_begin41:
	.loc	51 731 0                        ; libframework/framework/include/framework/dbg.h:731:0
	.cfi_startproc
; %bb.0:
	sub	sp, sp, #112
	stp	x29, x30, [sp, #96]             ; 16-byte Folded Spill
	add	x29, sp, #96
	.cfi_def_cfa w29, 16
	.cfi_offset w30, -8
	.cfi_offset w29, -16
	mov	x8, x0
	sub	x0, x29, #16
	stur	x1, [x29, #-16]
	stur	x2, [x29, #-8]
	stur	x3, [x29, #-32]
	stur	x4, [x29, #-24]
	stur	x8, [x29, #-40]
	str	x5, [sp, #48]
	ldur	x8, [x29, #-40]
	str	x8, [sp, #40]                   ; 8-byte Folded Spill
Ltmp265:
	.loc	51 732 23 prologue_end          ; libframework/framework/include/framework/dbg.h:732:23
	bl	__ZNKSt16initializer_listIPKcE4sizeEv
Ltmp266:
	.loc	51 732 17 is_stmt 0             ; libframework/framework/include/framework/dbg.h:732:17
	subs	x8, x0, #1
	b.eq	LBB41_2
	b	LBB41_1
LBB41_1:
	.loc	51 0 17                         ; libframework/framework/include/framework/dbg.h:0:17
	ldr	x8, [sp, #40]                   ; 8-byte Folded Reload
Ltmp267:
	.loc	51 734 28 is_stmt 1             ; libframework/framework/include/framework/dbg.h:734:28
	add	x1, x8, #8
	.loc	51 0 0 is_stmt 0                ; libframework/framework/include/framework/dbg.h:0:0
	adrp	x0, __ZNSt3__14cerrE@GOTPAGE
	ldr	x0, [x0, __ZNSt3__14cerrE@GOTPAGEOFF]
	.loc	51 734 25                       ; libframework/framework/include/framework/dbg.h:734:25
	bl	__ZNSt3__1lsIcNS_11char_traitsIcEENS_9allocatorIcEEEERNS_13basic_ostreamIT_T0_EES9_RKNS_12basic_stringIS6_S7_T1_EE
	mov	x1, x0
	ldr	x0, [sp, #40]                   ; 8-byte Folded Reload
	str	x1, [sp, #24]                   ; 8-byte Folded Spill
	.loc	51 0 0                          ; libframework/framework/include/framework/dbg.h:0:0
	adrp	x1, l_.str.37@PAGE
	add	x1, x1, l_.str.37@PAGEOFF
	.loc	51 734 42                       ; libframework/framework/include/framework/dbg.h:734:42
	bl	__ZNK3dbg11DebugOutput4ansiEPKc
	mov	x1, x0
	ldr	x0, [sp, #24]                   ; 8-byte Folded Reload
	.loc	51 734 39                       ; libframework/framework/include/framework/dbg.h:734:39
	bl	__ZNSt3__1lsINS_11char_traitsIcEEEERNS_13basic_ostreamIcT_EES6_PKc
	.loc	51 0 0                          ; libframework/framework/include/framework/dbg.h:0:0
	adrp	x1, l_.str.38@PAGE
	add	x1, x1, l_.str.38@PAGEOFF
	.loc	51 735 25 is_stmt 1             ; libframework/framework/include/framework/dbg.h:735:25
	bl	__ZNSt3__1lsINS_11char_traitsIcEEEERNS_13basic_ostreamIcT_EES6_PKc
	mov	x1, x0
	ldr	x0, [sp, #40]                   ; 8-byte Folded Reload
	str	x1, [sp, #32]                   ; 8-byte Folded Spill
	.loc	51 0 0 is_stmt 0                ; libframework/framework/include/framework/dbg.h:0:0
	adrp	x1, l_.str.35@PAGE
	add	x1, x1, l_.str.35@PAGEOFF
	.loc	51 736 28 is_stmt 1             ; libframework/framework/include/framework/dbg.h:736:28
	bl	__ZNK3dbg11DebugOutput4ansiEPKc
	mov	x1, x0
	ldr	x0, [sp, #32]                   ; 8-byte Folded Reload
	.loc	51 736 25 is_stmt 0             ; libframework/framework/include/framework/dbg.h:736:25
	bl	__ZNSt3__1lsINS_11char_traitsIcEEEERNS_13basic_ostreamIcT_EES6_PKc
	.loc	51 0 0                          ; libframework/framework/include/framework/dbg.h:0:0
	adrp	x1, __ZNSt3__14endlIcNS_11char_traitsIcEEEERNS_13basic_ostreamIT_T0_EES7_@GOTPAGE
	ldr	x1, [x1, __ZNSt3__14endlIcNS_11char_traitsIcEEEERNS_13basic_ostreamIT_T0_EES7_@GOTPAGEOFF]
	.loc	51 736 45                       ; libframework/framework/include/framework/dbg.h:736:45
	bl	__ZNSt3__113basic_ostreamIcNS_11char_traitsIcEEElsEPFRS3_S4_E
	.loc	51 737 13 is_stmt 1             ; libframework/framework/include/framework/dbg.h:737:13
	b	LBB41_2
Ltmp268:
LBB41_2:
	.loc	51 0 13 is_stmt 0               ; libframework/framework/include/framework/dbg.h:0:13
	sub	x0, x29, #16
	.loc	51 738 37 is_stmt 1             ; libframework/framework/include/framework/dbg.h:738:37
	bl	__ZNKSt16initializer_listIPKcE5beginEv
	str	x0, [sp, #8]                    ; 8-byte Folded Spill
	sub	x0, x29, #32
	.loc	51 738 52 is_stmt 0             ; libframework/framework/include/framework/dbg.h:738:52
	bl	__ZNKSt16initializer_listINSt3__112basic_stringIcNS0_11char_traitsIcEENS0_9allocatorIcEEEEE5beginEv
	str	x0, [sp, #16]                   ; 8-byte Folded Spill
	.loc	51 738 77                       ; libframework/framework/include/framework/dbg.h:738:77
	ldr	x0, [sp, #48]
	.loc	51 738 61                       ; libframework/framework/include/framework/dbg.h:738:61
	bl	__ZNSt3__1L7forwardIRmEEOT_RNS_16remove_referenceIS2_E4typeE
	ldr	x1, [sp, #8]                    ; 8-byte Folded Reload
	ldr	x2, [sp, #16]                   ; 8-byte Folded Reload
	mov	x3, x0
	ldr	x0, [sp, #40]                   ; 8-byte Folded Reload
	.loc	51 738 20                       ; libframework/framework/include/framework/dbg.h:738:20
	bl	__ZN3dbg11DebugOutput10print_implIRmEEOT_PKPKcPKNSt3__112basic_stringIcNS9_11char_traitsIcEENS9_9allocatorIcEEEES4_
	.loc	51 738 13                       ; libframework/framework/include/framework/dbg.h:738:13
	ldp	x29, x30, [sp, #96]             ; 16-byte Folded Reload
	add	sp, sp, #112
	ret
Ltmp269:
Lfunc_end41:
	.cfi_endproc
                                        ; -- End function
	.globl	__ZN3dbg9type_nameImEENSt3__112basic_stringIcNS1_11char_traitsIcEENS1_9allocatorIcEEEEv ; -- Begin function _ZN3dbg9type_nameImEENSt3__112basic_stringIcNS1_11char_traitsIcEENS1_9allocatorIcEEEEv
	.weak_definition	__ZN3dbg9type_nameImEENSt3__112basic_stringIcNS1_11char_traitsIcEENS1_9allocatorIcEEEEv
	.p2align	2
__ZN3dbg9type_nameImEENSt3__112basic_stringIcNS1_11char_traitsIcEENS1_9allocatorIcEEEEv: ; @_ZN3dbg9type_nameImEENSt3__112basic_stringIcNS1_11char_traitsIcEENS1_9allocatorIcEEEEv
Lfunc_begin42:
	.loc	51 164 0 is_stmt 1              ; libframework/framework/include/framework/dbg.h:164:0
	.cfi_startproc
; %bb.0:
	sub	sp, sp, #32
	stp	x29, x30, [sp, #16]             ; 16-byte Folded Spill
	add	x29, sp, #16
	.cfi_def_cfa w29, 16
	.cfi_offset w30, -8
	.cfi_offset w29, -16
	mov	x9, x8
	str	x9, [sp, #8]
Ltmp270:
	.loc	51 199 16 prologue_end          ; libframework/framework/include/framework/dbg.h:199:16
	bl	__ZN3dbg13get_type_nameENS_8type_tagImEE
	.loc	51 199 9 is_stmt 0              ; libframework/framework/include/framework/dbg.h:199:9
	ldp	x29, x30, [sp, #16]             ; 16-byte Folded Reload
	add	sp, sp, #32
	ret
Ltmp271:
Lfunc_end42:
	.cfi_endproc
                                        ; -- End function
	.p2align	2                               ; -- Begin function _ZNKSt3__18functionIFvRKNS_12basic_stringIcNS_11char_traitsIcEENS_9allocatorIcEEEEiEEcvbEv
__ZNKSt3__18functionIFvRKNS_12basic_stringIcNS_11char_traitsIcEENS_9allocatorIcEEEEiEEcvbEv: ; @_ZNKSt3__18functionIFvRKNS_12basic_stringIcNS_11char_traitsIcEENS_9allocatorIcEEEEiEEcvbEv
Lfunc_begin43:
	.loc	50 1033 0 is_stmt 1             ; /Applications/Xcode.app/Contents/Developer/Platforms/MacOSX.platform/Developer/SDKs/MacOSX13.1.sdk/usr/include/c++/v1/__functional/function.h:1033:0
	.cfi_startproc
; %bb.0:
	sub	sp, sp, #32
	stp	x29, x30, [sp, #16]             ; 16-byte Folded Spill
	add	x29, sp, #16
	.cfi_def_cfa w29, 16
	.cfi_offset w30, -8
	.cfi_offset w29, -16
	str	x0, [sp, #8]
	ldr	x0, [sp, #8]
Ltmp272:
	.loc	50 1034 32 prologue_end         ; /Applications/Xcode.app/Contents/Developer/Platforms/MacOSX.platform/Developer/SDKs/MacOSX13.1.sdk/usr/include/c++/v1/__functional/function.h:1034:32
	bl	__ZNKSt3__110__function12__value_funcIFvRKNS_12basic_stringIcNS_11char_traitsIcEENS_9allocatorIcEEEEiEEcvbEv
	.loc	50 1034 7 is_stmt 0             ; /Applications/Xcode.app/Contents/Developer/Platforms/MacOSX.platform/Developer/SDKs/MacOSX13.1.sdk/usr/include/c++/v1/__functional/function.h:1034:7
	and	w0, w0, #0x1
	ldp	x29, x30, [sp, #16]             ; 16-byte Folded Reload
	add	sp, sp, #32
	ret
Ltmp273:
Lfunc_end43:
	.cfi_endproc
                                        ; -- End function
	.globl	__ZN10SubProcess8waitDoneENSt3__16chrono8durationIxNS0_5ratioILl1ELl1000000EEEEE ; -- Begin function _ZN10SubProcess8waitDoneENSt3__16chrono8durationIxNS0_5ratioILl1ELl1000000EEEEE
	.p2align	2
__ZN10SubProcess8waitDoneENSt3__16chrono8durationIxNS0_5ratioILl1ELl1000000EEEEE: ; @_ZN10SubProcess8waitDoneENSt3__16chrono8durationIxNS0_5ratioILl1ELl1000000EEEEE
Lfunc_begin44:
	.loc	100 159 0 is_stmt 1             ; libframework/framework/src/SubProcess.cpp:159:0
	.cfi_startproc
	.cfi_personality 155, ___gxx_personality_v0
	.cfi_lsda 16, Lexception7
; %bb.0:
	sub	sp, sp, #176
	stp	x29, x30, [sp, #160]            ; 16-byte Folded Spill
	add	x29, sp, #160
	.cfi_def_cfa w29, 16
	.cfi_offset w30, -8
	.cfi_offset w29, -16
	mov	x8, x0
Ltmp280:
	.loc	100 0 0 is_stmt 0               ; libframework/framework/src/SubProcess.cpp:0:0
	adrp	x0, __ZNSt3__14coutE@GOTPAGE
	ldr	x0, [x0, __ZNSt3__14coutE@GOTPAGEOFF]
	str	x0, [sp, #32]                   ; 8-byte Folded Spill
	sub	x9, x29, #16
	str	x9, [sp, #40]                   ; 8-byte Folded Spill
	stur	x1, [x29, #-16]
	stur	x8, [x29, #-24]
	ldur	x8, [x29, #-24]
	str	x8, [sp, #56]                   ; 8-byte Folded Spill
	adrp	x1, l_.str.20@PAGE
	add	x1, x1, l_.str.20@PAGEOFF
	.loc	100 160 15 prologue_end is_stmt 1 ; libframework/framework/src/SubProcess.cpp:160:15
	bl	__ZNSt3__1lsINS_11char_traitsIcEEEERNS_13basic_ostreamIcT_EES6_PKc
	mov	x1, x0
	ldr	x0, [sp, #40]                   ; 8-byte Folded Reload
	str	x1, [sp, #48]                   ; 8-byte Folded Spill
	.loc	100 160 41 is_stmt 0            ; libframework/framework/src/SubProcess.cpp:160:41
	bl	__ZNKSt3__16chrono8durationIxNS_5ratioILl1ELl1000000EEEE5countEv
	mov	x1, x0
	ldr	x0, [sp, #48]                   ; 8-byte Folded Reload
	.loc	100 160 30                      ; libframework/framework/src/SubProcess.cpp:160:30
	bl	__ZNSt3__113basic_ostreamIcNS_11char_traitsIcEEElsEx
	.loc	100 0 0                         ; libframework/framework/src/SubProcess.cpp:0:0
	adrp	x1, l_.str.21@PAGE
	add	x1, x1, l_.str.21@PAGEOFF
	.loc	100 160 49                      ; libframework/framework/src/SubProcess.cpp:160:49
	bl	__ZNSt3__1lsINS_11char_traitsIcEEEERNS_13basic_ostreamIcT_EES6_PKc
	ldr	x8, [sp, #56]                   ; 8-byte Folded Reload
	sub	x0, x29, #32
Ltmp281:
	.loc	100 163 40 is_stmt 1            ; libframework/framework/src/SubProcess.cpp:163:40
	add	x1, x8, #112
	.loc	100 163 37 is_stmt 0            ; libframework/framework/src/SubProcess.cpp:163:37
	bl	__ZNSt3__110lock_guardINS_5mutexEEC1ERS1_
	ldr	x8, [sp, #56]                   ; 8-byte Folded Reload
Ltmp282:
	.loc	100 164 13 is_stmt 1            ; libframework/framework/src/SubProcess.cpp:164:13
	ldr	w8, [x8, #104]
Ltmp283:
	.loc	100 164 13 is_stmt 0            ; libframework/framework/src/SubProcess.cpp:164:13
	subs	w8, w8, #0
	b.ge	LBB44_4
	b	LBB44_1
LBB44_1:
Ltmp274:
	.loc	100 0 13                        ; libframework/framework/src/SubProcess.cpp:0:13
	ldr	x0, [sp, #32]                   ; 8-byte Folded Reload
Ltmp284:
	adrp	x1, l_.str.22@PAGE
	add	x1, x1, l_.str.22@PAGEOFF
	.loc	100 166 23 is_stmt 1            ; libframework/framework/src/SubProcess.cpp:166:23
	bl	__ZNSt3__1lsINS_11char_traitsIcEEEERNS_13basic_ostreamIcT_EES6_PKc
Ltmp275:
	b	LBB44_2
LBB44_2:
	.loc	100 0 23 is_stmt 0              ; libframework/framework/src/SubProcess.cpp:0:23
	mov	w8, #1
	.loc	100 167 13 is_stmt 1            ; libframework/framework/src/SubProcess.cpp:167:13
	stur	w8, [x29, #-4]
	stur	w8, [x29, #-48]
	b	LBB44_5
LBB44_3:
Ltmp276:
	.loc	100 204 1                       ; libframework/framework/src/SubProcess.cpp:204:1
	mov	x8, x1
	stur	x0, [x29, #-40]
	stur	w8, [x29, #-44]
	sub	x0, x29, #32
Ltmp285:
	.loc	100 169 5                       ; libframework/framework/src/SubProcess.cpp:169:5
	bl	__ZNSt3__110lock_guardINS_5mutexEED1Ev
	b	LBB44_18
LBB44_4:
	stur	wzr, [x29, #-48]
	b	LBB44_5
LBB44_5:
	.loc	100 0 5 is_stmt 0               ; libframework/framework/src/SubProcess.cpp:0:5
	sub	x0, x29, #32
	.loc	100 169 5                       ; libframework/framework/src/SubProcess.cpp:169:5
	bl	__ZNSt3__110lock_guardINS_5mutexEED1Ev
	ldur	w8, [x29, #-48]
	cbz	w8, LBB44_7
	b	LBB44_6
LBB44_6:
	.loc	100 0 5                         ; libframework/framework/src/SubProcess.cpp:0:5
	b	LBB44_17
LBB44_7:
	.loc	100 171 9 is_stmt 1             ; libframework/framework/src/SubProcess.cpp:171:9
	stur	wzr, [x29, #-52]
	mov	w8, #-1
	.loc	100 172 9                       ; libframework/framework/src/SubProcess.cpp:172:9
	stur	w8, [x29, #-56]
	.loc	100 173 5                       ; libframework/framework/src/SubProcess.cpp:173:5
	b	LBB44_8
LBB44_8:                                ; =>This Inner Loop Header: Depth=1
	.loc	100 0 5 is_stmt 0               ; libframework/framework/src/SubProcess.cpp:0:5
	ldr	x8, [sp, #56]                   ; 8-byte Folded Reload
	.loc	100 173 27                      ; libframework/framework/src/SubProcess.cpp:173:27
	ldr	w8, [x8, #104]
	str	w8, [sp, #28]                   ; 4-byte Folded Spill
	mov	x0, #0
	.loc	100 173 53                      ; libframework/framework/src/SubProcess.cpp:173:53
	bl	__ZNSt3__18literals15chrono_literalsli2usEy
	sub	x1, x29, #64
	stur	x0, [x29, #-64]
	sub	x0, x29, #16
	.loc	100 173 50                      ; libframework/framework/src/SubProcess.cpp:173:50
	bl	__ZNSt3__16chronoeqIxNS_5ratioILl1ELl1000000EEExS3_EEbRKNS0_8durationIT_T0_EERKNS4_IT1_T2_EE
	mov	x8, x0
	ldr	w0, [sp, #28]                   ; 4-byte Folded Reload
	.loc	100 173 42                      ; libframework/framework/src/SubProcess.cpp:173:42
	ands	w8, w8, #0x1
	cset	w2, eq
	sub	x1, x29, #52
	.loc	100 173 19                      ; libframework/framework/src/SubProcess.cpp:173:19
	bl	_waitpid
	.loc	100 173 17                      ; libframework/framework/src/SubProcess.cpp:173:17
	stur	w0, [x29, #-56]
	.loc	100 173 5                       ; libframework/framework/src/SubProcess.cpp:173:5
	cbnz	w0, LBB44_12
	b	LBB44_9
LBB44_9:                                ;   in Loop: Header=BB44_8 Depth=1
	.loc	100 0 5                         ; libframework/framework/src/SubProcess.cpp:0:5
	ldr	x0, [sp, #32]                   ; 8-byte Folded Reload
Ltmp286:
	adrp	x1, l_.str.23@PAGE
	add	x1, x1, l_.str.23@PAGEOFF
	.loc	100 175 19 is_stmt 1            ; libframework/framework/src/SubProcess.cpp:175:19
	bl	__ZNSt3__1lsINS_11char_traitsIcEEEERNS_13basic_ostreamIcT_EES6_PKc
	mov	w0, #34464
	movk	w0, #1, lsl #16
	.loc	100 176 9                       ; libframework/framework/src/SubProcess.cpp:176:9
	bl	_usleep
	mov	x0, #34464
	movk	x0, #1, lsl #16
	.loc	100 177 20                      ; libframework/framework/src/SubProcess.cpp:177:20
	bl	__ZNSt3__18literals15chrono_literalsli2usEy
	sub	x1, x29, #72
	stur	x0, [x29, #-72]
	sub	x0, x29, #16
	str	x0, [sp, #16]                   ; 8-byte Folded Spill
	.loc	100 177 17 is_stmt 0            ; libframework/framework/src/SubProcess.cpp:177:17
	bl	__ZNSt3__16chrono8durationIxNS_5ratioILl1ELl1000000EEEEmIERKS4_
	mov	x0, #0
Ltmp287:
	.loc	100 178 24 is_stmt 1            ; libframework/framework/src/SubProcess.cpp:178:24
	bl	__ZNSt3__18literals15chrono_literalsli2usEy
	mov	x8, x0
	ldr	x0, [sp, #16]                   ; 8-byte Folded Reload
	add	x1, sp, #80
	str	x8, [sp, #80]
	.loc	100 178 21 is_stmt 0            ; libframework/framework/src/SubProcess.cpp:178:21
	bl	__ZNSt3__16chronoleIxNS_5ratioILl1ELl1000000EEExS3_EEbRKNS0_8durationIT_T0_EERKNS4_IT1_T2_EE
Ltmp288:
	.loc	100 178 13                      ; libframework/framework/src/SubProcess.cpp:178:13
	tbz	w0, #0, LBB44_11
	b	LBB44_10
LBB44_10:
	.loc	100 0 13                        ; libframework/framework/src/SubProcess.cpp:0:13
	ldr	x0, [sp, #32]                   ; 8-byte Folded Reload
Ltmp289:
	adrp	x1, l_.str.24@PAGE
	add	x1, x1, l_.str.24@PAGEOFF
	.loc	100 180 23 is_stmt 1            ; libframework/framework/src/SubProcess.cpp:180:23
	bl	__ZNSt3__1lsINS_11char_traitsIcEEEERNS_13basic_ostreamIcT_EES6_PKc
	ldr	x8, [sp, #56]                   ; 8-byte Folded Reload
	.loc	100 180 50 is_stmt 0            ; libframework/framework/src/SubProcess.cpp:180:50
	ldr	w1, [x8, #104]
	.loc	100 180 47                      ; libframework/framework/src/SubProcess.cpp:180:47
	bl	__ZNSt3__113basic_ostreamIcNS_11char_traitsIcEEElsEi
Ltmp290:
	.loc	100 0 0                         ; libframework/framework/src/SubProcess.cpp:0:0
	adrp	x1, l_.str.21@PAGE
	add	x1, x1, l_.str.21@PAGEOFF
Ltmp291:
	.loc	100 180 55                      ; libframework/framework/src/SubProcess.cpp:180:55
	bl	__ZNSt3__1lsINS_11char_traitsIcEEEERNS_13basic_ostreamIcT_EES6_PKc
	ldr	x8, [sp, #56]                   ; 8-byte Folded Reload
	.loc	100 181 20 is_stmt 1            ; libframework/framework/src/SubProcess.cpp:181:20
	ldr	w0, [x8, #104]
	mov	w1, #9
	.loc	100 181 13 is_stmt 0            ; libframework/framework/src/SubProcess.cpp:181:13
	bl	_kill
	ldr	x8, [sp, #56]                   ; 8-byte Folded Reload
	.loc	100 182 23 is_stmt 1            ; libframework/framework/src/SubProcess.cpp:182:23
	ldr	w0, [x8, #104]
	sub	x1, x29, #52
	mov	w2, #0
	.loc	100 182 13 is_stmt 0            ; libframework/framework/src/SubProcess.cpp:182:13
	bl	_waitpid
	ldr	x0, [sp, #56]                   ; 8-byte Folded Reload
	.loc	100 183 25 is_stmt 1            ; libframework/framework/src/SubProcess.cpp:183:25
	ldur	w1, [x29, #-52]
	.loc	100 183 13 is_stmt 0            ; libframework/framework/src/SubProcess.cpp:183:13
	bl	__ZN10SubProcess11checkStatusEi
	.loc	100 184 15 is_stmt 1            ; libframework/framework/src/SubProcess.cpp:184:15
	bl	___error
	mov	w8, #60
	.loc	100 184 26 is_stmt 0            ; libframework/framework/src/SubProcess.cpp:184:26
	str	w8, [x0]
	mov	w8, #-1
	.loc	100 185 17 is_stmt 1            ; libframework/framework/src/SubProcess.cpp:185:17
	stur	w8, [x29, #-56]
	.loc	100 186 13                      ; libframework/framework/src/SubProcess.cpp:186:13
	b	LBB44_12
Ltmp292:
LBB44_11:                               ;   in Loop: Header=BB44_8 Depth=1
	.loc	100 173 5                       ; libframework/framework/src/SubProcess.cpp:173:5
	b	LBB44_8
LBB44_12:
Ltmp293:
	.loc	100 189 9                       ; libframework/framework/src/SubProcess.cpp:189:9
	ldur	w8, [x29, #-56]
Ltmp294:
	.loc	100 189 9 is_stmt 0             ; libframework/framework/src/SubProcess.cpp:189:9
	subs	w8, w8, #0
	b.ge	LBB44_14
	b	LBB44_13
LBB44_13:
	.loc	100 0 9                         ; libframework/framework/src/SubProcess.cpp:0:9
	ldr	x0, [sp, #32]                   ; 8-byte Folded Reload
Ltmp295:
	adrp	x1, l_.str.25@PAGE
	add	x1, x1, l_.str.25@PAGEOFF
	.loc	100 191 19 is_stmt 1            ; libframework/framework/src/SubProcess.cpp:191:19
	bl	__ZNSt3__1lsINS_11char_traitsIcEEEERNS_13basic_ostreamIcT_EES6_PKc
	str	x0, [sp]                        ; 8-byte Folded Spill
	.loc	100 191 54 is_stmt 0            ; libframework/framework/src/SubProcess.cpp:191:54
	bl	___error
	.loc	100 191 53                      ; libframework/framework/src/SubProcess.cpp:191:53
	ldr	w0, [x0]
	.loc	100 191 43                      ; libframework/framework/src/SubProcess.cpp:191:43
	bl	_strerror
	mov	x1, x0
	ldr	x0, [sp]                        ; 8-byte Folded Reload
	.loc	100 191 40                      ; libframework/framework/src/SubProcess.cpp:191:40
	bl	__ZNSt3__1lsINS_11char_traitsIcEEEERNS_13basic_ostreamIcT_EES6_PKc
	ldr	x8, [sp, #56]                   ; 8-byte Folded Reload
	.loc	100 192 40 is_stmt 1            ; libframework/framework/src/SubProcess.cpp:192:40
	add	x1, x8, #112
	add	x0, sp, #72
	str	x0, [sp, #8]                    ; 8-byte Folded Spill
	.loc	100 192 37 is_stmt 0            ; libframework/framework/src/SubProcess.cpp:192:37
	bl	__ZNSt3__110lock_guardINS_5mutexEEC1ERS1_
	ldr	x0, [sp, #8]                    ; 8-byte Folded Reload
	ldr	x9, [sp, #56]                   ; 8-byte Folded Reload
	mov	w8, #-1
	.loc	100 193 14 is_stmt 1            ; libframework/framework/src/SubProcess.cpp:193:14
	str	w8, [x9, #104]
	.loc	100 194 9                       ; libframework/framework/src/SubProcess.cpp:194:9
	stur	wzr, [x29, #-4]
	mov	w8, #1
	stur	w8, [x29, #-48]
Ltmp296:
	.loc	100 195 5                       ; libframework/framework/src/SubProcess.cpp:195:5
	bl	__ZNSt3__110lock_guardINS_5mutexEED1Ev
	b	LBB44_17
Ltmp297:
LBB44_14:
	.loc	100 0 5 is_stmt 0               ; libframework/framework/src/SubProcess.cpp:0:5
	ldr	x8, [sp, #56]                   ; 8-byte Folded Reload
Ltmp298:
	.loc	100 198 40 is_stmt 1            ; libframework/framework/src/SubProcess.cpp:198:40
	add	x1, x8, #112
	add	x0, sp, #64
	.loc	100 198 37 is_stmt 0            ; libframework/framework/src/SubProcess.cpp:198:37
	bl	__ZNSt3__110lock_guardINS_5mutexEEC1ERS1_
	ldr	x0, [sp, #56]                   ; 8-byte Folded Reload
	.loc	100 199 21 is_stmt 1            ; libframework/framework/src/SubProcess.cpp:199:21
	ldur	w1, [x29, #-52]
Ltmp277:
	.loc	100 199 9 is_stmt 0             ; libframework/framework/src/SubProcess.cpp:199:9
	bl	__ZN10SubProcess11checkStatusEi
Ltmp278:
	b	LBB44_15
LBB44_15:
	.loc	100 0 9                         ; libframework/framework/src/SubProcess.cpp:0:9
	ldr	x9, [sp, #56]                   ; 8-byte Folded Reload
	mov	w8, #-1
	.loc	100 200 14 is_stmt 1            ; libframework/framework/src/SubProcess.cpp:200:14
	str	w8, [x9, #104]
	add	x0, sp, #64
Ltmp299:
	.loc	100 201 5                       ; libframework/framework/src/SubProcess.cpp:201:5
	bl	__ZNSt3__110lock_guardINS_5mutexEED1Ev
	mov	w8, #1
	.loc	100 203 5                       ; libframework/framework/src/SubProcess.cpp:203:5
	stur	w8, [x29, #-4]
	b	LBB44_17
LBB44_16:
Ltmp279:
Ltmp300:
	.loc	100 204 1                       ; libframework/framework/src/SubProcess.cpp:204:1
	mov	x8, x1
	stur	x0, [x29, #-40]
	stur	w8, [x29, #-44]
	add	x0, sp, #64
Ltmp301:
	.loc	100 201 5                       ; libframework/framework/src/SubProcess.cpp:201:5
	bl	__ZNSt3__110lock_guardINS_5mutexEED1Ev
	b	LBB44_18
LBB44_17:
	.loc	100 204 1                       ; libframework/framework/src/SubProcess.cpp:204:1
	ldur	w0, [x29, #-4]
	ldp	x29, x30, [sp, #160]            ; 16-byte Folded Reload
	add	sp, sp, #176
	ret
LBB44_18:
	.loc	100 169 5                       ; libframework/framework/src/SubProcess.cpp:169:5
	ldur	x0, [x29, #-40]
	bl	__Unwind_Resume
Ltmp302:
; %bb.19:
Lfunc_end44:
	.cfi_endproc
	.section	__TEXT,__gcc_except_tab
	.p2align	2
GCC_except_table44:
Lexception7:
	.byte	255                             ; @LPStart Encoding = omit
	.byte	255                             ; @TType Encoding = omit
	.byte	1                               ; Call site Encoding = uleb128
	.uleb128 Lcst_end7-Lcst_begin7
Lcst_begin7:
	.uleb128 Lfunc_begin44-Lfunc_begin44    ; >> Call Site 1 <<
	.uleb128 Ltmp274-Lfunc_begin44          ;   Call between Lfunc_begin44 and Ltmp274
	.byte	0                               ;     has no landing pad
	.byte	0                               ;   On action: cleanup
	.uleb128 Ltmp274-Lfunc_begin44          ; >> Call Site 2 <<
	.uleb128 Ltmp275-Ltmp274                ;   Call between Ltmp274 and Ltmp275
	.uleb128 Ltmp276-Lfunc_begin44          ;     jumps to Ltmp276
	.byte	0                               ;   On action: cleanup
	.uleb128 Ltmp275-Lfunc_begin44          ; >> Call Site 3 <<
	.uleb128 Ltmp277-Ltmp275                ;   Call between Ltmp275 and Ltmp277
	.byte	0                               ;     has no landing pad
	.byte	0                               ;   On action: cleanup
	.uleb128 Ltmp277-Lfunc_begin44          ; >> Call Site 4 <<
	.uleb128 Ltmp278-Ltmp277                ;   Call between Ltmp277 and Ltmp278
	.uleb128 Ltmp279-Lfunc_begin44          ;     jumps to Ltmp279
	.byte	0                               ;   On action: cleanup
	.uleb128 Ltmp278-Lfunc_begin44          ; >> Call Site 5 <<
	.uleb128 Lfunc_end44-Ltmp278            ;   Call between Ltmp278 and Lfunc_end44
	.byte	0                               ;     has no landing pad
	.byte	0                               ;   On action: cleanup
Lcst_end7:
	.p2align	2
                                        ; -- End function
	.section	__TEXT,__text,regular,pure_instructions
	.p2align	2                               ; -- Begin function _ZNKSt3__16chrono8durationIxNS_5ratioILl1ELl1000000EEEE5countEv
__ZNKSt3__16chrono8durationIxNS_5ratioILl1ELl1000000EEEE5countEv: ; @_ZNKSt3__16chrono8durationIxNS_5ratioILl1ELl1000000EEEE5countEv
Lfunc_begin45:
	.loc	32 1099 0                       ; /Applications/Xcode.app/Contents/Developer/Platforms/MacOSX.platform/Developer/SDKs/MacOSX13.1.sdk/usr/include/c++/v1/chrono:1099:0
	.cfi_startproc
; %bb.0:
	sub	sp, sp, #16
	.cfi_def_cfa_offset 16
	str	x0, [sp, #8]
	ldr	x8, [sp, #8]
Ltmp304:
	.loc	32 1099 119 prologue_end        ; /Applications/Xcode.app/Contents/Developer/Platforms/MacOSX.platform/Developer/SDKs/MacOSX13.1.sdk/usr/include/c++/v1/chrono:1099:119
	ldr	x0, [x8]
	.loc	32 1099 112 is_stmt 0           ; /Applications/Xcode.app/Contents/Developer/Platforms/MacOSX.platform/Developer/SDKs/MacOSX13.1.sdk/usr/include/c++/v1/chrono:1099:112
	add	sp, sp, #16
	ret
Ltmp305:
Lfunc_end45:
	.cfi_endproc
                                        ; -- End function
	.p2align	2                               ; -- Begin function _ZNSt3__16chronoeqIxNS_5ratioILl1ELl1000000EEExS3_EEbRKNS0_8durationIT_T0_EERKNS4_IT1_T2_EE
__ZNSt3__16chronoeqIxNS_5ratioILl1ELl1000000EEExS3_EEbRKNS0_8durationIT_T0_EERKNS4_IT1_T2_EE: ; @_ZNSt3__16chronoeqIxNS_5ratioILl1ELl1000000EEExS3_EEbRKNS0_8durationIT_T0_EERKNS4_IT1_T2_EE
Lfunc_begin46:
	.loc	32 1163 0 is_stmt 1             ; /Applications/Xcode.app/Contents/Developer/Platforms/MacOSX.platform/Developer/SDKs/MacOSX13.1.sdk/usr/include/c++/v1/chrono:1163:0
	.cfi_startproc
; %bb.0:
	sub	sp, sp, #48
	stp	x29, x30, [sp, #32]             ; 16-byte Folded Spill
	add	x29, sp, #32
	.cfi_def_cfa w29, 16
	.cfi_offset w30, -8
	.cfi_offset w29, -16
	stur	x0, [x29, #-8]
	str	x1, [sp, #16]
Ltmp306:
	.loc	32 1164 83 prologue_end         ; /Applications/Xcode.app/Contents/Developer/Platforms/MacOSX.platform/Developer/SDKs/MacOSX13.1.sdk/usr/include/c++/v1/chrono:1164:83
	ldur	x1, [x29, #-8]
	.loc	32 1164 90 is_stmt 0            ; /Applications/Xcode.app/Contents/Developer/Platforms/MacOSX.platform/Developer/SDKs/MacOSX13.1.sdk/usr/include/c++/v1/chrono:1164:90
	ldr	x2, [sp, #16]
	add	x0, sp, #15
	.loc	32 1164 12                      ; /Applications/Xcode.app/Contents/Developer/Platforms/MacOSX.platform/Developer/SDKs/MacOSX13.1.sdk/usr/include/c++/v1/chrono:1164:12
	bl	__ZNKSt3__16chrono13__duration_eqINS0_8durationIxNS_5ratioILl1ELl1000000EEEEES5_EclERKS5_S8_
	.loc	32 1164 5                       ; /Applications/Xcode.app/Contents/Developer/Platforms/MacOSX.platform/Developer/SDKs/MacOSX13.1.sdk/usr/include/c++/v1/chrono:1164:5
	and	w0, w0, #0x1
	ldp	x29, x30, [sp, #32]             ; 16-byte Folded Reload
	add	sp, sp, #48
	ret
Ltmp307:
Lfunc_end46:
	.cfi_endproc
                                        ; -- End function
	.globl	__ZNSt3__18literals15chrono_literalsli2usEy ; -- Begin function _ZNSt3__18literals15chrono_literalsli2usEy
	.weak_definition	__ZNSt3__18literals15chrono_literalsli2usEy
	.p2align	2
__ZNSt3__18literals15chrono_literalsli2usEy: ; @_ZNSt3__18literals15chrono_literalsli2usEy
Lfunc_begin47:
	.loc	32 2890 0 is_stmt 1             ; /Applications/Xcode.app/Contents/Developer/Platforms/MacOSX.platform/Developer/SDKs/MacOSX13.1.sdk/usr/include/c++/v1/chrono:2890:0
	.cfi_startproc
; %bb.0:
	sub	sp, sp, #48
	stp	x29, x30, [sp, #32]             ; 16-byte Folded Spill
	add	x29, sp, #32
	.cfi_def_cfa w29, 16
	.cfi_offset w30, -8
	.cfi_offset w29, -16
	str	x0, [sp, #16]
Ltmp308:
	.loc	32 2891 76 prologue_end         ; /Applications/Xcode.app/Contents/Developer/Platforms/MacOSX.platform/Developer/SDKs/MacOSX13.1.sdk/usr/include/c++/v1/chrono:2891:76
	ldr	x8, [sp, #16]
	add	x1, sp, #8
	.loc	32 2891 37 is_stmt 0            ; /Applications/Xcode.app/Contents/Developer/Platforms/MacOSX.platform/Developer/SDKs/MacOSX13.1.sdk/usr/include/c++/v1/chrono:2891:37
	str	x8, [sp, #8]
	sub	x0, x29, #8
	mov	x2, #0
	.loc	32 2891 16                      ; /Applications/Xcode.app/Contents/Developer/Platforms/MacOSX.platform/Developer/SDKs/MacOSX13.1.sdk/usr/include/c++/v1/chrono:2891:16
	bl	__ZNSt3__16chrono8durationIxNS_5ratioILl1ELl1000000EEEEC1IxEERKT_PNS_9enable_ifIXaasr14is_convertibleIS6_xEE5valueooL_ZNS_17integral_constantIbLb0EE5valueEEntsr23treat_as_floating_pointIS6_EE5valueEvE4typeE
	.loc	32 2891 9                       ; /Applications/Xcode.app/Contents/Developer/Platforms/MacOSX.platform/Developer/SDKs/MacOSX13.1.sdk/usr/include/c++/v1/chrono:2891:9
	ldur	x0, [x29, #-8]
	ldp	x29, x30, [sp, #32]             ; 16-byte Folded Reload
	add	sp, sp, #48
	ret
Ltmp309:
Lfunc_end47:
	.cfi_endproc
                                        ; -- End function
	.p2align	2                               ; -- Begin function _ZNSt3__16chrono8durationIxNS_5ratioILl1ELl1000000EEEEmIERKS4_
__ZNSt3__16chrono8durationIxNS_5ratioILl1ELl1000000EEEEmIERKS4_: ; @_ZNSt3__16chrono8durationIxNS_5ratioILl1ELl1000000EEEEmIERKS4_
Lfunc_begin48:
	.loc	32 1111 0 is_stmt 1             ; /Applications/Xcode.app/Contents/Developer/Platforms/MacOSX.platform/Developer/SDKs/MacOSX13.1.sdk/usr/include/c++/v1/chrono:1111:0
	.cfi_startproc
; %bb.0:
	sub	sp, sp, #48
	stp	x29, x30, [sp, #32]             ; 16-byte Folded Spill
	add	x29, sp, #32
	.cfi_def_cfa w29, 16
	.cfi_offset w30, -8
	.cfi_offset w29, -16
	stur	x0, [x29, #-8]
	str	x1, [sp, #16]
	ldur	x8, [x29, #-8]
	str	x8, [sp, #8]                    ; 8-byte Folded Spill
Ltmp310:
	.loc	32 1111 146 prologue_end        ; /Applications/Xcode.app/Contents/Developer/Platforms/MacOSX.platform/Developer/SDKs/MacOSX13.1.sdk/usr/include/c++/v1/chrono:1111:146
	ldr	x0, [sp, #16]
	.loc	32 1111 150 is_stmt 0           ; /Applications/Xcode.app/Contents/Developer/Platforms/MacOSX.platform/Developer/SDKs/MacOSX13.1.sdk/usr/include/c++/v1/chrono:1111:150
	bl	__ZNKSt3__16chrono8durationIxNS_5ratioILl1ELl1000000EEEE5countEv
	mov	x9, x0
	ldr	x0, [sp, #8]                    ; 8-byte Folded Reload
	.loc	32 1111 143                     ; /Applications/Xcode.app/Contents/Developer/Platforms/MacOSX.platform/Developer/SDKs/MacOSX13.1.sdk/usr/include/c++/v1/chrono:1111:143
	ldr	x8, [x0]
	subs	x8, x8, x9
	str	x8, [x0]
	.loc	32 1111 159                     ; /Applications/Xcode.app/Contents/Developer/Platforms/MacOSX.platform/Developer/SDKs/MacOSX13.1.sdk/usr/include/c++/v1/chrono:1111:159
	ldp	x29, x30, [sp, #32]             ; 16-byte Folded Reload
	add	sp, sp, #48
	ret
Ltmp311:
Lfunc_end48:
	.cfi_endproc
                                        ; -- End function
	.p2align	2                               ; -- Begin function _ZNSt3__16chronoleIxNS_5ratioILl1ELl1000000EEExS3_EEbRKNS0_8durationIT_T0_EERKNS4_IT1_T2_EE
__ZNSt3__16chronoleIxNS_5ratioILl1ELl1000000EEExS3_EEbRKNS0_8durationIT_T0_EERKNS4_IT1_T2_EE: ; @_ZNSt3__16chronoleIxNS_5ratioILl1ELl1000000EEExS3_EEbRKNS0_8durationIT_T0_EERKNS4_IT1_T2_EE
Lfunc_begin49:
	.loc	32 1226 0 is_stmt 1             ; /Applications/Xcode.app/Contents/Developer/Platforms/MacOSX.platform/Developer/SDKs/MacOSX13.1.sdk/usr/include/c++/v1/chrono:1226:0
	.cfi_startproc
; %bb.0:
	sub	sp, sp, #32
	stp	x29, x30, [sp, #16]             ; 16-byte Folded Spill
	add	x29, sp, #16
	.cfi_def_cfa w29, 16
	.cfi_offset w30, -8
	.cfi_offset w29, -16
	str	x0, [sp, #8]
	str	x1, [sp]
Ltmp312:
	.loc	32 1227 14 prologue_end         ; /Applications/Xcode.app/Contents/Developer/Platforms/MacOSX.platform/Developer/SDKs/MacOSX13.1.sdk/usr/include/c++/v1/chrono:1227:14
	ldr	x0, [sp]
	.loc	32 1227 22 is_stmt 0            ; /Applications/Xcode.app/Contents/Developer/Platforms/MacOSX.platform/Developer/SDKs/MacOSX13.1.sdk/usr/include/c++/v1/chrono:1227:22
	ldr	x1, [sp, #8]
	.loc	32 1227 20                      ; /Applications/Xcode.app/Contents/Developer/Platforms/MacOSX.platform/Developer/SDKs/MacOSX13.1.sdk/usr/include/c++/v1/chrono:1227:20
	bl	__ZNSt3__16chronoltIxNS_5ratioILl1ELl1000000EEExS3_EEbRKNS0_8durationIT_T0_EERKNS4_IT1_T2_EE
	.loc	32 1227 12                      ; /Applications/Xcode.app/Contents/Developer/Platforms/MacOSX.platform/Developer/SDKs/MacOSX13.1.sdk/usr/include/c++/v1/chrono:1227:12
	eor	w8, w0, #0x1
	.loc	32 1227 5                       ; /Applications/Xcode.app/Contents/Developer/Platforms/MacOSX.platform/Developer/SDKs/MacOSX13.1.sdk/usr/include/c++/v1/chrono:1227:5
	and	w0, w8, #0x1
	ldp	x29, x30, [sp, #16]             ; 16-byte Folded Reload
	add	sp, sp, #32
	ret
Ltmp313:
Lfunc_end49:
	.cfi_endproc
                                        ; -- End function
	.globl	__ZN10SubProcess15getReturnResultEv ; -- Begin function _ZN10SubProcess15getReturnResultEv
	.p2align	2
__ZN10SubProcess15getReturnResultEv:    ; @_ZN10SubProcess15getReturnResultEv
Lfunc_begin50:
	.loc	100 207 0 is_stmt 1             ; libframework/framework/src/SubProcess.cpp:207:0
	.cfi_startproc
; %bb.0:
	sub	sp, sp, #48
	stp	x29, x30, [sp, #32]             ; 16-byte Folded Spill
	add	x29, sp, #32
	.cfi_def_cfa w29, 16
	.cfi_offset w30, -8
	.cfi_offset w29, -16
	stur	x0, [x29, #-8]
	ldur	x8, [x29, #-8]
	str	x8, [sp, #8]                    ; 8-byte Folded Spill
	mov	x0, #0
Ltmp314:
	.loc	100 208 5 prologue_end          ; libframework/framework/src/SubProcess.cpp:208:5
	bl	__ZNSt3__18literals15chrono_literalsli2usEy
	mov	x8, x0
	ldr	x0, [sp, #8]                    ; 8-byte Folded Reload
	str	x8, [sp, #16]
	ldr	x1, [sp, #16]
	bl	__ZN10SubProcess8waitDoneENSt3__16chrono8durationIxNS0_5ratioILl1ELl1000000EEEEE
	ldr	x8, [sp, #8]                    ; 8-byte Folded Reload
	.loc	100 209 12                      ; libframework/framework/src/SubProcess.cpp:209:12
	ldr	w0, [x8, #108]
	.loc	100 209 5 is_stmt 0             ; libframework/framework/src/SubProcess.cpp:209:5
	ldp	x29, x30, [sp, #32]             ; 16-byte Folded Reload
	add	sp, sp, #48
	ret
Ltmp315:
Lfunc_end50:
	.cfi_endproc
                                        ; -- End function
	.p2align	2                               ; -- Begin function _ZNSt3__123enable_shared_from_thisI14LooperCallbackEC2Ev
__ZNSt3__123enable_shared_from_thisI14LooperCallbackEC2Ev: ; @_ZNSt3__123enable_shared_from_thisI14LooperCallbackEC2Ev
Lfunc_begin51:
	.loc	1 1681 0 is_stmt 1              ; /Applications/Xcode.app/Contents/Developer/Platforms/MacOSX.platform/Developer/SDKs/MacOSX13.1.sdk/usr/include/c++/v1/__memory/shared_ptr.h:1681:0
	.cfi_startproc
; %bb.0:
	sub	sp, sp, #32
	stp	x29, x30, [sp, #16]             ; 16-byte Folded Spill
	add	x29, sp, #16
	.cfi_def_cfa w29, 16
	.cfi_offset w30, -8
	.cfi_offset w29, -16
	str	x0, [sp, #8]
	ldr	x0, [sp, #8]
	str	x0, [sp]                        ; 8-byte Folded Spill
Ltmp316:
	.loc	1 1681 5 prologue_end           ; /Applications/Xcode.app/Contents/Developer/Platforms/MacOSX.platform/Developer/SDKs/MacOSX13.1.sdk/usr/include/c++/v1/__memory/shared_ptr.h:1681:5
	bl	__ZNSt3__18weak_ptrI14LooperCallbackEC1Ev
	ldr	x0, [sp]                        ; 8-byte Folded Reload
	.loc	1 1681 41 is_stmt 0             ; /Applications/Xcode.app/Contents/Developer/Platforms/MacOSX.platform/Developer/SDKs/MacOSX13.1.sdk/usr/include/c++/v1/__memory/shared_ptr.h:1681:41
	ldp	x29, x30, [sp, #16]             ; 16-byte Folded Reload
	add	sp, sp, #32
	ret
Ltmp317:
Lfunc_end51:
	.cfi_endproc
                                        ; -- End function
	.globl	__ZN14LooperCallbackD1Ev        ; -- Begin function _ZN14LooperCallbackD1Ev
	.weak_def_can_be_hidden	__ZN14LooperCallbackD1Ev
	.p2align	2
__ZN14LooperCallbackD1Ev:               ; @_ZN14LooperCallbackD1Ev
Lfunc_begin52:
	.loc	5 28 0 is_stmt 1                ; libframework/framework/include/framework/Looper.h:28:0
	.cfi_startproc
; %bb.0:
	sub	sp, sp, #16
	.cfi_def_cfa_offset 16
	str	x0, [sp]
	ldr	x8, [sp]
	str	x8, [sp, #8]
Ltmp319:
	.loc	5 28 39 prologue_end            ; libframework/framework/include/framework/Looper.h:28:39
	brk	#0x1
Ltmp320:
Lfunc_end52:
	.cfi_endproc
                                        ; -- End function
	.globl	__ZN14LooperCallbackD0Ev        ; -- Begin function _ZN14LooperCallbackD0Ev
	.weak_def_can_be_hidden	__ZN14LooperCallbackD0Ev
	.p2align	2
__ZN14LooperCallbackD0Ev:               ; @_ZN14LooperCallbackD0Ev
Lfunc_begin53:
	.loc	5 28 0                          ; libframework/framework/include/framework/Looper.h:28:0
	.cfi_startproc
; %bb.0:
	sub	sp, sp, #16
	.cfi_def_cfa_offset 16
	str	x0, [sp, #8]
Ltmp322:
	.loc	5 28 39 prologue_end            ; libframework/framework/include/framework/Looper.h:28:39
	brk	#0x1
Ltmp323:
Lfunc_end53:
	.cfi_endproc
                                        ; -- End function
	.p2align	2                               ; -- Begin function _ZNSt3__18weak_ptrI14LooperCallbackEC1Ev
__ZNSt3__18weak_ptrI14LooperCallbackEC1Ev: ; @_ZNSt3__18weak_ptrI14LooperCallbackEC1Ev
Lfunc_begin54:
	.loc	1 1420 0                        ; /Applications/Xcode.app/Contents/Developer/Platforms/MacOSX.platform/Developer/SDKs/MacOSX13.1.sdk/usr/include/c++/v1/__memory/shared_ptr.h:1420:0
	.cfi_startproc
; %bb.0:
	sub	sp, sp, #32
	stp	x29, x30, [sp, #16]             ; 16-byte Folded Spill
	add	x29, sp, #16
	.cfi_def_cfa w29, 16
	.cfi_offset w30, -8
	.cfi_offset w29, -16
	str	x0, [sp, #8]
	ldr	x0, [sp, #8]
	str	x0, [sp]                        ; 8-byte Folded Spill
Ltmp324:
	.loc	1 1420 1 prologue_end           ; /Applications/Xcode.app/Contents/Developer/Platforms/MacOSX.platform/Developer/SDKs/MacOSX13.1.sdk/usr/include/c++/v1/__memory/shared_ptr.h:1420:1
	bl	__ZNSt3__18weak_ptrI14LooperCallbackEC2Ev
	ldr	x0, [sp]                        ; 8-byte Folded Reload
	.loc	1 1421 1                        ; /Applications/Xcode.app/Contents/Developer/Platforms/MacOSX.platform/Developer/SDKs/MacOSX13.1.sdk/usr/include/c++/v1/__memory/shared_ptr.h:1421:1
	ldp	x29, x30, [sp, #16]             ; 16-byte Folded Reload
	add	sp, sp, #32
	ret
Ltmp325:
Lfunc_end54:
	.cfi_endproc
                                        ; -- End function
	.p2align	2                               ; -- Begin function _ZNSt3__18weak_ptrI14LooperCallbackEC2Ev
__ZNSt3__18weak_ptrI14LooperCallbackEC2Ev: ; @_ZNSt3__18weak_ptrI14LooperCallbackEC2Ev
Lfunc_begin55:
	.loc	1 1420 0                        ; /Applications/Xcode.app/Contents/Developer/Platforms/MacOSX.platform/Developer/SDKs/MacOSX13.1.sdk/usr/include/c++/v1/__memory/shared_ptr.h:1420:0
	.cfi_startproc
; %bb.0:
	sub	sp, sp, #16
	.cfi_def_cfa_offset 16
	str	x0, [sp, #8]
	ldr	x0, [sp, #8]
                                        ; kill: def $x8 killed $xzr
Ltmp327:
	.loc	1 1418 7 prologue_end           ; /Applications/Xcode.app/Contents/Developer/Platforms/MacOSX.platform/Developer/SDKs/MacOSX13.1.sdk/usr/include/c++/v1/__memory/shared_ptr.h:1418:7
	str	xzr, [x0]
	.loc	1 1419 7                        ; /Applications/Xcode.app/Contents/Developer/Platforms/MacOSX.platform/Developer/SDKs/MacOSX13.1.sdk/usr/include/c++/v1/__memory/shared_ptr.h:1419:7
	str	xzr, [x0, #8]
	.loc	1 1421 1                        ; /Applications/Xcode.app/Contents/Developer/Platforms/MacOSX.platform/Developer/SDKs/MacOSX13.1.sdk/usr/include/c++/v1/__memory/shared_ptr.h:1421:1
	add	sp, sp, #16
	ret
Ltmp328:
Lfunc_end55:
	.cfi_endproc
                                        ; -- End function
	.p2align	2                               ; -- Begin function _ZNSt3__18weak_ptrI6LooperEC2Ev
__ZNSt3__18weak_ptrI6LooperEC2Ev:       ; @_ZNSt3__18weak_ptrI6LooperEC2Ev
Lfunc_begin56:
	.loc	1 1420 0                        ; /Applications/Xcode.app/Contents/Developer/Platforms/MacOSX.platform/Developer/SDKs/MacOSX13.1.sdk/usr/include/c++/v1/__memory/shared_ptr.h:1420:0
	.cfi_startproc
; %bb.0:
	sub	sp, sp, #16
	.cfi_def_cfa_offset 16
	str	x0, [sp, #8]
	ldr	x0, [sp, #8]
                                        ; kill: def $x8 killed $xzr
Ltmp330:
	.loc	1 1418 7 prologue_end           ; /Applications/Xcode.app/Contents/Developer/Platforms/MacOSX.platform/Developer/SDKs/MacOSX13.1.sdk/usr/include/c++/v1/__memory/shared_ptr.h:1418:7
	str	xzr, [x0]
	.loc	1 1419 7                        ; /Applications/Xcode.app/Contents/Developer/Platforms/MacOSX.platform/Developer/SDKs/MacOSX13.1.sdk/usr/include/c++/v1/__memory/shared_ptr.h:1419:7
	str	xzr, [x0, #8]
	.loc	1 1421 1                        ; /Applications/Xcode.app/Contents/Developer/Platforms/MacOSX.platform/Developer/SDKs/MacOSX13.1.sdk/usr/include/c++/v1/__memory/shared_ptr.h:1421:1
	add	sp, sp, #16
	ret
Ltmp331:
Lfunc_end56:
	.cfi_endproc
                                        ; -- End function
	.p2align	2                               ; -- Begin function _ZNSt3__15mutexC2Ev
__ZNSt3__15mutexC2Ev:                   ; @_ZNSt3__15mutexC2Ev
Lfunc_begin57:
	.loc	23 37 0                         ; /Applications/Xcode.app/Contents/Developer/Platforms/MacOSX.platform/Developer/SDKs/MacOSX13.1.sdk/usr/include/c++/v1/__mutex_base:37:0
	.cfi_startproc
; %bb.0:
	sub	sp, sp, #32
	stp	x29, x30, [sp, #16]             ; 16-byte Folded Spill
	add	x29, sp, #16
	.cfi_def_cfa w29, 16
	.cfi_offset w30, -8
	.cfi_offset w29, -16
	str	x0, [sp, #8]
	ldr	x8, [sp, #8]
	str	x8, [sp]                        ; 8-byte Folded Spill
	mov	x9, #43943
	movk	x9, #12970, lsl #16
Ltmp332:
	.loc	23 33 29 prologue_end           ; /Applications/Xcode.app/Contents/Developer/Platforms/MacOSX.platform/Developer/SDKs/MacOSX13.1.sdk/usr/include/c++/v1/__mutex_base:33:29
	str	x9, [x8]
	add	x0, x8, #8
	mov	w1, #0
	mov	x2, #56
	bl	_memset
	ldr	x0, [sp]                        ; 8-byte Folded Reload
	.loc	23 37 31                        ; /Applications/Xcode.app/Contents/Developer/Platforms/MacOSX.platform/Developer/SDKs/MacOSX13.1.sdk/usr/include/c++/v1/__mutex_base:37:31
	ldp	x29, x30, [sp, #16]             ; 16-byte Folded Reload
	add	sp, sp, #32
	ret
Ltmp333:
Lfunc_end57:
	.cfi_endproc
                                        ; -- End function
	.p2align	2                               ; -- Begin function _ZNSt3__123enable_shared_from_thisI14LooperCallbackED2Ev
__ZNSt3__123enable_shared_from_thisI14LooperCallbackED2Ev: ; @_ZNSt3__123enable_shared_from_thisI14LooperCallbackED2Ev
Lfunc_begin58:
	.loc	1 1688 0                        ; /Applications/Xcode.app/Contents/Developer/Platforms/MacOSX.platform/Developer/SDKs/MacOSX13.1.sdk/usr/include/c++/v1/__memory/shared_ptr.h:1688:0
	.cfi_startproc
; %bb.0:
	sub	sp, sp, #32
	stp	x29, x30, [sp, #16]             ; 16-byte Folded Spill
	add	x29, sp, #16
	.cfi_def_cfa w29, 16
	.cfi_offset w30, -8
	.cfi_offset w29, -16
	str	x0, [sp, #8]
	ldr	x0, [sp, #8]
	str	x0, [sp]                        ; 8-byte Folded Spill
Ltmp334:
	.loc	1 1688 33 prologue_end          ; /Applications/Xcode.app/Contents/Developer/Platforms/MacOSX.platform/Developer/SDKs/MacOSX13.1.sdk/usr/include/c++/v1/__memory/shared_ptr.h:1688:33
	bl	__ZNSt3__18weak_ptrI14LooperCallbackED1Ev
	ldr	x0, [sp]                        ; 8-byte Folded Reload
Ltmp335:
	.loc	1 1688 33 is_stmt 0             ; /Applications/Xcode.app/Contents/Developer/Platforms/MacOSX.platform/Developer/SDKs/MacOSX13.1.sdk/usr/include/c++/v1/__memory/shared_ptr.h:1688:33
	ldp	x29, x30, [sp, #16]             ; 16-byte Folded Reload
	add	sp, sp, #32
	ret
Ltmp336:
Lfunc_end58:
	.cfi_endproc
                                        ; -- End function
	.globl	__ZNSt3__18weak_ptrI14LooperCallbackED1Ev ; -- Begin function _ZNSt3__18weak_ptrI14LooperCallbackED1Ev
	.weak_def_can_be_hidden	__ZNSt3__18weak_ptrI14LooperCallbackED1Ev
	.p2align	2
__ZNSt3__18weak_ptrI14LooperCallbackED1Ev: ; @_ZNSt3__18weak_ptrI14LooperCallbackED1Ev
Lfunc_begin59:
	.loc	1 1484 0 is_stmt 1              ; /Applications/Xcode.app/Contents/Developer/Platforms/MacOSX.platform/Developer/SDKs/MacOSX13.1.sdk/usr/include/c++/v1/__memory/shared_ptr.h:1484:0
	.cfi_startproc
; %bb.0:
	sub	sp, sp, #32
	stp	x29, x30, [sp, #16]             ; 16-byte Folded Spill
	add	x29, sp, #16
	.cfi_def_cfa w29, 16
	.cfi_offset w30, -8
	.cfi_offset w29, -16
	str	x0, [sp, #8]
	ldr	x0, [sp, #8]
	str	x0, [sp]                        ; 8-byte Folded Spill
Ltmp337:
	.loc	1 1484 1 prologue_end           ; /Applications/Xcode.app/Contents/Developer/Platforms/MacOSX.platform/Developer/SDKs/MacOSX13.1.sdk/usr/include/c++/v1/__memory/shared_ptr.h:1484:1
	bl	__ZNSt3__18weak_ptrI14LooperCallbackED2Ev
	ldr	x0, [sp]                        ; 8-byte Folded Reload
	.loc	1 1487 1                        ; /Applications/Xcode.app/Contents/Developer/Platforms/MacOSX.platform/Developer/SDKs/MacOSX13.1.sdk/usr/include/c++/v1/__memory/shared_ptr.h:1487:1
	ldp	x29, x30, [sp, #16]             ; 16-byte Folded Reload
	add	sp, sp, #32
	ret
Ltmp338:
Lfunc_end59:
	.cfi_endproc
                                        ; -- End function
	.globl	__ZNSt3__18weak_ptrI14LooperCallbackED2Ev ; -- Begin function _ZNSt3__18weak_ptrI14LooperCallbackED2Ev
	.weak_def_can_be_hidden	__ZNSt3__18weak_ptrI14LooperCallbackED2Ev
	.p2align	2
__ZNSt3__18weak_ptrI14LooperCallbackED2Ev: ; @_ZNSt3__18weak_ptrI14LooperCallbackED2Ev
Lfunc_begin60:
	.loc	1 1484 0                        ; /Applications/Xcode.app/Contents/Developer/Platforms/MacOSX.platform/Developer/SDKs/MacOSX13.1.sdk/usr/include/c++/v1/__memory/shared_ptr.h:1484:0
	.cfi_startproc
; %bb.0:
	sub	sp, sp, #48
	stp	x29, x30, [sp, #32]             ; 16-byte Folded Spill
	add	x29, sp, #32
	.cfi_def_cfa w29, 16
	.cfi_offset w30, -8
	.cfi_offset w29, -16
	str	x0, [sp, #16]
	ldr	x8, [sp, #16]
	str	x8, [sp, #8]                    ; 8-byte Folded Spill
	mov	x9, x8
	stur	x9, [x29, #-8]
Ltmp339:
	.loc	1 1485 9 prologue_end           ; /Applications/Xcode.app/Contents/Developer/Platforms/MacOSX.platform/Developer/SDKs/MacOSX13.1.sdk/usr/include/c++/v1/__memory/shared_ptr.h:1485:9
	ldr	x8, [x8, #8]
Ltmp340:
	.loc	1 1485 9 is_stmt 0              ; /Applications/Xcode.app/Contents/Developer/Platforms/MacOSX.platform/Developer/SDKs/MacOSX13.1.sdk/usr/include/c++/v1/__memory/shared_ptr.h:1485:9
	cbz	x8, LBB60_2
	b	LBB60_1
LBB60_1:
	.loc	1 0 9                           ; /Applications/Xcode.app/Contents/Developer/Platforms/MacOSX.platform/Developer/SDKs/MacOSX13.1.sdk/usr/include/c++/v1/__memory/shared_ptr.h:0:9
	ldr	x8, [sp, #8]                    ; 8-byte Folded Reload
Ltmp341:
	.loc	1 1486 9 is_stmt 1              ; /Applications/Xcode.app/Contents/Developer/Platforms/MacOSX.platform/Developer/SDKs/MacOSX13.1.sdk/usr/include/c++/v1/__memory/shared_ptr.h:1486:9
	ldr	x0, [x8, #8]
	.loc	1 1486 19 is_stmt 0             ; /Applications/Xcode.app/Contents/Developer/Platforms/MacOSX.platform/Developer/SDKs/MacOSX13.1.sdk/usr/include/c++/v1/__memory/shared_ptr.h:1486:19
	bl	__ZNSt3__119__shared_weak_count14__release_weakEv
	.loc	1 1486 9                        ; /Applications/Xcode.app/Contents/Developer/Platforms/MacOSX.platform/Developer/SDKs/MacOSX13.1.sdk/usr/include/c++/v1/__memory/shared_ptr.h:1486:9
	b	LBB60_2
Ltmp342:
LBB60_2:
	.loc	1 1487 1 is_stmt 1              ; /Applications/Xcode.app/Contents/Developer/Platforms/MacOSX.platform/Developer/SDKs/MacOSX13.1.sdk/usr/include/c++/v1/__memory/shared_ptr.h:1487:1
	ldur	x0, [x29, #-8]
	ldp	x29, x30, [sp, #32]             ; 16-byte Folded Reload
	add	sp, sp, #48
	ret
Ltmp343:
Lfunc_end60:
	.cfi_endproc
                                        ; -- End function
	.globl	__ZN3dbg11DebugOutputC2EPKciS2_ ; -- Begin function _ZN3dbg11DebugOutputC2EPKciS2_
	.weak_def_can_be_hidden	__ZN3dbg11DebugOutputC2EPKciS2_
	.p2align	2
__ZN3dbg11DebugOutputC2EPKciS2_:        ; @_ZN3dbg11DebugOutputC2EPKciS2_
Lfunc_begin61:
	.loc	51 716 0                        ; libframework/framework/include/framework/dbg.h:716:0
	.cfi_startproc
	.cfi_personality 155, ___gxx_personality_v0
	.cfi_lsda 16, Lexception8
; %bb.0:
	stp	x28, x27, [sp, #-32]!           ; 16-byte Folded Spill
	stp	x29, x30, [sp, #16]             ; 16-byte Folded Spill
	add	x29, sp, #16
	sub	sp, sp, #560
	.cfi_def_cfa w29, 16
	.cfi_offset w30, -8
	.cfi_offset w29, -16
	.cfi_offset w27, -24
	.cfi_offset w28, -32
	stur	x0, [x29, #-32]
	stur	x1, [x29, #-40]
	stur	w2, [x29, #-44]
	stur	x3, [x29, #-56]
	ldur	x8, [x29, #-32]
	str	x8, [sp, #104]                  ; 8-byte Folded Spill
	stur	x8, [x29, #-24]
Ltmp380:
	.loc	51 716 42 prologue_end          ; libframework/framework/include/framework/dbg.h:716:42
	bl	__ZN3dbg24isColorizedOutputEnabledEv
	ldr	x8, [sp, #104]                  ; 8-byte Folded Reload
	.loc	51 716 19 is_stmt 0             ; libframework/framework/include/framework/dbg.h:716:19
	and	w9, w0, #0x1
	strb	w9, [x8]
	.loc	51 715 9 is_stmt 1              ; libframework/framework/include/framework/dbg.h:715:9
	add	x0, x8, #8
	str	x0, [sp, #112]                  ; 8-byte Folded Spill
	bl	__ZNSt3__112basic_stringIcNS_11char_traitsIcEENS_9allocatorIcEEEC1Ev
Ltmp381:
	.loc	51 717 32                       ; libframework/framework/include/framework/dbg.h:717:32
	ldur	x1, [x29, #-40]
Ltmp344:
	sub	x0, x29, #80
	bl	__ZNSt3__112basic_stringIcNS_11char_traitsIcEENS_9allocatorIcEEEC1IDnEEPKc
Ltmp345:
	b	LBB61_1
LBB61_1:
	.loc	51 0 32 is_stmt 0               ; libframework/framework/include/framework/dbg.h:0:32
	sub	x0, x29, #80
	.loc	51 718 50 is_stmt 1             ; libframework/framework/include/framework/dbg.h:718:50
	bl	__ZNKSt3__112basic_stringIcNS_11char_traitsIcEENS_9allocatorIcEEE6lengthEv
	.loc	51 718 31 is_stmt 0             ; libframework/framework/include/framework/dbg.h:718:31
	stur	x0, [x29, #-104]
Ltmp382:
	.loc	51 719 17 is_stmt 1             ; libframework/framework/include/framework/dbg.h:719:17
	ldur	x8, [x29, #-104]
Ltmp383:
	.loc	51 719 17 is_stmt 0             ; libframework/framework/include/framework/dbg.h:719:17
	subs	x8, x8, #20
	b.ls	LBB61_8
	b	LBB61_2
LBB61_2:
Ltmp384:
	.loc	51 720 43 is_stmt 1             ; libframework/framework/include/framework/dbg.h:720:43
	ldur	x8, [x29, #-104]
	mov	x2, #20
	.loc	51 720 55 is_stmt 0             ; libframework/framework/include/framework/dbg.h:720:55
	subs	x1, x8, #20
Ltmp347:
	sub	x8, x29, #152
	sub	x0, x29, #80
	.loc	51 720 36                       ; libframework/framework/include/framework/dbg.h:720:36
	bl	__ZNKSt3__112basic_stringIcNS_11char_traitsIcEENS_9allocatorIcEEE6substrEmm
Ltmp348:
	b	LBB61_3
LBB61_3:
Ltmp349:
	.loc	51 0 36                         ; libframework/framework/include/framework/dbg.h:0:36
	sub	x8, x29, #128
	adrp	x0, l_.str.29@PAGE
	add	x0, x0, l_.str.29@PAGEOFF
	sub	x1, x29, #152
	.loc	51 720 29                       ; libframework/framework/include/framework/dbg.h:720:29
	bl	__ZNSt3__1plIcNS_11char_traitsIcEENS_9allocatorIcEEEENS_12basic_stringIT_T0_T1_EEPKS6_OS9_
Ltmp350:
	b	LBB61_4
LBB61_4:
	.loc	51 0 29                         ; libframework/framework/include/framework/dbg.h:0:29
	sub	x0, x29, #80
	sub	x1, x29, #128
	str	x1, [sp, #96]                   ; 8-byte Folded Spill
	.loc	51 720 22                       ; libframework/framework/include/framework/dbg.h:720:22
	bl	__ZNSt3__112basic_stringIcNS_11char_traitsIcEENS_9allocatorIcEEEaSEOS5_
	ldr	x0, [sp, #96]                   ; 8-byte Folded Reload
	.loc	51 720 17                       ; libframework/framework/include/framework/dbg.h:720:17
	bl	__ZNSt3__112basic_stringIcNS_11char_traitsIcEENS_9allocatorIcEEED1Ev
	sub	x0, x29, #152
	bl	__ZNSt3__112basic_stringIcNS_11char_traitsIcEENS_9allocatorIcEEED1Ev
	.loc	51 721 13 is_stmt 1             ; libframework/framework/include/framework/dbg.h:721:13
	b	LBB61_8
Ltmp385:
LBB61_5:
Ltmp346:
	.loc	51 726 9                        ; libframework/framework/include/framework/dbg.h:726:9
	mov	x8, x1
	stur	x0, [x29, #-88]
	stur	w8, [x29, #-92]
	b	LBB61_24
LBB61_6:
Ltmp354:
Ltmp386:
	.loc	51 726 9 is_stmt 0              ; libframework/framework/include/framework/dbg.h:726:9
	mov	x8, x1
	stur	x0, [x29, #-88]
	stur	w8, [x29, #-92]
	b	LBB61_23
LBB61_7:
Ltmp351:
	mov	x8, x1
	stur	x0, [x29, #-88]
	stur	w8, [x29, #-92]
	sub	x0, x29, #152
	.loc	51 720 17 is_stmt 1             ; libframework/framework/include/framework/dbg.h:720:17
	bl	__ZNSt3__112basic_stringIcNS_11char_traitsIcEENS_9allocatorIcEEED1Ev
	b	LBB61_23
Ltmp387:
LBB61_8:
Ltmp352:
	.loc	51 0 17 is_stmt 0               ; libframework/framework/include/framework/dbg.h:0:17
	add	x0, sp, #144
	.loc	51 722 31 is_stmt 1             ; libframework/framework/include/framework/dbg.h:722:31
	bl	__ZNSt3__118basic_stringstreamIcNS_11char_traitsIcEENS_9allocatorIcEEEC1Ev
Ltmp353:
	b	LBB61_9
LBB61_9:
	.loc	51 0 31 is_stmt 0               ; libframework/framework/include/framework/dbg.h:0:31
	ldr	x0, [sp, #104]                  ; 8-byte Folded Reload
	add	x8, sp, #144
	.loc	51 723 13 is_stmt 1             ; libframework/framework/include/framework/dbg.h:723:13
	add	x8, x8, #16
	str	x8, [sp, #80]                   ; 8-byte Folded Spill
Ltmp355:
	.loc	51 0 0 is_stmt 0                ; libframework/framework/include/framework/dbg.h:0:0
	adrp	x1, l_.str.30@PAGE
	add	x1, x1, l_.str.30@PAGEOFF
	.loc	51 723 19                       ; libframework/framework/include/framework/dbg.h:723:19
	bl	__ZNK3dbg11DebugOutput4ansiEPKc
	str	x0, [sp, #88]                   ; 8-byte Folded Spill
Ltmp356:
	b	LBB61_10
LBB61_10:
Ltmp357:
	.loc	51 0 19                         ; libframework/framework/include/framework/dbg.h:0:19
	ldr	x1, [sp, #88]                   ; 8-byte Folded Reload
	ldr	x0, [sp, #80]                   ; 8-byte Folded Reload
	.loc	51 723 16                       ; libframework/framework/include/framework/dbg.h:723:16
	bl	__ZNSt3__1lsINS_11char_traitsIcEEEERNS_13basic_ostreamIcT_EES6_PKc
	str	x0, [sp, #72]                   ; 8-byte Folded Spill
Ltmp358:
	b	LBB61_11
LBB61_11:
Ltmp359:
	.loc	51 0 16                         ; libframework/framework/include/framework/dbg.h:0:16
	ldr	x0, [sp, #72]                   ; 8-byte Folded Reload
	adrp	x1, l_.str.31@PAGE
	add	x1, x1, l_.str.31@PAGEOFF
	.loc	51 723 36                       ; libframework/framework/include/framework/dbg.h:723:36
	bl	__ZNSt3__1lsINS_11char_traitsIcEEEERNS_13basic_ostreamIcT_EES6_PKc
	str	x0, [sp, #64]                   ; 8-byte Folded Spill
Ltmp360:
	b	LBB61_12
LBB61_12:
Ltmp361:
	.loc	51 0 36                         ; libframework/framework/include/framework/dbg.h:0:36
	ldr	x0, [sp, #64]                   ; 8-byte Folded Reload
	sub	x1, x29, #80
	.loc	51 723 43                       ; libframework/framework/include/framework/dbg.h:723:43
	bl	__ZNSt3__1lsIcNS_11char_traitsIcEENS_9allocatorIcEEEERNS_13basic_ostreamIT_T0_EES9_RKNS_12basic_stringIS6_S7_T1_EE
	str	x0, [sp, #56]                   ; 8-byte Folded Spill
Ltmp362:
	b	LBB61_13
LBB61_13:
Ltmp363:
	.loc	51 0 43                         ; libframework/framework/include/framework/dbg.h:0:43
	ldr	x0, [sp, #56]                   ; 8-byte Folded Reload
	adrp	x1, l_.str.32@PAGE
	add	x1, x1, l_.str.32@PAGEOFF
	.loc	51 723 51                       ; libframework/framework/include/framework/dbg.h:723:51
	bl	__ZNSt3__1lsINS_11char_traitsIcEEEERNS_13basic_ostreamIcT_EES6_PKc
	str	x0, [sp, #48]                   ; 8-byte Folded Spill
Ltmp364:
	b	LBB61_14
LBB61_14:
	.loc	51 0 51                         ; libframework/framework/include/framework/dbg.h:0:51
	ldr	x0, [sp, #48]                   ; 8-byte Folded Reload
	.loc	51 723 61                       ; libframework/framework/include/framework/dbg.h:723:61
	ldur	w1, [x29, #-44]
Ltmp365:
	.loc	51 723 58                       ; libframework/framework/include/framework/dbg.h:723:58
	bl	__ZNSt3__113basic_ostreamIcNS_11char_traitsIcEEElsEi
	str	x0, [sp, #40]                   ; 8-byte Folded Spill
Ltmp366:
	b	LBB61_15
LBB61_15:
Ltmp367:
	.loc	51 0 58                         ; libframework/framework/include/framework/dbg.h:0:58
	ldr	x0, [sp, #40]                   ; 8-byte Folded Reload
	adrp	x1, l_.str.33@PAGE
	add	x1, x1, l_.str.33@PAGEOFF
	.loc	51 723 66                       ; libframework/framework/include/framework/dbg.h:723:66
	bl	__ZNSt3__1lsINS_11char_traitsIcEEEERNS_13basic_ostreamIcT_EES6_PKc
	str	x0, [sp, #32]                   ; 8-byte Folded Spill
Ltmp368:
	b	LBB61_16
LBB61_16:
	.loc	51 0 66                         ; libframework/framework/include/framework/dbg.h:0:66
	ldr	x0, [sp, #32]                   ; 8-byte Folded Reload
	.loc	51 724 19 is_stmt 1             ; libframework/framework/include/framework/dbg.h:724:19
	ldur	x1, [x29, #-56]
Ltmp369:
	.loc	51 724 16 is_stmt 0             ; libframework/framework/include/framework/dbg.h:724:16
	bl	__ZNSt3__1lsINS_11char_traitsIcEEEERNS_13basic_ostreamIcT_EES6_PKc
	str	x0, [sp, #24]                   ; 8-byte Folded Spill
Ltmp370:
	b	LBB61_17
LBB61_17:
Ltmp371:
	.loc	51 0 16                         ; libframework/framework/include/framework/dbg.h:0:16
	ldr	x0, [sp, #24]                   ; 8-byte Folded Reload
	adrp	x1, l_.str.34@PAGE
	add	x1, x1, l_.str.34@PAGEOFF
	.loc	51 724 33                       ; libframework/framework/include/framework/dbg.h:724:33
	bl	__ZNSt3__1lsINS_11char_traitsIcEEEERNS_13basic_ostreamIcT_EES6_PKc
	str	x0, [sp, #16]                   ; 8-byte Folded Spill
Ltmp372:
	b	LBB61_18
LBB61_18:
Ltmp373:
	.loc	51 0 33                         ; libframework/framework/include/framework/dbg.h:0:33
	ldr	x0, [sp, #104]                  ; 8-byte Folded Reload
	adrp	x1, l_.str.35@PAGE
	add	x1, x1, l_.str.35@PAGEOFF
	.loc	51 724 45                       ; libframework/framework/include/framework/dbg.h:724:45
	bl	__ZNK3dbg11DebugOutput4ansiEPKc
	str	x0, [sp, #8]                    ; 8-byte Folded Spill
Ltmp374:
	b	LBB61_19
LBB61_19:
Ltmp375:
	.loc	51 0 45                         ; libframework/framework/include/framework/dbg.h:0:45
	ldr	x1, [sp, #8]                    ; 8-byte Folded Reload
	ldr	x0, [sp, #16]                   ; 8-byte Folded Reload
	.loc	51 724 42                       ; libframework/framework/include/framework/dbg.h:724:42
	bl	__ZNSt3__1lsINS_11char_traitsIcEEEERNS_13basic_ostreamIcT_EES6_PKc
Ltmp376:
	b	LBB61_20
LBB61_20:
Ltmp377:
	.loc	51 0 42                         ; libframework/framework/include/framework/dbg.h:0:42
	add	x8, sp, #120
	add	x0, sp, #144
	.loc	51 725 29 is_stmt 1             ; libframework/framework/include/framework/dbg.h:725:29
	bl	__ZNKSt3__118basic_stringstreamIcNS_11char_traitsIcEENS_9allocatorIcEEE3strEv
Ltmp378:
	b	LBB61_21
LBB61_21:
	.loc	51 0 29 is_stmt 0               ; libframework/framework/include/framework/dbg.h:0:29
	ldr	x8, [sp, #104]                  ; 8-byte Folded Reload
	.loc	51 725 13                       ; libframework/framework/include/framework/dbg.h:725:13
	add	x0, x8, #8
	add	x1, sp, #120
	str	x1, [sp]                        ; 8-byte Folded Spill
	.loc	51 725 24                       ; libframework/framework/include/framework/dbg.h:725:24
	bl	__ZNSt3__112basic_stringIcNS_11char_traitsIcEENS_9allocatorIcEEEaSEOS5_
	ldr	x0, [sp]                        ; 8-byte Folded Reload
	.loc	51 725 13                       ; libframework/framework/include/framework/dbg.h:725:13
	bl	__ZNSt3__112basic_stringIcNS_11char_traitsIcEENS_9allocatorIcEEED1Ev
	add	x0, sp, #144
Ltmp388:
	.loc	51 726 9 is_stmt 1              ; libframework/framework/include/framework/dbg.h:726:9
	bl	__ZNSt3__118basic_stringstreamIcNS_11char_traitsIcEENS_9allocatorIcEEED1Ev
	sub	x0, x29, #80
	bl	__ZNSt3__112basic_stringIcNS_11char_traitsIcEENS_9allocatorIcEEED1Ev
	ldur	x0, [x29, #-24]
	add	sp, sp, #560
	ldp	x29, x30, [sp, #16]             ; 16-byte Folded Reload
	ldp	x28, x27, [sp], #32             ; 16-byte Folded Reload
	ret
LBB61_22:
Ltmp379:
Ltmp389:
	.loc	51 726 9 is_stmt 0              ; libframework/framework/include/framework/dbg.h:726:9
	mov	x8, x1
	stur	x0, [x29, #-88]
	stur	w8, [x29, #-92]
	add	x0, sp, #144
Ltmp390:
	.loc	51 726 9                        ; libframework/framework/include/framework/dbg.h:726:9
	bl	__ZNSt3__118basic_stringstreamIcNS_11char_traitsIcEENS_9allocatorIcEEED1Ev
	b	LBB61_23
LBB61_23:
	.loc	51 0 9                          ; libframework/framework/include/framework/dbg.h:0:9
	sub	x0, x29, #80
	.loc	51 726 9                        ; libframework/framework/include/framework/dbg.h:726:9
	bl	__ZNSt3__112basic_stringIcNS_11char_traitsIcEENS_9allocatorIcEEED1Ev
	b	LBB61_24
LBB61_24:
	.loc	51 0 9                          ; libframework/framework/include/framework/dbg.h:0:9
	ldr	x0, [sp, #112]                  ; 8-byte Folded Reload
Ltmp391:
	.loc	51 726 9                        ; libframework/framework/include/framework/dbg.h:726:9
	bl	__ZNSt3__112basic_stringIcNS_11char_traitsIcEENS_9allocatorIcEEED1Ev
	b	LBB61_25
LBB61_25:
	ldur	x0, [x29, #-88]
	bl	__Unwind_Resume
Ltmp392:
Lfunc_end61:
	.cfi_endproc
	.section	__TEXT,__gcc_except_tab
	.p2align	2
GCC_except_table61:
Lexception8:
	.byte	255                             ; @LPStart Encoding = omit
	.byte	255                             ; @TType Encoding = omit
	.byte	1                               ; Call site Encoding = uleb128
	.uleb128 Lcst_end8-Lcst_begin8
Lcst_begin8:
	.uleb128 Lfunc_begin61-Lfunc_begin61    ; >> Call Site 1 <<
	.uleb128 Ltmp344-Lfunc_begin61          ;   Call between Lfunc_begin61 and Ltmp344
	.byte	0                               ;     has no landing pad
	.byte	0                               ;   On action: cleanup
	.uleb128 Ltmp344-Lfunc_begin61          ; >> Call Site 2 <<
	.uleb128 Ltmp345-Ltmp344                ;   Call between Ltmp344 and Ltmp345
	.uleb128 Ltmp346-Lfunc_begin61          ;     jumps to Ltmp346
	.byte	0                               ;   On action: cleanup
	.uleb128 Ltmp347-Lfunc_begin61          ; >> Call Site 3 <<
	.uleb128 Ltmp348-Ltmp347                ;   Call between Ltmp347 and Ltmp348
	.uleb128 Ltmp354-Lfunc_begin61          ;     jumps to Ltmp354
	.byte	0                               ;   On action: cleanup
	.uleb128 Ltmp349-Lfunc_begin61          ; >> Call Site 4 <<
	.uleb128 Ltmp350-Ltmp349                ;   Call between Ltmp349 and Ltmp350
	.uleb128 Ltmp351-Lfunc_begin61          ;     jumps to Ltmp351
	.byte	0                               ;   On action: cleanup
	.uleb128 Ltmp352-Lfunc_begin61          ; >> Call Site 5 <<
	.uleb128 Ltmp353-Ltmp352                ;   Call between Ltmp352 and Ltmp353
	.uleb128 Ltmp354-Lfunc_begin61          ;     jumps to Ltmp354
	.byte	0                               ;   On action: cleanup
	.uleb128 Ltmp355-Lfunc_begin61          ; >> Call Site 6 <<
	.uleb128 Ltmp378-Ltmp355                ;   Call between Ltmp355 and Ltmp378
	.uleb128 Ltmp379-Lfunc_begin61          ;     jumps to Ltmp379
	.byte	0                               ;   On action: cleanup
	.uleb128 Ltmp378-Lfunc_begin61          ; >> Call Site 7 <<
	.uleb128 Lfunc_end61-Ltmp378            ;   Call between Ltmp378 and Lfunc_end61
	.byte	0                               ;     has no landing pad
	.byte	0                               ;   On action: cleanup
Lcst_end8:
	.p2align	2
                                        ; -- End function
	.section	__TEXT,__text,regular,pure_instructions
	.globl	__ZN3dbg24isColorizedOutputEnabledEv ; -- Begin function _ZN3dbg24isColorizedOutputEnabledEv
	.weak_definition	__ZN3dbg24isColorizedOutputEnabledEv
	.p2align	2
__ZN3dbg24isColorizedOutputEnabledEv:   ; @_ZN3dbg24isColorizedOutputEnabledEv
Lfunc_begin62:
	.loc	51 75 0 is_stmt 1               ; libframework/framework/include/framework/dbg.h:75:0
	.cfi_startproc
; %bb.0:
	stp	x29, x30, [sp, #-16]!           ; 16-byte Folded Spill
	mov	x29, sp
	.cfi_def_cfa w29, 16
	.cfi_offset w30, -8
	.cfi_offset w29, -16
Ltmp393:
	.loc	51 0 0 is_stmt 0                ; libframework/framework/include/framework/dbg.h:0:0
	adrp	x8, ___stderrp@GOTPAGE
	ldr	x8, [x8, ___stderrp@GOTPAGEOFF]
	.loc	51 75 67 prologue_end is_stmt 1 ; libframework/framework/include/framework/dbg.h:75:67
	ldr	x0, [x8]
	.loc	51 75 60 is_stmt 0              ; libframework/framework/include/framework/dbg.h:75:60
	bl	_fileno
	.loc	51 75 53                        ; libframework/framework/include/framework/dbg.h:75:53
	bl	_isatty
	subs	w8, w0, #0
	cset	w8, ne
	.loc	51 75 46                        ; libframework/framework/include/framework/dbg.h:75:46
	and	w0, w8, #0x1
	ldp	x29, x30, [sp], #16             ; 16-byte Folded Reload
	ret
Ltmp394:
Lfunc_end62:
	.cfi_endproc
                                        ; -- End function
	.p2align	2                               ; -- Begin function _ZNSt3__112basic_stringIcNS_11char_traitsIcEENS_9allocatorIcEEEC1Ev
__ZNSt3__112basic_stringIcNS_11char_traitsIcEENS_9allocatorIcEEEC1Ev: ; @_ZNSt3__112basic_stringIcNS_11char_traitsIcEENS_9allocatorIcEEEC1Ev
Lfunc_begin63:
	.loc	37 1860 0 is_stmt 1             ; /Applications/Xcode.app/Contents/Developer/Platforms/MacOSX.platform/Developer/SDKs/MacOSX13.1.sdk/usr/include/c++/v1/string:1860:0
	.cfi_startproc
; %bb.0:
	sub	sp, sp, #32
	stp	x29, x30, [sp, #16]             ; 16-byte Folded Spill
	add	x29, sp, #16
	.cfi_def_cfa w29, 16
	.cfi_offset w30, -8
	.cfi_offset w29, -16
	str	x0, [sp, #8]
	ldr	x0, [sp, #8]
	str	x0, [sp]                        ; 8-byte Folded Spill
Ltmp395:
	.loc	37 1860 1 prologue_end          ; /Applications/Xcode.app/Contents/Developer/Platforms/MacOSX.platform/Developer/SDKs/MacOSX13.1.sdk/usr/include/c++/v1/string:1860:1
	bl	__ZNSt3__112basic_stringIcNS_11char_traitsIcEENS_9allocatorIcEEEC2Ev
	ldr	x0, [sp]                        ; 8-byte Folded Reload
	.loc	37 1865 1                       ; /Applications/Xcode.app/Contents/Developer/Platforms/MacOSX.platform/Developer/SDKs/MacOSX13.1.sdk/usr/include/c++/v1/string:1865:1
	ldp	x29, x30, [sp, #16]             ; 16-byte Folded Reload
	add	sp, sp, #32
	ret
Ltmp396:
Lfunc_end63:
	.cfi_endproc
                                        ; -- End function
	.p2align	2                               ; -- Begin function _ZNKSt3__112basic_stringIcNS_11char_traitsIcEENS_9allocatorIcEEE6lengthEv
__ZNKSt3__112basic_stringIcNS_11char_traitsIcEENS_9allocatorIcEEE6lengthEv: ; @_ZNKSt3__112basic_stringIcNS_11char_traitsIcEENS_9allocatorIcEEE6lengthEv
Lfunc_begin64:
	.loc	37 979 0                        ; /Applications/Xcode.app/Contents/Developer/Platforms/MacOSX.platform/Developer/SDKs/MacOSX13.1.sdk/usr/include/c++/v1/string:979:0
	.cfi_startproc
; %bb.0:
	sub	sp, sp, #32
	stp	x29, x30, [sp, #16]             ; 16-byte Folded Spill
	add	x29, sp, #16
	.cfi_def_cfa w29, 16
	.cfi_offset w30, -8
	.cfi_offset w29, -16
	str	x0, [sp, #8]
	ldr	x0, [sp, #8]
Ltmp397:
	.loc	37 979 125 prologue_end         ; /Applications/Xcode.app/Contents/Developer/Platforms/MacOSX.platform/Developer/SDKs/MacOSX13.1.sdk/usr/include/c++/v1/string:979:125
	bl	__ZNKSt3__112basic_stringIcNS_11char_traitsIcEENS_9allocatorIcEEE4sizeEv
	.loc	37 979 118 is_stmt 0            ; /Applications/Xcode.app/Contents/Developer/Platforms/MacOSX.platform/Developer/SDKs/MacOSX13.1.sdk/usr/include/c++/v1/string:979:118
	ldp	x29, x30, [sp, #16]             ; 16-byte Folded Reload
	add	sp, sp, #32
	ret
Ltmp398:
Lfunc_end64:
	.cfi_endproc
                                        ; -- End function
	.p2align	2                               ; -- Begin function _ZNSt3__1plIcNS_11char_traitsIcEENS_9allocatorIcEEEENS_12basic_stringIT_T0_T1_EEPKS6_OS9_
__ZNSt3__1plIcNS_11char_traitsIcEENS_9allocatorIcEEEENS_12basic_stringIT_T0_T1_EEPKS6_OS9_: ; @_ZNSt3__1plIcNS_11char_traitsIcEENS_9allocatorIcEEEENS_12basic_stringIT_T0_T1_EEPKS6_OS9_
Lfunc_begin65:
	.loc	37 4362 0 is_stmt 1             ; /Applications/Xcode.app/Contents/Developer/Platforms/MacOSX.platform/Developer/SDKs/MacOSX13.1.sdk/usr/include/c++/v1/string:4362:0
	.cfi_startproc
; %bb.0:
	sub	sp, sp, #48
	stp	x29, x30, [sp, #32]             ; 16-byte Folded Spill
	add	x29, sp, #32
	.cfi_def_cfa w29, 16
	.cfi_offset w30, -8
	.cfi_offset w29, -16
	str	x8, [sp]                        ; 8-byte Folded Spill
	stur	x8, [x29, #-8]
	str	x0, [sp, #16]
	str	x1, [sp, #8]
Ltmp399:
	.loc	37 4363 27 prologue_end         ; /Applications/Xcode.app/Contents/Developer/Platforms/MacOSX.platform/Developer/SDKs/MacOSX13.1.sdk/usr/include/c++/v1/string:4363:27
	ldr	x0, [sp, #8]
	.loc	37 4363 43 is_stmt 0            ; /Applications/Xcode.app/Contents/Developer/Platforms/MacOSX.platform/Developer/SDKs/MacOSX13.1.sdk/usr/include/c++/v1/string:4363:43
	ldr	x2, [sp, #16]
	mov	x1, #0
	.loc	37 4363 33                      ; /Applications/Xcode.app/Contents/Developer/Platforms/MacOSX.platform/Developer/SDKs/MacOSX13.1.sdk/usr/include/c++/v1/string:4363:33
	bl	__ZNSt3__112basic_stringIcNS_11char_traitsIcEENS_9allocatorIcEEE6insertEmPKc
	.loc	37 4363 12                      ; /Applications/Xcode.app/Contents/Developer/Platforms/MacOSX.platform/Developer/SDKs/MacOSX13.1.sdk/usr/include/c++/v1/string:4363:12
	bl	__ZNSt3__1L4moveIRNS_12basic_stringIcNS_11char_traitsIcEENS_9allocatorIcEEEEEEONS_16remove_referenceIT_E4typeEOS9_
	mov	x1, x0
	ldr	x0, [sp]                        ; 8-byte Folded Reload
	bl	__ZNSt3__112basic_stringIcNS_11char_traitsIcEENS_9allocatorIcEEEC1EOS5_
	.loc	37 4363 5                       ; /Applications/Xcode.app/Contents/Developer/Platforms/MacOSX.platform/Developer/SDKs/MacOSX13.1.sdk/usr/include/c++/v1/string:4363:5
	ldp	x29, x30, [sp, #32]             ; 16-byte Folded Reload
	add	sp, sp, #48
	ret
Ltmp400:
Lfunc_end65:
	.cfi_endproc
                                        ; -- End function
	.p2align	2                               ; -- Begin function _ZNKSt3__112basic_stringIcNS_11char_traitsIcEENS_9allocatorIcEEE6substrEmm
__ZNKSt3__112basic_stringIcNS_11char_traitsIcEENS_9allocatorIcEEE6substrEmm: ; @_ZNKSt3__112basic_stringIcNS_11char_traitsIcEENS_9allocatorIcEEE6substrEmm
Lfunc_begin66:
	.loc	37 3516 0 is_stmt 1             ; /Applications/Xcode.app/Contents/Developer/Platforms/MacOSX.platform/Developer/SDKs/MacOSX13.1.sdk/usr/include/c++/v1/string:3516:0
	.cfi_startproc
; %bb.0:
	sub	sp, sp, #80
	stp	x29, x30, [sp, #64]             ; 16-byte Folded Spill
	add	x29, sp, #64
	.cfi_def_cfa w29, 16
	.cfi_offset w30, -8
	.cfi_offset w29, -16
	str	x8, [sp, #24]                   ; 8-byte Folded Spill
	stur	x8, [x29, #-8]
	stur	x0, [x29, #-16]
	stur	x1, [x29, #-24]
	str	x2, [sp, #32]
	ldur	x0, [x29, #-16]
	str	x0, [sp]                        ; 8-byte Folded Spill
Ltmp401:
	.loc	37 3517 32 prologue_end         ; /Applications/Xcode.app/Contents/Developer/Platforms/MacOSX.platform/Developer/SDKs/MacOSX13.1.sdk/usr/include/c++/v1/string:3517:32
	ldur	x8, [x29, #-24]
	str	x8, [sp, #8]                    ; 8-byte Folded Spill
	.loc	37 3517 39 is_stmt 0            ; /Applications/Xcode.app/Contents/Developer/Platforms/MacOSX.platform/Developer/SDKs/MacOSX13.1.sdk/usr/include/c++/v1/string:3517:39
	ldr	x8, [sp, #32]
	str	x8, [sp, #16]                   ; 8-byte Folded Spill
	.loc	37 3517 44                      ; /Applications/Xcode.app/Contents/Developer/Platforms/MacOSX.platform/Developer/SDKs/MacOSX13.1.sdk/usr/include/c++/v1/string:3517:44
	bl	__ZNKSt3__112basic_stringIcNS_11char_traitsIcEENS_9allocatorIcEEE7__allocEv
	ldr	x1, [sp]                        ; 8-byte Folded Reload
	ldr	x2, [sp, #8]                    ; 8-byte Folded Reload
	ldr	x3, [sp, #16]                   ; 8-byte Folded Reload
	mov	x4, x0
	ldr	x0, [sp, #24]                   ; 8-byte Folded Reload
	.loc	37 3517 12                      ; /Applications/Xcode.app/Contents/Developer/Platforms/MacOSX.platform/Developer/SDKs/MacOSX13.1.sdk/usr/include/c++/v1/string:3517:12
	bl	__ZNSt3__112basic_stringIcNS_11char_traitsIcEENS_9allocatorIcEEEC1ERKS5_mmRKS4_
	.loc	37 3517 5                       ; /Applications/Xcode.app/Contents/Developer/Platforms/MacOSX.platform/Developer/SDKs/MacOSX13.1.sdk/usr/include/c++/v1/string:3517:5
	ldp	x29, x30, [sp, #64]             ; 16-byte Folded Reload
	add	sp, sp, #80
	ret
Ltmp402:
Lfunc_end66:
	.cfi_endproc
                                        ; -- End function
	.p2align	2                               ; -- Begin function _ZNSt3__112basic_stringIcNS_11char_traitsIcEENS_9allocatorIcEEEaSEOS5_
__ZNSt3__112basic_stringIcNS_11char_traitsIcEENS_9allocatorIcEEEaSEOS5_: ; @_ZNSt3__112basic_stringIcNS_11char_traitsIcEENS_9allocatorIcEEEaSEOS5_
Lfunc_begin67:
	.loc	37 2519 0 is_stmt 1             ; /Applications/Xcode.app/Contents/Developer/Platforms/MacOSX.platform/Developer/SDKs/MacOSX13.1.sdk/usr/include/c++/v1/string:2519:0
	.cfi_startproc
; %bb.0:
	sub	sp, sp, #48
	stp	x29, x30, [sp, #32]             ; 16-byte Folded Spill
	add	x29, sp, #32
	.cfi_def_cfa w29, 16
	.cfi_offset w30, -8
	.cfi_offset w29, -16
	stur	x0, [x29, #-8]
	str	x1, [sp, #16]
	ldur	x0, [x29, #-8]
	str	x0, [sp]                        ; 8-byte Folded Spill
Ltmp403:
	.loc	37 2520 19 prologue_end         ; /Applications/Xcode.app/Contents/Developer/Platforms/MacOSX.platform/Developer/SDKs/MacOSX13.1.sdk/usr/include/c++/v1/string:2520:19
	ldr	x1, [sp, #16]
	.loc	37 2520 5 is_stmt 0             ; /Applications/Xcode.app/Contents/Developer/Platforms/MacOSX.platform/Developer/SDKs/MacOSX13.1.sdk/usr/include/c++/v1/string:2520:5
	bl	__ZNSt3__112basic_stringIcNS_11char_traitsIcEENS_9allocatorIcEEE13__move_assignERS5_NS_17integral_constantIbLb1EEE
	ldr	x0, [sp]                        ; 8-byte Folded Reload
	.loc	37 2522 5 is_stmt 1             ; /Applications/Xcode.app/Contents/Developer/Platforms/MacOSX.platform/Developer/SDKs/MacOSX13.1.sdk/usr/include/c++/v1/string:2522:5
	ldp	x29, x30, [sp, #32]             ; 16-byte Folded Reload
	add	sp, sp, #48
	ret
Ltmp404:
Lfunc_end67:
	.cfi_endproc
                                        ; -- End function
	.p2align	2                               ; -- Begin function _ZNSt3__118basic_stringstreamIcNS_11char_traitsIcEENS_9allocatorIcEEEC1Ev
__ZNSt3__118basic_stringstreamIcNS_11char_traitsIcEENS_9allocatorIcEEEC1Ev: ; @_ZNSt3__118basic_stringstreamIcNS_11char_traitsIcEENS_9allocatorIcEEEC1Ev
Lfunc_begin68:
	.file	103 "/Applications/Xcode.app/Contents/Developer/Platforms/MacOSX.platform/Developer/SDKs/MacOSX13.1.sdk/usr/include/c++/v1" "sstream"
	.loc	103 803 0                       ; /Applications/Xcode.app/Contents/Developer/Platforms/MacOSX.platform/Developer/SDKs/MacOSX13.1.sdk/usr/include/c++/v1/sstream:803:0
	.cfi_startproc
	.cfi_personality 155, ___gxx_personality_v0
	.cfi_lsda 16, Lexception9
; %bb.0:
	sub	sp, sp, #80
	stp	x29, x30, [sp, #64]             ; 16-byte Folded Spill
	add	x29, sp, #64
	.cfi_def_cfa w29, 16
	.cfi_offset w30, -8
	.cfi_offset w29, -16
Ltmp411:
	.loc	103 0 0 is_stmt 0               ; /Applications/Xcode.app/Contents/Developer/Platforms/MacOSX.platform/Developer/SDKs/MacOSX13.1.sdk/usr/include/c++/v1/sstream:0:0
	adrp	x8, __ZTVNSt3__118basic_stringstreamIcNS_11char_traitsIcEENS_9allocatorIcEEEE@GOTPAGE
	ldr	x8, [x8, __ZTVNSt3__118basic_stringstreamIcNS_11char_traitsIcEENS_9allocatorIcEEEE@GOTPAGEOFF]
	add	x9, x8, #24
	str	x9, [sp]                        ; 8-byte Folded Spill
	add	x9, x8, #104
	str	x9, [sp, #8]                    ; 8-byte Folded Spill
	add	x8, x8, #64
	str	x8, [sp, #16]                   ; 8-byte Folded Spill
	adrp	x8, __ZTTNSt3__118basic_stringstreamIcNS_11char_traitsIcEENS_9allocatorIcEEEE@GOTPAGE
	ldr	x8, [x8, __ZTTNSt3__118basic_stringstreamIcNS_11char_traitsIcEENS_9allocatorIcEEEE@GOTPAGEOFF]
	add	x8, x8, #8
	str	x8, [sp, #24]                   ; 8-byte Folded Spill
	stur	x0, [x29, #-8]
	ldur	x8, [x29, #-8]
	str	x8, [sp, #32]                   ; 8-byte Folded Spill
	.loc	103 803 88 prologue_end is_stmt 1 ; /Applications/Xcode.app/Contents/Developer/Platforms/MacOSX.platform/Developer/SDKs/MacOSX13.1.sdk/usr/include/c++/v1/sstream:803:88
	add	x0, x8, #128
	.loc	103 802 5                       ; /Applications/Xcode.app/Contents/Developer/Platforms/MacOSX.platform/Developer/SDKs/MacOSX13.1.sdk/usr/include/c++/v1/sstream:802:5
	bl	__ZNSt3__19basic_iosIcNS_11char_traitsIcEEEC2Ev
	ldr	x11, [sp]                       ; 8-byte Folded Reload
	ldr	x10, [sp, #8]                   ; 8-byte Folded Reload
	ldr	x9, [sp, #16]                   ; 8-byte Folded Reload
	ldr	x1, [sp, #24]                   ; 8-byte Folded Reload
	ldr	x8, [sp, #32]                   ; 8-byte Folded Reload
	.loc	103 803 88                      ; /Applications/Xcode.app/Contents/Developer/Platforms/MacOSX.platform/Developer/SDKs/MacOSX13.1.sdk/usr/include/c++/v1/sstream:803:88
	str	x11, [x8]
	str	x10, [x8, #128]
	str	x9, [x8, #16]
Ltmp405:
	.loc	103 803 11 is_stmt 0            ; /Applications/Xcode.app/Contents/Developer/Platforms/MacOSX.platform/Developer/SDKs/MacOSX13.1.sdk/usr/include/c++/v1/sstream:803:11
	mov	x0, x8
	.loc	103 803 44                      ; /Applications/Xcode.app/Contents/Developer/Platforms/MacOSX.platform/Developer/SDKs/MacOSX13.1.sdk/usr/include/c++/v1/sstream:803:44
	add	x2, x8, #24
	.loc	103 803 11                      ; /Applications/Xcode.app/Contents/Developer/Platforms/MacOSX.platform/Developer/SDKs/MacOSX13.1.sdk/usr/include/c++/v1/sstream:803:11
	bl	__ZNSt3__114basic_iostreamIcNS_11char_traitsIcEEEC2EPNS_15basic_streambufIcS2_EE
Ltmp406:
	b	LBB68_1
LBB68_1:
	.loc	103 0 11                        ; /Applications/Xcode.app/Contents/Developer/Platforms/MacOSX.platform/Developer/SDKs/MacOSX13.1.sdk/usr/include/c++/v1/sstream:0:11
	ldr	x8, [sp, #32]                   ; 8-byte Folded Reload
	ldr	x9, [sp, #16]                   ; 8-byte Folded Reload
	ldr	x10, [sp, #8]                   ; 8-byte Folded Reload
	ldr	x11, [sp]                       ; 8-byte Folded Reload
	.loc	103 803 88                      ; /Applications/Xcode.app/Contents/Developer/Platforms/MacOSX.platform/Developer/SDKs/MacOSX13.1.sdk/usr/include/c++/v1/sstream:803:88
	str	x11, [x8]
	str	x10, [x8, #128]
	str	x9, [x8, #16]
	.loc	103 803 52                      ; /Applications/Xcode.app/Contents/Developer/Platforms/MacOSX.platform/Developer/SDKs/MacOSX13.1.sdk/usr/include/c++/v1/sstream:803:52
	add	x0, x8, #24
Ltmp408:
	mov	w1, #24
	bl	__ZNSt3__115basic_stringbufIcNS_11char_traitsIcEENS_9allocatorIcEEEC1Ej
Ltmp409:
	b	LBB68_2
LBB68_2:
	.loc	103 0 52                        ; /Applications/Xcode.app/Contents/Developer/Platforms/MacOSX.platform/Developer/SDKs/MacOSX13.1.sdk/usr/include/c++/v1/sstream:0:52
	ldr	x0, [sp, #32]                   ; 8-byte Folded Reload
	.loc	103 803 89                      ; /Applications/Xcode.app/Contents/Developer/Platforms/MacOSX.platform/Developer/SDKs/MacOSX13.1.sdk/usr/include/c++/v1/sstream:803:89
	ldp	x29, x30, [sp, #64]             ; 16-byte Folded Reload
	add	sp, sp, #80
	ret
LBB68_3:
Ltmp407:
	mov	x8, x1
	stur	x0, [x29, #-16]
	stur	w8, [x29, #-20]
	b	LBB68_5
LBB68_4:
Ltmp410:
	mov	x9, x0
	ldr	x0, [sp, #32]                   ; 8-byte Folded Reload
	mov	x8, x1
	ldr	x1, [sp, #24]                   ; 8-byte Folded Reload
                                        ; kill: def $w8 killed $w8 killed $x8
	stur	x9, [x29, #-16]
	stur	w8, [x29, #-20]
Ltmp412:
	.loc	103 803 89                      ; /Applications/Xcode.app/Contents/Developer/Platforms/MacOSX.platform/Developer/SDKs/MacOSX13.1.sdk/usr/include/c++/v1/sstream:803:89
	bl	__ZNSt3__114basic_iostreamIcNS_11char_traitsIcEEED2Ev
	b	LBB68_5
LBB68_5:
	.loc	103 0 89                        ; /Applications/Xcode.app/Contents/Developer/Platforms/MacOSX.platform/Developer/SDKs/MacOSX13.1.sdk/usr/include/c++/v1/sstream:0:89
	ldr	x8, [sp, #32]                   ; 8-byte Folded Reload
	.loc	103 803 89                      ; /Applications/Xcode.app/Contents/Developer/Platforms/MacOSX.platform/Developer/SDKs/MacOSX13.1.sdk/usr/include/c++/v1/sstream:803:89
	add	x0, x8, #128
	bl	__ZNSt3__19basic_iosIcNS_11char_traitsIcEEED2Ev
	b	LBB68_6
LBB68_6:
	ldur	x0, [x29, #-16]
	bl	__Unwind_Resume
Ltmp413:
Lfunc_end68:
	.cfi_endproc
	.file	104 "/Applications/Xcode.app/Contents/Developer/Platforms/MacOSX.platform/Developer/SDKs/MacOSX13.1.sdk/usr/include/c++/v1" "istream"
	.section	__TEXT,__gcc_except_tab
	.p2align	2
GCC_except_table68:
Lexception9:
	.byte	255                             ; @LPStart Encoding = omit
	.byte	255                             ; @TType Encoding = omit
	.byte	1                               ; Call site Encoding = uleb128
	.uleb128 Lcst_end9-Lcst_begin9
Lcst_begin9:
	.uleb128 Lfunc_begin68-Lfunc_begin68    ; >> Call Site 1 <<
	.uleb128 Ltmp405-Lfunc_begin68          ;   Call between Lfunc_begin68 and Ltmp405
	.byte	0                               ;     has no landing pad
	.byte	0                               ;   On action: cleanup
	.uleb128 Ltmp405-Lfunc_begin68          ; >> Call Site 2 <<
	.uleb128 Ltmp406-Ltmp405                ;   Call between Ltmp405 and Ltmp406
	.uleb128 Ltmp407-Lfunc_begin68          ;     jumps to Ltmp407
	.byte	0                               ;   On action: cleanup
	.uleb128 Ltmp408-Lfunc_begin68          ; >> Call Site 3 <<
	.uleb128 Ltmp409-Ltmp408                ;   Call between Ltmp408 and Ltmp409
	.uleb128 Ltmp410-Lfunc_begin68          ;     jumps to Ltmp410
	.byte	0                               ;   On action: cleanup
	.uleb128 Ltmp409-Lfunc_begin68          ; >> Call Site 4 <<
	.uleb128 Lfunc_end68-Ltmp409            ;   Call between Ltmp409 and Lfunc_end68
	.byte	0                               ;     has no landing pad
	.byte	0                               ;   On action: cleanup
Lcst_end9:
	.p2align	2
                                        ; -- End function
	.section	__TEXT,__text,regular,pure_instructions
	.globl	__ZNSt3__1lsIcNS_11char_traitsIcEENS_9allocatorIcEEEERNS_13basic_ostreamIT_T0_EES9_RKNS_12basic_stringIS6_S7_T1_EE ; -- Begin function _ZNSt3__1lsIcNS_11char_traitsIcEENS_9allocatorIcEEEERNS_13basic_ostreamIT_T0_EES9_RKNS_12basic_stringIS6_S7_T1_EE
	.weak_definition	__ZNSt3__1lsIcNS_11char_traitsIcEENS_9allocatorIcEEEERNS_13basic_ostreamIT_T0_EES9_RKNS_12basic_stringIS6_S7_T1_EE
	.p2align	2
__ZNSt3__1lsIcNS_11char_traitsIcEENS_9allocatorIcEEEERNS_13basic_ostreamIT_T0_EES9_RKNS_12basic_stringIS6_S7_T1_EE: ; @_ZNSt3__1lsIcNS_11char_traitsIcEENS_9allocatorIcEEEERNS_13basic_ostreamIT_T0_EES9_RKNS_12basic_stringIS6_S7_T1_EE
Lfunc_begin69:
	.loc	49 1040 0 is_stmt 1             ; /Applications/Xcode.app/Contents/Developer/Platforms/MacOSX.platform/Developer/SDKs/MacOSX13.1.sdk/usr/include/c++/v1/ostream:1040:0
	.cfi_startproc
; %bb.0:
	sub	sp, sp, #48
	stp	x29, x30, [sp, #32]             ; 16-byte Folded Spill
	add	x29, sp, #32
	.cfi_def_cfa w29, 16
	.cfi_offset w30, -8
	.cfi_offset w29, -16
	stur	x0, [x29, #-8]
	str	x1, [sp, #16]
Ltmp414:
	.loc	49 1041 47 prologue_end         ; /Applications/Xcode.app/Contents/Developer/Platforms/MacOSX.platform/Developer/SDKs/MacOSX13.1.sdk/usr/include/c++/v1/ostream:1041:47
	ldur	x8, [x29, #-8]
	str	x8, [sp, #8]                    ; 8-byte Folded Spill
	.loc	49 1041 53 is_stmt 0            ; /Applications/Xcode.app/Contents/Developer/Platforms/MacOSX.platform/Developer/SDKs/MacOSX13.1.sdk/usr/include/c++/v1/ostream:1041:53
	ldr	x0, [sp, #16]
	.loc	49 1041 59                      ; /Applications/Xcode.app/Contents/Developer/Platforms/MacOSX.platform/Developer/SDKs/MacOSX13.1.sdk/usr/include/c++/v1/ostream:1041:59
	bl	__ZNKSt3__112basic_stringIcNS_11char_traitsIcEENS_9allocatorIcEEE4dataEv
	str	x0, [sp]                        ; 8-byte Folded Spill
	.loc	49 1041 67                      ; /Applications/Xcode.app/Contents/Developer/Platforms/MacOSX.platform/Developer/SDKs/MacOSX13.1.sdk/usr/include/c++/v1/ostream:1041:67
	ldr	x0, [sp, #16]
	.loc	49 1041 73                      ; /Applications/Xcode.app/Contents/Developer/Platforms/MacOSX.platform/Developer/SDKs/MacOSX13.1.sdk/usr/include/c++/v1/ostream:1041:73
	bl	__ZNKSt3__112basic_stringIcNS_11char_traitsIcEENS_9allocatorIcEEE4sizeEv
	ldr	x1, [sp]                        ; 8-byte Folded Reload
	mov	x2, x0
	ldr	x0, [sp, #8]                    ; 8-byte Folded Reload
	.loc	49 1041 12                      ; /Applications/Xcode.app/Contents/Developer/Platforms/MacOSX.platform/Developer/SDKs/MacOSX13.1.sdk/usr/include/c++/v1/ostream:1041:12
	bl	__ZNSt3__124__put_character_sequenceIcNS_11char_traitsIcEEEERNS_13basic_ostreamIT_T0_EES7_PKS4_m
	.loc	49 1041 5                       ; /Applications/Xcode.app/Contents/Developer/Platforms/MacOSX.platform/Developer/SDKs/MacOSX13.1.sdk/usr/include/c++/v1/ostream:1041:5
	ldp	x29, x30, [sp, #32]             ; 16-byte Folded Reload
	add	sp, sp, #48
	ret
Ltmp415:
Lfunc_end69:
	.cfi_endproc
                                        ; -- End function
	.globl	__ZNK3dbg11DebugOutput4ansiEPKc ; -- Begin function _ZNK3dbg11DebugOutput4ansiEPKc
	.weak_definition	__ZNK3dbg11DebugOutput4ansiEPKc
	.p2align	2
__ZNK3dbg11DebugOutput4ansiEPKc:        ; @_ZNK3dbg11DebugOutput4ansiEPKc
Lfunc_begin70:
	.loc	51 770 0 is_stmt 1              ; libframework/framework/include/framework/dbg.h:770:0
	.cfi_startproc
; %bb.0:
	sub	sp, sp, #32
	.cfi_def_cfa_offset 32
	str	x0, [sp, #16]
	str	x1, [sp, #8]
	ldr	x8, [sp, #16]
Ltmp417:
	.loc	51 771 17 prologue_end          ; libframework/framework/include/framework/dbg.h:771:17
	ldrb	w8, [x8]
Ltmp418:
	.loc	51 771 17 is_stmt 0             ; libframework/framework/include/framework/dbg.h:771:17
	tbz	w8, #0, LBB70_2
	b	LBB70_1
LBB70_1:
Ltmp419:
	.loc	51 772 24 is_stmt 1             ; libframework/framework/include/framework/dbg.h:772:24
	ldr	x8, [sp, #8]
	.loc	51 772 17 is_stmt 0             ; libframework/framework/include/framework/dbg.h:772:17
	str	x8, [sp, #24]
	b	LBB70_3
Ltmp420:
LBB70_2:
	.loc	51 0 0                          ; libframework/framework/include/framework/dbg.h:0:0
	adrp	x8, l_.str.15@PAGE
	add	x8, x8, l_.str.15@PAGEOFF
	.loc	51 774 17 is_stmt 1             ; libframework/framework/include/framework/dbg.h:774:17
	str	x8, [sp, #24]
	b	LBB70_3
Ltmp421:
LBB70_3:
	.loc	51 776 9                        ; libframework/framework/include/framework/dbg.h:776:9
	ldr	x0, [sp, #24]
	add	sp, sp, #32
	ret
Ltmp422:
Lfunc_end70:
	.cfi_endproc
                                        ; -- End function
	.p2align	2                               ; -- Begin function _ZNKSt3__118basic_stringstreamIcNS_11char_traitsIcEENS_9allocatorIcEEE3strEv
__ZNKSt3__118basic_stringstreamIcNS_11char_traitsIcEENS_9allocatorIcEEE3strEv: ; @_ZNKSt3__118basic_stringstreamIcNS_11char_traitsIcEENS_9allocatorIcEEE3strEv
Lfunc_begin71:
	.loc	103 842 0                       ; /Applications/Xcode.app/Contents/Developer/Platforms/MacOSX.platform/Developer/SDKs/MacOSX13.1.sdk/usr/include/c++/v1/sstream:842:0
	.cfi_startproc
; %bb.0:
	sub	sp, sp, #32
	stp	x29, x30, [sp, #16]             ; 16-byte Folded Spill
	add	x29, sp, #16
	.cfi_def_cfa w29, 16
	.cfi_offset w30, -8
	.cfi_offset w29, -16
	mov	x9, x8
	str	x9, [sp, #8]
	str	x0, [sp]
	ldr	x9, [sp]
Ltmp423:
	.loc	103 843 16 prologue_end         ; /Applications/Xcode.app/Contents/Developer/Platforms/MacOSX.platform/Developer/SDKs/MacOSX13.1.sdk/usr/include/c++/v1/sstream:843:16
	add	x0, x9, #24
	.loc	103 843 22 is_stmt 0            ; /Applications/Xcode.app/Contents/Developer/Platforms/MacOSX.platform/Developer/SDKs/MacOSX13.1.sdk/usr/include/c++/v1/sstream:843:22
	bl	__ZNKSt3__115basic_stringbufIcNS_11char_traitsIcEENS_9allocatorIcEEE3strEv
	.loc	103 843 9                       ; /Applications/Xcode.app/Contents/Developer/Platforms/MacOSX.platform/Developer/SDKs/MacOSX13.1.sdk/usr/include/c++/v1/sstream:843:9
	ldp	x29, x30, [sp, #16]             ; 16-byte Folded Reload
	add	sp, sp, #32
	ret
Ltmp424:
Lfunc_end71:
	.cfi_endproc
                                        ; -- End function
	.globl	__ZNSt3__118basic_stringstreamIcNS_11char_traitsIcEENS_9allocatorIcEEED1Ev ; -- Begin function _ZNSt3__118basic_stringstreamIcNS_11char_traitsIcEENS_9allocatorIcEEED1Ev
	.weak_def_can_be_hidden	__ZNSt3__118basic_stringstreamIcNS_11char_traitsIcEENS_9allocatorIcEEED1Ev
	.p2align	2
__ZNSt3__118basic_stringstreamIcNS_11char_traitsIcEENS_9allocatorIcEEED1Ev: ; @_ZNSt3__118basic_stringstreamIcNS_11char_traitsIcEENS_9allocatorIcEEED1Ev
Lfunc_begin72:
	.loc	103 862 0 is_stmt 1             ; /Applications/Xcode.app/Contents/Developer/Platforms/MacOSX.platform/Developer/SDKs/MacOSX13.1.sdk/usr/include/c++/v1/sstream:862:0
	.cfi_startproc
; %bb.0:
	sub	sp, sp, #32
	stp	x29, x30, [sp, #16]             ; 16-byte Folded Spill
	add	x29, sp, #16
	.cfi_def_cfa w29, 16
	.cfi_offset w30, -8
	.cfi_offset w29, -16
	str	x0, [sp, #8]
	ldr	x0, [sp, #8]
	str	x0, [sp]                        ; 8-byte Folded Spill
Ltmp425:
	.loc	103 0 0 is_stmt 0               ; /Applications/Xcode.app/Contents/Developer/Platforms/MacOSX.platform/Developer/SDKs/MacOSX13.1.sdk/usr/include/c++/v1/sstream:0:0
	adrp	x1, __ZTTNSt3__118basic_stringstreamIcNS_11char_traitsIcEENS_9allocatorIcEEEE@GOTPAGE
	ldr	x1, [x1, __ZTTNSt3__118basic_stringstreamIcNS_11char_traitsIcEENS_9allocatorIcEEEE@GOTPAGEOFF]
	.loc	103 862 67 prologue_end is_stmt 1 ; /Applications/Xcode.app/Contents/Developer/Platforms/MacOSX.platform/Developer/SDKs/MacOSX13.1.sdk/usr/include/c++/v1/sstream:862:67
	bl	__ZNSt3__118basic_stringstreamIcNS_11char_traitsIcEENS_9allocatorIcEEED2Ev
	ldr	x8, [sp]                        ; 8-byte Folded Reload
	add	x0, x8, #128
	bl	__ZNSt3__19basic_iosIcNS_11char_traitsIcEEED2Ev
	ldr	x0, [sp]                        ; 8-byte Folded Reload
	ldp	x29, x30, [sp, #16]             ; 16-byte Folded Reload
	add	sp, sp, #32
	ret
Ltmp426:
Lfunc_end72:
	.cfi_endproc
                                        ; -- End function
	.p2align	2                               ; -- Begin function _ZNSt3__112basic_stringIcNS_11char_traitsIcEENS_9allocatorIcEEEC2Ev
__ZNSt3__112basic_stringIcNS_11char_traitsIcEENS_9allocatorIcEEEC2Ev: ; @_ZNSt3__112basic_stringIcNS_11char_traitsIcEENS_9allocatorIcEEEC2Ev
Lfunc_begin73:
	.loc	37 1860 0                       ; /Applications/Xcode.app/Contents/Developer/Platforms/MacOSX.platform/Developer/SDKs/MacOSX13.1.sdk/usr/include/c++/v1/string:1860:0
	.cfi_startproc
	.cfi_personality 155, ___gxx_personality_v0
	.cfi_lsda 16, Lexception10
; %bb.0:
	sub	sp, sp, #48
	stp	x29, x30, [sp, #32]             ; 16-byte Folded Spill
	add	x29, sp, #32
	.cfi_def_cfa w29, 16
	.cfi_offset w30, -8
	.cfi_offset w29, -16
	stur	x0, [x29, #-8]
	ldur	x0, [x29, #-8]
	str	x0, [sp, #8]                    ; 8-byte Folded Spill
Ltmp427:
	sub	x1, x29, #9
	sub	x2, x29, #10
Ltmp430:
	.loc	37 1859 8 prologue_end          ; /Applications/Xcode.app/Contents/Developer/Platforms/MacOSX.platform/Developer/SDKs/MacOSX13.1.sdk/usr/include/c++/v1/string:1859:8
	bl	__ZNSt3__117__compressed_pairINS_12basic_stringIcNS_11char_traitsIcEENS_9allocatorIcEEE5__repES5_EC1INS_18__default_init_tagESA_EEOT_OT0_
Ltmp428:
	b	LBB73_1
LBB73_1:
	.loc	37 0 8 is_stmt 0                ; /Applications/Xcode.app/Contents/Developer/Platforms/MacOSX.platform/Developer/SDKs/MacOSX13.1.sdk/usr/include/c++/v1/string:0:8
	ldr	x0, [sp, #8]                    ; 8-byte Folded Reload
Ltmp431:
	.loc	37 1864 5 is_stmt 1             ; /Applications/Xcode.app/Contents/Developer/Platforms/MacOSX.platform/Developer/SDKs/MacOSX13.1.sdk/usr/include/c++/v1/string:1864:5
	bl	__ZNSt3__112basic_stringIcNS_11char_traitsIcEENS_9allocatorIcEEE6__zeroEv
	ldr	x0, [sp, #8]                    ; 8-byte Folded Reload
Ltmp432:
	.loc	37 1865 1                       ; /Applications/Xcode.app/Contents/Developer/Platforms/MacOSX.platform/Developer/SDKs/MacOSX13.1.sdk/usr/include/c++/v1/string:1865:1
	ldp	x29, x30, [sp, #32]             ; 16-byte Folded Reload
	add	sp, sp, #48
	ret
LBB73_2:
Ltmp429:
	.loc	37 1859 8                       ; /Applications/Xcode.app/Contents/Developer/Platforms/MacOSX.platform/Developer/SDKs/MacOSX13.1.sdk/usr/include/c++/v1/string:1859:8
	bl	___clang_call_terminate
Ltmp433:
Lfunc_end73:
	.cfi_endproc
	.section	__TEXT,__gcc_except_tab
	.p2align	2
GCC_except_table73:
Lexception10:
	.byte	255                             ; @LPStart Encoding = omit
	.byte	155                             ; @TType Encoding = indirect pcrel sdata4
	.uleb128 Lttbase2-Lttbaseref2
Lttbaseref2:
	.byte	1                               ; Call site Encoding = uleb128
	.uleb128 Lcst_end10-Lcst_begin10
Lcst_begin10:
	.uleb128 Ltmp427-Lfunc_begin73          ; >> Call Site 1 <<
	.uleb128 Ltmp428-Ltmp427                ;   Call between Ltmp427 and Ltmp428
	.uleb128 Ltmp429-Lfunc_begin73          ;     jumps to Ltmp429
	.byte	1                               ;   On action: 1
Lcst_end10:
	.byte	1                               ; >> Action Record 1 <<
                                        ;   Catch TypeInfo 1
	.byte	0                               ;   No further actions
	.p2align	2
                                        ; >> Catch TypeInfos <<
	.long	0                               ; TypeInfo 1
Lttbase2:
	.p2align	2
                                        ; -- End function
	.section	__TEXT,__text,regular,pure_instructions
	.p2align	2                               ; -- Begin function _ZNSt3__117__compressed_pairINS_12basic_stringIcNS_11char_traitsIcEENS_9allocatorIcEEE5__repES5_EC1INS_18__default_init_tagESA_EEOT_OT0_
__ZNSt3__117__compressed_pairINS_12basic_stringIcNS_11char_traitsIcEENS_9allocatorIcEEE5__repES5_EC1INS_18__default_init_tagESA_EEOT_OT0_: ; @_ZNSt3__117__compressed_pairINS_12basic_stringIcNS_11char_traitsIcEENS_9allocatorIcEEE5__repES5_EC1INS_18__default_init_tagESA_EEOT_OT0_
Lfunc_begin74:
	.loc	15 136 0                        ; /Applications/Xcode.app/Contents/Developer/Platforms/MacOSX.platform/Developer/SDKs/MacOSX13.1.sdk/usr/include/c++/v1/__memory/compressed_pair.h:136:0
	.cfi_startproc
; %bb.0:
	sub	sp, sp, #48
	stp	x29, x30, [sp, #32]             ; 16-byte Folded Spill
	add	x29, sp, #32
	.cfi_def_cfa w29, 16
	.cfi_offset w30, -8
	.cfi_offset w29, -16
	stur	x0, [x29, #-8]
	str	x1, [sp, #16]
	str	x2, [sp, #8]
	ldur	x0, [x29, #-8]
	str	x0, [sp]                        ; 8-byte Folded Spill
Ltmp434:
	.loc	15 136 84 prologue_end          ; /Applications/Xcode.app/Contents/Developer/Platforms/MacOSX.platform/Developer/SDKs/MacOSX13.1.sdk/usr/include/c++/v1/__memory/compressed_pair.h:136:84
	ldr	x1, [sp, #16]
	ldr	x2, [sp, #8]
	bl	__ZNSt3__117__compressed_pairINS_12basic_stringIcNS_11char_traitsIcEENS_9allocatorIcEEE5__repES5_EC2INS_18__default_init_tagESA_EEOT_OT0_
	ldr	x0, [sp]                        ; 8-byte Folded Reload
	.loc	15 136 85 is_stmt 0             ; /Applications/Xcode.app/Contents/Developer/Platforms/MacOSX.platform/Developer/SDKs/MacOSX13.1.sdk/usr/include/c++/v1/__memory/compressed_pair.h:136:85
	ldp	x29, x30, [sp, #32]             ; 16-byte Folded Reload
	add	sp, sp, #48
	ret
Ltmp435:
Lfunc_end74:
	.cfi_endproc
                                        ; -- End function
	.p2align	2                               ; -- Begin function _ZNSt3__112basic_stringIcNS_11char_traitsIcEENS_9allocatorIcEEE6__zeroEv
__ZNSt3__112basic_stringIcNS_11char_traitsIcEENS_9allocatorIcEEE6__zeroEv: ; @_ZNSt3__112basic_stringIcNS_11char_traitsIcEENS_9allocatorIcEEE6__zeroEv
Lfunc_begin75:
	.loc	37 1585 0 is_stmt 1             ; /Applications/Xcode.app/Contents/Developer/Platforms/MacOSX.platform/Developer/SDKs/MacOSX13.1.sdk/usr/include/c++/v1/string:1585:0
	.cfi_startproc
; %bb.0:
	sub	sp, sp, #48
	stp	x29, x30, [sp, #32]             ; 16-byte Folded Spill
	add	x29, sp, #32
	.cfi_def_cfa w29, 16
	.cfi_offset w30, -8
	.cfi_offset w29, -16
	stur	x0, [x29, #-8]
	ldur	x0, [x29, #-8]
Ltmp436:
	.loc	37 1586 48 prologue_end         ; /Applications/Xcode.app/Contents/Developer/Platforms/MacOSX.platform/Developer/SDKs/MacOSX13.1.sdk/usr/include/c++/v1/string:1586:48
	bl	__ZNSt3__117__compressed_pairINS_12basic_stringIcNS_11char_traitsIcEENS_9allocatorIcEEE5__repES5_E5firstEv
	.loc	37 1586 25 is_stmt 0            ; /Applications/Xcode.app/Contents/Developer/Platforms/MacOSX.platform/Developer/SDKs/MacOSX13.1.sdk/usr/include/c++/v1/string:1586:25
	str	x0, [sp, #16]
Ltmp437:
	.loc	37 1587 27 is_stmt 1            ; /Applications/Xcode.app/Contents/Developer/Platforms/MacOSX.platform/Developer/SDKs/MacOSX13.1.sdk/usr/include/c++/v1/string:1587:27
	str	wzr, [sp, #12]
	.loc	37 1587 18 is_stmt 0            ; /Applications/Xcode.app/Contents/Developer/Platforms/MacOSX.platform/Developer/SDKs/MacOSX13.1.sdk/usr/include/c++/v1/string:1587:18
	b	LBB75_1
LBB75_1:                                ; =>This Inner Loop Header: Depth=1
Ltmp438:
	.loc	37 1587 36                      ; /Applications/Xcode.app/Contents/Developer/Platforms/MacOSX.platform/Developer/SDKs/MacOSX13.1.sdk/usr/include/c++/v1/string:1587:36
	ldr	w8, [sp, #12]
Ltmp439:
	.loc	37 1587 13                      ; /Applications/Xcode.app/Contents/Developer/Platforms/MacOSX.platform/Developer/SDKs/MacOSX13.1.sdk/usr/include/c++/v1/string:1587:13
	subs	w8, w8, #3
	b.hs	LBB75_4
	b	LBB75_2
LBB75_2:                                ;   in Loop: Header=BB75_1 Depth=1
Ltmp440:
	.loc	37 1588 17 is_stmt 1            ; /Applications/Xcode.app/Contents/Developer/Platforms/MacOSX.platform/Developer/SDKs/MacOSX13.1.sdk/usr/include/c++/v1/string:1588:17
	ldr	x9, [sp, #16]
	.loc	37 1588 21 is_stmt 0            ; /Applications/Xcode.app/Contents/Developer/Platforms/MacOSX.platform/Developer/SDKs/MacOSX13.1.sdk/usr/include/c++/v1/string:1588:21
	ldr	w8, [sp, #12]
	mov	x10, x8
	mov	x8, #0
	.loc	37 1588 26                      ; /Applications/Xcode.app/Contents/Developer/Platforms/MacOSX.platform/Developer/SDKs/MacOSX13.1.sdk/usr/include/c++/v1/string:1588:26
	str	x8, [x9, x10, lsl #3]
	.loc	37 1588 17                      ; /Applications/Xcode.app/Contents/Developer/Platforms/MacOSX.platform/Developer/SDKs/MacOSX13.1.sdk/usr/include/c++/v1/string:1588:17
	b	LBB75_3
LBB75_3:                                ;   in Loop: Header=BB75_1 Depth=1
	.loc	37 1587 53 is_stmt 1            ; /Applications/Xcode.app/Contents/Developer/Platforms/MacOSX.platform/Developer/SDKs/MacOSX13.1.sdk/usr/include/c++/v1/string:1587:53
	ldr	w8, [sp, #12]
	add	w8, w8, #1
	str	w8, [sp, #12]
	.loc	37 1587 13 is_stmt 0            ; /Applications/Xcode.app/Contents/Developer/Platforms/MacOSX.platform/Developer/SDKs/MacOSX13.1.sdk/usr/include/c++/v1/string:1587:13
	b	LBB75_1
Ltmp441:
LBB75_4:
	.loc	37 1589 9 is_stmt 1             ; /Applications/Xcode.app/Contents/Developer/Platforms/MacOSX.platform/Developer/SDKs/MacOSX13.1.sdk/usr/include/c++/v1/string:1589:9
	ldp	x29, x30, [sp, #32]             ; 16-byte Folded Reload
	add	sp, sp, #48
	ret
Ltmp442:
Lfunc_end75:
	.cfi_endproc
                                        ; -- End function
	.p2align	2                               ; -- Begin function _ZNSt3__117__compressed_pairINS_12basic_stringIcNS_11char_traitsIcEENS_9allocatorIcEEE5__repES5_EC2INS_18__default_init_tagESA_EEOT_OT0_
__ZNSt3__117__compressed_pairINS_12basic_stringIcNS_11char_traitsIcEENS_9allocatorIcEEE5__repES5_EC2INS_18__default_init_tagESA_EEOT_OT0_: ; @_ZNSt3__117__compressed_pairINS_12basic_stringIcNS_11char_traitsIcEENS_9allocatorIcEEE5__repES5_EC2INS_18__default_init_tagESA_EEOT_OT0_
Lfunc_begin76:
	.loc	15 136 0                        ; /Applications/Xcode.app/Contents/Developer/Platforms/MacOSX.platform/Developer/SDKs/MacOSX13.1.sdk/usr/include/c++/v1/__memory/compressed_pair.h:136:0
	.cfi_startproc
; %bb.0:
	sub	sp, sp, #64
	stp	x29, x30, [sp, #48]             ; 16-byte Folded Spill
	add	x29, sp, #48
	.cfi_def_cfa w29, 16
	.cfi_offset w30, -8
	.cfi_offset w29, -16
