	.section	__TEXT,__text,regular,pure_instructions
	.build_version macos, 13, 0	sdk_version 13, 1
	.file	1 "/Applications/Xcode.app/Contents/Developer/Platforms/MacOSX.platform/Developer/SDKs/MacOSX13.1.sdk/usr/include/c++/v1" "__string"
	.file	2 "/Applications/Xcode.app/Contents/Developer/Toolchains/XcodeDefault.xctoolchain/usr/lib/clang/14.0.0/include" "stddef.h"
	.file	3 "/Applications/Xcode.app/Contents/Developer/Platforms/MacOSX.platform/Developer/SDKs/MacOSX13.1.sdk/usr/include/c++/v1/__memory" "allocator.h"
	.file	4 "/Applications/Xcode.app/Contents/Developer/Platforms/MacOSX.platform/Developer/SDKs/MacOSX13.1.sdk/usr/include/c++/v1" "string"
	.file	5 "/Applications/Xcode.app/Contents/Developer/Platforms/MacOSX.platform/Developer/SDKs/MacOSX13.1.sdk/usr/include/c++/v1/__memory" "allocator_traits.h"
	.file	6 "/Applications/Xcode.app/Contents/Developer/Platforms/MacOSX.platform/Developer/SDKs/MacOSX13.1.sdk/usr/include/c++/v1/__memory" "compressed_pair.h"
	.file	7 "/Applications/Xcode.app/Contents/Developer/Platforms/MacOSX.platform/Developer/SDKs/MacOSX13.1.sdk/usr/include/c++/v1" "initializer_list"
	.file	8 "/Applications/Xcode.app/Contents/Developer/Platforms/MacOSX.platform/Developer/SDKs/MacOSX13.1.sdk/usr/include/c++/v1" "string_view"
	.file	9 "/Applications/Xcode.app/Contents/Developer/Platforms/MacOSX.platform/Developer/SDKs/MacOSX13.1.sdk/usr/include/c++/v1" "type_traits"
	.file	10 "/Applications/Xcode.app/Contents/Developer/Platforms/MacOSX.platform/Developer/SDKs/MacOSX13.1.sdk/usr/include/c++/v1" "iosfwd"
	.file	11 "/opt/homebrew/include/log4cpp" "Appender.hh"
	.file	12 "/Applications/Xcode.app/Contents/Developer/Platforms/MacOSX.platform/Developer/SDKs/MacOSX13.1.sdk/usr/include/sys/_pthread" "_pthread_types.h"
	.file	13 "/Applications/Xcode.app/Contents/Developer/Platforms/MacOSX.platform/Developer/SDKs/MacOSX13.1.sdk/usr/include/sys/_pthread" "_pthread_mutex_t.h"
	.file	14 "/opt/homebrew/include/log4cpp/threading" "PThreads.hh"
	.file	15 "/opt/homebrew/include/log4cpp" "LoggingEvent.hh"
	.file	16 "/opt/homebrew/include/log4cpp" "Priority.hh"
	.file	17 "/opt/homebrew/include/log4cpp" "TimeStamp.hh"
	.file	18 "/opt/homebrew/include/log4cpp" "Layout.hh"
	.file	19 "/opt/homebrew/include/log4cpp" "Category.hh"
	.file	20 "/Applications/Xcode.app/Contents/Developer/Platforms/MacOSX.platform/Developer/SDKs/MacOSX13.1.sdk/usr/include/c++/v1/__functional" "binary_function.h"
	.file	21 "/Applications/Xcode.app/Contents/Developer/Platforms/MacOSX.platform/Developer/SDKs/MacOSX13.1.sdk/usr/include/c++/v1/__functional" "operations.h"
	.file	22 "/Applications/Xcode.app/Contents/Developer/Platforms/MacOSX.platform/Developer/SDKs/MacOSX13.1.sdk/usr/include/c++/v1" "__tree"
	.file	23 "/Applications/Xcode.app/Contents/Developer/Platforms/MacOSX.platform/Developer/SDKs/MacOSX13.1.sdk/usr/include/c++/v1/__memory" "pointer_traits.h"
	.file	24 "/Applications/Xcode.app/Contents/Developer/Platforms/MacOSX.platform/Developer/SDKs/MacOSX13.1.sdk/usr/include/c++/v1" "set"
	.file	25 "/Applications/Xcode.app/Contents/Developer/Platforms/MacOSX.platform/Developer/SDKs/MacOSX13.1.sdk/usr/include/c++/v1" "__node_handle"
	.file	26 "/Applications/Xcode.app/Contents/Developer/Platforms/MacOSX.platform/Developer/SDKs/MacOSX13.1.sdk/usr/include/c++/v1" "map"
	.file	27 "/Applications/Xcode.app/Contents/Developer/Platforms/MacOSX.platform/Developer/SDKs/MacOSX13.1.sdk/usr/include/arm" "_types.h"
	.file	28 "/Applications/Xcode.app/Contents/Developer/Platforms/MacOSX.platform/Developer/SDKs/MacOSX13.1.sdk/usr/include/sys/_types" "_va_list.h"
	.file	29 "/opt/homebrew/include/log4cpp" "CategoryStream.hh"
	.file	30 "/Applications/Xcode.app/Contents/Developer/Platforms/MacOSX.platform/Developer/SDKs/MacOSX13.1.sdk/usr/include/c++/v1" "ios"
	.file	31 "/Applications/Xcode.app/Contents/Developer/Platforms/MacOSX.platform/Developer/SDKs/MacOSX13.1.sdk/usr/include/c++/v1" "__locale"
	.file	32 "/Applications/Xcode.app/Contents/Developer/Platforms/MacOSX.platform/Developer/SDKs/MacOSX13.1.sdk/usr/include/c++/v1/__memory" "shared_ptr.h"
	.file	33 "/Applications/Xcode.app/Contents/Developer/Platforms/MacOSX.platform/Developer/SDKs/MacOSX13.1.sdk/usr/include/c++/v1" "mutex"
	.file	34 "/Applications/Xcode.app/Contents/Developer/Platforms/MacOSX.platform/Developer/SDKs/MacOSX13.1.sdk/usr/include/sys/_types" "_int32_t.h"
	.file	35 "/Applications/Xcode.app/Contents/Developer/Platforms/MacOSX.platform/Developer/SDKs/MacOSX13.1.sdk/usr/include/c++/v1" "streambuf"
	.file	36 "/Applications/Xcode.app/Contents/Developer/Platforms/MacOSX.platform/Developer/SDKs/MacOSX13.1.sdk/usr/include/c++/v1" "ostream"
	.file	37 "/Applications/Xcode.app/Contents/Developer/Platforms/MacOSX.platform/Developer/SDKs/MacOSX13.1.sdk/usr/include/c++/v1" "__nullptr"
	.file	38 "/Applications/Xcode.app/Contents/Developer/Platforms/MacOSX.platform/Developer/SDKs/MacOSX13.1.sdk/usr/include/c++/v1" "sstream"
	.file	39 "/Users/xieyao/Desktop/git/C-/mac/myproject" "libframework/framework/include/framework/Log.h"
	.file	40 "/Applications/Xcode.app/Contents/Developer/Platforms/MacOSX.platform/Developer/SDKs/MacOSX13.1.sdk/usr/include/c++/v1" "atomic"
	.file	41 "/Applications/Xcode.app/Contents/Developer/Platforms/MacOSX.platform/Developer/SDKs/MacOSX13.1.sdk/usr/include/c++/v1" "limits"
	.file	42 "/Applications/Xcode.app/Contents/Developer/Platforms/MacOSX.platform/Developer/SDKs/MacOSX13.1.sdk/usr/include/sys/_pthread" "_pthread_t.h"
	.file	43 "/Applications/Xcode.app/Contents/Developer/Platforms/MacOSX.platform/Developer/SDKs/MacOSX13.1.sdk/usr/include/c++/v1" "__threading_support"
	.file	44 "/Applications/Xcode.app/Contents/Developer/Platforms/MacOSX.platform/Developer/SDKs/MacOSX13.1.sdk/usr/include/c++/v1" "thread"
	.file	45 "/Applications/Xcode.app/Contents/Developer/Platforms/MacOSX.platform/Developer/SDKs/MacOSX13.1.sdk/usr/include/c++/v1/__memory" "unique_ptr.h"
	.file	46 "/Applications/Xcode.app/Contents/Developer/Platforms/MacOSX.platform/Developer/SDKs/MacOSX13.1.sdk/usr/include/sys/_pthread" "_pthread_cond_t.h"
	.file	47 "/Applications/Xcode.app/Contents/Developer/Platforms/MacOSX.platform/Developer/SDKs/MacOSX13.1.sdk/usr/include/c++/v1" "__mutex_base"
	.file	48 "/Applications/Xcode.app/Contents/Developer/Platforms/MacOSX.platform/Developer/SDKs/MacOSX13.1.sdk/usr/include/c++/v1" "chrono"
	.file	49 "/Applications/Xcode.app/Contents/Developer/Platforms/MacOSX.platform/Developer/SDKs/MacOSX13.1.sdk/usr/include/_types" "_intmax_t.h"
	.file	50 "/Applications/Xcode.app/Contents/Developer/Platforms/MacOSX.platform/Developer/SDKs/MacOSX13.1.sdk/usr/include/c++/v1" "ratio"
	.file	51 "/Applications/Xcode.app/Contents/Developer/Platforms/MacOSX.platform/Developer/SDKs/MacOSX13.1.sdk/usr/include/sys/_types" "_time_t.h"
	.file	52 "/Users/xieyao/Desktop/git/C-/mac/myproject" "libframework/framework/include/framework/Thread.h"
	.file	53 "/Applications/Xcode.app/Contents/Developer/Platforms/MacOSX.platform/Developer/SDKs/MacOSX13.1.sdk/usr/include/c++/v1" "__tuple"
	.file	54 "/Applications/Xcode.app/Contents/Developer/Platforms/MacOSX.platform/Developer/SDKs/MacOSX13.1.sdk/usr/include/c++/v1" "tuple"
	.file	55 "/Applications/Xcode.app/Contents/Developer/Platforms/MacOSX.platform/Developer/SDKs/MacOSX13.1.sdk/usr/include/c++/v1" "stddef.h"
	.file	56 "/Applications/Xcode.app/Contents/Developer/Platforms/MacOSX.platform/Developer/SDKs/MacOSX13.1.sdk/usr/include/sys/_types" "_mbstate_t.h"
	.file	57 "/Applications/Xcode.app/Contents/Developer/Platforms/MacOSX.platform/Developer/SDKs/MacOSX13.1.sdk/usr/include/c++/v1" "__mbstate_t.h"
	.file	58 "/Applications/Xcode.app/Contents/Developer/Platforms/MacOSX.platform/Developer/SDKs/MacOSX13.1.sdk/usr/include/c++/v1" "cstddef"
	.file	59 "/Applications/Xcode.app/Contents/Developer/Toolchains/XcodeDefault.xctoolchain/usr/lib/clang/14.0.0/include" "__stddef_max_align_t.h"
	.file	60 "/Applications/Xcode.app/Contents/Developer/Platforms/MacOSX.platform/Developer/SDKs/MacOSX13.1.sdk/usr/include/c++/v1" "cstdlib"
	.file	61 "/Applications/Xcode.app/Contents/Developer/Platforms/MacOSX.platform/Developer/SDKs/MacOSX13.1.sdk/usr/include" "stdlib.h"
	.file	62 "/Applications/Xcode.app/Contents/Developer/Platforms/MacOSX.platform/Developer/SDKs/MacOSX13.1.sdk/usr/include/malloc" "_malloc.h"
	.file	63 "/Applications/Xcode.app/Contents/Developer/Platforms/MacOSX.platform/Developer/SDKs/MacOSX13.1.sdk/usr/include/c++/v1" "stdlib.h"
	.file	64 "/Applications/Xcode.app/Contents/Developer/Platforms/MacOSX.platform/Developer/SDKs/MacOSX13.1.sdk/usr/include/sys/_types" "_int8_t.h"
	.file	65 "/Applications/Xcode.app/Contents/Developer/Platforms/MacOSX.platform/Developer/SDKs/MacOSX13.1.sdk/usr/include/c++/v1" "cstdint"
	.file	66 "/Applications/Xcode.app/Contents/Developer/Platforms/MacOSX.platform/Developer/SDKs/MacOSX13.1.sdk/usr/include/sys/_types" "_int16_t.h"
	.file	67 "/Applications/Xcode.app/Contents/Developer/Platforms/MacOSX.platform/Developer/SDKs/MacOSX13.1.sdk/usr/include/sys/_types" "_int64_t.h"
	.file	68 "/Applications/Xcode.app/Contents/Developer/Platforms/MacOSX.platform/Developer/SDKs/MacOSX13.1.sdk/usr/include/_types" "_uint8_t.h"
	.file	69 "/Applications/Xcode.app/Contents/Developer/Platforms/MacOSX.platform/Developer/SDKs/MacOSX13.1.sdk/usr/include/_types" "_uint16_t.h"
	.file	70 "/Applications/Xcode.app/Contents/Developer/Platforms/MacOSX.platform/Developer/SDKs/MacOSX13.1.sdk/usr/include/_types" "_uint32_t.h"
	.file	71 "/Applications/Xcode.app/Contents/Developer/Platforms/MacOSX.platform/Developer/SDKs/MacOSX13.1.sdk/usr/include/_types" "_uint64_t.h"
	.file	72 "/Applications/Xcode.app/Contents/Developer/Platforms/MacOSX.platform/Developer/SDKs/MacOSX13.1.sdk/usr/include" "stdint.h"
	.file	73 "/Applications/Xcode.app/Contents/Developer/Platforms/MacOSX.platform/Developer/SDKs/MacOSX13.1.sdk/usr/include/sys/_types" "_intptr_t.h"
	.file	74 "/Applications/Xcode.app/Contents/Developer/Platforms/MacOSX.platform/Developer/SDKs/MacOSX13.1.sdk/usr/include/sys/_types" "_uintptr_t.h"
	.file	75 "/Applications/Xcode.app/Contents/Developer/Platforms/MacOSX.platform/Developer/SDKs/MacOSX13.1.sdk/usr/include/_types" "_uintmax_t.h"
	.file	76 "/Applications/Xcode.app/Contents/Developer/Platforms/MacOSX.platform/Developer/SDKs/MacOSX13.1.sdk/usr/include/sys/_types" "_clock_t.h"
	.file	77 "/Applications/Xcode.app/Contents/Developer/Platforms/MacOSX.platform/Developer/SDKs/MacOSX13.1.sdk/usr/include/c++/v1" "ctime"
	.file	78 "/Applications/Xcode.app/Contents/Developer/Platforms/MacOSX.platform/Developer/SDKs/MacOSX13.1.sdk/usr/include" "time.h"
	.file	79 "/Applications/Xcode.app/Contents/Developer/Platforms/MacOSX.platform/Developer/SDKs/MacOSX13.1.sdk/usr/include/sys/_types" "_timespec.h"
	.file	80 "/Applications/Xcode.app/Contents/Developer/Platforms/MacOSX.platform/Developer/SDKs/MacOSX13.1.sdk/usr/include/c++/v1" "cstring"
	.file	81 "/Applications/Xcode.app/Contents/Developer/Platforms/MacOSX.platform/Developer/SDKs/MacOSX13.1.sdk/usr/include" "string.h"
	.file	82 "/Applications/Xcode.app/Contents/Developer/Platforms/MacOSX.platform/Developer/SDKs/MacOSX13.1.sdk/usr/include/c++/v1" "string.h"
	.file	83 "/Applications/Xcode.app/Contents/Developer/Platforms/MacOSX.platform/Developer/SDKs/MacOSX13.1.sdk/usr/include" "_stdio.h"
	.file	84 "/Applications/Xcode.app/Contents/Developer/Platforms/MacOSX.platform/Developer/SDKs/MacOSX13.1.sdk/usr/include/sys" "_types.h"
	.file	85 "/Applications/Xcode.app/Contents/Developer/Platforms/MacOSX.platform/Developer/SDKs/MacOSX13.1.sdk/usr/include/c++/v1" "cstdio"
	.file	86 "/Applications/Xcode.app/Contents/Developer/Platforms/MacOSX.platform/Developer/SDKs/MacOSX13.1.sdk/usr/include" "stdio.h"
	.file	87 "/Applications/Xcode.app/Contents/Developer/Platforms/MacOSX.platform/Developer/SDKs/MacOSX13.1.sdk/usr/include" "_ctype.h"
	.file	88 "/Applications/Xcode.app/Contents/Developer/Platforms/MacOSX.platform/Developer/SDKs/MacOSX13.1.sdk/usr/include/c++/v1" "cctype"
	.file	89 "/Applications/Xcode.app/Contents/Developer/Platforms/MacOSX.platform/Developer/SDKs/MacOSX13.1.sdk/usr/include/sys/_types" "_wint_t.h"
	.file	90 "/Applications/Xcode.app/Contents/Developer/Platforms/MacOSX.platform/Developer/SDKs/MacOSX13.1.sdk/usr/include/c++/v1" "cwctype"
	.file	91 "/Applications/Xcode.app/Contents/Developer/Platforms/MacOSX.platform/Developer/SDKs/MacOSX13.1.sdk/usr/include" "_types.h"
	.file	92 "/Applications/Xcode.app/Contents/Developer/Platforms/MacOSX.platform/Developer/SDKs/MacOSX13.1.sdk/usr/include/_types" "_wctrans_t.h"
	.file	93 "/Applications/Xcode.app/Contents/Developer/Platforms/MacOSX.platform/Developer/SDKs/MacOSX13.1.sdk/usr/include/_types" "_wctype_t.h"
	.file	94 "/Applications/Xcode.app/Contents/Developer/Platforms/MacOSX.platform/Developer/SDKs/MacOSX13.1.sdk/usr/include" "_wctype.h"
	.file	95 "/Applications/Xcode.app/Contents/Developer/Platforms/MacOSX.platform/Developer/SDKs/MacOSX13.1.sdk/usr/include" "wctype.h"
	.file	96 "/Applications/Xcode.app/Contents/Developer/Platforms/MacOSX.platform/Developer/SDKs/MacOSX13.1.sdk/usr/include/c++/v1" "cwchar"
	.file	97 "/Applications/Xcode.app/Contents/Developer/Platforms/MacOSX.platform/Developer/SDKs/MacOSX13.1.sdk/usr/include" "wchar.h"
	.file	98 "/Applications/Xcode.app/Contents/Developer/Platforms/MacOSX.platform/Developer/SDKs/MacOSX13.1.sdk/usr/include/c++/v1" "wchar.h"
	.file	99 "/Applications/Xcode.app/Contents/Developer/Platforms/MacOSX.platform/Developer/SDKs/MacOSX13.1.sdk/usr/include/c++/v1" "cstdarg"
	.section	__TEXT,__StaticInit,regular,pure_instructions
	.p2align	2                               ; -- Begin function __cxx_global_var_init
___cxx_global_var_init:                 ; @__cxx_global_var_init
Lfunc_begin0:
	.file	100 "/Users/xieyao/Desktop/git/C-/mac/myproject/cmake-build-mac" "libframework/framework/CMakeFiles/framework.dir/src/Thread.cpp"
	.loc	100 0 0                         ; libframework/framework/CMakeFiles/framework.dir/src/Thread.cpp:0:0
	.cfi_startproc
; %bb.0:
	sub	sp, sp, #32
	stp	x29, x30, [sp, #16]             ; 16-byte Folded Spill
	add	x29, sp, #16
	.cfi_def_cfa w29, 16
	.cfi_offset w30, -8
	.cfi_offset w29, -16
Ltmp0:
	adrp	x0, __ZN7log4cppL29appenderMapStorageInitializerE@PAGE
	add	x0, x0, __ZN7log4cppL29appenderMapStorageInitializerE@PAGEOFF
	str	x0, [sp, #8]                    ; 8-byte Folded Spill
	.loc	11 164 49 prologue_end          ; /opt/homebrew/include/log4cpp/Appender.hh:164:49
	bl	__ZN7log4cpp8Appender29AppenderMapStorageInitializerC1Ev
	ldr	x1, [sp, #8]                    ; 8-byte Folded Reload
	.loc	100 0 0 is_stmt 0               ; libframework/framework/CMakeFiles/framework.dir/src/Thread.cpp:0:0
	adrp	x0, __ZN7log4cpp8Appender29AppenderMapStorageInitializerD1Ev@GOTPAGE
	ldr	x0, [x0, __ZN7log4cpp8Appender29AppenderMapStorageInitializerD1Ev@GOTPAGEOFF]
	adrp	x2, ___dso_handle@PAGE
	add	x2, x2, ___dso_handle@PAGEOFF
	bl	___cxa_atexit
	.loc	11 164 49                       ; /opt/homebrew/include/log4cpp/Appender.hh:164:49
	ldp	x29, x30, [sp, #16]             ; 16-byte Folded Reload
	add	sp, sp, #32
	ret
Ltmp1:
Lfunc_end0:
	.cfi_endproc
                                        ; -- End function
	.p2align	2                               ; -- Begin function __cxx_global_var_init.1
___cxx_global_var_init.1:               ; @__cxx_global_var_init.1
Lfunc_begin1:
	.loc	100 0 0 is_stmt 1               ; libframework/framework/CMakeFiles/framework.dir/src/Thread.cpp:0:0
	.cfi_startproc
	.cfi_personality 155, ___gxx_personality_v0
	.cfi_lsda 16, Lexception0
; %bb.0:
	sub	sp, sp, #48
	stp	x29, x30, [sp, #32]             ; 16-byte Folded Spill
	add	x29, sp, #32
	.cfi_def_cfa w29, 16
	.cfi_offset w30, -8
	.cfi_offset w29, -16
Ltmp5:
	adrp	x8, __ZGVN3Log5mNameE@GOTPAGE
	ldr	x8, [x8, __ZGVN3Log5mNameE@GOTPAGEOFF]
	str	x8, [sp, #8]                    ; 8-byte Folded Spill
	ldarb	w8, [x8]
	and	w8, w8, #0x1
	and	w8, w8, #0xff
	cbnz	w8, LBB1_4
	b	LBB1_1
LBB1_1:
	ldr	x0, [sp, #8]                    ; 8-byte Folded Reload
	bl	___cxa_guard_acquire
	cbz	w0, LBB1_4
	b	LBB1_2
LBB1_2:
Ltmp2:
	adrp	x0, __ZN3Log5mNameE@GOTPAGE
	ldr	x0, [x0, __ZN3Log5mNameE@GOTPAGEOFF]
	adrp	x1, l_.str@PAGE
	add	x1, x1, l_.str@PAGEOFF
	.loc	39 42 31 prologue_end           ; libframework/framework/include/framework/Log.h:42:31
	bl	__ZNSt3__112basic_stringIcNS_11char_traitsIcEENS_9allocatorIcEEEC1IDnEEPKc
Ltmp3:
	b	LBB1_3
LBB1_3:
	.loc	100 0 0 is_stmt 0               ; libframework/framework/CMakeFiles/framework.dir/src/Thread.cpp:0:0
	adrp	x0, __ZNSt3__112basic_stringIcNS_11char_traitsIcEENS_9allocatorIcEEED1Ev@GOTPAGE
	ldr	x0, [x0, __ZNSt3__112basic_stringIcNS_11char_traitsIcEENS_9allocatorIcEEED1Ev@GOTPAGEOFF]
	adrp	x1, __ZN3Log5mNameE@GOTPAGE
	ldr	x1, [x1, __ZN3Log5mNameE@GOTPAGEOFF]
	adrp	x2, ___dso_handle@PAGE
	add	x2, x2, ___dso_handle@PAGEOFF
	bl	___cxa_atexit
	ldr	x0, [sp, #8]                    ; 8-byte Folded Reload
	bl	___cxa_guard_release
	b	LBB1_4
LBB1_4:
	.loc	39 42 5                         ; libframework/framework/include/framework/Log.h:42:5
	ldp	x29, x30, [sp, #32]             ; 16-byte Folded Reload
	add	sp, sp, #48
	ret
LBB1_5:
Ltmp4:
	mov	x9, x0
	ldr	x0, [sp, #8]                    ; 8-byte Folded Reload
	mov	x8, x1
	stur	x9, [x29, #-8]
	stur	w8, [x29, #-12]
	.loc	100 0 0                         ; libframework/framework/CMakeFiles/framework.dir/src/Thread.cpp:0:0
	bl	___cxa_guard_abort
	b	LBB1_6
LBB1_6:
	ldur	x0, [x29, #-8]
	bl	__Unwind_Resume
Ltmp6:
Lfunc_end1:
	.cfi_endproc
	.section	__TEXT,__gcc_except_tab
	.p2align	2
GCC_except_table1:
Lexception0:
	.byte	255                             ; @LPStart Encoding = omit
	.byte	255                             ; @TType Encoding = omit
	.byte	1                               ; Call site Encoding = uleb128
	.uleb128 Lcst_end0-Lcst_begin0
Lcst_begin0:
	.uleb128 Ltmp2-Lfunc_begin1             ; >> Call Site 1 <<
	.uleb128 Ltmp3-Ltmp2                    ;   Call between Ltmp2 and Ltmp3
	.uleb128 Ltmp4-Lfunc_begin1             ;     jumps to Ltmp4
	.byte	0                               ;   On action: cleanup
	.uleb128 Ltmp3-Lfunc_begin1             ; >> Call Site 2 <<
	.uleb128 Lfunc_end1-Ltmp3               ;   Call between Ltmp3 and Lfunc_end1
	.byte	0                               ;     has no landing pad
	.byte	0                               ;   On action: cleanup
Lcst_end0:
	.p2align	2
                                        ; -- End function
	.section	__TEXT,__text,regular,pure_instructions
	.p2align	2                               ; -- Begin function _ZNSt3__112basic_stringIcNS_11char_traitsIcEENS_9allocatorIcEEEC1IDnEEPKc
__ZNSt3__112basic_stringIcNS_11char_traitsIcEENS_9allocatorIcEEEC1IDnEEPKc: ; @_ZNSt3__112basic_stringIcNS_11char_traitsIcEENS_9allocatorIcEEEC1IDnEEPKc
Lfunc_begin2:
	.loc	4 840 0 is_stmt 1               ; /Applications/Xcode.app/Contents/Developer/Platforms/MacOSX.platform/Developer/SDKs/MacOSX13.1.sdk/usr/include/c++/v1/string:840:0
	.cfi_startproc
; %bb.0:
	sub	sp, sp, #48
	stp	x29, x30, [sp, #32]             ; 16-byte Folded Spill
	add	x29, sp, #32
	.cfi_def_cfa w29, 16
	.cfi_offset w30, -8
	.cfi_offset w29, -16
	stur	x0, [x29, #-8]
	str	x1, [sp, #16]
	ldur	x0, [x29, #-8]
	str	x0, [sp, #8]                    ; 8-byte Folded Spill
Ltmp7:
	.loc	4 840 88 prologue_end           ; /Applications/Xcode.app/Contents/Developer/Platforms/MacOSX.platform/Developer/SDKs/MacOSX13.1.sdk/usr/include/c++/v1/string:840:88
	ldr	x1, [sp, #16]
	bl	__ZNSt3__112basic_stringIcNS_11char_traitsIcEENS_9allocatorIcEEEC2IDnEEPKc
	ldr	x0, [sp, #8]                    ; 8-byte Folded Reload
	.loc	4 846 5                         ; /Applications/Xcode.app/Contents/Developer/Platforms/MacOSX.platform/Developer/SDKs/MacOSX13.1.sdk/usr/include/c++/v1/string:846:5
	ldp	x29, x30, [sp, #32]             ; 16-byte Folded Reload
	add	sp, sp, #48
	ret
Ltmp8:
Lfunc_end2:
	.cfi_endproc
                                        ; -- End function
	.globl	__ZN6Thread3runEv               ; -- Begin function _ZN6Thread3runEv
	.p2align	2
__ZN6Thread3runEv:                      ; @_ZN6Thread3runEv
Lfunc_begin3:
	.file	101 "/Users/xieyao/Desktop/git/C-/mac/myproject" "libframework/framework/src/Thread.cpp"
	.loc	101 11 0                        ; libframework/framework/src/Thread.cpp:11:0
	.cfi_startproc
; %bb.0:
	sub	sp, sp, #80
	stp	x29, x30, [sp, #64]             ; 16-byte Folded Spill
	add	x29, sp, #64
	.cfi_def_cfa w29, 16
	.cfi_offset w30, -8
	.cfi_offset w29, -16
Ltmp9:
	.loc	101 0 0 is_stmt 0               ; libframework/framework/src/Thread.cpp:0:0
	adrp	x9, __ZN6Thread11_threadLoopEv@PAGE
	add	x9, x9, __ZN6Thread11_threadLoopEv@PAGEOFF
	stur	x0, [x29, #-8]
	ldur	x8, [x29, #-8]
	str	x8, [sp, #16]                   ; 8-byte Folded Spill
	add	x0, sp, #32
	.loc	101 13 45 prologue_end is_stmt 1 ; libframework/framework/src/Thread.cpp:13:45
	str	x9, [sp, #32]
	str	xzr, [sp, #40]
	add	x1, sp, #24
	.loc	101 13 67 is_stmt 0             ; libframework/framework/src/Thread.cpp:13:67
	str	x8, [sp, #24]
	sub	x8, x29, #16
	str	x8, [sp, #8]                    ; 8-byte Folded Spill
	.loc	101 13 15                       ; libframework/framework/src/Thread.cpp:13:15
	bl	__ZNSt3__1L11make_uniqueINS_6threadEJM6ThreadFvvEPS2_EEENS_11__unique_ifIT_E15__unique_singleEDpOT0_
	ldr	x1, [sp, #8]                    ; 8-byte Folded Reload
	ldr	x8, [sp, #16]                   ; 8-byte Folded Reload
	.loc	101 13 5                        ; libframework/framework/src/Thread.cpp:13:5
	add	x0, x8, #8
	.loc	101 13 13                       ; libframework/framework/src/Thread.cpp:13:13
	bl	__ZNSt3__110unique_ptrINS_6threadENS_14default_deleteIS1_EEEaSEOS4_
	ldr	x0, [sp, #8]                    ; 8-byte Folded Reload
	.loc	101 13 5                        ; libframework/framework/src/Thread.cpp:13:5
	bl	__ZNSt3__110unique_ptrINS_6threadENS_14default_deleteIS1_EEED1Ev
	ldr	x8, [sp, #16]                   ; 8-byte Folded Reload
	.loc	101 14 12 is_stmt 1             ; libframework/framework/src/Thread.cpp:14:12
	add	x0, x8, #8
	bl	__ZNKSt3__110unique_ptrINS_6threadENS_14default_deleteIS1_EEEcvbEv
	mov	w8, #0
	ands	w9, w0, #0x1
	csinc	w8, w8, wzr, eq
	.loc	101 14 5 is_stmt 0              ; libframework/framework/src/Thread.cpp:14:5
	and	w0, w8, #0x1
	ldp	x29, x30, [sp, #64]             ; 16-byte Folded Reload
	add	sp, sp, #80
	ret
Ltmp10:
Lfunc_end3:
	.cfi_endproc
                                        ; -- End function
	.p2align	2                               ; -- Begin function _ZNSt3__1L11make_uniqueINS_6threadEJM6ThreadFvvEPS2_EEENS_11__unique_ifIT_E15__unique_singleEDpOT0_
__ZNSt3__1L11make_uniqueINS_6threadEJM6ThreadFvvEPS2_EEENS_11__unique_ifIT_E15__unique_singleEDpOT0_: ; @_ZNSt3__1L11make_uniqueINS_6threadEJM6ThreadFvvEPS2_EEENS_11__unique_ifIT_E15__unique_singleEDpOT0_
Lfunc_begin4:
	.loc	45 727 0 is_stmt 1              ; /Applications/Xcode.app/Contents/Developer/Platforms/MacOSX.platform/Developer/SDKs/MacOSX13.1.sdk/usr/include/c++/v1/__memory/unique_ptr.h:727:0
	.cfi_startproc
	.cfi_personality 155, ___gxx_personality_v0
	.cfi_lsda 16, Lexception1
; %bb.0:
	sub	sp, sp, #80
	stp	x29, x30, [sp, #64]             ; 16-byte Folded Spill
	add	x29, sp, #64
	.cfi_def_cfa w29, 16
	.cfi_offset w30, -8
	.cfi_offset w29, -16
	str	x8, [sp]                        ; 8-byte Folded Spill
	stur	x8, [x29, #-8]
	stur	x0, [x29, #-16]
	stur	x1, [x29, #-24]
	mov	x0, #8
Ltmp14:
	.loc	45 728 28 prologue_end          ; /Applications/Xcode.app/Contents/Developer/Platforms/MacOSX.platform/Developer/SDKs/MacOSX13.1.sdk/usr/include/c++/v1/__memory/unique_ptr.h:728:28
	bl	__Znwm
	str	x0, [sp, #16]                   ; 8-byte Folded Spill
	.loc	45 728 61 is_stmt 0             ; /Applications/Xcode.app/Contents/Developer/Platforms/MacOSX.platform/Developer/SDKs/MacOSX13.1.sdk/usr/include/c++/v1/__memory/unique_ptr.h:728:61
	ldur	x0, [x29, #-16]
	.loc	45 728 36                       ; /Applications/Xcode.app/Contents/Developer/Platforms/MacOSX.platform/Developer/SDKs/MacOSX13.1.sdk/usr/include/c++/v1/__memory/unique_ptr.h:728:36
	bl	__ZNSt3__1L7forwardIM6ThreadFvvEEEOT_RNS_16remove_referenceIS4_E4typeE
	str	x0, [sp, #8]                    ; 8-byte Folded Spill
	.loc	45 728 61                       ; /Applications/Xcode.app/Contents/Developer/Platforms/MacOSX.platform/Developer/SDKs/MacOSX13.1.sdk/usr/include/c++/v1/__memory/unique_ptr.h:728:61
	ldur	x0, [x29, #-24]
	.loc	45 728 36                       ; /Applications/Xcode.app/Contents/Developer/Platforms/MacOSX.platform/Developer/SDKs/MacOSX13.1.sdk/usr/include/c++/v1/__memory/unique_ptr.h:728:36
	bl	__ZNSt3__1L7forwardIP6ThreadEEOT_RNS_16remove_referenceIS3_E4typeE
	ldr	x1, [sp, #8]                    ; 8-byte Folded Reload
	mov	x2, x0
	ldr	x0, [sp, #16]                   ; 8-byte Folded Reload
Ltmp11:
	.loc	45 728 32                       ; /Applications/Xcode.app/Contents/Developer/Platforms/MacOSX.platform/Developer/SDKs/MacOSX13.1.sdk/usr/include/c++/v1/__memory/unique_ptr.h:728:32
	bl	__ZNSt3__16threadC1IM6ThreadFvvEJPS2_EvEEOT_DpOT0_
Ltmp12:
	b	LBB4_1
LBB4_1:
	.loc	45 0 32                         ; /Applications/Xcode.app/Contents/Developer/Platforms/MacOSX.platform/Developer/SDKs/MacOSX13.1.sdk/usr/include/c++/v1/__memory/unique_ptr.h:0:32
	ldr	x1, [sp, #16]                   ; 8-byte Folded Reload
	ldr	x0, [sp]                        ; 8-byte Folded Reload
	.loc	45 728 12                       ; /Applications/Xcode.app/Contents/Developer/Platforms/MacOSX.platform/Developer/SDKs/MacOSX13.1.sdk/usr/include/c++/v1/__memory/unique_ptr.h:728:12
	bl	__ZNSt3__110unique_ptrINS_6threadENS_14default_deleteIS1_EEEC1ILb1EvEEPS1_
	.loc	45 728 5                        ; /Applications/Xcode.app/Contents/Developer/Platforms/MacOSX.platform/Developer/SDKs/MacOSX13.1.sdk/usr/include/c++/v1/__memory/unique_ptr.h:728:5
	ldp	x29, x30, [sp, #64]             ; 16-byte Folded Reload
	add	sp, sp, #80
	ret
LBB4_2:
Ltmp13:
	.loc	45 729 1 is_stmt 1              ; /Applications/Xcode.app/Contents/Developer/Platforms/MacOSX.platform/Developer/SDKs/MacOSX13.1.sdk/usr/include/c++/v1/__memory/unique_ptr.h:729:1
	mov	x9, x0
	ldr	x0, [sp, #16]                   ; 8-byte Folded Reload
	mov	x8, x1
	str	x9, [sp, #32]
	str	w8, [sp, #28]
	.loc	45 728 28                       ; /Applications/Xcode.app/Contents/Developer/Platforms/MacOSX.platform/Developer/SDKs/MacOSX13.1.sdk/usr/include/c++/v1/__memory/unique_ptr.h:728:28
	bl	__ZdlPv
	b	LBB4_3
LBB4_3:
	ldr	x0, [sp, #32]
	bl	__Unwind_Resume
Ltmp15:
Lfunc_end4:
	.cfi_endproc
	.section	__TEXT,__gcc_except_tab
	.p2align	2
GCC_except_table4:
Lexception1:
	.byte	255                             ; @LPStart Encoding = omit
	.byte	255                             ; @TType Encoding = omit
	.byte	1                               ; Call site Encoding = uleb128
	.uleb128 Lcst_end1-Lcst_begin1
Lcst_begin1:
	.uleb128 Lfunc_begin4-Lfunc_begin4      ; >> Call Site 1 <<
	.uleb128 Ltmp11-Lfunc_begin4            ;   Call between Lfunc_begin4 and Ltmp11
	.byte	0                               ;     has no landing pad
	.byte	0                               ;   On action: cleanup
	.uleb128 Ltmp11-Lfunc_begin4            ; >> Call Site 2 <<
	.uleb128 Ltmp12-Ltmp11                  ;   Call between Ltmp11 and Ltmp12
	.uleb128 Ltmp13-Lfunc_begin4            ;     jumps to Ltmp13
	.byte	0                               ;   On action: cleanup
	.uleb128 Ltmp12-Lfunc_begin4            ; >> Call Site 3 <<
	.uleb128 Lfunc_end4-Ltmp12              ;   Call between Ltmp12 and Lfunc_end4
	.byte	0                               ;     has no landing pad
	.byte	0                               ;   On action: cleanup
Lcst_end1:
	.p2align	2
                                        ; -- End function
	.section	__TEXT,__text,regular,pure_instructions
	.globl	__ZN6Thread11_threadLoopEv      ; -- Begin function _ZN6Thread11_threadLoopEv
	.p2align	2
__ZN6Thread11_threadLoopEv:             ; @_ZN6Thread11_threadLoopEv
Lfunc_begin5:
	.loc	101 17 0                        ; libframework/framework/src/Thread.cpp:17:0
	.cfi_startproc
; %bb.0:
	sub	sp, sp, #48
	stp	x29, x30, [sp, #32]             ; 16-byte Folded Spill
	add	x29, sp, #32
	.cfi_def_cfa w29, 16
	.cfi_offset w30, -8
	.cfi_offset w29, -16
	stur	x0, [x29, #-8]
	ldur	x8, [x29, #-8]
	str	x8, [sp, #16]                   ; 8-byte Folded Spill
Ltmp16:
	.loc	101 19 5 prologue_end           ; libframework/framework/src/Thread.cpp:19:5
	b	LBB5_1
LBB5_1:                                 ; =>This Inner Loop Header: Depth=1
	.loc	101 0 5 is_stmt 0               ; libframework/framework/src/Thread.cpp:0:5
	ldr	x8, [sp, #16]                   ; 8-byte Folded Reload
	.loc	101 19 13                       ; libframework/framework/src/Thread.cpp:19:13
	add	x0, x8, #17
	mov	w1, #5
	.loc	101 19 19                       ; libframework/framework/src/Thread.cpp:19:19
	bl	__ZNKSt3__113__atomic_baseIbLb0EE4loadENS_12memory_orderE
	.loc	101 19 5                        ; libframework/framework/src/Thread.cpp:19:5
	tbnz	w0, #0, LBB5_3
	b	LBB5_2
LBB5_2:                                 ;   in Loop: Header=BB5_1 Depth=1
	.loc	101 0 5                         ; libframework/framework/src/Thread.cpp:0:5
	ldr	x0, [sp, #16]                   ; 8-byte Folded Reload
Ltmp17:
	.loc	101 20 9 is_stmt 1              ; libframework/framework/src/Thread.cpp:20:9
	add	x8, x0, #16
	str	x8, [sp, #8]                    ; 8-byte Folded Spill
	.loc	101 20 22 is_stmt 0             ; libframework/framework/src/Thread.cpp:20:22
	ldr	x8, [x0]
	ldr	x8, [x8]
	blr	x8
	mov	x8, x0
	ldr	x0, [sp, #8]                    ; 8-byte Folded Reload
	.loc	101 20 21                       ; libframework/framework/src/Thread.cpp:20:21
	eor	w8, w8, #0x1
	.loc	101 20 15                       ; libframework/framework/src/Thread.cpp:20:15
	and	w1, w8, #0x1
	mov	w2, #5
	bl	__ZNSt3__113__atomic_baseIbLb0EE5storeEbNS_12memory_orderE
	ldr	x8, [sp, #16]                   ; 8-byte Folded Reload
	.loc	101 21 37 is_stmt 1             ; libframework/framework/src/Thread.cpp:21:37
	add	x0, x8, #24
	.loc	101 21 9 is_stmt 0              ; libframework/framework/src/Thread.cpp:21:9
	bl	__ZNSt3__111this_thread9sleep_forIxNS_5ratioILl1ELl1000EEEEEvRKNS_6chrono8durationIT_T0_EE
Ltmp18:
	.loc	101 19 5 is_stmt 1              ; libframework/framework/src/Thread.cpp:19:5
	b	LBB5_1
LBB5_3:
	.loc	101 24 1                        ; libframework/framework/src/Thread.cpp:24:1
	ldp	x29, x30, [sp, #32]             ; 16-byte Folded Reload
	add	sp, sp, #48
	ret
Ltmp19:
Lfunc_end5:
	.cfi_endproc
                                        ; -- End function
	.p2align	2                               ; -- Begin function _ZNSt3__110unique_ptrINS_6threadENS_14default_deleteIS1_EEEaSEOS4_
__ZNSt3__110unique_ptrINS_6threadENS_14default_deleteIS1_EEEaSEOS4_: ; @_ZNSt3__110unique_ptrINS_6threadENS_14default_deleteIS1_EEEaSEOS4_
Lfunc_begin6:
	.loc	45 236 0                        ; /Applications/Xcode.app/Contents/Developer/Platforms/MacOSX.platform/Developer/SDKs/MacOSX13.1.sdk/usr/include/c++/v1/__memory/unique_ptr.h:236:0
	.cfi_startproc
; %bb.0:
	sub	sp, sp, #48
	stp	x29, x30, [sp, #32]             ; 16-byte Folded Spill
	add	x29, sp, #32
	.cfi_def_cfa w29, 16
	.cfi_offset w30, -8
	.cfi_offset w29, -16
	stur	x0, [x29, #-8]
	str	x1, [sp, #16]
	ldur	x8, [x29, #-8]
	str	x8, [sp, #8]                    ; 8-byte Folded Spill
Ltmp20:
	.loc	45 237 11 prologue_end          ; /Applications/Xcode.app/Contents/Developer/Platforms/MacOSX.platform/Developer/SDKs/MacOSX13.1.sdk/usr/include/c++/v1/__memory/unique_ptr.h:237:11
	ldr	x0, [sp, #16]
	.loc	45 237 15 is_stmt 0             ; /Applications/Xcode.app/Contents/Developer/Platforms/MacOSX.platform/Developer/SDKs/MacOSX13.1.sdk/usr/include/c++/v1/__memory/unique_ptr.h:237:15
	bl	__ZNSt3__110unique_ptrINS_6threadENS_14default_deleteIS1_EEE7releaseEv
	mov	x1, x0
	ldr	x0, [sp, #8]                    ; 8-byte Folded Reload
	.loc	45 237 5                        ; /Applications/Xcode.app/Contents/Developer/Platforms/MacOSX.platform/Developer/SDKs/MacOSX13.1.sdk/usr/include/c++/v1/__memory/unique_ptr.h:237:5
	bl	__ZNSt3__110unique_ptrINS_6threadENS_14default_deleteIS1_EEE5resetEPS1_
	.loc	45 238 55 is_stmt 1             ; /Applications/Xcode.app/Contents/Developer/Platforms/MacOSX.platform/Developer/SDKs/MacOSX13.1.sdk/usr/include/c++/v1/__memory/unique_ptr.h:238:55
	ldr	x0, [sp, #16]
	.loc	45 238 59 is_stmt 0             ; /Applications/Xcode.app/Contents/Developer/Platforms/MacOSX.platform/Developer/SDKs/MacOSX13.1.sdk/usr/include/c++/v1/__memory/unique_ptr.h:238:59
	bl	__ZNSt3__110unique_ptrINS_6threadENS_14default_deleteIS1_EEE11get_deleterEv
	.loc	45 238 23                       ; /Applications/Xcode.app/Contents/Developer/Platforms/MacOSX.platform/Developer/SDKs/MacOSX13.1.sdk/usr/include/c++/v1/__memory/unique_ptr.h:238:23
	bl	__ZNSt3__1L7forwardINS_14default_deleteINS_6threadEEEEEOT_RNS_16remove_referenceIS4_E4typeE
	ldr	x0, [sp, #8]                    ; 8-byte Folded Reload
	.loc	45 238 12                       ; /Applications/Xcode.app/Contents/Developer/Platforms/MacOSX.platform/Developer/SDKs/MacOSX13.1.sdk/usr/include/c++/v1/__memory/unique_ptr.h:238:12
	bl	__ZNSt3__117__compressed_pairIPNS_6threadENS_14default_deleteIS1_EEE6secondEv
	ldr	x0, [sp, #8]                    ; 8-byte Folded Reload
	.loc	45 239 5 is_stmt 1              ; /Applications/Xcode.app/Contents/Developer/Platforms/MacOSX.platform/Developer/SDKs/MacOSX13.1.sdk/usr/include/c++/v1/__memory/unique_ptr.h:239:5
	ldp	x29, x30, [sp, #32]             ; 16-byte Folded Reload
	add	sp, sp, #48
	ret
Ltmp21:
Lfunc_end6:
	.cfi_endproc
                                        ; -- End function
	.p2align	2                               ; -- Begin function _ZNSt3__110unique_ptrINS_6threadENS_14default_deleteIS1_EEED1Ev
__ZNSt3__110unique_ptrINS_6threadENS_14default_deleteIS1_EEED1Ev: ; @_ZNSt3__110unique_ptrINS_6threadENS_14default_deleteIS1_EEED1Ev
Lfunc_begin7:
	.loc	45 272 0                        ; /Applications/Xcode.app/Contents/Developer/Platforms/MacOSX.platform/Developer/SDKs/MacOSX13.1.sdk/usr/include/c++/v1/__memory/unique_ptr.h:272:0
	.cfi_startproc
; %bb.0:
	sub	sp, sp, #32
	stp	x29, x30, [sp, #16]             ; 16-byte Folded Spill
	add	x29, sp, #16
	.cfi_def_cfa w29, 16
	.cfi_offset w30, -8
	.cfi_offset w29, -16
	str	x0, [sp, #8]
	ldr	x0, [sp, #8]
	str	x0, [sp]                        ; 8-byte Folded Spill
Ltmp22:
	.loc	45 272 17 prologue_end          ; /Applications/Xcode.app/Contents/Developer/Platforms/MacOSX.platform/Developer/SDKs/MacOSX13.1.sdk/usr/include/c++/v1/__memory/unique_ptr.h:272:17
	bl	__ZNSt3__110unique_ptrINS_6threadENS_14default_deleteIS1_EEED2Ev
	ldr	x0, [sp]                        ; 8-byte Folded Reload
	.loc	45 272 28 is_stmt 0             ; /Applications/Xcode.app/Contents/Developer/Platforms/MacOSX.platform/Developer/SDKs/MacOSX13.1.sdk/usr/include/c++/v1/__memory/unique_ptr.h:272:28
	ldp	x29, x30, [sp, #16]             ; 16-byte Folded Reload
	add	sp, sp, #32
	ret
Ltmp23:
Lfunc_end7:
	.cfi_endproc
                                        ; -- End function
	.p2align	2                               ; -- Begin function _ZNKSt3__110unique_ptrINS_6threadENS_14default_deleteIS1_EEEcvbEv
__ZNKSt3__110unique_ptrINS_6threadENS_14default_deleteIS1_EEEcvbEv: ; @_ZNKSt3__110unique_ptrINS_6threadENS_14default_deleteIS1_EEEcvbEv
Lfunc_begin8:
	.loc	45 302 0 is_stmt 1              ; /Applications/Xcode.app/Contents/Developer/Platforms/MacOSX.platform/Developer/SDKs/MacOSX13.1.sdk/usr/include/c++/v1/__memory/unique_ptr.h:302:0
	.cfi_startproc
; %bb.0:
	sub	sp, sp, #32
	stp	x29, x30, [sp, #16]             ; 16-byte Folded Spill
	add	x29, sp, #16
	.cfi_def_cfa w29, 16
	.cfi_offset w30, -8
	.cfi_offset w29, -16
	str	x0, [sp, #8]
	ldr	x0, [sp, #8]
Ltmp24:
	.loc	45 303 19 prologue_end          ; /Applications/Xcode.app/Contents/Developer/Platforms/MacOSX.platform/Developer/SDKs/MacOSX13.1.sdk/usr/include/c++/v1/__memory/unique_ptr.h:303:19
	bl	__ZNKSt3__117__compressed_pairIPNS_6threadENS_14default_deleteIS1_EEE5firstEv
	ldr	x8, [x0]
	.loc	45 303 27 is_stmt 0             ; /Applications/Xcode.app/Contents/Developer/Platforms/MacOSX.platform/Developer/SDKs/MacOSX13.1.sdk/usr/include/c++/v1/__memory/unique_ptr.h:303:27
	subs	x8, x8, #0
	cset	w8, ne
	.loc	45 303 5                        ; /Applications/Xcode.app/Contents/Developer/Platforms/MacOSX.platform/Developer/SDKs/MacOSX13.1.sdk/usr/include/c++/v1/__memory/unique_ptr.h:303:5
	and	w0, w8, #0x1
	ldp	x29, x30, [sp, #16]             ; 16-byte Folded Reload
	add	sp, sp, #32
	ret
Ltmp25:
Lfunc_end8:
	.cfi_endproc
                                        ; -- End function
	.p2align	2                               ; -- Begin function _ZNKSt3__113__atomic_baseIbLb0EE4loadENS_12memory_orderE
__ZNKSt3__113__atomic_baseIbLb0EE4loadENS_12memory_orderE: ; @_ZNKSt3__113__atomic_baseIbLb0EE4loadENS_12memory_orderE
Lfunc_begin9:
	.loc	40 1643 0 is_stmt 1             ; /Applications/Xcode.app/Contents/Developer/Platforms/MacOSX.platform/Developer/SDKs/MacOSX13.1.sdk/usr/include/c++/v1/atomic:1643:0
	.cfi_startproc
; %bb.0:
	sub	sp, sp, #32
	stp	x29, x30, [sp, #16]             ; 16-byte Folded Spill
	add	x29, sp, #16
	.cfi_def_cfa w29, 16
	.cfi_offset w30, -8
	.cfi_offset w29, -16
	str	x0, [sp, #8]
	str	w1, [sp, #4]
	ldr	x0, [sp, #8]
Ltmp26:
	.loc	40 1643 42 prologue_end         ; /Applications/Xcode.app/Contents/Developer/Platforms/MacOSX.platform/Developer/SDKs/MacOSX13.1.sdk/usr/include/c++/v1/atomic:1643:42
	ldr	w1, [sp, #4]
	.loc	40 1643 17 is_stmt 0            ; /Applications/Xcode.app/Contents/Developer/Platforms/MacOSX.platform/Developer/SDKs/MacOSX13.1.sdk/usr/include/c++/v1/atomic:1643:17
	bl	__ZNSt3__1L17__cxx_atomic_loadIbEET_PKNS_22__cxx_atomic_base_implIS1_EENS_12memory_orderE
	.loc	40 1643 10                      ; /Applications/Xcode.app/Contents/Developer/Platforms/MacOSX.platform/Developer/SDKs/MacOSX13.1.sdk/usr/include/c++/v1/atomic:1643:10
	and	w0, w0, #0x1
	ldp	x29, x30, [sp, #16]             ; 16-byte Folded Reload
	add	sp, sp, #32
	ret
Ltmp27:
Lfunc_end9:
	.cfi_endproc
                                        ; -- End function
	.p2align	2                               ; -- Begin function _ZNSt3__113__atomic_baseIbLb0EE5storeEbNS_12memory_orderE
__ZNSt3__113__atomic_baseIbLb0EE5storeEbNS_12memory_orderE: ; @_ZNSt3__113__atomic_baseIbLb0EE5storeEbNS_12memory_orderE
Lfunc_begin10:
	.loc	40 1635 0 is_stmt 1             ; /Applications/Xcode.app/Contents/Developer/Platforms/MacOSX.platform/Developer/SDKs/MacOSX13.1.sdk/usr/include/c++/v1/atomic:1635:0
	.cfi_startproc
; %bb.0:
	sub	sp, sp, #32
	stp	x29, x30, [sp, #16]             ; 16-byte Folded Spill
	add	x29, sp, #16
	.cfi_def_cfa w29, 16
	.cfi_offset w30, -8
	.cfi_offset w29, -16
	str	x0, [sp, #8]
	mov	w8, #1
	and	w8, w1, w8
	strb	w8, [sp, #7]
	str	w2, [sp]
	ldr	x0, [sp, #8]
Ltmp28:
	.loc	40 1635 36 prologue_end         ; /Applications/Xcode.app/Contents/Developer/Platforms/MacOSX.platform/Developer/SDKs/MacOSX13.1.sdk/usr/include/c++/v1/atomic:1635:36
	ldrb	w8, [sp, #7]
	.loc	40 1635 41 is_stmt 0            ; /Applications/Xcode.app/Contents/Developer/Platforms/MacOSX.platform/Developer/SDKs/MacOSX13.1.sdk/usr/include/c++/v1/atomic:1635:41
	ldr	w2, [sp]
	.loc	40 1635 10                      ; /Applications/Xcode.app/Contents/Developer/Platforms/MacOSX.platform/Developer/SDKs/MacOSX13.1.sdk/usr/include/c++/v1/atomic:1635:10
	and	w1, w8, #0x1
	bl	__ZNSt3__1L18__cxx_atomic_storeIbEEvPNS_22__cxx_atomic_base_implIT_EES2_NS_12memory_orderE
	.loc	40 1635 46                      ; /Applications/Xcode.app/Contents/Developer/Platforms/MacOSX.platform/Developer/SDKs/MacOSX13.1.sdk/usr/include/c++/v1/atomic:1635:46
	ldp	x29, x30, [sp, #16]             ; 16-byte Folded Reload
	add	sp, sp, #32
	ret
Ltmp29:
Lfunc_end10:
	.cfi_endproc
                                        ; -- End function
	.globl	__ZNSt3__111this_thread9sleep_forIxNS_5ratioILl1ELl1000EEEEEvRKNS_6chrono8durationIT_T0_EE ; -- Begin function _ZNSt3__111this_thread9sleep_forIxNS_5ratioILl1ELl1000EEEEEvRKNS_6chrono8durationIT_T0_EE
	.weak_definition	__ZNSt3__111this_thread9sleep_forIxNS_5ratioILl1ELl1000EEEEEvRKNS_6chrono8durationIT_T0_EE
	.p2align	2
__ZNSt3__111this_thread9sleep_forIxNS_5ratioILl1ELl1000EEEEEvRKNS_6chrono8durationIT_T0_EE: ; @_ZNSt3__111this_thread9sleep_forIxNS_5ratioILl1ELl1000EEEEEvRKNS_6chrono8durationIT_T0_EE
Lfunc_begin11:
	.loc	44 369 0 is_stmt 1              ; /Applications/Xcode.app/Contents/Developer/Platforms/MacOSX.platform/Developer/SDKs/MacOSX13.1.sdk/usr/include/c++/v1/thread:369:0
	.cfi_startproc
; %bb.0:
	sub	sp, sp, #80
	stp	x29, x30, [sp, #64]             ; 16-byte Folded Spill
	add	x29, sp, #64
	.cfi_def_cfa w29, 16
	.cfi_offset w30, -8
	.cfi_offset w29, -16
	stur	x0, [x29, #-8]
Ltmp30:
	.loc	44 370 9 prologue_end           ; /Applications/Xcode.app/Contents/Developer/Platforms/MacOSX.platform/Developer/SDKs/MacOSX13.1.sdk/usr/include/c++/v1/thread:370:9
	ldur	x8, [x29, #-8]
	str	x8, [sp, #8]                    ; 8-byte Folded Spill
	.loc	44 370 15 is_stmt 0             ; /Applications/Xcode.app/Contents/Developer/Platforms/MacOSX.platform/Developer/SDKs/MacOSX13.1.sdk/usr/include/c++/v1/thread:370:15
	bl	__ZNSt3__16chrono8durationIxNS_5ratioILl1ELl1000EEEE4zeroEv
	mov	x8, x0
	ldr	x0, [sp, #8]                    ; 8-byte Folded Reload
	sub	x1, x29, #16
	stur	x8, [x29, #-16]
	.loc	44 370 13                       ; /Applications/Xcode.app/Contents/Developer/Platforms/MacOSX.platform/Developer/SDKs/MacOSX13.1.sdk/usr/include/c++/v1/thread:370:13
	bl	__ZNSt3__16chronogtIxNS_5ratioILl1ELl1000EEExS3_EEbRKNS0_8durationIT_T0_EERKNS4_IT1_T2_EE
Ltmp31:
	.loc	44 370 9                        ; /Applications/Xcode.app/Contents/Developer/Platforms/MacOSX.platform/Developer/SDKs/MacOSX13.1.sdk/usr/include/c++/v1/thread:370:9
	tbz	w0, #0, LBB11_7
	b	LBB11_1
LBB11_1:
Ltmp32:
	.loc	44 0 0                          ; /Applications/Xcode.app/Contents/Developer/Platforms/MacOSX.platform/Developer/SDKs/MacOSX13.1.sdk/usr/include/c++/v1/thread:0:0
	adrp	x8, l___const._ZNSt3__111this_thread9sleep_forIxNS_5ratioILl1ELl1000EEEEEvRKNS_6chrono8durationIT_T0_EE._Max@PAGE
	.loc	44 375 49 is_stmt 1             ; /Applications/Xcode.app/Contents/Developer/Platforms/MacOSX.platform/Developer/SDKs/MacOSX13.1.sdk/usr/include/c++/v1/thread:375:49
	ldr	x8, [x8, l___const._ZNSt3__111this_thread9sleep_forIxNS_5ratioILl1ELl1000EEEEEvRKNS_6chrono8durationIT_T0_EE._Max@PAGEOFF]
	sub	x1, x29, #24
	stur	x8, [x29, #-24]
Ltmp33:
	.loc	44 378 13                       ; /Applications/Xcode.app/Contents/Developer/Platforms/MacOSX.platform/Developer/SDKs/MacOSX13.1.sdk/usr/include/c++/v1/thread:378:13
	ldur	x0, [x29, #-8]
	.loc	44 378 17 is_stmt 0             ; /Applications/Xcode.app/Contents/Developer/Platforms/MacOSX.platform/Developer/SDKs/MacOSX13.1.sdk/usr/include/c++/v1/thread:378:17
	bl	__ZNSt3__16chronoltIxNS_5ratioILl1ELl1000EEEeNS2_ILl1ELl1EEEEEbRKNS0_8durationIT_T0_EERKNS5_IT1_T2_EE
Ltmp34:
	.loc	44 378 13                       ; /Applications/Xcode.app/Contents/Developer/Platforms/MacOSX.platform/Developer/SDKs/MacOSX13.1.sdk/usr/include/c++/v1/thread:378:13
	tbz	w0, #0, LBB11_5
	b	LBB11_2
LBB11_2:
Ltmp35:
	.loc	44 380 63 is_stmt 1             ; /Applications/Xcode.app/Contents/Developer/Platforms/MacOSX.platform/Developer/SDKs/MacOSX13.1.sdk/usr/include/c++/v1/thread:380:63
	ldur	x0, [x29, #-8]
	.loc	44 380 20 is_stmt 0             ; /Applications/Xcode.app/Contents/Developer/Platforms/MacOSX.platform/Developer/SDKs/MacOSX13.1.sdk/usr/include/c++/v1/thread:380:20
	bl	__ZNSt3__16chronoL13duration_castINS0_8durationIxNS_5ratioILl1ELl1000000000EEEEExNS3_ILl1ELl1000EEEEENS_9enable_ifIXsr13__is_durationIT_EE5valueES8_E4typeERKNS2_IT0_T1_EE
	str	x0, [sp, #24]
	.loc	44 380 18                       ; /Applications/Xcode.app/Contents/Developer/Platforms/MacOSX.platform/Developer/SDKs/MacOSX13.1.sdk/usr/include/c++/v1/thread:380:18
	ldr	x8, [sp, #24]
	add	x0, sp, #32
	str	x8, [sp, #32]
Ltmp36:
	.loc	44 381 24 is_stmt 1             ; /Applications/Xcode.app/Contents/Developer/Platforms/MacOSX.platform/Developer/SDKs/MacOSX13.1.sdk/usr/include/c++/v1/thread:381:24
	ldur	x1, [x29, #-8]
	.loc	44 381 22 is_stmt 0             ; /Applications/Xcode.app/Contents/Developer/Platforms/MacOSX.platform/Developer/SDKs/MacOSX13.1.sdk/usr/include/c++/v1/thread:381:22
	bl	__ZNSt3__16chronoltIxNS_5ratioILl1ELl1000000000EEExNS2_ILl1ELl1000EEEEEbRKNS0_8durationIT_T0_EERKNS5_IT1_T2_EE
Ltmp37:
	.loc	44 381 17                       ; /Applications/Xcode.app/Contents/Developer/Platforms/MacOSX.platform/Developer/SDKs/MacOSX13.1.sdk/usr/include/c++/v1/thread:381:17
	tbz	w0, #0, LBB11_4
	b	LBB11_3
LBB11_3:
	.loc	44 0 17                         ; /Applications/Xcode.app/Contents/Developer/Platforms/MacOSX.platform/Developer/SDKs/MacOSX13.1.sdk/usr/include/c++/v1/thread:0:17
	add	x0, sp, #32
Ltmp38:
	.loc	44 382 17 is_stmt 1             ; /Applications/Xcode.app/Contents/Developer/Platforms/MacOSX.platform/Developer/SDKs/MacOSX13.1.sdk/usr/include/c++/v1/thread:382:17
	bl	__ZNSt3__16chrono8durationIxNS_5ratioILl1ELl1000000000EEEEppEv
	b	LBB11_4
Ltmp39:
LBB11_4:
	.loc	44 383 9                        ; /Applications/Xcode.app/Contents/Developer/Platforms/MacOSX.platform/Developer/SDKs/MacOSX13.1.sdk/usr/include/c++/v1/thread:383:9
	b	LBB11_6
Ltmp40:
LBB11_5:
	.loc	44 385 20                       ; /Applications/Xcode.app/Contents/Developer/Platforms/MacOSX.platform/Developer/SDKs/MacOSX13.1.sdk/usr/include/c++/v1/thread:385:20
	bl	__ZNSt3__16chrono8durationIxNS_5ratioILl1ELl1000000000EEEE3maxEv
	str	x0, [sp, #16]
	.loc	44 385 18 is_stmt 0             ; /Applications/Xcode.app/Contents/Developer/Platforms/MacOSX.platform/Developer/SDKs/MacOSX13.1.sdk/usr/include/c++/v1/thread:385:18
	ldr	x8, [sp, #16]
	str	x8, [sp, #32]
	b	LBB11_6
Ltmp41:
LBB11_6:
	.loc	44 0 18                         ; /Applications/Xcode.app/Contents/Developer/Platforms/MacOSX.platform/Developer/SDKs/MacOSX13.1.sdk/usr/include/c++/v1/thread:0:18
	add	x0, sp, #32
	.loc	44 386 9 is_stmt 1              ; /Applications/Xcode.app/Contents/Developer/Platforms/MacOSX.platform/Developer/SDKs/MacOSX13.1.sdk/usr/include/c++/v1/thread:386:9
	bl	__ZNSt3__111this_thread9sleep_forERKNS_6chrono8durationIxNS_5ratioILl1ELl1000000000EEEEE
	.loc	44 387 5                        ; /Applications/Xcode.app/Contents/Developer/Platforms/MacOSX.platform/Developer/SDKs/MacOSX13.1.sdk/usr/include/c++/v1/thread:387:5
	b	LBB11_7
Ltmp42:
LBB11_7:
	.loc	44 388 1                        ; /Applications/Xcode.app/Contents/Developer/Platforms/MacOSX.platform/Developer/SDKs/MacOSX13.1.sdk/usr/include/c++/v1/thread:388:1
	ldp	x29, x30, [sp, #64]             ; 16-byte Folded Reload
	add	sp, sp, #80
	ret
Ltmp43:
Lfunc_end11:
	.cfi_endproc
                                        ; -- End function
	.globl	__ZN6ThreadD2Ev                 ; -- Begin function _ZN6ThreadD2Ev
	.p2align	2
__ZN6ThreadD2Ev:                        ; @_ZN6ThreadD2Ev
Lfunc_begin12:
	.loc	101 26 0                        ; libframework/framework/src/Thread.cpp:26:0
	.cfi_startproc
	.cfi_personality 155, ___gxx_personality_v0
	.cfi_lsda 16, Lexception2
; %bb.0:
	sub	sp, sp, #64
	stp	x29, x30, [sp, #48]             ; 16-byte Folded Spill
	add	x29, sp, #48
	.cfi_def_cfa w29, 16
	.cfi_offset w30, -8
	.cfi_offset w29, -16
Ltmp47:
	.loc	101 0 0 is_stmt 0               ; libframework/framework/src/Thread.cpp:0:0
	adrp	x8, __ZTV6Thread@PAGE
	add	x8, x8, __ZTV6Thread@PAGEOFF
	add	x9, x8, #16
	stur	x0, [x29, #-16]
	ldur	x8, [x29, #-16]
	str	x8, [sp, #8]                    ; 8-byte Folded Spill
	mov	x10, x8
	stur	x10, [x29, #-8]
	.loc	101 26 19 prologue_end is_stmt 1 ; libframework/framework/src/Thread.cpp:26:19
	str	x9, [x8]
Ltmp48:
	.loc	101 28 9                        ; libframework/framework/src/Thread.cpp:28:9
	add	x0, x8, #8
	bl	__ZNKSt3__110unique_ptrINS_6threadENS_14default_deleteIS1_EEEcvbEv
	.loc	101 28 17 is_stmt 0             ; libframework/framework/src/Thread.cpp:28:17
	tbz	w0, #0, LBB12_5
	b	LBB12_1
LBB12_1:
	.loc	101 0 17                        ; libframework/framework/src/Thread.cpp:0:17
	ldr	x8, [sp, #8]                    ; 8-byte Folded Reload
	.loc	101 28 20                       ; libframework/framework/src/Thread.cpp:28:20
	add	x0, x8, #8
	bl	__ZNKSt3__110unique_ptrINS_6threadENS_14default_deleteIS1_EEEptEv
	.loc	101 28 29                       ; libframework/framework/src/Thread.cpp:28:29
	bl	__ZNKSt3__16thread8joinableEv
Ltmp49:
	.loc	101 28 9                        ; libframework/framework/src/Thread.cpp:28:9
	tbz	w0, #0, LBB12_5
	b	LBB12_2
LBB12_2:
	.loc	101 0 9                         ; libframework/framework/src/Thread.cpp:0:9
	ldr	x8, [sp, #8]                    ; 8-byte Folded Reload
Ltmp50:
	.loc	101 30 9 is_stmt 1              ; libframework/framework/src/Thread.cpp:30:9
	add	x0, x8, #8
	bl	__ZNKSt3__110unique_ptrINS_6threadENS_14default_deleteIS1_EEEptEv
Ltmp44:
	.loc	101 30 18 is_stmt 0             ; libframework/framework/src/Thread.cpp:30:18
	bl	__ZNSt3__16thread4joinEv
Ltmp45:
	b	LBB12_3
LBB12_3:
	.loc	101 31 5 is_stmt 1              ; libframework/framework/src/Thread.cpp:31:5
	b	LBB12_5
LBB12_4:
Ltmp46:
	.loc	101 0 5 is_stmt 0               ; libframework/framework/src/Thread.cpp:0:5
	ldr	x8, [sp, #8]                    ; 8-byte Folded Reload
	.loc	101 32 1 is_stmt 1              ; libframework/framework/src/Thread.cpp:32:1
	mov	x9, x1
	str	x0, [sp, #24]
	str	w9, [sp, #20]
Ltmp51:
	.loc	101 32 1 is_stmt 0              ; libframework/framework/src/Thread.cpp:32:1
	add	x0, x8, #8
	bl	__ZNSt3__110unique_ptrINS_6threadENS_14default_deleteIS1_EEED1Ev
	b	LBB12_6
LBB12_5:
	.loc	101 0 1                         ; libframework/framework/src/Thread.cpp:0:1
	ldr	x8, [sp, #8]                    ; 8-byte Folded Reload
	.loc	101 32 1                        ; libframework/framework/src/Thread.cpp:32:1
	add	x0, x8, #8
	bl	__ZNSt3__110unique_ptrINS_6threadENS_14default_deleteIS1_EEED1Ev
Ltmp52:
	.loc	101 32 1                        ; libframework/framework/src/Thread.cpp:32:1
	ldur	x0, [x29, #-8]
	ldp	x29, x30, [sp, #48]             ; 16-byte Folded Reload
	add	sp, sp, #64
	ret
LBB12_6:
Ltmp53:
	.loc	101 32 1                        ; libframework/framework/src/Thread.cpp:32:1
	ldr	x0, [sp, #24]
	bl	___clang_call_terminate
Ltmp54:
Lfunc_end12:
	.cfi_endproc
	.section	__TEXT,__gcc_except_tab
	.p2align	2
GCC_except_table12:
Lexception2:
	.byte	255                             ; @LPStart Encoding = omit
	.byte	155                             ; @TType Encoding = indirect pcrel sdata4
	.uleb128 Lttbase0-Lttbaseref0
Lttbaseref0:
	.byte	1                               ; Call site Encoding = uleb128
	.uleb128 Lcst_end2-Lcst_begin2
Lcst_begin2:
	.uleb128 Ltmp44-Lfunc_begin12           ; >> Call Site 1 <<
	.uleb128 Ltmp45-Ltmp44                  ;   Call between Ltmp44 and Ltmp45
	.uleb128 Ltmp46-Lfunc_begin12           ;     jumps to Ltmp46
	.byte	1                               ;   On action: 1
Lcst_end2:
	.byte	1                               ; >> Action Record 1 <<
                                        ;   Catch TypeInfo 1
	.byte	0                               ;   No further actions
	.p2align	2
                                        ; >> Catch TypeInfos <<
	.long	0                               ; TypeInfo 1
Lttbase0:
	.p2align	2
                                        ; -- End function
	.section	__TEXT,__text,regular,pure_instructions
	.p2align	2                               ; -- Begin function _ZNKSt3__110unique_ptrINS_6threadENS_14default_deleteIS1_EEEptEv
__ZNKSt3__110unique_ptrINS_6threadENS_14default_deleteIS1_EEEptEv: ; @_ZNKSt3__110unique_ptrINS_6threadENS_14default_deleteIS1_EEEptEv
Lfunc_begin13:
	.loc	45 286 0 is_stmt 1              ; /Applications/Xcode.app/Contents/Developer/Platforms/MacOSX.platform/Developer/SDKs/MacOSX13.1.sdk/usr/include/c++/v1/__memory/unique_ptr.h:286:0
	.cfi_startproc
; %bb.0:
	sub	sp, sp, #32
	stp	x29, x30, [sp, #16]             ; 16-byte Folded Spill
	add	x29, sp, #16
	.cfi_def_cfa w29, 16
	.cfi_offset w30, -8
	.cfi_offset w29, -16
	str	x0, [sp, #8]
	ldr	x0, [sp, #8]
Ltmp55:
	.loc	45 287 19 prologue_end          ; /Applications/Xcode.app/Contents/Developer/Platforms/MacOSX.platform/Developer/SDKs/MacOSX13.1.sdk/usr/include/c++/v1/__memory/unique_ptr.h:287:19
	bl	__ZNKSt3__117__compressed_pairIPNS_6threadENS_14default_deleteIS1_EEE5firstEv
	ldr	x0, [x0]
	.loc	45 287 5 is_stmt 0              ; /Applications/Xcode.app/Contents/Developer/Platforms/MacOSX.platform/Developer/SDKs/MacOSX13.1.sdk/usr/include/c++/v1/__memory/unique_ptr.h:287:5
	ldp	x29, x30, [sp, #16]             ; 16-byte Folded Reload
	add	sp, sp, #32
	ret
Ltmp56:
Lfunc_end13:
	.cfi_endproc
                                        ; -- End function
	.p2align	2                               ; -- Begin function _ZNKSt3__16thread8joinableEv
__ZNKSt3__16thread8joinableEv:          ; @_ZNKSt3__16thread8joinableEv
Lfunc_begin14:
	.loc	44 266 0 is_stmt 1              ; /Applications/Xcode.app/Contents/Developer/Platforms/MacOSX.platform/Developer/SDKs/MacOSX13.1.sdk/usr/include/c++/v1/thread:266:0
	.cfi_startproc
	.cfi_personality 155, ___gxx_personality_v0
	.cfi_lsda 16, Lexception3
; %bb.0:
	sub	sp, sp, #32
	stp	x29, x30, [sp, #16]             ; 16-byte Folded Spill
	add	x29, sp, #16
	.cfi_def_cfa w29, 16
	.cfi_offset w30, -8
	.cfi_offset w29, -16
	str	x0, [sp, #8]
	ldr	x0, [sp, #8]
Ltmp57:
Ltmp60:
	.loc	44 266 45 prologue_end          ; /Applications/Xcode.app/Contents/Developer/Platforms/MacOSX.platform/Developer/SDKs/MacOSX13.1.sdk/usr/include/c++/v1/thread:266:45
	bl	__ZNSt3__1L22__libcpp_thread_isnullEPKP17_opaque_pthread_t
	str	w0, [sp, #4]                    ; 4-byte Folded Spill
Ltmp58:
	b	LBB14_1
LBB14_1:
	.loc	44 0 45 is_stmt 0               ; /Applications/Xcode.app/Contents/Developer/Platforms/MacOSX.platform/Developer/SDKs/MacOSX13.1.sdk/usr/include/c++/v1/thread:0:45
	ldr	w8, [sp, #4]                    ; 4-byte Folded Reload
	.loc	44 266 44                       ; /Applications/Xcode.app/Contents/Developer/Platforms/MacOSX.platform/Developer/SDKs/MacOSX13.1.sdk/usr/include/c++/v1/thread:266:44
	eor	w8, w8, #0x1
	.loc	44 266 37                       ; /Applications/Xcode.app/Contents/Developer/Platforms/MacOSX.platform/Developer/SDKs/MacOSX13.1.sdk/usr/include/c++/v1/thread:266:37
	and	w0, w8, #0x1
	ldp	x29, x30, [sp, #16]             ; 16-byte Folded Reload
	add	sp, sp, #32
	ret
LBB14_2:
Ltmp59:
	.loc	44 266 45                       ; /Applications/Xcode.app/Contents/Developer/Platforms/MacOSX.platform/Developer/SDKs/MacOSX13.1.sdk/usr/include/c++/v1/thread:266:45
	bl	___clang_call_terminate
Ltmp61:
Lfunc_end14:
	.cfi_endproc
	.section	__TEXT,__gcc_except_tab
	.p2align	2
GCC_except_table14:
Lexception3:
	.byte	255                             ; @LPStart Encoding = omit
	.byte	155                             ; @TType Encoding = indirect pcrel sdata4
	.uleb128 Lttbase1-Lttbaseref1
Lttbaseref1:
	.byte	1                               ; Call site Encoding = uleb128
	.uleb128 Lcst_end3-Lcst_begin3
Lcst_begin3:
	.uleb128 Ltmp57-Lfunc_begin14           ; >> Call Site 1 <<
	.uleb128 Ltmp58-Ltmp57                  ;   Call between Ltmp57 and Ltmp58
	.uleb128 Ltmp59-Lfunc_begin14           ;     jumps to Ltmp59
	.byte	1                               ;   On action: 1
Lcst_end3:
	.byte	1                               ; >> Action Record 1 <<
                                        ;   Catch TypeInfo 1
	.byte	0                               ;   No further actions
	.p2align	2
                                        ; >> Catch TypeInfos <<
	.long	0                               ; TypeInfo 1
Lttbase1:
	.p2align	2
                                        ; -- End function
	.section	__TEXT,__text,regular,pure_instructions
	.private_extern	___clang_call_terminate ; -- Begin function __clang_call_terminate
	.globl	___clang_call_terminate
	.weak_definition	___clang_call_terminate
	.p2align	2
___clang_call_terminate:                ; @__clang_call_terminate
Lfunc_begin15:
	.cfi_startproc
; %bb.0:
	stp	x29, x30, [sp, #-16]!           ; 16-byte Folded Spill
	.cfi_def_cfa_offset 16
	.cfi_offset w30, -8
	.cfi_offset w29, -16
	bl	___cxa_begin_catch
	bl	__ZSt9terminatev
Lfunc_end15:
	.cfi_endproc
                                        ; -- End function
	.globl	__ZN6ThreadD1Ev                 ; -- Begin function _ZN6ThreadD1Ev
	.p2align	2
__ZN6ThreadD1Ev:                        ; @_ZN6ThreadD1Ev
Lfunc_begin16:
	.loc	101 26 0 is_stmt 1              ; libframework/framework/src/Thread.cpp:26:0
	.cfi_startproc
; %bb.0:
	sub	sp, sp, #16
	.cfi_def_cfa_offset 16
	str	x0, [sp]
	ldr	x8, [sp]
	str	x8, [sp, #8]
Ltmp63:
	.loc	101 26 19 prologue_end          ; libframework/framework/src/Thread.cpp:26:19
	brk	#0x1
Ltmp64:
Lfunc_end16:
	.cfi_endproc
                                        ; -- End function
	.globl	__ZN6ThreadD0Ev                 ; -- Begin function _ZN6ThreadD0Ev
	.p2align	2
__ZN6ThreadD0Ev:                        ; @_ZN6ThreadD0Ev
Lfunc_begin17:
	.loc	101 26 0                        ; libframework/framework/src/Thread.cpp:26:0
	.cfi_startproc
; %bb.0:
	sub	sp, sp, #16
	.cfi_def_cfa_offset 16
	str	x0, [sp, #8]
Ltmp66:
	.loc	101 26 19 prologue_end          ; libframework/framework/src/Thread.cpp:26:19
	brk	#0x1
Ltmp67:
Lfunc_end17:
	.cfi_endproc
                                        ; -- End function
	.globl	__ZN6Thread11requestExitEv      ; -- Begin function _ZN6Thread11requestExitEv
	.p2align	2
__ZN6Thread11requestExitEv:             ; @_ZN6Thread11requestExitEv
Lfunc_begin18:
	.loc	101 34 0                        ; libframework/framework/src/Thread.cpp:34:0
	.cfi_startproc
; %bb.0:
	sub	sp, sp, #32
	stp	x29, x30, [sp, #16]             ; 16-byte Folded Spill
	add	x29, sp, #16
	.cfi_def_cfa w29, 16
	.cfi_offset w30, -8
	.cfi_offset w29, -16
	str	x0, [sp, #8]
	ldr	x8, [sp, #8]
Ltmp68:
	.loc	101 35 5 prologue_end           ; libframework/framework/src/Thread.cpp:35:5
	add	x0, x8, #17
	mov	w8, #1
	.loc	101 35 11 is_stmt 0             ; libframework/framework/src/Thread.cpp:35:11
	and	w1, w8, #0x1
	mov	w2, #5
	bl	__ZNSt3__113__atomic_baseIbLb0EE5storeEbNS_12memory_orderE
	.loc	101 36 1 is_stmt 1              ; libframework/framework/src/Thread.cpp:36:1
	ldp	x29, x30, [sp, #16]             ; 16-byte Folded Reload
	add	sp, sp, #32
	ret
Ltmp69:
Lfunc_end18:
	.cfi_endproc
                                        ; -- End function
	.globl	__ZN6Thread18requestExitAndWaitEv ; -- Begin function _ZN6Thread18requestExitAndWaitEv
	.p2align	2
__ZN6Thread18requestExitAndWaitEv:      ; @_ZN6Thread18requestExitAndWaitEv
Lfunc_begin19:
	.loc	101 38 0                        ; libframework/framework/src/Thread.cpp:38:0
	.cfi_startproc
; %bb.0:
	sub	sp, sp, #32
	stp	x29, x30, [sp, #16]             ; 16-byte Folded Spill
	add	x29, sp, #16
	.cfi_def_cfa w29, 16
	.cfi_offset w30, -8
	.cfi_offset w29, -16
	str	x0, [sp, #8]
	ldr	x8, [sp, #8]
	str	x8, [sp]                        ; 8-byte Folded Spill
Ltmp70:
	.loc	101 39 5 prologue_end           ; libframework/framework/src/Thread.cpp:39:5
	add	x0, x8, #17
	mov	w8, #1
	.loc	101 39 11 is_stmt 0             ; libframework/framework/src/Thread.cpp:39:11
	and	w1, w8, #0x1
	mov	w2, #5
	bl	__ZNSt3__113__atomic_baseIbLb0EE5storeEbNS_12memory_orderE
	ldr	x8, [sp]                        ; 8-byte Folded Reload
	.loc	101 40 5 is_stmt 1              ; libframework/framework/src/Thread.cpp:40:5
	add	x0, x8, #8
	bl	__ZNKSt3__110unique_ptrINS_6threadENS_14default_deleteIS1_EEEptEv
	.loc	101 40 14 is_stmt 0             ; libframework/framework/src/Thread.cpp:40:14
	bl	__ZNSt3__16thread4joinEv
	.loc	101 41 1 is_stmt 1              ; libframework/framework/src/Thread.cpp:41:1
	ldp	x29, x30, [sp, #16]             ; 16-byte Folded Reload
	add	sp, sp, #32
	ret
Ltmp71:
Lfunc_end19:
	.cfi_endproc
                                        ; -- End function
	.globl	__ZN6Thread4joinEv              ; -- Begin function _ZN6Thread4joinEv
	.p2align	2
__ZN6Thread4joinEv:                     ; @_ZN6Thread4joinEv
Lfunc_begin20:
	.loc	101 43 0                        ; libframework/framework/src/Thread.cpp:43:0
	.cfi_startproc
; %bb.0:
	sub	sp, sp, #32
	stp	x29, x30, [sp, #16]             ; 16-byte Folded Spill
	add	x29, sp, #16
	.cfi_def_cfa w29, 16
	.cfi_offset w30, -8
	.cfi_offset w29, -16
	str	x0, [sp, #8]
	ldr	x8, [sp, #8]
	str	x8, [sp]                        ; 8-byte Folded Spill
Ltmp72:
	.loc	101 45 9 prologue_end           ; libframework/framework/src/Thread.cpp:45:9
	add	x0, x8, #8
	bl	__ZNKSt3__110unique_ptrINS_6threadENS_14default_deleteIS1_EEEcvbEv
Ltmp73:
	.loc	101 45 9 is_stmt 0              ; libframework/framework/src/Thread.cpp:45:9
	tbz	w0, #0, LBB20_2
	b	LBB20_1
LBB20_1:
	.loc	101 0 9                         ; libframework/framework/src/Thread.cpp:0:9
	ldr	x8, [sp]                        ; 8-byte Folded Reload
Ltmp74:
	.loc	101 46 9 is_stmt 1              ; libframework/framework/src/Thread.cpp:46:9
	add	x0, x8, #8
	bl	__ZNKSt3__110unique_ptrINS_6threadENS_14default_deleteIS1_EEEptEv
	.loc	101 46 18 is_stmt 0             ; libframework/framework/src/Thread.cpp:46:18
	bl	__ZNSt3__16thread4joinEv
	.loc	101 47 5 is_stmt 1              ; libframework/framework/src/Thread.cpp:47:5
	b	LBB20_2
Ltmp75:
LBB20_2:
	.loc	101 48 1                        ; libframework/framework/src/Thread.cpp:48:1
	ldp	x29, x30, [sp, #16]             ; 16-byte Folded Reload
	add	sp, sp, #32
	ret
Ltmp76:
Lfunc_end20:
	.cfi_endproc
                                        ; -- End function
	.p2align	2                               ; -- Begin function _ZNSt3__1L22__libcpp_thread_isnullEPKP17_opaque_pthread_t
__ZNSt3__1L22__libcpp_thread_isnullEPKP17_opaque_pthread_t: ; @_ZNSt3__1L22__libcpp_thread_isnullEPKP17_opaque_pthread_t
Lfunc_begin21:
	.loc	43 414 0                        ; /Applications/Xcode.app/Contents/Developer/Platforms/MacOSX.platform/Developer/SDKs/MacOSX13.1.sdk/usr/include/c++/v1/__threading_support:414:0
	.cfi_startproc
; %bb.0:
	sub	sp, sp, #32
	stp	x29, x30, [sp, #16]             ; 16-byte Folded Spill
	add	x29, sp, #16
	.cfi_def_cfa w29, 16
	.cfi_offset w30, -8
	.cfi_offset w29, -16
	str	x0, [sp, #8]
Ltmp77:
	.loc	43 415 33 prologue_end          ; /Applications/Xcode.app/Contents/Developer/Platforms/MacOSX.platform/Developer/SDKs/MacOSX13.1.sdk/usr/include/c++/v1/__threading_support:415:33
	ldr	x0, [sp, #8]
	.loc	43 415 10 is_stmt 0             ; /Applications/Xcode.app/Contents/Developer/Platforms/MacOSX.platform/Developer/SDKs/MacOSX13.1.sdk/usr/include/c++/v1/__threading_support:415:10
	bl	__ZNSt3__1L22__libcpp_thread_get_idEPKP17_opaque_pthread_t
	.loc	43 415 38                       ; /Applications/Xcode.app/Contents/Developer/Platforms/MacOSX.platform/Developer/SDKs/MacOSX13.1.sdk/usr/include/c++/v1/__threading_support:415:38
	subs	x8, x0, #0
	cset	w8, eq
	.loc	43 415 3                        ; /Applications/Xcode.app/Contents/Developer/Platforms/MacOSX.platform/Developer/SDKs/MacOSX13.1.sdk/usr/include/c++/v1/__threading_support:415:3
	and	w0, w8, #0x1
	ldp	x29, x30, [sp, #16]             ; 16-byte Folded Reload
	add	sp, sp, #32
	ret
Ltmp78:
Lfunc_end21:
	.cfi_endproc
                                        ; -- End function
	.p2align	2                               ; -- Begin function _ZNSt3__1L22__libcpp_thread_get_idEPKP17_opaque_pthread_t
__ZNSt3__1L22__libcpp_thread_get_idEPKP17_opaque_pthread_t: ; @_ZNSt3__1L22__libcpp_thread_get_idEPKP17_opaque_pthread_t
Lfunc_begin22:
	.loc	43 431 0 is_stmt 1              ; /Applications/Xcode.app/Contents/Developer/Platforms/MacOSX.platform/Developer/SDKs/MacOSX13.1.sdk/usr/include/c++/v1/__threading_support:431:0
	.cfi_startproc
; %bb.0:
	sub	sp, sp, #16
	.cfi_def_cfa_offset 16
	str	x0, [sp, #8]
Ltmp80:
	.loc	43 435 11 prologue_end          ; /Applications/Xcode.app/Contents/Developer/Platforms/MacOSX.platform/Developer/SDKs/MacOSX13.1.sdk/usr/include/c++/v1/__threading_support:435:11
	ldr	x8, [sp, #8]
	.loc	43 435 10 is_stmt 0             ; /Applications/Xcode.app/Contents/Developer/Platforms/MacOSX.platform/Developer/SDKs/MacOSX13.1.sdk/usr/include/c++/v1/__threading_support:435:10
	ldr	x0, [x8]
	.loc	43 435 3                        ; /Applications/Xcode.app/Contents/Developer/Platforms/MacOSX.platform/Developer/SDKs/MacOSX13.1.sdk/usr/include/c++/v1/__threading_support:435:3
	add	sp, sp, #16
	ret
Ltmp81:
Lfunc_end22:
	.cfi_endproc
                                        ; -- End function
	.p2align	2                               ; -- Begin function _ZNSt3__110unique_ptrINS_6threadENS_14default_deleteIS1_EEED2Ev
__ZNSt3__110unique_ptrINS_6threadENS_14default_deleteIS1_EEED2Ev: ; @_ZNSt3__110unique_ptrINS_6threadENS_14default_deleteIS1_EEED2Ev
Lfunc_begin23:
	.loc	45 272 0 is_stmt 1              ; /Applications/Xcode.app/Contents/Developer/Platforms/MacOSX.platform/Developer/SDKs/MacOSX13.1.sdk/usr/include/c++/v1/__memory/unique_ptr.h:272:0
	.cfi_startproc
; %bb.0:
	sub	sp, sp, #32
	stp	x29, x30, [sp, #16]             ; 16-byte Folded Spill
	add	x29, sp, #16
	.cfi_def_cfa w29, 16
	.cfi_offset w30, -8
	.cfi_offset w29, -16
	str	x0, [sp, #8]
	ldr	x0, [sp, #8]
	str	x0, [sp]                        ; 8-byte Folded Spill
	mov	x1, #0
Ltmp82:
	.loc	45 272 19 prologue_end          ; /Applications/Xcode.app/Contents/Developer/Platforms/MacOSX.platform/Developer/SDKs/MacOSX13.1.sdk/usr/include/c++/v1/__memory/unique_ptr.h:272:19
	bl	__ZNSt3__110unique_ptrINS_6threadENS_14default_deleteIS1_EEE5resetEPS1_
	ldr	x0, [sp]                        ; 8-byte Folded Reload
Ltmp83:
	.loc	45 272 28 is_stmt 0             ; /Applications/Xcode.app/Contents/Developer/Platforms/MacOSX.platform/Developer/SDKs/MacOSX13.1.sdk/usr/include/c++/v1/__memory/unique_ptr.h:272:28
	ldp	x29, x30, [sp, #16]             ; 16-byte Folded Reload
	add	sp, sp, #32
	ret
Ltmp84:
Lfunc_end23:
	.cfi_endproc
                                        ; -- End function
	.p2align	2                               ; -- Begin function _ZNSt3__110unique_ptrINS_6threadENS_14default_deleteIS1_EEE5resetEPS1_
__ZNSt3__110unique_ptrINS_6threadENS_14default_deleteIS1_EEE5resetEPS1_: ; @_ZNSt3__110unique_ptrINS_6threadENS_14default_deleteIS1_EEE5resetEPS1_
Lfunc_begin24:
	.loc	45 314 0 is_stmt 1              ; /Applications/Xcode.app/Contents/Developer/Platforms/MacOSX.platform/Developer/SDKs/MacOSX13.1.sdk/usr/include/c++/v1/__memory/unique_ptr.h:314:0
	.cfi_startproc
; %bb.0:
	sub	sp, sp, #64
	stp	x29, x30, [sp, #48]             ; 16-byte Folded Spill
	add	x29, sp, #48
	.cfi_def_cfa w29, 16
	.cfi_offset w30, -8
	.cfi_offset w29, -16
	stur	x0, [x29, #-8]
	stur	x1, [x29, #-16]
	ldur	x0, [x29, #-8]
	str	x0, [sp, #8]                    ; 8-byte Folded Spill
Ltmp85:
	.loc	45 315 28 prologue_end          ; /Applications/Xcode.app/Contents/Developer/Platforms/MacOSX.platform/Developer/SDKs/MacOSX13.1.sdk/usr/include/c++/v1/__memory/unique_ptr.h:315:28
	bl	__ZNSt3__117__compressed_pairIPNS_6threadENS_14default_deleteIS1_EEE5firstEv
	mov	x8, x0
	ldr	x0, [sp, #8]                    ; 8-byte Folded Reload
	ldr	x8, [x8]
	.loc	45 315 13 is_stmt 0             ; /Applications/Xcode.app/Contents/Developer/Platforms/MacOSX.platform/Developer/SDKs/MacOSX13.1.sdk/usr/include/c++/v1/__memory/unique_ptr.h:315:13
	str	x8, [sp, #24]
	.loc	45 316 22 is_stmt 1             ; /Applications/Xcode.app/Contents/Developer/Platforms/MacOSX.platform/Developer/SDKs/MacOSX13.1.sdk/usr/include/c++/v1/__memory/unique_ptr.h:316:22
	ldur	x8, [x29, #-16]
	str	x8, [sp, #16]                   ; 8-byte Folded Spill
	.loc	45 316 12 is_stmt 0             ; /Applications/Xcode.app/Contents/Developer/Platforms/MacOSX.platform/Developer/SDKs/MacOSX13.1.sdk/usr/include/c++/v1/__memory/unique_ptr.h:316:12
	bl	__ZNSt3__117__compressed_pairIPNS_6threadENS_14default_deleteIS1_EEE5firstEv
	ldr	x8, [sp, #16]                   ; 8-byte Folded Reload
	.loc	45 316 20                       ; /Applications/Xcode.app/Contents/Developer/Platforms/MacOSX.platform/Developer/SDKs/MacOSX13.1.sdk/usr/include/c++/v1/__memory/unique_ptr.h:316:20
	str	x8, [x0]
Ltmp86:
	.loc	45 317 9 is_stmt 1              ; /Applications/Xcode.app/Contents/Developer/Platforms/MacOSX.platform/Developer/SDKs/MacOSX13.1.sdk/usr/include/c++/v1/__memory/unique_ptr.h:317:9
	ldr	x8, [sp, #24]
Ltmp87:
	.loc	45 317 9 is_stmt 0              ; /Applications/Xcode.app/Contents/Developer/Platforms/MacOSX.platform/Developer/SDKs/MacOSX13.1.sdk/usr/include/c++/v1/__memory/unique_ptr.h:317:9
	cbz	x8, LBB24_2
	b	LBB24_1
LBB24_1:
	.loc	45 0 9                          ; /Applications/Xcode.app/Contents/Developer/Platforms/MacOSX.platform/Developer/SDKs/MacOSX13.1.sdk/usr/include/c++/v1/__memory/unique_ptr.h:0:9
	ldr	x0, [sp, #8]                    ; 8-byte Folded Reload
Ltmp88:
	.loc	45 318 14 is_stmt 1             ; /Applications/Xcode.app/Contents/Developer/Platforms/MacOSX.platform/Developer/SDKs/MacOSX13.1.sdk/usr/include/c++/v1/__memory/unique_ptr.h:318:14
	bl	__ZNSt3__117__compressed_pairIPNS_6threadENS_14default_deleteIS1_EEE6secondEv
	.loc	45 318 23 is_stmt 0             ; /Applications/Xcode.app/Contents/Developer/Platforms/MacOSX.platform/Developer/SDKs/MacOSX13.1.sdk/usr/include/c++/v1/__memory/unique_ptr.h:318:23
	ldr	x1, [sp, #24]
	.loc	45 318 7                        ; /Applications/Xcode.app/Contents/Developer/Platforms/MacOSX.platform/Developer/SDKs/MacOSX13.1.sdk/usr/include/c++/v1/__memory/unique_ptr.h:318:7
	bl	__ZNKSt3__114default_deleteINS_6threadEEclEPS1_
	b	LBB24_2
Ltmp89:
LBB24_2:
	.loc	45 319 3 is_stmt 1              ; /Applications/Xcode.app/Contents/Developer/Platforms/MacOSX.platform/Developer/SDKs/MacOSX13.1.sdk/usr/include/c++/v1/__memory/unique_ptr.h:319:3
	ldp	x29, x30, [sp, #48]             ; 16-byte Folded Reload
	add	sp, sp, #64
	ret
Ltmp90:
Lfunc_end24:
	.cfi_endproc
                                        ; -- End function
	.p2align	2                               ; -- Begin function _ZNSt3__117__compressed_pairIPNS_6threadENS_14default_deleteIS1_EEE5firstEv
__ZNSt3__117__compressed_pairIPNS_6threadENS_14default_deleteIS1_EEE5firstEv: ; @_ZNSt3__117__compressed_pairIPNS_6threadENS_14default_deleteIS1_EEE5firstEv
Lfunc_begin25:
	.loc	6 150 0                         ; /Applications/Xcode.app/Contents/Developer/Platforms/MacOSX.platform/Developer/SDKs/MacOSX13.1.sdk/usr/include/c++/v1/__memory/compressed_pair.h:150:0
	.cfi_startproc
; %bb.0:
	sub	sp, sp, #32
	stp	x29, x30, [sp, #16]             ; 16-byte Folded Spill
	add	x29, sp, #16
	.cfi_def_cfa w29, 16
	.cfi_offset w30, -8
	.cfi_offset w29, -16
	str	x0, [sp, #8]
	ldr	x0, [sp, #8]
Ltmp91:
	.loc	6 151 40 prologue_end           ; /Applications/Xcode.app/Contents/Developer/Platforms/MacOSX.platform/Developer/SDKs/MacOSX13.1.sdk/usr/include/c++/v1/__memory/compressed_pair.h:151:40
	bl	__ZNSt3__122__compressed_pair_elemIPNS_6threadELi0ELb0EE5__getEv
	.loc	6 151 5 is_stmt 0               ; /Applications/Xcode.app/Contents/Developer/Platforms/MacOSX.platform/Developer/SDKs/MacOSX13.1.sdk/usr/include/c++/v1/__memory/compressed_pair.h:151:5
	ldp	x29, x30, [sp, #16]             ; 16-byte Folded Reload
	add	sp, sp, #32
	ret
Ltmp92:
Lfunc_end25:
	.cfi_endproc
                                        ; -- End function
	.p2align	2                               ; -- Begin function _ZNSt3__117__compressed_pairIPNS_6threadENS_14default_deleteIS1_EEE6secondEv
__ZNSt3__117__compressed_pairIPNS_6threadENS_14default_deleteIS1_EEE6secondEv: ; @_ZNSt3__117__compressed_pairIPNS_6threadENS_14default_deleteIS1_EEE6secondEv
Lfunc_begin26:
	.loc	6 160 0 is_stmt 1               ; /Applications/Xcode.app/Contents/Developer/Platforms/MacOSX.platform/Developer/SDKs/MacOSX13.1.sdk/usr/include/c++/v1/__memory/compressed_pair.h:160:0
	.cfi_startproc
; %bb.0:
	sub	sp, sp, #32
	stp	x29, x30, [sp, #16]             ; 16-byte Folded Spill
	add	x29, sp, #16
	.cfi_def_cfa w29, 16
	.cfi_offset w30, -8
	.cfi_offset w29, -16
	str	x0, [sp, #8]
	ldr	x0, [sp, #8]
Ltmp93:
	.loc	6 161 40 prologue_end           ; /Applications/Xcode.app/Contents/Developer/Platforms/MacOSX.platform/Developer/SDKs/MacOSX13.1.sdk/usr/include/c++/v1/__memory/compressed_pair.h:161:40
	bl	__ZNSt3__122__compressed_pair_elemINS_14default_deleteINS_6threadEEELi1ELb1EE5__getEv
	.loc	6 161 5 is_stmt 0               ; /Applications/Xcode.app/Contents/Developer/Platforms/MacOSX.platform/Developer/SDKs/MacOSX13.1.sdk/usr/include/c++/v1/__memory/compressed_pair.h:161:5
	ldp	x29, x30, [sp, #16]             ; 16-byte Folded Reload
	add	sp, sp, #32
	ret
Ltmp94:
Lfunc_end26:
	.cfi_endproc
                                        ; -- End function
	.p2align	2                               ; -- Begin function _ZNKSt3__114default_deleteINS_6threadEEclEPS1_
__ZNKSt3__114default_deleteINS_6threadEEclEPS1_: ; @_ZNKSt3__114default_deleteINS_6threadEEclEPS1_
Lfunc_begin27:
	.loc	45 52 0 is_stmt 1               ; /Applications/Xcode.app/Contents/Developer/Platforms/MacOSX.platform/Developer/SDKs/MacOSX13.1.sdk/usr/include/c++/v1/__memory/unique_ptr.h:52:0
	.cfi_startproc
; %bb.0:
	sub	sp, sp, #48
	stp	x29, x30, [sp, #32]             ; 16-byte Folded Spill
	add	x29, sp, #32
	.cfi_def_cfa w29, 16
	.cfi_offset w30, -8
	.cfi_offset w29, -16
	stur	x0, [x29, #-8]
	str	x1, [sp, #16]
Ltmp95:
	.loc	45 57 12 prologue_end           ; /Applications/Xcode.app/Contents/Developer/Platforms/MacOSX.platform/Developer/SDKs/MacOSX13.1.sdk/usr/include/c++/v1/__memory/unique_ptr.h:57:12
	ldr	x8, [sp, #16]
	str	x8, [sp, #8]                    ; 8-byte Folded Spill
	.loc	45 57 5 is_stmt 0               ; /Applications/Xcode.app/Contents/Developer/Platforms/MacOSX.platform/Developer/SDKs/MacOSX13.1.sdk/usr/include/c++/v1/__memory/unique_ptr.h:57:5
	cbz	x8, LBB27_2
	b	LBB27_1
LBB27_1:
	.loc	45 0 5                          ; /Applications/Xcode.app/Contents/Developer/Platforms/MacOSX.platform/Developer/SDKs/MacOSX13.1.sdk/usr/include/c++/v1/__memory/unique_ptr.h:0:5
	ldr	x0, [sp, #8]                    ; 8-byte Folded Reload
	.loc	45 57 5                         ; /Applications/Xcode.app/Contents/Developer/Platforms/MacOSX.platform/Developer/SDKs/MacOSX13.1.sdk/usr/include/c++/v1/__memory/unique_ptr.h:57:5
	bl	__ZNSt3__16threadD1Ev
	ldr	x0, [sp, #8]                    ; 8-byte Folded Reload
	bl	__ZdlPv
	b	LBB27_2
LBB27_2:
	.loc	45 58 3 is_stmt 1               ; /Applications/Xcode.app/Contents/Developer/Platforms/MacOSX.platform/Developer/SDKs/MacOSX13.1.sdk/usr/include/c++/v1/__memory/unique_ptr.h:58:3
	ldp	x29, x30, [sp, #32]             ; 16-byte Folded Reload
	add	sp, sp, #48
	ret
Ltmp96:
Lfunc_end27:
	.cfi_endproc
                                        ; -- End function
	.p2align	2                               ; -- Begin function _ZNSt3__122__compressed_pair_elemIPNS_6threadELi0ELb0EE5__getEv
__ZNSt3__122__compressed_pair_elemIPNS_6threadELi0ELb0EE5__getEv: ; @_ZNSt3__122__compressed_pair_elemIPNS_6threadELi0ELb0EE5__getEv
Lfunc_begin28:
	.loc	6 65 0                          ; /Applications/Xcode.app/Contents/Developer/Platforms/MacOSX.platform/Developer/SDKs/MacOSX13.1.sdk/usr/include/c++/v1/__memory/compressed_pair.h:65:0
	.cfi_startproc
; %bb.0:
	sub	sp, sp, #16
	.cfi_def_cfa_offset 16
	str	x0, [sp, #8]
	ldr	x0, [sp, #8]
Ltmp98:
	.loc	6 65 110 prologue_end           ; /Applications/Xcode.app/Contents/Developer/Platforms/MacOSX.platform/Developer/SDKs/MacOSX13.1.sdk/usr/include/c++/v1/__memory/compressed_pair.h:65:110
	add	sp, sp, #16
	ret
Ltmp99:
Lfunc_end28:
	.cfi_endproc
                                        ; -- End function
	.p2align	2                               ; -- Begin function _ZNSt3__122__compressed_pair_elemINS_14default_deleteINS_6threadEEELi1ELb1EE5__getEv
__ZNSt3__122__compressed_pair_elemINS_14default_deleteINS_6threadEEELi1ELb1EE5__getEv: ; @_ZNSt3__122__compressed_pair_elemINS_14default_deleteINS_6threadEEELi1ELb1EE5__getEv
Lfunc_begin29:
	.loc	6 103 0                         ; /Applications/Xcode.app/Contents/Developer/Platforms/MacOSX.platform/Developer/SDKs/MacOSX13.1.sdk/usr/include/c++/v1/__memory/compressed_pair.h:103:0
	.cfi_startproc
; %bb.0:
	sub	sp, sp, #16
	.cfi_def_cfa_offset 16
	str	x0, [sp, #8]
	ldr	x0, [sp, #8]
Ltmp101:
	.loc	6 103 110 prologue_end          ; /Applications/Xcode.app/Contents/Developer/Platforms/MacOSX.platform/Developer/SDKs/MacOSX13.1.sdk/usr/include/c++/v1/__memory/compressed_pair.h:103:110
	add	sp, sp, #16
	ret
Ltmp102:
Lfunc_end29:
	.cfi_endproc
                                        ; -- End function
	.p2align	2                               ; -- Begin function _ZNSt3__112basic_stringIcNS_11char_traitsIcEENS_9allocatorIcEEEC2IDnEEPKc
__ZNSt3__112basic_stringIcNS_11char_traitsIcEENS_9allocatorIcEEEC2IDnEEPKc: ; @_ZNSt3__112basic_stringIcNS_11char_traitsIcEENS_9allocatorIcEEEC2IDnEEPKc
Lfunc_begin30:
	.loc	4 840 0                         ; /Applications/Xcode.app/Contents/Developer/Platforms/MacOSX.platform/Developer/SDKs/MacOSX13.1.sdk/usr/include/c++/v1/string:840:0
	.cfi_startproc
; %bb.0:
	sub	sp, sp, #64
	stp	x29, x30, [sp, #48]             ; 16-byte Folded Spill
	add	x29, sp, #48
	.cfi_def_cfa w29, 16
	.cfi_offset w30, -8
	.cfi_offset w29, -16
	stur	x0, [x29, #-8]
	stur	x1, [x29, #-16]
	ldur	x0, [x29, #-8]
	str	x0, [sp, #16]                   ; 8-byte Folded Spill
	sub	x1, x29, #17
	sub	x2, x29, #18
Ltmp103:
	.loc	4 840 39 prologue_end           ; /Applications/Xcode.app/Contents/Developer/Platforms/MacOSX.platform/Developer/SDKs/MacOSX13.1.sdk/usr/include/c++/v1/string:840:39
	bl	__ZNSt3__117__compressed_pairINS_12basic_stringIcNS_11char_traitsIcEENS_9allocatorIcEEE5__repES5_EC1INS_18__default_init_tagESA_EEOT_OT0_
Ltmp104:
	.loc	4 842 14                        ; /Applications/Xcode.app/Contents/Developer/Platforms/MacOSX.platform/Developer/SDKs/MacOSX13.1.sdk/usr/include/c++/v1/string:842:14
	ldur	x8, [x29, #-16]
	str	x8, [sp, #8]                    ; 8-byte Folded Spill
	.loc	4 842 39 is_stmt 0              ; /Applications/Xcode.app/Contents/Developer/Platforms/MacOSX.platform/Developer/SDKs/MacOSX13.1.sdk/usr/include/c++/v1/string:842:39
	ldur	x0, [x29, #-16]
	.loc	4 842 19                        ; /Applications/Xcode.app/Contents/Developer/Platforms/MacOSX.platform/Developer/SDKs/MacOSX13.1.sdk/usr/include/c++/v1/string:842:19
	bl	__ZNSt3__111char_traitsIcE6lengthEPKc
	ldr	x1, [sp, #8]                    ; 8-byte Folded Reload
	mov	x2, x0
	ldr	x0, [sp, #16]                   ; 8-byte Folded Reload
	.loc	4 842 7                         ; /Applications/Xcode.app/Contents/Developer/Platforms/MacOSX.platform/Developer/SDKs/MacOSX13.1.sdk/usr/include/c++/v1/string:842:7
	bl	__ZNSt3__112basic_stringIcNS_11char_traitsIcEENS_9allocatorIcEEE6__initEPKcm
	ldr	x0, [sp, #16]                   ; 8-byte Folded Reload
Ltmp105:
	.loc	4 846 5 is_stmt 1               ; /Applications/Xcode.app/Contents/Developer/Platforms/MacOSX.platform/Developer/SDKs/MacOSX13.1.sdk/usr/include/c++/v1/string:846:5
	ldp	x29, x30, [sp, #48]             ; 16-byte Folded Reload
	add	sp, sp, #64
	ret
Ltmp106:
Lfunc_end30:
	.cfi_endproc
                                        ; -- End function
	.p2align	2                               ; -- Begin function _ZNSt3__117__compressed_pairINS_12basic_stringIcNS_11char_traitsIcEENS_9allocatorIcEEE5__repES5_EC1INS_18__default_init_tagESA_EEOT_OT0_
__ZNSt3__117__compressed_pairINS_12basic_stringIcNS_11char_traitsIcEENS_9allocatorIcEEE5__repES5_EC1INS_18__default_init_tagESA_EEOT_OT0_: ; @_ZNSt3__117__compressed_pairINS_12basic_stringIcNS_11char_traitsIcEENS_9allocatorIcEEE5__repES5_EC1INS_18__default_init_tagESA_EEOT_OT0_
Lfunc_begin31:
	.loc	6 136 0                         ; /Applications/Xcode.app/Contents/Developer/Platforms/MacOSX.platform/Developer/SDKs/MacOSX13.1.sdk/usr/include/c++/v1/__memory/compressed_pair.h:136:0
	.cfi_startproc
; %bb.0:
	sub	sp, sp, #48
	stp	x29, x30, [sp, #32]             ; 16-byte Folded Spill
	add	x29, sp, #32
	.cfi_def_cfa w29, 16
	.cfi_offset w30, -8
	.cfi_offset w29, -16
	stur	x0, [x29, #-8]
	str	x1, [sp, #16]
	str	x2, [sp, #8]
	ldur	x0, [x29, #-8]
	str	x0, [sp]                        ; 8-byte Folded Spill
Ltmp107:
	.loc	6 136 84 prologue_end           ; /Applications/Xcode.app/Contents/Developer/Platforms/MacOSX.platform/Developer/SDKs/MacOSX13.1.sdk/usr/include/c++/v1/__memory/compressed_pair.h:136:84
	ldr	x1, [sp, #16]
	ldr	x2, [sp, #8]
	bl	__ZNSt3__117__compressed_pairINS_12basic_stringIcNS_11char_traitsIcEENS_9allocatorIcEEE5__repES5_EC2INS_18__default_init_tagESA_EEOT_OT0_
	ldr	x0, [sp]                        ; 8-byte Folded Reload
	.loc	6 136 85 is_stmt 0              ; /Applications/Xcode.app/Contents/Developer/Platforms/MacOSX.platform/Developer/SDKs/MacOSX13.1.sdk/usr/include/c++/v1/__memory/compressed_pair.h:136:85
	ldp	x29, x30, [sp, #32]             ; 16-byte Folded Reload
	add	sp, sp, #48
	ret
Ltmp108:
Lfunc_end31:
	.cfi_endproc
                                        ; -- End function
	.globl	__ZNSt3__111char_traitsIcE6lengthEPKc ; -- Begin function _ZNSt3__111char_traitsIcE6lengthEPKc
	.weak_definition	__ZNSt3__111char_traitsIcE6lengthEPKc
	.p2align	2
__ZNSt3__111char_traitsIcE6lengthEPKc:  ; @_ZNSt3__111char_traitsIcE6lengthEPKc
Lfunc_begin32:
	.loc	1 342 0 is_stmt 1               ; /Applications/Xcode.app/Contents/Developer/Platforms/MacOSX.platform/Developer/SDKs/MacOSX13.1.sdk/usr/include/c++/v1/__string:342:0
	.cfi_startproc
; %bb.0:
	sub	sp, sp, #32
	stp	x29, x30, [sp, #16]             ; 16-byte Folded Spill
	add	x29, sp, #16
	.cfi_def_cfa w29, 16
	.cfi_offset w30, -8
	.cfi_offset w29, -16
	str	x0, [sp, #8]
Ltmp109:
	.loc	1 342 68 prologue_end           ; /Applications/Xcode.app/Contents/Developer/Platforms/MacOSX.platform/Developer/SDKs/MacOSX13.1.sdk/usr/include/c++/v1/__string:342:68
	ldr	x0, [sp, #8]
	.loc	1 342 51 is_stmt 0              ; /Applications/Xcode.app/Contents/Developer/Platforms/MacOSX.platform/Developer/SDKs/MacOSX13.1.sdk/usr/include/c++/v1/__string:342:51
	bl	_strlen
	.loc	1 342 44                        ; /Applications/Xcode.app/Contents/Developer/Platforms/MacOSX.platform/Developer/SDKs/MacOSX13.1.sdk/usr/include/c++/v1/__string:342:44
	ldp	x29, x30, [sp, #16]             ; 16-byte Folded Reload
	add	sp, sp, #32
	ret
Ltmp110:
Lfunc_end32:
	.cfi_endproc
                                        ; -- End function
	.p2align	2                               ; -- Begin function _ZNSt3__117__compressed_pairINS_12basic_stringIcNS_11char_traitsIcEENS_9allocatorIcEEE5__repES5_EC2INS_18__default_init_tagESA_EEOT_OT0_
__ZNSt3__117__compressed_pairINS_12basic_stringIcNS_11char_traitsIcEENS_9allocatorIcEEE5__repES5_EC2INS_18__default_init_tagESA_EEOT_OT0_: ; @_ZNSt3__117__compressed_pairINS_12basic_stringIcNS_11char_traitsIcEENS_9allocatorIcEEE5__repES5_EC2INS_18__default_init_tagESA_EEOT_OT0_
Lfunc_begin33:
	.loc	6 136 0 is_stmt 1               ; /Applications/Xcode.app/Contents/Developer/Platforms/MacOSX.platform/Developer/SDKs/MacOSX13.1.sdk/usr/include/c++/v1/__memory/compressed_pair.h:136:0
	.cfi_startproc
; %bb.0:
	sub	sp, sp, #64
	stp	x29, x30, [sp, #48]             ; 16-byte Folded Spill
	add	x29, sp, #48
	.cfi_def_cfa w29, 16
	.cfi_offset w30, -8
	.cfi_offset w29, -16
	stur	x0, [x29, #-8]
	stur	x1, [x29, #-16]
	str	x2, [sp, #24]
	ldur	x8, [x29, #-8]
	str	x8, [sp, #8]                    ; 8-byte Folded Spill
Ltmp111:
	.loc	6 136 39 prologue_end           ; /Applications/Xcode.app/Contents/Developer/Platforms/MacOSX.platform/Developer/SDKs/MacOSX13.1.sdk/usr/include/c++/v1/__memory/compressed_pair.h:136:39
	ldur	x0, [x29, #-16]
	.loc	6 136 16 is_stmt 0              ; /Applications/Xcode.app/Contents/Developer/Platforms/MacOSX.platform/Developer/SDKs/MacOSX13.1.sdk/usr/include/c++/v1/__memory/compressed_pair.h:136:16
	bl	__ZNSt3__1L7forwardINS_18__default_init_tagEEEOT_RNS_16remove_referenceIS2_E4typeE
	ldr	x0, [sp, #8]                    ; 8-byte Folded Reload
	.loc	6 136 9                         ; /Applications/Xcode.app/Contents/Developer/Platforms/MacOSX.platform/Developer/SDKs/MacOSX13.1.sdk/usr/include/c++/v1/__memory/compressed_pair.h:136:9
	bl	__ZNSt3__122__compressed_pair_elemINS_12basic_stringIcNS_11char_traitsIcEENS_9allocatorIcEEE5__repELi0ELb0EEC2ENS_18__default_init_tagE
	.loc	6 136 77                        ; /Applications/Xcode.app/Contents/Developer/Platforms/MacOSX.platform/Developer/SDKs/MacOSX13.1.sdk/usr/include/c++/v1/__memory/compressed_pair.h:136:77
	ldr	x0, [sp, #24]
	.loc	6 136 54                        ; /Applications/Xcode.app/Contents/Developer/Platforms/MacOSX.platform/Developer/SDKs/MacOSX13.1.sdk/usr/include/c++/v1/__memory/compressed_pair.h:136:54
	bl	__ZNSt3__1L7forwardINS_18__default_init_tagEEEOT_RNS_16remove_referenceIS2_E4typeE
	ldr	x0, [sp, #8]                    ; 8-byte Folded Reload
	.loc	6 136 47                        ; /Applications/Xcode.app/Contents/Developer/Platforms/MacOSX.platform/Developer/SDKs/MacOSX13.1.sdk/usr/include/c++/v1/__memory/compressed_pair.h:136:47
	bl	__ZNSt3__122__compressed_pair_elemINS_9allocatorIcEELi1ELb1EEC2ENS_18__default_init_tagE
	ldr	x0, [sp, #8]                    ; 8-byte Folded Reload
	.loc	6 136 85                        ; /Applications/Xcode.app/Contents/Developer/Platforms/MacOSX.platform/Developer/SDKs/MacOSX13.1.sdk/usr/include/c++/v1/__memory/compressed_pair.h:136:85
	ldp	x29, x30, [sp, #48]             ; 16-byte Folded Reload
	add	sp, sp, #64
	ret
Ltmp112:
Lfunc_end33:
	.cfi_endproc
                                        ; -- End function
	.p2align	2                               ; -- Begin function _ZNSt3__1L7forwardINS_18__default_init_tagEEEOT_RNS_16remove_referenceIS2_E4typeE
__ZNSt3__1L7forwardINS_18__default_init_tagEEEOT_RNS_16remove_referenceIS2_E4typeE: ; @_ZNSt3__1L7forwardINS_18__default_init_tagEEEOT_RNS_16remove_referenceIS2_E4typeE
Lfunc_begin34:
	.file	102 "/Applications/Xcode.app/Contents/Developer/Platforms/MacOSX.platform/Developer/SDKs/MacOSX13.1.sdk/usr/include/c++/v1/__utility" "forward.h"
	.loc	102 27 0 is_stmt 1              ; /Applications/Xcode.app/Contents/Developer/Platforms/MacOSX.platform/Developer/SDKs/MacOSX13.1.sdk/usr/include/c++/v1/__utility/forward.h:27:0
	.cfi_startproc
; %bb.0:
	sub	sp, sp, #16
	.cfi_def_cfa_offset 16
	str	x0, [sp, #8]
Ltmp114:
	.loc	102 28 29 prologue_end          ; /Applications/Xcode.app/Contents/Developer/Platforms/MacOSX.platform/Developer/SDKs/MacOSX13.1.sdk/usr/include/c++/v1/__utility/forward.h:28:29
	ldr	x0, [sp, #8]
	.loc	102 28 3 is_stmt 0              ; /Applications/Xcode.app/Contents/Developer/Platforms/MacOSX.platform/Developer/SDKs/MacOSX13.1.sdk/usr/include/c++/v1/__utility/forward.h:28:3
	add	sp, sp, #16
	ret
Ltmp115:
Lfunc_end34:
	.cfi_endproc
                                        ; -- End function
	.p2align	2                               ; -- Begin function _ZNSt3__122__compressed_pair_elemINS_12basic_stringIcNS_11char_traitsIcEENS_9allocatorIcEEE5__repELi0ELb0EEC2ENS_18__default_init_tagE
__ZNSt3__122__compressed_pair_elemINS_12basic_stringIcNS_11char_traitsIcEENS_9allocatorIcEEE5__repELi0ELb0EEC2ENS_18__default_init_tagE: ; @_ZNSt3__122__compressed_pair_elemINS_12basic_stringIcNS_11char_traitsIcEENS_9allocatorIcEEE5__repELi0ELb0EEC2ENS_18__default_init_tagE
Lfunc_begin35:
	.loc	6 41 0 is_stmt 1                ; /Applications/Xcode.app/Contents/Developer/Platforms/MacOSX.platform/Developer/SDKs/MacOSX13.1.sdk/usr/include/c++/v1/__memory/compressed_pair.h:41:0
	.cfi_startproc
; %bb.0:
	sub	sp, sp, #16
	.cfi_def_cfa_offset 16
	str	x0, [sp]
	ldr	x0, [sp]
Ltmp117:
	.loc	6 41 47 prologue_end            ; /Applications/Xcode.app/Contents/Developer/Platforms/MacOSX.platform/Developer/SDKs/MacOSX13.1.sdk/usr/include/c++/v1/__memory/compressed_pair.h:41:47
	add	sp, sp, #16
	ret
Ltmp118:
Lfunc_end35:
	.cfi_endproc
                                        ; -- End function
	.p2align	2                               ; -- Begin function _ZNSt3__122__compressed_pair_elemINS_9allocatorIcEELi1ELb1EEC2ENS_18__default_init_tagE
__ZNSt3__122__compressed_pair_elemINS_9allocatorIcEELi1ELb1EEC2ENS_18__default_init_tagE: ; @_ZNSt3__122__compressed_pair_elemINS_9allocatorIcEELi1ELb1EEC2ENS_18__default_init_tagE
Lfunc_begin36:
	.loc	6 82 0                          ; /Applications/Xcode.app/Contents/Developer/Platforms/MacOSX.platform/Developer/SDKs/MacOSX13.1.sdk/usr/include/c++/v1/__memory/compressed_pair.h:82:0
	.cfi_startproc
; %bb.0:
	sub	sp, sp, #48
	stp	x29, x30, [sp, #32]             ; 16-byte Folded Spill
	add	x29, sp, #32
	.cfi_def_cfa w29, 16
	.cfi_offset w30, -8
	.cfi_offset w29, -16
	str	x0, [sp, #16]
	ldr	x0, [sp, #16]
	str	x0, [sp, #8]                    ; 8-byte Folded Spill
Ltmp119:
	.loc	6 82 3 prologue_end             ; /Applications/Xcode.app/Contents/Developer/Platforms/MacOSX.platform/Developer/SDKs/MacOSX13.1.sdk/usr/include/c++/v1/__memory/compressed_pair.h:82:3
	bl	__ZNSt3__19allocatorIcEC2Ev
	ldr	x0, [sp, #8]                    ; 8-byte Folded Reload
	.loc	6 82 47 is_stmt 0               ; /Applications/Xcode.app/Contents/Developer/Platforms/MacOSX.platform/Developer/SDKs/MacOSX13.1.sdk/usr/include/c++/v1/__memory/compressed_pair.h:82:47
	ldp	x29, x30, [sp, #32]             ; 16-byte Folded Reload
	add	sp, sp, #48
	ret
Ltmp120:
Lfunc_end36:
	.cfi_endproc
                                        ; -- End function
	.p2align	2                               ; -- Begin function _ZNSt3__19allocatorIcEC2Ev
__ZNSt3__19allocatorIcEC2Ev:            ; @_ZNSt3__19allocatorIcEC2Ev
Lfunc_begin37:
	.loc	3 94 0 is_stmt 1                ; /Applications/Xcode.app/Contents/Developer/Platforms/MacOSX.platform/Developer/SDKs/MacOSX13.1.sdk/usr/include/c++/v1/__memory/allocator.h:94:0
	.cfi_startproc
; %bb.0:
	sub	sp, sp, #32
	stp	x29, x30, [sp, #16]             ; 16-byte Folded Spill
	add	x29, sp, #16
	.cfi_def_cfa w29, 16
	.cfi_offset w30, -8
	.cfi_offset w29, -16
	str	x0, [sp, #8]
	ldr	x0, [sp, #8]
	str	x0, [sp]                        ; 8-byte Folded Spill
Ltmp121:
	.loc	3 94 5 prologue_end             ; /Applications/Xcode.app/Contents/Developer/Platforms/MacOSX.platform/Developer/SDKs/MacOSX13.1.sdk/usr/include/c++/v1/__memory/allocator.h:94:5
	bl	__ZNSt3__116__non_trivial_ifILb1ENS_9allocatorIcEEEC2Ev
	ldr	x0, [sp]                        ; 8-byte Folded Reload
	.loc	3 94 34 is_stmt 0               ; /Applications/Xcode.app/Contents/Developer/Platforms/MacOSX.platform/Developer/SDKs/MacOSX13.1.sdk/usr/include/c++/v1/__memory/allocator.h:94:34
	ldp	x29, x30, [sp, #16]             ; 16-byte Folded Reload
	add	sp, sp, #32
	ret
Ltmp122:
Lfunc_end37:
	.cfi_endproc
                                        ; -- End function
	.p2align	2                               ; -- Begin function _ZNSt3__116__non_trivial_ifILb1ENS_9allocatorIcEEEC2Ev
__ZNSt3__116__non_trivial_ifILb1ENS_9allocatorIcEEEC2Ev: ; @_ZNSt3__116__non_trivial_ifILb1ENS_9allocatorIcEEEC2Ev
Lfunc_begin38:
	.loc	3 74 0 is_stmt 1                ; /Applications/Xcode.app/Contents/Developer/Platforms/MacOSX.platform/Developer/SDKs/MacOSX13.1.sdk/usr/include/c++/v1/__memory/allocator.h:74:0
	.cfi_startproc
; %bb.0:
	sub	sp, sp, #16
	.cfi_def_cfa_offset 16
	str	x0, [sp, #8]
	ldr	x0, [sp, #8]
Ltmp124:
	.loc	3 74 45 prologue_end            ; /Applications/Xcode.app/Contents/Developer/Platforms/MacOSX.platform/Developer/SDKs/MacOSX13.1.sdk/usr/include/c++/v1/__memory/allocator.h:74:45
	add	sp, sp, #16
	ret
Ltmp125:
Lfunc_end38:
	.cfi_endproc
                                        ; -- End function
	.p2align	2                               ; -- Begin function _ZNSt3__1L7forwardIM6ThreadFvvEEEOT_RNS_16remove_referenceIS4_E4typeE
__ZNSt3__1L7forwardIM6ThreadFvvEEEOT_RNS_16remove_referenceIS4_E4typeE: ; @_ZNSt3__1L7forwardIM6ThreadFvvEEEOT_RNS_16remove_referenceIS4_E4typeE
Lfunc_begin39:
	.loc	102 27 0                        ; /Applications/Xcode.app/Contents/Developer/Platforms/MacOSX.platform/Developer/SDKs/MacOSX13.1.sdk/usr/include/c++/v1/__utility/forward.h:27:0
	.cfi_startproc
; %bb.0:
	sub	sp, sp, #16
	.cfi_def_cfa_offset 16
	str	x0, [sp, #8]
Ltmp127:
	.loc	102 28 29 prologue_end          ; /Applications/Xcode.app/Contents/Developer/Platforms/MacOSX.platform/Developer/SDKs/MacOSX13.1.sdk/usr/include/c++/v1/__utility/forward.h:28:29
	ldr	x0, [sp, #8]
	.loc	102 28 3 is_stmt 0              ; /Applications/Xcode.app/Contents/Developer/Platforms/MacOSX.platform/Developer/SDKs/MacOSX13.1.sdk/usr/include/c++/v1/__utility/forward.h:28:3
	add	sp, sp, #16
	ret
Ltmp128:
Lfunc_end39:
	.cfi_endproc
                                        ; -- End function
	.p2align	2                               ; -- Begin function _ZNSt3__1L7forwardIP6ThreadEEOT_RNS_16remove_referenceIS3_E4typeE
__ZNSt3__1L7forwardIP6ThreadEEOT_RNS_16remove_referenceIS3_E4typeE: ; @_ZNSt3__1L7forwardIP6ThreadEEOT_RNS_16remove_referenceIS3_E4typeE
Lfunc_begin40:
	.loc	102 27 0 is_stmt 1              ; /Applications/Xcode.app/Contents/Developer/Platforms/MacOSX.platform/Developer/SDKs/MacOSX13.1.sdk/usr/include/c++/v1/__utility/forward.h:27:0
	.cfi_startproc
; %bb.0:
	sub	sp, sp, #16
	.cfi_def_cfa_offset 16
	str	x0, [sp, #8]
Ltmp130:
	.loc	102 28 29 prologue_end          ; /Applications/Xcode.app/Contents/Developer/Platforms/MacOSX.platform/Developer/SDKs/MacOSX13.1.sdk/usr/include/c++/v1/__utility/forward.h:28:29
	ldr	x0, [sp, #8]
	.loc	102 28 3 is_stmt 0              ; /Applications/Xcode.app/Contents/Developer/Platforms/MacOSX.platform/Developer/SDKs/MacOSX13.1.sdk/usr/include/c++/v1/__utility/forward.h:28:3
	add	sp, sp, #16
	ret
Ltmp131:
Lfunc_end40:
	.cfi_endproc
                                        ; -- End function
	.private_extern	__ZNSt3__16threadC1IM6ThreadFvvEJPS2_EvEEOT_DpOT0_ ; -- Begin function _ZNSt3__16threadC1IM6ThreadFvvEJPS2_EvEEOT_DpOT0_
	.globl	__ZNSt3__16threadC1IM6ThreadFvvEJPS2_EvEEOT_DpOT0_
	.weak_def_can_be_hidden	__ZNSt3__16threadC1IM6ThreadFvvEJPS2_EvEEOT_DpOT0_
	.p2align	2
__ZNSt3__16threadC1IM6ThreadFvvEJPS2_EvEEOT_DpOT0_: ; @_ZNSt3__16threadC1IM6ThreadFvvEJPS2_EvEEOT_DpOT0_
Lfunc_begin41:
	.loc	44 306 0 is_stmt 1              ; /Applications/Xcode.app/Contents/Developer/Platforms/MacOSX.platform/Developer/SDKs/MacOSX13.1.sdk/usr/include/c++/v1/thread:306:0
	.cfi_startproc
; %bb.0:
	sub	sp, sp, #48
	stp	x29, x30, [sp, #32]             ; 16-byte Folded Spill
	add	x29, sp, #32
	.cfi_def_cfa w29, 16
	.cfi_offset w30, -8
	.cfi_offset w29, -16
	stur	x0, [x29, #-8]
	str	x1, [sp, #16]
	str	x2, [sp, #8]
	ldur	x0, [x29, #-8]
	str	x0, [sp]                        ; 8-byte Folded Spill
Ltmp132:
	.loc	44 306 1 prologue_end           ; /Applications/Xcode.app/Contents/Developer/Platforms/MacOSX.platform/Developer/SDKs/MacOSX13.1.sdk/usr/include/c++/v1/thread:306:1
	ldr	x1, [sp, #16]
	ldr	x2, [sp, #8]
	bl	__ZNSt3__16threadC2IM6ThreadFvvEJPS2_EvEEOT_DpOT0_
	ldr	x0, [sp]                        ; 8-byte Folded Reload
	.loc	44 319 1                        ; /Applications/Xcode.app/Contents/Developer/Platforms/MacOSX.platform/Developer/SDKs/MacOSX13.1.sdk/usr/include/c++/v1/thread:319:1
	ldp	x29, x30, [sp, #32]             ; 16-byte Folded Reload
	add	sp, sp, #48
	ret
Ltmp133:
Lfunc_end41:
	.cfi_endproc
                                        ; -- End function
	.p2align	2                               ; -- Begin function _ZNSt3__110unique_ptrINS_6threadENS_14default_deleteIS1_EEEC1ILb1EvEEPS1_
__ZNSt3__110unique_ptrINS_6threadENS_14default_deleteIS1_EEEC1ILb1EvEEPS1_: ; @_ZNSt3__110unique_ptrINS_6threadENS_14default_deleteIS1_EEEC1ILb1EvEEPS1_
Lfunc_begin42:
	.loc	45 190 0                        ; /Applications/Xcode.app/Contents/Developer/Platforms/MacOSX.platform/Developer/SDKs/MacOSX13.1.sdk/usr/include/c++/v1/__memory/unique_ptr.h:190:0
	.cfi_startproc
; %bb.0:
	sub	sp, sp, #48
	stp	x29, x30, [sp, #32]             ; 16-byte Folded Spill
	add	x29, sp, #32
	.cfi_def_cfa w29, 16
	.cfi_offset w30, -8
	.cfi_offset w29, -16
	stur	x0, [x29, #-8]
	str	x1, [sp, #16]
	ldur	x0, [x29, #-8]
	str	x0, [sp, #8]                    ; 8-byte Folded Spill
Ltmp134:
	.loc	45 190 81 prologue_end          ; /Applications/Xcode.app/Contents/Developer/Platforms/MacOSX.platform/Developer/SDKs/MacOSX13.1.sdk/usr/include/c++/v1/__memory/unique_ptr.h:190:81
	ldr	x1, [sp, #16]
	bl	__ZNSt3__110unique_ptrINS_6threadENS_14default_deleteIS1_EEEC2ILb1EvEEPS1_
	ldr	x0, [sp, #8]                    ; 8-byte Folded Reload
	.loc	45 190 82 is_stmt 0             ; /Applications/Xcode.app/Contents/Developer/Platforms/MacOSX.platform/Developer/SDKs/MacOSX13.1.sdk/usr/include/c++/v1/__memory/unique_ptr.h:190:82
	ldp	x29, x30, [sp, #32]             ; 16-byte Folded Reload
	add	sp, sp, #48
	ret
Ltmp135:
Lfunc_end42:
	.cfi_endproc
                                        ; -- End function
	.private_extern	__ZNSt3__16threadC2IM6ThreadFvvEJPS2_EvEEOT_DpOT0_ ; -- Begin function _ZNSt3__16threadC2IM6ThreadFvvEJPS2_EvEEOT_DpOT0_
	.globl	__ZNSt3__16threadC2IM6ThreadFvvEJPS2_EvEEOT_DpOT0_
	.weak_def_can_be_hidden	__ZNSt3__16threadC2IM6ThreadFvvEJPS2_EvEEOT_DpOT0_
	.p2align	2
__ZNSt3__16threadC2IM6ThreadFvvEJPS2_EvEEOT_DpOT0_: ; @_ZNSt3__16threadC2IM6ThreadFvvEJPS2_EvEEOT_DpOT0_
Lfunc_begin43:
	.loc	44 306 0 is_stmt 1              ; /Applications/Xcode.app/Contents/Developer/Platforms/MacOSX.platform/Developer/SDKs/MacOSX13.1.sdk/usr/include/c++/v1/thread:306:0
	.cfi_startproc
	.cfi_personality 155, ___gxx_personality_v0
	.cfi_lsda 16, Lexception4
; %bb.0:
	sub	sp, sp, #192
	stp	x29, x30, [sp, #176]            ; 16-byte Folded Spill
	add	x29, sp, #176
	.cfi_def_cfa w29, 16
	.cfi_offset w30, -8
	.cfi_offset w29, -16
	stur	x0, [x29, #-8]
	stur	x1, [x29, #-16]
	stur	x2, [x29, #-24]
	ldur	x8, [x29, #-8]
	str	x8, [sp, #56]                   ; 8-byte Folded Spill
	mov	x0, #8
Ltmp152:
	.loc	44 308 18 prologue_end          ; /Applications/Xcode.app/Contents/Developer/Platforms/MacOSX.platform/Developer/SDKs/MacOSX13.1.sdk/usr/include/c++/v1/thread:308:18
	bl	__Znwm
	str	x0, [sp, #64]                   ; 8-byte Folded Spill
Ltmp136:
	.loc	44 308 22 is_stmt 0             ; /Applications/Xcode.app/Contents/Developer/Platforms/MacOSX.platform/Developer/SDKs/MacOSX13.1.sdk/usr/include/c++/v1/thread:308:22
	bl	__ZNSt3__115__thread_structC1Ev
Ltmp137:
	b	LBB43_1
LBB43_1:
	.loc	44 0 22                         ; /Applications/Xcode.app/Contents/Developer/Platforms/MacOSX.platform/Developer/SDKs/MacOSX13.1.sdk/usr/include/c++/v1/thread:0:22
	ldr	x1, [sp, #64]                   ; 8-byte Folded Reload
	sub	x0, x29, #32
	.loc	44 308 12                       ; /Applications/Xcode.app/Contents/Developer/Platforms/MacOSX.platform/Developer/SDKs/MacOSX13.1.sdk/usr/include/c++/v1/thread:308:12
	bl	__ZNSt3__110unique_ptrINS_15__thread_structENS_14default_deleteIS1_EEEC1ILb1EvEEPS1_
Ltmp139:
	mov	x0, #32
	.loc	44 311 13 is_stmt 1             ; /Applications/Xcode.app/Contents/Developer/Platforms/MacOSX.platform/Developer/SDKs/MacOSX13.1.sdk/usr/include/c++/v1/thread:311:13
	bl	__Znwm
	str	x0, [sp, #48]                   ; 8-byte Folded Spill
Ltmp140:
	b	LBB43_2
LBB43_2:
	.loc	44 0 13 is_stmt 0               ; /Applications/Xcode.app/Contents/Developer/Platforms/MacOSX.platform/Developer/SDKs/MacOSX13.1.sdk/usr/include/c++/v1/thread:0:13
	sub	x0, x29, #32
	.loc	44 311 21                       ; /Applications/Xcode.app/Contents/Developer/Platforms/MacOSX.platform/Developer/SDKs/MacOSX13.1.sdk/usr/include/c++/v1/thread:311:21
	bl	__ZNSt3__1L4moveIRNS_10unique_ptrINS_15__thread_structENS_14default_deleteIS2_EEEEEEONS_16remove_referenceIT_E4typeEOS8_
	str	x0, [sp, #24]                   ; 8-byte Folded Spill
	.loc	44 312 67 is_stmt 1             ; /Applications/Xcode.app/Contents/Developer/Platforms/MacOSX.platform/Developer/SDKs/MacOSX13.1.sdk/usr/include/c++/v1/thread:312:67
	ldur	x0, [x29, #-16]
	.loc	44 312 44 is_stmt 0             ; /Applications/Xcode.app/Contents/Developer/Platforms/MacOSX.platform/Developer/SDKs/MacOSX13.1.sdk/usr/include/c++/v1/thread:312:44
	bl	__ZNSt3__1L7forwardIM6ThreadFvvEEEOT_RNS_16remove_referenceIS4_E4typeE
Ltmp142:
	.loc	44 312 21                       ; /Applications/Xcode.app/Contents/Developer/Platforms/MacOSX.platform/Developer/SDKs/MacOSX13.1.sdk/usr/include/c++/v1/thread:312:21
	bl	__ZNSt3__1L12__decay_copyIM6ThreadFvvEEENS_5decayIT_E4typeEOS5_
	str	x0, [sp, #32]                   ; 8-byte Folded Spill
	str	x1, [sp, #40]                   ; 8-byte Folded Spill
Ltmp143:
	b	LBB43_3
LBB43_3:
	.loc	44 0 21                         ; /Applications/Xcode.app/Contents/Developer/Platforms/MacOSX.platform/Developer/SDKs/MacOSX13.1.sdk/usr/include/c++/v1/thread:0:21
	ldr	x8, [sp, #40]                   ; 8-byte Folded Reload
	ldr	x9, [sp, #32]                   ; 8-byte Folded Reload
	.loc	44 312 21                       ; /Applications/Xcode.app/Contents/Developer/Platforms/MacOSX.platform/Developer/SDKs/MacOSX13.1.sdk/usr/include/c++/v1/thread:312:21
	str	x9, [sp, #88]
	str	x8, [sp, #96]
	ldr	x9, [sp, #88]
	ldr	x8, [sp, #96]
	stur	x9, [x29, #-72]
	stur	x8, [x29, #-64]
	.loc	44 313 69 is_stmt 1             ; /Applications/Xcode.app/Contents/Developer/Platforms/MacOSX.platform/Developer/SDKs/MacOSX13.1.sdk/usr/include/c++/v1/thread:313:69
	ldur	x0, [x29, #-24]
	.loc	44 313 44 is_stmt 0             ; /Applications/Xcode.app/Contents/Developer/Platforms/MacOSX.platform/Developer/SDKs/MacOSX13.1.sdk/usr/include/c++/v1/thread:313:44
	bl	__ZNSt3__1L7forwardIP6ThreadEEOT_RNS_16remove_referenceIS3_E4typeE
Ltmp144:
	.loc	44 313 21                       ; /Applications/Xcode.app/Contents/Developer/Platforms/MacOSX.platform/Developer/SDKs/MacOSX13.1.sdk/usr/include/c++/v1/thread:313:21
	bl	__ZNSt3__1L12__decay_copyIP6ThreadEENS_5decayIT_E4typeEOS4_
	str	x0, [sp, #16]                   ; 8-byte Folded Spill
Ltmp145:
	b	LBB43_4
LBB43_4:
	.loc	44 0 21                         ; /Applications/Xcode.app/Contents/Developer/Platforms/MacOSX.platform/Developer/SDKs/MacOSX13.1.sdk/usr/include/c++/v1/thread:0:21
	ldr	x0, [sp, #48]                   ; 8-byte Folded Reload
	ldr	x1, [sp, #24]                   ; 8-byte Folded Reload
	ldr	x8, [sp, #16]                   ; 8-byte Folded Reload
	add	x3, sp, #80
	.loc	44 313 21                       ; /Applications/Xcode.app/Contents/Developer/Platforms/MacOSX.platform/Developer/SDKs/MacOSX13.1.sdk/usr/include/c++/v1/thread:313:21
	str	x8, [sp, #80]
	sub	x2, x29, #72
	.loc	44 311 17 is_stmt 1             ; /Applications/Xcode.app/Contents/Developer/Platforms/MacOSX.platform/Developer/SDKs/MacOSX13.1.sdk/usr/include/c++/v1/thread:311:17
	bl	__ZNSt3__15tupleIJNS_10unique_ptrINS_15__thread_structENS_14default_deleteIS2_EEEEM6ThreadFvvEPS6_EEC1IJS5_S8_S9_ELi0EEEDpOT_
	ldr	x1, [sp, #48]                   ; 8-byte Folded Reload
	sub	x0, x29, #56
	str	x0, [sp]                        ; 8-byte Folded Spill
	.loc	44 310 21                       ; /Applications/Xcode.app/Contents/Developer/Platforms/MacOSX.platform/Developer/SDKs/MacOSX13.1.sdk/usr/include/c++/v1/thread:310:21
	bl	__ZNSt3__110unique_ptrINS_5tupleIJNS0_INS_15__thread_structENS_14default_deleteIS2_EEEEM6ThreadFvvEPS6_EEENS3_ISA_EEEC1ILb1EvEEPSA_
	ldr	x0, [sp]                        ; 8-byte Folded Reload
	.loc	44 314 82                       ; /Applications/Xcode.app/Contents/Developer/Platforms/MacOSX.platform/Developer/SDKs/MacOSX13.1.sdk/usr/include/c++/v1/thread:314:82
	bl	__ZNKSt3__110unique_ptrINS_5tupleIJNS0_INS_15__thread_structENS_14default_deleteIS2_EEEEM6ThreadFvvEPS6_EEENS3_ISA_EEE3getEv
	mov	x2, x0
	ldr	x0, [sp, #56]                   ; 8-byte Folded Reload
Ltmp147:
	.loc	44 0 0 is_stmt 0                ; /Applications/Xcode.app/Contents/Developer/Platforms/MacOSX.platform/Developer/SDKs/MacOSX13.1.sdk/usr/include/c++/v1/thread:0:0
	adrp	x1, __ZNSt3__1L14__thread_proxyINS_5tupleIJNS_10unique_ptrINS_15__thread_structENS_14default_deleteIS3_EEEEM6ThreadFvvEPS7_EEEEEPvSC_@PAGE
	add	x1, x1, __ZNSt3__1L14__thread_proxyINS_5tupleIJNS_10unique_ptrINS_15__thread_structENS_14default_deleteIS3_EEEEM6ThreadFvvEPS7_EEEEEPvSC_@PAGEOFF
	.loc	44 314 16                       ; /Applications/Xcode.app/Contents/Developer/Platforms/MacOSX.platform/Developer/SDKs/MacOSX13.1.sdk/usr/include/c++/v1/thread:314:16
	bl	__ZNSt3__1L22__libcpp_thread_createEPP17_opaque_pthread_tPFPvS3_ES3_
	str	w0, [sp, #12]                   ; 4-byte Folded Spill
Ltmp148:
	b	LBB43_5
LBB43_5:
	.loc	44 0 16                         ; /Applications/Xcode.app/Contents/Developer/Platforms/MacOSX.platform/Developer/SDKs/MacOSX13.1.sdk/usr/include/c++/v1/thread:0:16
	ldr	w8, [sp, #12]                   ; 4-byte Folded Reload
	.loc	44 314 9                        ; /Applications/Xcode.app/Contents/Developer/Platforms/MacOSX.platform/Developer/SDKs/MacOSX13.1.sdk/usr/include/c++/v1/thread:314:9
	str	w8, [sp, #76]
Ltmp153:
	.loc	44 315 9 is_stmt 1              ; /Applications/Xcode.app/Contents/Developer/Platforms/MacOSX.platform/Developer/SDKs/MacOSX13.1.sdk/usr/include/c++/v1/thread:315:9
	ldr	w8, [sp, #76]
Ltmp154:
	.loc	44 315 9 is_stmt 0              ; /Applications/Xcode.app/Contents/Developer/Platforms/MacOSX.platform/Developer/SDKs/MacOSX13.1.sdk/usr/include/c++/v1/thread:315:9
	cbnz	w8, LBB43_11
	b	LBB43_6
LBB43_6:
	.loc	44 0 9                          ; /Applications/Xcode.app/Contents/Developer/Platforms/MacOSX.platform/Developer/SDKs/MacOSX13.1.sdk/usr/include/c++/v1/thread:0:9
	sub	x0, x29, #56
Ltmp155:
	.loc	44 316 13 is_stmt 1             ; /Applications/Xcode.app/Contents/Developer/Platforms/MacOSX.platform/Developer/SDKs/MacOSX13.1.sdk/usr/include/c++/v1/thread:316:13
	bl	__ZNSt3__110unique_ptrINS_5tupleIJNS0_INS_15__thread_structENS_14default_deleteIS2_EEEEM6ThreadFvvEPS6_EEENS3_ISA_EEE7releaseEv
	.loc	44 316 9 is_stmt 0              ; /Applications/Xcode.app/Contents/Developer/Platforms/MacOSX.platform/Developer/SDKs/MacOSX13.1.sdk/usr/include/c++/v1/thread:316:9
	b	LBB43_13
Ltmp156:
LBB43_7:
Ltmp138:
	.loc	44 319 1 is_stmt 1              ; /Applications/Xcode.app/Contents/Developer/Platforms/MacOSX.platform/Developer/SDKs/MacOSX13.1.sdk/usr/include/c++/v1/thread:319:1
	mov	x9, x0
	ldr	x0, [sp, #64]                   ; 8-byte Folded Reload
	mov	x8, x1
	stur	x9, [x29, #-40]
	stur	w8, [x29, #-44]
	.loc	44 308 18                       ; /Applications/Xcode.app/Contents/Developer/Platforms/MacOSX.platform/Developer/SDKs/MacOSX13.1.sdk/usr/include/c++/v1/thread:308:18
	bl	__ZdlPv
	b	LBB43_15
LBB43_8:
Ltmp141:
	.loc	44 319 1                        ; /Applications/Xcode.app/Contents/Developer/Platforms/MacOSX.platform/Developer/SDKs/MacOSX13.1.sdk/usr/include/c++/v1/thread:319:1
	mov	x8, x1
	stur	x0, [x29, #-40]
	stur	w8, [x29, #-44]
	b	LBB43_14
LBB43_9:
Ltmp146:
	mov	x9, x0
	ldr	x0, [sp, #48]                   ; 8-byte Folded Reload
	mov	x8, x1
	stur	x9, [x29, #-40]
	stur	w8, [x29, #-44]
	.loc	44 311 13                       ; /Applications/Xcode.app/Contents/Developer/Platforms/MacOSX.platform/Developer/SDKs/MacOSX13.1.sdk/usr/include/c++/v1/thread:311:13
	bl	__ZdlPv
	b	LBB43_14
LBB43_10:
Ltmp151:
	.loc	44 319 1                        ; /Applications/Xcode.app/Contents/Developer/Platforms/MacOSX.platform/Developer/SDKs/MacOSX13.1.sdk/usr/include/c++/v1/thread:319:1
	mov	x8, x1
	stur	x0, [x29, #-40]
	stur	w8, [x29, #-44]
	sub	x0, x29, #56
Ltmp157:
	.loc	44 319 1 is_stmt 0              ; /Applications/Xcode.app/Contents/Developer/Platforms/MacOSX.platform/Developer/SDKs/MacOSX13.1.sdk/usr/include/c++/v1/thread:319:1
	bl	__ZNSt3__110unique_ptrINS_5tupleIJNS0_INS_15__thread_structENS_14default_deleteIS2_EEEEM6ThreadFvvEPS6_EEENS3_ISA_EEED1Ev
	b	LBB43_14
LBB43_11:
Ltmp158:
	.loc	44 318 30 is_stmt 1             ; /Applications/Xcode.app/Contents/Developer/Platforms/MacOSX.platform/Developer/SDKs/MacOSX13.1.sdk/usr/include/c++/v1/thread:318:30
	ldr	w0, [sp, #76]
Ltmp149:
	.loc	44 0 0 is_stmt 0                ; /Applications/Xcode.app/Contents/Developer/Platforms/MacOSX.platform/Developer/SDKs/MacOSX13.1.sdk/usr/include/c++/v1/thread:0:0
	adrp	x1, l_.str.2@PAGE
	add	x1, x1, l_.str.2@PAGEOFF
	.loc	44 318 9                        ; /Applications/Xcode.app/Contents/Developer/Platforms/MacOSX.platform/Developer/SDKs/MacOSX13.1.sdk/usr/include/c++/v1/thread:318:9
	bl	__ZNSt3__120__throw_system_errorEiPKc
Ltmp150:
	b	LBB43_12
LBB43_12:
	brk	#0x1
Ltmp159:
LBB43_13:
	.loc	44 0 9                          ; /Applications/Xcode.app/Contents/Developer/Platforms/MacOSX.platform/Developer/SDKs/MacOSX13.1.sdk/usr/include/c++/v1/thread:0:9
	sub	x0, x29, #56
	.loc	44 319 1 is_stmt 1              ; /Applications/Xcode.app/Contents/Developer/Platforms/MacOSX.platform/Developer/SDKs/MacOSX13.1.sdk/usr/include/c++/v1/thread:319:1
	bl	__ZNSt3__110unique_ptrINS_5tupleIJNS0_INS_15__thread_structENS_14default_deleteIS2_EEEEM6ThreadFvvEPS6_EEENS3_ISA_EEED1Ev
	sub	x0, x29, #32
	bl	__ZNSt3__110unique_ptrINS_15__thread_structENS_14default_deleteIS1_EEED1Ev
	ldr	x0, [sp, #56]                   ; 8-byte Folded Reload
	ldp	x29, x30, [sp, #176]            ; 16-byte Folded Reload
	add	sp, sp, #192
	ret
LBB43_14:
	.loc	44 0 1 is_stmt 0                ; /Applications/Xcode.app/Contents/Developer/Platforms/MacOSX.platform/Developer/SDKs/MacOSX13.1.sdk/usr/include/c++/v1/thread:0:1
	sub	x0, x29, #32
	.loc	44 319 1                        ; /Applications/Xcode.app/Contents/Developer/Platforms/MacOSX.platform/Developer/SDKs/MacOSX13.1.sdk/usr/include/c++/v1/thread:319:1
	bl	__ZNSt3__110unique_ptrINS_15__thread_structENS_14default_deleteIS1_EEED1Ev
	b	LBB43_15
LBB43_15:
Ltmp160:
	.loc	44 308 18 is_stmt 1             ; /Applications/Xcode.app/Contents/Developer/Platforms/MacOSX.platform/Developer/SDKs/MacOSX13.1.sdk/usr/include/c++/v1/thread:308:18
	ldur	x0, [x29, #-40]
	bl	__Unwind_Resume
Ltmp161:
Lfunc_end43:
	.cfi_endproc
	.section	__TEXT,__gcc_except_tab
	.p2align	2
GCC_except_table43:
Lexception4:
	.byte	255                             ; @LPStart Encoding = omit
	.byte	255                             ; @TType Encoding = omit
	.byte	1                               ; Call site Encoding = uleb128
	.uleb128 Lcst_end4-Lcst_begin4
Lcst_begin4:
	.uleb128 Lfunc_begin43-Lfunc_begin43    ; >> Call Site 1 <<
	.uleb128 Ltmp136-Lfunc_begin43          ;   Call between Lfunc_begin43 and Ltmp136
	.byte	0                               ;     has no landing pad
	.byte	0                               ;   On action: cleanup
	.uleb128 Ltmp136-Lfunc_begin43          ; >> Call Site 2 <<
	.uleb128 Ltmp137-Ltmp136                ;   Call between Ltmp136 and Ltmp137
	.uleb128 Ltmp138-Lfunc_begin43          ;     jumps to Ltmp138
	.byte	0                               ;   On action: cleanup
	.uleb128 Ltmp139-Lfunc_begin43          ; >> Call Site 3 <<
	.uleb128 Ltmp140-Ltmp139                ;   Call between Ltmp139 and Ltmp140
	.uleb128 Ltmp141-Lfunc_begin43          ;     jumps to Ltmp141
	.byte	0                               ;   On action: cleanup
	.uleb128 Ltmp142-Lfunc_begin43          ; >> Call Site 4 <<
	.uleb128 Ltmp145-Ltmp142                ;   Call between Ltmp142 and Ltmp145
	.uleb128 Ltmp146-Lfunc_begin43          ;     jumps to Ltmp146
	.byte	0                               ;   On action: cleanup
	.uleb128 Ltmp147-Lfunc_begin43          ; >> Call Site 5 <<
	.uleb128 Ltmp150-Ltmp147                ;   Call between Ltmp147 and Ltmp150
	.uleb128 Ltmp151-Lfunc_begin43          ;     jumps to Ltmp151
	.byte	0                               ;   On action: cleanup
	.uleb128 Ltmp150-Lfunc_begin43          ; >> Call Site 6 <<
	.uleb128 Lfunc_end43-Ltmp150            ;   Call between Ltmp150 and Lfunc_end43
	.byte	0                               ;     has no landing pad
	.byte	0                               ;   On action: cleanup
Lcst_end4:
	.p2align	2
                                        ; -- End function
	.section	__TEXT,__text,regular,pure_instructions
	.p2align	2                               ; -- Begin function _ZNSt3__110unique_ptrINS_15__thread_structENS_14default_deleteIS1_EEEC1ILb1EvEEPS1_
__ZNSt3__110unique_ptrINS_15__thread_structENS_14default_deleteIS1_EEEC1ILb1EvEEPS1_: ; @_ZNSt3__110unique_ptrINS_15__thread_structENS_14default_deleteIS1_EEEC1ILb1EvEEPS1_
Lfunc_begin44:
	.loc	45 190 0                        ; /Applications/Xcode.app/Contents/Developer/Platforms/MacOSX.platform/Developer/SDKs/MacOSX13.1.sdk/usr/include/c++/v1/__memory/unique_ptr.h:190:0
	.cfi_startproc
; %bb.0:
	sub	sp, sp, #48
	stp	x29, x30, [sp, #32]             ; 16-byte Folded Spill
	add	x29, sp, #32
	.cfi_def_cfa w29, 16
	.cfi_offset w30, -8
	.cfi_offset w29, -16
	stur	x0, [x29, #-8]
	str	x1, [sp, #16]
	ldur	x0, [x29, #-8]
	str	x0, [sp, #8]                    ; 8-byte Folded Spill
Ltmp162:
	.loc	45 190 81 prologue_end          ; /Applications/Xcode.app/Contents/Developer/Platforms/MacOSX.platform/Developer/SDKs/MacOSX13.1.sdk/usr/include/c++/v1/__memory/unique_ptr.h:190:81
	ldr	x1, [sp, #16]
	bl	__ZNSt3__110unique_ptrINS_15__thread_structENS_14default_deleteIS1_EEEC2ILb1EvEEPS1_
	ldr	x0, [sp, #8]                    ; 8-byte Folded Reload
	.loc	45 190 82 is_stmt 0             ; /Applications/Xcode.app/Contents/Developer/Platforms/MacOSX.platform/Developer/SDKs/MacOSX13.1.sdk/usr/include/c++/v1/__memory/unique_ptr.h:190:82
	ldp	x29, x30, [sp, #32]             ; 16-byte Folded Reload
	add	sp, sp, #48
	ret
Ltmp163:
Lfunc_end44:
	.cfi_endproc
                                        ; -- End function
	.p2align	2                               ; -- Begin function _ZNSt3__1L4moveIRNS_10unique_ptrINS_15__thread_structENS_14default_deleteIS2_EEEEEEONS_16remove_referenceIT_E4typeEOS8_
__ZNSt3__1L4moveIRNS_10unique_ptrINS_15__thread_structENS_14default_deleteIS2_EEEEEEONS_16remove_referenceIT_E4typeEOS8_: ; @_ZNSt3__1L4moveIRNS_10unique_ptrINS_15__thread_structENS_14default_deleteIS2_EEEEEEONS_16remove_referenceIT_E4typeEOS8_
Lfunc_begin45:
	.file	103 "/Applications/Xcode.app/Contents/Developer/Platforms/MacOSX.platform/Developer/SDKs/MacOSX13.1.sdk/usr/include/c++/v1/__utility" "move.h"
	.loc	103 27 0 is_stmt 1              ; /Applications/Xcode.app/Contents/Developer/Platforms/MacOSX.platform/Developer/SDKs/MacOSX13.1.sdk/usr/include/c++/v1/__utility/move.h:27:0
	.cfi_startproc
; %bb.0:
	sub	sp, sp, #16
	.cfi_def_cfa_offset 16
	str	x0, [sp, #8]
Ltmp165:
	.loc	103 29 29 prologue_end          ; /Applications/Xcode.app/Contents/Developer/Platforms/MacOSX.platform/Developer/SDKs/MacOSX13.1.sdk/usr/include/c++/v1/__utility/move.h:29:29
	ldr	x0, [sp, #8]
	.loc	103 29 3 is_stmt 0              ; /Applications/Xcode.app/Contents/Developer/Platforms/MacOSX.platform/Developer/SDKs/MacOSX13.1.sdk/usr/include/c++/v1/__utility/move.h:29:3
	add	sp, sp, #16
	ret
Ltmp166:
Lfunc_end45:
	.cfi_endproc
                                        ; -- End function
	.p2align	2                               ; -- Begin function _ZNSt3__1L12__decay_copyIM6ThreadFvvEEENS_5decayIT_E4typeEOS5_
__ZNSt3__1L12__decay_copyIM6ThreadFvvEEENS_5decayIT_E4typeEOS5_: ; @_ZNSt3__1L12__decay_copyIM6ThreadFvvEEENS_5decayIT_E4typeEOS5_
Lfunc_begin46:
	.file	104 "/Applications/Xcode.app/Contents/Developer/Platforms/MacOSX.platform/Developer/SDKs/MacOSX13.1.sdk/usr/include/c++/v1/__utility" "__decay_copy.h"
	.loc	104 31 0 is_stmt 1              ; /Applications/Xcode.app/Contents/Developer/Platforms/MacOSX.platform/Developer/SDKs/MacOSX13.1.sdk/usr/include/c++/v1/__utility/__decay_copy.h:31:0
	.cfi_startproc
; %bb.0:
	sub	sp, sp, #48
	stp	x29, x30, [sp, #32]             ; 16-byte Folded Spill
	add	x29, sp, #32
	.cfi_def_cfa w29, 16
	.cfi_offset w30, -8
	.cfi_offset w29, -16
	str	x0, [sp, #8]
Ltmp167:
	.loc	104 32 33 prologue_end          ; /Applications/Xcode.app/Contents/Developer/Platforms/MacOSX.platform/Developer/SDKs/MacOSX13.1.sdk/usr/include/c++/v1/__utility/__decay_copy.h:32:33
	ldr	x0, [sp, #8]
	.loc	104 32 10 is_stmt 0             ; /Applications/Xcode.app/Contents/Developer/Platforms/MacOSX.platform/Developer/SDKs/MacOSX13.1.sdk/usr/include/c++/v1/__utility/__decay_copy.h:32:10
	bl	__ZNSt3__1L7forwardIM6ThreadFvvEEEOT_RNS_16remove_referenceIS4_E4typeE
	ldr	x9, [x0]
	ldr	x8, [x0, #8]
	.loc	104 32 3                        ; /Applications/Xcode.app/Contents/Developer/Platforms/MacOSX.platform/Developer/SDKs/MacOSX13.1.sdk/usr/include/c++/v1/__utility/__decay_copy.h:32:3
	str	x9, [sp, #16]
	str	x8, [sp, #24]
	ldr	x0, [sp, #16]
	ldr	x1, [sp, #24]
	ldp	x29, x30, [sp, #32]             ; 16-byte Folded Reload
	add	sp, sp, #48
	ret
Ltmp168:
Lfunc_end46:
	.cfi_endproc
                                        ; -- End function
	.p2align	2                               ; -- Begin function _ZNSt3__1L12__decay_copyIP6ThreadEENS_5decayIT_E4typeEOS4_
__ZNSt3__1L12__decay_copyIP6ThreadEENS_5decayIT_E4typeEOS4_: ; @_ZNSt3__1L12__decay_copyIP6ThreadEENS_5decayIT_E4typeEOS4_
Lfunc_begin47:
	.loc	104 31 0 is_stmt 1              ; /Applications/Xcode.app/Contents/Developer/Platforms/MacOSX.platform/Developer/SDKs/MacOSX13.1.sdk/usr/include/c++/v1/__utility/__decay_copy.h:31:0
	.cfi_startproc
; %bb.0:
	sub	sp, sp, #32
	stp	x29, x30, [sp, #16]             ; 16-byte Folded Spill
	add	x29, sp, #16
	.cfi_def_cfa w29, 16
	.cfi_offset w30, -8
	.cfi_offset w29, -16
	str	x0, [sp, #8]
Ltmp169:
	.loc	104 32 33 prologue_end          ; /Applications/Xcode.app/Contents/Developer/Platforms/MacOSX.platform/Developer/SDKs/MacOSX13.1.sdk/usr/include/c++/v1/__utility/__decay_copy.h:32:33
	ldr	x0, [sp, #8]
	.loc	104 32 10 is_stmt 0             ; /Applications/Xcode.app/Contents/Developer/Platforms/MacOSX.platform/Developer/SDKs/MacOSX13.1.sdk/usr/include/c++/v1/__utility/__decay_copy.h:32:10
	bl	__ZNSt3__1L7forwardIP6ThreadEEOT_RNS_16remove_referenceIS3_E4typeE
	ldr	x0, [x0]
	.loc	104 32 3                        ; /Applications/Xcode.app/Contents/Developer/Platforms/MacOSX.platform/Developer/SDKs/MacOSX13.1.sdk/usr/include/c++/v1/__utility/__decay_copy.h:32:3
	ldp	x29, x30, [sp, #16]             ; 16-byte Folded Reload
	add	sp, sp, #32
	ret
Ltmp170:
Lfunc_end47:
	.cfi_endproc
                                        ; -- End function
	.p2align	2                               ; -- Begin function _ZNSt3__15tupleIJNS_10unique_ptrINS_15__thread_structENS_14default_deleteIS2_EEEEM6ThreadFvvEPS6_EEC1IJS5_S8_S9_ELi0EEEDpOT_
__ZNSt3__15tupleIJNS_10unique_ptrINS_15__thread_structENS_14default_deleteIS2_EEEEM6ThreadFvvEPS6_EEC1IJS5_S8_S9_ELi0EEEDpOT_: ; @_ZNSt3__15tupleIJNS_10unique_ptrINS_15__thread_structENS_14default_deleteIS2_EEEEM6ThreadFvvEPS6_EEC1IJS5_S8_S9_ELi0EEEDpOT_
Lfunc_begin48:
	.loc	54 612 0 is_stmt 1              ; /Applications/Xcode.app/Contents/Developer/Platforms/MacOSX.platform/Developer/SDKs/MacOSX13.1.sdk/usr/include/c++/v1/tuple:612:0
	.cfi_startproc
; %bb.0:
	sub	sp, sp, #64
	stp	x29, x30, [sp, #48]             ; 16-byte Folded Spill
	add	x29, sp, #48
	.cfi_def_cfa w29, 16
	.cfi_offset w30, -8
	.cfi_offset w29, -16
	stur	x0, [x29, #-8]
	stur	x1, [x29, #-16]
	str	x2, [sp, #24]
	str	x3, [sp, #16]
	ldur	x0, [x29, #-8]
	str	x0, [sp, #8]                    ; 8-byte Folded Spill
Ltmp171:
	.loc	54 612 53 prologue_end          ; /Applications/Xcode.app/Contents/Developer/Platforms/MacOSX.platform/Developer/SDKs/MacOSX13.1.sdk/usr/include/c++/v1/tuple:612:53
	ldur	x1, [x29, #-16]
	ldr	x2, [sp, #24]
	ldr	x3, [sp, #16]
	bl	__ZNSt3__15tupleIJNS_10unique_ptrINS_15__thread_structENS_14default_deleteIS2_EEEEM6ThreadFvvEPS6_EEC2IJS5_S8_S9_ELi0EEEDpOT_
	ldr	x0, [sp, #8]                    ; 8-byte Folded Reload
	.loc	54 612 54 is_stmt 0             ; /Applications/Xcode.app/Contents/Developer/Platforms/MacOSX.platform/Developer/SDKs/MacOSX13.1.sdk/usr/include/c++/v1/tuple:612:54
	ldp	x29, x30, [sp, #48]             ; 16-byte Folded Reload
	add	sp, sp, #64
	ret
Ltmp172:
Lfunc_end48:
	.cfi_endproc
                                        ; -- End function
	.p2align	2                               ; -- Begin function _ZNSt3__110unique_ptrINS_5tupleIJNS0_INS_15__thread_structENS_14default_deleteIS2_EEEEM6ThreadFvvEPS6_EEENS3_ISA_EEEC1ILb1EvEEPSA_
__ZNSt3__110unique_ptrINS_5tupleIJNS0_INS_15__thread_structENS_14default_deleteIS2_EEEEM6ThreadFvvEPS6_EEENS3_ISA_EEEC1ILb1EvEEPSA_: ; @_ZNSt3__110unique_ptrINS_5tupleIJNS0_INS_15__thread_structENS_14default_deleteIS2_EEEEM6ThreadFvvEPS6_EEENS3_ISA_EEEC1ILb1EvEEPSA_
Lfunc_begin49:
	.loc	45 190 0 is_stmt 1              ; /Applications/Xcode.app/Contents/Developer/Platforms/MacOSX.platform/Developer/SDKs/MacOSX13.1.sdk/usr/include/c++/v1/__memory/unique_ptr.h:190:0
	.cfi_startproc
; %bb.0:
	sub	sp, sp, #48
	stp	x29, x30, [sp, #32]             ; 16-byte Folded Spill
	add	x29, sp, #32
	.cfi_def_cfa w29, 16
	.cfi_offset w30, -8
	.cfi_offset w29, -16
	stur	x0, [x29, #-8]
	str	x1, [sp, #16]
	ldur	x0, [x29, #-8]
	str	x0, [sp, #8]                    ; 8-byte Folded Spill
Ltmp173:
	.loc	45 190 81 prologue_end          ; /Applications/Xcode.app/Contents/Developer/Platforms/MacOSX.platform/Developer/SDKs/MacOSX13.1.sdk/usr/include/c++/v1/__memory/unique_ptr.h:190:81
	ldr	x1, [sp, #16]
	bl	__ZNSt3__110unique_ptrINS_5tupleIJNS0_INS_15__thread_structENS_14default_deleteIS2_EEEEM6ThreadFvvEPS6_EEENS3_ISA_EEEC2ILb1EvEEPSA_
	ldr	x0, [sp, #8]                    ; 8-byte Folded Reload
	.loc	45 190 82 is_stmt 0             ; /Applications/Xcode.app/Contents/Developer/Platforms/MacOSX.platform/Developer/SDKs/MacOSX13.1.sdk/usr/include/c++/v1/__memory/unique_ptr.h:190:82
	ldp	x29, x30, [sp, #32]             ; 16-byte Folded Reload
	add	sp, sp, #48
	ret
Ltmp174:
Lfunc_end49:
	.cfi_endproc
                                        ; -- End function
	.p2align	2                               ; -- Begin function _ZNSt3__1L22__libcpp_thread_createEPP17_opaque_pthread_tPFPvS3_ES3_
__ZNSt3__1L22__libcpp_thread_createEPP17_opaque_pthread_tPFPvS3_ES3_: ; @_ZNSt3__1L22__libcpp_thread_createEPP17_opaque_pthread_tPFPvS3_ES3_
Lfunc_begin50:
	.loc	43 420 0 is_stmt 1              ; /Applications/Xcode.app/Contents/Developer/Platforms/MacOSX.platform/Developer/SDKs/MacOSX13.1.sdk/usr/include/c++/v1/__threading_support:420:0
	.cfi_startproc
; %bb.0:
	sub	sp, sp, #48
	stp	x29, x30, [sp, #32]             ; 16-byte Folded Spill
	add	x29, sp, #32
	.cfi_def_cfa w29, 16
	.cfi_offset w30, -8
	.cfi_offset w29, -16
	stur	x0, [x29, #-8]
	str	x1, [sp, #16]
	str	x2, [sp, #8]
Ltmp175:
	.loc	43 421 25 prologue_end          ; /Applications/Xcode.app/Contents/Developer/Platforms/MacOSX.platform/Developer/SDKs/MacOSX13.1.sdk/usr/include/c++/v1/__threading_support:421:25
	ldur	x0, [x29, #-8]
	.loc	43 421 39 is_stmt 0             ; /Applications/Xcode.app/Contents/Developer/Platforms/MacOSX.platform/Developer/SDKs/MacOSX13.1.sdk/usr/include/c++/v1/__threading_support:421:39
	ldr	x2, [sp, #16]
	.loc	43 421 47                       ; /Applications/Xcode.app/Contents/Developer/Platforms/MacOSX.platform/Developer/SDKs/MacOSX13.1.sdk/usr/include/c++/v1/__threading_support:421:47
	ldr	x3, [sp, #8]
	mov	x1, #0
	.loc	43 421 10                       ; /Applications/Xcode.app/Contents/Developer/Platforms/MacOSX.platform/Developer/SDKs/MacOSX13.1.sdk/usr/include/c++/v1/__threading_support:421:10
	bl	_pthread_create
	.loc	43 421 3                        ; /Applications/Xcode.app/Contents/Developer/Platforms/MacOSX.platform/Developer/SDKs/MacOSX13.1.sdk/usr/include/c++/v1/__threading_support:421:3
	ldp	x29, x30, [sp, #32]             ; 16-byte Folded Reload
	add	sp, sp, #48
	ret
Ltmp176:
Lfunc_end50:
	.cfi_endproc
                                        ; -- End function
	.p2align	2                               ; -- Begin function _ZNSt3__1L14__thread_proxyINS_5tupleIJNS_10unique_ptrINS_15__thread_structENS_14default_deleteIS3_EEEEM6ThreadFvvEPS7_EEEEEPvSC_
__ZNSt3__1L14__thread_proxyINS_5tupleIJNS_10unique_ptrINS_15__thread_structENS_14default_deleteIS3_EEEEM6ThreadFvvEPS7_EEEEEPvSC_: ; @_ZNSt3__1L14__thread_proxyINS_5tupleIJNS_10unique_ptrINS_15__thread_structENS_14default_deleteIS3_EEEEM6ThreadFvvEPS7_EEEEEPvSC_
Lfunc_begin51:
	.loc	44 293 0 is_stmt 1              ; /Applications/Xcode.app/Contents/Developer/Platforms/MacOSX.platform/Developer/SDKs/MacOSX13.1.sdk/usr/include/c++/v1/thread:293:0
	.cfi_startproc
	.cfi_personality 155, ___gxx_personality_v0
	.cfi_lsda 16, Lexception5
; %bb.0:
	sub	sp, sp, #64
	stp	x29, x30, [sp, #48]             ; 16-byte Folded Spill
	add	x29, sp, #48
	.cfi_def_cfa w29, 16
	.cfi_offset w30, -8
	.cfi_offset w29, -16
	stur	x0, [x29, #-8]
Ltmp184:
	.loc	44 295 43 prologue_end          ; /Applications/Xcode.app/Contents/Developer/Platforms/MacOSX.platform/Developer/SDKs/MacOSX13.1.sdk/usr/include/c++/v1/thread:295:43
	ldur	x1, [x29, #-8]
	sub	x0, x29, #16
	.loc	44 295 21 is_stmt 0             ; /Applications/Xcode.app/Contents/Developer/Platforms/MacOSX.platform/Developer/SDKs/MacOSX13.1.sdk/usr/include/c++/v1/thread:295:21
	bl	__ZNSt3__110unique_ptrINS_5tupleIJNS0_INS_15__thread_structENS_14default_deleteIS2_EEEEM6ThreadFvvEPS6_EEENS3_ISA_EEEC1ILb1EvEEPSA_
Ltmp177:
	.loc	44 296 5 is_stmt 1              ; /Applications/Xcode.app/Contents/Developer/Platforms/MacOSX.platform/Developer/SDKs/MacOSX13.1.sdk/usr/include/c++/v1/thread:296:5
	bl	__ZNSt3__119__thread_local_dataEv
	str	x0, [sp, #8]                    ; 8-byte Folded Spill
Ltmp178:
	b	LBB51_1
LBB51_1:
	.loc	44 0 5 is_stmt 0                ; /Applications/Xcode.app/Contents/Developer/Platforms/MacOSX.platform/Developer/SDKs/MacOSX13.1.sdk/usr/include/c++/v1/thread:0:5
	sub	x0, x29, #16
	.loc	44 296 61                       ; /Applications/Xcode.app/Contents/Developer/Platforms/MacOSX.platform/Developer/SDKs/MacOSX13.1.sdk/usr/include/c++/v1/thread:296:61
	bl	__ZNKSt3__110unique_ptrINS_5tupleIJNS0_INS_15__thread_structENS_14default_deleteIS2_EEEEM6ThreadFvvEPS6_EEENS3_ISA_EEE3getEv
	.loc	44 296 39                       ; /Applications/Xcode.app/Contents/Developer/Platforms/MacOSX.platform/Developer/SDKs/MacOSX13.1.sdk/usr/include/c++/v1/thread:296:39
	bl	__ZNSt3__1L3getILm0EJNS_10unique_ptrINS_15__thread_structENS_14default_deleteIS2_EEEEM6ThreadFvvEPS6_EEERNS_13tuple_elementIXT_ENS_5tupleIJDpT0_EEEE4typeERSE_
	.loc	44 296 68                       ; /Applications/Xcode.app/Contents/Developer/Platforms/MacOSX.platform/Developer/SDKs/MacOSX13.1.sdk/usr/include/c++/v1/thread:296:68
	bl	__ZNSt3__110unique_ptrINS_15__thread_structENS_14default_deleteIS1_EEE7releaseEv
	mov	x1, x0
	ldr	x0, [sp, #8]                    ; 8-byte Folded Reload
Ltmp179:
	.loc	44 296 27                       ; /Applications/Xcode.app/Contents/Developer/Platforms/MacOSX.platform/Developer/SDKs/MacOSX13.1.sdk/usr/include/c++/v1/thread:296:27
	bl	__ZNSt3__121__thread_specific_ptrINS_15__thread_structEE11set_pointerEPS1_
Ltmp180:
	b	LBB51_2
LBB51_2:
	.loc	44 0 27                         ; /Applications/Xcode.app/Contents/Developer/Platforms/MacOSX.platform/Developer/SDKs/MacOSX13.1.sdk/usr/include/c++/v1/thread:0:27
	sub	x0, x29, #16
	.loc	44 298 37 is_stmt 1             ; /Applications/Xcode.app/Contents/Developer/Platforms/MacOSX.platform/Developer/SDKs/MacOSX13.1.sdk/usr/include/c++/v1/thread:298:37
	bl	__ZNKSt3__110unique_ptrINS_5tupleIJNS0_INS_15__thread_structENS_14default_deleteIS2_EEEEM6ThreadFvvEPS6_EEENS3_ISA_EEE3getEv
Ltmp181:
	.loc	44 298 5 is_stmt 0              ; /Applications/Xcode.app/Contents/Developer/Platforms/MacOSX.platform/Developer/SDKs/MacOSX13.1.sdk/usr/include/c++/v1/thread:298:5
	bl	__ZNSt3__1L16__thread_executeINS_10unique_ptrINS_15__thread_structENS_14default_deleteIS2_EEEEM6ThreadFvvEJPS6_EJLm2EEEEvRNS_5tupleIJT_T0_DpT1_EEENS_15__tuple_indicesIJXspT2_EEEE
Ltmp182:
	b	LBB51_3
LBB51_3:
	.loc	44 0 5                          ; /Applications/Xcode.app/Contents/Developer/Platforms/MacOSX.platform/Developer/SDKs/MacOSX13.1.sdk/usr/include/c++/v1/thread:0:5
	sub	x0, x29, #16
	.loc	44 300 1 is_stmt 1              ; /Applications/Xcode.app/Contents/Developer/Platforms/MacOSX.platform/Developer/SDKs/MacOSX13.1.sdk/usr/include/c++/v1/thread:300:1
	bl	__ZNSt3__110unique_ptrINS_5tupleIJNS0_INS_15__thread_structENS_14default_deleteIS2_EEEEM6ThreadFvvEPS6_EEENS3_ISA_EEED1Ev
	mov	x0, #0
	ldp	x29, x30, [sp, #48]             ; 16-byte Folded Reload
	add	sp, sp, #64
	ret
LBB51_4:
Ltmp183:
	mov	x8, x1
	str	x0, [sp, #24]
	str	w8, [sp, #20]
	sub	x0, x29, #16
	bl	__ZNSt3__110unique_ptrINS_5tupleIJNS0_INS_15__thread_structENS_14default_deleteIS2_EEEEM6ThreadFvvEPS6_EEENS3_ISA_EEED1Ev
	b	LBB51_5
LBB51_5:
	ldr	x0, [sp, #24]
	bl	__Unwind_Resume
Ltmp185:
Lfunc_end51:
	.cfi_endproc
	.section	__TEXT,__gcc_except_tab
	.p2align	2
GCC_except_table51:
Lexception5:
	.byte	255                             ; @LPStart Encoding = omit
	.byte	255                             ; @TType Encoding = omit
	.byte	1                               ; Call site Encoding = uleb128
	.uleb128 Lcst_end5-Lcst_begin5
Lcst_begin5:
	.uleb128 Ltmp177-Lfunc_begin51          ; >> Call Site 1 <<
	.uleb128 Ltmp182-Ltmp177                ;   Call between Ltmp177 and Ltmp182
	.uleb128 Ltmp183-Lfunc_begin51          ;     jumps to Ltmp183
	.byte	0                               ;   On action: cleanup
	.uleb128 Ltmp182-Lfunc_begin51          ; >> Call Site 2 <<
	.uleb128 Lfunc_end51-Ltmp182            ;   Call between Ltmp182 and Lfunc_end51
	.byte	0                               ;     has no landing pad
	.byte	0                               ;   On action: cleanup
Lcst_end5:
	.p2align	2
                                        ; -- End function
	.section	__TEXT,__text,regular,pure_instructions
	.p2align	2                               ; -- Begin function _ZNKSt3__110unique_ptrINS_5tupleIJNS0_INS_15__thread_structENS_14default_deleteIS2_EEEEM6ThreadFvvEPS6_EEENS3_ISA_EEE3getEv
__ZNKSt3__110unique_ptrINS_5tupleIJNS0_INS_15__thread_structENS_14default_deleteIS2_EEEEM6ThreadFvvEPS6_EEENS3_ISA_EEE3getEv: ; @_ZNKSt3__110unique_ptrINS_5tupleIJNS0_INS_15__thread_structENS_14default_deleteIS2_EEEEM6ThreadFvvEPS6_EEENS3_ISA_EEE3getEv
Lfunc_begin52:
	.loc	45 290 0                        ; /Applications/Xcode.app/Contents/Developer/Platforms/MacOSX.platform/Developer/SDKs/MacOSX13.1.sdk/usr/include/c++/v1/__memory/unique_ptr.h:290:0
	.cfi_startproc
; %bb.0:
	sub	sp, sp, #32
	stp	x29, x30, [sp, #16]             ; 16-byte Folded Spill
	add	x29, sp, #16
	.cfi_def_cfa w29, 16
	.cfi_offset w30, -8
	.cfi_offset w29, -16
	str	x0, [sp, #8]
	ldr	x0, [sp, #8]
Ltmp186:
	.loc	45 291 19 prologue_end          ; /Applications/Xcode.app/Contents/Developer/Platforms/MacOSX.platform/Developer/SDKs/MacOSX13.1.sdk/usr/include/c++/v1/__memory/unique_ptr.h:291:19
	bl	__ZNKSt3__117__compressed_pairIPNS_5tupleIJNS_10unique_ptrINS_15__thread_structENS_14default_deleteIS3_EEEEM6ThreadFvvEPS7_EEENS4_ISB_EEE5firstEv
	ldr	x0, [x0]
	.loc	45 291 5 is_stmt 0              ; /Applications/Xcode.app/Contents/Developer/Platforms/MacOSX.platform/Developer/SDKs/MacOSX13.1.sdk/usr/include/c++/v1/__memory/unique_ptr.h:291:5
	ldp	x29, x30, [sp, #16]             ; 16-byte Folded Reload
	add	sp, sp, #32
	ret
Ltmp187:
Lfunc_end52:
	.cfi_endproc
                                        ; -- End function
	.p2align	2                               ; -- Begin function _ZNSt3__110unique_ptrINS_5tupleIJNS0_INS_15__thread_structENS_14default_deleteIS2_EEEEM6ThreadFvvEPS6_EEENS3_ISA_EEE7releaseEv
__ZNSt3__110unique_ptrINS_5tupleIJNS0_INS_15__thread_structENS_14default_deleteIS2_EEEEM6ThreadFvvEPS6_EEENS3_ISA_EEE7releaseEv: ; @_ZNSt3__110unique_ptrINS_5tupleIJNS0_INS_15__thread_structENS_14default_deleteIS2_EEEEM6ThreadFvvEPS6_EEENS3_ISA_EEE7releaseEv
Lfunc_begin53:
	.loc	45 307 0 is_stmt 1              ; /Applications/Xcode.app/Contents/Developer/Platforms/MacOSX.platform/Developer/SDKs/MacOSX13.1.sdk/usr/include/c++/v1/__memory/unique_ptr.h:307:0
	.cfi_startproc
; %bb.0:
	sub	sp, sp, #48
	stp	x29, x30, [sp, #32]             ; 16-byte Folded Spill
	add	x29, sp, #32
	.cfi_def_cfa w29, 16
	.cfi_offset w30, -8
	.cfi_offset w29, -16
	stur	x0, [x29, #-8]
	ldur	x0, [x29, #-8]
	str	x0, [sp, #8]                    ; 8-byte Folded Spill
Ltmp188:
	.loc	45 308 26 prologue_end          ; /Applications/Xcode.app/Contents/Developer/Platforms/MacOSX.platform/Developer/SDKs/MacOSX13.1.sdk/usr/include/c++/v1/__memory/unique_ptr.h:308:26
	bl	__ZNSt3__117__compressed_pairIPNS_5tupleIJNS_10unique_ptrINS_15__thread_structENS_14default_deleteIS3_EEEEM6ThreadFvvEPS7_EEENS4_ISB_EEE5firstEv
	mov	x8, x0
	ldr	x0, [sp, #8]                    ; 8-byte Folded Reload
	ldr	x8, [x8]
	.loc	45 308 13 is_stmt 0             ; /Applications/Xcode.app/Contents/Developer/Platforms/MacOSX.platform/Developer/SDKs/MacOSX13.1.sdk/usr/include/c++/v1/__memory/unique_ptr.h:308:13
	str	x8, [sp, #16]
	.loc	45 309 12 is_stmt 1             ; /Applications/Xcode.app/Contents/Developer/Platforms/MacOSX.platform/Developer/SDKs/MacOSX13.1.sdk/usr/include/c++/v1/__memory/unique_ptr.h:309:12
	bl	__ZNSt3__117__compressed_pairIPNS_5tupleIJNS_10unique_ptrINS_15__thread_structENS_14default_deleteIS3_EEEEM6ThreadFvvEPS7_EEENS4_ISB_EEE5firstEv
                                        ; kill: def $x8 killed $xzr
	.loc	45 309 20 is_stmt 0             ; /Applications/Xcode.app/Contents/Developer/Platforms/MacOSX.platform/Developer/SDKs/MacOSX13.1.sdk/usr/include/c++/v1/__memory/unique_ptr.h:309:20
	str	xzr, [x0]
	.loc	45 310 12 is_stmt 1             ; /Applications/Xcode.app/Contents/Developer/Platforms/MacOSX.platform/Developer/SDKs/MacOSX13.1.sdk/usr/include/c++/v1/__memory/unique_ptr.h:310:12
	ldr	x0, [sp, #16]
	.loc	45 310 5 is_stmt 0              ; /Applications/Xcode.app/Contents/Developer/Platforms/MacOSX.platform/Developer/SDKs/MacOSX13.1.sdk/usr/include/c++/v1/__memory/unique_ptr.h:310:5
	ldp	x29, x30, [sp, #32]             ; 16-byte Folded Reload
	add	sp, sp, #48
	ret
Ltmp189:
Lfunc_end53:
	.cfi_endproc
                                        ; -- End function
	.p2align	2                               ; -- Begin function _ZNSt3__110unique_ptrINS_5tupleIJNS0_INS_15__thread_structENS_14default_deleteIS2_EEEEM6ThreadFvvEPS6_EEENS3_ISA_EEED1Ev
__ZNSt3__110unique_ptrINS_5tupleIJNS0_INS_15__thread_structENS_14default_deleteIS2_EEEEM6ThreadFvvEPS6_EEENS3_ISA_EEED1Ev: ; @_ZNSt3__110unique_ptrINS_5tupleIJNS0_INS_15__thread_structENS_14default_deleteIS2_EEEEM6ThreadFvvEPS6_EEENS3_ISA_EEED1Ev
Lfunc_begin54:
	.loc	45 272 0 is_stmt 1              ; /Applications/Xcode.app/Contents/Developer/Platforms/MacOSX.platform/Developer/SDKs/MacOSX13.1.sdk/usr/include/c++/v1/__memory/unique_ptr.h:272:0
	.cfi_startproc
; %bb.0:
	sub	sp, sp, #32
	stp	x29, x30, [sp, #16]             ; 16-byte Folded Spill
	add	x29, sp, #16
	.cfi_def_cfa w29, 16
	.cfi_offset w30, -8
	.cfi_offset w29, -16
	str	x0, [sp, #8]
	ldr	x0, [sp, #8]
	str	x0, [sp]                        ; 8-byte Folded Spill
Ltmp190:
	.loc	45 272 17 prologue_end          ; /Applications/Xcode.app/Contents/Developer/Platforms/MacOSX.platform/Developer/SDKs/MacOSX13.1.sdk/usr/include/c++/v1/__memory/unique_ptr.h:272:17
	bl	__ZNSt3__110unique_ptrINS_5tupleIJNS0_INS_15__thread_structENS_14default_deleteIS2_EEEEM6ThreadFvvEPS6_EEENS3_ISA_EEED2Ev
	ldr	x0, [sp]                        ; 8-byte Folded Reload
	.loc	45 272 28 is_stmt 0             ; /Applications/Xcode.app/Contents/Developer/Platforms/MacOSX.platform/Developer/SDKs/MacOSX13.1.sdk/usr/include/c++/v1/__memory/unique_ptr.h:272:28
	ldp	x29, x30, [sp, #16]             ; 16-byte Folded Reload
	add	sp, sp, #32
	ret
Ltmp191:
Lfunc_end54:
	.cfi_endproc
                                        ; -- End function
	.p2align	2                               ; -- Begin function _ZNSt3__110unique_ptrINS_15__thread_structENS_14default_deleteIS1_EEED1Ev
__ZNSt3__110unique_ptrINS_15__thread_structENS_14default_deleteIS1_EEED1Ev: ; @_ZNSt3__110unique_ptrINS_15__thread_structENS_14default_deleteIS1_EEED1Ev
Lfunc_begin55:
	.loc	45 272 0 is_stmt 1              ; /Applications/Xcode.app/Contents/Developer/Platforms/MacOSX.platform/Developer/SDKs/MacOSX13.1.sdk/usr/include/c++/v1/__memory/unique_ptr.h:272:0
	.cfi_startproc
; %bb.0:
	sub	sp, sp, #32
	stp	x29, x30, [sp, #16]             ; 16-byte Folded Spill
	add	x29, sp, #16
	.cfi_def_cfa w29, 16
	.cfi_offset w30, -8
	.cfi_offset w29, -16
	str	x0, [sp, #8]
	ldr	x0, [sp, #8]
	str	x0, [sp]                        ; 8-byte Folded Spill
Ltmp192:
	.loc	45 272 17 prologue_end          ; /Applications/Xcode.app/Contents/Developer/Platforms/MacOSX.platform/Developer/SDKs/MacOSX13.1.sdk/usr/include/c++/v1/__memory/unique_ptr.h:272:17
	bl	__ZNSt3__110unique_ptrINS_15__thread_structENS_14default_deleteIS1_EEED2Ev
	ldr	x0, [sp]                        ; 8-byte Folded Reload
	.loc	45 272 28 is_stmt 0             ; /Applications/Xcode.app/Contents/Developer/Platforms/MacOSX.platform/Developer/SDKs/MacOSX13.1.sdk/usr/include/c++/v1/__memory/unique_ptr.h:272:28
	ldp	x29, x30, [sp, #16]             ; 16-byte Folded Reload
	add	sp, sp, #32
	ret
Ltmp193:
Lfunc_end55:
	.cfi_endproc
                                        ; -- End function
	.p2align	2                               ; -- Begin function _ZNSt3__110unique_ptrINS_15__thread_structENS_14default_deleteIS1_EEEC2ILb1EvEEPS1_
__ZNSt3__110unique_ptrINS_15__thread_structENS_14default_deleteIS1_EEEC2ILb1EvEEPS1_: ; @_ZNSt3__110unique_ptrINS_15__thread_structENS_14default_deleteIS1_EEEC2ILb1EvEEPS1_
Lfunc_begin56:
	.loc	45 190 0 is_stmt 1              ; /Applications/Xcode.app/Contents/Developer/Platforms/MacOSX.platform/Developer/SDKs/MacOSX13.1.sdk/usr/include/c++/v1/__memory/unique_ptr.h:190:0
	.cfi_startproc
	.cfi_personality 155, ___gxx_personality_v0
	.cfi_lsda 16, Lexception6
; %bb.0:
	sub	sp, sp, #48
	stp	x29, x30, [sp, #32]             ; 16-byte Folded Spill
	add	x29, sp, #32
	.cfi_def_cfa w29, 16
	.cfi_offset w30, -8
	.cfi_offset w29, -16
	mov	x8, x1
	stur	x0, [x29, #-8]
	add	x1, sp, #16
	str	x8, [sp, #16]
	ldur	x0, [x29, #-8]
	str	x0, [sp]                        ; 8-byte Folded Spill
Ltmp194:
	add	x2, sp, #15
Ltmp197:
	.loc	45 190 47 prologue_end          ; /Applications/Xcode.app/Contents/Developer/Platforms/MacOSX.platform/Developer/SDKs/MacOSX13.1.sdk/usr/include/c++/v1/__memory/unique_ptr.h:190:47
	bl	__ZNSt3__117__compressed_pairIPNS_15__thread_structENS_14default_deleteIS1_EEEC1IRS2_NS_18__default_init_tagEEEOT_OT0_
Ltmp195:
	b	LBB56_1
LBB56_1:
	.loc	45 0 47 is_stmt 0               ; /Applications/Xcode.app/Contents/Developer/Platforms/MacOSX.platform/Developer/SDKs/MacOSX13.1.sdk/usr/include/c++/v1/__memory/unique_ptr.h:0:47
	ldr	x0, [sp]                        ; 8-byte Folded Reload
	.loc	45 190 82                       ; /Applications/Xcode.app/Contents/Developer/Platforms/MacOSX.platform/Developer/SDKs/MacOSX13.1.sdk/usr/include/c++/v1/__memory/unique_ptr.h:190:82
	ldp	x29, x30, [sp, #32]             ; 16-byte Folded Reload
	add	sp, sp, #48
	ret
LBB56_2:
Ltmp196:
	.loc	45 190 47                       ; /Applications/Xcode.app/Contents/Developer/Platforms/MacOSX.platform/Developer/SDKs/MacOSX13.1.sdk/usr/include/c++/v1/__memory/unique_ptr.h:190:47
	bl	___clang_call_terminate
Ltmp198:
Lfunc_end56:
	.cfi_endproc
	.section	__TEXT,__gcc_except_tab
	.p2align	2
GCC_except_table56:
Lexception6:
	.byte	255                             ; @LPStart Encoding = omit
	.byte	155                             ; @TType Encoding = indirect pcrel sdata4
	.uleb128 Lttbase2-Lttbaseref2
Lttbaseref2:
	.byte	1                               ; Call site Encoding = uleb128
	.uleb128 Lcst_end6-Lcst_begin6
Lcst_begin6:
	.uleb128 Ltmp194-Lfunc_begin56          ; >> Call Site 1 <<
	.uleb128 Ltmp195-Ltmp194                ;   Call between Ltmp194 and Ltmp195
	.uleb128 Ltmp196-Lfunc_begin56          ;     jumps to Ltmp196
	.byte	1                               ;   On action: 1
Lcst_end6:
	.byte	1                               ; >> Action Record 1 <<
                                        ;   Catch TypeInfo 1
	.byte	0                               ;   No further actions
	.p2align	2
                                        ; >> Catch TypeInfos <<
	.long	0                               ; TypeInfo 1
Lttbase2:
	.p2align	2
                                        ; -- End function
	.section	__TEXT,__text,regular,pure_instructions
	.p2align	2                               ; -- Begin function _ZNSt3__117__compressed_pairIPNS_15__thread_structENS_14default_deleteIS1_EEEC1IRS2_NS_18__default_init_tagEEEOT_OT0_
__ZNSt3__117__compressed_pairIPNS_15__thread_structENS_14default_deleteIS1_EEEC1IRS2_NS_18__default_init_tagEEEOT_OT0_: ; @_ZNSt3__117__compressed_pairIPNS_15__thread_structENS_14default_deleteIS1_EEEC1IRS2_NS_18__default_init_tagEEEOT_OT0_
Lfunc_begin57:
	.loc	6 136 0 is_stmt 1               ; /Applications/Xcode.app/Contents/Developer/Platforms/MacOSX.platform/Developer/SDKs/MacOSX13.1.sdk/usr/include/c++/v1/__memory/compressed_pair.h:136:0
	.cfi_startproc
; %bb.0:
	sub	sp, sp, #48
	stp	x29, x30, [sp, #32]             ; 16-byte Folded Spill
	add	x29, sp, #32
	.cfi_def_cfa w29, 16
	.cfi_offset w30, -8
	.cfi_offset w29, -16
	stur	x0, [x29, #-8]
	str	x1, [sp, #16]
	str	x2, [sp, #8]
	ldur	x0, [x29, #-8]
	str	x0, [sp]                        ; 8-byte Folded Spill
Ltmp199:
	.loc	6 136 84 prologue_end           ; /Applications/Xcode.app/Contents/Developer/Platforms/MacOSX.platform/Developer/SDKs/MacOSX13.1.sdk/usr/include/c++/v1/__memory/compressed_pair.h:136:84
	ldr	x1, [sp, #16]
	ldr	x2, [sp, #8]
	bl	__ZNSt3__117__compressed_pairIPNS_15__thread_structENS_14default_deleteIS1_EEEC2IRS2_NS_18__default_init_tagEEEOT_OT0_
	ldr	x0, [sp]                        ; 8-byte Folded Reload
	.loc	6 136 85 is_stmt 0              ; /Applications/Xcode.app/Contents/Developer/Platforms/MacOSX.platform/Developer/SDKs/MacOSX13.1.sdk/usr/include/c++/v1/__memory/compressed_pair.h:136:85
	ldp	x29, x30, [sp, #32]             ; 16-byte Folded Reload
	add	sp, sp, #48
	ret
Ltmp200:
Lfunc_end57:
	.cfi_endproc
                                        ; -- End function
	.p2align	2                               ; -- Begin function _ZNSt3__117__compressed_pairIPNS_15__thread_structENS_14default_deleteIS1_EEEC2IRS2_NS_18__default_init_tagEEEOT_OT0_
__ZNSt3__117__compressed_pairIPNS_15__thread_structENS_14default_deleteIS1_EEEC2IRS2_NS_18__default_init_tagEEEOT_OT0_: ; @_ZNSt3__117__compressed_pairIPNS_15__thread_structENS_14default_deleteIS1_EEEC2IRS2_NS_18__default_init_tagEEEOT_OT0_
Lfunc_begin58:
	.loc	6 136 0 is_stmt 1               ; /Applications/Xcode.app/Contents/Developer/Platforms/MacOSX.platform/Developer/SDKs/MacOSX13.1.sdk/usr/include/c++/v1/__memory/compressed_pair.h:136:0
	.cfi_startproc
; %bb.0:
	sub	sp, sp, #64
	stp	x29, x30, [sp, #48]             ; 16-byte Folded Spill
	add	x29, sp, #48
	.cfi_def_cfa w29, 16
	.cfi_offset w30, -8
	.cfi_offset w29, -16
	stur	x0, [x29, #-8]
	stur	x1, [x29, #-16]
	str	x2, [sp, #24]
	ldur	x8, [x29, #-8]
	str	x8, [sp, #8]                    ; 8-byte Folded Spill
Ltmp201:
	.loc	6 136 39 prologue_end           ; /Applications/Xcode.app/Contents/Developer/Platforms/MacOSX.platform/Developer/SDKs/MacOSX13.1.sdk/usr/include/c++/v1/__memory/compressed_pair.h:136:39
	ldur	x0, [x29, #-16]
	.loc	6 136 16 is_stmt 0              ; /Applications/Xcode.app/Contents/Developer/Platforms/MacOSX.platform/Developer/SDKs/MacOSX13.1.sdk/usr/include/c++/v1/__memory/compressed_pair.h:136:16
	bl	__ZNSt3__1L7forwardIRPNS_15__thread_structEEEOT_RNS_16remove_referenceIS4_E4typeE
	mov	x1, x0
	ldr	x0, [sp, #8]                    ; 8-byte Folded Reload
	.loc	6 136 9                         ; /Applications/Xcode.app/Contents/Developer/Platforms/MacOSX.platform/Developer/SDKs/MacOSX13.1.sdk/usr/include/c++/v1/__memory/compressed_pair.h:136:9
	bl	__ZNSt3__122__compressed_pair_elemIPNS_15__thread_structELi0ELb0EEC2IRS2_vEEOT_
	.loc	6 136 77                        ; /Applications/Xcode.app/Contents/Developer/Platforms/MacOSX.platform/Developer/SDKs/MacOSX13.1.sdk/usr/include/c++/v1/__memory/compressed_pair.h:136:77
	ldr	x0, [sp, #24]
	.loc	6 136 54                        ; /Applications/Xcode.app/Contents/Developer/Platforms/MacOSX.platform/Developer/SDKs/MacOSX13.1.sdk/usr/include/c++/v1/__memory/compressed_pair.h:136:54
	bl	__ZNSt3__1L7forwardINS_18__default_init_tagEEEOT_RNS_16remove_referenceIS2_E4typeE
	ldr	x0, [sp, #8]                    ; 8-byte Folded Reload
	.loc	6 136 47                        ; /Applications/Xcode.app/Contents/Developer/Platforms/MacOSX.platform/Developer/SDKs/MacOSX13.1.sdk/usr/include/c++/v1/__memory/compressed_pair.h:136:47
	bl	__ZNSt3__122__compressed_pair_elemINS_14default_deleteINS_15__thread_structEEELi1ELb1EEC2ENS_18__default_init_tagE
	ldr	x0, [sp, #8]                    ; 8-byte Folded Reload
	.loc	6 136 85                        ; /Applications/Xcode.app/Contents/Developer/Platforms/MacOSX.platform/Developer/SDKs/MacOSX13.1.sdk/usr/include/c++/v1/__memory/compressed_pair.h:136:85
	ldp	x29, x30, [sp, #48]             ; 16-byte Folded Reload
	add	sp, sp, #64
	ret
Ltmp202:
Lfunc_end58:
	.cfi_endproc
                                        ; -- End function
	.p2align	2                               ; -- Begin function _ZNSt3__1L7forwardIRPNS_15__thread_structEEEOT_RNS_16remove_referenceIS4_E4typeE
__ZNSt3__1L7forwardIRPNS_15__thread_structEEEOT_RNS_16remove_referenceIS4_E4typeE: ; @_ZNSt3__1L7forwardIRPNS_15__thread_structEEEOT_RNS_16remove_referenceIS4_E4typeE
Lfunc_begin59:
	.loc	102 27 0 is_stmt 1              ; /Applications/Xcode.app/Contents/Developer/Platforms/MacOSX.platform/Developer/SDKs/MacOSX13.1.sdk/usr/include/c++/v1/__utility/forward.h:27:0
	.cfi_startproc
; %bb.0:
	sub	sp, sp, #16
	.cfi_def_cfa_offset 16
	str	x0, [sp, #8]
Ltmp204:
	.loc	102 28 29 prologue_end          ; /Applications/Xcode.app/Contents/Developer/Platforms/MacOSX.platform/Developer/SDKs/MacOSX13.1.sdk/usr/include/c++/v1/__utility/forward.h:28:29
	ldr	x0, [sp, #8]
	.loc	102 28 3 is_stmt 0              ; /Applications/Xcode.app/Contents/Developer/Platforms/MacOSX.platform/Developer/SDKs/MacOSX13.1.sdk/usr/include/c++/v1/__utility/forward.h:28:3
	add	sp, sp, #16
	ret
Ltmp205:
Lfunc_end59:
	.cfi_endproc
                                        ; -- End function
	.p2align	2                               ; -- Begin function _ZNSt3__122__compressed_pair_elemIPNS_15__thread_structELi0ELb0EEC2IRS2_vEEOT_
__ZNSt3__122__compressed_pair_elemIPNS_15__thread_structELi0ELb0EEC2IRS2_vEEOT_: ; @_ZNSt3__122__compressed_pair_elemIPNS_15__thread_structELi0ELb0EEC2IRS2_vEEOT_
Lfunc_begin60:
	.loc	6 52 0 is_stmt 1                ; /Applications/Xcode.app/Contents/Developer/Platforms/MacOSX.platform/Developer/SDKs/MacOSX13.1.sdk/usr/include/c++/v1/__memory/compressed_pair.h:52:0
	.cfi_startproc
; %bb.0:
	sub	sp, sp, #48
	stp	x29, x30, [sp, #32]             ; 16-byte Folded Spill
	add	x29, sp, #32
	.cfi_def_cfa w29, 16
	.cfi_offset w30, -8
	.cfi_offset w29, -16
	stur	x0, [x29, #-8]
	str	x1, [sp, #16]
	ldur	x8, [x29, #-8]
	str	x8, [sp, #8]                    ; 8-byte Folded Spill
Ltmp206:
	.loc	6 51 41 prologue_end            ; /Applications/Xcode.app/Contents/Developer/Platforms/MacOSX.platform/Developer/SDKs/MacOSX13.1.sdk/usr/include/c++/v1/__memory/compressed_pair.h:51:41
	ldr	x0, [sp, #16]
	.loc	6 51 18 is_stmt 0               ; /Applications/Xcode.app/Contents/Developer/Platforms/MacOSX.platform/Developer/SDKs/MacOSX13.1.sdk/usr/include/c++/v1/__memory/compressed_pair.h:51:18
	bl	__ZNSt3__1L7forwardIRPNS_15__thread_structEEEOT_RNS_16remove_referenceIS4_E4typeE
	mov	x8, x0
	ldr	x0, [sp, #8]                    ; 8-byte Folded Reload
	ldr	x8, [x8]
	.loc	6 51 9                          ; /Applications/Xcode.app/Contents/Developer/Platforms/MacOSX.platform/Developer/SDKs/MacOSX13.1.sdk/usr/include/c++/v1/__memory/compressed_pair.h:51:9
	str	x8, [x0]
	.loc	6 53 5 is_stmt 1                ; /Applications/Xcode.app/Contents/Developer/Platforms/MacOSX.platform/Developer/SDKs/MacOSX13.1.sdk/usr/include/c++/v1/__memory/compressed_pair.h:53:5
	ldp	x29, x30, [sp, #32]             ; 16-byte Folded Reload
	add	sp, sp, #48
	ret
Ltmp207:
Lfunc_end60:
	.cfi_endproc
                                        ; -- End function
	.p2align	2                               ; -- Begin function _ZNSt3__122__compressed_pair_elemINS_14default_deleteINS_15__thread_structEEELi1ELb1EEC2ENS_18__default_init_tagE
__ZNSt3__122__compressed_pair_elemINS_14default_deleteINS_15__thread_structEEELi1ELb1EEC2ENS_18__default_init_tagE: ; @_ZNSt3__122__compressed_pair_elemINS_14default_deleteINS_15__thread_structEEELi1ELb1EEC2ENS_18__default_init_tagE
Lfunc_begin61:
	.loc	6 82 0                          ; /Applications/Xcode.app/Contents/Developer/Platforms/MacOSX.platform/Developer/SDKs/MacOSX13.1.sdk/usr/include/c++/v1/__memory/compressed_pair.h:82:0
	.cfi_startproc
; %bb.0:
	sub	sp, sp, #16
	.cfi_def_cfa_offset 16
	str	x0, [sp]
	ldr	x0, [sp]
Ltmp209:
	.loc	6 82 47 prologue_end            ; /Applications/Xcode.app/Contents/Developer/Platforms/MacOSX.platform/Developer/SDKs/MacOSX13.1.sdk/usr/include/c++/v1/__memory/compressed_pair.h:82:47
	add	sp, sp, #16
	ret
Ltmp210:
Lfunc_end61:
	.cfi_endproc
                                        ; -- End function
	.p2align	2                               ; -- Begin function _ZNSt3__15tupleIJNS_10unique_ptrINS_15__thread_structENS_14default_deleteIS2_EEEEM6ThreadFvvEPS6_EEC2IJS5_S8_S9_ELi0EEEDpOT_
__ZNSt3__15tupleIJNS_10unique_ptrINS_15__thread_structENS_14default_deleteIS2_EEEEM6ThreadFvvEPS6_EEC2IJS5_S8_S9_ELi0EEEDpOT_: ; @_ZNSt3__15tupleIJNS_10unique_ptrINS_15__thread_structENS_14default_deleteIS2_EEEEM6ThreadFvvEPS6_EEC2IJS5_S8_S9_ELi0EEEDpOT_
Lfunc_begin62:
	.loc	54 612 0                        ; /Applications/Xcode.app/Contents/Developer/Platforms/MacOSX.platform/Developer/SDKs/MacOSX13.1.sdk/usr/include/c++/v1/tuple:612:0
	.cfi_startproc
; %bb.0:
	sub	sp, sp, #80
	stp	x29, x30, [sp, #64]             ; 16-byte Folded Spill
	add	x29, sp, #64
	.cfi_def_cfa w29, 16
	.cfi_offset w30, -8
	.cfi_offset w29, -16
	stur	x0, [x29, #-8]
	stur	x1, [x29, #-16]
	stur	x2, [x29, #-24]
	str	x3, [sp, #32]
	ldur	x8, [x29, #-8]
	str	x8, [sp, #16]                   ; 8-byte Folded Spill
Ltmp211:
	.loc	54 612 44 prologue_end          ; /Applications/Xcode.app/Contents/Developer/Platforms/MacOSX.platform/Developer/SDKs/MacOSX13.1.sdk/usr/include/c++/v1/tuple:612:44
	ldur	x0, [x29, #-16]
	.loc	54 612 21 is_stmt 0             ; /Applications/Xcode.app/Contents/Developer/Platforms/MacOSX.platform/Developer/SDKs/MacOSX13.1.sdk/usr/include/c++/v1/tuple:612:21
	bl	__ZNSt3__1L7forwardINS_10unique_ptrINS_15__thread_structENS_14default_deleteIS2_EEEEEEOT_RNS_16remove_referenceIS6_E4typeE
	str	x0, [sp]                        ; 8-byte Folded Spill
	.loc	54 612 44                       ; /Applications/Xcode.app/Contents/Developer/Platforms/MacOSX.platform/Developer/SDKs/MacOSX13.1.sdk/usr/include/c++/v1/tuple:612:44
	ldur	x0, [x29, #-24]
	.loc	54 612 21                       ; /Applications/Xcode.app/Contents/Developer/Platforms/MacOSX.platform/Developer/SDKs/MacOSX13.1.sdk/usr/include/c++/v1/tuple:612:21
	bl	__ZNSt3__1L7forwardIM6ThreadFvvEEEOT_RNS_16remove_referenceIS4_E4typeE
	str	x0, [sp, #8]                    ; 8-byte Folded Spill
	.loc	54 612 44                       ; /Applications/Xcode.app/Contents/Developer/Platforms/MacOSX.platform/Developer/SDKs/MacOSX13.1.sdk/usr/include/c++/v1/tuple:612:44
	ldr	x0, [sp, #32]
	.loc	54 612 21                       ; /Applications/Xcode.app/Contents/Developer/Platforms/MacOSX.platform/Developer/SDKs/MacOSX13.1.sdk/usr/include/c++/v1/tuple:612:21
	bl	__ZNSt3__1L7forwardIP6ThreadEEOT_RNS_16remove_referenceIS3_E4typeE
	ldr	x1, [sp]                        ; 8-byte Folded Reload
	ldr	x2, [sp, #8]                    ; 8-byte Folded Reload
	mov	x3, x0
	ldr	x0, [sp, #16]                   ; 8-byte Folded Reload
	.loc	54 608 11 is_stmt 1             ; /Applications/Xcode.app/Contents/Developer/Platforms/MacOSX.platform/Developer/SDKs/MacOSX13.1.sdk/usr/include/c++/v1/tuple:608:11
	bl	__ZNSt3__112__tuple_implINS_15__tuple_indicesIJLm0ELm1ELm2EEEEJNS_10unique_ptrINS_15__thread_structENS_14default_deleteIS4_EEEEM6ThreadFvvEPS8_EEC1IJLm0ELm1ELm2EEJS7_SA_SB_EJEJEJS7_SA_SB_EEENS1_IJXspT_EEEENS_13__tuple_typesIJDpT0_EEENS1_IJXspT1_EEEENSF_IJDpT2_EEEDpOT3_
	ldr	x0, [sp, #16]                   ; 8-byte Folded Reload
	.loc	54 612 54                       ; /Applications/Xcode.app/Contents/Developer/Platforms/MacOSX.platform/Developer/SDKs/MacOSX13.1.sdk/usr/include/c++/v1/tuple:612:54
	ldp	x29, x30, [sp, #64]             ; 16-byte Folded Reload
	add	sp, sp, #80
	ret
Ltmp212:
Lfunc_end62:
	.cfi_endproc
                                        ; -- End function
	.p2align	2                               ; -- Begin function _ZNSt3__1L7forwardINS_10unique_ptrINS_15__thread_structENS_14default_deleteIS2_EEEEEEOT_RNS_16remove_referenceIS6_E4typeE
__ZNSt3__1L7forwardINS_10unique_ptrINS_15__thread_structENS_14default_deleteIS2_EEEEEEOT_RNS_16remove_referenceIS6_E4typeE: ; @_ZNSt3__1L7forwardINS_10unique_ptrINS_15__thread_structENS_14default_deleteIS2_EEEEEEOT_RNS_16remove_referenceIS6_E4typeE
Lfunc_begin63:
	.loc	102 27 0                        ; /Applications/Xcode.app/Contents/Developer/Platforms/MacOSX.platform/Developer/SDKs/MacOSX13.1.sdk/usr/include/c++/v1/__utility/forward.h:27:0
	.cfi_startproc
; %bb.0:
	sub	sp, sp, #16
	.cfi_def_cfa_offset 16
	str	x0, [sp, #8]
Ltmp214:
	.loc	102 28 29 prologue_end          ; /Applications/Xcode.app/Contents/Developer/Platforms/MacOSX.platform/Developer/SDKs/MacOSX13.1.sdk/usr/include/c++/v1/__utility/forward.h:28:29
	ldr	x0, [sp, #8]
	.loc	102 28 3 is_stmt 0              ; /Applications/Xcode.app/Contents/Developer/Platforms/MacOSX.platform/Developer/SDKs/MacOSX13.1.sdk/usr/include/c++/v1/__utility/forward.h:28:3
	add	sp, sp, #16
	ret
Ltmp215:
Lfunc_end63:
	.cfi_endproc
                                        ; -- End function
	.p2align	2                               ; -- Begin function _ZNSt3__112__tuple_implINS_15__tuple_indicesIJLm0ELm1ELm2EEEEJNS_10unique_ptrINS_15__thread_structENS_14default_deleteIS4_EEEEM6ThreadFvvEPS8_EEC1IJLm0ELm1ELm2EEJS7_SA_SB_EJEJEJS7_SA_SB_EEENS1_IJXspT_EEEENS_13__tuple_typesIJDpT0_EEENS1_IJXspT1_EEEENSF_IJDpT2_EEEDpOT3_
__ZNSt3__112__tuple_implINS_15__tuple_indicesIJLm0ELm1ELm2EEEEJNS_10unique_ptrINS_15__thread_structENS_14default_deleteIS4_EEEEM6ThreadFvvEPS8_EEC1IJLm0ELm1ELm2EEJS7_SA_SB_EJEJEJS7_SA_SB_EEENS1_IJXspT_EEEENS_13__tuple_typesIJDpT0_EEENS1_IJXspT1_EEEENSF_IJDpT2_EEEDpOT3_: ; @_ZNSt3__112__tuple_implINS_15__tuple_indicesIJLm0ELm1ELm2EEEEJNS_10unique_ptrINS_15__thread_structENS_14default_deleteIS4_EEEEM6ThreadFvvEPS8_EEC1IJLm0ELm1ELm2EEJS7_SA_SB_EJEJEJS7_SA_SB_EEENS1_IJXspT_EEEENS_13__tuple_typesIJDpT0_EEENS1_IJXspT1_EEEENSF_IJDpT2_EEEDpOT3_
Lfunc_begin64:
	.loc	54 383 0 is_stmt 1              ; /Applications/Xcode.app/Contents/Developer/Platforms/MacOSX.platform/Developer/SDKs/MacOSX13.1.sdk/usr/include/c++/v1/tuple:383:0
	.cfi_startproc
; %bb.0:
	sub	sp, sp, #64
	stp	x29, x30, [sp, #48]             ; 16-byte Folded Spill
	add	x29, sp, #48
	.cfi_def_cfa w29, 16
	.cfi_offset w30, -8
	.cfi_offset w29, -16
	stur	x0, [x29, #-16]
	str	x1, [sp, #24]
	str	x2, [sp, #16]
	str	x3, [sp, #8]
	ldur	x0, [x29, #-16]
	str	x0, [sp]                        ; 8-byte Folded Spill
Ltmp216:
	.loc	54 383 13 prologue_end          ; /Applications/Xcode.app/Contents/Developer/Platforms/MacOSX.platform/Developer/SDKs/MacOSX13.1.sdk/usr/include/c++/v1/tuple:383:13
	ldr	x1, [sp, #24]
	ldr	x2, [sp, #16]
	ldr	x3, [sp, #8]
	bl	__ZNSt3__112__tuple_implINS_15__tuple_indicesIJLm0ELm1ELm2EEEEJNS_10unique_ptrINS_15__thread_structENS_14default_deleteIS4_EEEEM6ThreadFvvEPS8_EEC2IJLm0ELm1ELm2EEJS7_SA_SB_EJEJEJS7_SA_SB_EEENS1_IJXspT_EEEENS_13__tuple_typesIJDpT0_EEENS1_IJXspT1_EEEENSF_IJDpT2_EEEDpOT3_
	ldr	x0, [sp]                        ; 8-byte Folded Reload
	.loc	54 383 14 is_stmt 0             ; /Applications/Xcode.app/Contents/Developer/Platforms/MacOSX.platform/Developer/SDKs/MacOSX13.1.sdk/usr/include/c++/v1/tuple:383:14
	ldp	x29, x30, [sp, #48]             ; 16-byte Folded Reload
	add	sp, sp, #64
	ret
Ltmp217:
Lfunc_end64:
	.cfi_endproc
                                        ; -- End function
	.p2align	2                               ; -- Begin function _ZNSt3__112__tuple_implINS_15__tuple_indicesIJLm0ELm1ELm2EEEEJNS_10unique_ptrINS_15__thread_structENS_14default_deleteIS4_EEEEM6ThreadFvvEPS8_EEC2IJLm0ELm1ELm2EEJS7_SA_SB_EJEJEJS7_SA_SB_EEENS1_IJXspT_EEEENS_13__tuple_typesIJDpT0_EEENS1_IJXspT1_EEEENSF_IJDpT2_EEEDpOT3_
__ZNSt3__112__tuple_implINS_15__tuple_indicesIJLm0ELm1ELm2EEEEJNS_10unique_ptrINS_15__thread_structENS_14default_deleteIS4_EEEEM6ThreadFvvEPS8_EEC2IJLm0ELm1ELm2EEJS7_SA_SB_EJEJEJS7_SA_SB_EEENS1_IJXspT_EEEENS_13__tuple_typesIJDpT0_EEENS1_IJXspT1_EEEENSF_IJDpT2_EEEDpOT3_: ; @_ZNSt3__112__tuple_implINS_15__tuple_indicesIJLm0ELm1ELm2EEEEJNS_10unique_ptrINS_15__thread_structENS_14default_deleteIS4_EEEEM6ThreadFvvEPS8_EEC2IJLm0ELm1ELm2EEJS7_SA_SB_EJEJEJS7_SA_SB_EEENS1_IJXspT_EEEENS_13__tuple_typesIJDpT0_EEENS1_IJXspT1_EEEENSF_IJDpT2_EEEDpOT3_
Lfunc_begin65:
	.loc	54 383 0 is_stmt 1              ; /Applications/Xcode.app/Contents/Developer/Platforms/MacOSX.platform/Developer/SDKs/MacOSX13.1.sdk/usr/include/c++/v1/tuple:383:0
	.cfi_startproc
; %bb.0:
	sub	sp, sp, #64
	stp	x29, x30, [sp, #48]             ; 16-byte Folded Spill
	add	x29, sp, #48
	.cfi_def_cfa w29, 16
	.cfi_offset w30, -8
	.cfi_offset w29, -16
	stur	x0, [x29, #-16]
	str	x1, [sp, #24]
	str	x2, [sp, #16]
	str	x3, [sp, #8]
	ldur	x8, [x29, #-16]
	str	x8, [sp]                        ; 8-byte Folded Spill
Ltmp218:
	.loc	54 381 59 prologue_end          ; /Applications/Xcode.app/Contents/Developer/Platforms/MacOSX.platform/Developer/SDKs/MacOSX13.1.sdk/usr/include/c++/v1/tuple:381:59
	ldr	x0, [sp, #24]
	.loc	54 381 36 is_stmt 0             ; /Applications/Xcode.app/Contents/Developer/Platforms/MacOSX.platform/Developer/SDKs/MacOSX13.1.sdk/usr/include/c++/v1/tuple:381:36
	bl	__ZNSt3__1L7forwardINS_10unique_ptrINS_15__thread_structENS_14default_deleteIS2_EEEEEEOT_RNS_16remove_referenceIS6_E4typeE
	mov	x1, x0
	ldr	x0, [sp]                        ; 8-byte Folded Reload
	.loc	54 381 13                       ; /Applications/Xcode.app/Contents/Developer/Platforms/MacOSX.platform/Developer/SDKs/MacOSX13.1.sdk/usr/include/c++/v1/tuple:381:13
	bl	__ZNSt3__112__tuple_leafILm0ENS_10unique_ptrINS_15__thread_structENS_14default_deleteIS2_EEEELb0EEC2IS5_vEEOT_
	.loc	54 381 59                       ; /Applications/Xcode.app/Contents/Developer/Platforms/MacOSX.platform/Developer/SDKs/MacOSX13.1.sdk/usr/include/c++/v1/tuple:381:59
	ldr	x0, [sp, #16]
	.loc	54 381 36                       ; /Applications/Xcode.app/Contents/Developer/Platforms/MacOSX.platform/Developer/SDKs/MacOSX13.1.sdk/usr/include/c++/v1/tuple:381:36
	bl	__ZNSt3__1L7forwardIM6ThreadFvvEEEOT_RNS_16remove_referenceIS4_E4typeE
	ldr	x8, [sp]                        ; 8-byte Folded Reload
	mov	x1, x0
	.loc	54 383 13 is_stmt 1             ; /Applications/Xcode.app/Contents/Developer/Platforms/MacOSX.platform/Developer/SDKs/MacOSX13.1.sdk/usr/include/c++/v1/tuple:383:13
	add	x0, x8, #8
	.loc	54 381 13                       ; /Applications/Xcode.app/Contents/Developer/Platforms/MacOSX.platform/Developer/SDKs/MacOSX13.1.sdk/usr/include/c++/v1/tuple:381:13
	bl	__ZNSt3__112__tuple_leafILm1EM6ThreadFvvELb0EEC2IS3_vEEOT_
	.loc	54 381 59 is_stmt 0             ; /Applications/Xcode.app/Contents/Developer/Platforms/MacOSX.platform/Developer/SDKs/MacOSX13.1.sdk/usr/include/c++/v1/tuple:381:59
	ldr	x0, [sp, #8]
	.loc	54 381 36                       ; /Applications/Xcode.app/Contents/Developer/Platforms/MacOSX.platform/Developer/SDKs/MacOSX13.1.sdk/usr/include/c++/v1/tuple:381:36
	bl	__ZNSt3__1L7forwardIP6ThreadEEOT_RNS_16remove_referenceIS3_E4typeE
	ldr	x8, [sp]                        ; 8-byte Folded Reload
	mov	x1, x0
	.loc	54 383 13 is_stmt 1             ; /Applications/Xcode.app/Contents/Developer/Platforms/MacOSX.platform/Developer/SDKs/MacOSX13.1.sdk/usr/include/c++/v1/tuple:383:13
	add	x0, x8, #24
	.loc	54 381 13                       ; /Applications/Xcode.app/Contents/Developer/Platforms/MacOSX.platform/Developer/SDKs/MacOSX13.1.sdk/usr/include/c++/v1/tuple:381:13
	bl	__ZNSt3__112__tuple_leafILm2EP6ThreadLb0EEC2IS2_vEEOT_
	ldr	x0, [sp]                        ; 8-byte Folded Reload
	.loc	54 383 14                       ; /Applications/Xcode.app/Contents/Developer/Platforms/MacOSX.platform/Developer/SDKs/MacOSX13.1.sdk/usr/include/c++/v1/tuple:383:14
	ldp	x29, x30, [sp, #48]             ; 16-byte Folded Reload
	add	sp, sp, #64
	ret
Ltmp219:
Lfunc_end65:
	.cfi_endproc
                                        ; -- End function
	.p2align	2                               ; -- Begin function _ZNSt3__112__tuple_leafILm0ENS_10unique_ptrINS_15__thread_structENS_14default_deleteIS2_EEEELb0EEC2IS5_vEEOT_
__ZNSt3__112__tuple_leafILm0ENS_10unique_ptrINS_15__thread_structENS_14default_deleteIS2_EEEELb0EEC2IS5_vEEOT_: ; @_ZNSt3__112__tuple_leafILm0ENS_10unique_ptrINS_15__thread_structENS_14default_deleteIS2_EEEELb0EEC2IS5_vEEOT_
Lfunc_begin66:
	.loc	54 244 0                        ; /Applications/Xcode.app/Contents/Developer/Platforms/MacOSX.platform/Developer/SDKs/MacOSX13.1.sdk/usr/include/c++/v1/tuple:244:0
	.cfi_startproc
; %bb.0:
	sub	sp, sp, #48
	stp	x29, x30, [sp, #32]             ; 16-byte Folded Spill
	add	x29, sp, #32
	.cfi_def_cfa w29, 16
	.cfi_offset w30, -8
	.cfi_offset w29, -16
	stur	x0, [x29, #-8]
	str	x1, [sp, #16]
	ldur	x8, [x29, #-8]
	str	x8, [sp, #8]                    ; 8-byte Folded Spill
Ltmp220:
	.loc	54 243 47 prologue_end          ; /Applications/Xcode.app/Contents/Developer/Platforms/MacOSX.platform/Developer/SDKs/MacOSX13.1.sdk/usr/include/c++/v1/tuple:243:47
	ldr	x0, [sp, #16]
	.loc	54 243 24 is_stmt 0             ; /Applications/Xcode.app/Contents/Developer/Platforms/MacOSX.platform/Developer/SDKs/MacOSX13.1.sdk/usr/include/c++/v1/tuple:243:24
	bl	__ZNSt3__1L7forwardINS_10unique_ptrINS_15__thread_structENS_14default_deleteIS2_EEEEEEOT_RNS_16remove_referenceIS6_E4typeE
	mov	x1, x0
	ldr	x0, [sp, #8]                    ; 8-byte Folded Reload
	.loc	54 243 15                       ; /Applications/Xcode.app/Contents/Developer/Platforms/MacOSX.platform/Developer/SDKs/MacOSX13.1.sdk/usr/include/c++/v1/tuple:243:15
	bl	__ZNSt3__110unique_ptrINS_15__thread_structENS_14default_deleteIS1_EEEC1EOS4_
	ldr	x0, [sp, #8]                    ; 8-byte Folded Reload
	.loc	54 245 101 is_stmt 1            ; /Applications/Xcode.app/Contents/Developer/Platforms/MacOSX.platform/Developer/SDKs/MacOSX13.1.sdk/usr/include/c++/v1/tuple:245:101
	ldp	x29, x30, [sp, #32]             ; 16-byte Folded Reload
	add	sp, sp, #48
	ret
Ltmp221:
Lfunc_end66:
	.cfi_endproc
                                        ; -- End function
	.p2align	2                               ; -- Begin function _ZNSt3__112__tuple_leafILm1EM6ThreadFvvELb0EEC2IS3_vEEOT_
__ZNSt3__112__tuple_leafILm1EM6ThreadFvvELb0EEC2IS3_vEEOT_: ; @_ZNSt3__112__tuple_leafILm1EM6ThreadFvvELb0EEC2IS3_vEEOT_
Lfunc_begin67:
	.loc	54 244 0                        ; /Applications/Xcode.app/Contents/Developer/Platforms/MacOSX.platform/Developer/SDKs/MacOSX13.1.sdk/usr/include/c++/v1/tuple:244:0
	.cfi_startproc
; %bb.0:
	sub	sp, sp, #48
	stp	x29, x30, [sp, #32]             ; 16-byte Folded Spill
	add	x29, sp, #32
	.cfi_def_cfa w29, 16
	.cfi_offset w30, -8
	.cfi_offset w29, -16
	stur	x0, [x29, #-8]
	str	x1, [sp, #16]
	ldur	x8, [x29, #-8]
	str	x8, [sp, #8]                    ; 8-byte Folded Spill
Ltmp222:
	.loc	54 243 47 prologue_end          ; /Applications/Xcode.app/Contents/Developer/Platforms/MacOSX.platform/Developer/SDKs/MacOSX13.1.sdk/usr/include/c++/v1/tuple:243:47
	ldr	x0, [sp, #16]
	.loc	54 243 24 is_stmt 0             ; /Applications/Xcode.app/Contents/Developer/Platforms/MacOSX.platform/Developer/SDKs/MacOSX13.1.sdk/usr/include/c++/v1/tuple:243:24
	bl	__ZNSt3__1L7forwardIM6ThreadFvvEEEOT_RNS_16remove_referenceIS4_E4typeE
	mov	x8, x0
	ldr	x0, [sp, #8]                    ; 8-byte Folded Reload
	ldr	x9, [x8]
	ldr	x8, [x8, #8]
	.loc	54 243 15                       ; /Applications/Xcode.app/Contents/Developer/Platforms/MacOSX.platform/Developer/SDKs/MacOSX13.1.sdk/usr/include/c++/v1/tuple:243:15
	str	x9, [x0]
	str	x8, [x0, #8]
	.loc	54 245 101 is_stmt 1            ; /Applications/Xcode.app/Contents/Developer/Platforms/MacOSX.platform/Developer/SDKs/MacOSX13.1.sdk/usr/include/c++/v1/tuple:245:101
	ldp	x29, x30, [sp, #32]             ; 16-byte Folded Reload
	add	sp, sp, #48
	ret
Ltmp223:
Lfunc_end67:
	.cfi_endproc
                                        ; -- End function
	.p2align	2                               ; -- Begin function _ZNSt3__112__tuple_leafILm2EP6ThreadLb0EEC2IS2_vEEOT_
__ZNSt3__112__tuple_leafILm2EP6ThreadLb0EEC2IS2_vEEOT_: ; @_ZNSt3__112__tuple_leafILm2EP6ThreadLb0EEC2IS2_vEEOT_
Lfunc_begin68:
	.loc	54 244 0                        ; /Applications/Xcode.app/Contents/Developer/Platforms/MacOSX.platform/Developer/SDKs/MacOSX13.1.sdk/usr/include/c++/v1/tuple:244:0
	.cfi_startproc
; %bb.0:
	sub	sp, sp, #48
	stp	x29, x30, [sp, #32]             ; 16-byte Folded Spill
	add	x29, sp, #32
	.cfi_def_cfa w29, 16
	.cfi_offset w30, -8
	.cfi_offset w29, -16
	stur	x0, [x29, #-8]
	str	x1, [sp, #16]
	ldur	x8, [x29, #-8]
	str	x8, [sp, #8]                    ; 8-byte Folded Spill
Ltmp224:
	.loc	54 243 47 prologue_end          ; /Applications/Xcode.app/Contents/Developer/Platforms/MacOSX.platform/Developer/SDKs/MacOSX13.1.sdk/usr/include/c++/v1/tuple:243:47
	ldr	x0, [sp, #16]
	.loc	54 243 24 is_stmt 0             ; /Applications/Xcode.app/Contents/Developer/Platforms/MacOSX.platform/Developer/SDKs/MacOSX13.1.sdk/usr/include/c++/v1/tuple:243:24
	bl	__ZNSt3__1L7forwardIP6ThreadEEOT_RNS_16remove_referenceIS3_E4typeE
	mov	x8, x0
	ldr	x0, [sp, #8]                    ; 8-byte Folded Reload
	ldr	x8, [x8]
	.loc	54 243 15                       ; /Applications/Xcode.app/Contents/Developer/Platforms/MacOSX.platform/Developer/SDKs/MacOSX13.1.sdk/usr/include/c++/v1/tuple:243:15
	str	x8, [x0]
	.loc	54 245 101 is_stmt 1            ; /Applications/Xcode.app/Contents/Developer/Platforms/MacOSX.platform/Developer/SDKs/MacOSX13.1.sdk/usr/include/c++/v1/tuple:245:101
	ldp	x29, x30, [sp, #32]             ; 16-byte Folded Reload
	add	sp, sp, #48
	ret
Ltmp225:
Lfunc_end68:
	.cfi_endproc
                                        ; -- End function
	.p2align	2                               ; -- Begin function _ZNSt3__110unique_ptrINS_15__thread_structENS_14default_deleteIS1_EEEC1EOS4_
__ZNSt3__110unique_ptrINS_15__thread_structENS_14default_deleteIS1_EEEC1EOS4_: ; @_ZNSt3__110unique_ptrINS_15__thread_structENS_14default_deleteIS1_EEEC1EOS4_
Lfunc_begin69:
	.loc	45 214 0                        ; /Applications/Xcode.app/Contents/Developer/Platforms/MacOSX.platform/Developer/SDKs/MacOSX13.1.sdk/usr/include/c++/v1/__memory/unique_ptr.h:214:0
	.cfi_startproc
; %bb.0:
	sub	sp, sp, #48
	stp	x29, x30, [sp, #32]             ; 16-byte Folded Spill
	add	x29, sp, #32
	.cfi_def_cfa w29, 16
	.cfi_offset w30, -8
	.cfi_offset w29, -16
	stur	x0, [x29, #-8]
	str	x1, [sp, #16]
	ldur	x0, [x29, #-8]
	str	x0, [sp, #8]                    ; 8-byte Folded Spill
Ltmp226:
	.loc	45 214 83 prologue_end          ; /Applications/Xcode.app/Contents/Developer/Platforms/MacOSX.platform/Developer/SDKs/MacOSX13.1.sdk/usr/include/c++/v1/__memory/unique_ptr.h:214:83
	ldr	x1, [sp, #16]
	bl	__ZNSt3__110unique_ptrINS_15__thread_structENS_14default_deleteIS1_EEEC2EOS4_
	ldr	x0, [sp, #8]                    ; 8-byte Folded Reload
	.loc	45 215 3                        ; /Applications/Xcode.app/Contents/Developer/Platforms/MacOSX.platform/Developer/SDKs/MacOSX13.1.sdk/usr/include/c++/v1/__memory/unique_ptr.h:215:3
	ldp	x29, x30, [sp, #32]             ; 16-byte Folded Reload
	add	sp, sp, #48
	ret
Ltmp227:
Lfunc_end69:
	.cfi_endproc
                                        ; -- End function
	.p2align	2                               ; -- Begin function _ZNSt3__110unique_ptrINS_15__thread_structENS_14default_deleteIS1_EEEC2EOS4_
__ZNSt3__110unique_ptrINS_15__thread_structENS_14default_deleteIS1_EEEC2EOS4_: ; @_ZNSt3__110unique_ptrINS_15__thread_structENS_14default_deleteIS1_EEEC2EOS4_
Lfunc_begin70:
	.loc	45 214 0                        ; /Applications/Xcode.app/Contents/Developer/Platforms/MacOSX.platform/Developer/SDKs/MacOSX13.1.sdk/usr/include/c++/v1/__memory/unique_ptr.h:214:0
	.cfi_startproc
	.cfi_personality 155, ___gxx_personality_v0
	.cfi_lsda 16, Lexception7
; %bb.0:
	sub	sp, sp, #64
	stp	x29, x30, [sp, #48]             ; 16-byte Folded Spill
	add	x29, sp, #48
	.cfi_def_cfa w29, 16
	.cfi_offset w30, -8
	.cfi_offset w29, -16
	stur	x0, [x29, #-8]
	stur	x1, [x29, #-16]
	ldur	x8, [x29, #-8]
	str	x8, [sp, #16]                   ; 8-byte Folded Spill
Ltmp231:
	.loc	45 214 16 prologue_end          ; /Applications/Xcode.app/Contents/Developer/Platforms/MacOSX.platform/Developer/SDKs/MacOSX13.1.sdk/usr/include/c++/v1/__memory/unique_ptr.h:214:16
	ldur	x0, [x29, #-16]
	.loc	45 214 20 is_stmt 0             ; /Applications/Xcode.app/Contents/Developer/Platforms/MacOSX.platform/Developer/SDKs/MacOSX13.1.sdk/usr/include/c++/v1/__memory/unique_ptr.h:214:20
	bl	__ZNSt3__110unique_ptrINS_15__thread_structENS_14default_deleteIS1_EEE7releaseEv
	add	x8, sp, #24
	str	x8, [sp, #8]                    ; 8-byte Folded Spill
	.loc	45 214 16                       ; /Applications/Xcode.app/Contents/Developer/Platforms/MacOSX.platform/Developer/SDKs/MacOSX13.1.sdk/usr/include/c++/v1/__memory/unique_ptr.h:214:16
	str	x0, [sp, #24]
	.loc	45 214 63                       ; /Applications/Xcode.app/Contents/Developer/Platforms/MacOSX.platform/Developer/SDKs/MacOSX13.1.sdk/usr/include/c++/v1/__memory/unique_ptr.h:214:63
	ldur	x0, [x29, #-16]
	.loc	45 214 67                       ; /Applications/Xcode.app/Contents/Developer/Platforms/MacOSX.platform/Developer/SDKs/MacOSX13.1.sdk/usr/include/c++/v1/__memory/unique_ptr.h:214:67
	bl	__ZNSt3__110unique_ptrINS_15__thread_structENS_14default_deleteIS1_EEE11get_deleterEv
	.loc	45 214 31                       ; /Applications/Xcode.app/Contents/Developer/Platforms/MacOSX.platform/Developer/SDKs/MacOSX13.1.sdk/usr/include/c++/v1/__memory/unique_ptr.h:214:31
	bl	__ZNSt3__1L7forwardINS_14default_deleteINS_15__thread_structEEEEEOT_RNS_16remove_referenceIS4_E4typeE
	ldr	x1, [sp, #8]                    ; 8-byte Folded Reload
	mov	x2, x0
	ldr	x0, [sp, #16]                   ; 8-byte Folded Reload
Ltmp228:
	.loc	45 214 9                        ; /Applications/Xcode.app/Contents/Developer/Platforms/MacOSX.platform/Developer/SDKs/MacOSX13.1.sdk/usr/include/c++/v1/__memory/unique_ptr.h:214:9
	bl	__ZNSt3__117__compressed_pairIPNS_15__thread_structENS_14default_deleteIS1_EEEC1IS2_S4_EEOT_OT0_
Ltmp229:
	b	LBB70_1
LBB70_1:
	.loc	45 0 9                          ; /Applications/Xcode.app/Contents/Developer/Platforms/MacOSX.platform/Developer/SDKs/MacOSX13.1.sdk/usr/include/c++/v1/__memory/unique_ptr.h:0:9
	ldr	x0, [sp, #16]                   ; 8-byte Folded Reload
	.loc	45 215 3 is_stmt 1              ; /Applications/Xcode.app/Contents/Developer/Platforms/MacOSX.platform/Developer/SDKs/MacOSX13.1.sdk/usr/include/c++/v1/__memory/unique_ptr.h:215:3
	ldp	x29, x30, [sp, #48]             ; 16-byte Folded Reload
	add	sp, sp, #64
	ret
LBB70_2:
Ltmp230:
	.loc	45 214 9                        ; /Applications/Xcode.app/Contents/Developer/Platforms/MacOSX.platform/Developer/SDKs/MacOSX13.1.sdk/usr/include/c++/v1/__memory/unique_ptr.h:214:9
	bl	___clang_call_terminate
Ltmp232:
Lfunc_end70:
	.cfi_endproc
	.section	__TEXT,__gcc_except_tab
	.p2align	2
GCC_except_table70:
Lexception7:
	.byte	255                             ; @LPStart Encoding = omit
	.byte	155                             ; @TType Encoding = indirect pcrel sdata4
	.uleb128 Lttbase3-Lttbaseref3
Lttbaseref3:
	.byte	1                               ; Call site Encoding = uleb128
	.uleb128 Lcst_end7-Lcst_begin7
Lcst_begin7:
	.uleb128 Ltmp228-Lfunc_begin70          ; >> Call Site 1 <<
	.uleb128 Ltmp229-Ltmp228                ;   Call between Ltmp228 and Ltmp229
	.uleb128 Ltmp230-Lfunc_begin70          ;     jumps to Ltmp230
	.byte	1                               ;   On action: 1
Lcst_end7:
	.byte	1                               ; >> Action Record 1 <<
                                        ;   Catch TypeInfo 1
	.byte	0                               ;   No further actions
	.p2align	2
                                        ; >> Catch TypeInfos <<
	.long	0                               ; TypeInfo 1
Lttbase3:
	.p2align	2
                                        ; -- End function
	.section	__TEXT,__text,regular,pure_instructions
	.p2align	2                               ; -- Begin function _ZNSt3__110unique_ptrINS_15__thread_structENS_14default_deleteIS1_EEE7releaseEv
__ZNSt3__110unique_ptrINS_15__thread_structENS_14default_deleteIS1_EEE7releaseEv: ; @_ZNSt3__110unique_ptrINS_15__thread_structENS_14default_deleteIS1_EEE7releaseEv
Lfunc_begin71:
	.loc	45 307 0                        ; /Applications/Xcode.app/Contents/Developer/Platforms/MacOSX.platform/Developer/SDKs/MacOSX13.1.sdk/usr/include/c++/v1/__memory/unique_ptr.h:307:0
	.cfi_startproc
; %bb.0:
	sub	sp, sp, #48
	stp	x29, x30, [sp, #32]             ; 16-byte Folded Spill
	add	x29, sp, #32
	.cfi_def_cfa w29, 16
	.cfi_offset w30, -8
	.cfi_offset w29, -16
	stur	x0, [x29, #-8]
	ldur	x0, [x29, #-8]
	str	x0, [sp, #8]                    ; 8-byte Folded Spill
Ltmp233:
	.loc	45 308 26 prologue_end          ; /Applications/Xcode.app/Contents/Developer/Platforms/MacOSX.platform/Developer/SDKs/MacOSX13.1.sdk/usr/include/c++/v1/__memory/unique_ptr.h:308:26
	bl	__ZNSt3__117__compressed_pairIPNS_15__thread_structENS_14default_deleteIS1_EEE5firstEv
	mov	x8, x0
	ldr	x0, [sp, #8]                    ; 8-byte Folded Reload
	ldr	x8, [x8]
	.loc	45 308 13 is_stmt 0             ; /Applications/Xcode.app/Contents/Developer/Platforms/MacOSX.platform/Developer/SDKs/MacOSX13.1.sdk/usr/include/c++/v1/__memory/unique_ptr.h:308:13
	str	x8, [sp, #16]
	.loc	45 309 12 is_stmt 1             ; /Applications/Xcode.app/Contents/Developer/Platforms/MacOSX.platform/Developer/SDKs/MacOSX13.1.sdk/usr/include/c++/v1/__memory/unique_ptr.h:309:12
	bl	__ZNSt3__117__compressed_pairIPNS_15__thread_structENS_14default_deleteIS1_EEE5firstEv
                                        ; kill: def $x8 killed $xzr
	.loc	45 309 20 is_stmt 0             ; /Applications/Xcode.app/Contents/Developer/Platforms/MacOSX.platform/Developer/SDKs/MacOSX13.1.sdk/usr/include/c++/v1/__memory/unique_ptr.h:309:20
	str	xzr, [x0]
	.loc	45 310 12 is_stmt 1             ; /Applications/Xcode.app/Contents/Developer/Platforms/MacOSX.platform/Developer/SDKs/MacOSX13.1.sdk/usr/include/c++/v1/__memory/unique_ptr.h:310:12
	ldr	x0, [sp, #16]
	.loc	45 310 5 is_stmt 0              ; /Applications/Xcode.app/Contents/Developer/Platforms/MacOSX.platform/Developer/SDKs/MacOSX13.1.sdk/usr/include/c++/v1/__memory/unique_ptr.h:310:5
	ldp	x29, x30, [sp, #32]             ; 16-byte Folded Reload
	add	sp, sp, #48
	ret
Ltmp234:
Lfunc_end71:
	.cfi_endproc
                                        ; -- End function
	.p2align	2                               ; -- Begin function _ZNSt3__1L7forwardINS_14default_deleteINS_15__thread_structEEEEEOT_RNS_16remove_referenceIS4_E4typeE
__ZNSt3__1L7forwardINS_14default_deleteINS_15__thread_structEEEEEOT_RNS_16remove_referenceIS4_E4typeE: ; @_ZNSt3__1L7forwardINS_14default_deleteINS_15__thread_structEEEEEOT_RNS_16remove_referenceIS4_E4typeE
Lfunc_begin72:
	.loc	102 27 0 is_stmt 1              ; /Applications/Xcode.app/Contents/Developer/Platforms/MacOSX.platform/Developer/SDKs/MacOSX13.1.sdk/usr/include/c++/v1/__utility/forward.h:27:0
	.cfi_startproc
; %bb.0:
	sub	sp, sp, #16
	.cfi_def_cfa_offset 16
	str	x0, [sp, #8]
Ltmp236:
	.loc	102 28 29 prologue_end          ; /Applications/Xcode.app/Contents/Developer/Platforms/MacOSX.platform/Developer/SDKs/MacOSX13.1.sdk/usr/include/c++/v1/__utility/forward.h:28:29
	ldr	x0, [sp, #8]
	.loc	102 28 3 is_stmt 0              ; /Applications/Xcode.app/Contents/Developer/Platforms/MacOSX.platform/Developer/SDKs/MacOSX13.1.sdk/usr/include/c++/v1/__utility/forward.h:28:3
	add	sp, sp, #16
	ret
Ltmp237:
Lfunc_end72:
	.cfi_endproc
                                        ; -- End function
	.p2align	2                               ; -- Begin function _ZNSt3__110unique_ptrINS_15__thread_structENS_14default_deleteIS1_EEE11get_deleterEv
__ZNSt3__110unique_ptrINS_15__thread_structENS_14default_deleteIS1_EEE11get_deleterEv: ; @_ZNSt3__110unique_ptrINS_15__thread_structENS_14default_deleteIS1_EEE11get_deleterEv
Lfunc_begin73:
	.loc	45 294 0 is_stmt 1              ; /Applications/Xcode.app/Contents/Developer/Platforms/MacOSX.platform/Developer/SDKs/MacOSX13.1.sdk/usr/include/c++/v1/__memory/unique_ptr.h:294:0
	.cfi_startproc
; %bb.0:
	sub	sp, sp, #32
	stp	x29, x30, [sp, #16]             ; 16-byte Folded Spill
	add	x29, sp, #16
	.cfi_def_cfa w29, 16
	.cfi_offset w30, -8
	.cfi_offset w29, -16
	str	x0, [sp, #8]
	ldr	x0, [sp, #8]
Ltmp238:
	.loc	45 295 19 prologue_end          ; /Applications/Xcode.app/Contents/Developer/Platforms/MacOSX.platform/Developer/SDKs/MacOSX13.1.sdk/usr/include/c++/v1/__memory/unique_ptr.h:295:19
	bl	__ZNSt3__117__compressed_pairIPNS_15__thread_structENS_14default_deleteIS1_EEE6secondEv
	.loc	45 295 5 is_stmt 0              ; /Applications/Xcode.app/Contents/Developer/Platforms/MacOSX.platform/Developer/SDKs/MacOSX13.1.sdk/usr/include/c++/v1/__memory/unique_ptr.h:295:5
	ldp	x29, x30, [sp, #16]             ; 16-byte Folded Reload
	add	sp, sp, #32
	ret
Ltmp239:
Lfunc_end73:
	.cfi_endproc
                                        ; -- End function
	.p2align	2                               ; -- Begin function _ZNSt3__117__compressed_pairIPNS_15__thread_structENS_14default_deleteIS1_EEEC1IS2_S4_EEOT_OT0_
__ZNSt3__117__compressed_pairIPNS_15__thread_structENS_14default_deleteIS1_EEEC1IS2_S4_EEOT_OT0_: ; @_ZNSt3__117__compressed_pairIPNS_15__thread_structENS_14default_deleteIS1_EEEC1IS2_S4_EEOT_OT0_
Lfunc_begin74:
	.loc	6 136 0 is_stmt 1               ; /Applications/Xcode.app/Contents/Developer/Platforms/MacOSX.platform/Developer/SDKs/MacOSX13.1.sdk/usr/include/c++/v1/__memory/compressed_pair.h:136:0
	.cfi_startproc
; %bb.0:
	sub	sp, sp, #48
	stp	x29, x30, [sp, #32]             ; 16-byte Folded Spill
	add	x29, sp, #32
	.cfi_def_cfa w29, 16
	.cfi_offset w30, -8
	.cfi_offset w29, -16
	stur	x0, [x29, #-8]
	str	x1, [sp, #16]
	str	x2, [sp, #8]
	ldur	x0, [x29, #-8]
	str	x0, [sp]                        ; 8-byte Folded Spill
Ltmp240:
	.loc	6 136 84 prologue_end           ; /Applications/Xcode.app/Contents/Developer/Platforms/MacOSX.platform/Developer/SDKs/MacOSX13.1.sdk/usr/include/c++/v1/__memory/compressed_pair.h:136:84
	ldr	x1, [sp, #16]
	ldr	x2, [sp, #8]
	bl	__ZNSt3__117__compressed_pairIPNS_15__thread_structENS_14default_deleteIS1_EEEC2IS2_S4_EEOT_OT0_
	ldr	x0, [sp]                        ; 8-byte Folded Reload
	.loc	6 136 85 is_stmt 0              ; /Applications/Xcode.app/Contents/Developer/Platforms/MacOSX.platform/Developer/SDKs/MacOSX13.1.sdk/usr/include/c++/v1/__memory/compressed_pair.h:136:85
	ldp	x29, x30, [sp, #32]             ; 16-byte Folded Reload
	add	sp, sp, #48
	ret
Ltmp241:
Lfunc_end74:
	.cfi_endproc
                                        ; -- End function
	.p2align	2                               ; -- Begin function _ZNSt3__117__compressed_pairIPNS_15__thread_structENS_14default_deleteIS1_EEE5firstEv
__ZNSt3__117__compressed_pairIPNS_15__thread_structENS_14default_deleteIS1_EEE5firstEv: ; @_ZNSt3__117__compressed_pairIPNS_15__thread_structENS_14default_deleteIS1_EEE5firstEv
Lfunc_begin75:
	.loc	6 150 0 is_stmt 1               ; /Applications/Xcode.app/Contents/Developer/Platforms/MacOSX.platform/Developer/SDKs/MacOSX13.1.sdk/usr/include/c++/v1/__memory/compressed_pair.h:150:0
	.cfi_startproc
; %bb.0:
	sub	sp, sp, #32
	stp	x29, x30, [sp, #16]             ; 16-byte Folded Spill
	add	x29, sp, #16
	.cfi_def_cfa w29, 16
	.cfi_offset w30, -8
	.cfi_offset w29, -16
	str	x0, [sp, #8]
	ldr	x0, [sp, #8]
Ltmp242:
	.loc	6 151 40 prologue_end           ; /Applications/Xcode.app/Contents/Developer/Platforms/MacOSX.platform/Developer/SDKs/MacOSX13.1.sdk/usr/include/c++/v1/__memory/compressed_pair.h:151:40
	bl	__ZNSt3__122__compressed_pair_elemIPNS_15__thread_structELi0ELb0EE5__getEv
	.loc	6 151 5 is_stmt 0               ; /Applications/Xcode.app/Contents/Developer/Platforms/MacOSX.platform/Developer/SDKs/MacOSX13.1.sdk/usr/include/c++/v1/__memory/compressed_pair.h:151:5
	ldp	x29, x30, [sp, #16]             ; 16-byte Folded Reload
	add	sp, sp, #32
	ret
Ltmp243:
Lfunc_end75:
	.cfi_endproc
                                        ; -- End function
	.p2align	2                               ; -- Begin function _ZNSt3__122__compressed_pair_elemIPNS_15__thread_structELi0ELb0EE5__getEv
__ZNSt3__122__compressed_pair_elemIPNS_15__thread_structELi0ELb0EE5__getEv: ; @_ZNSt3__122__compressed_pair_elemIPNS_15__thread_structELi0ELb0EE5__getEv
Lfunc_begin76:
	.loc	6 65 0 is_stmt 1                ; /Applications/Xcode.app/Contents/Developer/Platforms/MacOSX.platform/Developer/SDKs/MacOSX13.1.sdk/usr/include/c++/v1/__memory/compressed_pair.h:65:0
	.cfi_startproc
; %bb.0:
	sub	sp, sp, #16
	.cfi_def_cfa_offset 16
	str	x0, [sp, #8]
	ldr	x0, [sp, #8]
Ltmp245:
	.loc	6 65 110 prologue_end           ; /Applications/Xcode.app/Contents/Developer/Platforms/MacOSX.platform/Developer/SDKs/MacOSX13.1.sdk/usr/include/c++/v1/__memory/compressed_pair.h:65:110
	add	sp, sp, #16
	ret
Ltmp246:
Lfunc_end76:
	.cfi_endproc
                                        ; -- End function
	.p2align	2                               ; -- Begin function _ZNSt3__117__compressed_pairIPNS_15__thread_structENS_14default_deleteIS1_EEE6secondEv
__ZNSt3__117__compressed_pairIPNS_15__thread_structENS_14default_deleteIS1_EEE6secondEv: ; @_ZNSt3__117__compressed_pairIPNS_15__thread_structENS_14default_deleteIS1_EEE6secondEv
Lfunc_begin77:
	.loc	6 160 0                         ; /Applications/Xcode.app/Contents/Developer/Platforms/MacOSX.platform/Developer/SDKs/MacOSX13.1.sdk/usr/include/c++/v1/__memory/compressed_pair.h:160:0
	.cfi_startproc
; %bb.0:
	sub	sp, sp, #32
	stp	x29, x30, [sp, #16]             ; 16-byte Folded Spill
	add	x29, sp, #16
	.cfi_def_cfa w29, 16
	.cfi_offset w30, -8
	.cfi_offset w29, -16
	str	x0, [sp, #8]
	ldr	x0, [sp, #8]
Ltmp247:
	.loc	6 161 40 prologue_end           ; /Applications/Xcode.app/Contents/Developer/Platforms/MacOSX.platform/Developer/SDKs/MacOSX13.1.sdk/usr/include/c++/v1/__memory/compressed_pair.h:161:40
	bl	__ZNSt3__122__compressed_pair_elemINS_14default_deleteINS_15__thread_structEEELi1ELb1EE5__getEv
	.loc	6 161 5 is_stmt 0               ; /Applications/Xcode.app/Contents/Developer/Platforms/MacOSX.platform/Developer/SDKs/MacOSX13.1.sdk/usr/include/c++/v1/__memory/compressed_pair.h:161:5
	ldp	x29, x30, [sp, #16]             ; 16-byte Folded Reload
	add	sp, sp, #32
	ret
Ltmp248:
Lfunc_end77:
	.cfi_endproc
                                        ; -- End function
	.p2align	2                               ; -- Begin function _ZNSt3__122__compressed_pair_elemINS_14default_deleteINS_15__thread_structEEELi1ELb1EE5__getEv
__ZNSt3__122__compressed_pair_elemINS_14default_deleteINS_15__thread_structEEELi1ELb1EE5__getEv: ; @_ZNSt3__122__compressed_pair_elemINS_14default_deleteINS_15__thread_structEEELi1ELb1EE5__getEv
Lfunc_begin78:
	.loc	6 103 0 is_stmt 1               ; /Applications/Xcode.app/Contents/Developer/Platforms/MacOSX.platform/Developer/SDKs/MacOSX13.1.sdk/usr/include/c++/v1/__memory/compressed_pair.h:103:0
	.cfi_startproc
; %bb.0:
	sub	sp, sp, #16
	.cfi_def_cfa_offset 16
	str	x0, [sp, #8]
	ldr	x0, [sp, #8]
Ltmp250:
	.loc	6 103 110 prologue_end          ; /Applications/Xcode.app/Contents/Developer/Platforms/MacOSX.platform/Developer/SDKs/MacOSX13.1.sdk/usr/include/c++/v1/__memory/compressed_pair.h:103:110
	add	sp, sp, #16
	ret
Ltmp251:
Lfunc_end78:
	.cfi_endproc
                                        ; -- End function
	.p2align	2                               ; -- Begin function _ZNSt3__117__compressed_pairIPNS_15__thread_structENS_14default_deleteIS1_EEEC2IS2_S4_EEOT_OT0_
__ZNSt3__117__compressed_pairIPNS_15__thread_structENS_14default_deleteIS1_EEEC2IS2_S4_EEOT_OT0_: ; @_ZNSt3__117__compressed_pairIPNS_15__thread_structENS_14default_deleteIS1_EEEC2IS2_S4_EEOT_OT0_
Lfunc_begin79:
	.loc	6 136 0                         ; /Applications/Xcode.app/Contents/Developer/Platforms/MacOSX.platform/Developer/SDKs/MacOSX13.1.sdk/usr/include/c++/v1/__memory/compressed_pair.h:136:0
	.cfi_startproc
; %bb.0:
	sub	sp, sp, #48
	stp	x29, x30, [sp, #32]             ; 16-byte Folded Spill
	add	x29, sp, #32
	.cfi_def_cfa w29, 16
	.cfi_offset w30, -8
	.cfi_offset w29, -16
	stur	x0, [x29, #-8]
	str	x1, [sp, #16]
	str	x2, [sp, #8]
	ldur	x8, [x29, #-8]
	str	x8, [sp]                        ; 8-byte Folded Spill
Ltmp252:
	.loc	6 136 39 prologue_end           ; /Applications/Xcode.app/Contents/Developer/Platforms/MacOSX.platform/Developer/SDKs/MacOSX13.1.sdk/usr/include/c++/v1/__memory/compressed_pair.h:136:39
	ldr	x0, [sp, #16]
	.loc	6 136 16 is_stmt 0              ; /Applications/Xcode.app/Contents/Developer/Platforms/MacOSX.platform/Developer/SDKs/MacOSX13.1.sdk/usr/include/c++/v1/__memory/compressed_pair.h:136:16
	bl	__ZNSt3__1L7forwardIPNS_15__thread_structEEEOT_RNS_16remove_referenceIS3_E4typeE
	mov	x1, x0
	ldr	x0, [sp]                        ; 8-byte Folded Reload
	.loc	6 136 9                         ; /Applications/Xcode.app/Contents/Developer/Platforms/MacOSX.platform/Developer/SDKs/MacOSX13.1.sdk/usr/include/c++/v1/__memory/compressed_pair.h:136:9
	bl	__ZNSt3__122__compressed_pair_elemIPNS_15__thread_structELi0ELb0EEC2IS2_vEEOT_
	.loc	6 136 77                        ; /Applications/Xcode.app/Contents/Developer/Platforms/MacOSX.platform/Developer/SDKs/MacOSX13.1.sdk/usr/include/c++/v1/__memory/compressed_pair.h:136:77
	ldr	x0, [sp, #8]
	.loc	6 136 54                        ; /Applications/Xcode.app/Contents/Developer/Platforms/MacOSX.platform/Developer/SDKs/MacOSX13.1.sdk/usr/include/c++/v1/__memory/compressed_pair.h:136:54
	bl	__ZNSt3__1L7forwardINS_14default_deleteINS_15__thread_structEEEEEOT_RNS_16remove_referenceIS4_E4typeE
	mov	x1, x0
	ldr	x0, [sp]                        ; 8-byte Folded Reload
	.loc	6 136 47                        ; /Applications/Xcode.app/Contents/Developer/Platforms/MacOSX.platform/Developer/SDKs/MacOSX13.1.sdk/usr/include/c++/v1/__memory/compressed_pair.h:136:47
	bl	__ZNSt3__122__compressed_pair_elemINS_14default_deleteINS_15__thread_structEEELi1ELb1EEC2IS3_vEEOT_
	ldr	x0, [sp]                        ; 8-byte Folded Reload
	.loc	6 136 85                        ; /Applications/Xcode.app/Contents/Developer/Platforms/MacOSX.platform/Developer/SDKs/MacOSX13.1.sdk/usr/include/c++/v1/__memory/compressed_pair.h:136:85
	ldp	x29, x30, [sp, #32]             ; 16-byte Folded Reload
	add	sp, sp, #48
	ret
Ltmp253:
Lfunc_end79:
	.cfi_endproc
                                        ; -- End function
	.p2align	2                               ; -- Begin function _ZNSt3__1L7forwardIPNS_15__thread_structEEEOT_RNS_16remove_referenceIS3_E4typeE
__ZNSt3__1L7forwardIPNS_15__thread_structEEEOT_RNS_16remove_referenceIS3_E4typeE: ; @_ZNSt3__1L7forwardIPNS_15__thread_structEEEOT_RNS_16remove_referenceIS3_E4typeE
Lfunc_begin80:
	.loc	102 27 0 is_stmt 1              ; /Applications/Xcode.app/Contents/Developer/Platforms/MacOSX.platform/Developer/SDKs/MacOSX13.1.sdk/usr/include/c++/v1/__utility/forward.h:27:0
	.cfi_startproc
; %bb.0:
	sub	sp, sp, #16
	.cfi_def_cfa_offset 16
	str	x0, [sp, #8]
Ltmp255:
	.loc	102 28 29 prologue_end          ; /Applications/Xcode.app/Contents/Developer/Platforms/MacOSX.platform/Developer/SDKs/MacOSX13.1.sdk/usr/include/c++/v1/__utility/forward.h:28:29
	ldr	x0, [sp, #8]
	.loc	102 28 3 is_stmt 0              ; /Applications/Xcode.app/Contents/Developer/Platforms/MacOSX.platform/Developer/SDKs/MacOSX13.1.sdk/usr/include/c++/v1/__utility/forward.h:28:3
	add	sp, sp, #16
	ret
Ltmp256:
Lfunc_end80:
	.cfi_endproc
                                        ; -- End function
	.p2align	2                               ; -- Begin function _ZNSt3__122__compressed_pair_elemIPNS_15__thread_structELi0ELb0EEC2IS2_vEEOT_
__ZNSt3__122__compressed_pair_elemIPNS_15__thread_structELi0ELb0EEC2IS2_vEEOT_: ; @_ZNSt3__122__compressed_pair_elemIPNS_15__thread_structELi0ELb0EEC2IS2_vEEOT_
Lfunc_begin81:
	.loc	6 52 0 is_stmt 1                ; /Applications/Xcode.app/Contents/Developer/Platforms/MacOSX.platform/Developer/SDKs/MacOSX13.1.sdk/usr/include/c++/v1/__memory/compressed_pair.h:52:0
	.cfi_startproc
; %bb.0:
	sub	sp, sp, #48
	stp	x29, x30, [sp, #32]             ; 16-byte Folded Spill
	add	x29, sp, #32
	.cfi_def_cfa w29, 16
	.cfi_offset w30, -8
	.cfi_offset w29, -16
	stur	x0, [x29, #-8]
	str	x1, [sp, #16]
	ldur	x8, [x29, #-8]
	str	x8, [sp, #8]                    ; 8-byte Folded Spill
Ltmp257:
	.loc	6 51 41 prologue_end            ; /Applications/Xcode.app/Contents/Developer/Platforms/MacOSX.platform/Developer/SDKs/MacOSX13.1.sdk/usr/include/c++/v1/__memory/compressed_pair.h:51:41
	ldr	x0, [sp, #16]
	.loc	6 51 18 is_stmt 0               ; /Applications/Xcode.app/Contents/Developer/Platforms/MacOSX.platform/Developer/SDKs/MacOSX13.1.sdk/usr/include/c++/v1/__memory/compressed_pair.h:51:18
	bl	__ZNSt3__1L7forwardIPNS_15__thread_structEEEOT_RNS_16remove_referenceIS3_E4typeE
	mov	x8, x0
	ldr	x0, [sp, #8]                    ; 8-byte Folded Reload
	ldr	x8, [x8]
	.loc	6 51 9                          ; /Applications/Xcode.app/Contents/Developer/Platforms/MacOSX.platform/Developer/SDKs/MacOSX13.1.sdk/usr/include/c++/v1/__memory/compressed_pair.h:51:9
	str	x8, [x0]
	.loc	6 53 5 is_stmt 1                ; /Applications/Xcode.app/Contents/Developer/Platforms/MacOSX.platform/Developer/SDKs/MacOSX13.1.sdk/usr/include/c++/v1/__memory/compressed_pair.h:53:5
	ldp	x29, x30, [sp, #32]             ; 16-byte Folded Reload
	add	sp, sp, #48
	ret
Ltmp258:
Lfunc_end81:
	.cfi_endproc
                                        ; -- End function
	.p2align	2                               ; -- Begin function _ZNSt3__122__compressed_pair_elemINS_14default_deleteINS_15__thread_structEEELi1ELb1EEC2IS3_vEEOT_
__ZNSt3__122__compressed_pair_elemINS_14default_deleteINS_15__thread_structEEELi1ELb1EEC2IS3_vEEOT_: ; @_ZNSt3__122__compressed_pair_elemINS_14default_deleteINS_15__thread_structEEELi1ELb1EEC2IS3_vEEOT_
Lfunc_begin82:
	.loc	6 93 0                          ; /Applications/Xcode.app/Contents/Developer/Platforms/MacOSX.platform/Developer/SDKs/MacOSX13.1.sdk/usr/include/c++/v1/__memory/compressed_pair.h:93:0
	.cfi_startproc
; %bb.0:
	sub	sp, sp, #48
	stp	x29, x30, [sp, #32]             ; 16-byte Folded Spill
	add	x29, sp, #32
	.cfi_def_cfa w29, 16
	.cfi_offset w30, -8
	.cfi_offset w29, -16
	stur	x0, [x29, #-8]
	str	x1, [sp, #16]
	ldur	x8, [x29, #-8]
	str	x8, [sp, #8]                    ; 8-byte Folded Spill
Ltmp259:
	.loc	6 92 45 prologue_end            ; /Applications/Xcode.app/Contents/Developer/Platforms/MacOSX.platform/Developer/SDKs/MacOSX13.1.sdk/usr/include/c++/v1/__memory/compressed_pair.h:92:45
	ldr	x0, [sp, #16]
	.loc	6 92 22 is_stmt 0               ; /Applications/Xcode.app/Contents/Developer/Platforms/MacOSX.platform/Developer/SDKs/MacOSX13.1.sdk/usr/include/c++/v1/__memory/compressed_pair.h:92:22
	bl	__ZNSt3__1L7forwardINS_14default_deleteINS_15__thread_structEEEEEOT_RNS_16remove_referenceIS4_E4typeE
	ldr	x0, [sp, #8]                    ; 8-byte Folded Reload
	.loc	6 93 4 is_stmt 1                ; /Applications/Xcode.app/Contents/Developer/Platforms/MacOSX.platform/Developer/SDKs/MacOSX13.1.sdk/usr/include/c++/v1/__memory/compressed_pair.h:93:4
	ldp	x29, x30, [sp, #32]             ; 16-byte Folded Reload
	add	sp, sp, #48
	ret
Ltmp260:
Lfunc_end82:
	.cfi_endproc
                                        ; -- End function
	.p2align	2                               ; -- Begin function _ZNSt3__110unique_ptrINS_5tupleIJNS0_INS_15__thread_structENS_14default_deleteIS2_EEEEM6ThreadFvvEPS6_EEENS3_ISA_EEEC2ILb1EvEEPSA_
__ZNSt3__110unique_ptrINS_5tupleIJNS0_INS_15__thread_structENS_14default_deleteIS2_EEEEM6ThreadFvvEPS6_EEENS3_ISA_EEEC2ILb1EvEEPSA_: ; @_ZNSt3__110unique_ptrINS_5tupleIJNS0_INS_15__thread_structENS_14default_deleteIS2_EEEEM6ThreadFvvEPS6_EEENS3_ISA_EEEC2ILb1EvEEPSA_
Lfunc_begin83:
	.loc	45 190 0                        ; /Applications/Xcode.app/Contents/Developer/Platforms/MacOSX.platform/Developer/SDKs/MacOSX13.1.sdk/usr/include/c++/v1/__memory/unique_ptr.h:190:0
	.cfi_startproc
	.cfi_personality 155, ___gxx_personality_v0
	.cfi_lsda 16, Lexception8
; %bb.0:
	sub	sp, sp, #48
	stp	x29, x30, [sp, #32]             ; 16-byte Folded Spill
	add	x29, sp, #32
	.cfi_def_cfa w29, 16
	.cfi_offset w30, -8
	.cfi_offset w29, -16
	mov	x8, x1
	stur	x0, [x29, #-8]
	add	x1, sp, #16
	str	x8, [sp, #16]
	ldur	x0, [x29, #-8]
	str	x0, [sp]                        ; 8-byte Folded Spill
Ltmp261:
	add	x2, sp, #15
Ltmp264:
	.loc	45 190 47 prologue_end          ; /Applications/Xcode.app/Contents/Developer/Platforms/MacOSX.platform/Developer/SDKs/MacOSX13.1.sdk/usr/include/c++/v1/__memory/unique_ptr.h:190:47
	bl	__ZNSt3__117__compressed_pairIPNS_5tupleIJNS_10unique_ptrINS_15__thread_structENS_14default_deleteIS3_EEEEM6ThreadFvvEPS7_EEENS4_ISB_EEEC1IRSC_NS_18__default_init_tagEEEOT_OT0_
Ltmp262:
	b	LBB83_1
LBB83_1:
	.loc	45 0 47 is_stmt 0               ; /Applications/Xcode.app/Contents/Developer/Platforms/MacOSX.platform/Developer/SDKs/MacOSX13.1.sdk/usr/include/c++/v1/__memory/unique_ptr.h:0:47
	ldr	x0, [sp]                        ; 8-byte Folded Reload
	.loc	45 190 82                       ; /Applications/Xcode.app/Contents/Developer/Platforms/MacOSX.platform/Developer/SDKs/MacOSX13.1.sdk/usr/include/c++/v1/__memory/unique_ptr.h:190:82
	ldp	x29, x30, [sp, #32]             ; 16-byte Folded Reload
	add	sp, sp, #48
	ret
LBB83_2:
Ltmp263:
	.loc	45 190 47                       ; /Applications/Xcode.app/Contents/Developer/Platforms/MacOSX.platform/Developer/SDKs/MacOSX13.1.sdk/usr/include/c++/v1/__memory/unique_ptr.h:190:47
	bl	___clang_call_terminate
Ltmp265:
Lfunc_end83:
	.cfi_endproc
	.section	__TEXT,__gcc_except_tab
	.p2align	2
GCC_except_table83:
Lexception8:
	.byte	255                             ; @LPStart Encoding = omit
	.byte	155                             ; @TType Encoding = indirect pcrel sdata4
	.uleb128 Lttbase4-Lttbaseref4
Lttbaseref4:
	.byte	1                               ; Call site Encoding = uleb128
	.uleb128 Lcst_end8-Lcst_begin8
Lcst_begin8:
	.uleb128 Ltmp261-Lfunc_begin83          ; >> Call Site 1 <<
	.uleb128 Ltmp262-Ltmp261                ;   Call between Ltmp261 and Ltmp262
	.uleb128 Ltmp263-Lfunc_begin83          ;     jumps to Ltmp263
	.byte	1                               ;   On action: 1
Lcst_end8:
	.byte	1                               ; >> Action Record 1 <<
                                        ;   Catch TypeInfo 1
	.byte	0                               ;   No further actions
	.p2align	2
                                        ; >> Catch TypeInfos <<
	.long	0                               ; TypeInfo 1
Lttbase4:
	.p2align	2
                                        ; -- End function
	.section	__TEXT,__text,regular,pure_instructions
	.p2align	2                               ; -- Begin function _ZNSt3__117__compressed_pairIPNS_5tupleIJNS_10unique_ptrINS_15__thread_structENS_14default_deleteIS3_EEEEM6ThreadFvvEPS7_EEENS4_ISB_EEEC1IRSC_NS_18__default_init_tagEEEOT_OT0_
__ZNSt3__117__compressed_pairIPNS_5tupleIJNS_10unique_ptrINS_15__thread_structENS_14default_deleteIS3_EEEEM6ThreadFvvEPS7_EEENS4_ISB_EEEC1IRSC_NS_18__default_init_tagEEEOT_OT0_: ; @_ZNSt3__117__compressed_pairIPNS_5tupleIJNS_10unique_ptrINS_15__thread_structENS_14default_deleteIS3_EEEEM6ThreadFvvEPS7_EEENS4_ISB_EEEC1IRSC_NS_18__default_init_tagEEEOT_OT0_
Lfunc_begin84:
	.loc	6 136 0 is_stmt 1               ; /Applications/Xcode.app/Contents/Developer/Platforms/MacOSX.platform/Developer/SDKs/MacOSX13.1.sdk/usr/include/c++/v1/__memory/compressed_pair.h:136:0
	.cfi_startproc
; %bb.0:
	sub	sp, sp, #48
	stp	x29, x30, [sp, #32]             ; 16-byte Folded Spill
	add	x29, sp, #32
	.cfi_def_cfa w29, 16
	.cfi_offset w30, -8
	.cfi_offset w29, -16
	stur	x0, [x29, #-8]
	str	x1, [sp, #16]
	str	x2, [sp, #8]
	ldur	x0, [x29, #-8]
	str	x0, [sp]                        ; 8-byte Folded Spill
Ltmp266:
	.loc	6 136 84 prologue_end           ; /Applications/Xcode.app/Contents/Developer/Platforms/MacOSX.platform/Developer/SDKs/MacOSX13.1.sdk/usr/include/c++/v1/__memory/compressed_pair.h:136:84
	ldr	x1, [sp, #16]
	ldr	x2, [sp, #8]
	bl	__ZNSt3__117__compressed_pairIPNS_5tupleIJNS_10unique_ptrINS_15__thread_structENS_14default_deleteIS3_EEEEM6ThreadFvvEPS7_EEENS4_ISB_EEEC2IRSC_NS_18__default_init_tagEEEOT_OT0_
	ldr	x0, [sp]                        ; 8-byte Folded Reload
	.loc	6 136 85 is_stmt 0              ; /Applications/Xcode.app/Contents/Developer/Platforms/MacOSX.platform/Developer/SDKs/MacOSX13.1.sdk/usr/include/c++/v1/__memory/compressed_pair.h:136:85
	ldp	x29, x30, [sp, #32]             ; 16-byte Folded Reload
	add	sp, sp, #48
	ret
Ltmp267:
Lfunc_end84:
	.cfi_endproc
                                        ; -- End function
	.p2align	2                               ; -- Begin function _ZNSt3__117__compressed_pairIPNS_5tupleIJNS_10unique_ptrINS_15__thread_structENS_14default_deleteIS3_EEEEM6ThreadFvvEPS7_EEENS4_ISB_EEEC2IRSC_NS_18__default_init_tagEEEOT_OT0_
__ZNSt3__117__compressed_pairIPNS_5tupleIJNS_10unique_ptrINS_15__thread_structENS_14default_deleteIS3_EEEEM6ThreadFvvEPS7_EEENS4_ISB_EEEC2IRSC_NS_18__default_init_tagEEEOT_OT0_: ; @_ZNSt3__117__compressed_pairIPNS_5tupleIJNS_10unique_ptrINS_15__thread_structENS_14default_deleteIS3_EEEEM6ThreadFvvEPS7_EEENS4_ISB_EEEC2IRSC_NS_18__default_init_tagEEEOT_OT0_
Lfunc_begin85:
	.loc	6 136 0 is_stmt 1               ; /Applications/Xcode.app/Contents/Developer/Platforms/MacOSX.platform/Developer/SDKs/MacOSX13.1.sdk/usr/include/c++/v1/__memory/compressed_pair.h:136:0
	.cfi_startproc
; %bb.0:
	sub	sp, sp, #64
	stp	x29, x30, [sp, #48]             ; 16-byte Folded Spill
	add	x29, sp, #48
	.cfi_def_cfa w29, 16
	.cfi_offset w30, -8
	.cfi_offset w29, -16
	stur	x0, [x29, #-8]
	stur	x1, [x29, #-16]
	str	x2, [sp, #24]
	ldur	x8, [x29, #-8]
	str	x8, [sp, #8]                    ; 8-byte Folded Spill
Ltmp268:
	.loc	6 136 39 prologue_end           ; /Applications/Xcode.app/Contents/Developer/Platforms/MacOSX.platform/Developer/SDKs/MacOSX13.1.sdk/usr/include/c++/v1/__memory/compressed_pair.h:136:39
	ldur	x0, [x29, #-16]
	.loc	6 136 16 is_stmt 0              ; /Applications/Xcode.app/Contents/Developer/Platforms/MacOSX.platform/Developer/SDKs/MacOSX13.1.sdk/usr/include/c++/v1/__memory/compressed_pair.h:136:16
	bl	__ZNSt3__1L7forwardIRPNS_5tupleIJNS_10unique_ptrINS_15__thread_structENS_14default_deleteIS3_EEEEM6ThreadFvvEPS7_EEEEEOT_RNS_16remove_referenceISE_E4typeE
	mov	x1, x0
	ldr	x0, [sp, #8]                    ; 8-byte Folded Reload
	.loc	6 136 9                         ; /Applications/Xcode.app/Contents/Developer/Platforms/MacOSX.platform/Developer/SDKs/MacOSX13.1.sdk/usr/include/c++/v1/__memory/compressed_pair.h:136:9
	bl	__ZNSt3__122__compressed_pair_elemIPNS_5tupleIJNS_10unique_ptrINS_15__thread_structENS_14default_deleteIS3_EEEEM6ThreadFvvEPS7_EEELi0ELb0EEC2IRSC_vEEOT_
	.loc	6 136 77                        ; /Applications/Xcode.app/Contents/Developer/Platforms/MacOSX.platform/Developer/SDKs/MacOSX13.1.sdk/usr/include/c++/v1/__memory/compressed_pair.h:136:77
	ldr	x0, [sp, #24]
	.loc	6 136 54                        ; /Applications/Xcode.app/Contents/Developer/Platforms/MacOSX.platform/Developer/SDKs/MacOSX13.1.sdk/usr/include/c++/v1/__memory/compressed_pair.h:136:54
	bl	__ZNSt3__1L7forwardINS_18__default_init_tagEEEOT_RNS_16remove_referenceIS2_E4typeE
	ldr	x0, [sp, #8]                    ; 8-byte Folded Reload
	.loc	6 136 47                        ; /Applications/Xcode.app/Contents/Developer/Platforms/MacOSX.platform/Developer/SDKs/MacOSX13.1.sdk/usr/include/c++/v1/__memory/compressed_pair.h:136:47
	bl	__ZNSt3__122__compressed_pair_elemINS_14default_deleteINS_5tupleIJNS_10unique_ptrINS_15__thread_structENS1_IS4_EEEEM6ThreadFvvEPS7_EEEEELi1ELb1EEC2ENS_18__default_init_tagE
	ldr	x0, [sp, #8]                    ; 8-byte Folded Reload
	.loc	6 136 85                        ; /Applications/Xcode.app/Contents/Developer/Platforms/MacOSX.platform/Developer/SDKs/MacOSX13.1.sdk/usr/include/c++/v1/__memory/compressed_pair.h:136:85
	ldp	x29, x30, [sp, #48]             ; 16-byte Folded Reload
	add	sp, sp, #64
	ret
Ltmp269:
Lfunc_end85:
	.cfi_endproc
                                        ; -- End function
	.p2align	2                               ; -- Begin function _ZNSt3__1L7forwardIRPNS_5tupleIJNS_10unique_ptrINS_15__thread_structENS_14default_deleteIS3_EEEEM6ThreadFvvEPS7_EEEEEOT_RNS_16remove_referenceISE_E4typeE
__ZNSt3__1L7forwardIRPNS_5tupleIJNS_10unique_ptrINS_15__thread_structENS_14default_deleteIS3_EEEEM6ThreadFvvEPS7_EEEEEOT_RNS_16remove_referenceISE_E4typeE: ; @_ZNSt3__1L7forwardIRPNS_5tupleIJNS_10unique_ptrINS_15__thread_structENS_14default_deleteIS3_EEEEM6ThreadFvvEPS7_EEEEEOT_RNS_16remove_referenceISE_E4typeE
Lfunc_begin86:
	.loc	102 27 0 is_stmt 1              ; /Applications/Xcode.app/Contents/Developer/Platforms/MacOSX.platform/Developer/SDKs/MacOSX13.1.sdk/usr/include/c++/v1/__utility/forward.h:27:0
	.cfi_startproc
; %bb.0:
	sub	sp, sp, #16
	.cfi_def_cfa_offset 16
	str	x0, [sp, #8]
Ltmp271:
	.loc	102 28 29 prologue_end          ; /Applications/Xcode.app/Contents/Developer/Platforms/MacOSX.platform/Developer/SDKs/MacOSX13.1.sdk/usr/include/c++/v1/__utility/forward.h:28:29
	ldr	x0, [sp, #8]
	.loc	102 28 3 is_stmt 0              ; /Applications/Xcode.app/Contents/Developer/Platforms/MacOSX.platform/Developer/SDKs/MacOSX13.1.sdk/usr/include/c++/v1/__utility/forward.h:28:3
	add	sp, sp, #16
	ret
Ltmp272:
Lfunc_end86:
	.cfi_endproc
                                        ; -- End function
	.p2align	2                               ; -- Begin function _ZNSt3__122__compressed_pair_elemIPNS_5tupleIJNS_10unique_ptrINS_15__thread_structENS_14default_deleteIS3_EEEEM6ThreadFvvEPS7_EEELi0ELb0EEC2IRSC_vEEOT_
__ZNSt3__122__compressed_pair_elemIPNS_5tupleIJNS_10unique_ptrINS_15__thread_structENS_14default_deleteIS3_EEEEM6ThreadFvvEPS7_EEELi0ELb0EEC2IRSC_vEEOT_: ; @_ZNSt3__122__compressed_pair_elemIPNS_5tupleIJNS_10unique_ptrINS_15__thread_structENS_14default_deleteIS3_EEEEM6ThreadFvvEPS7_EEELi0ELb0EEC2IRSC_vEEOT_
Lfunc_begin87:
	.loc	6 52 0 is_stmt 1                ; /Applications/Xcode.app/Contents/Developer/Platforms/MacOSX.platform/Developer/SDKs/MacOSX13.1.sdk/usr/include/c++/v1/__memory/compressed_pair.h:52:0
	.cfi_startproc
; %bb.0:
	sub	sp, sp, #48
	stp	x29, x30, [sp, #32]             ; 16-byte Folded Spill
	add	x29, sp, #32
	.cfi_def_cfa w29, 16
	.cfi_offset w30, -8
	.cfi_offset w29, -16
	stur	x0, [x29, #-8]
	str	x1, [sp, #16]
	ldur	x8, [x29, #-8]
	str	x8, [sp, #8]                    ; 8-byte Folded Spill
Ltmp273:
	.loc	6 51 41 prologue_end            ; /Applications/Xcode.app/Contents/Developer/Platforms/MacOSX.platform/Developer/SDKs/MacOSX13.1.sdk/usr/include/c++/v1/__memory/compressed_pair.h:51:41
	ldr	x0, [sp, #16]
	.loc	6 51 18 is_stmt 0               ; /Applications/Xcode.app/Contents/Developer/Platforms/MacOSX.platform/Developer/SDKs/MacOSX13.1.sdk/usr/include/c++/v1/__memory/compressed_pair.h:51:18
	bl	__ZNSt3__1L7forwardIRPNS_5tupleIJNS_10unique_ptrINS_15__thread_structENS_14default_deleteIS3_EEEEM6ThreadFvvEPS7_EEEEEOT_RNS_16remove_referenceISE_E4typeE
	mov	x8, x0
	ldr	x0, [sp, #8]                    ; 8-byte Folded Reload
	ldr	x8, [x8]
	.loc	6 51 9                          ; /Applications/Xcode.app/Contents/Developer/Platforms/MacOSX.platform/Developer/SDKs/MacOSX13.1.sdk/usr/include/c++/v1/__memory/compressed_pair.h:51:9
	str	x8, [x0]
	.loc	6 53 5 is_stmt 1                ; /Applications/Xcode.app/Contents/Developer/Platforms/MacOSX.platform/Developer/SDKs/MacOSX13.1.sdk/usr/include/c++/v1/__memory/compressed_pair.h:53:5
	ldp	x29, x30, [sp, #32]             ; 16-byte Folded Reload
	add	sp, sp, #48
	ret
Ltmp274:
Lfunc_end87:
	.cfi_endproc
                                        ; -- End function
	.p2align	2                               ; -- Begin function _ZNSt3__122__compressed_pair_elemINS_14default_deleteINS_5tupleIJNS_10unique_ptrINS_15__thread_structENS1_IS4_EEEEM6ThreadFvvEPS7_EEEEELi1ELb1EEC2ENS_18__default_init_tagE
__ZNSt3__122__compressed_pair_elemINS_14default_deleteINS_5tupleIJNS_10unique_ptrINS_15__thread_structENS1_IS4_EEEEM6ThreadFvvEPS7_EEEEELi1ELb1EEC2ENS_18__default_init_tagE: ; @_ZNSt3__122__compressed_pair_elemINS_14default_deleteINS_5tupleIJNS_10unique_ptrINS_15__thread_structENS1_IS4_EEEEM6ThreadFvvEPS7_EEEEELi1ELb1EEC2ENS_18__default_init_tagE
Lfunc_begin88:
	.loc	6 82 0                          ; /Applications/Xcode.app/Contents/Developer/Platforms/MacOSX.platform/Developer/SDKs/MacOSX13.1.sdk/usr/include/c++/v1/__memory/compressed_pair.h:82:0
	.cfi_startproc
; %bb.0:
	sub	sp, sp, #16
	.cfi_def_cfa_offset 16
	str	x0, [sp]
	ldr	x0, [sp]
Ltmp276:
	.loc	6 82 47 prologue_end            ; /Applications/Xcode.app/Contents/Developer/Platforms/MacOSX.platform/Developer/SDKs/MacOSX13.1.sdk/usr/include/c++/v1/__memory/compressed_pair.h:82:47
	add	sp, sp, #16
	ret
Ltmp277:
Lfunc_end88:
	.cfi_endproc
                                        ; -- End function
	.globl	__ZNSt3__121__thread_specific_ptrINS_15__thread_structEE11set_pointerEPS1_ ; -- Begin function _ZNSt3__121__thread_specific_ptrINS_15__thread_structEE11set_pointerEPS1_
	.weak_definition	__ZNSt3__121__thread_specific_ptrINS_15__thread_structEE11set_pointerEPS1_
	.p2align	2
__ZNSt3__121__thread_specific_ptrINS_15__thread_structEE11set_pointerEPS1_: ; @_ZNSt3__121__thread_specific_ptrINS_15__thread_structEE11set_pointerEPS1_
Lfunc_begin89:
	.loc	44 194 0                        ; /Applications/Xcode.app/Contents/Developer/Platforms/MacOSX.platform/Developer/SDKs/MacOSX13.1.sdk/usr/include/c++/v1/thread:194:0
	.cfi_startproc
; %bb.0:
	sub	sp, sp, #32
	stp	x29, x30, [sp, #16]             ; 16-byte Folded Spill
	add	x29, sp, #16
	.cfi_def_cfa w29, 16
	.cfi_offset w30, -8
	.cfi_offset w29, -16
	str	x0, [sp, #8]
	str	x1, [sp]
	ldr	x8, [sp, #8]
Ltmp278:
	.loc	44 197 22 prologue_end          ; /Applications/Xcode.app/Contents/Developer/Platforms/MacOSX.platform/Developer/SDKs/MacOSX13.1.sdk/usr/include/c++/v1/thread:197:22
	ldr	x0, [x8]
	.loc	44 197 30 is_stmt 0             ; /Applications/Xcode.app/Contents/Developer/Platforms/MacOSX.platform/Developer/SDKs/MacOSX13.1.sdk/usr/include/c++/v1/thread:197:30
	ldr	x1, [sp]
	.loc	44 197 5                        ; /Applications/Xcode.app/Contents/Developer/Platforms/MacOSX.platform/Developer/SDKs/MacOSX13.1.sdk/usr/include/c++/v1/thread:197:5
	bl	__ZNSt3__1L16__libcpp_tls_setEmPv
	.loc	44 198 1 is_stmt 1              ; /Applications/Xcode.app/Contents/Developer/Platforms/MacOSX.platform/Developer/SDKs/MacOSX13.1.sdk/usr/include/c++/v1/thread:198:1
	ldp	x29, x30, [sp, #16]             ; 16-byte Folded Reload
	add	sp, sp, #32
	ret
Ltmp279:
Lfunc_end89:
	.cfi_endproc
	.file	105 "/Applications/Xcode.app/Contents/Developer/Platforms/MacOSX.platform/Developer/SDKs/MacOSX13.1.sdk/usr/include/sys/_pthread" "_pthread_key_t.h"
                                        ; -- End function
	.p2align	2                               ; -- Begin function _ZNSt3__1L3getILm0EJNS_10unique_ptrINS_15__thread_structENS_14default_deleteIS2_EEEEM6ThreadFvvEPS6_EEERNS_13tuple_elementIXT_ENS_5tupleIJDpT0_EEEE4typeERSE_
__ZNSt3__1L3getILm0EJNS_10unique_ptrINS_15__thread_structENS_14default_deleteIS2_EEEEM6ThreadFvvEPS6_EEERNS_13tuple_elementIXT_ENS_5tupleIJDpT0_EEEE4typeERSE_: ; @_ZNSt3__1L3getILm0EJNS_10unique_ptrINS_15__thread_structENS_14default_deleteIS2_EEEEM6ThreadFvvEPS6_EEERNS_13tuple_elementIXT_ENS_5tupleIJDpT0_EEEE4typeERSE_
Lfunc_begin90:
	.loc	54 1130 0                       ; /Applications/Xcode.app/Contents/Developer/Platforms/MacOSX.platform/Developer/SDKs/MacOSX13.1.sdk/usr/include/c++/v1/tuple:1130:0
	.cfi_startproc
; %bb.0:
	sub	sp, sp, #32
	stp	x29, x30, [sp, #16]             ; 16-byte Folded Spill
	add	x29, sp, #16
	.cfi_def_cfa w29, 16
	.cfi_offset w30, -8
	.cfi_offset w29, -16
	str	x0, [sp, #8]
Ltmp280:
	.loc	54 1132 50 prologue_end         ; /Applications/Xcode.app/Contents/Developer/Platforms/MacOSX.platform/Developer/SDKs/MacOSX13.1.sdk/usr/include/c++/v1/tuple:1132:50
	ldr	x0, [sp, #8]
	.loc	54 1132 63 is_stmt 0            ; /Applications/Xcode.app/Contents/Developer/Platforms/MacOSX.platform/Developer/SDKs/MacOSX13.1.sdk/usr/include/c++/v1/tuple:1132:63
	bl	__ZNSt3__112__tuple_leafILm0ENS_10unique_ptrINS_15__thread_structENS_14default_deleteIS2_EEEELb0EE3getEv
	.loc	54 1132 5                       ; /Applications/Xcode.app/Contents/Developer/Platforms/MacOSX.platform/Developer/SDKs/MacOSX13.1.sdk/usr/include/c++/v1/tuple:1132:5
	ldp	x29, x30, [sp, #16]             ; 16-byte Folded Reload
	add	sp, sp, #32
	ret
Ltmp281:
Lfunc_end90:
	.cfi_endproc
                                        ; -- End function
	.p2align	2                               ; -- Begin function _ZNSt3__1L16__thread_executeINS_10unique_ptrINS_15__thread_structENS_14default_deleteIS2_EEEEM6ThreadFvvEJPS6_EJLm2EEEEvRNS_5tupleIJT_T0_DpT1_EEENS_15__tuple_indicesIJXspT2_EEEE
__ZNSt3__1L16__thread_executeINS_10unique_ptrINS_15__thread_structENS_14default_deleteIS2_EEEEM6ThreadFvvEJPS6_EJLm2EEEEvRNS_5tupleIJT_T0_DpT1_EEENS_15__tuple_indicesIJXspT2_EEEE: ; @_ZNSt3__1L16__thread_executeINS_10unique_ptrINS_15__thread_structENS_14default_deleteIS2_EEEEM6ThreadFvvEJPS6_EJLm2EEEEvRNS_5tupleIJT_T0_DpT1_EEENS_15__tuple_indicesIJXspT2_EEEE
Lfunc_begin91:
	.loc	44 286 0 is_stmt 1              ; /Applications/Xcode.app/Contents/Developer/Platforms/MacOSX.platform/Developer/SDKs/MacOSX13.1.sdk/usr/include/c++/v1/thread:286:0
	.cfi_startproc
; %bb.0:
	sub	sp, sp, #48
	stp	x29, x30, [sp, #32]             ; 16-byte Folded Spill
	add	x29, sp, #32
	.cfi_def_cfa w29, 16
	.cfi_offset w30, -8
	.cfi_offset w29, -16
	str	x0, [sp, #16]
Ltmp282:
	.loc	44 287 56 prologue_end          ; /Applications/Xcode.app/Contents/Developer/Platforms/MacOSX.platform/Developer/SDKs/MacOSX13.1.sdk/usr/include/c++/v1/thread:287:56
	ldr	x0, [sp, #16]
	.loc	44 287 39 is_stmt 0             ; /Applications/Xcode.app/Contents/Developer/Platforms/MacOSX.platform/Developer/SDKs/MacOSX13.1.sdk/usr/include/c++/v1/thread:287:39
	bl	__ZNSt3__1L3getILm1EJNS_10unique_ptrINS_15__thread_structENS_14default_deleteIS2_EEEEM6ThreadFvvEPS6_EEERNS_13tuple_elementIXT_ENS_5tupleIJDpT0_EEEE4typeERSE_
	.loc	44 287 24                       ; /Applications/Xcode.app/Contents/Developer/Platforms/MacOSX.platform/Developer/SDKs/MacOSX13.1.sdk/usr/include/c++/v1/thread:287:24
	bl	__ZNSt3__1L4moveIRM6ThreadFvvEEEONS_16remove_referenceIT_E4typeEOS6_
	str	x0, [sp, #8]                    ; 8-byte Folded Spill
	.loc	44 287 102                      ; /Applications/Xcode.app/Contents/Developer/Platforms/MacOSX.platform/Developer/SDKs/MacOSX13.1.sdk/usr/include/c++/v1/thread:287:102
	ldr	x0, [sp, #16]
	.loc	44 287 78                       ; /Applications/Xcode.app/Contents/Developer/Platforms/MacOSX.platform/Developer/SDKs/MacOSX13.1.sdk/usr/include/c++/v1/thread:287:78
	bl	__ZNSt3__1L3getILm2EJNS_10unique_ptrINS_15__thread_structENS_14default_deleteIS2_EEEEM6ThreadFvvEPS6_EEERNS_13tuple_elementIXT_ENS_5tupleIJDpT0_EEEE4typeERSE_
	.loc	44 287 63                       ; /Applications/Xcode.app/Contents/Developer/Platforms/MacOSX.platform/Developer/SDKs/MacOSX13.1.sdk/usr/include/c++/v1/thread:287:63
	bl	__ZNSt3__1L4moveIRP6ThreadEEONS_16remove_referenceIT_E4typeEOS5_
	mov	x1, x0
	ldr	x0, [sp, #8]                    ; 8-byte Folded Reload
	.loc	44 287 5                        ; /Applications/Xcode.app/Contents/Developer/Platforms/MacOSX.platform/Developer/SDKs/MacOSX13.1.sdk/usr/include/c++/v1/thread:287:5
	bl	__ZNSt3__1L8__invokeIM6ThreadFvvEPS1_JEvEEDTcldsdescT0_fp0_fp_spscT1_fp1_EEOT_OS5_DpOS6_
	.loc	44 288 1 is_stmt 1              ; /Applications/Xcode.app/Contents/Developer/Platforms/MacOSX.platform/Developer/SDKs/MacOSX13.1.sdk/usr/include/c++/v1/thread:288:1
	ldp	x29, x30, [sp, #32]             ; 16-byte Folded Reload
	add	sp, sp, #48
	ret
Ltmp283:
Lfunc_end91:
	.cfi_endproc
                                        ; -- End function
	.p2align	2                               ; -- Begin function _ZNSt3__1L16__libcpp_tls_setEmPv
__ZNSt3__1L16__libcpp_tls_setEmPv:      ; @_ZNSt3__1L16__libcpp_tls_setEmPv
Lfunc_begin92:
	.loc	43 472 0                        ; /Applications/Xcode.app/Contents/Developer/Platforms/MacOSX.platform/Developer/SDKs/MacOSX13.1.sdk/usr/include/c++/v1/__threading_support:472:0
	.cfi_startproc
; %bb.0:
	sub	sp, sp, #32
	stp	x29, x30, [sp, #16]             ; 16-byte Folded Spill
	add	x29, sp, #16
	.cfi_def_cfa w29, 16
	.cfi_offset w30, -8
	.cfi_offset w29, -16
	str	x0, [sp, #8]
	str	x1, [sp]
Ltmp284:
	.loc	43 473 32 prologue_end          ; /Applications/Xcode.app/Contents/Developer/Platforms/MacOSX.platform/Developer/SDKs/MacOSX13.1.sdk/usr/include/c++/v1/__threading_support:473:32
	ldr	x0, [sp, #8]
	.loc	43 473 39 is_stmt 0             ; /Applications/Xcode.app/Contents/Developer/Platforms/MacOSX.platform/Developer/SDKs/MacOSX13.1.sdk/usr/include/c++/v1/__threading_support:473:39
	ldr	x1, [sp]
	.loc	43 473 12                       ; /Applications/Xcode.app/Contents/Developer/Platforms/MacOSX.platform/Developer/SDKs/MacOSX13.1.sdk/usr/include/c++/v1/__threading_support:473:12
	bl	_pthread_setspecific
	.loc	43 473 5                        ; /Applications/Xcode.app/Contents/Developer/Platforms/MacOSX.platform/Developer/SDKs/MacOSX13.1.sdk/usr/include/c++/v1/__threading_support:473:5
	ldp	x29, x30, [sp, #16]             ; 16-byte Folded Reload
	add	sp, sp, #32
	ret
Ltmp285:
Lfunc_end92:
	.cfi_endproc
                                        ; -- End function
	.p2align	2                               ; -- Begin function _ZNSt3__112__tuple_leafILm0ENS_10unique_ptrINS_15__thread_structENS_14default_deleteIS2_EEEELb0EE3getEv
__ZNSt3__112__tuple_leafILm0ENS_10unique_ptrINS_15__thread_structENS_14default_deleteIS2_EEEELb0EE3getEv: ; @_ZNSt3__112__tuple_leafILm0ENS_10unique_ptrINS_15__thread_structENS_14default_deleteIS2_EEEELb0EE3getEv
Lfunc_begin93:
	.loc	54 278 0 is_stmt 1              ; /Applications/Xcode.app/Contents/Developer/Platforms/MacOSX.platform/Developer/SDKs/MacOSX13.1.sdk/usr/include/c++/v1/tuple:278:0
	.cfi_startproc
; %bb.0:
	sub	sp, sp, #16
	.cfi_def_cfa_offset 16
	str	x0, [sp, #8]
	ldr	x0, [sp, #8]
Ltmp287:
	.loc	54 278 114 prologue_end         ; /Applications/Xcode.app/Contents/Developer/Platforms/MacOSX.platform/Developer/SDKs/MacOSX13.1.sdk/usr/include/c++/v1/tuple:278:114
	add	sp, sp, #16
	ret
Ltmp288:
Lfunc_end93:
	.cfi_endproc
                                        ; -- End function
	.p2align	2                               ; -- Begin function _ZNSt3__1L8__invokeIM6ThreadFvvEPS1_JEvEEDTcldsdescT0_fp0_fp_spscT1_fp1_EEOT_OS5_DpOS6_
__ZNSt3__1L8__invokeIM6ThreadFvvEPS1_JEvEEDTcldsdescT0_fp0_fp_spscT1_fp1_EEOT_OS5_DpOS6_: ; @_ZNSt3__1L8__invokeIM6ThreadFvvEPS1_JEvEEDTcldsdescT0_fp0_fp_spscT1_fp1_EEOT_OS5_DpOS6_
Lfunc_begin94:
	.loc	9 3859 0                        ; /Applications/Xcode.app/Contents/Developer/Platforms/MacOSX.platform/Developer/SDKs/MacOSX13.1.sdk/usr/include/c++/v1/type_traits:3859:0
	.cfi_startproc
; %bb.0:
	sub	sp, sp, #64
	stp	x29, x30, [sp, #48]             ; 16-byte Folded Spill
	add	x29, sp, #48
	.cfi_def_cfa w29, 16
	.cfi_offset w30, -8
	.cfi_offset w29, -16
	stur	x0, [x29, #-8]
	stur	x1, [x29, #-16]
Ltmp289:
	.loc	9 3859 201 prologue_end         ; /Applications/Xcode.app/Contents/Developer/Platforms/MacOSX.platform/Developer/SDKs/MacOSX13.1.sdk/usr/include/c++/v1/type_traits:3859:201
	ldur	x8, [x29, #-16]
	ldr	x9, [x8]
	.loc	9 3859 209 is_stmt 0            ; /Applications/Xcode.app/Contents/Developer/Platforms/MacOSX.platform/Developer/SDKs/MacOSX13.1.sdk/usr/include/c++/v1/type_traits:3859:209
	ldur	x8, [x29, #-8]
	ldr	x10, [x8]
	str	x10, [sp, #16]                  ; 8-byte Folded Spill
	ldr	x8, [x8, #8]
	.loc	9 3859 179                      ; /Applications/Xcode.app/Contents/Developer/Platforms/MacOSX.platform/Developer/SDKs/MacOSX13.1.sdk/usr/include/c++/v1/type_traits:3859:179
	add	x9, x9, x8, asr #1
	str	x9, [sp, #24]                   ; 8-byte Folded Spill
                                        ; kill: def $w8 killed $w8 killed $x8
	tbz	w8, #0, LBB94_2
	b	LBB94_1
LBB94_1:
	.loc	9 0 179                         ; /Applications/Xcode.app/Contents/Developer/Platforms/MacOSX.platform/Developer/SDKs/MacOSX13.1.sdk/usr/include/c++/v1/type_traits:0:179
	ldr	x9, [sp, #16]                   ; 8-byte Folded Reload
	ldr	x8, [sp, #24]                   ; 8-byte Folded Reload
	.loc	9 3859 179                      ; /Applications/Xcode.app/Contents/Developer/Platforms/MacOSX.platform/Developer/SDKs/MacOSX13.1.sdk/usr/include/c++/v1/type_traits:3859:179
	ldr	x8, [x8]
	ldr	x8, [x8, w9, uxtw]
	str	x8, [sp, #8]                    ; 8-byte Folded Spill
	b	LBB94_3
LBB94_2:
	.loc	9 0 179                         ; /Applications/Xcode.app/Contents/Developer/Platforms/MacOSX.platform/Developer/SDKs/MacOSX13.1.sdk/usr/include/c++/v1/type_traits:0:179
	ldr	x8, [sp, #16]                   ; 8-byte Folded Reload
	str	x8, [sp, #8]                    ; 8-byte Folded Spill
	.loc	9 3859 179                      ; /Applications/Xcode.app/Contents/Developer/Platforms/MacOSX.platform/Developer/SDKs/MacOSX13.1.sdk/usr/include/c++/v1/type_traits:3859:179
	b	LBB94_3
LBB94_3:
	.loc	9 0 179                         ; /Applications/Xcode.app/Contents/Developer/Platforms/MacOSX.platform/Developer/SDKs/MacOSX13.1.sdk/usr/include/c++/v1/type_traits:0:179
	ldr	x0, [sp, #24]                   ; 8-byte Folded Reload
	ldr	x8, [sp, #8]                    ; 8-byte Folded Reload
	.loc	9 3859 179                      ; /Applications/Xcode.app/Contents/Developer/Platforms/MacOSX.platform/Developer/SDKs/MacOSX13.1.sdk/usr/include/c++/v1/type_traits:3859:179
	blr	x8
	.loc	9 3859 172                      ; /Applications/Xcode.app/Contents/Developer/Platforms/MacOSX.platform/Developer/SDKs/MacOSX13.1.sdk/usr/include/c++/v1/type_traits:3859:172
	ldp	x29, x30, [sp, #48]             ; 16-byte Folded Reload
	add	sp, sp, #64
	ret
Ltmp290:
Lfunc_end94:
	.cfi_endproc
                                        ; -- End function
	.p2align	2                               ; -- Begin function _ZNSt3__1L4moveIRM6ThreadFvvEEEONS_16remove_referenceIT_E4typeEOS6_
__ZNSt3__1L4moveIRM6ThreadFvvEEEONS_16remove_referenceIT_E4typeEOS6_: ; @_ZNSt3__1L4moveIRM6ThreadFvvEEEONS_16remove_referenceIT_E4typeEOS6_
Lfunc_begin95:
	.loc	103 27 0 is_stmt 1              ; /Applications/Xcode.app/Contents/Developer/Platforms/MacOSX.platform/Developer/SDKs/MacOSX13.1.sdk/usr/include/c++/v1/__utility/move.h:27:0
	.cfi_startproc
; %bb.0:
	sub	sp, sp, #16
	.cfi_def_cfa_offset 16
	str	x0, [sp, #8]
Ltmp292:
	.loc	103 29 29 prologue_end          ; /Applications/Xcode.app/Contents/Developer/Platforms/MacOSX.platform/Developer/SDKs/MacOSX13.1.sdk/usr/include/c++/v1/__utility/move.h:29:29
	ldr	x0, [sp, #8]
	.loc	103 29 3 is_stmt 0              ; /Applications/Xcode.app/Contents/Developer/Platforms/MacOSX.platform/Developer/SDKs/MacOSX13.1.sdk/usr/include/c++/v1/__utility/move.h:29:3
	add	sp, sp, #16
	ret
Ltmp293:
Lfunc_end95:
	.cfi_endproc
                                        ; -- End function
	.p2align	2                               ; -- Begin function _ZNSt3__1L3getILm1EJNS_10unique_ptrINS_15__thread_structENS_14default_deleteIS2_EEEEM6ThreadFvvEPS6_EEERNS_13tuple_elementIXT_ENS_5tupleIJDpT0_EEEE4typeERSE_
__ZNSt3__1L3getILm1EJNS_10unique_ptrINS_15__thread_structENS_14default_deleteIS2_EEEEM6ThreadFvvEPS6_EEERNS_13tuple_elementIXT_ENS_5tupleIJDpT0_EEEE4typeERSE_: ; @_ZNSt3__1L3getILm1EJNS_10unique_ptrINS_15__thread_structENS_14default_deleteIS2_EEEEM6ThreadFvvEPS6_EEERNS_13tuple_elementIXT_ENS_5tupleIJDpT0_EEEE4typeERSE_
Lfunc_begin96:
	.loc	54 1130 0 is_stmt 1             ; /Applications/Xcode.app/Contents/Developer/Platforms/MacOSX.platform/Developer/SDKs/MacOSX13.1.sdk/usr/include/c++/v1/tuple:1130:0
	.cfi_startproc
; %bb.0:
	sub	sp, sp, #32
	stp	x29, x30, [sp, #16]             ; 16-byte Folded Spill
	add	x29, sp, #16
	.cfi_def_cfa w29, 16
	.cfi_offset w30, -8
	.cfi_offset w29, -16
	str	x0, [sp, #8]
Ltmp294:
	.loc	54 1132 50 prologue_end         ; /Applications/Xcode.app/Contents/Developer/Platforms/MacOSX.platform/Developer/SDKs/MacOSX13.1.sdk/usr/include/c++/v1/tuple:1132:50
	ldr	x8, [sp, #8]
	add	x0, x8, #8
	.loc	54 1132 63 is_stmt 0            ; /Applications/Xcode.app/Contents/Developer/Platforms/MacOSX.platform/Developer/SDKs/MacOSX13.1.sdk/usr/include/c++/v1/tuple:1132:63
	bl	__ZNSt3__112__tuple_leafILm1EM6ThreadFvvELb0EE3getEv
	.loc	54 1132 5                       ; /Applications/Xcode.app/Contents/Developer/Platforms/MacOSX.platform/Developer/SDKs/MacOSX13.1.sdk/usr/include/c++/v1/tuple:1132:5
	ldp	x29, x30, [sp, #16]             ; 16-byte Folded Reload
	add	sp, sp, #32
	ret
Ltmp295:
Lfunc_end96:
	.cfi_endproc
                                        ; -- End function
	.p2align	2                               ; -- Begin function _ZNSt3__1L4moveIRP6ThreadEEONS_16remove_referenceIT_E4typeEOS5_
__ZNSt3__1L4moveIRP6ThreadEEONS_16remove_referenceIT_E4typeEOS5_: ; @_ZNSt3__1L4moveIRP6ThreadEEONS_16remove_referenceIT_E4typeEOS5_
Lfunc_begin97:
	.loc	103 27 0 is_stmt 1              ; /Applications/Xcode.app/Contents/Developer/Platforms/MacOSX.platform/Developer/SDKs/MacOSX13.1.sdk/usr/include/c++/v1/__utility/move.h:27:0
	.cfi_startproc
; %bb.0:
	sub	sp, sp, #16
	.cfi_def_cfa_offset 16
	str	x0, [sp, #8]
Ltmp297:
	.loc	103 29 29 prologue_end          ; /Applications/Xcode.app/Contents/Developer/Platforms/MacOSX.platform/Developer/SDKs/MacOSX13.1.sdk/usr/include/c++/v1/__utility/move.h:29:29
	ldr	x0, [sp, #8]
	.loc	103 29 3 is_stmt 0              ; /Applications/Xcode.app/Contents/Developer/Platforms/MacOSX.platform/Developer/SDKs/MacOSX13.1.sdk/usr/include/c++/v1/__utility/move.h:29:3
	add	sp, sp, #16
	ret
Ltmp298:
Lfunc_end97:
	.cfi_endproc
                                        ; -- End function
	.p2align	2                               ; -- Begin function _ZNSt3__1L3getILm2EJNS_10unique_ptrINS_15__thread_structENS_14default_deleteIS2_EEEEM6ThreadFvvEPS6_EEERNS_13tuple_elementIXT_ENS_5tupleIJDpT0_EEEE4typeERSE_
__ZNSt3__1L3getILm2EJNS_10unique_ptrINS_15__thread_structENS_14default_deleteIS2_EEEEM6ThreadFvvEPS6_EEERNS_13tuple_elementIXT_ENS_5tupleIJDpT0_EEEE4typeERSE_: ; @_ZNSt3__1L3getILm2EJNS_10unique_ptrINS_15__thread_structENS_14default_deleteIS2_EEEEM6ThreadFvvEPS6_EEERNS_13tuple_elementIXT_ENS_5tupleIJDpT0_EEEE4typeERSE_
Lfunc_begin98:
	.loc	54 1130 0 is_stmt 1             ; /Applications/Xcode.app/Contents/Developer/Platforms/MacOSX.platform/Developer/SDKs/MacOSX13.1.sdk/usr/include/c++/v1/tuple:1130:0
	.cfi_startproc
; %bb.0:
	sub	sp, sp, #32
	stp	x29, x30, [sp, #16]             ; 16-byte Folded Spill
	add	x29, sp, #16
	.cfi_def_cfa w29, 16
	.cfi_offset w30, -8
	.cfi_offset w29, -16
	str	x0, [sp, #8]
Ltmp299:
	.loc	54 1132 50 prologue_end         ; /Applications/Xcode.app/Contents/Developer/Platforms/MacOSX.platform/Developer/SDKs/MacOSX13.1.sdk/usr/include/c++/v1/tuple:1132:50
	ldr	x8, [sp, #8]
	add	x0, x8, #24
	.loc	54 1132 63 is_stmt 0            ; /Applications/Xcode.app/Contents/Developer/Platforms/MacOSX.platform/Developer/SDKs/MacOSX13.1.sdk/usr/include/c++/v1/tuple:1132:63
	bl	__ZNSt3__112__tuple_leafILm2EP6ThreadLb0EE3getEv
	.loc	54 1132 5                       ; /Applications/Xcode.app/Contents/Developer/Platforms/MacOSX.platform/Developer/SDKs/MacOSX13.1.sdk/usr/include/c++/v1/tuple:1132:5
	ldp	x29, x30, [sp, #16]             ; 16-byte Folded Reload
	add	sp, sp, #32
	ret
Ltmp300:
Lfunc_end98:
	.cfi_endproc
                                        ; -- End function
	.p2align	2                               ; -- Begin function _ZNSt3__112__tuple_leafILm1EM6ThreadFvvELb0EE3getEv
__ZNSt3__112__tuple_leafILm1EM6ThreadFvvELb0EE3getEv: ; @_ZNSt3__112__tuple_leafILm1EM6ThreadFvvELb0EE3getEv
Lfunc_begin99:
	.loc	54 278 0 is_stmt 1              ; /Applications/Xcode.app/Contents/Developer/Platforms/MacOSX.platform/Developer/SDKs/MacOSX13.1.sdk/usr/include/c++/v1/tuple:278:0
	.cfi_startproc
; %bb.0:
	sub	sp, sp, #16
	.cfi_def_cfa_offset 16
	str	x0, [sp, #8]
	ldr	x0, [sp, #8]
Ltmp302:
	.loc	54 278 114 prologue_end         ; /Applications/Xcode.app/Contents/Developer/Platforms/MacOSX.platform/Developer/SDKs/MacOSX13.1.sdk/usr/include/c++/v1/tuple:278:114
	add	sp, sp, #16
	ret
Ltmp303:
Lfunc_end99:
	.cfi_endproc
                                        ; -- End function
	.p2align	2                               ; -- Begin function _ZNSt3__112__tuple_leafILm2EP6ThreadLb0EE3getEv
__ZNSt3__112__tuple_leafILm2EP6ThreadLb0EE3getEv: ; @_ZNSt3__112__tuple_leafILm2EP6ThreadLb0EE3getEv
Lfunc_begin100:
	.loc	54 278 0                        ; /Applications/Xcode.app/Contents/Developer/Platforms/MacOSX.platform/Developer/SDKs/MacOSX13.1.sdk/usr/include/c++/v1/tuple:278:0
	.cfi_startproc
; %bb.0:
	sub	sp, sp, #16
	.cfi_def_cfa_offset 16
	str	x0, [sp, #8]
	ldr	x0, [sp, #8]
Ltmp305:
	.loc	54 278 114 prologue_end         ; /Applications/Xcode.app/Contents/Developer/Platforms/MacOSX.platform/Developer/SDKs/MacOSX13.1.sdk/usr/include/c++/v1/tuple:278:114
	add	sp, sp, #16
	ret
Ltmp306:
Lfunc_end100:
	.cfi_endproc
                                        ; -- End function
	.p2align	2                               ; -- Begin function _ZNKSt3__117__compressed_pairIPNS_5tupleIJNS_10unique_ptrINS_15__thread_structENS_14default_deleteIS3_EEEEM6ThreadFvvEPS7_EEENS4_ISB_EEE5firstEv
__ZNKSt3__117__compressed_pairIPNS_5tupleIJNS_10unique_ptrINS_15__thread_structENS_14default_deleteIS3_EEEEM6ThreadFvvEPS7_EEENS4_ISB_EEE5firstEv: ; @_ZNKSt3__117__compressed_pairIPNS_5tupleIJNS_10unique_ptrINS_15__thread_structENS_14default_deleteIS3_EEEEM6ThreadFvvEPS7_EEENS4_ISB_EEE5firstEv
Lfunc_begin101:
	.loc	6 155 0                         ; /Applications/Xcode.app/Contents/Developer/Platforms/MacOSX.platform/Developer/SDKs/MacOSX13.1.sdk/usr/include/c++/v1/__memory/compressed_pair.h:155:0
	.cfi_startproc
; %bb.0:
	sub	sp, sp, #32
	stp	x29, x30, [sp, #16]             ; 16-byte Folded Spill
	add	x29, sp, #16
	.cfi_def_cfa w29, 16
	.cfi_offset w30, -8
	.cfi_offset w29, -16
	str	x0, [sp, #8]
	ldr	x0, [sp, #8]
Ltmp307:
	.loc	6 156 46 prologue_end           ; /Applications/Xcode.app/Contents/Developer/Platforms/MacOSX.platform/Developer/SDKs/MacOSX13.1.sdk/usr/include/c++/v1/__memory/compressed_pair.h:156:46
	bl	__ZNKSt3__122__compressed_pair_elemIPNS_5tupleIJNS_10unique_ptrINS_15__thread_structENS_14default_deleteIS3_EEEEM6ThreadFvvEPS7_EEELi0ELb0EE5__getEv
	.loc	6 156 5 is_stmt 0               ; /Applications/Xcode.app/Contents/Developer/Platforms/MacOSX.platform/Developer/SDKs/MacOSX13.1.sdk/usr/include/c++/v1/__memory/compressed_pair.h:156:5
	ldp	x29, x30, [sp, #16]             ; 16-byte Folded Reload
	add	sp, sp, #32
	ret
Ltmp308:
Lfunc_end101:
	.cfi_endproc
                                        ; -- End function
	.p2align	2                               ; -- Begin function _ZNKSt3__122__compressed_pair_elemIPNS_5tupleIJNS_10unique_ptrINS_15__thread_structENS_14default_deleteIS3_EEEEM6ThreadFvvEPS7_EEELi0ELb0EE5__getEv
__ZNKSt3__122__compressed_pair_elemIPNS_5tupleIJNS_10unique_ptrINS_15__thread_structENS_14default_deleteIS3_EEEEM6ThreadFvvEPS7_EEELi0ELb0EE5__getEv: ; @_ZNKSt3__122__compressed_pair_elemIPNS_5tupleIJNS_10unique_ptrINS_15__thread_structENS_14default_deleteIS3_EEEEM6ThreadFvvEPS7_EEELi0ELb0EE5__getEv
Lfunc_begin102:
	.loc	6 67 0 is_stmt 1                ; /Applications/Xcode.app/Contents/Developer/Platforms/MacOSX.platform/Developer/SDKs/MacOSX13.1.sdk/usr/include/c++/v1/__memory/compressed_pair.h:67:0
	.cfi_startproc
; %bb.0:
	sub	sp, sp, #16
	.cfi_def_cfa_offset 16
	str	x0, [sp, #8]
	ldr	x0, [sp, #8]
Ltmp310:
	.loc	6 67 44 prologue_end            ; /Applications/Xcode.app/Contents/Developer/Platforms/MacOSX.platform/Developer/SDKs/MacOSX13.1.sdk/usr/include/c++/v1/__memory/compressed_pair.h:67:44
	add	sp, sp, #16
	ret
Ltmp311:
Lfunc_end102:
	.cfi_endproc
                                        ; -- End function
	.p2align	2                               ; -- Begin function _ZNSt3__117__compressed_pairIPNS_5tupleIJNS_10unique_ptrINS_15__thread_structENS_14default_deleteIS3_EEEEM6ThreadFvvEPS7_EEENS4_ISB_EEE5firstEv
__ZNSt3__117__compressed_pairIPNS_5tupleIJNS_10unique_ptrINS_15__thread_structENS_14default_deleteIS3_EEEEM6ThreadFvvEPS7_EEENS4_ISB_EEE5firstEv: ; @_ZNSt3__117__compressed_pairIPNS_5tupleIJNS_10unique_ptrINS_15__thread_structENS_14default_deleteIS3_EEEEM6ThreadFvvEPS7_EEENS4_ISB_EEE5firstEv
Lfunc_begin103:
	.loc	6 150 0                         ; /Applications/Xcode.app/Contents/Developer/Platforms/MacOSX.platform/Developer/SDKs/MacOSX13.1.sdk/usr/include/c++/v1/__memory/compressed_pair.h:150:0
	.cfi_startproc
; %bb.0:
	sub	sp, sp, #32
	stp	x29, x30, [sp, #16]             ; 16-byte Folded Spill
	add	x29, sp, #16
	.cfi_def_cfa w29, 16
	.cfi_offset w30, -8
	.cfi_offset w29, -16
	str	x0, [sp, #8]
	ldr	x0, [sp, #8]
Ltmp312:
	.loc	6 151 40 prologue_end           ; /Applications/Xcode.app/Contents/Developer/Platforms/MacOSX.platform/Developer/SDKs/MacOSX13.1.sdk/usr/include/c++/v1/__memory/compressed_pair.h:151:40
	bl	__ZNSt3__122__compressed_pair_elemIPNS_5tupleIJNS_10unique_ptrINS_15__thread_structENS_14default_deleteIS3_EEEEM6ThreadFvvEPS7_EEELi0ELb0EE5__getEv
	.loc	6 151 5 is_stmt 0               ; /Applications/Xcode.app/Contents/Developer/Platforms/MacOSX.platform/Developer/SDKs/MacOSX13.1.sdk/usr/include/c++/v1/__memory/compressed_pair.h:151:5
	ldp	x29, x30, [sp, #16]             ; 16-byte Folded Reload
	add	sp, sp, #32
	ret
Ltmp313:
Lfunc_end103:
	.cfi_endproc
                                        ; -- End function
	.p2align	2                               ; -- Begin function _ZNSt3__122__compressed_pair_elemIPNS_5tupleIJNS_10unique_ptrINS_15__thread_structENS_14default_deleteIS3_EEEEM6ThreadFvvEPS7_EEELi0ELb0EE5__getEv
__ZNSt3__122__compressed_pair_elemIPNS_5tupleIJNS_10unique_ptrINS_15__thread_structENS_14default_deleteIS3_EEEEM6ThreadFvvEPS7_EEELi0ELb0EE5__getEv: ; @_ZNSt3__122__compressed_pair_elemIPNS_5tupleIJNS_10unique_ptrINS_15__thread_structENS_14default_deleteIS3_EEEEM6ThreadFvvEPS7_EEELi0ELb0EE5__getEv
Lfunc_begin104:
	.loc	6 65 0 is_stmt 1                ; /Applications/Xcode.app/Contents/Developer/Platforms/MacOSX.platform/Developer/SDKs/MacOSX13.1.sdk/usr/include/c++/v1/__memory/compressed_pair.h:65:0
	.cfi_startproc
; %bb.0:
	sub	sp, sp, #16
	.cfi_def_cfa_offset 16
	str	x0, [sp, #8]
	ldr	x0, [sp, #8]
Ltmp315:
	.loc	6 65 110 prologue_end           ; /Applications/Xcode.app/Contents/Developer/Platforms/MacOSX.platform/Developer/SDKs/MacOSX13.1.sdk/usr/include/c++/v1/__memory/compressed_pair.h:65:110
	add	sp, sp, #16
	ret
Ltmp316:
Lfunc_end104:
	.cfi_endproc
                                        ; -- End function
	.p2align	2                               ; -- Begin function _ZNSt3__110unique_ptrINS_5tupleIJNS0_INS_15__thread_structENS_14default_deleteIS2_EEEEM6ThreadFvvEPS6_EEENS3_ISA_EEED2Ev
__ZNSt3__110unique_ptrINS_5tupleIJNS0_INS_15__thread_structENS_14default_deleteIS2_EEEEM6ThreadFvvEPS6_EEENS3_ISA_EEED2Ev: ; @_ZNSt3__110unique_ptrINS_5tupleIJNS0_INS_15__thread_structENS_14default_deleteIS2_EEEEM6ThreadFvvEPS6_EEENS3_ISA_EEED2Ev
Lfunc_begin105:
	.loc	45 272 0                        ; /Applications/Xcode.app/Contents/Developer/Platforms/MacOSX.platform/Developer/SDKs/MacOSX13.1.sdk/usr/include/c++/v1/__memory/unique_ptr.h:272:0
	.cfi_startproc
; %bb.0:
	sub	sp, sp, #32
	stp	x29, x30, [sp, #16]             ; 16-byte Folded Spill
	add	x29, sp, #16
	.cfi_def_cfa w29, 16
	.cfi_offset w30, -8
	.cfi_offset w29, -16
	str	x0, [sp, #8]
	ldr	x0, [sp, #8]
	str	x0, [sp]                        ; 8-byte Folded Spill
	mov	x1, #0
Ltmp317:
	.loc	45 272 19 prologue_end          ; /Applications/Xcode.app/Contents/Developer/Platforms/MacOSX.platform/Developer/SDKs/MacOSX13.1.sdk/usr/include/c++/v1/__memory/unique_ptr.h:272:19
	bl	__ZNSt3__110unique_ptrINS_5tupleIJNS0_INS_15__thread_structENS_14default_deleteIS2_EEEEM6ThreadFvvEPS6_EEENS3_ISA_EEE5resetEPSA_
	ldr	x0, [sp]                        ; 8-byte Folded Reload
Ltmp318:
	.loc	45 272 28 is_stmt 0             ; /Applications/Xcode.app/Contents/Developer/Platforms/MacOSX.platform/Developer/SDKs/MacOSX13.1.sdk/usr/include/c++/v1/__memory/unique_ptr.h:272:28
	ldp	x29, x30, [sp, #16]             ; 16-byte Folded Reload
	add	sp, sp, #32
	ret
Ltmp319:
Lfunc_end105:
	.cfi_endproc
                                        ; -- End function
	.p2align	2                               ; -- Begin function _ZNSt3__110unique_ptrINS_5tupleIJNS0_INS_15__thread_structENS_14default_deleteIS2_EEEEM6ThreadFvvEPS6_EEENS3_ISA_EEE5resetEPSA_
__ZNSt3__110unique_ptrINS_5tupleIJNS0_INS_15__thread_structENS_14default_deleteIS2_EEEEM6ThreadFvvEPS6_EEENS3_ISA_EEE5resetEPSA_: ; @_ZNSt3__110unique_ptrINS_5tupleIJNS0_INS_15__thread_structENS_14default_deleteIS2_EEEEM6ThreadFvvEPS6_EEENS3_ISA_EEE5resetEPSA_
Lfunc_begin106:
	.loc	45 314 0 is_stmt 1              ; /Applications/Xcode.app/Contents/Developer/Platforms/MacOSX.platform/Developer/SDKs/MacOSX13.1.sdk/usr/include/c++/v1/__memory/unique_ptr.h:314:0
	.cfi_startproc
; %bb.0:
	sub	sp, sp, #64
	stp	x29, x30, [sp, #48]             ; 16-byte Folded Spill
	add	x29, sp, #48
	.cfi_def_cfa w29, 16
	.cfi_offset w30, -8
	.cfi_offset w29, -16
	stur	x0, [x29, #-8]
	stur	x1, [x29, #-16]
	ldur	x0, [x29, #-8]
	str	x0, [sp, #8]                    ; 8-byte Folded Spill
Ltmp320:
	.loc	45 315 28 prologue_end          ; /Applications/Xcode.app/Contents/Developer/Platforms/MacOSX.platform/Developer/SDKs/MacOSX13.1.sdk/usr/include/c++/v1/__memory/unique_ptr.h:315:28
	bl	__ZNSt3__117__compressed_pairIPNS_5tupleIJNS_10unique_ptrINS_15__thread_structENS_14default_deleteIS3_EEEEM6ThreadFvvEPS7_EEENS4_ISB_EEE5firstEv
	mov	x8, x0
	ldr	x0, [sp, #8]                    ; 8-byte Folded Reload
	ldr	x8, [x8]
	.loc	45 315 13 is_stmt 0             ; /Applications/Xcode.app/Contents/Developer/Platforms/MacOSX.platform/Developer/SDKs/MacOSX13.1.sdk/usr/include/c++/v1/__memory/unique_ptr.h:315:13
	str	x8, [sp, #24]
	.loc	45 316 22 is_stmt 1             ; /Applications/Xcode.app/Contents/Developer/Platforms/MacOSX.platform/Developer/SDKs/MacOSX13.1.sdk/usr/include/c++/v1/__memory/unique_ptr.h:316:22
	ldur	x8, [x29, #-16]
	str	x8, [sp, #16]                   ; 8-byte Folded Spill
	.loc	45 316 12 is_stmt 0             ; /Applications/Xcode.app/Contents/Developer/Platforms/MacOSX.platform/Developer/SDKs/MacOSX13.1.sdk/usr/include/c++/v1/__memory/unique_ptr.h:316:12
	bl	__ZNSt3__117__compressed_pairIPNS_5tupleIJNS_10unique_ptrINS_15__thread_structENS_14default_deleteIS3_EEEEM6ThreadFvvEPS7_EEENS4_ISB_EEE5firstEv
	ldr	x8, [sp, #16]                   ; 8-byte Folded Reload
	.loc	45 316 20                       ; /Applications/Xcode.app/Contents/Developer/Platforms/MacOSX.platform/Developer/SDKs/MacOSX13.1.sdk/usr/include/c++/v1/__memory/unique_ptr.h:316:20
	str	x8, [x0]
Ltmp321:
	.loc	45 317 9 is_stmt 1              ; /Applications/Xcode.app/Contents/Developer/Platforms/MacOSX.platform/Developer/SDKs/MacOSX13.1.sdk/usr/include/c++/v1/__memory/unique_ptr.h:317:9
	ldr	x8, [sp, #24]
Ltmp322:
	.loc	45 317 9 is_stmt 0              ; /Applications/Xcode.app/Contents/Developer/Platforms/MacOSX.platform/Developer/SDKs/MacOSX13.1.sdk/usr/include/c++/v1/__memory/unique_ptr.h:317:9
	cbz	x8, LBB106_2
	b	LBB106_1
LBB106_1:
	.loc	45 0 9                          ; /Applications/Xcode.app/Contents/Developer/Platforms/MacOSX.platform/Developer/SDKs/MacOSX13.1.sdk/usr/include/c++/v1/__memory/unique_ptr.h:0:9
	ldr	x0, [sp, #8]                    ; 8-byte Folded Reload
Ltmp323:
	.loc	45 318 14 is_stmt 1             ; /Applications/Xcode.app/Contents/Developer/Platforms/MacOSX.platform/Developer/SDKs/MacOSX13.1.sdk/usr/include/c++/v1/__memory/unique_ptr.h:318:14
	bl	__ZNSt3__117__compressed_pairIPNS_5tupleIJNS_10unique_ptrINS_15__thread_structENS_14default_deleteIS3_EEEEM6ThreadFvvEPS7_EEENS4_ISB_EEE6secondEv
	.loc	45 318 23 is_stmt 0             ; /Applications/Xcode.app/Contents/Developer/Platforms/MacOSX.platform/Developer/SDKs/MacOSX13.1.sdk/usr/include/c++/v1/__memory/unique_ptr.h:318:23
	ldr	x1, [sp, #24]
	.loc	45 318 7                        ; /Applications/Xcode.app/Contents/Developer/Platforms/MacOSX.platform/Developer/SDKs/MacOSX13.1.sdk/usr/include/c++/v1/__memory/unique_ptr.h:318:7
	bl	__ZNKSt3__114default_deleteINS_5tupleIJNS_10unique_ptrINS_15__thread_structENS0_IS3_EEEEM6ThreadFvvEPS6_EEEEclEPSA_
	b	LBB106_2
Ltmp324:
LBB106_2:
	.loc	45 319 3 is_stmt 1              ; /Applications/Xcode.app/Contents/Developer/Platforms/MacOSX.platform/Developer/SDKs/MacOSX13.1.sdk/usr/include/c++/v1/__memory/unique_ptr.h:319:3
	ldp	x29, x30, [sp, #48]             ; 16-byte Folded Reload
	add	sp, sp, #64
	ret
Ltmp325:
Lfunc_end106:
	.cfi_endproc
                                        ; -- End function
	.p2align	2                               ; -- Begin function _ZNSt3__117__compressed_pairIPNS_5tupleIJNS_10unique_ptrINS_15__thread_structENS_14default_deleteIS3_EEEEM6ThreadFvvEPS7_EEENS4_ISB_EEE6secondEv
__ZNSt3__117__compressed_pairIPNS_5tupleIJNS_10unique_ptrINS_15__thread_structENS_14default_deleteIS3_EEEEM6ThreadFvvEPS7_EEENS4_ISB_EEE6secondEv: ; @_ZNSt3__117__compressed_pairIPNS_5tupleIJNS_10unique_ptrINS_15__thread_structENS_14default_deleteIS3_EEEEM6ThreadFvvEPS7_EEENS4_ISB_EEE6secondEv
Lfunc_begin107:
	.loc	6 160 0                         ; /Applications/Xcode.app/Contents/Developer/Platforms/MacOSX.platform/Developer/SDKs/MacOSX13.1.sdk/usr/include/c++/v1/__memory/compressed_pair.h:160:0
	.cfi_startproc
; %bb.0:
	sub	sp, sp, #32
	stp	x29, x30, [sp, #16]             ; 16-byte Folded Spill
	add	x29, sp, #16
	.cfi_def_cfa w29, 16
	.cfi_offset w30, -8
	.cfi_offset w29, -16
	str	x0, [sp, #8]
	ldr	x0, [sp, #8]
Ltmp326:
	.loc	6 161 40 prologue_end           ; /Applications/Xcode.app/Contents/Developer/Platforms/MacOSX.platform/Developer/SDKs/MacOSX13.1.sdk/usr/include/c++/v1/__memory/compressed_pair.h:161:40
	bl	__ZNSt3__122__compressed_pair_elemINS_14default_deleteINS_5tupleIJNS_10unique_ptrINS_15__thread_structENS1_IS4_EEEEM6ThreadFvvEPS7_EEEEELi1ELb1EE5__getEv
	.loc	6 161 5 is_stmt 0               ; /Applications/Xcode.app/Contents/Developer/Platforms/MacOSX.platform/Developer/SDKs/MacOSX13.1.sdk/usr/include/c++/v1/__memory/compressed_pair.h:161:5
	ldp	x29, x30, [sp, #16]             ; 16-byte Folded Reload
	add	sp, sp, #32
	ret
Ltmp327:
Lfunc_end107:
	.cfi_endproc
                                        ; -- End function
	.p2align	2                               ; -- Begin function _ZNKSt3__114default_deleteINS_5tupleIJNS_10unique_ptrINS_15__thread_structENS0_IS3_EEEEM6ThreadFvvEPS6_EEEEclEPSA_
__ZNKSt3__114default_deleteINS_5tupleIJNS_10unique_ptrINS_15__thread_structENS0_IS3_EEEEM6ThreadFvvEPS6_EEEEclEPSA_: ; @_ZNKSt3__114default_deleteINS_5tupleIJNS_10unique_ptrINS_15__thread_structENS0_IS3_EEEEM6ThreadFvvEPS6_EEEEclEPSA_
Lfunc_begin108:
	.loc	45 52 0 is_stmt 1               ; /Applications/Xcode.app/Contents/Developer/Platforms/MacOSX.platform/Developer/SDKs/MacOSX13.1.sdk/usr/include/c++/v1/__memory/unique_ptr.h:52:0
	.cfi_startproc
; %bb.0:
	sub	sp, sp, #48
	stp	x29, x30, [sp, #32]             ; 16-byte Folded Spill
	add	x29, sp, #32
	.cfi_def_cfa w29, 16
	.cfi_offset w30, -8
	.cfi_offset w29, -16
	stur	x0, [x29, #-8]
	str	x1, [sp, #16]
Ltmp328:
	.loc	45 57 12 prologue_end           ; /Applications/Xcode.app/Contents/Developer/Platforms/MacOSX.platform/Developer/SDKs/MacOSX13.1.sdk/usr/include/c++/v1/__memory/unique_ptr.h:57:12
	ldr	x8, [sp, #16]
	str	x8, [sp, #8]                    ; 8-byte Folded Spill
	.loc	45 57 5 is_stmt 0               ; /Applications/Xcode.app/Contents/Developer/Platforms/MacOSX.platform/Developer/SDKs/MacOSX13.1.sdk/usr/include/c++/v1/__memory/unique_ptr.h:57:5
	cbz	x8, LBB108_2
	b	LBB108_1
LBB108_1:
	.loc	45 0 5                          ; /Applications/Xcode.app/Contents/Developer/Platforms/MacOSX.platform/Developer/SDKs/MacOSX13.1.sdk/usr/include/c++/v1/__memory/unique_ptr.h:0:5
	ldr	x0, [sp, #8]                    ; 8-byte Folded Reload
	.loc	45 57 5                         ; /Applications/Xcode.app/Contents/Developer/Platforms/MacOSX.platform/Developer/SDKs/MacOSX13.1.sdk/usr/include/c++/v1/__memory/unique_ptr.h:57:5
	bl	__ZNSt3__15tupleIJNS_10unique_ptrINS_15__thread_structENS_14default_deleteIS2_EEEEM6ThreadFvvEPS6_EED1Ev
	ldr	x0, [sp, #8]                    ; 8-byte Folded Reload
	bl	__ZdlPv
	b	LBB108_2
LBB108_2:
	.loc	45 58 3 is_stmt 1               ; /Applications/Xcode.app/Contents/Developer/Platforms/MacOSX.platform/Developer/SDKs/MacOSX13.1.sdk/usr/include/c++/v1/__memory/unique_ptr.h:58:3
	ldp	x29, x30, [sp, #32]             ; 16-byte Folded Reload
	add	sp, sp, #48
	ret
Ltmp329:
Lfunc_end108:
	.cfi_endproc
                                        ; -- End function
	.p2align	2                               ; -- Begin function _ZNSt3__122__compressed_pair_elemINS_14default_deleteINS_5tupleIJNS_10unique_ptrINS_15__thread_structENS1_IS4_EEEEM6ThreadFvvEPS7_EEEEELi1ELb1EE5__getEv
__ZNSt3__122__compressed_pair_elemINS_14default_deleteINS_5tupleIJNS_10unique_ptrINS_15__thread_structENS1_IS4_EEEEM6ThreadFvvEPS7_EEEEELi1ELb1EE5__getEv: ; @_ZNSt3__122__compressed_pair_elemINS_14default_deleteINS_5tupleIJNS_10unique_ptrINS_15__thread_structENS1_IS4_EEEEM6ThreadFvvEPS7_EEEEELi1ELb1EE5__getEv
Lfunc_begin109:
	.loc	6 103 0                         ; /Applications/Xcode.app/Contents/Developer/Platforms/MacOSX.platform/Developer/SDKs/MacOSX13.1.sdk/usr/include/c++/v1/__memory/compressed_pair.h:103:0
	.cfi_startproc
; %bb.0:
	sub	sp, sp, #16
	.cfi_def_cfa_offset 16
	str	x0, [sp, #8]
	ldr	x0, [sp, #8]
Ltmp331:
	.loc	6 103 110 prologue_end          ; /Applications/Xcode.app/Contents/Developer/Platforms/MacOSX.platform/Developer/SDKs/MacOSX13.1.sdk/usr/include/c++/v1/__memory/compressed_pair.h:103:110
	add	sp, sp, #16
	ret
Ltmp332:
Lfunc_end109:
	.cfi_endproc
                                        ; -- End function
	.globl	__ZNSt3__15tupleIJNS_10unique_ptrINS_15__thread_structENS_14default_deleteIS2_EEEEM6ThreadFvvEPS6_EED1Ev ; -- Begin function _ZNSt3__15tupleIJNS_10unique_ptrINS_15__thread_structENS_14default_deleteIS2_EEEEM6ThreadFvvEPS6_EED1Ev
	.weak_def_can_be_hidden	__ZNSt3__15tupleIJNS_10unique_ptrINS_15__thread_structENS_14default_deleteIS2_EEEEM6ThreadFvvEPS6_EED1Ev
	.p2align	2
__ZNSt3__15tupleIJNS_10unique_ptrINS_15__thread_structENS_14default_deleteIS2_EEEEM6ThreadFvvEPS6_EED1Ev: ; @_ZNSt3__15tupleIJNS_10unique_ptrINS_15__thread_structENS_14default_deleteIS2_EEEEM6ThreadFvvEPS6_EED1Ev
Lfunc_begin110:
	.loc	54 451 0                        ; /Applications/Xcode.app/Contents/Developer/Platforms/MacOSX.platform/Developer/SDKs/MacOSX13.1.sdk/usr/include/c++/v1/tuple:451:0
	.cfi_startproc
; %bb.0:
	sub	sp, sp, #32
	stp	x29, x30, [sp, #16]             ; 16-byte Folded Spill
	add	x29, sp, #16
	.cfi_def_cfa w29, 16
	.cfi_offset w30, -8
	.cfi_offset w29, -16
	str	x0, [sp, #8]
	ldr	x0, [sp, #8]
	str	x0, [sp]                        ; 8-byte Folded Spill
Ltmp333:
	.loc	54 451 56 prologue_end          ; /Applications/Xcode.app/Contents/Developer/Platforms/MacOSX.platform/Developer/SDKs/MacOSX13.1.sdk/usr/include/c++/v1/tuple:451:56
	bl	__ZNSt3__15tupleIJNS_10unique_ptrINS_15__thread_structENS_14default_deleteIS2_EEEEM6ThreadFvvEPS6_EED2Ev
	ldr	x0, [sp]                        ; 8-byte Folded Reload
	ldp	x29, x30, [sp, #16]             ; 16-byte Folded Reload
	add	sp, sp, #32
	ret
Ltmp334:
Lfunc_end110:
	.cfi_endproc
                                        ; -- End function
	.globl	__ZNSt3__15tupleIJNS_10unique_ptrINS_15__thread_structENS_14default_deleteIS2_EEEEM6ThreadFvvEPS6_EED2Ev ; -- Begin function _ZNSt3__15tupleIJNS_10unique_ptrINS_15__thread_structENS_14default_deleteIS2_EEEEM6ThreadFvvEPS6_EED2Ev
	.weak_def_can_be_hidden	__ZNSt3__15tupleIJNS_10unique_ptrINS_15__thread_structENS_14default_deleteIS2_EEEEM6ThreadFvvEPS6_EED2Ev
	.p2align	2
__ZNSt3__15tupleIJNS_10unique_ptrINS_15__thread_structENS_14default_deleteIS2_EEEEM6ThreadFvvEPS6_EED2Ev: ; @_ZNSt3__15tupleIJNS_10unique_ptrINS_15__thread_structENS_14default_deleteIS2_EEEEM6ThreadFvvEPS6_EED2Ev
Lfunc_begin111:
	.loc	54 451 0                        ; /Applications/Xcode.app/Contents/Developer/Platforms/MacOSX.platform/Developer/SDKs/MacOSX13.1.sdk/usr/include/c++/v1/tuple:451:0
	.cfi_startproc
; %bb.0:
	sub	sp, sp, #32
	stp	x29, x30, [sp, #16]             ; 16-byte Folded Spill
	add	x29, sp, #16
	.cfi_def_cfa w29, 16
	.cfi_offset w30, -8
	.cfi_offset w29, -16
	str	x0, [sp, #8]
	ldr	x0, [sp, #8]
	str	x0, [sp]                        ; 8-byte Folded Spill
Ltmp335:
	.loc	54 451 56 prologue_end          ; /Applications/Xcode.app/Contents/Developer/Platforms/MacOSX.platform/Developer/SDKs/MacOSX13.1.sdk/usr/include/c++/v1/tuple:451:56
	bl	__ZNSt3__112__tuple_implINS_15__tuple_indicesIJLm0ELm1ELm2EEEEJNS_10unique_ptrINS_15__thread_structENS_14default_deleteIS4_EEEEM6ThreadFvvEPS8_EED1Ev
	ldr	x0, [sp]                        ; 8-byte Folded Reload
Ltmp336:
	.loc	54 451 56 is_stmt 0             ; /Applications/Xcode.app/Contents/Developer/Platforms/MacOSX.platform/Developer/SDKs/MacOSX13.1.sdk/usr/include/c++/v1/tuple:451:56
	ldp	x29, x30, [sp, #16]             ; 16-byte Folded Reload
	add	sp, sp, #32
	ret
Ltmp337:
Lfunc_end111:
	.cfi_endproc
                                        ; -- End function
	.globl	__ZNSt3__112__tuple_implINS_15__tuple_indicesIJLm0ELm1ELm2EEEEJNS_10unique_ptrINS_15__thread_structENS_14default_deleteIS4_EEEEM6ThreadFvvEPS8_EED1Ev ; -- Begin function _ZNSt3__112__tuple_implINS_15__tuple_indicesIJLm0ELm1ELm2EEEEJNS_10unique_ptrINS_15__thread_structENS_14default_deleteIS4_EEEEM6ThreadFvvEPS8_EED1Ev
	.weak_def_can_be_hidden	__ZNSt3__112__tuple_implINS_15__tuple_indicesIJLm0ELm1ELm2EEEEJNS_10unique_ptrINS_15__thread_structENS_14default_deleteIS4_EEEEM6ThreadFvvEPS8_EED1Ev
	.p2align	2
__ZNSt3__112__tuple_implINS_15__tuple_indicesIJLm0ELm1ELm2EEEEJNS_10unique_ptrINS_15__thread_structENS_14default_deleteIS4_EEEEM6ThreadFvvEPS8_EED1Ev: ; @_ZNSt3__112__tuple_implINS_15__tuple_indicesIJLm0ELm1ELm2EEEEJNS_10unique_ptrINS_15__thread_structENS_14default_deleteIS4_EEEEM6ThreadFvvEPS8_EED1Ev
Lfunc_begin112:
	.loc	54 365 0 is_stmt 1              ; /Applications/Xcode.app/Contents/Developer/Platforms/MacOSX.platform/Developer/SDKs/MacOSX13.1.sdk/usr/include/c++/v1/tuple:365:0
	.cfi_startproc
; %bb.0:
	sub	sp, sp, #32
	stp	x29, x30, [sp, #16]             ; 16-byte Folded Spill
	add	x29, sp, #16
	.cfi_def_cfa w29, 16
	.cfi_offset w30, -8
	.cfi_offset w29, -16
	str	x0, [sp, #8]
	ldr	x0, [sp, #8]
	str	x0, [sp]                        ; 8-byte Folded Spill
Ltmp338:
	.loc	54 365 8 prologue_end           ; /Applications/Xcode.app/Contents/Developer/Platforms/MacOSX.platform/Developer/SDKs/MacOSX13.1.sdk/usr/include/c++/v1/tuple:365:8
	bl	__ZNSt3__112__tuple_implINS_15__tuple_indicesIJLm0ELm1ELm2EEEEJNS_10unique_ptrINS_15__thread_structENS_14default_deleteIS4_EEEEM6ThreadFvvEPS8_EED2Ev
	ldr	x0, [sp]                        ; 8-byte Folded Reload
	ldp	x29, x30, [sp, #16]             ; 16-byte Folded Reload
	add	sp, sp, #32
	ret
Ltmp339:
Lfunc_end112:
	.cfi_endproc
                                        ; -- End function
	.globl	__ZNSt3__112__tuple_implINS_15__tuple_indicesIJLm0ELm1ELm2EEEEJNS_10unique_ptrINS_15__thread_structENS_14default_deleteIS4_EEEEM6ThreadFvvEPS8_EED2Ev ; -- Begin function _ZNSt3__112__tuple_implINS_15__tuple_indicesIJLm0ELm1ELm2EEEEJNS_10unique_ptrINS_15__thread_structENS_14default_deleteIS4_EEEEM6ThreadFvvEPS8_EED2Ev
	.weak_def_can_be_hidden	__ZNSt3__112__tuple_implINS_15__tuple_indicesIJLm0ELm1ELm2EEEEJNS_10unique_ptrINS_15__thread_structENS_14default_deleteIS4_EEEEM6ThreadFvvEPS8_EED2Ev
	.p2align	2
__ZNSt3__112__tuple_implINS_15__tuple_indicesIJLm0ELm1ELm2EEEEJNS_10unique_ptrINS_15__thread_structENS_14default_deleteIS4_EEEEM6ThreadFvvEPS8_EED2Ev: ; @_ZNSt3__112__tuple_implINS_15__tuple_indicesIJLm0ELm1ELm2EEEEJNS_10unique_ptrINS_15__thread_structENS_14default_deleteIS4_EEEEM6ThreadFvvEPS8_EED2Ev
Lfunc_begin113:
	.loc	54 365 0                        ; /Applications/Xcode.app/Contents/Developer/Platforms/MacOSX.platform/Developer/SDKs/MacOSX13.1.sdk/usr/include/c++/v1/tuple:365:0
	.cfi_startproc
; %bb.0:
	sub	sp, sp, #32
	stp	x29, x30, [sp, #16]             ; 16-byte Folded Spill
	add	x29, sp, #16
	.cfi_def_cfa w29, 16
	.cfi_offset w30, -8
	.cfi_offset w29, -16
	str	x0, [sp, #8]
	ldr	x0, [sp, #8]
	str	x0, [sp]                        ; 8-byte Folded Spill
Ltmp340:
	.loc	54 365 8 prologue_end           ; /Applications/Xcode.app/Contents/Developer/Platforms/MacOSX.platform/Developer/SDKs/MacOSX13.1.sdk/usr/include/c++/v1/tuple:365:8
	bl	__ZNSt3__112__tuple_leafILm0ENS_10unique_ptrINS_15__thread_structENS_14default_deleteIS2_EEEELb0EED2Ev
	ldr	x0, [sp]                        ; 8-byte Folded Reload
Ltmp341:
	.loc	54 365 8 is_stmt 0              ; /Applications/Xcode.app/Contents/Developer/Platforms/MacOSX.platform/Developer/SDKs/MacOSX13.1.sdk/usr/include/c++/v1/tuple:365:8
	ldp	x29, x30, [sp, #16]             ; 16-byte Folded Reload
	add	sp, sp, #32
	ret
Ltmp342:
Lfunc_end113:
	.cfi_endproc
                                        ; -- End function
	.globl	__ZNSt3__112__tuple_leafILm0ENS_10unique_ptrINS_15__thread_structENS_14default_deleteIS2_EEEELb0EED2Ev ; -- Begin function _ZNSt3__112__tuple_leafILm0ENS_10unique_ptrINS_15__thread_structENS_14default_deleteIS2_EEEELb0EED2Ev
	.weak_def_can_be_hidden	__ZNSt3__112__tuple_leafILm0ENS_10unique_ptrINS_15__thread_structENS_14default_deleteIS2_EEEELb0EED2Ev
	.p2align	2
