	.arch armv8-a
	.file	"main.cpp"
	.text
	.section	.text._ZnwmPv,"axG",@progbits,_ZnwmPv,comdat
	.align	2
	.weak	_ZnwmPv
	.type	_ZnwmPv, %function
_ZnwmPv:
.LFB357:
	.cfi_startproc
	sub	sp, sp, #16
	.cfi_def_cfa_offset 16
	str	x0, [sp, 8]
	str	x1, [sp]
	ldr	x0, [sp]
	add	sp, sp, 16
	.cfi_def_cfa_offset 0
	ret
	.cfi_endproc
.LFE357:
	.size	_ZnwmPv, .-_ZnwmPv
	.section	.text._ZdlPvS_,"axG",@progbits,_ZdlPvS_,comdat
	.align	2
	.weak	_ZdlPvS_
	.type	_ZdlPvS_, %function
_ZdlPvS_:
.LFB359:
	.cfi_startproc
	sub	sp, sp, #16
	.cfi_def_cfa_offset 16
	str	x0, [sp, 8]
	str	x1, [sp]
	nop
	add	sp, sp, 16
	.cfi_def_cfa_offset 0
	ret
	.cfi_endproc
.LFE359:
	.size	_ZdlPvS_, .-_ZdlPvS_
	.section	.text._ZNKSt9type_infoeqERKS_,"axG",@progbits,_ZNKSt9type_infoeqERKS_,comdat
	.align	2
	.weak	_ZNKSt9type_infoeqERKS_
	.type	_ZNKSt9type_infoeqERKS_, %function
_ZNKSt9type_infoeqERKS_:
.LFB1047:
	.cfi_startproc
	stp	x29, x30, [sp, -32]!
	.cfi_def_cfa_offset 32
	.cfi_offset 29, -32
	.cfi_offset 30, -24
	mov	x29, sp
	str	x0, [sp, 24]
	str	x1, [sp, 16]
	ldr	x0, [sp, 24]
	ldr	x1, [x0, 8]
	ldr	x0, [sp, 16]
	ldr	x0, [x0, 8]
	cmp	x1, x0
	beq	.L5
	ldr	x0, [sp, 24]
	ldr	x0, [x0, 8]
	ldrb	w0, [x0]
	cmp	w0, 42
	beq	.L6
	ldr	x0, [sp, 24]
	ldr	x2, [x0, 8]
	ldr	x0, [sp, 16]
	ldr	x0, [x0, 8]
	mov	x1, x0
	mov	x0, x2
	bl	strcmp
	cmp	w0, 0
	bne	.L6
.L5:
	mov	w0, 1
	b	.L7
.L6:
	mov	w0, 0
.L7:
	ldp	x29, x30, [sp], 32
	.cfi_restore 30
	.cfi_restore 29
	.cfi_def_cfa_offset 0
	ret
	.cfi_endproc
.LFE1047:
	.size	_ZNKSt9type_infoeqERKS_, .-_ZNKSt9type_infoeqERKS_
	.section	.rodata
	.align	2
	.type	_ZN9__gnu_cxxL21__default_lock_policyE, %object
	.size	_ZN9__gnu_cxxL21__default_lock_policyE, 4
_ZN9__gnu_cxxL21__default_lock_policyE:
	.word	2
	.weak	_ZZNSt19_Sp_make_shared_tag5_S_tiEvE5__tag
	.section	.rodata._ZZNSt19_Sp_make_shared_tag5_S_tiEvE5__tag,"aG",@progbits,_ZZNSt19_Sp_make_shared_tag5_S_tiEvE5__tag,comdat
	.align	3
	.type	_ZZNSt19_Sp_make_shared_tag5_S_tiEvE5__tag, %gnu_unique_object
	.size	_ZZNSt19_Sp_make_shared_tag5_S_tiEvE5__tag, 16
_ZZNSt19_Sp_make_shared_tag5_S_tiEvE5__tag:
	.zero	16
	.section	.text._ZNSt19_Sp_make_shared_tag5_S_tiEv,"axG",@progbits,_ZNSt19_Sp_make_shared_tag5_S_tiEv,comdat
	.align	2
	.weak	_ZNSt19_Sp_make_shared_tag5_S_tiEv
	.type	_ZNSt19_Sp_make_shared_tag5_S_tiEv, %function
_ZNSt19_Sp_make_shared_tag5_S_tiEv:
.LFB1257:
	.cfi_startproc
	adrp	x0, _ZZNSt19_Sp_make_shared_tag5_S_tiEvE5__tag
	add	x0, x0, :lo12:_ZZNSt19_Sp_make_shared_tag5_S_tiEvE5__tag
	ret
	.cfi_endproc
.LFE1257:
	.size	_ZNSt19_Sp_make_shared_tag5_S_tiEv, .-_ZNSt19_Sp_make_shared_tag5_S_tiEv
	.section	.rodata
	.align	3
	.type	_ZN6__pstl9execution2v1L3seqE, %object
	.size	_ZN6__pstl9execution2v1L3seqE, 1
_ZN6__pstl9execution2v1L3seqE:
	.zero	1
	.align	3
	.type	_ZN6__pstl9execution2v1L3parE, %object
	.size	_ZN6__pstl9execution2v1L3parE, 1
_ZN6__pstl9execution2v1L3parE:
	.zero	1
	.align	3
	.type	_ZN6__pstl9execution2v1L9par_unseqE, %object
	.size	_ZN6__pstl9execution2v1L9par_unseqE, 1
_ZN6__pstl9execution2v1L9par_unseqE:
	.zero	1
	.align	3
	.type	_ZN6__pstl9execution2v1L5unseqE, %object
	.size	_ZN6__pstl9execution2v1L5unseqE, 1
_ZN6__pstl9execution2v1L5unseqE:
	.zero	1
	.section	.text._ZNSt6chrono8durationIlSt5ratioILl1ELl1000000000EEEC1IlvEERKT_,"axG",@progbits,_ZNSt6chrono8durationIlSt5ratioILl1ELl1000000000EEEC1IlvEERKT_,comdat
	.align	2
	.weak	_ZNSt6chrono8durationIlSt5ratioILl1ELl1000000000EEEC1IlvEERKT_
	.type	_ZNSt6chrono8durationIlSt5ratioILl1ELl1000000000EEEC1IlvEERKT_, %function
_ZNSt6chrono8durationIlSt5ratioILl1ELl1000000000EEEC1IlvEERKT_:
.LFB1884:
	.cfi_startproc
	sub	sp, sp, #16
	.cfi_def_cfa_offset 16
	str	x0, [sp, 8]
	str	x1, [sp]
	ldr	x0, [sp]
	ldr	x1, [x0]
	ldr	x0, [sp, 8]
	str	x1, [x0]
	nop
	add	sp, sp, 16
	.cfi_def_cfa_offset 0
	ret
	.cfi_endproc
.LFE1884:
	.size	_ZNSt6chrono8durationIlSt5ratioILl1ELl1000000000EEEC1IlvEERKT_, .-_ZNSt6chrono8durationIlSt5ratioILl1ELl1000000000EEEC1IlvEERKT_
	.section	.text._ZNSt6chrono8durationIlSt5ratioILl1ELl1EEEC1IlvEERKT_,"axG",@progbits,_ZNSt6chrono8durationIlSt5ratioILl1ELl1EEEC1IlvEERKT_,comdat
	.align	2
	.weak	_ZNSt6chrono8durationIlSt5ratioILl1ELl1EEEC1IlvEERKT_
	.type	_ZNSt6chrono8durationIlSt5ratioILl1ELl1EEEC1IlvEERKT_, %function
_ZNSt6chrono8durationIlSt5ratioILl1ELl1EEEC1IlvEERKT_:
.LFB1905:
	.cfi_startproc
	sub	sp, sp, #16
	.cfi_def_cfa_offset 16
	str	x0, [sp, 8]
	str	x1, [sp]
	ldr	x0, [sp]
	ldr	x1, [x0]
	ldr	x0, [sp, 8]
	str	x1, [x0]
	nop
	add	sp, sp, 16
	.cfi_def_cfa_offset 0
	ret
	.cfi_endproc
.LFE1905:
	.size	_ZNSt6chrono8durationIlSt5ratioILl1ELl1EEEC1IlvEERKT_, .-_ZNSt6chrono8durationIlSt5ratioILl1ELl1EEEC1IlvEERKT_
	.section	.text._ZNSt12__shared_ptrI6LooperLN9__gnu_cxx12_Lock_policyE2EED2Ev,"axG",@progbits,_ZNSt12__shared_ptrI6LooperLN9__gnu_cxx12_Lock_policyE2EED5Ev,comdat
	.align	2
	.weak	_ZNSt12__shared_ptrI6LooperLN9__gnu_cxx12_Lock_policyE2EED2Ev
	.type	_ZNSt12__shared_ptrI6LooperLN9__gnu_cxx12_Lock_policyE2EED2Ev, %function
_ZNSt12__shared_ptrI6LooperLN9__gnu_cxx12_Lock_policyE2EED2Ev:
.LFB1912:
	.cfi_startproc
	stp	x29, x30, [sp, -32]!
	.cfi_def_cfa_offset 32
	.cfi_offset 29, -32
	.cfi_offset 30, -24
	mov	x29, sp
	str	x0, [sp, 24]
	ldr	x0, [sp, 24]
	add	x0, x0, 8
	bl	_ZNSt14__shared_countILN9__gnu_cxx12_Lock_policyE2EED1Ev
	nop
	ldp	x29, x30, [sp], 32
	.cfi_restore 30
	.cfi_restore 29
	.cfi_def_cfa_offset 0
	ret
	.cfi_endproc
.LFE1912:
	.size	_ZNSt12__shared_ptrI6LooperLN9__gnu_cxx12_Lock_policyE2EED2Ev, .-_ZNSt12__shared_ptrI6LooperLN9__gnu_cxx12_Lock_policyE2EED2Ev
	.weak	_ZNSt12__shared_ptrI6LooperLN9__gnu_cxx12_Lock_policyE2EED1Ev
	.set	_ZNSt12__shared_ptrI6LooperLN9__gnu_cxx12_Lock_policyE2EED1Ev,_ZNSt12__shared_ptrI6LooperLN9__gnu_cxx12_Lock_policyE2EED2Ev
	.section	.text._ZNSt10shared_ptrI6LooperED2Ev,"axG",@progbits,_ZNSt10shared_ptrI6LooperED5Ev,comdat
	.align	2
	.weak	_ZNSt10shared_ptrI6LooperED2Ev
	.type	_ZNSt10shared_ptrI6LooperED2Ev, %function
_ZNSt10shared_ptrI6LooperED2Ev:
.LFB1914:
	.cfi_startproc
	stp	x29, x30, [sp, -32]!
	.cfi_def_cfa_offset 32
	.cfi_offset 29, -32
	.cfi_offset 30, -24
	mov	x29, sp
	str	x0, [sp, 24]
	ldr	x0, [sp, 24]
	bl	_ZNSt12__shared_ptrI6LooperLN9__gnu_cxx12_Lock_policyE2EED2Ev
	nop
	ldp	x29, x30, [sp], 32
	.cfi_restore 30
	.cfi_restore 29
	.cfi_def_cfa_offset 0
	ret
	.cfi_endproc
.LFE1914:
	.size	_ZNSt10shared_ptrI6LooperED2Ev, .-_ZNSt10shared_ptrI6LooperED2Ev
	.weak	_ZNSt10shared_ptrI6LooperED1Ev
	.set	_ZNSt10shared_ptrI6LooperED1Ev,_ZNSt10shared_ptrI6LooperED2Ev
	.section	.text._ZNSt12__shared_ptrI14MessageHandlerLN9__gnu_cxx12_Lock_policyE2EED2Ev,"axG",@progbits,_ZNSt12__shared_ptrI14MessageHandlerLN9__gnu_cxx12_Lock_policyE2EED5Ev,comdat
	.align	2
	.weak	_ZNSt12__shared_ptrI14MessageHandlerLN9__gnu_cxx12_Lock_policyE2EED2Ev
	.type	_ZNSt12__shared_ptrI14MessageHandlerLN9__gnu_cxx12_Lock_policyE2EED2Ev, %function
_ZNSt12__shared_ptrI14MessageHandlerLN9__gnu_cxx12_Lock_policyE2EED2Ev:
.LFB1918:
	.cfi_startproc
	stp	x29, x30, [sp, -32]!
	.cfi_def_cfa_offset 32
	.cfi_offset 29, -32
	.cfi_offset 30, -24
	mov	x29, sp
	str	x0, [sp, 24]
	ldr	x0, [sp, 24]
	add	x0, x0, 8
	bl	_ZNSt14__shared_countILN9__gnu_cxx12_Lock_policyE2EED1Ev
	nop
	ldp	x29, x30, [sp], 32
	.cfi_restore 30
	.cfi_restore 29
	.cfi_def_cfa_offset 0
	ret
	.cfi_endproc
.LFE1918:
	.size	_ZNSt12__shared_ptrI14MessageHandlerLN9__gnu_cxx12_Lock_policyE2EED2Ev, .-_ZNSt12__shared_ptrI14MessageHandlerLN9__gnu_cxx12_Lock_policyE2EED2Ev
	.weak	_ZNSt12__shared_ptrI14MessageHandlerLN9__gnu_cxx12_Lock_policyE2EED1Ev
	.set	_ZNSt12__shared_ptrI14MessageHandlerLN9__gnu_cxx12_Lock_policyE2EED1Ev,_ZNSt12__shared_ptrI14MessageHandlerLN9__gnu_cxx12_Lock_policyE2EED2Ev
	.section	.text._ZNSt10shared_ptrI14MessageHandlerED2Ev,"axG",@progbits,_ZNSt10shared_ptrI14MessageHandlerED5Ev,comdat
	.align	2
	.weak	_ZNSt10shared_ptrI14MessageHandlerED2Ev
	.type	_ZNSt10shared_ptrI14MessageHandlerED2Ev, %function
_ZNSt10shared_ptrI14MessageHandlerED2Ev:
.LFB1920:
	.cfi_startproc
	stp	x29, x30, [sp, -32]!
	.cfi_def_cfa_offset 32
	.cfi_offset 29, -32
	.cfi_offset 30, -24
	mov	x29, sp
	str	x0, [sp, 24]
	ldr	x0, [sp, 24]
	bl	_ZNSt12__shared_ptrI14MessageHandlerLN9__gnu_cxx12_Lock_policyE2EED2Ev
	nop
	ldp	x29, x30, [sp], 32
	.cfi_restore 30
	.cfi_restore 29
	.cfi_def_cfa_offset 0
	ret
	.cfi_endproc
.LFE1920:
	.size	_ZNSt10shared_ptrI14MessageHandlerED2Ev, .-_ZNSt10shared_ptrI14MessageHandlerED2Ev
	.weak	_ZNSt10shared_ptrI14MessageHandlerED1Ev
	.set	_ZNSt10shared_ptrI14MessageHandlerED1Ev,_ZNSt10shared_ptrI14MessageHandlerED2Ev
	.section	.text._ZN7MessageC2Ei,"axG",@progbits,_ZN7MessageC5Ei,comdat
	.align	2
	.weak	_ZN7MessageC2Ei
	.type	_ZN7MessageC2Ei, %function
_ZN7MessageC2Ei:
.LFB1922:
	.cfi_startproc
	stp	x29, x30, [sp, -32]!
	.cfi_def_cfa_offset 32
	.cfi_offset 29, -32
	.cfi_offset 30, -24
	mov	x29, sp
	str	x0, [sp, 24]
	str	w1, [sp, 20]
	ldr	x0, [sp, 24]
	bl	_ZNSt23enable_shared_from_thisI7MessageEC2Ev
	ldr	x0, [sp, 24]
	ldr	w1, [sp, 20]
	str	w1, [x0, 16]
	ldr	x0, [sp, 24]
	add	x0, x0, 24
	bl	_ZNSt10shared_ptrI6LooperEC1Ev
	ldr	x0, [sp, 24]
	add	x0, x0, 40
	bl	_ZNSt10shared_ptrI14MessageHandlerEC1Ev
	nop
	ldp	x29, x30, [sp], 32
	.cfi_restore 30
	.cfi_restore 29
	.cfi_def_cfa_offset 0
	ret
	.cfi_endproc
.LFE1922:
	.size	_ZN7MessageC2Ei, .-_ZN7MessageC2Ei
	.weak	_ZN7MessageC1Ei
	.set	_ZN7MessageC1Ei,_ZN7MessageC2Ei
	.section	.text._ZNSt6thread2idC2Ev,"axG",@progbits,_ZNSt6thread2idC5Ev,comdat
	.align	2
	.weak	_ZNSt6thread2idC2Ev
	.type	_ZNSt6thread2idC2Ev, %function
_ZNSt6thread2idC2Ev:
.LFB2593:
	.cfi_startproc
	sub	sp, sp, #16
	.cfi_def_cfa_offset 16
	str	x0, [sp, 8]
	ldr	x0, [sp, 8]
	str	xzr, [x0]
	nop
	add	sp, sp, 16
	.cfi_def_cfa_offset 0
	ret
	.cfi_endproc
.LFE2593:
	.size	_ZNSt6thread2idC2Ev, .-_ZNSt6thread2idC2Ev
	.weak	_ZNSt6thread2idC1Ev
	.set	_ZNSt6thread2idC1Ev,_ZNSt6thread2idC2Ev
	.section	.text._ZNSt6threadD2Ev,"axG",@progbits,_ZNSt6threadD5Ev,comdat
	.align	2
	.weak	_ZNSt6threadD2Ev
	.type	_ZNSt6threadD2Ev, %function
_ZNSt6threadD2Ev:
.LFB2600:
	.cfi_startproc
	stp	x29, x30, [sp, -32]!
	.cfi_def_cfa_offset 32
	.cfi_offset 29, -32
	.cfi_offset 30, -24
	mov	x29, sp
	str	x0, [sp, 24]
	ldr	x0, [sp, 24]
	bl	_ZNKSt6thread8joinableEv
	and	w0, w0, 255
	cmp	w0, 0
	beq	.L21
	bl	_ZSt9terminatev
.L21:
	nop
	ldp	x29, x30, [sp], 32
	.cfi_restore 30
	.cfi_restore 29
	.cfi_def_cfa_offset 0
	ret
	.cfi_endproc
.LFE2600:
	.size	_ZNSt6threadD2Ev, .-_ZNSt6threadD2Ev
	.weak	_ZNSt6threadD1Ev
	.set	_ZNSt6threadD1Ev,_ZNSt6threadD2Ev
	.section	.text._ZNKSt6thread8joinableEv,"axG",@progbits,_ZNKSt6thread8joinableEv,comdat
	.align	2
	.weak	_ZNKSt6thread8joinableEv
	.type	_ZNKSt6thread8joinableEv, %function
_ZNKSt6thread8joinableEv:
.LFB2608:
	.cfi_startproc
	stp	x29, x30, [sp, -48]!
	.cfi_def_cfa_offset 48
	.cfi_offset 29, -48
	.cfi_offset 30, -40
	mov	x29, sp
	str	x0, [sp, 24]
	adrp	x0, :got:__stack_chk_guard
	ldr	x0, [x0, #:got_lo12:__stack_chk_guard]
	ldr	x1, [x0]
	str	x1, [sp, 40]
	mov	x1, 0
	add	x0, sp, 32
	bl	_ZNSt6thread2idC1Ev
	ldr	x0, [sp, 24]
	ldr	x1, [sp, 32]
	ldr	x0, [x0]
	bl	_ZSteqNSt6thread2idES0_
	and	w0, w0, 255
	eor	w0, w0, 1
	and	w0, w0, 255
	mov	w1, w0
	adrp	x0, :got:__stack_chk_guard
	ldr	x0, [x0, #:got_lo12:__stack_chk_guard]
	ldr	x3, [sp, 40]
	ldr	x2, [x0]
	subs	x3, x3, x2
	mov	x2, 0
	beq	.L24
	bl	__stack_chk_fail
.L24:
	mov	w0, w1
	ldp	x29, x30, [sp], 48
	.cfi_restore 30
	.cfi_restore 29
	.cfi_def_cfa_offset 0
	ret
	.cfi_endproc
.LFE2608:
	.size	_ZNKSt6thread8joinableEv, .-_ZNKSt6thread8joinableEv
	.section	.text._ZSteqNSt6thread2idES0_,"axG",@progbits,_ZSteqNSt6thread2idES0_,comdat
	.align	2
	.weak	_ZSteqNSt6thread2idES0_
	.type	_ZSteqNSt6thread2idES0_, %function
_ZSteqNSt6thread2idES0_:
.LFB2616:
	.cfi_startproc
	sub	sp, sp, #16
	.cfi_def_cfa_offset 16
	str	x0, [sp, 8]
	str	x1, [sp]
	ldr	x1, [sp, 8]
	ldr	x0, [sp]
	cmp	x1, x0
	cset	w0, eq
	and	w0, w0, 255
	add	sp, sp, 16
	.cfi_def_cfa_offset 0
	ret
	.cfi_endproc
.LFE2616:
	.size	_ZSteqNSt6thread2idES0_, .-_ZSteqNSt6thread2idES0_
	.local	_ZStL8__ioinit
	.comm	_ZStL8__ioinit,1,8
	.global	flags
	.bss
	.align	2
	.type	flags, %object
	.size	flags, 4
flags:
	.zero	4
	.section	.rodata
	.align	3
.LC0:
	.string	"1111 "
	.section	.text._ZN1M13handleMessageERKSt10shared_ptrI7MessageE,"axG",@progbits,_ZN1M13handleMessageERKSt10shared_ptrI7MessageE,comdat
	.align	2
	.weak	_ZN1M13handleMessageERKSt10shared_ptrI7MessageE
	.type	_ZN1M13handleMessageERKSt10shared_ptrI7MessageE, %function
_ZN1M13handleMessageERKSt10shared_ptrI7MessageE:
.LFB4214:
	.cfi_startproc
	stp	x29, x30, [sp, -48]!
	.cfi_def_cfa_offset 48
	.cfi_offset 29, -48
	.cfi_offset 30, -40
	mov	x29, sp
	str	x19, [sp, 16]
	.cfi_offset 19, -32
	str	x0, [sp, 40]
	str	x1, [sp, 32]
	adrp	x0, .LC0
	add	x1, x0, :lo12:.LC0
	adrp	x0, :got:_ZSt4cout
	ldr	x0, [x0, #:got_lo12:_ZSt4cout]
	bl	_ZStlsISt11char_traitsIcEERSt13basic_ostreamIcT_ES5_PKc
	mov	x19, x0
	ldr	x0, [sp, 32]
	bl	_ZNKSt19__shared_ptr_accessI7MessageLN9__gnu_cxx12_Lock_policyE2ELb0ELb0EEptEv
	ldr	w0, [x0, 16]
	mov	w1, w0
	mov	x0, x19
	bl	_ZNSolsEi
	mov	x2, x0
	adrp	x0, :got:_ZSt4endlIcSt11char_traitsIcEERSt13basic_ostreamIT_T0_ES6_
	ldr	x1, [x0, #:got_lo12:_ZSt4endlIcSt11char_traitsIcEERSt13basic_ostreamIT_T0_ES6_]
	mov	x0, x2
	bl	_ZNSolsEPFRSoS_E
	nop
	ldr	x19, [sp, 16]
	ldp	x29, x30, [sp], 48
	.cfi_restore 30
	.cfi_restore 29
	.cfi_restore 19
	.cfi_def_cfa_offset 0
	ret
	.cfi_endproc
.LFE4214:
	.size	_ZN1M13handleMessageERKSt10shared_ptrI7MessageE, .-_ZN1M13handleMessageERKSt10shared_ptrI7MessageE
	.section	.rodata
	.align	3
.LC1:
	.string	"fifo_read called with fd: %d, event: %d, arg: %p\n"
	.align	3
.LC2:
	.string	"EV_READ "
	.section	.text._ZN9FdHandler11handleEventEisPv,"axG",@progbits,_ZN9FdHandler11handleEventEisPv,comdat
	.align	2
	.weak	_ZN9FdHandler11handleEventEisPv
	.type	_ZN9FdHandler11handleEventEisPv, %function
_ZN9FdHandler11handleEventEisPv:
.LFB4215:
	.cfi_startproc
	sub	sp, sp, #1088
	.cfi_def_cfa_offset 1088
	stp	x29, x30, [sp]
	.cfi_offset 29, -1088
	.cfi_offset 30, -1080
	mov	x29, sp
	str	x0, [sp, 40]
	str	w1, [sp, 36]
	strh	w2, [sp, 34]
	str	x3, [sp, 24]
	adrp	x0, :got:__stack_chk_guard
	ldr	x0, [x0, #:got_lo12:__stack_chk_guard]
	ldr	x1, [x0]
	str	x1, [sp, 1080]
	mov	x1, 0
	ldrh	w0, [sp, 34]
	and	w0, w0, 2
	cmp	w0, 0
	beq	.L29
	adrp	x0, :got:stderr
	ldr	x0, [x0, #:got_lo12:stderr]
	ldr	x5, [x0]
	ldrsh	w0, [sp, 34]
	ldr	x4, [sp, 24]
	mov	w3, w0
	ldr	w2, [sp, 36]
	adrp	x0, .LC1
	add	x1, x0, :lo12:.LC1
	mov	x0, x5
	bl	fprintf
	stp	xzr, xzr, [sp, 56]
	add	x0, sp, 72
	mov	x1, 1008
	mov	x2, x1
	mov	w1, 0
	bl	memset
	add	x0, sp, 56
	mov	x2, 1023
	mov	x1, x0
	ldr	w0, [sp, 36]
	bl	read
	str	w0, [sp, 52]
	ldrsw	x0, [sp, 52]
	add	x1, sp, 56
	strb	wzr, [x1, x0]
	adrp	x0, .LC2
	add	x1, x0, :lo12:.LC2
	adrp	x0, :got:_ZSt4cout
	ldr	x0, [x0, #:got_lo12:_ZSt4cout]
	bl	_ZStlsISt11char_traitsIcEERSt13basic_ostreamIcT_ES5_PKc
	mov	x2, x0
	add	x0, sp, 56
	mov	x1, x0
	mov	x0, x2
	bl	_ZStlsISt11char_traitsIcEERSt13basic_ostreamIcT_ES5_PKc
	mov	x2, x0
	adrp	x0, :got:_ZSt4endlIcSt11char_traitsIcEERSt13basic_ostreamIT_T0_ES6_
	ldr	x1, [x0, #:got_lo12:_ZSt4endlIcSt11char_traitsIcEERSt13basic_ostreamIT_T0_ES6_]
	mov	x0, x2
	bl	_ZNSolsEPFRSoS_E
.L29:
	ldrh	w1, [sp, 34]
	adrp	x0, :got:_ZSt4cout
	ldr	x0, [x0, #:got_lo12:_ZSt4cout]
	bl	_ZNSolsEs
	mov	x2, x0
	adrp	x0, :got:_ZSt4endlIcSt11char_traitsIcEERSt13basic_ostreamIT_T0_ES6_
	ldr	x1, [x0, #:got_lo12:_ZSt4endlIcSt11char_traitsIcEERSt13basic_ostreamIT_T0_ES6_]
	mov	x0, x2
	bl	_ZNSolsEPFRSoS_E
	mov	w0, 1
	mov	w1, w0
	adrp	x0, :got:__stack_chk_guard
	ldr	x0, [x0, #:got_lo12:__stack_chk_guard]
	ldr	x3, [sp, 1080]
	ldr	x2, [x0]
	subs	x3, x3, x2
	mov	x2, 0
	beq	.L31
	bl	__stack_chk_fail
.L31:
	mov	w0, w1
	ldp	x29, x30, [sp]
	add	sp, sp, 1088
	.cfi_restore 29
	.cfi_restore 30
	.cfi_def_cfa_offset 0
	ret
	.cfi_endproc
.LFE4215:
	.size	_ZN9FdHandler11handleEventEisPv, .-_ZN9FdHandler11handleEventEisPv
	.section	.text._ZNSt12__shared_ptrI1MLN9__gnu_cxx12_Lock_policyE2EED2Ev,"axG",@progbits,_ZNSt12__shared_ptrI1MLN9__gnu_cxx12_Lock_policyE2EED5Ev,comdat
	.align	2
	.weak	_ZNSt12__shared_ptrI1MLN9__gnu_cxx12_Lock_policyE2EED2Ev
	.type	_ZNSt12__shared_ptrI1MLN9__gnu_cxx12_Lock_policyE2EED2Ev, %function
_ZNSt12__shared_ptrI1MLN9__gnu_cxx12_Lock_policyE2EED2Ev:
.LFB4226:
	.cfi_startproc
	stp	x29, x30, [sp, -32]!
	.cfi_def_cfa_offset 32
	.cfi_offset 29, -32
	.cfi_offset 30, -24
	mov	x29, sp
	str	x0, [sp, 24]
	ldr	x0, [sp, 24]
	add	x0, x0, 8
	bl	_ZNSt14__shared_countILN9__gnu_cxx12_Lock_policyE2EED1Ev
	nop
	ldp	x29, x30, [sp], 32
	.cfi_restore 30
	.cfi_restore 29
	.cfi_def_cfa_offset 0
	ret
	.cfi_endproc
.LFE4226:
	.size	_ZNSt12__shared_ptrI1MLN9__gnu_cxx12_Lock_policyE2EED2Ev, .-_ZNSt12__shared_ptrI1MLN9__gnu_cxx12_Lock_policyE2EED2Ev
	.weak	_ZNSt12__shared_ptrI1MLN9__gnu_cxx12_Lock_policyE2EED1Ev
	.set	_ZNSt12__shared_ptrI1MLN9__gnu_cxx12_Lock_policyE2EED1Ev,_ZNSt12__shared_ptrI1MLN9__gnu_cxx12_Lock_policyE2EED2Ev
	.section	.text._ZNSt10shared_ptrI1MED2Ev,"axG",@progbits,_ZNSt10shared_ptrI1MED5Ev,comdat
	.align	2
	.weak	_ZNSt10shared_ptrI1MED2Ev
	.type	_ZNSt10shared_ptrI1MED2Ev, %function
_ZNSt10shared_ptrI1MED2Ev:
.LFB4228:
	.cfi_startproc
	stp	x29, x30, [sp, -32]!
	.cfi_def_cfa_offset 32
	.cfi_offset 29, -32
	.cfi_offset 30, -24
	mov	x29, sp
	str	x0, [sp, 24]
	ldr	x0, [sp, 24]
	bl	_ZNSt12__shared_ptrI1MLN9__gnu_cxx12_Lock_policyE2EED2Ev
	nop
	ldp	x29, x30, [sp], 32
	.cfi_restore 30
	.cfi_restore 29
	.cfi_def_cfa_offset 0
	ret
	.cfi_endproc
.LFE4228:
	.size	_ZNSt10shared_ptrI1MED2Ev, .-_ZNSt10shared_ptrI1MED2Ev
	.weak	_ZNSt10shared_ptrI1MED1Ev
	.set	_ZNSt10shared_ptrI1MED1Ev,_ZNSt10shared_ptrI1MED2Ev
	.text
	.align	2
	.type	_ZZ4mainENKUlvE_clEv, %function
_ZZ4mainENKUlvE_clEv:
.LFB4230:
	.cfi_startproc
	stp	x29, x30, [sp, -32]!
	.cfi_def_cfa_offset 32
	.cfi_offset 29, -32
	.cfi_offset 30, -24
	mov	x29, sp
	str	x0, [sp, 24]
	b	.L35
.L36:
	ldr	x0, [sp, 24]
	ldr	x0, [x0, 8]
	bl	_ZNKSt19__shared_ptr_accessI6LooperLN9__gnu_cxx12_Lock_policyE2ELb0ELb0EEptEv
	bl	_ZN6Looper8pollOnceEv
.L35:
	ldr	x0, [sp, 24]
	ldr	x0, [x0]
	ldrb	w0, [x0]
	eor	w0, w0, 1
	and	w0, w0, 255
	cmp	w0, 0
	bne	.L36
	nop
	nop
	ldp	x29, x30, [sp], 32
	.cfi_restore 30
	.cfi_restore 29
	.cfi_def_cfa_offset 0
	ret
	.cfi_endproc
.LFE4230:
	.size	_ZZ4mainENKUlvE_clEv, .-_ZZ4mainENKUlvE_clEv
	.section	.text._ZNSt12__shared_ptrI7MessageLN9__gnu_cxx12_Lock_policyE2EED2Ev,"axG",@progbits,_ZNSt12__shared_ptrI7MessageLN9__gnu_cxx12_Lock_policyE2EED5Ev,comdat
	.align	2
	.weak	_ZNSt12__shared_ptrI7MessageLN9__gnu_cxx12_Lock_policyE2EED2Ev
	.type	_ZNSt12__shared_ptrI7MessageLN9__gnu_cxx12_Lock_policyE2EED2Ev, %function
_ZNSt12__shared_ptrI7MessageLN9__gnu_cxx12_Lock_policyE2EED2Ev:
.LFB4233:
	.cfi_startproc
	stp	x29, x30, [sp, -32]!
	.cfi_def_cfa_offset 32
	.cfi_offset 29, -32
	.cfi_offset 30, -24
	mov	x29, sp
	str	x0, [sp, 24]
	ldr	x0, [sp, 24]
	add	x0, x0, 8
	bl	_ZNSt14__shared_countILN9__gnu_cxx12_Lock_policyE2EED1Ev
	nop
	ldp	x29, x30, [sp], 32
	.cfi_restore 30
	.cfi_restore 29
	.cfi_def_cfa_offset 0
	ret
	.cfi_endproc
.LFE4233:
	.size	_ZNSt12__shared_ptrI7MessageLN9__gnu_cxx12_Lock_policyE2EED2Ev, .-_ZNSt12__shared_ptrI7MessageLN9__gnu_cxx12_Lock_policyE2EED2Ev
	.weak	_ZNSt12__shared_ptrI7MessageLN9__gnu_cxx12_Lock_policyE2EED1Ev
	.set	_ZNSt12__shared_ptrI7MessageLN9__gnu_cxx12_Lock_policyE2EED1Ev,_ZNSt12__shared_ptrI7MessageLN9__gnu_cxx12_Lock_policyE2EED2Ev
	.section	.text._ZNSt10shared_ptrI7MessageED2Ev,"axG",@progbits,_ZNSt10shared_ptrI7MessageED5Ev,comdat
	.align	2
	.weak	_ZNSt10shared_ptrI7MessageED2Ev
	.type	_ZNSt10shared_ptrI7MessageED2Ev, %function
_ZNSt10shared_ptrI7MessageED2Ev:
.LFB4235:
	.cfi_startproc
	stp	x29, x30, [sp, -32]!
	.cfi_def_cfa_offset 32
	.cfi_offset 29, -32
	.cfi_offset 30, -24
	mov	x29, sp
	str	x0, [sp, 24]
	ldr	x0, [sp, 24]
	bl	_ZNSt12__shared_ptrI7MessageLN9__gnu_cxx12_Lock_policyE2EED2Ev
	nop
	ldp	x29, x30, [sp], 32
	.cfi_restore 30
	.cfi_restore 29
	.cfi_def_cfa_offset 0
	ret
	.cfi_endproc
.LFE4235:
	.size	_ZNSt10shared_ptrI7MessageED2Ev, .-_ZNSt10shared_ptrI7MessageED2Ev
	.weak	_ZNSt10shared_ptrI7MessageED1Ev
	.set	_ZNSt10shared_ptrI7MessageED1Ev,_ZNSt10shared_ptrI7MessageED2Ev
	.section	.text._ZNSt12__shared_ptrI9FdHandlerLN9__gnu_cxx12_Lock_policyE2EED2Ev,"axG",@progbits,_ZNSt12__shared_ptrI9FdHandlerLN9__gnu_cxx12_Lock_policyE2EED5Ev,comdat
	.align	2
	.weak	_ZNSt12__shared_ptrI9FdHandlerLN9__gnu_cxx12_Lock_policyE2EED2Ev
	.type	_ZNSt12__shared_ptrI9FdHandlerLN9__gnu_cxx12_Lock_policyE2EED2Ev, %function
_ZNSt12__shared_ptrI9FdHandlerLN9__gnu_cxx12_Lock_policyE2EED2Ev:
.LFB4240:
	.cfi_startproc
	stp	x29, x30, [sp, -32]!
	.cfi_def_cfa_offset 32
	.cfi_offset 29, -32
	.cfi_offset 30, -24
	mov	x29, sp
	str	x0, [sp, 24]
	ldr	x0, [sp, 24]
	add	x0, x0, 8
	bl	_ZNSt14__shared_countILN9__gnu_cxx12_Lock_policyE2EED1Ev
	nop
	ldp	x29, x30, [sp], 32
	.cfi_restore 30
	.cfi_restore 29
	.cfi_def_cfa_offset 0
	ret
	.cfi_endproc
.LFE4240:
	.size	_ZNSt12__shared_ptrI9FdHandlerLN9__gnu_cxx12_Lock_policyE2EED2Ev, .-_ZNSt12__shared_ptrI9FdHandlerLN9__gnu_cxx12_Lock_policyE2EED2Ev
	.weak	_ZNSt12__shared_ptrI9FdHandlerLN9__gnu_cxx12_Lock_policyE2EED1Ev
	.set	_ZNSt12__shared_ptrI9FdHandlerLN9__gnu_cxx12_Lock_policyE2EED1Ev,_ZNSt12__shared_ptrI9FdHandlerLN9__gnu_cxx12_Lock_policyE2EED2Ev
	.section	.text._ZNSt10shared_ptrI9FdHandlerED2Ev,"axG",@progbits,_ZNSt10shared_ptrI9FdHandlerED5Ev,comdat
	.align	2
	.weak	_ZNSt10shared_ptrI9FdHandlerED2Ev
	.type	_ZNSt10shared_ptrI9FdHandlerED2Ev, %function
_ZNSt10shared_ptrI9FdHandlerED2Ev:
.LFB4242:
	.cfi_startproc
	stp	x29, x30, [sp, -32]!
	.cfi_def_cfa_offset 32
	.cfi_offset 29, -32
	.cfi_offset 30, -24
	mov	x29, sp
	str	x0, [sp, 24]
	ldr	x0, [sp, 24]
	bl	_ZNSt12__shared_ptrI9FdHandlerLN9__gnu_cxx12_Lock_policyE2EED2Ev
	nop
	ldp	x29, x30, [sp], 32
	.cfi_restore 30
	.cfi_restore 29
	.cfi_def_cfa_offset 0
	ret
	.cfi_endproc
.LFE4242:
	.size	_ZNSt10shared_ptrI9FdHandlerED2Ev, .-_ZNSt10shared_ptrI9FdHandlerED2Ev
	.weak	_ZNSt10shared_ptrI9FdHandlerED1Ev
	.set	_ZNSt10shared_ptrI9FdHandlerED1Ev,_ZNSt10shared_ptrI9FdHandlerED2Ev
	.section	.text._ZNSt12__shared_ptrI14LooperCallbackLN9__gnu_cxx12_Lock_policyE2EED2Ev,"axG",@progbits,_ZNSt12__shared_ptrI14LooperCallbackLN9__gnu_cxx12_Lock_policyE2EED5Ev,comdat
	.align	2
	.weak	_ZNSt12__shared_ptrI14LooperCallbackLN9__gnu_cxx12_Lock_policyE2EED2Ev
	.type	_ZNSt12__shared_ptrI14LooperCallbackLN9__gnu_cxx12_Lock_policyE2EED2Ev, %function
_ZNSt12__shared_ptrI14LooperCallbackLN9__gnu_cxx12_Lock_policyE2EED2Ev:
.LFB4247:
	.cfi_startproc
	stp	x29, x30, [sp, -32]!
	.cfi_def_cfa_offset 32
	.cfi_offset 29, -32
	.cfi_offset 30, -24
	mov	x29, sp
	str	x0, [sp, 24]
	ldr	x0, [sp, 24]
	add	x0, x0, 8
	bl	_ZNSt14__shared_countILN9__gnu_cxx12_Lock_policyE2EED1Ev
	nop
	ldp	x29, x30, [sp], 32
	.cfi_restore 30
	.cfi_restore 29
	.cfi_def_cfa_offset 0
	ret
	.cfi_endproc
.LFE4247:
	.size	_ZNSt12__shared_ptrI14LooperCallbackLN9__gnu_cxx12_Lock_policyE2EED2Ev, .-_ZNSt12__shared_ptrI14LooperCallbackLN9__gnu_cxx12_Lock_policyE2EED2Ev
	.weak	_ZNSt12__shared_ptrI14LooperCallbackLN9__gnu_cxx12_Lock_policyE2EED1Ev
	.set	_ZNSt12__shared_ptrI14LooperCallbackLN9__gnu_cxx12_Lock_policyE2EED1Ev,_ZNSt12__shared_ptrI14LooperCallbackLN9__gnu_cxx12_Lock_policyE2EED2Ev
	.section	.text._ZNSt10shared_ptrI14LooperCallbackED2Ev,"axG",@progbits,_ZNSt10shared_ptrI14LooperCallbackED5Ev,comdat
	.align	2
	.weak	_ZNSt10shared_ptrI14LooperCallbackED2Ev
	.type	_ZNSt10shared_ptrI14LooperCallbackED2Ev, %function
_ZNSt10shared_ptrI14LooperCallbackED2Ev:
.LFB4249:
	.cfi_startproc
	stp	x29, x30, [sp, -32]!
	.cfi_def_cfa_offset 32
	.cfi_offset 29, -32
	.cfi_offset 30, -24
	mov	x29, sp
	str	x0, [sp, 24]
	ldr	x0, [sp, 24]
	bl	_ZNSt12__shared_ptrI14LooperCallbackLN9__gnu_cxx12_Lock_policyE2EED2Ev
	nop
	ldp	x29, x30, [sp], 32
	.cfi_restore 30
	.cfi_restore 29
	.cfi_def_cfa_offset 0
	ret
	.cfi_endproc
.LFE4249:
	.size	_ZNSt10shared_ptrI14LooperCallbackED2Ev, .-_ZNSt10shared_ptrI14LooperCallbackED2Ev
	.weak	_ZNSt10shared_ptrI14LooperCallbackED1Ev
	.set	_ZNSt10shared_ptrI14LooperCallbackED1Ev,_ZNSt10shared_ptrI14LooperCallbackED2Ev
	.section	.rodata
	.align	3
.LC3:
	.string	"testf"
	.align	3
.LC4:
	.string	"mkfifo"
	.align	3
.LC5:
	.string	"open"
	.align	3
.LC6:
	.string	"Write data to \"testf\"\n"
	.text
	.align	2
	.global	main
	.type	main, %function
main:
.LFB4216:
	.cfi_startproc
	.cfi_personality 0x9b,DW.ref.__gxx_personality_v0
	.cfi_lsda 0x1b,.LLSDA4216
	stp	x29, x30, [sp, -160]!
	.cfi_def_cfa_offset 160
	.cfi_offset 29, -160
	.cfi_offset 30, -152
	mov	x29, sp
	stp	x19, x20, [sp, 16]
	.cfi_offset 19, -144
	.cfi_offset 20, -136
	str	w0, [sp, 44]
	str	x1, [sp, 32]
	adrp	x0, :got:__stack_chk_guard
	ldr	x0, [x0, #:got_lo12:__stack_chk_guard]
	ldr	x1, [x0]
	str	x1, [sp, 152]
	mov	x1, 0
	str	xzr, [sp, 64]
	add	x0, sp, 64
.LEHB0:
	bl	_ZN5Timer5startEv
	adrp	x0, .LC3
	add	x0, x0, :lo12:.LC3
	bl	unlink
	mov	w1, 438
	adrp	x0, .LC3
	add	x0, x0, :lo12:.LC3
	bl	mkfifo
	str	w0, [sp, 56]
	adrp	x0, .LC4
	add	x0, x0, :lo12:.LC4
	bl	perror
	mov	w1, 2050
	adrp	x0, .LC3
	add	x0, x0, :lo12:.LC3
	bl	open
	str	w0, [sp, 60]
	ldr	w0, [sp, 60]
	cmn	w0, #1
	bne	.L44
	adrp	x0, .LC5
	add	x0, x0, :lo12:.LC5
	bl	perror
	mov	w0, 1
	bl	exit
.L44:
	adrp	x0, :got:stderr
	ldr	x0, [x0, #:got_lo12:stderr]
	ldr	x0, [x0]
	mov	x3, x0
	mov	x2, 22
	mov	x1, 1
	adrp	x0, .LC6
	add	x0, x0, :lo12:.LC6
	bl	fwrite
	ldr	w1, [sp, 60]
	adrp	x0, :got:_ZSt4cout
	ldr	x0, [x0, #:got_lo12:_ZSt4cout]
	bl	_ZNSolsEi
	mov	x2, x0
	adrp	x0, :got:_ZSt4endlIcSt11char_traitsIcEERSt13basic_ostreamIT_T0_ES6_
	ldr	x1, [x0, #:got_lo12:_ZSt4endlIcSt11char_traitsIcEERSt13basic_ostreamIT_T0_ES6_]
	mov	x0, x2
	bl	_ZNSolsEPFRSoS_E
	add	x0, sp, 88
	mov	x8, x0
	bl	_ZSt11make_sharedI6LooperJEESt10shared_ptrIT_EDpOT0_
.LEHE0:
	add	x0, sp, 104
	mov	x8, x0
.LEHB1:
	bl	_ZSt11make_sharedI1MJEESt10shared_ptrIT_EDpOT0_
.LEHE1:
	strb	wzr, [sp, 51]
	add	x0, sp, 51
	str	x0, [sp, 136]
	add	x0, sp, 88
	str	x0, [sp, 144]
	add	x1, sp, 136
	add	x0, sp, 72
.LEHB2:
	bl	_ZNSt6threadC1IZ4mainEUlvE_JEvEEOT_DpOT0_
.LEHE2:
	add	x0, sp, 88
	bl	_ZNKSt19__shared_ptr_accessI6LooperLN9__gnu_cxx12_Lock_policyE2ELb0ELb0EEptEv
	mov	x19, x0
	add	x1, sp, 104
	add	x0, sp, 136
	bl	_ZNSt10shared_ptrI14MessageHandlerEC1I1MvEERKS_IT_E
	mov	w0, 2
	str	w0, [sp, 80]
	add	x0, sp, 80
	add	x1, sp, 120
	mov	x8, x1
.LEHB3:
	bl	_ZSt11make_sharedI7MessageJiEESt10shared_ptrIT_EDpOT0_
.LEHE3:
	add	x1, sp, 120
	add	x0, sp, 136
	mov	x2, x1
	mov	x1, x0
	mov	x0, x19
.LEHB4:
	bl	_ZN6Looper11sendMessageERKSt10shared_ptrI14MessageHandlerERKS0_I7MessageE
.LEHE4:
	add	x0, sp, 120
	bl	_ZNSt10shared_ptrI7MessageED1Ev
	add	x0, sp, 136
	bl	_ZNSt10shared_ptrI14MessageHandlerED1Ev
	add	x0, sp, 88
	bl	_ZNKSt19__shared_ptr_accessI6LooperLN9__gnu_cxx12_Lock_policyE2ELb0ELb0EEptEv
	mov	x19, x0
.LEHB5:
	bl	_ZNSt8literals15chrono_literalsli1sIJLc49EEEENSt6chrono8durationIlSt5ratioILl1ELl1EEEEv
	str	x0, [sp, 80]
	add	x0, sp, 80
	bl	_ZNSt6chrono13duration_castINS_8durationIlSt5ratioILl1ELl1000000000EEEElS2_ILl1ELl1EEEENSt9enable_ifIXsrNS_13__is_durationIT_EE5valueES8_E4typeERKNS1_IT0_T1_EE
.LEHE5:
	mov	x20, x0
	add	x1, sp, 104
	add	x0, sp, 136
	bl	_ZNSt10shared_ptrI14MessageHandlerEC1I1MvEERKS_IT_E
	mov	w0, 3425
	str	w0, [sp, 52]
	add	x0, sp, 52
	add	x1, sp, 120
	mov	x8, x1
.LEHB6:
	bl	_ZSt11make_sharedI7MessageJiEESt10shared_ptrIT_EDpOT0_
.LEHE6:
	add	x1, sp, 120
	add	x0, sp, 136
	mov	x3, x1
	mov	x2, x0
	mov	x1, x20
	mov	x0, x19
.LEHB7:
	bl	_ZN6Looper16sendMessageDelayENSt6chrono8durationIlSt5ratioILl1ELl1000000000EEEERKSt10shared_ptrI14MessageHandlerERKS5_I7MessageE
.LEHE7:
	add	x0, sp, 120
	bl	_ZNSt10shared_ptrI7MessageED1Ev
	add	x0, sp, 136
	bl	_ZNSt10shared_ptrI14MessageHandlerED1Ev
	add	x0, sp, 136
	mov	x8, x0
.LEHB8:
	bl	_ZSt11make_sharedI9FdHandlerJEESt10shared_ptrIT_EDpOT0_
.LEHE8:
	add	x1, sp, 136
	add	x0, sp, 120
	bl	_ZNSt10shared_ptrI14LooperCallbackEC1I9FdHandlervEEOS_IT_E
	add	x0, sp, 136
	bl	_ZNSt10shared_ptrI9FdHandlerED1Ev
	add	x0, sp, 88
	bl	_ZNKSt19__shared_ptr_accessI6LooperLN9__gnu_cxx12_Lock_policyE2ELb0ELb0EEptEv
	mov	x4, x0
	add	x0, sp, 120
	mov	w3, 18
	mov	x2, x0
	ldr	w1, [sp, 60]
	mov	x0, x4
.LEHB9:
	bl	_ZN6Looper5addFdEiRSt10shared_ptrI14LooperCallbackEs
	mov	w0, 2
	bl	sleep
	add	x0, sp, 88
	bl	_ZNKSt19__shared_ptr_accessI6LooperLN9__gnu_cxx12_Lock_policyE2ELb0ELb0EEptEv
	ldr	w1, [sp, 60]
	bl	_ZN6Looper8removeFdEi
	adrp	x0, .LC3
	add	x0, x0, :lo12:.LC3
	bl	unlink
	mov	w0, 1
	strb	w0, [sp, 51]
	add	x0, sp, 88
	bl	_ZNKSt19__shared_ptr_accessI6LooperLN9__gnu_cxx12_Lock_policyE2ELb0ELb0EEptEv
	bl	_ZN6Looper4exitEv
	add	x0, sp, 72
	bl	_ZNSt6thread4joinEv
	add	x0, sp, 64
	bl	_ZN5Timer3endEv
.LEHE9:
	mov	w19, 0
	add	x0, sp, 120
	bl	_ZNSt10shared_ptrI14LooperCallbackED1Ev
	add	x0, sp, 72
	bl	_ZNSt6threadD1Ev
	add	x0, sp, 104
	bl	_ZNSt10shared_ptrI1MED1Ev
	add	x0, sp, 88
	bl	_ZNSt10shared_ptrI6LooperED1Ev
	mov	w1, w19
	adrp	x0, :got:__stack_chk_guard
	ldr	x0, [x0, #:got_lo12:__stack_chk_guard]
	ldr	x3, [sp, 152]
	ldr	x2, [x0]
	subs	x3, x3, x2
	mov	x2, 0
	beq	.L54
	b	.L63
.L58:
	mov	x19, x0
	add	x0, sp, 120
	bl	_ZNSt10shared_ptrI7MessageED1Ev
	b	.L47
.L57:
	mov	x19, x0
.L47:
	add	x0, sp, 136
	bl	_ZNSt10shared_ptrI14MessageHandlerED1Ev
	b	.L48
.L61:
	mov	x19, x0
	add	x0, sp, 120
	bl	_ZNSt10shared_ptrI7MessageED1Ev
	b	.L50
.L60:
	mov	x19, x0
.L50:
	add	x0, sp, 136
	bl	_ZNSt10shared_ptrI14MessageHandlerED1Ev
	b	.L48
.L62:
	mov	x19, x0
	add	x0, sp, 120
	bl	_ZNSt10shared_ptrI14LooperCallbackED1Ev
	b	.L48
.L59:
	mov	x19, x0
.L48:
	add	x0, sp, 72
	bl	_ZNSt6threadD1Ev
	b	.L52
.L56:
	mov	x19, x0
.L52:
	add	x0, sp, 104
	bl	_ZNSt10shared_ptrI1MED1Ev
	b	.L53
.L55:
	mov	x19, x0
.L53:
	add	x0, sp, 88
	bl	_ZNSt10shared_ptrI6LooperED1Ev
	mov	x0, x19
.LEHB10:
	bl	_Unwind_Resume
.LEHE10:
.L63:
	bl	__stack_chk_fail
.L54:
	mov	w0, w1
	ldp	x19, x20, [sp, 16]
	ldp	x29, x30, [sp], 160
	.cfi_restore 30
	.cfi_restore 29
	.cfi_restore 19
	.cfi_restore 20
	.cfi_def_cfa_offset 0
	ret
	.cfi_endproc
.LFE4216:
	.global	__gxx_personality_v0
	.section	.gcc_except_table,"a",@progbits
.LLSDA4216:
	.byte	0xff
	.byte	0xff
	.byte	0x1
	.uleb128 .LLSDACSE4216-.LLSDACSB4216
.LLSDACSB4216:
	.uleb128 .LEHB0-.LFB4216
	.uleb128 .LEHE0-.LEHB0
	.uleb128 0
	.uleb128 0
	.uleb128 .LEHB1-.LFB4216
	.uleb128 .LEHE1-.LEHB1
	.uleb128 .L55-.LFB4216
	.uleb128 0
	.uleb128 .LEHB2-.LFB4216
	.uleb128 .LEHE2-.LEHB2
	.uleb128 .L56-.LFB4216
	.uleb128 0
	.uleb128 .LEHB3-.LFB4216
	.uleb128 .LEHE3-.LEHB3
	.uleb128 .L57-.LFB4216
	.uleb128 0
	.uleb128 .LEHB4-.LFB4216
	.uleb128 .LEHE4-.LEHB4
	.uleb128 .L58-.LFB4216
	.uleb128 0
	.uleb128 .LEHB5-.LFB4216
	.uleb128 .LEHE5-.LEHB5
	.uleb128 .L59-.LFB4216
	.uleb128 0
	.uleb128 .LEHB6-.LFB4216
	.uleb128 .LEHE6-.LEHB6
	.uleb128 .L60-.LFB4216
	.uleb128 0
	.uleb128 .LEHB7-.LFB4216
	.uleb128 .LEHE7-.LEHB7
	.uleb128 .L61-.LFB4216
	.uleb128 0
	.uleb128 .LEHB8-.LFB4216
	.uleb128 .LEHE8-.LEHB8
	.uleb128 .L59-.LFB4216
	.uleb128 0
	.uleb128 .LEHB9-.LFB4216
	.uleb128 .LEHE9-.LEHB9
	.uleb128 .L62-.LFB4216
	.uleb128 0
	.uleb128 .LEHB10-.LFB4216
	.uleb128 .LEHE10-.LEHB10
	.uleb128 0
	.uleb128 0
.LLSDACSE4216:
	.text
	.size	main, .-main
	.section	.text._ZNKSt16_Sp_counted_baseILN9__gnu_cxx12_Lock_policyE2EE16_M_get_use_countEv,"axG",@progbits,_ZNKSt16_Sp_counted_baseILN9__gnu_cxx12_Lock_policyE2EE16_M_get_use_countEv,comdat
	.align	2
	.weak	_ZNKSt16_Sp_counted_baseILN9__gnu_cxx12_Lock_policyE2EE16_M_get_use_countEv
	.type	_ZNKSt16_Sp_counted_baseILN9__gnu_cxx12_Lock_policyE2EE16_M_get_use_countEv, %function
_ZNKSt16_Sp_counted_baseILN9__gnu_cxx12_Lock_policyE2EE16_M_get_use_countEv:
.LFB4253:
	.cfi_startproc
	sub	sp, sp, #16
	.cfi_def_cfa_offset 16
	str	x0, [sp, 8]
	ldr	x0, [sp, 8]
	add	x0, x0, 8
	ldr	w0, [x0]
	sxtw	x0, w0
	add	sp, sp, 16
	.cfi_def_cfa_offset 0
	ret
	.cfi_endproc
.LFE4253:
	.size	_ZNKSt16_Sp_counted_baseILN9__gnu_cxx12_Lock_policyE2EE16_M_get_use_countEv, .-_ZNKSt16_Sp_counted_baseILN9__gnu_cxx12_Lock_policyE2EE16_M_get_use_countEv
	.section	.text._ZNKSt6chrono8durationIlSt5ratioILl1ELl1EEE5countEv,"axG",@progbits,_ZNKSt6chrono8durationIlSt5ratioILl1ELl1EEE5countEv,comdat
	.align	2
	.weak	_ZNKSt6chrono8durationIlSt5ratioILl1ELl1EEE5countEv
	.type	_ZNKSt6chrono8durationIlSt5ratioILl1ELl1EEE5countEv, %function
_ZNKSt6chrono8durationIlSt5ratioILl1ELl1EEE5countEv:
.LFB4257:
	.cfi_startproc
	sub	sp, sp, #16
	.cfi_def_cfa_offset 16
	str	x0, [sp, 8]
	ldr	x0, [sp, 8]
	ldr	x0, [x0]
	add	sp, sp, 16
	.cfi_def_cfa_offset 0
	ret
	.cfi_endproc
.LFE4257:
	.size	_ZNKSt6chrono8durationIlSt5ratioILl1ELl1EEE5countEv, .-_ZNKSt6chrono8durationIlSt5ratioILl1ELl1EEE5countEv
	.section	.text._ZNSt10__weak_ptrI7MessageLN9__gnu_cxx12_Lock_policyE2EED2Ev,"axG",@progbits,_ZNSt10__weak_ptrI7MessageLN9__gnu_cxx12_Lock_policyE2EED5Ev,comdat
	.align	2
	.weak	_ZNSt10__weak_ptrI7MessageLN9__gnu_cxx12_Lock_policyE2EED2Ev
	.type	_ZNSt10__weak_ptrI7MessageLN9__gnu_cxx12_Lock_policyE2EED2Ev, %function
_ZNSt10__weak_ptrI7MessageLN9__gnu_cxx12_Lock_policyE2EED2Ev:
.LFB4284:
	.cfi_startproc
	stp	x29, x30, [sp, -32]!
	.cfi_def_cfa_offset 32
	.cfi_offset 29, -32
	.cfi_offset 30, -24
	mov	x29, sp
	str	x0, [sp, 24]
	ldr	x0, [sp, 24]
	add	x0, x0, 8
	bl	_ZNSt12__weak_countILN9__gnu_cxx12_Lock_policyE2EED1Ev
	nop
	ldp	x29, x30, [sp], 32
	.cfi_restore 30
	.cfi_restore 29
	.cfi_def_cfa_offset 0
	ret
	.cfi_endproc
.LFE4284:
	.size	_ZNSt10__weak_ptrI7MessageLN9__gnu_cxx12_Lock_policyE2EED2Ev, .-_ZNSt10__weak_ptrI7MessageLN9__gnu_cxx12_Lock_policyE2EED2Ev
	.weak	_ZNSt10__weak_ptrI7MessageLN9__gnu_cxx12_Lock_policyE2EED1Ev
	.set	_ZNSt10__weak_ptrI7MessageLN9__gnu_cxx12_Lock_policyE2EED1Ev,_ZNSt10__weak_ptrI7MessageLN9__gnu_cxx12_Lock_policyE2EED2Ev
	.section	.text._ZNSt8weak_ptrI7MessageEC2Ev,"axG",@progbits,_ZNSt8weak_ptrI7MessageEC5Ev,comdat
	.align	2
	.weak	_ZNSt8weak_ptrI7MessageEC2Ev
	.type	_ZNSt8weak_ptrI7MessageEC2Ev, %function
_ZNSt8weak_ptrI7MessageEC2Ev:
.LFB4286:
	.cfi_startproc
	stp	x29, x30, [sp, -32]!
	.cfi_def_cfa_offset 32
	.cfi_offset 29, -32
	.cfi_offset 30, -24
	mov	x29, sp
	str	x0, [sp, 24]
	ldr	x0, [sp, 24]
	bl	_ZNSt10__weak_ptrI7MessageLN9__gnu_cxx12_Lock_policyE2EEC2Ev
	nop
	ldp	x29, x30, [sp], 32
	.cfi_restore 30
	.cfi_restore 29
	.cfi_def_cfa_offset 0
	ret
	.cfi_endproc
.LFE4286:
	.size	_ZNSt8weak_ptrI7MessageEC2Ev, .-_ZNSt8weak_ptrI7MessageEC2Ev
	.weak	_ZNSt8weak_ptrI7MessageEC1Ev
	.set	_ZNSt8weak_ptrI7MessageEC1Ev,_ZNSt8weak_ptrI7MessageEC2Ev
	.section	.text._ZNSt8weak_ptrI7MessageED2Ev,"axG",@progbits,_ZNSt8weak_ptrI7MessageED5Ev,comdat
	.align	2
	.weak	_ZNSt8weak_ptrI7MessageED2Ev
	.type	_ZNSt8weak_ptrI7MessageED2Ev, %function
_ZNSt8weak_ptrI7MessageED2Ev:
.LFB4289:
	.cfi_startproc
	stp	x29, x30, [sp, -32]!
	.cfi_def_cfa_offset 32
	.cfi_offset 29, -32
	.cfi_offset 30, -24
	mov	x29, sp
	str	x0, [sp, 24]
	ldr	x0, [sp, 24]
	bl	_ZNSt10__weak_ptrI7MessageLN9__gnu_cxx12_Lock_policyE2EED2Ev
	nop
	ldp	x29, x30, [sp], 32
	.cfi_restore 30
	.cfi_restore 29
	.cfi_def_cfa_offset 0
	ret
	.cfi_endproc
.LFE4289:
	.size	_ZNSt8weak_ptrI7MessageED2Ev, .-_ZNSt8weak_ptrI7MessageED2Ev
	.weak	_ZNSt8weak_ptrI7MessageED1Ev
	.set	_ZNSt8weak_ptrI7MessageED1Ev,_ZNSt8weak_ptrI7MessageED2Ev
	.section	.text._ZNSt23enable_shared_from_thisI7MessageEC2Ev,"axG",@progbits,_ZNSt23enable_shared_from_thisI7MessageEC5Ev,comdat
	.align	2
	.weak	_ZNSt23enable_shared_from_thisI7MessageEC2Ev
	.type	_ZNSt23enable_shared_from_thisI7MessageEC2Ev, %function
_ZNSt23enable_shared_from_thisI7MessageEC2Ev:
.LFB4291:
	.cfi_startproc
	stp	x29, x30, [sp, -32]!
	.cfi_def_cfa_offset 32
	.cfi_offset 29, -32
	.cfi_offset 30, -24
	mov	x29, sp
	str	x0, [sp, 24]
	ldr	x0, [sp, 24]
	bl	_ZNSt8weak_ptrI7MessageEC1Ev
	nop
	ldp	x29, x30, [sp], 32
	.cfi_restore 30
	.cfi_restore 29
	.cfi_def_cfa_offset 0
	ret
	.cfi_endproc
.LFE4291:
	.size	_ZNSt23enable_shared_from_thisI7MessageEC2Ev, .-_ZNSt23enable_shared_from_thisI7MessageEC2Ev
	.weak	_ZNSt23enable_shared_from_thisI7MessageEC1Ev
	.set	_ZNSt23enable_shared_from_thisI7MessageEC1Ev,_ZNSt23enable_shared_from_thisI7MessageEC2Ev
	.section	.text._ZNSt23enable_shared_from_thisI7MessageED2Ev,"axG",@progbits,_ZNSt23enable_shared_from_thisI7MessageED5Ev,comdat
	.align	2
	.weak	_ZNSt23enable_shared_from_thisI7MessageED2Ev
	.type	_ZNSt23enable_shared_from_thisI7MessageED2Ev, %function
_ZNSt23enable_shared_from_thisI7MessageED2Ev:
.LFB4294:
	.cfi_startproc
	stp	x29, x30, [sp, -32]!
	.cfi_def_cfa_offset 32
	.cfi_offset 29, -32
	.cfi_offset 30, -24
	mov	x29, sp
	str	x0, [sp, 24]
	ldr	x0, [sp, 24]
	bl	_ZNSt8weak_ptrI7MessageED1Ev
	nop
	ldp	x29, x30, [sp], 32
	.cfi_restore 30
	.cfi_restore 29
	.cfi_def_cfa_offset 0
	ret
	.cfi_endproc
.LFE4294:
	.size	_ZNSt23enable_shared_from_thisI7MessageED2Ev, .-_ZNSt23enable_shared_from_thisI7MessageED2Ev
	.weak	_ZNSt23enable_shared_from_thisI7MessageED1Ev
	.set	_ZNSt23enable_shared_from_thisI7MessageED1Ev,_ZNSt23enable_shared_from_thisI7MessageED2Ev
	.section	.text._ZNSt10shared_ptrI6LooperEC2Ev,"axG",@progbits,_ZNSt10shared_ptrI6LooperEC5Ev,comdat
	.align	2
	.weak	_ZNSt10shared_ptrI6LooperEC2Ev
	.type	_ZNSt10shared_ptrI6LooperEC2Ev, %function
_ZNSt10shared_ptrI6LooperEC2Ev:
.LFB4297:
	.cfi_startproc
	stp	x29, x30, [sp, -32]!
	.cfi_def_cfa_offset 32
	.cfi_offset 29, -32
	.cfi_offset 30, -24
	mov	x29, sp
	str	x0, [sp, 24]
	ldr	x0, [sp, 24]
	bl	_ZNSt12__shared_ptrI6LooperLN9__gnu_cxx12_Lock_policyE2EEC2Ev
	nop
	ldp	x29, x30, [sp], 32
	.cfi_restore 30
	.cfi_restore 29
	.cfi_def_cfa_offset 0
	ret
	.cfi_endproc
.LFE4297:
	.size	_ZNSt10shared_ptrI6LooperEC2Ev, .-_ZNSt10shared_ptrI6LooperEC2Ev
	.weak	_ZNSt10shared_ptrI6LooperEC1Ev
	.set	_ZNSt10shared_ptrI6LooperEC1Ev,_ZNSt10shared_ptrI6LooperEC2Ev
	.section	.text._ZNSt14__shared_countILN9__gnu_cxx12_Lock_policyE2EED2Ev,"axG",@progbits,_ZNSt14__shared_countILN9__gnu_cxx12_Lock_policyE2EED5Ev,comdat
	.align	2
	.weak	_ZNSt14__shared_countILN9__gnu_cxx12_Lock_policyE2EED2Ev
	.type	_ZNSt14__shared_countILN9__gnu_cxx12_Lock_policyE2EED2Ev, %function
_ZNSt14__shared_countILN9__gnu_cxx12_Lock_policyE2EED2Ev:
.LFB4300:
	.cfi_startproc
	stp	x29, x30, [sp, -32]!
	.cfi_def_cfa_offset 32
	.cfi_offset 29, -32
	.cfi_offset 30, -24
	mov	x29, sp
	str	x0, [sp, 24]
	ldr	x0, [sp, 24]
	ldr	x0, [x0]
	cmp	x0, 0
	beq	.L76
	ldr	x0, [sp, 24]
	ldr	x0, [x0]
	bl	_ZNSt16_Sp_counted_baseILN9__gnu_cxx12_Lock_policyE2EE10_M_releaseEv
.L76:
	nop
	ldp	x29, x30, [sp], 32
	.cfi_restore 30
	.cfi_restore 29
	.cfi_def_cfa_offset 0
	ret
	.cfi_endproc
.LFE4300:
	.size	_ZNSt14__shared_countILN9__gnu_cxx12_Lock_policyE2EED2Ev, .-_ZNSt14__shared_countILN9__gnu_cxx12_Lock_policyE2EED2Ev
	.weak	_ZNSt14__shared_countILN9__gnu_cxx12_Lock_policyE2EED1Ev
	.set	_ZNSt14__shared_countILN9__gnu_cxx12_Lock_policyE2EED1Ev,_ZNSt14__shared_countILN9__gnu_cxx12_Lock_policyE2EED2Ev
	.section	.text._ZNSt10shared_ptrI14MessageHandlerEC2Ev,"axG",@progbits,_ZNSt10shared_ptrI14MessageHandlerEC5Ev,comdat
	.align	2
	.weak	_ZNSt10shared_ptrI14MessageHandlerEC2Ev
	.type	_ZNSt10shared_ptrI14MessageHandlerEC2Ev, %function
_ZNSt10shared_ptrI14MessageHandlerEC2Ev:
.LFB4303:
	.cfi_startproc
	stp	x29, x30, [sp, -32]!
	.cfi_def_cfa_offset 32
	.cfi_offset 29, -32
	.cfi_offset 30, -24
	mov	x29, sp
	str	x0, [sp, 24]
	ldr	x0, [sp, 24]
	bl	_ZNSt12__shared_ptrI14MessageHandlerLN9__gnu_cxx12_Lock_policyE2EEC2Ev
	nop
	ldp	x29, x30, [sp], 32
	.cfi_restore 30
	.cfi_restore 29
	.cfi_def_cfa_offset 0
	ret
	.cfi_endproc
.LFE4303:
	.size	_ZNSt10shared_ptrI14MessageHandlerEC2Ev, .-_ZNSt10shared_ptrI14MessageHandlerEC2Ev
	.weak	_ZNSt10shared_ptrI14MessageHandlerEC1Ev
	.set	_ZNSt10shared_ptrI14MessageHandlerEC1Ev,_ZNSt10shared_ptrI14MessageHandlerEC2Ev
	.section	.text._ZNSt14__shared_countILN9__gnu_cxx12_Lock_policyE2EEC2ERKS2_,"axG",@progbits,_ZNSt14__shared_countILN9__gnu_cxx12_Lock_policyE2EEC5ERKS2_,comdat
	.align	2
	.weak	_ZNSt14__shared_countILN9__gnu_cxx12_Lock_policyE2EEC2ERKS2_
	.type	_ZNSt14__shared_countILN9__gnu_cxx12_Lock_policyE2EEC2ERKS2_, %function
_ZNSt14__shared_countILN9__gnu_cxx12_Lock_policyE2EEC2ERKS2_:
.LFB4306:
	.cfi_startproc
	stp	x29, x30, [sp, -32]!
	.cfi_def_cfa_offset 32
	.cfi_offset 29, -32
	.cfi_offset 30, -24
	mov	x29, sp
	str	x0, [sp, 24]
	str	x1, [sp, 16]
	ldr	x0, [sp, 16]
	ldr	x1, [x0]
	ldr	x0, [sp, 24]
	str	x1, [x0]
	ldr	x0, [sp, 24]
	ldr	x0, [x0]
	cmp	x0, 0
	beq	.L80
	ldr	x0, [sp, 24]
	ldr	x0, [x0]
	bl	_ZNSt16_Sp_counted_baseILN9__gnu_cxx12_Lock_policyE2EE15_M_add_ref_copyEv
.L80:
	nop
	ldp	x29, x30, [sp], 32
	.cfi_restore 30
	.cfi_restore 29
	.cfi_def_cfa_offset 0
	ret
	.cfi_endproc
.LFE4306:
	.size	_ZNSt14__shared_countILN9__gnu_cxx12_Lock_policyE2EEC2ERKS2_, .-_ZNSt14__shared_countILN9__gnu_cxx12_Lock_policyE2EEC2ERKS2_
	.weak	_ZNSt14__shared_countILN9__gnu_cxx12_Lock_policyE2EEC1ERKS2_
	.set	_ZNSt14__shared_countILN9__gnu_cxx12_Lock_policyE2EEC1ERKS2_,_ZNSt14__shared_countILN9__gnu_cxx12_Lock_policyE2EEC2ERKS2_
	.section	.text._ZSt7forwardIiEOT_RNSt16remove_referenceIS0_E4typeE,"axG",@progbits,_ZSt7forwardIiEOT_RNSt16remove_referenceIS0_E4typeE,comdat
	.align	2
	.weak	_ZSt7forwardIiEOT_RNSt16remove_referenceIS0_E4typeE
	.type	_ZSt7forwardIiEOT_RNSt16remove_referenceIS0_E4typeE, %function
_ZSt7forwardIiEOT_RNSt16remove_referenceIS0_E4typeE:
.LFB4313:
	.cfi_startproc
	sub	sp, sp, #16
	.cfi_def_cfa_offset 16
	str	x0, [sp, 8]
	ldr	x0, [sp, 8]
	add	sp, sp, 16
	.cfi_def_cfa_offset 0
	ret
	.cfi_endproc
.LFE4313:
	.size	_ZSt7forwardIiEOT_RNSt16remove_referenceIS0_E4typeE, .-_ZSt7forwardIiEOT_RNSt16remove_referenceIS0_E4typeE
	.section	.text._ZNKSt19__shared_ptr_accessI7MessageLN9__gnu_cxx12_Lock_policyE2ELb0ELb0EEptEv,"axG",@progbits,_ZNKSt19__shared_ptr_accessI7MessageLN9__gnu_cxx12_Lock_policyE2ELb0ELb0EEptEv,comdat
	.align	2
	.weak	_ZNKSt19__shared_ptr_accessI7MessageLN9__gnu_cxx12_Lock_policyE2ELb0ELb0EEptEv
	.type	_ZNKSt19__shared_ptr_accessI7MessageLN9__gnu_cxx12_Lock_policyE2ELb0ELb0EEptEv, %function
_ZNKSt19__shared_ptr_accessI7MessageLN9__gnu_cxx12_Lock_policyE2ELb0ELb0EEptEv:
.LFB4656:
	.cfi_startproc
	stp	x29, x30, [sp, -32]!
	.cfi_def_cfa_offset 32
	.cfi_offset 29, -32
	.cfi_offset 30, -24
	mov	x29, sp
	str	x0, [sp, 24]
	ldr	x0, [sp, 24]
	bl	_ZNKSt19__shared_ptr_accessI7MessageLN9__gnu_cxx12_Lock_policyE2ELb0ELb0EE6_M_getEv
	ldp	x29, x30, [sp], 32
	.cfi_restore 30
	.cfi_restore 29
	.cfi_def_cfa_offset 0
	ret
	.cfi_endproc
.LFE4656:
	.size	_ZNKSt19__shared_ptr_accessI7MessageLN9__gnu_cxx12_Lock_policyE2ELb0ELb0EEptEv, .-_ZNKSt19__shared_ptr_accessI7MessageLN9__gnu_cxx12_Lock_policyE2ELb0ELb0EEptEv
	.section	.text._ZSt11make_sharedI6LooperJEESt10shared_ptrIT_EDpOT0_,"axG",@progbits,_ZSt11make_sharedI6LooperJEESt10shared_ptrIT_EDpOT0_,comdat
	.align	2
	.weak	_ZSt11make_sharedI6LooperJEESt10shared_ptrIT_EDpOT0_
	.type	_ZSt11make_sharedI6LooperJEESt10shared_ptrIT_EDpOT0_, %function
_ZSt11make_sharedI6LooperJEESt10shared_ptrIT_EDpOT0_:
.LFB4659:
	.cfi_startproc
	.cfi_personality 0x9b,DW.ref.__gxx_personality_v0
	.cfi_lsda 0x1b,.LLSDA4659
	stp	x29, x30, [sp, -48]!
	.cfi_def_cfa_offset 48
	.cfi_offset 29, -48
	.cfi_offset 30, -40
	mov	x29, sp
	str	x19, [sp, 16]
	.cfi_offset 19, -32
	mov	x19, x8
	adrp	x0, :got:__stack_chk_guard
	ldr	x0, [x0, #:got_lo12:__stack_chk_guard]
	ldr	x1, [x0]
	str	x1, [sp, 40]
	mov	x1, 0
	add	x0, sp, 32
	bl	_ZNSaI6LooperEC1Ev
	add	x0, sp, 32
	mov	x8, x19
.LEHB11:
	bl	_ZSt15allocate_sharedI6LooperSaIS0_EJEESt10shared_ptrIT_ERKT0_DpOT1_
.LEHE11:
	nop
	add	x0, sp, 32
	bl	_ZNSaI6LooperED1Ev
	nop
	adrp	x0, :got:__stack_chk_guard
	ldr	x0, [x0, #:got_lo12:__stack_chk_guard]
	ldr	x2, [sp, 40]
	ldr	x1, [x0]
	subs	x2, x2, x1
	mov	x1, 0
	beq	.L88
	b	.L90
.L89:
	mov	x19, x0
	add	x0, sp, 32
	bl	_ZNSaI6LooperED1Ev
	mov	x0, x19
.LEHB12:
	bl	_Unwind_Resume
.LEHE12:
.L90:
	bl	__stack_chk_fail
.L88:
	mov	x0, x19
	ldr	x19, [sp, 16]
	ldp	x29, x30, [sp], 48
	.cfi_restore 30
	.cfi_restore 29
	.cfi_restore 19
	.cfi_def_cfa_offset 0
	ret
	.cfi_endproc
.LFE4659:
	.section	.gcc_except_table
.LLSDA4659:
	.byte	0xff
	.byte	0xff
	.byte	0x1
	.uleb128 .LLSDACSE4659-.LLSDACSB4659
.LLSDACSB4659:
	.uleb128 .LEHB11-.LFB4659
	.uleb128 .LEHE11-.LEHB11
	.uleb128 .L89-.LFB4659
	.uleb128 0
	.uleb128 .LEHB12-.LFB4659
	.uleb128 .LEHE12-.LEHB12
	.uleb128 0
	.uleb128 0
.LLSDACSE4659:
	.section	.text._ZSt11make_sharedI6LooperJEESt10shared_ptrIT_EDpOT0_,"axG",@progbits,_ZSt11make_sharedI6LooperJEESt10shared_ptrIT_EDpOT0_,comdat
	.size	_ZSt11make_sharedI6LooperJEESt10shared_ptrIT_EDpOT0_, .-_ZSt11make_sharedI6LooperJEESt10shared_ptrIT_EDpOT0_
	.section	.text._ZSt11make_sharedI1MJEESt10shared_ptrIT_EDpOT0_,"axG",@progbits,_ZSt11make_sharedI1MJEESt10shared_ptrIT_EDpOT0_,comdat
	.align	2
	.weak	_ZSt11make_sharedI1MJEESt10shared_ptrIT_EDpOT0_
	.type	_ZSt11make_sharedI1MJEESt10shared_ptrIT_EDpOT0_, %function
_ZSt11make_sharedI1MJEESt10shared_ptrIT_EDpOT0_:
.LFB4660:
	.cfi_startproc
	.cfi_personality 0x9b,DW.ref.__gxx_personality_v0
	.cfi_lsda 0x1b,.LLSDA4660
	stp	x29, x30, [sp, -48]!
	.cfi_def_cfa_offset 48
	.cfi_offset 29, -48
	.cfi_offset 30, -40
	mov	x29, sp
	str	x19, [sp, 16]
	.cfi_offset 19, -32
	mov	x19, x8
	adrp	x0, :got:__stack_chk_guard
	ldr	x0, [x0, #:got_lo12:__stack_chk_guard]
	ldr	x1, [x0]
	str	x1, [sp, 40]
	mov	x1, 0
	add	x0, sp, 32
	bl	_ZNSaI1MEC1Ev
	add	x0, sp, 32
	mov	x8, x19
.LEHB13:
	bl	_ZSt15allocate_sharedI1MSaIS0_EJEESt10shared_ptrIT_ERKT0_DpOT1_
.LEHE13:
	nop
	add	x0, sp, 32
	bl	_ZNSaI1MED1Ev
	nop
	adrp	x0, :got:__stack_chk_guard
	ldr	x0, [x0, #:got_lo12:__stack_chk_guard]
	ldr	x2, [sp, 40]
	ldr	x1, [x0]
	subs	x2, x2, x1
	mov	x1, 0
	beq	.L94
	b	.L96
.L95:
	mov	x19, x0
	add	x0, sp, 32
	bl	_ZNSaI1MED1Ev
	mov	x0, x19
.LEHB14:
	bl	_Unwind_Resume
.LEHE14:
.L96:
	bl	__stack_chk_fail
.L94:
	mov	x0, x19
	ldr	x19, [sp, 16]
	ldp	x29, x30, [sp], 48
	.cfi_restore 30
	.cfi_restore 29
	.cfi_restore 19
	.cfi_def_cfa_offset 0
	ret
	.cfi_endproc
.LFE4660:
	.section	.gcc_except_table
.LLSDA4660:
	.byte	0xff
	.byte	0xff
	.byte	0x1
	.uleb128 .LLSDACSE4660-.LLSDACSB4660
.LLSDACSB4660:
	.uleb128 .LEHB13-.LFB4660
	.uleb128 .LEHE13-.LEHB13
	.uleb128 .L95-.LFB4660
	.uleb128 0
	.uleb128 .LEHB14-.LFB4660
	.uleb128 .LEHE14-.LEHB14
	.uleb128 0
	.uleb128 0
.LLSDACSE4660:
	.section	.text._ZSt11make_sharedI1MJEESt10shared_ptrIT_EDpOT0_,"axG",@progbits,_ZSt11make_sharedI1MJEESt10shared_ptrIT_EDpOT0_,comdat
	.size	_ZSt11make_sharedI1MJEESt10shared_ptrIT_EDpOT0_, .-_ZSt11make_sharedI1MJEESt10shared_ptrIT_EDpOT0_
	.section	.text._ZNKSt19__shared_ptr_accessI6LooperLN9__gnu_cxx12_Lock_policyE2ELb0ELb0EEptEv,"axG",@progbits,_ZNKSt19__shared_ptr_accessI6LooperLN9__gnu_cxx12_Lock_policyE2ELb0ELb0EEptEv,comdat
	.align	2
	.weak	_ZNKSt19__shared_ptr_accessI6LooperLN9__gnu_cxx12_Lock_policyE2ELb0ELb0EEptEv
	.type	_ZNKSt19__shared_ptr_accessI6LooperLN9__gnu_cxx12_Lock_policyE2ELb0ELb0EEptEv, %function
_ZNKSt19__shared_ptr_accessI6LooperLN9__gnu_cxx12_Lock_policyE2ELb0ELb0EEptEv:
.LFB4661:
	.cfi_startproc
	stp	x29, x30, [sp, -32]!
	.cfi_def_cfa_offset 32
	.cfi_offset 29, -32
	.cfi_offset 30, -24
	mov	x29, sp
	str	x0, [sp, 24]
	ldr	x0, [sp, 24]
	bl	_ZNKSt19__shared_ptr_accessI6LooperLN9__gnu_cxx12_Lock_policyE2ELb0ELb0EE6_M_getEv
	ldp	x29, x30, [sp], 32
	.cfi_restore 30
	.cfi_restore 29
	.cfi_def_cfa_offset 0
	ret
	.cfi_endproc
.LFE4661:
	.size	_ZNKSt19__shared_ptr_accessI6LooperLN9__gnu_cxx12_Lock_policyE2ELb0ELb0EEptEv, .-_ZNKSt19__shared_ptr_accessI6LooperLN9__gnu_cxx12_Lock_policyE2ELb0ELb0EEptEv
	.text
	.align	2
	.type	_ZNSt6threadC2IZ4mainEUlvE_JEvEEOT_DpOT0_, %function
_ZNSt6threadC2IZ4mainEUlvE_JEvEEOT_DpOT0_:
.LFB4677:
	.cfi_startproc
	.cfi_personality 0x9b,DW.ref.__gxx_personality_v0
	.cfi_lsda 0x1b,.LLSDA4677
	stp	x29, x30, [sp, -80]!
	.cfi_def_cfa_offset 80
	.cfi_offset 29, -80
	.cfi_offset 30, -72
	mov	x29, sp
	stp	x19, x20, [sp, 16]
	.cfi_offset 19, -64
	.cfi_offset 20, -56
	str	x0, [sp, 40]
	str	x1, [sp, 32]
	adrp	x0, :got:__stack_chk_guard
	ldr	x0, [x0, #:got_lo12:__stack_chk_guard]
	ldr	x1, [x0]
	str	x1, [sp, 72]
	mov	x1, 0
	ldr	x0, [sp, 40]
	bl	_ZNSt6thread2idC1Ev
	str	xzr, [sp, 64]
	ldr	x0, [sp, 32]
	bl	_ZSt7forwardIZ4mainEUlvE_EOT_RNSt16remove_referenceIS1_E4typeE
	mov	x20, x0
	mov	x0, 24
.LEHB15:
	bl	_Znwm
.LEHE15:
	mov	x19, x0
	mov	x1, x20
	mov	x0, x19
.LEHB16:
	bl	_ZNSt6thread11_State_implINS_8_InvokerISt5tupleIJZ4mainEUlvE_EEEEEC1IJS3_EEEDpOT_
.LEHE16:
	add	x0, sp, 56
	mov	x1, x19
	bl	_ZNSt10unique_ptrINSt6thread6_StateESt14default_deleteIS1_EEC1IS3_vEEPS1_
	add	x0, sp, 56
	mov	x2, 0
	mov	x1, x0
	ldr	x0, [sp, 40]
.LEHB17:
	bl	_ZNSt6thread15_M_start_threadESt10unique_ptrINS_6_StateESt14default_deleteIS1_EEPFvvE
.LEHE17:
	add	x0, sp, 56
	bl	_ZNSt10unique_ptrINSt6thread6_StateESt14default_deleteIS1_EED1Ev
	nop
	adrp	x0, :got:__stack_chk_guard
	ldr	x0, [x0, #:got_lo12:__stack_chk_guard]
	ldr	x2, [sp, 72]
	ldr	x1, [x0]
	subs	x2, x2, x1
	mov	x1, 0
	beq	.L102
	b	.L105
.L103:
	mov	x20, x0
	mov	x1, 24
	mov	x0, x19
	bl	_ZdlPvm
	mov	x0, x20
.LEHB18:
	bl	_Unwind_Resume
.L104:
	mov	x19, x0
	add	x0, sp, 56
	bl	_ZNSt10unique_ptrINSt6thread6_StateESt14default_deleteIS1_EED1Ev
	mov	x0, x19
	bl	_Unwind_Resume
.LEHE18:
.L105:
	bl	__stack_chk_fail
.L102:
	ldp	x19, x20, [sp, 16]
	ldp	x29, x30, [sp], 80
	.cfi_restore 30
	.cfi_restore 29
	.cfi_restore 19
	.cfi_restore 20
	.cfi_def_cfa_offset 0
	ret
	.cfi_endproc
.LFE4677:
	.section	.gcc_except_table
.LLSDA4677:
	.byte	0xff
	.byte	0xff
	.byte	0x1
	.uleb128 .LLSDACSE4677-.LLSDACSB4677
.LLSDACSB4677:
	.uleb128 .LEHB15-.LFB4677
	.uleb128 .LEHE15-.LEHB15
	.uleb128 0
	.uleb128 0
	.uleb128 .LEHB16-.LFB4677
	.uleb128 .LEHE16-.LEHB16
	.uleb128 .L103-.LFB4677
	.uleb128 0
	.uleb128 .LEHB17-.LFB4677
	.uleb128 .LEHE17-.LEHB17
	.uleb128 .L104-.LFB4677
	.uleb128 0
	.uleb128 .LEHB18-.LFB4677
	.uleb128 .LEHE18-.LEHB18
	.uleb128 0
	.uleb128 0
.LLSDACSE4677:
	.text
	.size	_ZNSt6threadC2IZ4mainEUlvE_JEvEEOT_DpOT0_, .-_ZNSt6threadC2IZ4mainEUlvE_JEvEEOT_DpOT0_
	.set	_ZNSt6threadC1IZ4mainEUlvE_JEvEEOT_DpOT0_,_ZNSt6threadC2IZ4mainEUlvE_JEvEEOT_DpOT0_
	.section	.text._ZSt11make_sharedI7MessageJiEESt10shared_ptrIT_EDpOT0_,"axG",@progbits,_ZSt11make_sharedI7MessageJiEESt10shared_ptrIT_EDpOT0_,comdat
	.align	2
	.weak	_ZSt11make_sharedI7MessageJiEESt10shared_ptrIT_EDpOT0_
	.type	_ZSt11make_sharedI7MessageJiEESt10shared_ptrIT_EDpOT0_, %function
_ZSt11make_sharedI7MessageJiEESt10shared_ptrIT_EDpOT0_:
.LFB4679:
	.cfi_startproc
	.cfi_personality 0x9b,DW.ref.__gxx_personality_v0
	.cfi_lsda 0x1b,.LLSDA4679
	stp	x29, x30, [sp, -64]!
	.cfi_def_cfa_offset 64
	.cfi_offset 29, -64
	.cfi_offset 30, -56
	mov	x29, sp
	str	x19, [sp, 16]
	.cfi_offset 19, -48
	mov	x19, x8
	str	x0, [sp, 40]
	adrp	x0, :got:__stack_chk_guard
	ldr	x0, [x0, #:got_lo12:__stack_chk_guard]
	ldr	x1, [x0]
	str	x1, [sp, 56]
	mov	x1, 0
	add	x0, sp, 48
	bl	_ZNSaI7MessageEC1Ev
	ldr	x0, [sp, 40]
	bl	_ZSt7forwardIiEOT_RNSt16remove_referenceIS0_E4typeE
	mov	x1, x0
	add	x0, sp, 48
	mov	x8, x19
.LEHB19:
	bl	_ZSt15allocate_sharedI7MessageSaIS0_EJiEESt10shared_ptrIT_ERKT0_DpOT1_
.LEHE19:
	nop
	add	x0, sp, 48
	bl	_ZNSaI7MessageED1Ev
	nop
	adrp	x0, :got:__stack_chk_guard
	ldr	x0, [x0, #:got_lo12:__stack_chk_guard]
	ldr	x2, [sp, 56]
	ldr	x1, [x0]
	subs	x2, x2, x1
	mov	x1, 0
	beq	.L109
	b	.L111
.L110:
	mov	x19, x0
	add	x0, sp, 48
	bl	_ZNSaI7MessageED1Ev
	mov	x0, x19
.LEHB20:
	bl	_Unwind_Resume
.LEHE20:
.L111:
	bl	__stack_chk_fail
.L109:
	mov	x0, x19
	ldr	x19, [sp, 16]
	ldp	x29, x30, [sp], 64
	.cfi_restore 30
	.cfi_restore 29
	.cfi_restore 19
	.cfi_def_cfa_offset 0
	ret
	.cfi_endproc
.LFE4679:
	.section	.gcc_except_table
.LLSDA4679:
	.byte	0xff
	.byte	0xff
	.byte	0x1
	.uleb128 .LLSDACSE4679-.LLSDACSB4679
.LLSDACSB4679:
	.uleb128 .LEHB19-.LFB4679
	.uleb128 .LEHE19-.LEHB19
	.uleb128 .L110-.LFB4679
	.uleb128 0
	.uleb128 .LEHB20-.LFB4679
	.uleb128 .LEHE20-.LEHB20
	.uleb128 0
	.uleb128 0
.LLSDACSE4679:
	.section	.text._ZSt11make_sharedI7MessageJiEESt10shared_ptrIT_EDpOT0_,"axG",@progbits,_ZSt11make_sharedI7MessageJiEESt10shared_ptrIT_EDpOT0_,comdat
	.size	_ZSt11make_sharedI7MessageJiEESt10shared_ptrIT_EDpOT0_, .-_ZSt11make_sharedI7MessageJiEESt10shared_ptrIT_EDpOT0_
	.section	.text._ZNSt10shared_ptrI14MessageHandlerEC2I1MvEERKS_IT_E,"axG",@progbits,_ZNSt10shared_ptrI14MessageHandlerEC5I1MvEERKS_IT_E,comdat
	.align	2
	.weak	_ZNSt10shared_ptrI14MessageHandlerEC2I1MvEERKS_IT_E
	.type	_ZNSt10shared_ptrI14MessageHandlerEC2I1MvEERKS_IT_E, %function
_ZNSt10shared_ptrI14MessageHandlerEC2I1MvEERKS_IT_E:
.LFB4681:
	.cfi_startproc
	stp	x29, x30, [sp, -32]!
	.cfi_def_cfa_offset 32
	.cfi_offset 29, -32
	.cfi_offset 30, -24
	mov	x29, sp
	str	x0, [sp, 24]
	str	x1, [sp, 16]
	ldr	x0, [sp, 24]
	ldr	x1, [sp, 16]
	bl	_ZNSt12__shared_ptrI14MessageHandlerLN9__gnu_cxx12_Lock_policyE2EEC2I1MvEERKS_IT_LS2_2EE
	nop
	ldp	x29, x30, [sp], 32
	.cfi_restore 30
	.cfi_restore 29
	.cfi_def_cfa_offset 0
	ret
	.cfi_endproc
.LFE4681:
	.size	_ZNSt10shared_ptrI14MessageHandlerEC2I1MvEERKS_IT_E, .-_ZNSt10shared_ptrI14MessageHandlerEC2I1MvEERKS_IT_E
	.weak	_ZNSt10shared_ptrI14MessageHandlerEC1I1MvEERKS_IT_E
	.set	_ZNSt10shared_ptrI14MessageHandlerEC1I1MvEERKS_IT_E,_ZNSt10shared_ptrI14MessageHandlerEC2I1MvEERKS_IT_E
	.section	.text._ZNSt8literals15chrono_literalsli1sIJLc49EEEENSt6chrono8durationIlSt5ratioILl1ELl1EEEEv,"axG",@progbits,_ZNSt8literals15chrono_literalsli1sIJLc49EEEENSt6chrono8durationIlSt5ratioILl1ELl1EEEEv,comdat
	.align	2
	.weak	_ZNSt8literals15chrono_literalsli1sIJLc49EEEENSt6chrono8durationIlSt5ratioILl1ELl1EEEEv
	.type	_ZNSt8literals15chrono_literalsli1sIJLc49EEEENSt6chrono8durationIlSt5ratioILl1ELl1EEEEv, %function
_ZNSt8literals15chrono_literalsli1sIJLc49EEEENSt6chrono8durationIlSt5ratioILl1ELl1EEEEv:
.LFB4683:
	.cfi_startproc
	stp	x29, x30, [sp, -16]!
	.cfi_def_cfa_offset 16
	.cfi_offset 29, -16
	.cfi_offset 30, -8
	mov	x29, sp
	bl	_ZNSt8literals15chrono_literals16__check_overflowINSt6chrono8durationIlSt5ratioILl1ELl1EEEEJLc49EEEET_v
	ldp	x29, x30, [sp], 16
	.cfi_restore 30
	.cfi_restore 29
	.cfi_def_cfa_offset 0
	ret
	.cfi_endproc
.LFE4683:
	.size	_ZNSt8literals15chrono_literalsli1sIJLc49EEEENSt6chrono8durationIlSt5ratioILl1ELl1EEEEv, .-_ZNSt8literals15chrono_literalsli1sIJLc49EEEENSt6chrono8durationIlSt5ratioILl1ELl1EEEEv
	.section	.text._ZNSt6chrono13duration_castINS_8durationIlSt5ratioILl1ELl1000000000EEEElS2_ILl1ELl1EEEENSt9enable_ifIXsrNS_13__is_durationIT_EE5valueES8_E4typeERKNS1_IT0_T1_EE,"axG",@progbits,_ZNSt6chrono13duration_castINS_8durationIlSt5ratioILl1ELl1000000000EEEElS2_ILl1ELl1EEEENSt9enable_ifIXsrNS_13__is_durationIT_EE5valueES8_E4typeERKNS1_IT0_T1_EE,comdat
	.align	2
	.weak	_ZNSt6chrono13duration_castINS_8durationIlSt5ratioILl1ELl1000000000EEEElS2_ILl1ELl1EEEENSt9enable_ifIXsrNS_13__is_durationIT_EE5valueES8_E4typeERKNS1_IT0_T1_EE
	.type	_ZNSt6chrono13duration_castINS_8durationIlSt5ratioILl1ELl1000000000EEEElS2_ILl1ELl1EEEENSt9enable_ifIXsrNS_13__is_durationIT_EE5valueES8_E4typeERKNS1_IT0_T1_EE, %function
_ZNSt6chrono13duration_castINS_8durationIlSt5ratioILl1ELl1000000000EEEElS2_ILl1ELl1EEEENSt9enable_ifIXsrNS_13__is_durationIT_EE5valueES8_E4typeERKNS1_IT0_T1_EE:
.LFB4684:
	.cfi_startproc
	stp	x29, x30, [sp, -32]!
	.cfi_def_cfa_offset 32
	.cfi_offset 29, -32
	.cfi_offset 30, -24
	mov	x29, sp
	str	x0, [sp, 24]
	ldr	x0, [sp, 24]
	bl	_ZNSt6chrono20__duration_cast_implINS_8durationIlSt5ratioILl1ELl1000000000EEEES2_ILl1000000000ELl1EElLb0ELb1EE6__castIlS2_ILl1ELl1EEEES4_RKNS1_IT_T0_EE
	ldp	x29, x30, [sp], 32
	.cfi_restore 30
	.cfi_restore 29
	.cfi_def_cfa_offset 0
	ret
	.cfi_endproc
.LFE4684:
	.size	_ZNSt6chrono13duration_castINS_8durationIlSt5ratioILl1ELl1000000000EEEElS2_ILl1ELl1EEEENSt9enable_ifIXsrNS_13__is_durationIT_EE5valueES8_E4typeERKNS1_IT0_T1_EE, .-_ZNSt6chrono13duration_castINS_8durationIlSt5ratioILl1ELl1000000000EEEElS2_ILl1ELl1EEEENSt9enable_ifIXsrNS_13__is_durationIT_EE5valueES8_E4typeERKNS1_IT0_T1_EE
	.section	.text._ZSt11make_sharedI9FdHandlerJEESt10shared_ptrIT_EDpOT0_,"axG",@progbits,_ZSt11make_sharedI9FdHandlerJEESt10shared_ptrIT_EDpOT0_,comdat
	.align	2
	.weak	_ZSt11make_sharedI9FdHandlerJEESt10shared_ptrIT_EDpOT0_
	.type	_ZSt11make_sharedI9FdHandlerJEESt10shared_ptrIT_EDpOT0_, %function
_ZSt11make_sharedI9FdHandlerJEESt10shared_ptrIT_EDpOT0_:
.LFB4685:
	.cfi_startproc
	.cfi_personality 0x9b,DW.ref.__gxx_personality_v0
	.cfi_lsda 0x1b,.LLSDA4685
	stp	x29, x30, [sp, -48]!
	.cfi_def_cfa_offset 48
	.cfi_offset 29, -48
	.cfi_offset 30, -40
	mov	x29, sp
	str	x19, [sp, 16]
	.cfi_offset 19, -32
	mov	x19, x8
	adrp	x0, :got:__stack_chk_guard
	ldr	x0, [x0, #:got_lo12:__stack_chk_guard]
	ldr	x1, [x0]
	str	x1, [sp, 40]
	mov	x1, 0
	add	x0, sp, 32
	bl	_ZNSaI9FdHandlerEC1Ev
	add	x0, sp, 32
	mov	x8, x19
.LEHB21:
	bl	_ZSt15allocate_sharedI9FdHandlerSaIS0_EJEESt10shared_ptrIT_ERKT0_DpOT1_
.LEHE21:
	nop
	add	x0, sp, 32
	bl	_ZNSaI9FdHandlerED1Ev
	nop
	adrp	x0, :got:__stack_chk_guard
	ldr	x0, [x0, #:got_lo12:__stack_chk_guard]
	ldr	x2, [sp, 40]
	ldr	x1, [x0]
	subs	x2, x2, x1
	mov	x1, 0
	beq	.L120
	b	.L122
.L121:
	mov	x19, x0
	add	x0, sp, 32
	bl	_ZNSaI9FdHandlerED1Ev
	mov	x0, x19
.LEHB22:
	bl	_Unwind_Resume
.LEHE22:
.L122:
	bl	__stack_chk_fail
.L120:
	mov	x0, x19
	ldr	x19, [sp, 16]
	ldp	x29, x30, [sp], 48
	.cfi_restore 30
	.cfi_restore 29
	.cfi_restore 19
	.cfi_def_cfa_offset 0
	ret
	.cfi_endproc
.LFE4685:
	.section	.gcc_except_table
.LLSDA4685:
	.byte	0xff
	.byte	0xff
	.byte	0x1
	.uleb128 .LLSDACSE4685-.LLSDACSB4685
.LLSDACSB4685:
	.uleb128 .LEHB21-.LFB4685
	.uleb128 .LEHE21-.LEHB21
	.uleb128 .L121-.LFB4685
	.uleb128 0
	.uleb128 .LEHB22-.LFB4685
	.uleb128 .LEHE22-.LEHB22
	.uleb128 0
	.uleb128 0
.LLSDACSE4685:
	.section	.text._ZSt11make_sharedI9FdHandlerJEESt10shared_ptrIT_EDpOT0_,"axG",@progbits,_ZSt11make_sharedI9FdHandlerJEESt10shared_ptrIT_EDpOT0_,comdat
	.size	_ZSt11make_sharedI9FdHandlerJEESt10shared_ptrIT_EDpOT0_, .-_ZSt11make_sharedI9FdHandlerJEESt10shared_ptrIT_EDpOT0_
	.section	.text._ZNSt10shared_ptrI14LooperCallbackEC2I9FdHandlervEEOS_IT_E,"axG",@progbits,_ZNSt10shared_ptrI14LooperCallbackEC5I9FdHandlervEEOS_IT_E,comdat
	.align	2
	.weak	_ZNSt10shared_ptrI14LooperCallbackEC2I9FdHandlervEEOS_IT_E
	.type	_ZNSt10shared_ptrI14LooperCallbackEC2I9FdHandlervEEOS_IT_E, %function
_ZNSt10shared_ptrI14LooperCallbackEC2I9FdHandlervEEOS_IT_E:
.LFB4687:
	.cfi_startproc
	stp	x29, x30, [sp, -48]!
	.cfi_def_cfa_offset 48
	.cfi_offset 29, -48
	.cfi_offset 30, -40
	mov	x29, sp
	str	x19, [sp, 16]
	.cfi_offset 19, -32
	str	x0, [sp, 40]
	str	x1, [sp, 32]
	ldr	x19, [sp, 40]
	ldr	x0, [sp, 32]
	bl	_ZSt4moveIRSt10shared_ptrI9FdHandlerEEONSt16remove_referenceIT_E4typeEOS5_
	mov	x1, x0
	mov	x0, x19
	bl	_ZNSt12__shared_ptrI14LooperCallbackLN9__gnu_cxx12_Lock_policyE2EEC2I9FdHandlervEEOS_IT_LS2_2EE
	nop
	ldr	x19, [sp, 16]
	ldp	x29, x30, [sp], 48
	.cfi_restore 30
	.cfi_restore 29
	.cfi_restore 19
	.cfi_def_cfa_offset 0
	ret
	.cfi_endproc
.LFE4687:
	.size	_ZNSt10shared_ptrI14LooperCallbackEC2I9FdHandlervEEOS_IT_E, .-_ZNSt10shared_ptrI14LooperCallbackEC2I9FdHandlervEEOS_IT_E
	.weak	_ZNSt10shared_ptrI14LooperCallbackEC1I9FdHandlervEEOS_IT_E
	.set	_ZNSt10shared_ptrI14LooperCallbackEC1I9FdHandlervEEOS_IT_E,_ZNSt10shared_ptrI14LooperCallbackEC2I9FdHandlervEEOS_IT_E
	.section	.text._ZNSt10__weak_ptrI7MessageLN9__gnu_cxx12_Lock_policyE2EEC2Ev,"axG",@progbits,_ZNSt10__weak_ptrI7MessageLN9__gnu_cxx12_Lock_policyE2EEC5Ev,comdat
	.align	2
	.weak	_ZNSt10__weak_ptrI7MessageLN9__gnu_cxx12_Lock_policyE2EEC2Ev
	.type	_ZNSt10__weak_ptrI7MessageLN9__gnu_cxx12_Lock_policyE2EEC2Ev, %function
_ZNSt10__weak_ptrI7MessageLN9__gnu_cxx12_Lock_policyE2EEC2Ev:
.LFB4703:
	.cfi_startproc
	stp	x29, x30, [sp, -32]!
	.cfi_def_cfa_offset 32
	.cfi_offset 29, -32
	.cfi_offset 30, -24
	mov	x29, sp
	str	x0, [sp, 24]
	ldr	x0, [sp, 24]
	str	xzr, [x0]
	ldr	x0, [sp, 24]
	add	x0, x0, 8
	bl	_ZNSt12__weak_countILN9__gnu_cxx12_Lock_policyE2EEC1Ev
	nop
	ldp	x29, x30, [sp], 32
	.cfi_restore 30
	.cfi_restore 29
	.cfi_def_cfa_offset 0
	ret
	.cfi_endproc
.LFE4703:
	.size	_ZNSt10__weak_ptrI7MessageLN9__gnu_cxx12_Lock_policyE2EEC2Ev, .-_ZNSt10__weak_ptrI7MessageLN9__gnu_cxx12_Lock_policyE2EEC2Ev
	.weak	_ZNSt10__weak_ptrI7MessageLN9__gnu_cxx12_Lock_policyE2EEC1Ev
	.set	_ZNSt10__weak_ptrI7MessageLN9__gnu_cxx12_Lock_policyE2EEC1Ev,_ZNSt10__weak_ptrI7MessageLN9__gnu_cxx12_Lock_policyE2EEC2Ev
	.section	.text._ZNSt12__weak_countILN9__gnu_cxx12_Lock_policyE2EED2Ev,"axG",@progbits,_ZNSt12__weak_countILN9__gnu_cxx12_Lock_policyE2EED5Ev,comdat
	.align	2
	.weak	_ZNSt12__weak_countILN9__gnu_cxx12_Lock_policyE2EED2Ev
	.type	_ZNSt12__weak_countILN9__gnu_cxx12_Lock_policyE2EED2Ev, %function
_ZNSt12__weak_countILN9__gnu_cxx12_Lock_policyE2EED2Ev:
.LFB4706:
	.cfi_startproc
	stp	x29, x30, [sp, -32]!
	.cfi_def_cfa_offset 32
	.cfi_offset 29, -32
	.cfi_offset 30, -24
	mov	x29, sp
	str	x0, [sp, 24]
	ldr	x0, [sp, 24]
	ldr	x0, [x0]
	cmp	x0, 0
	beq	.L127
	ldr	x0, [sp, 24]
	ldr	x0, [x0]
	bl	_ZNSt16_Sp_counted_baseILN9__gnu_cxx12_Lock_policyE2EE15_M_weak_releaseEv
.L127:
	nop
	ldp	x29, x30, [sp], 32
	.cfi_restore 30
	.cfi_restore 29
	.cfi_def_cfa_offset 0
	ret
	.cfi_endproc
.LFE4706:
	.size	_ZNSt12__weak_countILN9__gnu_cxx12_Lock_policyE2EED2Ev, .-_ZNSt12__weak_countILN9__gnu_cxx12_Lock_policyE2EED2Ev
	.weak	_ZNSt12__weak_countILN9__gnu_cxx12_Lock_policyE2EED1Ev
	.set	_ZNSt12__weak_countILN9__gnu_cxx12_Lock_policyE2EED1Ev,_ZNSt12__weak_countILN9__gnu_cxx12_Lock_policyE2EED2Ev
	.section	.text._ZNSt12__shared_ptrI6LooperLN9__gnu_cxx12_Lock_policyE2EEC2Ev,"axG",@progbits,_ZNSt12__shared_ptrI6LooperLN9__gnu_cxx12_Lock_policyE2EEC5Ev,comdat
	.align	2
	.weak	_ZNSt12__shared_ptrI6LooperLN9__gnu_cxx12_Lock_policyE2EEC2Ev
	.type	_ZNSt12__shared_ptrI6LooperLN9__gnu_cxx12_Lock_policyE2EEC2Ev, %function
_ZNSt12__shared_ptrI6LooperLN9__gnu_cxx12_Lock_policyE2EEC2Ev:
.LFB4709:
	.cfi_startproc
	stp	x29, x30, [sp, -32]!
	.cfi_def_cfa_offset 32
	.cfi_offset 29, -32
	.cfi_offset 30, -24
	mov	x29, sp
	str	x0, [sp, 24]
	ldr	x0, [sp, 24]
	str	xzr, [x0]
	ldr	x0, [sp, 24]
	add	x0, x0, 8
	bl	_ZNSt14__shared_countILN9__gnu_cxx12_Lock_policyE2EEC1Ev
	nop
	ldp	x29, x30, [sp], 32
	.cfi_restore 30
	.cfi_restore 29
	.cfi_def_cfa_offset 0
	ret
	.cfi_endproc
.LFE4709:
	.size	_ZNSt12__shared_ptrI6LooperLN9__gnu_cxx12_Lock_policyE2EEC2Ev, .-_ZNSt12__shared_ptrI6LooperLN9__gnu_cxx12_Lock_policyE2EEC2Ev
	.weak	_ZNSt12__shared_ptrI6LooperLN9__gnu_cxx12_Lock_policyE2EEC1Ev
	.set	_ZNSt12__shared_ptrI6LooperLN9__gnu_cxx12_Lock_policyE2EEC1Ev,_ZNSt12__shared_ptrI6LooperLN9__gnu_cxx12_Lock_policyE2EEC2Ev
	.global	__aarch64_ldadd4_acq_rel
	.section	.text._ZNSt16_Sp_counted_baseILN9__gnu_cxx12_Lock_policyE2EE10_M_releaseEv,"axG",@progbits,_ZNSt16_Sp_counted_baseILN9__gnu_cxx12_Lock_policyE2EE10_M_releaseEv,comdat
	.align	2
	.weak	_ZNSt16_Sp_counted_baseILN9__gnu_cxx12_Lock_policyE2EE10_M_releaseEv
	.type	_ZNSt16_Sp_counted_baseILN9__gnu_cxx12_Lock_policyE2EE10_M_releaseEv, %function
_ZNSt16_Sp_counted_baseILN9__gnu_cxx12_Lock_policyE2EE10_M_releaseEv:
.LFB4711:
	.cfi_startproc
	stp	x29, x30, [sp, -112]!
	.cfi_def_cfa_offset 112
	.cfi_offset 29, -112
	.cfi_offset 30, -104
	mov	x29, sp
	str	x0, [sp, 24]
	ldr	x0, [sp, 24]
	add	x0, x0, 8
	str	x0, [sp, 64]
	mov	w0, -1
	str	w0, [sp, 32]
	adrp	x0, :got:__libc_single_threaded
	ldr	x0, [x0, #:got_lo12:__libc_single_threaded]
	ldrb	w0, [x0]
	cmp	w0, 0
	cset	w0, ne
	and	w0, w0, 255
	cmp	w0, 0
	beq	.L131
	ldr	x0, [sp, 64]
	str	x0, [sp, 72]
	ldr	w0, [sp, 32]
	str	w0, [sp, 36]
	ldr	x0, [sp, 72]
	ldr	w0, [x0]
	str	w0, [sp, 40]
	ldr	x0, [sp, 72]
	ldr	w1, [x0]
	ldr	w0, [sp, 36]
	add	w1, w1, w0
	ldr	x0, [sp, 72]
	str	w1, [x0]
	ldr	w0, [sp, 40]
	b	.L133
.L131:
	ldr	x0, [sp, 64]
	str	x0, [sp, 80]
	ldr	w0, [sp, 32]
	str	w0, [sp, 44]
	ldr	w0, [sp, 44]
	ldr	x1, [sp, 80]
	bl	__aarch64_ldadd4_acq_rel
	nop
.L133:
	cmp	w0, 1
	cset	w0, eq
	and	w0, w0, 255
	cmp	w0, 0
	beq	.L141
	ldr	x0, [sp, 24]
	ldr	x0, [x0]
	add	x0, x0, 16
	ldr	x1, [x0]
	ldr	x0, [sp, 24]
	blr	x1
	ldr	x0, [sp, 24]
	add	x0, x0, 12
	str	x0, [sp, 88]
	mov	w0, -1
	str	w0, [sp, 48]
	adrp	x0, :got:__libc_single_threaded
	ldr	x0, [x0, #:got_lo12:__libc_single_threaded]
	ldrb	w0, [x0]
	cmp	w0, 0
	cset	w0, ne
	and	w0, w0, 255
	cmp	w0, 0
	beq	.L137
	ldr	x0, [sp, 88]
	str	x0, [sp, 96]
	ldr	w0, [sp, 48]
	str	w0, [sp, 52]
	ldr	x0, [sp, 96]
	ldr	w0, [x0]
	str	w0, [sp, 56]
	ldr	x0, [sp, 96]
	ldr	w1, [x0]
	ldr	w0, [sp, 52]
	add	w1, w1, w0
	ldr	x0, [sp, 96]
	str	w1, [x0]
	ldr	w0, [sp, 56]
	b	.L139
.L137:
	ldr	x0, [sp, 88]
	str	x0, [sp, 104]
	ldr	w0, [sp, 48]
	str	w0, [sp, 60]
	ldr	w0, [sp, 60]
	ldr	x1, [sp, 104]
	bl	__aarch64_ldadd4_acq_rel
	nop
.L139:
	cmp	w0, 1
	cset	w0, eq
	and	w0, w0, 255
	cmp	w0, 0
	beq	.L141
	ldr	x0, [sp, 24]
	ldr	x0, [x0]
	add	x0, x0, 24
	ldr	x1, [x0]
	ldr	x0, [sp, 24]
	blr	x1
.L141:
	nop
	ldp	x29, x30, [sp], 112
	.cfi_restore 30
	.cfi_restore 29
	.cfi_def_cfa_offset 0
	ret
	.cfi_endproc
.LFE4711:
	.size	_ZNSt16_Sp_counted_baseILN9__gnu_cxx12_Lock_policyE2EE10_M_releaseEv, .-_ZNSt16_Sp_counted_baseILN9__gnu_cxx12_Lock_policyE2EE10_M_releaseEv
	.section	.text._ZNSt12__shared_ptrI14MessageHandlerLN9__gnu_cxx12_Lock_policyE2EEC2Ev,"axG",@progbits,_ZNSt12__shared_ptrI14MessageHandlerLN9__gnu_cxx12_Lock_policyE2EEC5Ev,comdat
	.align	2
	.weak	_ZNSt12__shared_ptrI14MessageHandlerLN9__gnu_cxx12_Lock_policyE2EEC2Ev
	.type	_ZNSt12__shared_ptrI14MessageHandlerLN9__gnu_cxx12_Lock_policyE2EEC2Ev, %function
_ZNSt12__shared_ptrI14MessageHandlerLN9__gnu_cxx12_Lock_policyE2EEC2Ev:
.LFB4713:
	.cfi_startproc
	stp	x29, x30, [sp, -32]!
	.cfi_def_cfa_offset 32
	.cfi_offset 29, -32
	.cfi_offset 30, -24
	mov	x29, sp
	str	x0, [sp, 24]
	ldr	x0, [sp, 24]
	str	xzr, [x0]
	ldr	x0, [sp, 24]
	add	x0, x0, 8
	bl	_ZNSt14__shared_countILN9__gnu_cxx12_Lock_policyE2EEC1Ev
	nop
	ldp	x29, x30, [sp], 32
	.cfi_restore 30
	.cfi_restore 29
	.cfi_def_cfa_offset 0
	ret
	.cfi_endproc
.LFE4713:
	.size	_ZNSt12__shared_ptrI14MessageHandlerLN9__gnu_cxx12_Lock_policyE2EEC2Ev, .-_ZNSt12__shared_ptrI14MessageHandlerLN9__gnu_cxx12_Lock_policyE2EEC2Ev
	.weak	_ZNSt12__shared_ptrI14MessageHandlerLN9__gnu_cxx12_Lock_policyE2EEC1Ev
	.set	_ZNSt12__shared_ptrI14MessageHandlerLN9__gnu_cxx12_Lock_policyE2EEC1Ev,_ZNSt12__shared_ptrI14MessageHandlerLN9__gnu_cxx12_Lock_policyE2EEC2Ev
	.section	.text._ZNSt16_Sp_counted_baseILN9__gnu_cxx12_Lock_policyE2EE15_M_add_ref_copyEv,"axG",@progbits,_ZNSt16_Sp_counted_baseILN9__gnu_cxx12_Lock_policyE2EE15_M_add_ref_copyEv,comdat
	.align	2
	.weak	_ZNSt16_Sp_counted_baseILN9__gnu_cxx12_Lock_policyE2EE15_M_add_ref_copyEv
	.type	_ZNSt16_Sp_counted_baseILN9__gnu_cxx12_Lock_policyE2EE15_M_add_ref_copyEv, %function
_ZNSt16_Sp_counted_baseILN9__gnu_cxx12_Lock_policyE2EE15_M_add_ref_copyEv:
.LFB4715:
	.cfi_startproc
	stp	x29, x30, [sp, -80]!
	.cfi_def_cfa_offset 80
	.cfi_offset 29, -80
	.cfi_offset 30, -72
	mov	x29, sp
	str	x0, [sp, 24]
	ldr	x0, [sp, 24]
	add	x0, x0, 8
	str	x0, [sp, 56]
	mov	w0, 1
	str	w0, [sp, 44]
	adrp	x0, :got:__libc_single_threaded
	ldr	x0, [x0, #:got_lo12:__libc_single_threaded]
	ldrb	w0, [x0]
	cmp	w0, 0
	cset	w0, ne
	and	w0, w0, 255
	cmp	w0, 0
	beq	.L145
	ldr	x0, [sp, 56]
	str	x0, [sp, 64]
	ldr	w0, [sp, 44]
	str	w0, [sp, 48]
	ldr	x0, [sp, 64]
	ldr	w1, [x0]
	ldr	w0, [sp, 48]
	add	w1, w1, w0
	ldr	x0, [sp, 64]
	str	w1, [x0]
	b	.L146
.L145:
	ldr	x0, [sp, 56]
	str	x0, [sp, 72]
	ldr	w0, [sp, 44]
	str	w0, [sp, 52]
	ldr	w0, [sp, 52]
	ldr	x1, [sp, 72]
	bl	__aarch64_ldadd4_acq_rel
	nop
.L146:
	nop
	nop
	ldp	x29, x30, [sp], 80
	.cfi_restore 30
	.cfi_restore 29
	.cfi_def_cfa_offset 0
	ret
	.cfi_endproc
.LFE4715:
	.size	_ZNSt16_Sp_counted_baseILN9__gnu_cxx12_Lock_policyE2EE15_M_add_ref_copyEv, .-_ZNSt16_Sp_counted_baseILN9__gnu_cxx12_Lock_policyE2EE15_M_add_ref_copyEv
	.section	.text._ZNKSt19__shared_ptr_accessI7MessageLN9__gnu_cxx12_Lock_policyE2ELb0ELb0EE6_M_getEv,"axG",@progbits,_ZNKSt19__shared_ptr_accessI7MessageLN9__gnu_cxx12_Lock_policyE2ELb0ELb0EE6_M_getEv,comdat
	.align	2
	.weak	_ZNKSt19__shared_ptr_accessI7MessageLN9__gnu_cxx12_Lock_policyE2ELb0ELb0EE6_M_getEv
	.type	_ZNKSt19__shared_ptr_accessI7MessageLN9__gnu_cxx12_Lock_policyE2ELb0ELb0EE6_M_getEv, %function
_ZNKSt19__shared_ptr_accessI7MessageLN9__gnu_cxx12_Lock_policyE2ELb0ELb0EE6_M_getEv:
.LFB4807:
	.cfi_startproc
	stp	x29, x30, [sp, -32]!
	.cfi_def_cfa_offset 32
	.cfi_offset 29, -32
	.cfi_offset 30, -24
	mov	x29, sp
	str	x0, [sp, 24]
	ldr	x0, [sp, 24]
	bl	_ZNKSt12__shared_ptrI7MessageLN9__gnu_cxx12_Lock_policyE2EE3getEv
	ldp	x29, x30, [sp], 32
	.cfi_restore 30
	.cfi_restore 29
	.cfi_def_cfa_offset 0
	ret
	.cfi_endproc
.LFE4807:
	.size	_ZNKSt19__shared_ptr_accessI7MessageLN9__gnu_cxx12_Lock_policyE2ELb0ELb0EE6_M_getEv, .-_ZNKSt19__shared_ptr_accessI7MessageLN9__gnu_cxx12_Lock_policyE2ELb0ELb0EE6_M_getEv
	.section	.text._ZNSaI6LooperEC2Ev,"axG",@progbits,_ZNSaI6LooperEC5Ev,comdat
	.align	2
	.weak	_ZNSaI6LooperEC2Ev
	.type	_ZNSaI6LooperEC2Ev, %function
_ZNSaI6LooperEC2Ev:
.LFB4811:
	.cfi_startproc
	stp	x29, x30, [sp, -32]!
	.cfi_def_cfa_offset 32
	.cfi_offset 29, -32
	.cfi_offset 30, -24
	mov	x29, sp
	str	x0, [sp, 24]
	ldr	x0, [sp, 24]
	bl	_ZN9__gnu_cxx13new_allocatorI6LooperEC2Ev
	nop
	ldp	x29, x30, [sp], 32
	.cfi_restore 30
	.cfi_restore 29
	.cfi_def_cfa_offset 0
	ret
	.cfi_endproc
.LFE4811:
	.size	_ZNSaI6LooperEC2Ev, .-_ZNSaI6LooperEC2Ev
	.weak	_ZNSaI6LooperEC1Ev
	.set	_ZNSaI6LooperEC1Ev,_ZNSaI6LooperEC2Ev
	.section	.text._ZNSaI6LooperED2Ev,"axG",@progbits,_ZNSaI6LooperED5Ev,comdat
	.align	2
	.weak	_ZNSaI6LooperED2Ev
	.type	_ZNSaI6LooperED2Ev, %function
_ZNSaI6LooperED2Ev:
.LFB4814:
	.cfi_startproc
	stp	x29, x30, [sp, -32]!
	.cfi_def_cfa_offset 32
	.cfi_offset 29, -32
	.cfi_offset 30, -24
	mov	x29, sp
	str	x0, [sp, 24]
	ldr	x0, [sp, 24]
	bl	_ZN9__gnu_cxx13new_allocatorI6LooperED2Ev
	nop
	ldp	x29, x30, [sp], 32
	.cfi_restore 30
	.cfi_restore 29
	.cfi_def_cfa_offset 0
	ret
	.cfi_endproc
.LFE4814:
	.size	_ZNSaI6LooperED2Ev, .-_ZNSaI6LooperED2Ev
	.weak	_ZNSaI6LooperED1Ev
	.set	_ZNSaI6LooperED1Ev,_ZNSaI6LooperED2Ev
	.section	.text._ZSt15allocate_sharedI6LooperSaIS0_EJEESt10shared_ptrIT_ERKT0_DpOT1_,"axG",@progbits,_ZSt15allocate_sharedI6LooperSaIS0_EJEESt10shared_ptrIT_ERKT0_DpOT1_,comdat
	.align	2
	.weak	_ZSt15allocate_sharedI6LooperSaIS0_EJEESt10shared_ptrIT_ERKT0_DpOT1_
	.type	_ZSt15allocate_sharedI6LooperSaIS0_EJEESt10shared_ptrIT_ERKT0_DpOT1_, %function
_ZSt15allocate_sharedI6LooperSaIS0_EJEESt10shared_ptrIT_ERKT0_DpOT1_:
.LFB4816:
	.cfi_startproc
	stp	x29, x30, [sp, -48]!
	.cfi_def_cfa_offset 48
	.cfi_offset 29, -48
	.cfi_offset 30, -40
	mov	x29, sp
	str	x19, [sp, 16]
	.cfi_offset 19, -32
	mov	x19, x8
	str	x0, [sp, 40]
	ldr	x0, [sp, 40]
	mov	x1, x0
	mov	x0, x19
	bl	_ZNSt10shared_ptrI6LooperEC1ISaIS0_EJEEESt20_Sp_alloc_shared_tagIT_EDpOT0_
	mov	x0, x19
	ldr	x19, [sp, 16]
	ldp	x29, x30, [sp], 48
	.cfi_restore 30
	.cfi_restore 29
	.cfi_restore 19
	.cfi_def_cfa_offset 0
	ret
	.cfi_endproc
.LFE4816:
	.size	_ZSt15allocate_sharedI6LooperSaIS0_EJEESt10shared_ptrIT_ERKT0_DpOT1_, .-_ZSt15allocate_sharedI6LooperSaIS0_EJEESt10shared_ptrIT_ERKT0_DpOT1_
	.section	.text._ZNSaI1MEC2Ev,"axG",@progbits,_ZNSaI1MEC5Ev,comdat
	.align	2
	.weak	_ZNSaI1MEC2Ev
	.type	_ZNSaI1MEC2Ev, %function
_ZNSaI1MEC2Ev:
.LFB4818:
	.cfi_startproc
	stp	x29, x30, [sp, -32]!
	.cfi_def_cfa_offset 32
	.cfi_offset 29, -32
	.cfi_offset 30, -24
	mov	x29, sp
	str	x0, [sp, 24]
	ldr	x0, [sp, 24]
	bl	_ZN9__gnu_cxx13new_allocatorI1MEC2Ev
	nop
	ldp	x29, x30, [sp], 32
	.cfi_restore 30
	.cfi_restore 29
	.cfi_def_cfa_offset 0
	ret
	.cfi_endproc
.LFE4818:
	.size	_ZNSaI1MEC2Ev, .-_ZNSaI1MEC2Ev
	.weak	_ZNSaI1MEC1Ev
	.set	_ZNSaI1MEC1Ev,_ZNSaI1MEC2Ev
	.section	.text._ZNSaI1MED2Ev,"axG",@progbits,_ZNSaI1MED5Ev,comdat
	.align	2
	.weak	_ZNSaI1MED2Ev
	.type	_ZNSaI1MED2Ev, %function
_ZNSaI1MED2Ev:
.LFB4821:
	.cfi_startproc
	stp	x29, x30, [sp, -32]!
	.cfi_def_cfa_offset 32
	.cfi_offset 29, -32
	.cfi_offset 30, -24
	mov	x29, sp
	str	x0, [sp, 24]
	ldr	x0, [sp, 24]
	bl	_ZN9__gnu_cxx13new_allocatorI1MED2Ev
	nop
	ldp	x29, x30, [sp], 32
	.cfi_restore 30
	.cfi_restore 29
	.cfi_def_cfa_offset 0
	ret
	.cfi_endproc
.LFE4821:
	.size	_ZNSaI1MED2Ev, .-_ZNSaI1MED2Ev
	.weak	_ZNSaI1MED1Ev
	.set	_ZNSaI1MED1Ev,_ZNSaI1MED2Ev
	.section	.text._ZSt15allocate_sharedI1MSaIS0_EJEESt10shared_ptrIT_ERKT0_DpOT1_,"axG",@progbits,_ZSt15allocate_sharedI1MSaIS0_EJEESt10shared_ptrIT_ERKT0_DpOT1_,comdat
	.align	2
	.weak	_ZSt15allocate_sharedI1MSaIS0_EJEESt10shared_ptrIT_ERKT0_DpOT1_
	.type	_ZSt15allocate_sharedI1MSaIS0_EJEESt10shared_ptrIT_ERKT0_DpOT1_, %function
_ZSt15allocate_sharedI1MSaIS0_EJEESt10shared_ptrIT_ERKT0_DpOT1_:
.LFB4823:
	.cfi_startproc
	stp	x29, x30, [sp, -48]!
	.cfi_def_cfa_offset 48
	.cfi_offset 29, -48
	.cfi_offset 30, -40
	mov	x29, sp
	str	x19, [sp, 16]
	.cfi_offset 19, -32
	mov	x19, x8
	str	x0, [sp, 40]
	ldr	x0, [sp, 40]
	mov	x1, x0
	mov	x0, x19
	bl	_ZNSt10shared_ptrI1MEC1ISaIS0_EJEEESt20_Sp_alloc_shared_tagIT_EDpOT0_
	mov	x0, x19
	ldr	x19, [sp, 16]
	ldp	x29, x30, [sp], 48
	.cfi_restore 30
	.cfi_restore 29
	.cfi_restore 19
	.cfi_def_cfa_offset 0
	ret
	.cfi_endproc
.LFE4823:
	.size	_ZSt15allocate_sharedI1MSaIS0_EJEESt10shared_ptrIT_ERKT0_DpOT1_, .-_ZSt15allocate_sharedI1MSaIS0_EJEESt10shared_ptrIT_ERKT0_DpOT1_
	.section	.text._ZNKSt19__shared_ptr_accessI6LooperLN9__gnu_cxx12_Lock_policyE2ELb0ELb0EE6_M_getEv,"axG",@progbits,_ZNKSt19__shared_ptr_accessI6LooperLN9__gnu_cxx12_Lock_policyE2ELb0ELb0EE6_M_getEv,comdat
	.align	2
	.weak	_ZNKSt19__shared_ptr_accessI6LooperLN9__gnu_cxx12_Lock_policyE2ELb0ELb0EE6_M_getEv
	.type	_ZNKSt19__shared_ptr_accessI6LooperLN9__gnu_cxx12_Lock_policyE2ELb0ELb0EE6_M_getEv, %function
_ZNKSt19__shared_ptr_accessI6LooperLN9__gnu_cxx12_Lock_policyE2ELb0ELb0EE6_M_getEv:
.LFB4824:
	.cfi_startproc
	stp	x29, x30, [sp, -32]!
	.cfi_def_cfa_offset 32
	.cfi_offset 29, -32
	.cfi_offset 30, -24
	mov	x29, sp
	str	x0, [sp, 24]
	ldr	x0, [sp, 24]
	bl	_ZNKSt12__shared_ptrI6LooperLN9__gnu_cxx12_Lock_policyE2EE3getEv
	ldp	x29, x30, [sp], 32
	.cfi_restore 30
	.cfi_restore 29
	.cfi_def_cfa_offset 0
	ret
	.cfi_endproc
.LFE4824:
	.size	_ZNKSt19__shared_ptr_accessI6LooperLN9__gnu_cxx12_Lock_policyE2ELb0ELb0EE6_M_getEv, .-_ZNKSt19__shared_ptr_accessI6LooperLN9__gnu_cxx12_Lock_policyE2ELb0ELb0EE6_M_getEv
	.text
	.align	2
	.type	_ZSt7forwardIZ4mainEUlvE_EOT_RNSt16remove_referenceIS1_E4typeE, %function
_ZSt7forwardIZ4mainEUlvE_EOT_RNSt16remove_referenceIS1_E4typeE:
.LFB4825:
	.cfi_startproc
	sub	sp, sp, #16
	.cfi_def_cfa_offset 16
	str	x0, [sp, 8]
	ldr	x0, [sp, 8]
	add	sp, sp, 16
	.cfi_def_cfa_offset 0
	ret
	.cfi_endproc
.LFE4825:
	.size	_ZSt7forwardIZ4mainEUlvE_EOT_RNSt16remove_referenceIS1_E4typeE, .-_ZSt7forwardIZ4mainEUlvE_EOT_RNSt16remove_referenceIS1_E4typeE
	.section	.text._ZNSt6thread6_StateC2Ev,"axG",@progbits,_ZNSt6thread6_StateC5Ev,comdat
	.align	2
	.weak	_ZNSt6thread6_StateC2Ev
	.type	_ZNSt6thread6_StateC2Ev, %function
_ZNSt6thread6_StateC2Ev:
.LFB4828:
	.cfi_startproc
	sub	sp, sp, #16
	.cfi_def_cfa_offset 16
	str	x0, [sp, 8]
	adrp	x0, :got:_ZTVNSt6thread6_StateE
	ldr	x0, [x0, #:got_lo12:_ZTVNSt6thread6_StateE]
	add	x1, x0, 16
	ldr	x0, [sp, 8]
	str	x1, [x0]
	nop
	add	sp, sp, 16
	.cfi_def_cfa_offset 0
	ret
	.cfi_endproc
.LFE4828:
	.size	_ZNSt6thread6_StateC2Ev, .-_ZNSt6thread6_StateC2Ev
	.weak	_ZNSt6thread6_StateC1Ev
	.set	_ZNSt6thread6_StateC1Ev,_ZNSt6thread6_StateC2Ev
	.text
	.align	2
	.type	_ZNSt5tupleIJZ4mainEUlvE_EEC2IJS0_ELb1ELb1EEEDpOT_, %function
_ZNSt5tupleIJZ4mainEUlvE_EEC2IJS0_ELb1ELb1EEEDpOT_:
.LFB4837:
	.cfi_startproc
	.cfi_personality 0x9b,DW.ref.__gxx_personality_v0
	.cfi_lsda 0x1b,.LLSDA4837
	stp	x29, x30, [sp, -48]!
	.cfi_def_cfa_offset 48
	.cfi_offset 29, -48
	.cfi_offset 30, -40
	mov	x29, sp
	str	x19, [sp, 16]
	.cfi_offset 19, -32
	str	x0, [sp, 40]
	str	x1, [sp, 32]
	ldr	x19, [sp, 40]
	ldr	x0, [sp, 32]
	bl	_ZSt7forwardIZ4mainEUlvE_EOT_RNSt16remove_referenceIS1_E4typeE
	mov	x1, x0
	mov	x0, x19
	bl	_ZNSt11_Tuple_implILm0EJZ4mainEUlvE_EEC2IS0_EEOT_
	nop
	ldr	x19, [sp, 16]
	ldp	x29, x30, [sp], 48
	.cfi_restore 30
	.cfi_restore 29
	.cfi_restore 19
	.cfi_def_cfa_offset 0
	ret
	.cfi_endproc
.LFE4837:
	.section	.gcc_except_table
.LLSDA4837:
	.byte	0xff
	.byte	0xff
	.byte	0x1
	.uleb128 .LLSDACSE4837-.LLSDACSB4837
.LLSDACSB4837:
.LLSDACSE4837:
	.text
	.size	_ZNSt5tupleIJZ4mainEUlvE_EEC2IJS0_ELb1ELb1EEEDpOT_, .-_ZNSt5tupleIJZ4mainEUlvE_EEC2IJS0_ELb1ELb1EEEDpOT_
	.set	_ZNSt5tupleIJZ4mainEUlvE_EEC1IJS0_ELb1ELb1EEEDpOT_,_ZNSt5tupleIJZ4mainEUlvE_EEC2IJS0_ELb1ELb1EEEDpOT_
	.align	2
	.type	_ZNSt6thread11_State_implINS_8_InvokerISt5tupleIJZ4mainEUlvE_EEEEEC2IJS3_EEEDpOT_, %function
_ZNSt6thread11_State_implINS_8_InvokerISt5tupleIJZ4mainEUlvE_EEEEEC2IJS3_EEEDpOT_:
.LFB4839:
	.cfi_startproc
	stp	x29, x30, [sp, -48]!
	.cfi_def_cfa_offset 48
	.cfi_offset 29, -48
	.cfi_offset 30, -40
	mov	x29, sp
	str	x19, [sp, 16]
	.cfi_offset 19, -32
	str	x0, [sp, 40]
	str	x1, [sp, 32]
	ldr	x0, [sp, 40]
	bl	_ZNSt6thread6_StateC2Ev
	adrp	x0, _ZTVNSt6thread11_State_implINS_8_InvokerISt5tupleIJZ4mainEUlvE_EEEEEE+16
	add	x1, x0, :lo12:_ZTVNSt6thread11_State_implINS_8_InvokerISt5tupleIJZ4mainEUlvE_EEEEEE+16
	ldr	x0, [sp, 40]
	str	x1, [x0]
	ldr	x0, [sp, 40]
	add	x19, x0, 8
	ldr	x0, [sp, 32]
	bl	_ZSt7forwardIZ4mainEUlvE_EOT_RNSt16remove_referenceIS1_E4typeE
	mov	x1, x0
	mov	x0, x19
	bl	_ZNSt5tupleIJZ4mainEUlvE_EEC1IJS0_ELb1ELb1EEEDpOT_
	nop
	ldr	x19, [sp, 16]
	ldp	x29, x30, [sp], 48
	.cfi_restore 30
	.cfi_restore 29
	.cfi_restore 19
	.cfi_def_cfa_offset 0
	ret
	.cfi_endproc
.LFE4839:
	.size	_ZNSt6thread11_State_implINS_8_InvokerISt5tupleIJZ4mainEUlvE_EEEEEC2IJS3_EEEDpOT_, .-_ZNSt6thread11_State_implINS_8_InvokerISt5tupleIJZ4mainEUlvE_EEEEEC2IJS3_EEEDpOT_
	.set	_ZNSt6thread11_State_implINS_8_InvokerISt5tupleIJZ4mainEUlvE_EEEEEC1IJS3_EEEDpOT_,_ZNSt6thread11_State_implINS_8_InvokerISt5tupleIJZ4mainEUlvE_EEEEEC2IJS3_EEEDpOT_
	.section	.text._ZNSt15__uniq_ptr_dataINSt6thread6_StateESt14default_deleteIS1_ELb1ELb1EECI2St15__uniq_ptr_implIS1_S3_EEPS1_,"axG",@progbits,_ZNSt15__uniq_ptr_dataINSt6thread6_StateESt14default_deleteIS1_ELb1ELb1EECI5St15__uniq_ptr_implIS1_S3_EEPS1_,comdat
	.align	2
	.weak	_ZNSt15__uniq_ptr_dataINSt6thread6_StateESt14default_deleteIS1_ELb1ELb1EECI2St15__uniq_ptr_implIS1_S3_EEPS1_
	.type	_ZNSt15__uniq_ptr_dataINSt6thread6_StateESt14default_deleteIS1_ELb1ELb1EECI2St15__uniq_ptr_implIS1_S3_EEPS1_, %function
_ZNSt15__uniq_ptr_dataINSt6thread6_StateESt14default_deleteIS1_ELb1ELb1EECI2St15__uniq_ptr_implIS1_S3_EEPS1_:
.LFB4843:
	.cfi_startproc
	stp	x29, x30, [sp, -32]!
	.cfi_def_cfa_offset 32
	.cfi_offset 29, -32
	.cfi_offset 30, -24
	mov	x29, sp
	str	x0, [sp, 24]
	str	x1, [sp, 16]
	ldr	x0, [sp, 24]
	ldr	x1, [sp, 16]
	bl	_ZNSt15__uniq_ptr_implINSt6thread6_StateESt14default_deleteIS1_EEC2EPS1_
	nop
	ldp	x29, x30, [sp], 32
	.cfi_restore 30
	.cfi_restore 29
	.cfi_def_cfa_offset 0
	ret
	.cfi_endproc
.LFE4843:
	.size	_ZNSt15__uniq_ptr_dataINSt6thread6_StateESt14default_deleteIS1_ELb1ELb1EECI2St15__uniq_ptr_implIS1_S3_EEPS1_, .-_ZNSt15__uniq_ptr_dataINSt6thread6_StateESt14default_deleteIS1_ELb1ELb1EECI2St15__uniq_ptr_implIS1_S3_EEPS1_
	.weak	_ZNSt15__uniq_ptr_dataINSt6thread6_StateESt14default_deleteIS1_ELb1ELb1EECI1St15__uniq_ptr_implIS1_S3_EEPS1_
	.set	_ZNSt15__uniq_ptr_dataINSt6thread6_StateESt14default_deleteIS1_ELb1ELb1EECI1St15__uniq_ptr_implIS1_S3_EEPS1_,_ZNSt15__uniq_ptr_dataINSt6thread6_StateESt14default_deleteIS1_ELb1ELb1EECI2St15__uniq_ptr_implIS1_S3_EEPS1_
	.section	.text._ZNSt10unique_ptrINSt6thread6_StateESt14default_deleteIS1_EEC2IS3_vEEPS1_,"axG",@progbits,_ZNSt10unique_ptrINSt6thread6_StateESt14default_deleteIS1_EEC5IS3_vEEPS1_,comdat
	.align	2
	.weak	_ZNSt10unique_ptrINSt6thread6_StateESt14default_deleteIS1_EEC2IS3_vEEPS1_
	.type	_ZNSt10unique_ptrINSt6thread6_StateESt14default_deleteIS1_EEC2IS3_vEEPS1_, %function
_ZNSt10unique_ptrINSt6thread6_StateESt14default_deleteIS1_EEC2IS3_vEEPS1_:
.LFB4845:
	.cfi_startproc
	.cfi_personality 0x9b,DW.ref.__gxx_personality_v0
	.cfi_lsda 0x1b,.LLSDA4845
	stp	x29, x30, [sp, -32]!
	.cfi_def_cfa_offset 32
	.cfi_offset 29, -32
	.cfi_offset 30, -24
	mov	x29, sp
	str	x0, [sp, 24]
	str	x1, [sp, 16]
	ldr	x0, [sp, 24]
	ldr	x1, [sp, 16]
	bl	_ZNSt15__uniq_ptr_dataINSt6thread6_StateESt14default_deleteIS1_ELb1ELb1EECI1St15__uniq_ptr_implIS1_S3_EEPS1_
	nop
	ldp	x29, x30, [sp], 32
	.cfi_restore 30
	.cfi_restore 29
	.cfi_def_cfa_offset 0
	ret
	.cfi_endproc
.LFE4845:
	.section	.gcc_except_table
.LLSDA4845:
	.byte	0xff
	.byte	0xff
	.byte	0x1
	.uleb128 .LLSDACSE4845-.LLSDACSB4845
.LLSDACSB4845:
.LLSDACSE4845:
	.section	.text._ZNSt10unique_ptrINSt6thread6_StateESt14default_deleteIS1_EEC2IS3_vEEPS1_,"axG",@progbits,_ZNSt10unique_ptrINSt6thread6_StateESt14default_deleteIS1_EEC5IS3_vEEPS1_,comdat
	.size	_ZNSt10unique_ptrINSt6thread6_StateESt14default_deleteIS1_EEC2IS3_vEEPS1_, .-_ZNSt10unique_ptrINSt6thread6_StateESt14default_deleteIS1_EEC2IS3_vEEPS1_
	.weak	_ZNSt10unique_ptrINSt6thread6_StateESt14default_deleteIS1_EEC1IS3_vEEPS1_
	.set	_ZNSt10unique_ptrINSt6thread6_StateESt14default_deleteIS1_EEC1IS3_vEEPS1_,_ZNSt10unique_ptrINSt6thread6_StateESt14default_deleteIS1_EEC2IS3_vEEPS1_
	.section	.text._ZNSt10unique_ptrINSt6thread6_StateESt14default_deleteIS1_EED2Ev,"axG",@progbits,_ZNSt10unique_ptrINSt6thread6_StateESt14default_deleteIS1_EED5Ev,comdat
	.align	2
	.weak	_ZNSt10unique_ptrINSt6thread6_StateESt14default_deleteIS1_EED2Ev
	.type	_ZNSt10unique_ptrINSt6thread6_StateESt14default_deleteIS1_EED2Ev, %function
_ZNSt10unique_ptrINSt6thread6_StateESt14default_deleteIS1_EED2Ev:
.LFB4848:
	.cfi_startproc
	stp	x29, x30, [sp, -64]!
	.cfi_def_cfa_offset 64
	.cfi_offset 29, -64
	.cfi_offset 30, -56
	mov	x29, sp
	str	x19, [sp, 16]
	.cfi_offset 19, -48
	str	x0, [sp, 40]
	ldr	x0, [sp, 40]
	bl	_ZNSt15__uniq_ptr_implINSt6thread6_StateESt14default_deleteIS1_EE6_M_ptrEv
	str	x0, [sp, 56]
	ldr	x0, [sp, 56]
	ldr	x0, [x0]
	cmp	x0, 0
	beq	.L167
	ldr	x0, [sp, 40]
	bl	_ZNSt10unique_ptrINSt6thread6_StateESt14default_deleteIS1_EE11get_deleterEv
	mov	x19, x0
	ldr	x0, [sp, 56]
	bl	_ZSt4moveIRPNSt6thread6_StateEEONSt16remove_referenceIT_E4typeEOS5_
	ldr	x0, [x0]
	mov	x1, x0
	mov	x0, x19
	bl	_ZNKSt14default_deleteINSt6thread6_StateEEclEPS1_
.L167:
	ldr	x0, [sp, 56]
	str	xzr, [x0]
	nop
	ldr	x19, [sp, 16]
	ldp	x29, x30, [sp], 64
	.cfi_restore 30
	.cfi_restore 29
	.cfi_restore 19
	.cfi_def_cfa_offset 0
	ret
	.cfi_endproc
.LFE4848:
	.size	_ZNSt10unique_ptrINSt6thread6_StateESt14default_deleteIS1_EED2Ev, .-_ZNSt10unique_ptrINSt6thread6_StateESt14default_deleteIS1_EED2Ev
	.weak	_ZNSt10unique_ptrINSt6thread6_StateESt14default_deleteIS1_EED1Ev
	.set	_ZNSt10unique_ptrINSt6thread6_StateESt14default_deleteIS1_EED1Ev,_ZNSt10unique_ptrINSt6thread6_StateESt14default_deleteIS1_EED2Ev
	.section	.text._ZNSaI7MessageEC2Ev,"axG",@progbits,_ZNSaI7MessageEC5Ev,comdat
	.align	2
	.weak	_ZNSaI7MessageEC2Ev
	.type	_ZNSaI7MessageEC2Ev, %function
_ZNSaI7MessageEC2Ev:
.LFB4851:
	.cfi_startproc
	stp	x29, x30, [sp, -32]!
	.cfi_def_cfa_offset 32
	.cfi_offset 29, -32
	.cfi_offset 30, -24
	mov	x29, sp
	str	x0, [sp, 24]
	ldr	x0, [sp, 24]
	bl	_ZN9__gnu_cxx13new_allocatorI7MessageEC2Ev
	nop
	ldp	x29, x30, [sp], 32
	.cfi_restore 30
	.cfi_restore 29
	.cfi_def_cfa_offset 0
	ret
	.cfi_endproc
.LFE4851:
	.size	_ZNSaI7MessageEC2Ev, .-_ZNSaI7MessageEC2Ev
	.weak	_ZNSaI7MessageEC1Ev
	.set	_ZNSaI7MessageEC1Ev,_ZNSaI7MessageEC2Ev
	.section	.text._ZNSaI7MessageED2Ev,"axG",@progbits,_ZNSaI7MessageED5Ev,comdat
	.align	2
	.weak	_ZNSaI7MessageED2Ev
	.type	_ZNSaI7MessageED2Ev, %function
_ZNSaI7MessageED2Ev:
.LFB4854:
	.cfi_startproc
	stp	x29, x30, [sp, -32]!
	.cfi_def_cfa_offset 32
	.cfi_offset 29, -32
	.cfi_offset 30, -24
	mov	x29, sp
	str	x0, [sp, 24]
	ldr	x0, [sp, 24]
	bl	_ZN9__gnu_cxx13new_allocatorI7MessageED2Ev
	nop
	ldp	x29, x30, [sp], 32
	.cfi_restore 30
	.cfi_restore 29
	.cfi_def_cfa_offset 0
	ret
	.cfi_endproc
.LFE4854:
	.size	_ZNSaI7MessageED2Ev, .-_ZNSaI7MessageED2Ev
	.weak	_ZNSaI7MessageED1Ev
	.set	_ZNSaI7MessageED1Ev,_ZNSaI7MessageED2Ev
	.section	.text._ZSt15allocate_sharedI7MessageSaIS0_EJiEESt10shared_ptrIT_ERKT0_DpOT1_,"axG",@progbits,_ZSt15allocate_sharedI7MessageSaIS0_EJiEESt10shared_ptrIT_ERKT0_DpOT1_,comdat
	.align	2
	.weak	_ZSt15allocate_sharedI7MessageSaIS0_EJiEESt10shared_ptrIT_ERKT0_DpOT1_
	.type	_ZSt15allocate_sharedI7MessageSaIS0_EJiEESt10shared_ptrIT_ERKT0_DpOT1_, %function
_ZSt15allocate_sharedI7MessageSaIS0_EJiEESt10shared_ptrIT_ERKT0_DpOT1_:
.LFB4856:
	.cfi_startproc
	stp	x29, x30, [sp, -48]!
	.cfi_def_cfa_offset 48
	.cfi_offset 29, -48
	.cfi_offset 30, -40
	mov	x29, sp
	stp	x19, x20, [sp, 16]
	.cfi_offset 19, -32
	.cfi_offset 20, -24
	mov	x19, x8
	str	x0, [sp, 40]
	str	x1, [sp, 32]
	ldr	x20, [sp, 40]
	ldr	x0, [sp, 32]
	bl	_ZSt7forwardIiEOT_RNSt16remove_referenceIS0_E4typeE
	mov	x2, x0
	mov	x1, x20
	mov	x0, x19
	bl	_ZNSt10shared_ptrI7MessageEC1ISaIS0_EJiEEESt20_Sp_alloc_shared_tagIT_EDpOT0_
	mov	x0, x19
	ldp	x19, x20, [sp, 16]
	ldp	x29, x30, [sp], 48
	.cfi_restore 30
	.cfi_restore 29
	.cfi_restore 19
	.cfi_restore 20
	.cfi_def_cfa_offset 0
	ret
	.cfi_endproc
.LFE4856:
	.size	_ZSt15allocate_sharedI7MessageSaIS0_EJiEESt10shared_ptrIT_ERKT0_DpOT1_, .-_ZSt15allocate_sharedI7MessageSaIS0_EJiEESt10shared_ptrIT_ERKT0_DpOT1_
	.section	.text._ZNSt12__shared_ptrI14MessageHandlerLN9__gnu_cxx12_Lock_policyE2EEC2I1MvEERKS_IT_LS2_2EE,"axG",@progbits,_ZNSt12__shared_ptrI14MessageHandlerLN9__gnu_cxx12_Lock_policyE2EEC5I1MvEERKS_IT_LS2_2EE,comdat
	.align	2
	.weak	_ZNSt12__shared_ptrI14MessageHandlerLN9__gnu_cxx12_Lock_policyE2EEC2I1MvEERKS_IT_LS2_2EE
	.type	_ZNSt12__shared_ptrI14MessageHandlerLN9__gnu_cxx12_Lock_policyE2EEC2I1MvEERKS_IT_LS2_2EE, %function
_ZNSt12__shared_ptrI14MessageHandlerLN9__gnu_cxx12_Lock_policyE2EEC2I1MvEERKS_IT_LS2_2EE:
.LFB4858:
	.cfi_startproc
	stp	x29, x30, [sp, -32]!
	.cfi_def_cfa_offset 32
	.cfi_offset 29, -32
	.cfi_offset 30, -24
	mov	x29, sp
	str	x0, [sp, 24]
	str	x1, [sp, 16]
	ldr	x0, [sp, 16]
	ldr	x1, [x0]
	ldr	x0, [sp, 24]
	str	x1, [x0]
	ldr	x0, [sp, 24]
	add	x2, x0, 8
	ldr	x0, [sp, 16]
	add	x0, x0, 8
	mov	x1, x0
	mov	x0, x2
	bl	_ZNSt14__shared_countILN9__gnu_cxx12_Lock_policyE2EEC1ERKS2_
	nop
	ldp	x29, x30, [sp], 32
	.cfi_restore 30
	.cfi_restore 29
	.cfi_def_cfa_offset 0
	ret
	.cfi_endproc
.LFE4858:
	.size	_ZNSt12__shared_ptrI14MessageHandlerLN9__gnu_cxx12_Lock_policyE2EEC2I1MvEERKS_IT_LS2_2EE, .-_ZNSt12__shared_ptrI14MessageHandlerLN9__gnu_cxx12_Lock_policyE2EEC2I1MvEERKS_IT_LS2_2EE
	.weak	_ZNSt12__shared_ptrI14MessageHandlerLN9__gnu_cxx12_Lock_policyE2EEC1I1MvEERKS_IT_LS2_2EE
	.set	_ZNSt12__shared_ptrI14MessageHandlerLN9__gnu_cxx12_Lock_policyE2EEC1I1MvEERKS_IT_LS2_2EE,_ZNSt12__shared_ptrI14MessageHandlerLN9__gnu_cxx12_Lock_policyE2EEC2I1MvEERKS_IT_LS2_2EE
	.section	.text._ZNSt8literals15chrono_literals16__check_overflowINSt6chrono8durationIlSt5ratioILl1ELl1EEEEJLc49EEEET_v,"axG",@progbits,_ZNSt8literals15chrono_literals16__check_overflowINSt6chrono8durationIlSt5ratioILl1ELl1EEEEJLc49EEEET_v,comdat
	.align	2
	.weak	_ZNSt8literals15chrono_literals16__check_overflowINSt6chrono8durationIlSt5ratioILl1ELl1EEEEJLc49EEEET_v
	.type	_ZNSt8literals15chrono_literals16__check_overflowINSt6chrono8durationIlSt5ratioILl1ELl1EEEEJLc49EEEET_v, %function
_ZNSt8literals15chrono_literals16__check_overflowINSt6chrono8durationIlSt5ratioILl1ELl1EEEEJLc49EEEET_v:
.LFB4860:
	.cfi_startproc
	stp	x29, x30, [sp, -48]!
	.cfi_def_cfa_offset 48
	.cfi_offset 29, -48
	.cfi_offset 30, -40
	mov	x29, sp
	adrp	x0, :got:__stack_chk_guard
	ldr	x0, [x0, #:got_lo12:__stack_chk_guard]
	ldr	x1, [x0]
	str	x1, [sp, 40]
	mov	x1, 0
	mov	x0, 1
	str	x0, [sp, 24]
	add	x1, sp, 24
	add	x0, sp, 32
	bl	_ZNSt6chrono8durationIlSt5ratioILl1ELl1EEEC1IlvEERKT_
	ldr	x0, [sp, 32]
	mov	x1, x0
	adrp	x0, :got:__stack_chk_guard
	ldr	x0, [x0, #:got_lo12:__stack_chk_guard]
	ldr	x3, [sp, 40]
	ldr	x2, [x0]
	subs	x3, x3, x2
	mov	x2, 0
	beq	.L175
	bl	__stack_chk_fail
.L175:
	mov	x0, x1
	ldp	x29, x30, [sp], 48
	.cfi_restore 30
	.cfi_restore 29
	.cfi_def_cfa_offset 0
	ret
	.cfi_endproc
.LFE4860:
	.size	_ZNSt8literals15chrono_literals16__check_overflowINSt6chrono8durationIlSt5ratioILl1ELl1EEEEJLc49EEEET_v, .-_ZNSt8literals15chrono_literals16__check_overflowINSt6chrono8durationIlSt5ratioILl1ELl1EEEEJLc49EEEET_v
	.section	.text._ZNSt6chrono20__duration_cast_implINS_8durationIlSt5ratioILl1ELl1000000000EEEES2_ILl1000000000ELl1EElLb0ELb1EE6__castIlS2_ILl1ELl1EEEES4_RKNS1_IT_T0_EE,"axG",@progbits,_ZNSt6chrono20__duration_cast_implINS_8durationIlSt5ratioILl1ELl1000000000EEEES2_ILl1000000000ELl1EElLb0ELb1EE6__castIlS2_ILl1ELl1EEEES4_RKNS1_IT_T0_EE,comdat
	.align	2
	.weak	_ZNSt6chrono20__duration_cast_implINS_8durationIlSt5ratioILl1ELl1000000000EEEES2_ILl1000000000ELl1EElLb0ELb1EE6__castIlS2_ILl1ELl1EEEES4_RKNS1_IT_T0_EE
	.type	_ZNSt6chrono20__duration_cast_implINS_8durationIlSt5ratioILl1ELl1000000000EEEES2_ILl1000000000ELl1EElLb0ELb1EE6__castIlS2_ILl1ELl1EEEES4_RKNS1_IT_T0_EE, %function
_ZNSt6chrono20__duration_cast_implINS_8durationIlSt5ratioILl1ELl1000000000EEEES2_ILl1000000000ELl1EElLb0ELb1EE6__castIlS2_ILl1ELl1EEEES4_RKNS1_IT_T0_EE:
.LFB4861:
	.cfi_startproc
	stp	x29, x30, [sp, -64]!
	.cfi_def_cfa_offset 64
	.cfi_offset 29, -64
	.cfi_offset 30, -56
	mov	x29, sp
	str	x0, [sp, 24]
	adrp	x0, :got:__stack_chk_guard
	ldr	x0, [x0, #:got_lo12:__stack_chk_guard]
	ldr	x1, [x0]
	str	x1, [sp, 56]
	mov	x1, 0
	ldr	x0, [sp, 24]
	bl	_ZNKSt6chrono8durationIlSt5ratioILl1ELl1EEE5countEv
	mov	x1, x0
	mov	x0, 51712
	movk	x0, 0x3b9a, lsl 16
	mul	x0, x1, x0
	str	x0, [sp, 40]
	add	x1, sp, 40
	add	x0, sp, 48
	bl	_ZNSt6chrono8durationIlSt5ratioILl1ELl1000000000EEEC1IlvEERKT_
	ldr	x0, [sp, 48]
	mov	x1, x0
	adrp	x0, :got:__stack_chk_guard
	ldr	x0, [x0, #:got_lo12:__stack_chk_guard]
	ldr	x3, [sp, 56]
	ldr	x2, [x0]
	subs	x3, x3, x2
	mov	x2, 0
	beq	.L178
	bl	__stack_chk_fail
.L178:
	mov	x0, x1
	ldp	x29, x30, [sp], 64
	.cfi_restore 30
	.cfi_restore 29
	.cfi_def_cfa_offset 0
	ret
	.cfi_endproc
.LFE4861:
	.size	_ZNSt6chrono20__duration_cast_implINS_8durationIlSt5ratioILl1ELl1000000000EEEES2_ILl1000000000ELl1EElLb0ELb1EE6__castIlS2_ILl1ELl1EEEES4_RKNS1_IT_T0_EE, .-_ZNSt6chrono20__duration_cast_implINS_8durationIlSt5ratioILl1ELl1000000000EEEES2_ILl1000000000ELl1EElLb0ELb1EE6__castIlS2_ILl1ELl1EEEES4_RKNS1_IT_T0_EE
	.section	.text._ZNSaI9FdHandlerEC2Ev,"axG",@progbits,_ZNSaI9FdHandlerEC5Ev,comdat
	.align	2
	.weak	_ZNSaI9FdHandlerEC2Ev
	.type	_ZNSaI9FdHandlerEC2Ev, %function
_ZNSaI9FdHandlerEC2Ev:
.LFB4863:
	.cfi_startproc
	stp	x29, x30, [sp, -32]!
	.cfi_def_cfa_offset 32
	.cfi_offset 29, -32
	.cfi_offset 30, -24
	mov	x29, sp
	str	x0, [sp, 24]
	ldr	x0, [sp, 24]
	bl	_ZN9__gnu_cxx13new_allocatorI9FdHandlerEC2Ev
	nop
	ldp	x29, x30, [sp], 32
	.cfi_restore 30
	.cfi_restore 29
	.cfi_def_cfa_offset 0
	ret
	.cfi_endproc
.LFE4863:
	.size	_ZNSaI9FdHandlerEC2Ev, .-_ZNSaI9FdHandlerEC2Ev
	.weak	_ZNSaI9FdHandlerEC1Ev
	.set	_ZNSaI9FdHandlerEC1Ev,_ZNSaI9FdHandlerEC2Ev
	.section	.text._ZNSaI9FdHandlerED2Ev,"axG",@progbits,_ZNSaI9FdHandlerED5Ev,comdat
	.align	2
	.weak	_ZNSaI9FdHandlerED2Ev
	.type	_ZNSaI9FdHandlerED2Ev, %function
_ZNSaI9FdHandlerED2Ev:
.LFB4866:
	.cfi_startproc
	stp	x29, x30, [sp, -32]!
	.cfi_def_cfa_offset 32
	.cfi_offset 29, -32
	.cfi_offset 30, -24
	mov	x29, sp
	str	x0, [sp, 24]
	ldr	x0, [sp, 24]
	bl	_ZN9__gnu_cxx13new_allocatorI9FdHandlerED2Ev
	nop
	ldp	x29, x30, [sp], 32
	.cfi_restore 30
	.cfi_restore 29
	.cfi_def_cfa_offset 0
	ret
	.cfi_endproc
.LFE4866:
	.size	_ZNSaI9FdHandlerED2Ev, .-_ZNSaI9FdHandlerED2Ev
	.weak	_ZNSaI9FdHandlerED1Ev
	.set	_ZNSaI9FdHandlerED1Ev,_ZNSaI9FdHandlerED2Ev
	.section	.text._ZSt15allocate_sharedI9FdHandlerSaIS0_EJEESt10shared_ptrIT_ERKT0_DpOT1_,"axG",@progbits,_ZSt15allocate_sharedI9FdHandlerSaIS0_EJEESt10shared_ptrIT_ERKT0_DpOT1_,comdat
	.align	2
	.weak	_ZSt15allocate_sharedI9FdHandlerSaIS0_EJEESt10shared_ptrIT_ERKT0_DpOT1_
	.type	_ZSt15allocate_sharedI9FdHandlerSaIS0_EJEESt10shared_ptrIT_ERKT0_DpOT1_, %function
_ZSt15allocate_sharedI9FdHandlerSaIS0_EJEESt10shared_ptrIT_ERKT0_DpOT1_:
.LFB4868:
	.cfi_startproc
	stp	x29, x30, [sp, -48]!
	.cfi_def_cfa_offset 48
	.cfi_offset 29, -48
	.cfi_offset 30, -40
	mov	x29, sp
	str	x19, [sp, 16]
	.cfi_offset 19, -32
	mov	x19, x8
	str	x0, [sp, 40]
	ldr	x0, [sp, 40]
	mov	x1, x0
	mov	x0, x19
	bl	_ZNSt10shared_ptrI9FdHandlerEC1ISaIS0_EJEEESt20_Sp_alloc_shared_tagIT_EDpOT0_
	mov	x0, x19
	ldr	x19, [sp, 16]
	ldp	x29, x30, [sp], 48
	.cfi_restore 30
	.cfi_restore 29
	.cfi_restore 19
	.cfi_def_cfa_offset 0
	ret
	.cfi_endproc
.LFE4868:
	.size	_ZSt15allocate_sharedI9FdHandlerSaIS0_EJEESt10shared_ptrIT_ERKT0_DpOT1_, .-_ZSt15allocate_sharedI9FdHandlerSaIS0_EJEESt10shared_ptrIT_ERKT0_DpOT1_
	.section	.text._ZSt4moveIRSt10shared_ptrI9FdHandlerEEONSt16remove_referenceIT_E4typeEOS5_,"axG",@progbits,_ZSt4moveIRSt10shared_ptrI9FdHandlerEEONSt16remove_referenceIT_E4typeEOS5_,comdat
	.align	2
	.weak	_ZSt4moveIRSt10shared_ptrI9FdHandlerEEONSt16remove_referenceIT_E4typeEOS5_
	.type	_ZSt4moveIRSt10shared_ptrI9FdHandlerEEONSt16remove_referenceIT_E4typeEOS5_, %function
_ZSt4moveIRSt10shared_ptrI9FdHandlerEEONSt16remove_referenceIT_E4typeEOS5_:
.LFB4869:
	.cfi_startproc
	sub	sp, sp, #16
	.cfi_def_cfa_offset 16
	str	x0, [sp, 8]
	ldr	x0, [sp, 8]
	add	sp, sp, 16
	.cfi_def_cfa_offset 0
	ret
	.cfi_endproc
.LFE4869:
	.size	_ZSt4moveIRSt10shared_ptrI9FdHandlerEEONSt16remove_referenceIT_E4typeEOS5_, .-_ZSt4moveIRSt10shared_ptrI9FdHandlerEEONSt16remove_referenceIT_E4typeEOS5_
	.section	.text._ZNSt12__shared_ptrI14LooperCallbackLN9__gnu_cxx12_Lock_policyE2EEC2I9FdHandlervEEOS_IT_LS2_2EE,"axG",@progbits,_ZNSt12__shared_ptrI14LooperCallbackLN9__gnu_cxx12_Lock_policyE2EEC5I9FdHandlervEEOS_IT_LS2_2EE,comdat
	.align	2
	.weak	_ZNSt12__shared_ptrI14LooperCallbackLN9__gnu_cxx12_Lock_policyE2EEC2I9FdHandlervEEOS_IT_LS2_2EE
	.type	_ZNSt12__shared_ptrI14LooperCallbackLN9__gnu_cxx12_Lock_policyE2EEC2I9FdHandlervEEOS_IT_LS2_2EE, %function
_ZNSt12__shared_ptrI14LooperCallbackLN9__gnu_cxx12_Lock_policyE2EEC2I9FdHandlervEEOS_IT_LS2_2EE:
.LFB4871:
	.cfi_startproc
	stp	x29, x30, [sp, -32]!
	.cfi_def_cfa_offset 32
	.cfi_offset 29, -32
	.cfi_offset 30, -24
	mov	x29, sp
	str	x0, [sp, 24]
	str	x1, [sp, 16]
	ldr	x0, [sp, 16]
	ldr	x1, [x0]
	ldr	x0, [sp, 24]
	str	x1, [x0]
	ldr	x0, [sp, 24]
	add	x0, x0, 8
	bl	_ZNSt14__shared_countILN9__gnu_cxx12_Lock_policyE2EEC1Ev
	ldr	x0, [sp, 24]
	add	x2, x0, 8
	ldr	x0, [sp, 16]
	add	x0, x0, 8
	mov	x1, x0
	mov	x0, x2
	bl	_ZNSt14__shared_countILN9__gnu_cxx12_Lock_policyE2EE7_M_swapERS2_
	ldr	x0, [sp, 16]
	str	xzr, [x0]
	nop
	ldp	x29, x30, [sp], 32
	.cfi_restore 30
	.cfi_restore 29
	.cfi_def_cfa_offset 0
	ret
	.cfi_endproc
.LFE4871:
	.size	_ZNSt12__shared_ptrI14LooperCallbackLN9__gnu_cxx12_Lock_policyE2EEC2I9FdHandlervEEOS_IT_LS2_2EE, .-_ZNSt12__shared_ptrI14LooperCallbackLN9__gnu_cxx12_Lock_policyE2EEC2I9FdHandlervEEOS_IT_LS2_2EE
	.weak	_ZNSt12__shared_ptrI14LooperCallbackLN9__gnu_cxx12_Lock_policyE2EEC1I9FdHandlervEEOS_IT_LS2_2EE
	.set	_ZNSt12__shared_ptrI14LooperCallbackLN9__gnu_cxx12_Lock_policyE2EEC1I9FdHandlervEEOS_IT_LS2_2EE,_ZNSt12__shared_ptrI14LooperCallbackLN9__gnu_cxx12_Lock_policyE2EEC2I9FdHandlervEEOS_IT_LS2_2EE
	.section	.text._ZNSt12__weak_countILN9__gnu_cxx12_Lock_policyE2EEC2Ev,"axG",@progbits,_ZNSt12__weak_countILN9__gnu_cxx12_Lock_policyE2EEC5Ev,comdat
	.align	2
	.weak	_ZNSt12__weak_countILN9__gnu_cxx12_Lock_policyE2EEC2Ev
	.type	_ZNSt12__weak_countILN9__gnu_cxx12_Lock_policyE2EEC2Ev, %function
_ZNSt12__weak_countILN9__gnu_cxx12_Lock_policyE2EEC2Ev:
.LFB4876:
	.cfi_startproc
	sub	sp, sp, #16
	.cfi_def_cfa_offset 16
	str	x0, [sp, 8]
	ldr	x0, [sp, 8]
	str	xzr, [x0]
	nop
	add	sp, sp, 16
	.cfi_def_cfa_offset 0
	ret
	.cfi_endproc
.LFE4876:
	.size	_ZNSt12__weak_countILN9__gnu_cxx12_Lock_policyE2EEC2Ev, .-_ZNSt12__weak_countILN9__gnu_cxx12_Lock_policyE2EEC2Ev
	.weak	_ZNSt12__weak_countILN9__gnu_cxx12_Lock_policyE2EEC1Ev
	.set	_ZNSt12__weak_countILN9__gnu_cxx12_Lock_policyE2EEC1Ev,_ZNSt12__weak_countILN9__gnu_cxx12_Lock_policyE2EEC2Ev
	.section	.text._ZNSt16_Sp_counted_baseILN9__gnu_cxx12_Lock_policyE2EE15_M_weak_releaseEv,"axG",@progbits,_ZNSt16_Sp_counted_baseILN9__gnu_cxx12_Lock_policyE2EE15_M_weak_releaseEv,comdat
	.align	2
	.weak	_ZNSt16_Sp_counted_baseILN9__gnu_cxx12_Lock_policyE2EE15_M_weak_releaseEv
	.type	_ZNSt16_Sp_counted_baseILN9__gnu_cxx12_Lock_policyE2EE15_M_weak_releaseEv, %function
_ZNSt16_Sp_counted_baseILN9__gnu_cxx12_Lock_policyE2EE15_M_weak_releaseEv:
.LFB4878:
	.cfi_startproc
	stp	x29, x30, [sp, -80]!
	.cfi_def_cfa_offset 80
	.cfi_offset 29, -80
	.cfi_offset 30, -72
	mov	x29, sp
	str	x0, [sp, 24]
	ldr	x0, [sp, 24]
	add	x0, x0, 12
	str	x0, [sp, 56]
	mov	w0, -1
	str	w0, [sp, 40]
	adrp	x0, :got:__libc_single_threaded
	ldr	x0, [x0, #:got_lo12:__libc_single_threaded]
	ldrb	w0, [x0]
	cmp	w0, 0
	cset	w0, ne
	and	w0, w0, 255
	cmp	w0, 0
	beq	.L189
	ldr	x0, [sp, 56]
	str	x0, [sp, 64]
	ldr	w0, [sp, 40]
	str	w0, [sp, 44]
	ldr	x0, [sp, 64]
	ldr	w0, [x0]
	str	w0, [sp, 48]
	ldr	x0, [sp, 64]
	ldr	w1, [x0]
	ldr	w0, [sp, 44]
	add	w1, w1, w0
	ldr	x0, [sp, 64]
	str	w1, [x0]
	ldr	w0, [sp, 48]
	b	.L191
.L189:
	ldr	x0, [sp, 56]
	str	x0, [sp, 72]
	ldr	w0, [sp, 40]
	str	w0, [sp, 52]
	ldr	w0, [sp, 52]
	ldr	x1, [sp, 72]
	bl	__aarch64_ldadd4_acq_rel
	nop
.L191:
	cmp	w0, 1
	cset	w0, eq
	and	w0, w0, 255
	cmp	w0, 0
	beq	.L194
	ldr	x0, [sp, 24]
	ldr	x0, [x0]
	add	x0, x0, 24
	ldr	x1, [x0]
	ldr	x0, [sp, 24]
	blr	x1
.L194:
	nop
	ldp	x29, x30, [sp], 80
	.cfi_restore 30
	.cfi_restore 29
	.cfi_def_cfa_offset 0
	ret
	.cfi_endproc
.LFE4878:
	.size	_ZNSt16_Sp_counted_baseILN9__gnu_cxx12_Lock_policyE2EE15_M_weak_releaseEv, .-_ZNSt16_Sp_counted_baseILN9__gnu_cxx12_Lock_policyE2EE15_M_weak_releaseEv
	.section	.text._ZNSt14__shared_countILN9__gnu_cxx12_Lock_policyE2EEC2Ev,"axG",@progbits,_ZNSt14__shared_countILN9__gnu_cxx12_Lock_policyE2EEC5Ev,comdat
	.align	2
	.weak	_ZNSt14__shared_countILN9__gnu_cxx12_Lock_policyE2EEC2Ev
	.type	_ZNSt14__shared_countILN9__gnu_cxx12_Lock_policyE2EEC2Ev, %function
_ZNSt14__shared_countILN9__gnu_cxx12_Lock_policyE2EEC2Ev:
.LFB4880:
	.cfi_startproc
	sub	sp, sp, #16
	.cfi_def_cfa_offset 16
	str	x0, [sp, 8]
	ldr	x0, [sp, 8]
	str	xzr, [x0]
	nop
	add	sp, sp, 16
	.cfi_def_cfa_offset 0
	ret
	.cfi_endproc
.LFE4880:
	.size	_ZNSt14__shared_countILN9__gnu_cxx12_Lock_policyE2EEC2Ev, .-_ZNSt14__shared_countILN9__gnu_cxx12_Lock_policyE2EEC2Ev
	.weak	_ZNSt14__shared_countILN9__gnu_cxx12_Lock_policyE2EEC1Ev
	.set	_ZNSt14__shared_countILN9__gnu_cxx12_Lock_policyE2EEC1Ev,_ZNSt14__shared_countILN9__gnu_cxx12_Lock_policyE2EEC2Ev
	.section	.text._ZNSt16_Sp_counted_baseILN9__gnu_cxx12_Lock_policyE2EE10_M_destroyEv,"axG",@progbits,_ZNSt16_Sp_counted_baseILN9__gnu_cxx12_Lock_policyE2EE10_M_destroyEv,comdat
	.align	2
	.weak	_ZNSt16_Sp_counted_baseILN9__gnu_cxx12_Lock_policyE2EE10_M_destroyEv
	.type	_ZNSt16_Sp_counted_baseILN9__gnu_cxx12_Lock_policyE2EE10_M_destroyEv, %function
_ZNSt16_Sp_counted_baseILN9__gnu_cxx12_Lock_policyE2EE10_M_destroyEv:
.LFB4882:
	.cfi_startproc
	stp	x29, x30, [sp, -32]!
	.cfi_def_cfa_offset 32
	.cfi_offset 29, -32
	.cfi_offset 30, -24
	mov	x29, sp
	str	x0, [sp, 24]
	ldr	x0, [sp, 24]
	cmp	x0, 0
	beq	.L198
	ldr	x0, [sp, 24]
	ldr	x0, [x0]
	add	x0, x0, 8
	ldr	x1, [x0]
	ldr	x0, [sp, 24]
	blr	x1
.L198:
	nop
	ldp	x29, x30, [sp], 32
	.cfi_restore 30
	.cfi_restore 29
	.cfi_def_cfa_offset 0
	ret
	.cfi_endproc
.LFE4882:
	.size	_ZNSt16_Sp_counted_baseILN9__gnu_cxx12_Lock_policyE2EE10_M_destroyEv, .-_ZNSt16_Sp_counted_baseILN9__gnu_cxx12_Lock_policyE2EE10_M_destroyEv
	.section	.text._ZNKSt12__shared_ptrI7MessageLN9__gnu_cxx12_Lock_policyE2EE3getEv,"axG",@progbits,_ZNKSt12__shared_ptrI7MessageLN9__gnu_cxx12_Lock_policyE2EE3getEv,comdat
	.align	2
	.weak	_ZNKSt12__shared_ptrI7MessageLN9__gnu_cxx12_Lock_policyE2EE3getEv
	.type	_ZNKSt12__shared_ptrI7MessageLN9__gnu_cxx12_Lock_policyE2EE3getEv, %function
_ZNKSt12__shared_ptrI7MessageLN9__gnu_cxx12_Lock_policyE2EE3getEv:
.LFB4924:
	.cfi_startproc
	sub	sp, sp, #16
	.cfi_def_cfa_offset 16
	str	x0, [sp, 8]
	ldr	x0, [sp, 8]
	ldr	x0, [x0]
	add	sp, sp, 16
	.cfi_def_cfa_offset 0
	ret
	.cfi_endproc
.LFE4924:
	.size	_ZNKSt12__shared_ptrI7MessageLN9__gnu_cxx12_Lock_policyE2EE3getEv, .-_ZNKSt12__shared_ptrI7MessageLN9__gnu_cxx12_Lock_policyE2EE3getEv
	.section	.text._ZN9__gnu_cxx13new_allocatorI6LooperEC2Ev,"axG",@progbits,_ZN9__gnu_cxx13new_allocatorI6LooperEC5Ev,comdat
	.align	2
	.weak	_ZN9__gnu_cxx13new_allocatorI6LooperEC2Ev
	.type	_ZN9__gnu_cxx13new_allocatorI6LooperEC2Ev, %function
_ZN9__gnu_cxx13new_allocatorI6LooperEC2Ev:
.LFB4927:
	.cfi_startproc
	sub	sp, sp, #16
	.cfi_def_cfa_offset 16
	str	x0, [sp, 8]
	nop
	add	sp, sp, 16
	.cfi_def_cfa_offset 0
	ret
	.cfi_endproc
.LFE4927:
	.size	_ZN9__gnu_cxx13new_allocatorI6LooperEC2Ev, .-_ZN9__gnu_cxx13new_allocatorI6LooperEC2Ev
	.weak	_ZN9__gnu_cxx13new_allocatorI6LooperEC1Ev
	.set	_ZN9__gnu_cxx13new_allocatorI6LooperEC1Ev,_ZN9__gnu_cxx13new_allocatorI6LooperEC2Ev
	.section	.text._ZN9__gnu_cxx13new_allocatorI6LooperED2Ev,"axG",@progbits,_ZN9__gnu_cxx13new_allocatorI6LooperED5Ev,comdat
	.align	2
	.weak	_ZN9__gnu_cxx13new_allocatorI6LooperED2Ev
	.type	_ZN9__gnu_cxx13new_allocatorI6LooperED2Ev, %function
_ZN9__gnu_cxx13new_allocatorI6LooperED2Ev:
.LFB4930:
	.cfi_startproc
	sub	sp, sp, #16
	.cfi_def_cfa_offset 16
	str	x0, [sp, 8]
	nop
	add	sp, sp, 16
	.cfi_def_cfa_offset 0
	ret
	.cfi_endproc
.LFE4930:
	.size	_ZN9__gnu_cxx13new_allocatorI6LooperED2Ev, .-_ZN9__gnu_cxx13new_allocatorI6LooperED2Ev
	.weak	_ZN9__gnu_cxx13new_allocatorI6LooperED1Ev
	.set	_ZN9__gnu_cxx13new_allocatorI6LooperED1Ev,_ZN9__gnu_cxx13new_allocatorI6LooperED2Ev
	.section	.text._ZNSt10shared_ptrI6LooperEC2ISaIS0_EJEEESt20_Sp_alloc_shared_tagIT_EDpOT0_,"axG",@progbits,_ZNSt10shared_ptrI6LooperEC5ISaIS0_EJEEESt20_Sp_alloc_shared_tagIT_EDpOT0_,comdat
	.align	2
	.weak	_ZNSt10shared_ptrI6LooperEC2ISaIS0_EJEEESt20_Sp_alloc_shared_tagIT_EDpOT0_
	.type	_ZNSt10shared_ptrI6LooperEC2ISaIS0_EJEEESt20_Sp_alloc_shared_tagIT_EDpOT0_, %function
_ZNSt10shared_ptrI6LooperEC2ISaIS0_EJEEESt20_Sp_alloc_shared_tagIT_EDpOT0_:
.LFB4933:
	.cfi_startproc
	stp	x29, x30, [sp, -32]!
	.cfi_def_cfa_offset 32
	.cfi_offset 29, -32
	.cfi_offset 30, -24
	mov	x29, sp
	str	x0, [sp, 24]
	str	x1, [sp, 16]
	ldr	x0, [sp, 24]
	ldr	x1, [sp, 16]
	bl	_ZNSt12__shared_ptrI6LooperLN9__gnu_cxx12_Lock_policyE2EEC2ISaIS0_EJEEESt20_Sp_alloc_shared_tagIT_EDpOT0_
	nop
	ldp	x29, x30, [sp], 32
	.cfi_restore 30
	.cfi_restore 29
	.cfi_def_cfa_offset 0
	ret
	.cfi_endproc
.LFE4933:
	.size	_ZNSt10shared_ptrI6LooperEC2ISaIS0_EJEEESt20_Sp_alloc_shared_tagIT_EDpOT0_, .-_ZNSt10shared_ptrI6LooperEC2ISaIS0_EJEEESt20_Sp_alloc_shared_tagIT_EDpOT0_
	.weak	_ZNSt10shared_ptrI6LooperEC1ISaIS0_EJEEESt20_Sp_alloc_shared_tagIT_EDpOT0_
	.set	_ZNSt10shared_ptrI6LooperEC1ISaIS0_EJEEESt20_Sp_alloc_shared_tagIT_EDpOT0_,_ZNSt10shared_ptrI6LooperEC2ISaIS0_EJEEESt20_Sp_alloc_shared_tagIT_EDpOT0_
	.section	.text._ZN9__gnu_cxx13new_allocatorI1MEC2Ev,"axG",@progbits,_ZN9__gnu_cxx13new_allocatorI1MEC5Ev,comdat
	.align	2
	.weak	_ZN9__gnu_cxx13new_allocatorI1MEC2Ev
	.type	_ZN9__gnu_cxx13new_allocatorI1MEC2Ev, %function
_ZN9__gnu_cxx13new_allocatorI1MEC2Ev:
.LFB4936:
	.cfi_startproc
	sub	sp, sp, #16
	.cfi_def_cfa_offset 16
	str	x0, [sp, 8]
	nop
	add	sp, sp, 16
	.cfi_def_cfa_offset 0
	ret
	.cfi_endproc
.LFE4936:
	.size	_ZN9__gnu_cxx13new_allocatorI1MEC2Ev, .-_ZN9__gnu_cxx13new_allocatorI1MEC2Ev
	.weak	_ZN9__gnu_cxx13new_allocatorI1MEC1Ev
	.set	_ZN9__gnu_cxx13new_allocatorI1MEC1Ev,_ZN9__gnu_cxx13new_allocatorI1MEC2Ev
	.section	.text._ZN9__gnu_cxx13new_allocatorI1MED2Ev,"axG",@progbits,_ZN9__gnu_cxx13new_allocatorI1MED5Ev,comdat
	.align	2
	.weak	_ZN9__gnu_cxx13new_allocatorI1MED2Ev
	.type	_ZN9__gnu_cxx13new_allocatorI1MED2Ev, %function
_ZN9__gnu_cxx13new_allocatorI1MED2Ev:
.LFB4939:
	.cfi_startproc
	sub	sp, sp, #16
	.cfi_def_cfa_offset 16
	str	x0, [sp, 8]
	nop
	add	sp, sp, 16
	.cfi_def_cfa_offset 0
	ret
	.cfi_endproc
.LFE4939:
	.size	_ZN9__gnu_cxx13new_allocatorI1MED2Ev, .-_ZN9__gnu_cxx13new_allocatorI1MED2Ev
	.weak	_ZN9__gnu_cxx13new_allocatorI1MED1Ev
	.set	_ZN9__gnu_cxx13new_allocatorI1MED1Ev,_ZN9__gnu_cxx13new_allocatorI1MED2Ev
	.section	.text._ZNSt10shared_ptrI1MEC2ISaIS0_EJEEESt20_Sp_alloc_shared_tagIT_EDpOT0_,"axG",@progbits,_ZNSt10shared_ptrI1MEC5ISaIS0_EJEEESt20_Sp_alloc_shared_tagIT_EDpOT0_,comdat
	.align	2
	.weak	_ZNSt10shared_ptrI1MEC2ISaIS0_EJEEESt20_Sp_alloc_shared_tagIT_EDpOT0_
	.type	_ZNSt10shared_ptrI1MEC2ISaIS0_EJEEESt20_Sp_alloc_shared_tagIT_EDpOT0_, %function
_ZNSt10shared_ptrI1MEC2ISaIS0_EJEEESt20_Sp_alloc_shared_tagIT_EDpOT0_:
.LFB4942:
	.cfi_startproc
	stp	x29, x30, [sp, -32]!
	.cfi_def_cfa_offset 32
	.cfi_offset 29, -32
	.cfi_offset 30, -24
	mov	x29, sp
	str	x0, [sp, 24]
	str	x1, [sp, 16]
	ldr	x0, [sp, 24]
	ldr	x1, [sp, 16]
	bl	_ZNSt12__shared_ptrI1MLN9__gnu_cxx12_Lock_policyE2EEC2ISaIS0_EJEEESt20_Sp_alloc_shared_tagIT_EDpOT0_
	nop
	ldp	x29, x30, [sp], 32
	.cfi_restore 30
	.cfi_restore 29
	.cfi_def_cfa_offset 0
	ret
	.cfi_endproc
.LFE4942:
	.size	_ZNSt10shared_ptrI1MEC2ISaIS0_EJEEESt20_Sp_alloc_shared_tagIT_EDpOT0_, .-_ZNSt10shared_ptrI1MEC2ISaIS0_EJEEESt20_Sp_alloc_shared_tagIT_EDpOT0_
	.weak	_ZNSt10shared_ptrI1MEC1ISaIS0_EJEEESt20_Sp_alloc_shared_tagIT_EDpOT0_
	.set	_ZNSt10shared_ptrI1MEC1ISaIS0_EJEEESt20_Sp_alloc_shared_tagIT_EDpOT0_,_ZNSt10shared_ptrI1MEC2ISaIS0_EJEEESt20_Sp_alloc_shared_tagIT_EDpOT0_
	.section	.text._ZNKSt12__shared_ptrI6LooperLN9__gnu_cxx12_Lock_policyE2EE3getEv,"axG",@progbits,_ZNKSt12__shared_ptrI6LooperLN9__gnu_cxx12_Lock_policyE2EE3getEv,comdat
	.align	2
	.weak	_ZNKSt12__shared_ptrI6LooperLN9__gnu_cxx12_Lock_policyE2EE3getEv
	.type	_ZNKSt12__shared_ptrI6LooperLN9__gnu_cxx12_Lock_policyE2EE3getEv, %function
_ZNKSt12__shared_ptrI6LooperLN9__gnu_cxx12_Lock_policyE2EE3getEv:
.LFB4944:
	.cfi_startproc
	sub	sp, sp, #16
	.cfi_def_cfa_offset 16
	str	x0, [sp, 8]
	ldr	x0, [sp, 8]
	ldr	x0, [x0]
	add	sp, sp, 16
	.cfi_def_cfa_offset 0
	ret
	.cfi_endproc
.LFE4944:
	.size	_ZNKSt12__shared_ptrI6LooperLN9__gnu_cxx12_Lock_policyE2EE3getEv, .-_ZNKSt12__shared_ptrI6LooperLN9__gnu_cxx12_Lock_policyE2EE3getEv
	.text
	.align	2
	.type	_ZNSt11_Tuple_implILm0EJZ4mainEUlvE_EEC2IS0_EEOT_, %function
_ZNSt11_Tuple_implILm0EJZ4mainEUlvE_EEC2IS0_EEOT_:
.LFB4946:
	.cfi_startproc
	stp	x29, x30, [sp, -48]!
	.cfi_def_cfa_offset 48
	.cfi_offset 29, -48
	.cfi_offset 30, -40
	mov	x29, sp
	str	x19, [sp, 16]
	.cfi_offset 19, -32
	str	x0, [sp, 40]
	str	x1, [sp, 32]
	ldr	x19, [sp, 40]
	ldr	x0, [sp, 32]
	bl	_ZSt7forwardIZ4mainEUlvE_EOT_RNSt16remove_referenceIS1_E4typeE
	mov	x1, x0
	mov	x0, x19
	bl	_ZNSt10_Head_baseILm0EZ4mainEUlvE_Lb0EEC2IS0_EEOT_
	nop
	ldr	x19, [sp, 16]
	ldp	x29, x30, [sp], 48
	.cfi_restore 30
	.cfi_restore 29
	.cfi_restore 19
	.cfi_def_cfa_offset 0
	ret
	.cfi_endproc
.LFE4946:
	.size	_ZNSt11_Tuple_implILm0EJZ4mainEUlvE_EEC2IS0_EEOT_, .-_ZNSt11_Tuple_implILm0EJZ4mainEUlvE_EEC2IS0_EEOT_
	.section	.text._ZNSt15__uniq_ptr_implINSt6thread6_StateESt14default_deleteIS1_EEC2EPS1_,"axG",@progbits,_ZNSt15__uniq_ptr_implINSt6thread6_StateESt14default_deleteIS1_EEC5EPS1_,comdat
	.align	2
	.weak	_ZNSt15__uniq_ptr_implINSt6thread6_StateESt14default_deleteIS1_EEC2EPS1_
	.type	_ZNSt15__uniq_ptr_implINSt6thread6_StateESt14default_deleteIS1_EEC2EPS1_, %function
_ZNSt15__uniq_ptr_implINSt6thread6_StateESt14default_deleteIS1_EEC2EPS1_:
.LFB4950:
	.cfi_startproc
	stp	x29, x30, [sp, -48]!
	.cfi_def_cfa_offset 48
	.cfi_offset 29, -48
	.cfi_offset 30, -40
	mov	x29, sp
	str	x19, [sp, 16]
	.cfi_offset 19, -32
	str	x0, [sp, 40]
	str	x1, [sp, 32]
	ldr	x0, [sp, 40]
	bl	_ZNSt5tupleIJPNSt6thread6_StateESt14default_deleteIS1_EEEC1ILb1ELb1EEEv
	ldr	x19, [sp, 32]
	ldr	x0, [sp, 40]
	bl	_ZNSt15__uniq_ptr_implINSt6thread6_StateESt14default_deleteIS1_EE6_M_ptrEv
	str	x19, [x0]
	nop
	ldr	x19, [sp, 16]
	ldp	x29, x30, [sp], 48
	.cfi_restore 30
	.cfi_restore 29
	.cfi_restore 19
	.cfi_def_cfa_offset 0
	ret
	.cfi_endproc
.LFE4950:
	.size	_ZNSt15__uniq_ptr_implINSt6thread6_StateESt14default_deleteIS1_EEC2EPS1_, .-_ZNSt15__uniq_ptr_implINSt6thread6_StateESt14default_deleteIS1_EEC2EPS1_
	.weak	_ZNSt15__uniq_ptr_implINSt6thread6_StateESt14default_deleteIS1_EEC1EPS1_
	.set	_ZNSt15__uniq_ptr_implINSt6thread6_StateESt14default_deleteIS1_EEC1EPS1_,_ZNSt15__uniq_ptr_implINSt6thread6_StateESt14default_deleteIS1_EEC2EPS1_
	.section	.text._ZNSt15__uniq_ptr_implINSt6thread6_StateESt14default_deleteIS1_EE6_M_ptrEv,"axG",@progbits,_ZNSt15__uniq_ptr_implINSt6thread6_StateESt14default_deleteIS1_EE6_M_ptrEv,comdat
	.align	2
	.weak	_ZNSt15__uniq_ptr_implINSt6thread6_StateESt14default_deleteIS1_EE6_M_ptrEv
	.type	_ZNSt15__uniq_ptr_implINSt6thread6_StateESt14default_deleteIS1_EE6_M_ptrEv, %function
_ZNSt15__uniq_ptr_implINSt6thread6_StateESt14default_deleteIS1_EE6_M_ptrEv:
.LFB4952:
	.cfi_startproc
	stp	x29, x30, [sp, -32]!
	.cfi_def_cfa_offset 32
	.cfi_offset 29, -32
	.cfi_offset 30, -24
	mov	x29, sp
	str	x0, [sp, 24]
	ldr	x0, [sp, 24]
	bl	_ZSt3getILm0EJPNSt6thread6_StateESt14default_deleteIS1_EEERNSt13tuple_elementIXT_ESt5tupleIJDpT0_EEE4typeERS9_
	ldp	x29, x30, [sp], 32
	.cfi_restore 30
	.cfi_restore 29
	.cfi_def_cfa_offset 0
	ret
	.cfi_endproc
.LFE4952:
	.size	_ZNSt15__uniq_ptr_implINSt6thread6_StateESt14default_deleteIS1_EE6_M_ptrEv, .-_ZNSt15__uniq_ptr_implINSt6thread6_StateESt14default_deleteIS1_EE6_M_ptrEv
	.section	.text._ZNSt10unique_ptrINSt6thread6_StateESt14default_deleteIS1_EE11get_deleterEv,"axG",@progbits,_ZNSt10unique_ptrINSt6thread6_StateESt14default_deleteIS1_EE11get_deleterEv,comdat
	.align	2
	.weak	_ZNSt10unique_ptrINSt6thread6_StateESt14default_deleteIS1_EE11get_deleterEv
	.type	_ZNSt10unique_ptrINSt6thread6_StateESt14default_deleteIS1_EE11get_deleterEv, %function
_ZNSt10unique_ptrINSt6thread6_StateESt14default_deleteIS1_EE11get_deleterEv:
.LFB4953:
	.cfi_startproc
	stp	x29, x30, [sp, -32]!
	.cfi_def_cfa_offset 32
	.cfi_offset 29, -32
	.cfi_offset 30, -24
	mov	x29, sp
	str	x0, [sp, 24]
	ldr	x0, [sp, 24]
	bl	_ZNSt15__uniq_ptr_implINSt6thread6_StateESt14default_deleteIS1_EE10_M_deleterEv
	ldp	x29, x30, [sp], 32
	.cfi_restore 30
	.cfi_restore 29
	.cfi_def_cfa_offset 0
	ret
	.cfi_endproc
.LFE4953:
	.size	_ZNSt10unique_ptrINSt6thread6_StateESt14default_deleteIS1_EE11get_deleterEv, .-_ZNSt10unique_ptrINSt6thread6_StateESt14default_deleteIS1_EE11get_deleterEv
	.section	.text._ZSt4moveIRPNSt6thread6_StateEEONSt16remove_referenceIT_E4typeEOS5_,"axG",@progbits,_ZSt4moveIRPNSt6thread6_StateEEONSt16remove_referenceIT_E4typeEOS5_,comdat
	.align	2
	.weak	_ZSt4moveIRPNSt6thread6_StateEEONSt16remove_referenceIT_E4typeEOS5_
	.type	_ZSt4moveIRPNSt6thread6_StateEEONSt16remove_referenceIT_E4typeEOS5_, %function
_ZSt4moveIRPNSt6thread6_StateEEONSt16remove_referenceIT_E4typeEOS5_:
.LFB4954:
	.cfi_startproc
	sub	sp, sp, #16
	.cfi_def_cfa_offset 16
	str	x0, [sp, 8]
	ldr	x0, [sp, 8]
	add	sp, sp, 16
	.cfi_def_cfa_offset 0
	ret
	.cfi_endproc
.LFE4954:
	.size	_ZSt4moveIRPNSt6thread6_StateEEONSt16remove_referenceIT_E4typeEOS5_, .-_ZSt4moveIRPNSt6thread6_StateEEONSt16remove_referenceIT_E4typeEOS5_
	.section	.text._ZNKSt14default_deleteINSt6thread6_StateEEclEPS1_,"axG",@progbits,_ZNKSt14default_deleteINSt6thread6_StateEEclEPS1_,comdat
	.align	2
	.weak	_ZNKSt14default_deleteINSt6thread6_StateEEclEPS1_
	.type	_ZNKSt14default_deleteINSt6thread6_StateEEclEPS1_, %function
_ZNKSt14default_deleteINSt6thread6_StateEEclEPS1_:
.LFB4955:
	.cfi_startproc
	stp	x29, x30, [sp, -32]!
	.cfi_def_cfa_offset 32
	.cfi_offset 29, -32
	.cfi_offset 30, -24
	mov	x29, sp
	str	x0, [sp, 24]
	str	x1, [sp, 16]
	ldr	x0, [sp, 16]
	cmp	x0, 0
	beq	.L219
	ldr	x1, [x0]
	add	x1, x1, 8
	ldr	x1, [x1]
	blr	x1
.L219:
	nop
	ldp	x29, x30, [sp], 32
	.cfi_restore 30
	.cfi_restore 29
	.cfi_def_cfa_offset 0
	ret
	.cfi_endproc
.LFE4955:
	.size	_ZNKSt14default_deleteINSt6thread6_StateEEclEPS1_, .-_ZNKSt14default_deleteINSt6thread6_StateEEclEPS1_
	.section	.text._ZN9__gnu_cxx13new_allocatorI7MessageEC2Ev,"axG",@progbits,_ZN9__gnu_cxx13new_allocatorI7MessageEC5Ev,comdat
	.align	2
	.weak	_ZN9__gnu_cxx13new_allocatorI7MessageEC2Ev
	.type	_ZN9__gnu_cxx13new_allocatorI7MessageEC2Ev, %function
_ZN9__gnu_cxx13new_allocatorI7MessageEC2Ev:
.LFB4957:
	.cfi_startproc
	sub	sp, sp, #16
	.cfi_def_cfa_offset 16
	str	x0, [sp, 8]
	nop
	add	sp, sp, 16
	.cfi_def_cfa_offset 0
	ret
	.cfi_endproc
.LFE4957:
	.size	_ZN9__gnu_cxx13new_allocatorI7MessageEC2Ev, .-_ZN9__gnu_cxx13new_allocatorI7MessageEC2Ev
	.weak	_ZN9__gnu_cxx13new_allocatorI7MessageEC1Ev
	.set	_ZN9__gnu_cxx13new_allocatorI7MessageEC1Ev,_ZN9__gnu_cxx13new_allocatorI7MessageEC2Ev
	.section	.text._ZN9__gnu_cxx13new_allocatorI7MessageED2Ev,"axG",@progbits,_ZN9__gnu_cxx13new_allocatorI7MessageED5Ev,comdat
	.align	2
	.weak	_ZN9__gnu_cxx13new_allocatorI7MessageED2Ev
	.type	_ZN9__gnu_cxx13new_allocatorI7MessageED2Ev, %function
_ZN9__gnu_cxx13new_allocatorI7MessageED2Ev:
.LFB4960:
	.cfi_startproc
	sub	sp, sp, #16
	.cfi_def_cfa_offset 16
	str	x0, [sp, 8]
	nop
	add	sp, sp, 16
	.cfi_def_cfa_offset 0
	ret
	.cfi_endproc
.LFE4960:
	.size	_ZN9__gnu_cxx13new_allocatorI7MessageED2Ev, .-_ZN9__gnu_cxx13new_allocatorI7MessageED2Ev
	.weak	_ZN9__gnu_cxx13new_allocatorI7MessageED1Ev
	.set	_ZN9__gnu_cxx13new_allocatorI7MessageED1Ev,_ZN9__gnu_cxx13new_allocatorI7MessageED2Ev
	.section	.text._ZNSt10shared_ptrI7MessageEC2ISaIS0_EJiEEESt20_Sp_alloc_shared_tagIT_EDpOT0_,"axG",@progbits,_ZNSt10shared_ptrI7MessageEC5ISaIS0_EJiEEESt20_Sp_alloc_shared_tagIT_EDpOT0_,comdat
	.align	2
	.weak	_ZNSt10shared_ptrI7MessageEC2ISaIS0_EJiEEESt20_Sp_alloc_shared_tagIT_EDpOT0_
	.type	_ZNSt10shared_ptrI7MessageEC2ISaIS0_EJiEEESt20_Sp_alloc_shared_tagIT_EDpOT0_, %function
_ZNSt10shared_ptrI7MessageEC2ISaIS0_EJiEEESt20_Sp_alloc_shared_tagIT_EDpOT0_:
.LFB4963:
	.cfi_startproc
	stp	x29, x30, [sp, -64]!
	.cfi_def_cfa_offset 64
	.cfi_offset 29, -64
	.cfi_offset 30, -56
	mov	x29, sp
	str	x19, [sp, 16]
	.cfi_offset 19, -48
	str	x0, [sp, 56]
	str	x1, [sp, 48]
	str	x2, [sp, 40]
	ldr	x19, [sp, 56]
	ldr	x0, [sp, 40]
	bl	_ZSt7forwardIiEOT_RNSt16remove_referenceIS0_E4typeE
	mov	x2, x0
	ldr	x1, [sp, 48]
	mov	x0, x19
	bl	_ZNSt12__shared_ptrI7MessageLN9__gnu_cxx12_Lock_policyE2EEC2ISaIS0_EJiEEESt20_Sp_alloc_shared_tagIT_EDpOT0_
	nop
	ldr	x19, [sp, 16]
	ldp	x29, x30, [sp], 64
	.cfi_restore 30
	.cfi_restore 29
	.cfi_restore 19
	.cfi_def_cfa_offset 0
	ret
	.cfi_endproc
.LFE4963:
	.size	_ZNSt10shared_ptrI7MessageEC2ISaIS0_EJiEEESt20_Sp_alloc_shared_tagIT_EDpOT0_, .-_ZNSt10shared_ptrI7MessageEC2ISaIS0_EJiEEESt20_Sp_alloc_shared_tagIT_EDpOT0_
	.weak	_ZNSt10shared_ptrI7MessageEC1ISaIS0_EJiEEESt20_Sp_alloc_shared_tagIT_EDpOT0_
	.set	_ZNSt10shared_ptrI7MessageEC1ISaIS0_EJiEEESt20_Sp_alloc_shared_tagIT_EDpOT0_,_ZNSt10shared_ptrI7MessageEC2ISaIS0_EJiEEESt20_Sp_alloc_shared_tagIT_EDpOT0_
	.section	.text._ZN9__gnu_cxx13new_allocatorI9FdHandlerEC2Ev,"axG",@progbits,_ZN9__gnu_cxx13new_allocatorI9FdHandlerEC5Ev,comdat
	.align	2
	.weak	_ZN9__gnu_cxx13new_allocatorI9FdHandlerEC2Ev
	.type	_ZN9__gnu_cxx13new_allocatorI9FdHandlerEC2Ev, %function
_ZN9__gnu_cxx13new_allocatorI9FdHandlerEC2Ev:
.LFB4966:
	.cfi_startproc
	sub	sp, sp, #16
	.cfi_def_cfa_offset 16
	str	x0, [sp, 8]
	nop
	add	sp, sp, 16
	.cfi_def_cfa_offset 0
	ret
	.cfi_endproc
.LFE4966:
	.size	_ZN9__gnu_cxx13new_allocatorI9FdHandlerEC2Ev, .-_ZN9__gnu_cxx13new_allocatorI9FdHandlerEC2Ev
	.weak	_ZN9__gnu_cxx13new_allocatorI9FdHandlerEC1Ev
	.set	_ZN9__gnu_cxx13new_allocatorI9FdHandlerEC1Ev,_ZN9__gnu_cxx13new_allocatorI9FdHandlerEC2Ev
	.section	.text._ZN9__gnu_cxx13new_allocatorI9FdHandlerED2Ev,"axG",@progbits,_ZN9__gnu_cxx13new_allocatorI9FdHandlerED5Ev,comdat
	.align	2
	.weak	_ZN9__gnu_cxx13new_allocatorI9FdHandlerED2Ev
	.type	_ZN9__gnu_cxx13new_allocatorI9FdHandlerED2Ev, %function
_ZN9__gnu_cxx13new_allocatorI9FdHandlerED2Ev:
.LFB4969:
	.cfi_startproc
	sub	sp, sp, #16
	.cfi_def_cfa_offset 16
	str	x0, [sp, 8]
	nop
	add	sp, sp, 16
	.cfi_def_cfa_offset 0
	ret
	.cfi_endproc
.LFE4969:
	.size	_ZN9__gnu_cxx13new_allocatorI9FdHandlerED2Ev, .-_ZN9__gnu_cxx13new_allocatorI9FdHandlerED2Ev
	.weak	_ZN9__gnu_cxx13new_allocatorI9FdHandlerED1Ev
	.set	_ZN9__gnu_cxx13new_allocatorI9FdHandlerED1Ev,_ZN9__gnu_cxx13new_allocatorI9FdHandlerED2Ev
	.section	.text._ZNSt10shared_ptrI9FdHandlerEC2ISaIS0_EJEEESt20_Sp_alloc_shared_tagIT_EDpOT0_,"axG",@progbits,_ZNSt10shared_ptrI9FdHandlerEC5ISaIS0_EJEEESt20_Sp_alloc_shared_tagIT_EDpOT0_,comdat
	.align	2
	.weak	_ZNSt10shared_ptrI9FdHandlerEC2ISaIS0_EJEEESt20_Sp_alloc_shared_tagIT_EDpOT0_
	.type	_ZNSt10shared_ptrI9FdHandlerEC2ISaIS0_EJEEESt20_Sp_alloc_shared_tagIT_EDpOT0_, %function
_ZNSt10shared_ptrI9FdHandlerEC2ISaIS0_EJEEESt20_Sp_alloc_shared_tagIT_EDpOT0_:
.LFB4972:
	.cfi_startproc
	stp	x29, x30, [sp, -32]!
	.cfi_def_cfa_offset 32
	.cfi_offset 29, -32
	.cfi_offset 30, -24
	mov	x29, sp
	str	x0, [sp, 24]
	str	x1, [sp, 16]
	ldr	x0, [sp, 24]
	ldr	x1, [sp, 16]
	bl	_ZNSt12__shared_ptrI9FdHandlerLN9__gnu_cxx12_Lock_policyE2EEC2ISaIS0_EJEEESt20_Sp_alloc_shared_tagIT_EDpOT0_
	nop
	ldp	x29, x30, [sp], 32
	.cfi_restore 30
	.cfi_restore 29
	.cfi_def_cfa_offset 0
	ret
	.cfi_endproc
.LFE4972:
	.size	_ZNSt10shared_ptrI9FdHandlerEC2ISaIS0_EJEEESt20_Sp_alloc_shared_tagIT_EDpOT0_, .-_ZNSt10shared_ptrI9FdHandlerEC2ISaIS0_EJEEESt20_Sp_alloc_shared_tagIT_EDpOT0_
	.weak	_ZNSt10shared_ptrI9FdHandlerEC1ISaIS0_EJEEESt20_Sp_alloc_shared_tagIT_EDpOT0_
	.set	_ZNSt10shared_ptrI9FdHandlerEC1ISaIS0_EJEEESt20_Sp_alloc_shared_tagIT_EDpOT0_,_ZNSt10shared_ptrI9FdHandlerEC2ISaIS0_EJEEESt20_Sp_alloc_shared_tagIT_EDpOT0_
	.section	.text._ZNSt14__shared_countILN9__gnu_cxx12_Lock_policyE2EE7_M_swapERS2_,"axG",@progbits,_ZNSt14__shared_countILN9__gnu_cxx12_Lock_policyE2EE7_M_swapERS2_,comdat
	.align	2
	.weak	_ZNSt14__shared_countILN9__gnu_cxx12_Lock_policyE2EE7_M_swapERS2_
	.type	_ZNSt14__shared_countILN9__gnu_cxx12_Lock_policyE2EE7_M_swapERS2_, %function
_ZNSt14__shared_countILN9__gnu_cxx12_Lock_policyE2EE7_M_swapERS2_:
.LFB4974:
	.cfi_startproc
	sub	sp, sp, #32
	.cfi_def_cfa_offset 32
	str	x0, [sp, 8]
	str	x1, [sp]
	ldr	x0, [sp]
	ldr	x0, [x0]
	str	x0, [sp, 24]
	ldr	x0, [sp, 8]
	ldr	x1, [x0]
	ldr	x0, [sp]
	str	x1, [x0]
	ldr	x0, [sp, 8]
	ldr	x1, [sp, 24]
	str	x1, [x0]
	nop
	add	sp, sp, 32
	.cfi_def_cfa_offset 0
	ret
	.cfi_endproc
.LFE4974:
	.size	_ZNSt14__shared_countILN9__gnu_cxx12_Lock_policyE2EE7_M_swapERS2_, .-_ZNSt14__shared_countILN9__gnu_cxx12_Lock_policyE2EE7_M_swapERS2_
	.section	.text._ZNSt16_Sp_counted_baseILN9__gnu_cxx12_Lock_policyE2EED2Ev,"axG",@progbits,_ZNSt16_Sp_counted_baseILN9__gnu_cxx12_Lock_policyE2EED5Ev,comdat
	.align	2
	.weak	_ZNSt16_Sp_counted_baseILN9__gnu_cxx12_Lock_policyE2EED2Ev
	.type	_ZNSt16_Sp_counted_baseILN9__gnu_cxx12_Lock_policyE2EED2Ev, %function
_ZNSt16_Sp_counted_baseILN9__gnu_cxx12_Lock_policyE2EED2Ev:
.LFB4979:
	.cfi_startproc
	sub	sp, sp, #16
	.cfi_def_cfa_offset 16
	str	x0, [sp, 8]
	adrp	x0, _ZTVSt16_Sp_counted_baseILN9__gnu_cxx12_Lock_policyE2EE+16
	add	x1, x0, :lo12:_ZTVSt16_Sp_counted_baseILN9__gnu_cxx12_Lock_policyE2EE+16
	ldr	x0, [sp, 8]
	str	x1, [x0]
	nop
	add	sp, sp, 16
	.cfi_def_cfa_offset 0
	ret
	.cfi_endproc
.LFE4979:
	.size	_ZNSt16_Sp_counted_baseILN9__gnu_cxx12_Lock_policyE2EED2Ev, .-_ZNSt16_Sp_counted_baseILN9__gnu_cxx12_Lock_policyE2EED2Ev
	.weak	_ZNSt16_Sp_counted_baseILN9__gnu_cxx12_Lock_policyE2EED1Ev
	.set	_ZNSt16_Sp_counted_baseILN9__gnu_cxx12_Lock_policyE2EED1Ev,_ZNSt16_Sp_counted_baseILN9__gnu_cxx12_Lock_policyE2EED2Ev
	.section	.text._ZNSt16_Sp_counted_baseILN9__gnu_cxx12_Lock_policyE2EED0Ev,"axG",@progbits,_ZNSt16_Sp_counted_baseILN9__gnu_cxx12_Lock_policyE2EED5Ev,comdat
	.align	2
	.weak	_ZNSt16_Sp_counted_baseILN9__gnu_cxx12_Lock_policyE2EED0Ev
	.type	_ZNSt16_Sp_counted_baseILN9__gnu_cxx12_Lock_policyE2EED0Ev, %function
_ZNSt16_Sp_counted_baseILN9__gnu_cxx12_Lock_policyE2EED0Ev:
.LFB4981:
	.cfi_startproc
	stp	x29, x30, [sp, -32]!
	.cfi_def_cfa_offset 32
	.cfi_offset 29, -32
	.cfi_offset 30, -24
	mov	x29, sp
	str	x0, [sp, 24]
	ldr	x0, [sp, 24]
	bl	_ZNSt16_Sp_counted_baseILN9__gnu_cxx12_Lock_policyE2EED1Ev
	mov	x1, 16
	ldr	x0, [sp, 24]
	bl	_ZdlPvm
	ldp	x29, x30, [sp], 32
	.cfi_restore 30
	.cfi_restore 29
	.cfi_def_cfa_offset 0
	ret
	.cfi_endproc
.LFE4981:
	.size	_ZNSt16_Sp_counted_baseILN9__gnu_cxx12_Lock_policyE2EED0Ev, .-_ZNSt16_Sp_counted_baseILN9__gnu_cxx12_Lock_policyE2EED0Ev
	.section	.text._ZNSt12__shared_ptrI6LooperLN9__gnu_cxx12_Lock_policyE2EEC2ISaIS0_EJEEESt20_Sp_alloc_shared_tagIT_EDpOT0_,"axG",@progbits,_ZNSt12__shared_ptrI6LooperLN9__gnu_cxx12_Lock_policyE2EEC5ISaIS0_EJEEESt20_Sp_alloc_shared_tagIT_EDpOT0_,comdat
	.align	2
	.weak	_ZNSt12__shared_ptrI6LooperLN9__gnu_cxx12_Lock_policyE2EEC2ISaIS0_EJEEESt20_Sp_alloc_shared_tagIT_EDpOT0_
	.type	_ZNSt12__shared_ptrI6LooperLN9__gnu_cxx12_Lock_policyE2EEC2ISaIS0_EJEEESt20_Sp_alloc_shared_tagIT_EDpOT0_, %function
_ZNSt12__shared_ptrI6LooperLN9__gnu_cxx12_Lock_policyE2EEC2ISaIS0_EJEEESt20_Sp_alloc_shared_tagIT_EDpOT0_:
.LFB5023:
	.cfi_startproc
	stp	x29, x30, [sp, -32]!
	.cfi_def_cfa_offset 32
	.cfi_offset 29, -32
	.cfi_offset 30, -24
	mov	x29, sp
	str	x0, [sp, 24]
	str	x1, [sp, 16]
	ldr	x0, [sp, 24]
	str	xzr, [x0]
	ldr	x0, [sp, 24]
	add	x0, x0, 8
	ldr	x1, [sp, 24]
	ldr	x2, [sp, 16]
	bl	_ZNSt14__shared_countILN9__gnu_cxx12_Lock_policyE2EEC1I6LooperSaIS4_EJEEERPT_St20_Sp_alloc_shared_tagIT0_EDpOT1_
	ldr	x0, [sp, 24]
	ldr	x0, [x0]
	mov	x1, x0
	ldr	x0, [sp, 24]
	bl	_ZNSt12__shared_ptrI6LooperLN9__gnu_cxx12_Lock_policyE2EE31_M_enable_shared_from_this_withIS0_S0_EENSt9enable_ifIXsrNS3_15__has_esft_baseIT0_vEE5valueEvE4typeEPT_
	nop
	ldp	x29, x30, [sp], 32
	.cfi_restore 30
	.cfi_restore 29
	.cfi_def_cfa_offset 0
	ret
	.cfi_endproc
.LFE5023:
	.size	_ZNSt12__shared_ptrI6LooperLN9__gnu_cxx12_Lock_policyE2EEC2ISaIS0_EJEEESt20_Sp_alloc_shared_tagIT_EDpOT0_, .-_ZNSt12__shared_ptrI6LooperLN9__gnu_cxx12_Lock_policyE2EEC2ISaIS0_EJEEESt20_Sp_alloc_shared_tagIT_EDpOT0_
	.weak	_ZNSt12__shared_ptrI6LooperLN9__gnu_cxx12_Lock_policyE2EEC1ISaIS0_EJEEESt20_Sp_alloc_shared_tagIT_EDpOT0_
	.set	_ZNSt12__shared_ptrI6LooperLN9__gnu_cxx12_Lock_policyE2EEC1ISaIS0_EJEEESt20_Sp_alloc_shared_tagIT_EDpOT0_,_ZNSt12__shared_ptrI6LooperLN9__gnu_cxx12_Lock_policyE2EEC2ISaIS0_EJEEESt20_Sp_alloc_shared_tagIT_EDpOT0_
	.section	.text._ZNSt12__shared_ptrI1MLN9__gnu_cxx12_Lock_policyE2EEC2ISaIS0_EJEEESt20_Sp_alloc_shared_tagIT_EDpOT0_,"axG",@progbits,_ZNSt12__shared_ptrI1MLN9__gnu_cxx12_Lock_policyE2EEC5ISaIS0_EJEEESt20_Sp_alloc_shared_tagIT_EDpOT0_,comdat
	.align	2
	.weak	_ZNSt12__shared_ptrI1MLN9__gnu_cxx12_Lock_policyE2EEC2ISaIS0_EJEEESt20_Sp_alloc_shared_tagIT_EDpOT0_
	.type	_ZNSt12__shared_ptrI1MLN9__gnu_cxx12_Lock_policyE2EEC2ISaIS0_EJEEESt20_Sp_alloc_shared_tagIT_EDpOT0_, %function
_ZNSt12__shared_ptrI1MLN9__gnu_cxx12_Lock_policyE2EEC2ISaIS0_EJEEESt20_Sp_alloc_shared_tagIT_EDpOT0_:
.LFB5026:
	.cfi_startproc
	stp	x29, x30, [sp, -32]!
	.cfi_def_cfa_offset 32
	.cfi_offset 29, -32
	.cfi_offset 30, -24
	mov	x29, sp
	str	x0, [sp, 24]
	str	x1, [sp, 16]
	ldr	x0, [sp, 24]
	str	xzr, [x0]
	ldr	x0, [sp, 24]
	add	x0, x0, 8
	ldr	x1, [sp, 24]
	ldr	x2, [sp, 16]
	bl	_ZNSt14__shared_countILN9__gnu_cxx12_Lock_policyE2EEC1I1MSaIS4_EJEEERPT_St20_Sp_alloc_shared_tagIT0_EDpOT1_
	ldr	x0, [sp, 24]
	ldr	x0, [x0]
	mov	x1, x0
	ldr	x0, [sp, 24]
	bl	_ZNSt12__shared_ptrI1MLN9__gnu_cxx12_Lock_policyE2EE31_M_enable_shared_from_this_withIS0_S0_EENSt9enable_ifIXsrNS3_15__has_esft_baseIT0_vEE5valueEvE4typeEPT_
	nop
	ldp	x29, x30, [sp], 32
	.cfi_restore 30
	.cfi_restore 29
	.cfi_def_cfa_offset 0
	ret
	.cfi_endproc
.LFE5026:
	.size	_ZNSt12__shared_ptrI1MLN9__gnu_cxx12_Lock_policyE2EEC2ISaIS0_EJEEESt20_Sp_alloc_shared_tagIT_EDpOT0_, .-_ZNSt12__shared_ptrI1MLN9__gnu_cxx12_Lock_policyE2EEC2ISaIS0_EJEEESt20_Sp_alloc_shared_tagIT_EDpOT0_
	.weak	_ZNSt12__shared_ptrI1MLN9__gnu_cxx12_Lock_policyE2EEC1ISaIS0_EJEEESt20_Sp_alloc_shared_tagIT_EDpOT0_
	.set	_ZNSt12__shared_ptrI1MLN9__gnu_cxx12_Lock_policyE2EEC1ISaIS0_EJEEESt20_Sp_alloc_shared_tagIT_EDpOT0_,_ZNSt12__shared_ptrI1MLN9__gnu_cxx12_Lock_policyE2EEC2ISaIS0_EJEEESt20_Sp_alloc_shared_tagIT_EDpOT0_
	.text
	.align	2
	.type	_ZNSt10_Head_baseILm0EZ4mainEUlvE_Lb0EEC2IS0_EEOT_, %function
_ZNSt10_Head_baseILm0EZ4mainEUlvE_Lb0EEC2IS0_EEOT_:
.LFB5029:
	.cfi_startproc
	stp	x29, x30, [sp, -32]!
	.cfi_def_cfa_offset 32
	.cfi_offset 29, -32
	.cfi_offset 30, -24
	mov	x29, sp
	str	x0, [sp, 24]
	str	x1, [sp, 16]
	ldr	x0, [sp, 16]
	bl	_ZSt7forwardIZ4mainEUlvE_EOT_RNSt16remove_referenceIS1_E4typeE
	ldr	x2, [sp, 24]
	ldp	x0, x1, [x0]
	stp	x0, x1, [x2]
	nop
	ldp	x29, x30, [sp], 32
	.cfi_restore 30
	.cfi_restore 29
	.cfi_def_cfa_offset 0
	ret
	.cfi_endproc
.LFE5029:
	.size	_ZNSt10_Head_baseILm0EZ4mainEUlvE_Lb0EEC2IS0_EEOT_, .-_ZNSt10_Head_baseILm0EZ4mainEUlvE_Lb0EEC2IS0_EEOT_
	.section	.text._ZNSt5tupleIJPNSt6thread6_StateESt14default_deleteIS1_EEEC2ILb1ELb1EEEv,"axG",@progbits,_ZNSt5tupleIJPNSt6thread6_StateESt14default_deleteIS1_EEEC5ILb1ELb1EEEv,comdat
	.align	2
	.weak	_ZNSt5tupleIJPNSt6thread6_StateESt14default_deleteIS1_EEEC2ILb1ELb1EEEv
	.type	_ZNSt5tupleIJPNSt6thread6_StateESt14default_deleteIS1_EEEC2ILb1ELb1EEEv, %function
_ZNSt5tupleIJPNSt6thread6_StateESt14default_deleteIS1_EEEC2ILb1ELb1EEEv:
.LFB5032:
	.cfi_startproc
	.cfi_personality 0x9b,DW.ref.__gxx_personality_v0
	.cfi_lsda 0x1b,.LLSDA5032
	stp	x29, x30, [sp, -32]!
	.cfi_def_cfa_offset 32
	.cfi_offset 29, -32
	.cfi_offset 30, -24
	mov	x29, sp
	str	x0, [sp, 24]
	ldr	x0, [sp, 24]
	bl	_ZNSt11_Tuple_implILm0EJPNSt6thread6_StateESt14default_deleteIS1_EEEC2Ev
	nop
	ldp	x29, x30, [sp], 32
	.cfi_restore 30
	.cfi_restore 29
	.cfi_def_cfa_offset 0
	ret
	.cfi_endproc
.LFE5032:
	.section	.gcc_except_table
.LLSDA5032:
	.byte	0xff
	.byte	0xff
	.byte	0x1
	.uleb128 .LLSDACSE5032-.LLSDACSB5032
.LLSDACSB5032:
.LLSDACSE5032:
	.section	.text._ZNSt5tupleIJPNSt6thread6_StateESt14default_deleteIS1_EEEC2ILb1ELb1EEEv,"axG",@progbits,_ZNSt5tupleIJPNSt6thread6_StateESt14default_deleteIS1_EEEC5ILb1ELb1EEEv,comdat
	.size	_ZNSt5tupleIJPNSt6thread6_StateESt14default_deleteIS1_EEEC2ILb1ELb1EEEv, .-_ZNSt5tupleIJPNSt6thread6_StateESt14default_deleteIS1_EEEC2ILb1ELb1EEEv
	.weak	_ZNSt5tupleIJPNSt6thread6_StateESt14default_deleteIS1_EEEC1ILb1ELb1EEEv
	.set	_ZNSt5tupleIJPNSt6thread6_StateESt14default_deleteIS1_EEEC1ILb1ELb1EEEv,_ZNSt5tupleIJPNSt6thread6_StateESt14default_deleteIS1_EEEC2ILb1ELb1EEEv
	.section	.text._ZSt3getILm0EJPNSt6thread6_StateESt14default_deleteIS1_EEERNSt13tuple_elementIXT_ESt5tupleIJDpT0_EEE4typeERS9_,"axG",@progbits,_ZSt3getILm0EJPNSt6thread6_StateESt14default_deleteIS1_EEERNSt13tuple_elementIXT_ESt5tupleIJDpT0_EEE4typeERS9_,comdat
	.align	2
	.weak	_ZSt3getILm0EJPNSt6thread6_StateESt14default_deleteIS1_EEERNSt13tuple_elementIXT_ESt5tupleIJDpT0_EEE4typeERS9_
	.type	_ZSt3getILm0EJPNSt6thread6_StateESt14default_deleteIS1_EEERNSt13tuple_elementIXT_ESt5tupleIJDpT0_EEE4typeERS9_, %function
_ZSt3getILm0EJPNSt6thread6_StateESt14default_deleteIS1_EEERNSt13tuple_elementIXT_ESt5tupleIJDpT0_EEE4typeERS9_:
.LFB5034:
	.cfi_startproc
	stp	x29, x30, [sp, -32]!
	.cfi_def_cfa_offset 32
	.cfi_offset 29, -32
	.cfi_offset 30, -24
	mov	x29, sp
	str	x0, [sp, 24]
	ldr	x0, [sp, 24]
	bl	_ZSt12__get_helperILm0EPNSt6thread6_StateEJSt14default_deleteIS1_EEERT0_RSt11_Tuple_implIXT_EJS5_DpT1_EE
	ldp	x29, x30, [sp], 32
	.cfi_restore 30
	.cfi_restore 29
	.cfi_def_cfa_offset 0
	ret
	.cfi_endproc
.LFE5034:
	.size	_ZSt3getILm0EJPNSt6thread6_StateESt14default_deleteIS1_EEERNSt13tuple_elementIXT_ESt5tupleIJDpT0_EEE4typeERS9_, .-_ZSt3getILm0EJPNSt6thread6_StateESt14default_deleteIS1_EEERNSt13tuple_elementIXT_ESt5tupleIJDpT0_EEE4typeERS9_
	.section	.text._ZNSt15__uniq_ptr_implINSt6thread6_StateESt14default_deleteIS1_EE10_M_deleterEv,"axG",@progbits,_ZNSt15__uniq_ptr_implINSt6thread6_StateESt14default_deleteIS1_EE10_M_deleterEv,comdat
	.align	2
	.weak	_ZNSt15__uniq_ptr_implINSt6thread6_StateESt14default_deleteIS1_EE10_M_deleterEv
	.type	_ZNSt15__uniq_ptr_implINSt6thread6_StateESt14default_deleteIS1_EE10_M_deleterEv, %function
_ZNSt15__uniq_ptr_implINSt6thread6_StateESt14default_deleteIS1_EE10_M_deleterEv:
.LFB5035:
	.cfi_startproc
	stp	x29, x30, [sp, -32]!
	.cfi_def_cfa_offset 32
	.cfi_offset 29, -32
	.cfi_offset 30, -24
	mov	x29, sp
	str	x0, [sp, 24]
	ldr	x0, [sp, 24]
	bl	_ZSt3getILm1EJPNSt6thread6_StateESt14default_deleteIS1_EEERNSt13tuple_elementIXT_ESt5tupleIJDpT0_EEE4typeERS9_
	ldp	x29, x30, [sp], 32
	.cfi_restore 30
	.cfi_restore 29
	.cfi_def_cfa_offset 0
	ret
	.cfi_endproc
.LFE5035:
	.size	_ZNSt15__uniq_ptr_implINSt6thread6_StateESt14default_deleteIS1_EE10_M_deleterEv, .-_ZNSt15__uniq_ptr_implINSt6thread6_StateESt14default_deleteIS1_EE10_M_deleterEv
	.section	.text._ZNSt12__shared_ptrI7MessageLN9__gnu_cxx12_Lock_policyE2EEC2ISaIS0_EJiEEESt20_Sp_alloc_shared_tagIT_EDpOT0_,"axG",@progbits,_ZNSt12__shared_ptrI7MessageLN9__gnu_cxx12_Lock_policyE2EEC5ISaIS0_EJiEEESt20_Sp_alloc_shared_tagIT_EDpOT0_,comdat
	.align	2
	.weak	_ZNSt12__shared_ptrI7MessageLN9__gnu_cxx12_Lock_policyE2EEC2ISaIS0_EJiEEESt20_Sp_alloc_shared_tagIT_EDpOT0_
	.type	_ZNSt12__shared_ptrI7MessageLN9__gnu_cxx12_Lock_policyE2EEC2ISaIS0_EJiEEESt20_Sp_alloc_shared_tagIT_EDpOT0_, %function
_ZNSt12__shared_ptrI7MessageLN9__gnu_cxx12_Lock_policyE2EEC2ISaIS0_EJiEEESt20_Sp_alloc_shared_tagIT_EDpOT0_:
.LFB5037:
	.cfi_startproc
	stp	x29, x30, [sp, -64]!
	.cfi_def_cfa_offset 64
	.cfi_offset 29, -64
	.cfi_offset 30, -56
	mov	x29, sp
	stp	x19, x20, [sp, 16]
	.cfi_offset 19, -48
	.cfi_offset 20, -40
	str	x0, [sp, 56]
	str	x1, [sp, 48]
	str	x2, [sp, 40]
	ldr	x0, [sp, 56]
	str	xzr, [x0]
	ldr	x0, [sp, 56]
	add	x19, x0, 8
	ldr	x20, [sp, 56]
	ldr	x0, [sp, 40]
	bl	_ZSt7forwardIiEOT_RNSt16remove_referenceIS0_E4typeE
	mov	x3, x0
	ldr	x2, [sp, 48]
	mov	x1, x20
	mov	x0, x19
	bl	_ZNSt14__shared_countILN9__gnu_cxx12_Lock_policyE2EEC1I7MessageSaIS4_EJiEEERPT_St20_Sp_alloc_shared_tagIT0_EDpOT1_
	ldr	x0, [sp, 56]
	ldr	x0, [x0]
	mov	x1, x0
	ldr	x0, [sp, 56]
	bl	_ZNSt12__shared_ptrI7MessageLN9__gnu_cxx12_Lock_policyE2EE31_M_enable_shared_from_this_withIS0_S0_EENSt9enable_ifIXsrNS3_15__has_esft_baseIT0_vEE5valueEvE4typeEPT_
	nop
	ldp	x19, x20, [sp, 16]
	ldp	x29, x30, [sp], 64
	.cfi_restore 30
	.cfi_restore 29
	.cfi_restore 19
	.cfi_restore 20
	.cfi_def_cfa_offset 0
	ret
	.cfi_endproc
.LFE5037:
	.size	_ZNSt12__shared_ptrI7MessageLN9__gnu_cxx12_Lock_policyE2EEC2ISaIS0_EJiEEESt20_Sp_alloc_shared_tagIT_EDpOT0_, .-_ZNSt12__shared_ptrI7MessageLN9__gnu_cxx12_Lock_policyE2EEC2ISaIS0_EJiEEESt20_Sp_alloc_shared_tagIT_EDpOT0_
	.weak	_ZNSt12__shared_ptrI7MessageLN9__gnu_cxx12_Lock_policyE2EEC1ISaIS0_EJiEEESt20_Sp_alloc_shared_tagIT_EDpOT0_
	.set	_ZNSt12__shared_ptrI7MessageLN9__gnu_cxx12_Lock_policyE2EEC1ISaIS0_EJiEEESt20_Sp_alloc_shared_tagIT_EDpOT0_,_ZNSt12__shared_ptrI7MessageLN9__gnu_cxx12_Lock_policyE2EEC2ISaIS0_EJiEEESt20_Sp_alloc_shared_tagIT_EDpOT0_
	.section	.text._ZNSt12__shared_ptrI9FdHandlerLN9__gnu_cxx12_Lock_policyE2EEC2ISaIS0_EJEEESt20_Sp_alloc_shared_tagIT_EDpOT0_,"axG",@progbits,_ZNSt12__shared_ptrI9FdHandlerLN9__gnu_cxx12_Lock_policyE2EEC5ISaIS0_EJEEESt20_Sp_alloc_shared_tagIT_EDpOT0_,comdat
	.align	2
	.weak	_ZNSt12__shared_ptrI9FdHandlerLN9__gnu_cxx12_Lock_policyE2EEC2ISaIS0_EJEEESt20_Sp_alloc_shared_tagIT_EDpOT0_
	.type	_ZNSt12__shared_ptrI9FdHandlerLN9__gnu_cxx12_Lock_policyE2EEC2ISaIS0_EJEEESt20_Sp_alloc_shared_tagIT_EDpOT0_, %function
_ZNSt12__shared_ptrI9FdHandlerLN9__gnu_cxx12_Lock_policyE2EEC2ISaIS0_EJEEESt20_Sp_alloc_shared_tagIT_EDpOT0_:
.LFB5040:
	.cfi_startproc
	stp	x29, x30, [sp, -32]!
	.cfi_def_cfa_offset 32
	.cfi_offset 29, -32
	.cfi_offset 30, -24
	mov	x29, sp
	str	x0, [sp, 24]
	str	x1, [sp, 16]
	ldr	x0, [sp, 24]
	str	xzr, [x0]
	ldr	x0, [sp, 24]
	add	x0, x0, 8
	ldr	x1, [sp, 24]
	ldr	x2, [sp, 16]
	bl	_ZNSt14__shared_countILN9__gnu_cxx12_Lock_policyE2EEC1I9FdHandlerSaIS4_EJEEERPT_St20_Sp_alloc_shared_tagIT0_EDpOT1_
	ldr	x0, [sp, 24]
	ldr	x0, [x0]
	mov	x1, x0
	ldr	x0, [sp, 24]
	bl	_ZNSt12__shared_ptrI9FdHandlerLN9__gnu_cxx12_Lock_policyE2EE31_M_enable_shared_from_this_withIS0_S0_EENSt9enable_ifIXsrNS3_15__has_esft_baseIT0_vEE5valueEvE4typeEPT_
	nop
	ldp	x29, x30, [sp], 32
	.cfi_restore 30
	.cfi_restore 29
	.cfi_def_cfa_offset 0
	ret
	.cfi_endproc
.LFE5040:
	.size	_ZNSt12__shared_ptrI9FdHandlerLN9__gnu_cxx12_Lock_policyE2EEC2ISaIS0_EJEEESt20_Sp_alloc_shared_tagIT_EDpOT0_, .-_ZNSt12__shared_ptrI9FdHandlerLN9__gnu_cxx12_Lock_policyE2EEC2ISaIS0_EJEEESt20_Sp_alloc_shared_tagIT_EDpOT0_
	.weak	_ZNSt12__shared_ptrI9FdHandlerLN9__gnu_cxx12_Lock_policyE2EEC1ISaIS0_EJEEESt20_Sp_alloc_shared_tagIT_EDpOT0_
	.set	_ZNSt12__shared_ptrI9FdHandlerLN9__gnu_cxx12_Lock_policyE2EEC1ISaIS0_EJEEESt20_Sp_alloc_shared_tagIT_EDpOT0_,_ZNSt12__shared_ptrI9FdHandlerLN9__gnu_cxx12_Lock_policyE2EEC2ISaIS0_EJEEESt20_Sp_alloc_shared_tagIT_EDpOT0_
	.section	.text._ZNSt14__shared_countILN9__gnu_cxx12_Lock_policyE2EEC2I6LooperSaIS4_EJEEERPT_St20_Sp_alloc_shared_tagIT0_EDpOT1_,"axG",@progbits,_ZNSt14__shared_countILN9__gnu_cxx12_Lock_policyE2EEC5I6LooperSaIS4_EJEEERPT_St20_Sp_alloc_shared_tagIT0_EDpOT1_,comdat
	.align	2
	.weak	_ZNSt14__shared_countILN9__gnu_cxx12_Lock_policyE2EEC2I6LooperSaIS4_EJEEERPT_St20_Sp_alloc_shared_tagIT0_EDpOT1_
	.type	_ZNSt14__shared_countILN9__gnu_cxx12_Lock_policyE2EEC2I6LooperSaIS4_EJEEERPT_St20_Sp_alloc_shared_tagIT0_EDpOT1_, %function
_ZNSt14__shared_countILN9__gnu_cxx12_Lock_policyE2EEC2I6LooperSaIS4_EJEEERPT_St20_Sp_alloc_shared_tagIT0_EDpOT1_:
.LFB5083:
	.cfi_startproc
	.cfi_personality 0x9b,DW.ref.__gxx_personality_v0
	.cfi_lsda 0x1b,.LLSDA5083
	stp	x29, x30, [sp, -144]!
	.cfi_def_cfa_offset 144
	.cfi_offset 29, -144
	.cfi_offset 30, -136
	mov	x29, sp
	stp	x19, x20, [sp, 16]
	str	x21, [sp, 32]
	.cfi_offset 19, -128
	.cfi_offset 20, -120
	.cfi_offset 21, -112
	str	x0, [sp, 72]
	str	x1, [sp, 64]
	str	x2, [sp, 56]
	adrp	x0, :got:__stack_chk_guard
	ldr	x0, [x0, #:got_lo12:__stack_chk_guard]
	ldr	x1, [x0]
	str	x1, [sp, 136]
	mov	x1, 0
	ldr	x1, [sp, 56]
	add	x0, sp, 88
	bl	_ZNSaISt23_Sp_counted_ptr_inplaceI6LooperSaIS0_ELN9__gnu_cxx12_Lock_policyE2EEEC1IS0_EERKSaIT_E
	add	x0, sp, 88
	add	x1, sp, 120
	mov	x8, x1
.LEHB23:
	bl	_ZSt18__allocate_guardedISaISt23_Sp_counted_ptr_inplaceI6LooperSaIS1_ELN9__gnu_cxx12_Lock_policyE2EEEESt15__allocated_ptrIT_ERS8_
.LEHE23:
	add	x0, sp, 120
	bl	_ZNSt15__allocated_ptrISaISt23_Sp_counted_ptr_inplaceI6LooperSaIS1_ELN9__gnu_cxx12_Lock_policyE2EEEE3getEv
	str	x0, [sp, 104]
	ldr	x1, [sp, 56]
	add	x0, sp, 96
	bl	_ZNSaI6LooperEC1ERKS0_
	add	x21, sp, 96
	ldr	x20, [sp, 104]
	mov	x1, x20
	mov	x0, 248
	bl	_ZnwmPv
	mov	x19, x0
	mov	x1, x21
	mov	x0, x19
.LEHB24:
	bl	_ZNSt23_Sp_counted_ptr_inplaceI6LooperSaIS0_ELN9__gnu_cxx12_Lock_policyE2EEC1IJEEES1_DpOT_
.LEHE24:
	str	x19, [sp, 112]
	add	x0, sp, 96
	bl	_ZNSaI6LooperED1Ev
	add	x0, sp, 120
	mov	x1, 0
	bl	_ZNSt15__allocated_ptrISaISt23_Sp_counted_ptr_inplaceI6LooperSaIS1_ELN9__gnu_cxx12_Lock_policyE2EEEEaSEDn
	ldr	x0, [sp, 72]
	ldr	x1, [sp, 112]
	str	x1, [x0]
	ldr	x0, [sp, 112]
	bl	_ZNSt23_Sp_counted_ptr_inplaceI6LooperSaIS0_ELN9__gnu_cxx12_Lock_policyE2EE6_M_ptrEv
	mov	x1, x0
	ldr	x0, [sp, 64]
	str	x1, [x0]
	add	x0, sp, 120
	bl	_ZNSt15__allocated_ptrISaISt23_Sp_counted_ptr_inplaceI6LooperSaIS1_ELN9__gnu_cxx12_Lock_policyE2EEEED1Ev
	add	x0, sp, 88
	bl	_ZNSaISt23_Sp_counted_ptr_inplaceI6LooperSaIS0_ELN9__gnu_cxx12_Lock_policyE2EEED1Ev
	nop
	adrp	x0, :got:__stack_chk_guard
	ldr	x0, [x0, #:got_lo12:__stack_chk_guard]
	ldr	x2, [sp, 136]
	ldr	x1, [x0]
	subs	x2, x2, x1
	mov	x1, 0
	beq	.L242
	b	.L245
.L244:
	mov	x21, x0
	mov	x1, x20
	mov	x0, x19
	bl	_ZdlPvS_
	mov	x19, x21
	add	x0, sp, 96
	bl	_ZNSaI6LooperED1Ev
	add	x0, sp, 120
	bl	_ZNSt15__allocated_ptrISaISt23_Sp_counted_ptr_inplaceI6LooperSaIS1_ELN9__gnu_cxx12_Lock_policyE2EEEED1Ev
	b	.L241
.L243:
	mov	x19, x0
.L241:
	add	x0, sp, 88
	bl	_ZNSaISt23_Sp_counted_ptr_inplaceI6LooperSaIS0_ELN9__gnu_cxx12_Lock_policyE2EEED1Ev
	mov	x0, x19
.LEHB25:
	bl	_Unwind_Resume
.LEHE25:
.L245:
	bl	__stack_chk_fail
.L242:
	ldp	x19, x20, [sp, 16]
	ldr	x21, [sp, 32]
	ldp	x29, x30, [sp], 144
	.cfi_restore 30
	.cfi_restore 29
	.cfi_restore 21
	.cfi_restore 19
	.cfi_restore 20
	.cfi_def_cfa_offset 0
	ret
	.cfi_endproc
.LFE5083:
	.section	.gcc_except_table
.LLSDA5083:
	.byte	0xff
	.byte	0xff
	.byte	0x1
	.uleb128 .LLSDACSE5083-.LLSDACSB5083
.LLSDACSB5083:
	.uleb128 .LEHB23-.LFB5083
	.uleb128 .LEHE23-.LEHB23
	.uleb128 .L243-.LFB5083
	.uleb128 0
	.uleb128 .LEHB24-.LFB5083
	.uleb128 .LEHE24-.LEHB24
	.uleb128 .L244-.LFB5083
	.uleb128 0
	.uleb128 .LEHB25-.LFB5083
	.uleb128 .LEHE25-.LEHB25
	.uleb128 0
	.uleb128 0
.LLSDACSE5083:
	.section	.text._ZNSt14__shared_countILN9__gnu_cxx12_Lock_policyE2EEC2I6LooperSaIS4_EJEEERPT_St20_Sp_alloc_shared_tagIT0_EDpOT1_,"axG",@progbits,_ZNSt14__shared_countILN9__gnu_cxx12_Lock_policyE2EEC5I6LooperSaIS4_EJEEERPT_St20_Sp_alloc_shared_tagIT0_EDpOT1_,comdat
	.size	_ZNSt14__shared_countILN9__gnu_cxx12_Lock_policyE2EEC2I6LooperSaIS4_EJEEERPT_St20_Sp_alloc_shared_tagIT0_EDpOT1_, .-_ZNSt14__shared_countILN9__gnu_cxx12_Lock_policyE2EEC2I6LooperSaIS4_EJEEERPT_St20_Sp_alloc_shared_tagIT0_EDpOT1_
	.weak	_ZNSt14__shared_countILN9__gnu_cxx12_Lock_policyE2EEC1I6LooperSaIS4_EJEEERPT_St20_Sp_alloc_shared_tagIT0_EDpOT1_
	.set	_ZNSt14__shared_countILN9__gnu_cxx12_Lock_policyE2EEC1I6LooperSaIS4_EJEEERPT_St20_Sp_alloc_shared_tagIT0_EDpOT1_,_ZNSt14__shared_countILN9__gnu_cxx12_Lock_policyE2EEC2I6LooperSaIS4_EJEEERPT_St20_Sp_alloc_shared_tagIT0_EDpOT1_
	.section	.text._ZNSt12__shared_ptrI6LooperLN9__gnu_cxx12_Lock_policyE2EE31_M_enable_shared_from_this_withIS0_S0_EENSt9enable_ifIXsrNS3_15__has_esft_baseIT0_vEE5valueEvE4typeEPT_,"axG",@progbits,_ZNSt12__shared_ptrI6LooperLN9__gnu_cxx12_Lock_policyE2EE31_M_enable_shared_from_this_withIS0_S0_EENSt9enable_ifIXsrNS3_15__has_esft_baseIT0_vEE5valueEvE4typeEPT_,comdat
	.align	2
	.weak	_ZNSt12__shared_ptrI6LooperLN9__gnu_cxx12_Lock_policyE2EE31_M_enable_shared_from_this_withIS0_S0_EENSt9enable_ifIXsrNS3_15__has_esft_baseIT0_vEE5valueEvE4typeEPT_
	.type	_ZNSt12__shared_ptrI6LooperLN9__gnu_cxx12_Lock_policyE2EE31_M_enable_shared_from_this_withIS0_S0_EENSt9enable_ifIXsrNS3_15__has_esft_baseIT0_vEE5valueEvE4typeEPT_, %function
_ZNSt12__shared_ptrI6LooperLN9__gnu_cxx12_Lock_policyE2EE31_M_enable_shared_from_this_withIS0_S0_EENSt9enable_ifIXsrNS3_15__has_esft_baseIT0_vEE5valueEvE4typeEPT_:
.LFB5085:
	.cfi_startproc
	stp	x29, x30, [sp, -48]!
	.cfi_def_cfa_offset 48
	.cfi_offset 29, -48
	.cfi_offset 30, -40
	mov	x29, sp
	str	x0, [sp, 24]
	str	x1, [sp, 16]
	ldr	x0, [sp, 24]
	add	x2, x0, 8
	ldr	x0, [sp, 16]
	cmp	x0, 0
	beq	.L247
	ldr	x0, [sp, 16]
	add	x0, x0, 8
	b	.L248
.L247:
	mov	x0, 0
.L248:
	mov	x1, x0
	mov	x0, x2
	bl	_ZSt30__enable_shared_from_this_baseRKSt14__shared_countILN9__gnu_cxx12_Lock_policyE2EEPKSt23enable_shared_from_thisI6LooperE
	str	x0, [sp, 40]
	ldr	x0, [sp, 40]
	cmp	x0, 0
	beq	.L250
	ldr	x0, [sp, 24]
	add	x0, x0, 8
	mov	x2, x0
	ldr	x1, [sp, 16]
	ldr	x0, [sp, 40]
	bl	_ZNKSt23enable_shared_from_thisI6LooperE14_M_weak_assignIS0_EEvPT_RKSt14__shared_countILN9__gnu_cxx12_Lock_policyE2EE
.L250:
	nop
	ldp	x29, x30, [sp], 48
	.cfi_restore 30
	.cfi_restore 29
	.cfi_def_cfa_offset 0
	ret
	.cfi_endproc
.LFE5085:
	.size	_ZNSt12__shared_ptrI6LooperLN9__gnu_cxx12_Lock_policyE2EE31_M_enable_shared_from_this_withIS0_S0_EENSt9enable_ifIXsrNS3_15__has_esft_baseIT0_vEE5valueEvE4typeEPT_, .-_ZNSt12__shared_ptrI6LooperLN9__gnu_cxx12_Lock_policyE2EE31_M_enable_shared_from_this_withIS0_S0_EENSt9enable_ifIXsrNS3_15__has_esft_baseIT0_vEE5valueEvE4typeEPT_
	.section	.text._ZNSt14__shared_countILN9__gnu_cxx12_Lock_policyE2EEC2I1MSaIS4_EJEEERPT_St20_Sp_alloc_shared_tagIT0_EDpOT1_,"axG",@progbits,_ZNSt14__shared_countILN9__gnu_cxx12_Lock_policyE2EEC5I1MSaIS4_EJEEERPT_St20_Sp_alloc_shared_tagIT0_EDpOT1_,comdat
	.align	2
	.weak	_ZNSt14__shared_countILN9__gnu_cxx12_Lock_policyE2EEC2I1MSaIS4_EJEEERPT_St20_Sp_alloc_shared_tagIT0_EDpOT1_
	.type	_ZNSt14__shared_countILN9__gnu_cxx12_Lock_policyE2EEC2I1MSaIS4_EJEEERPT_St20_Sp_alloc_shared_tagIT0_EDpOT1_, %function
_ZNSt14__shared_countILN9__gnu_cxx12_Lock_policyE2EEC2I1MSaIS4_EJEEERPT_St20_Sp_alloc_shared_tagIT0_EDpOT1_:
.LFB5087:
	.cfi_startproc
	.cfi_personality 0x9b,DW.ref.__gxx_personality_v0
	.cfi_lsda 0x1b,.LLSDA5087
	stp	x29, x30, [sp, -128]!
	.cfi_def_cfa_offset 128
	.cfi_offset 29, -128
	.cfi_offset 30, -120
	mov	x29, sp
	stp	x19, x20, [sp, 16]
	.cfi_offset 19, -112
	.cfi_offset 20, -104
	str	x0, [sp, 56]
	str	x1, [sp, 48]
	str	x2, [sp, 40]
	adrp	x0, :got:__stack_chk_guard
	ldr	x0, [x0, #:got_lo12:__stack_chk_guard]
	ldr	x1, [x0]
	str	x1, [sp, 120]
	mov	x1, 0
	ldr	x1, [sp, 40]
	add	x0, sp, 72
	bl	_ZNSaISt23_Sp_counted_ptr_inplaceI1MSaIS0_ELN9__gnu_cxx12_Lock_policyE2EEEC1IS0_EERKSaIT_E
	add	x0, sp, 72
	add	x1, sp, 104
	mov	x8, x1
.LEHB26:
	bl	_ZSt18__allocate_guardedISaISt23_Sp_counted_ptr_inplaceI1MSaIS1_ELN9__gnu_cxx12_Lock_policyE2EEEESt15__allocated_ptrIT_ERS8_
.LEHE26:
	add	x0, sp, 104
	bl	_ZNSt15__allocated_ptrISaISt23_Sp_counted_ptr_inplaceI1MSaIS1_ELN9__gnu_cxx12_Lock_policyE2EEEE3getEv
	str	x0, [sp, 88]
	ldr	x1, [sp, 40]
	add	x0, sp, 80
	bl	_ZNSaI1MEC1ERKS0_
	add	x20, sp, 80
	ldr	x0, [sp, 88]
	mov	x1, x0
	mov	x0, 40
	bl	_ZnwmPv
	mov	x19, x0
	mov	x1, x20
	mov	x0, x19
	bl	_ZNSt23_Sp_counted_ptr_inplaceI1MSaIS0_ELN9__gnu_cxx12_Lock_policyE2EEC1IJEEES1_DpOT_
	str	x19, [sp, 96]
	add	x0, sp, 80
	bl	_ZNSaI1MED1Ev
	add	x0, sp, 104
	mov	x1, 0
	bl	_ZNSt15__allocated_ptrISaISt23_Sp_counted_ptr_inplaceI1MSaIS1_ELN9__gnu_cxx12_Lock_policyE2EEEEaSEDn
	ldr	x0, [sp, 56]
	ldr	x1, [sp, 96]
	str	x1, [x0]
	ldr	x0, [sp, 96]
	bl	_ZNSt23_Sp_counted_ptr_inplaceI1MSaIS0_ELN9__gnu_cxx12_Lock_policyE2EE6_M_ptrEv
	mov	x1, x0
	ldr	x0, [sp, 48]
	str	x1, [x0]
	add	x0, sp, 104
	bl	_ZNSt15__allocated_ptrISaISt23_Sp_counted_ptr_inplaceI1MSaIS1_ELN9__gnu_cxx12_Lock_policyE2EEEED1Ev
	add	x0, sp, 72
	bl	_ZNSaISt23_Sp_counted_ptr_inplaceI1MSaIS0_ELN9__gnu_cxx12_Lock_policyE2EEED1Ev
	nop
	adrp	x0, :got:__stack_chk_guard
	ldr	x0, [x0, #:got_lo12:__stack_chk_guard]
	ldr	x2, [sp, 120]
	ldr	x1, [x0]
	subs	x2, x2, x1
	mov	x1, 0
	beq	.L253
	b	.L255
.L254:
	mov	x19, x0
	add	x0, sp, 72
	bl	_ZNSaISt23_Sp_counted_ptr_inplaceI1MSaIS0_ELN9__gnu_cxx12_Lock_policyE2EEED1Ev
	mov	x0, x19
.LEHB27:
	bl	_Unwind_Resume
.LEHE27:
.L255:
	bl	__stack_chk_fail
.L253:
	ldp	x19, x20, [sp, 16]
	ldp	x29, x30, [sp], 128
	.cfi_restore 30
	.cfi_restore 29
	.cfi_restore 19
	.cfi_restore 20
	.cfi_def_cfa_offset 0
	ret
	.cfi_endproc
.LFE5087:
	.section	.gcc_except_table
.LLSDA5087:
	.byte	0xff
	.byte	0xff
	.byte	0x1
	.uleb128 .LLSDACSE5087-.LLSDACSB5087
.LLSDACSB5087:
	.uleb128 .LEHB26-.LFB5087
	.uleb128 .LEHE26-.LEHB26
	.uleb128 .L254-.LFB5087
	.uleb128 0
	.uleb128 .LEHB27-.LFB5087
	.uleb128 .LEHE27-.LEHB27
	.uleb128 0
	.uleb128 0
.LLSDACSE5087:
	.section	.text._ZNSt14__shared_countILN9__gnu_cxx12_Lock_policyE2EEC2I1MSaIS4_EJEEERPT_St20_Sp_alloc_shared_tagIT0_EDpOT1_,"axG",@progbits,_ZNSt14__shared_countILN9__gnu_cxx12_Lock_policyE2EEC5I1MSaIS4_EJEEERPT_St20_Sp_alloc_shared_tagIT0_EDpOT1_,comdat
	.size	_ZNSt14__shared_countILN9__gnu_cxx12_Lock_policyE2EEC2I1MSaIS4_EJEEERPT_St20_Sp_alloc_shared_tagIT0_EDpOT1_, .-_ZNSt14__shared_countILN9__gnu_cxx12_Lock_policyE2EEC2I1MSaIS4_EJEEERPT_St20_Sp_alloc_shared_tagIT0_EDpOT1_
	.weak	_ZNSt14__shared_countILN9__gnu_cxx12_Lock_policyE2EEC1I1MSaIS4_EJEEERPT_St20_Sp_alloc_shared_tagIT0_EDpOT1_
	.set	_ZNSt14__shared_countILN9__gnu_cxx12_Lock_policyE2EEC1I1MSaIS4_EJEEERPT_St20_Sp_alloc_shared_tagIT0_EDpOT1_,_ZNSt14__shared_countILN9__gnu_cxx12_Lock_policyE2EEC2I1MSaIS4_EJEEERPT_St20_Sp_alloc_shared_tagIT0_EDpOT1_
	.section	.text._ZNSt12__shared_ptrI1MLN9__gnu_cxx12_Lock_policyE2EE31_M_enable_shared_from_this_withIS0_S0_EENSt9enable_ifIXsrNS3_15__has_esft_baseIT0_vEE5valueEvE4typeEPT_,"axG",@progbits,_ZNSt12__shared_ptrI1MLN9__gnu_cxx12_Lock_policyE2EE31_M_enable_shared_from_this_withIS0_S0_EENSt9enable_ifIXsrNS3_15__has_esft_baseIT0_vEE5valueEvE4typeEPT_,comdat
	.align	2
	.weak	_ZNSt12__shared_ptrI1MLN9__gnu_cxx12_Lock_policyE2EE31_M_enable_shared_from_this_withIS0_S0_EENSt9enable_ifIXsrNS3_15__has_esft_baseIT0_vEE5valueEvE4typeEPT_
	.type	_ZNSt12__shared_ptrI1MLN9__gnu_cxx12_Lock_policyE2EE31_M_enable_shared_from_this_withIS0_S0_EENSt9enable_ifIXsrNS3_15__has_esft_baseIT0_vEE5valueEvE4typeEPT_, %function
_ZNSt12__shared_ptrI1MLN9__gnu_cxx12_Lock_policyE2EE31_M_enable_shared_from_this_withIS0_S0_EENSt9enable_ifIXsrNS3_15__has_esft_baseIT0_vEE5valueEvE4typeEPT_:
.LFB5089:
	.cfi_startproc
	stp	x29, x30, [sp, -48]!
	.cfi_def_cfa_offset 48
	.cfi_offset 29, -48
	.cfi_offset 30, -40
	mov	x29, sp
	str	x0, [sp, 24]
	str	x1, [sp, 16]
	ldr	x0, [sp, 24]
	add	x2, x0, 8
	ldr	x0, [sp, 16]
	cmp	x0, 0
	beq	.L257
	ldr	x0, [sp, 16]
	add	x0, x0, 8
	b	.L258
.L257:
	mov	x0, 0
.L258:
	mov	x1, x0
	mov	x0, x2
	bl	_ZSt30__enable_shared_from_this_baseRKSt14__shared_countILN9__gnu_cxx12_Lock_policyE2EEPKSt23enable_shared_from_thisI14MessageHandlerE
	str	x0, [sp, 40]
	ldr	x0, [sp, 40]
	cmp	x0, 0
	beq	.L260
	ldr	x0, [sp, 24]
	add	x0, x0, 8
	mov	x2, x0
	ldr	x1, [sp, 16]
	ldr	x0, [sp, 40]
	bl	_ZNKSt23enable_shared_from_thisI14MessageHandlerE14_M_weak_assignI1MEEvPT_RKSt14__shared_countILN9__gnu_cxx12_Lock_policyE2EE
.L260:
	nop
	ldp	x29, x30, [sp], 48
	.cfi_restore 30
	.cfi_restore 29
	.cfi_def_cfa_offset 0
	ret
	.cfi_endproc
.LFE5089:
	.size	_ZNSt12__shared_ptrI1MLN9__gnu_cxx12_Lock_policyE2EE31_M_enable_shared_from_this_withIS0_S0_EENSt9enable_ifIXsrNS3_15__has_esft_baseIT0_vEE5valueEvE4typeEPT_, .-_ZNSt12__shared_ptrI1MLN9__gnu_cxx12_Lock_policyE2EE31_M_enable_shared_from_this_withIS0_S0_EENSt9enable_ifIXsrNS3_15__has_esft_baseIT0_vEE5valueEvE4typeEPT_
	.section	.text._ZNSt11_Tuple_implILm0EJPNSt6thread6_StateESt14default_deleteIS1_EEEC2Ev,"axG",@progbits,_ZNSt11_Tuple_implILm0EJPNSt6thread6_StateESt14default_deleteIS1_EEEC5Ev,comdat
	.align	2
	.weak	_ZNSt11_Tuple_implILm0EJPNSt6thread6_StateESt14default_deleteIS1_EEEC2Ev
	.type	_ZNSt11_Tuple_implILm0EJPNSt6thread6_StateESt14default_deleteIS1_EEEC2Ev, %function
_ZNSt11_Tuple_implILm0EJPNSt6thread6_StateESt14default_deleteIS1_EEEC2Ev:
.LFB5091:
	.cfi_startproc
	stp	x29, x30, [sp, -32]!
	.cfi_def_cfa_offset 32
	.cfi_offset 29, -32
	.cfi_offset 30, -24
	mov	x29, sp
	str	x0, [sp, 24]
	ldr	x0, [sp, 24]
	bl	_ZNSt11_Tuple_implILm1EJSt14default_deleteINSt6thread6_StateEEEEC2Ev
	ldr	x0, [sp, 24]
	bl	_ZNSt10_Head_baseILm0EPNSt6thread6_StateELb0EEC2Ev
	nop
	ldp	x29, x30, [sp], 32
	.cfi_restore 30
	.cfi_restore 29
	.cfi_def_cfa_offset 0
	ret
	.cfi_endproc
.LFE5091:
	.size	_ZNSt11_Tuple_implILm0EJPNSt6thread6_StateESt14default_deleteIS1_EEEC2Ev, .-_ZNSt11_Tuple_implILm0EJPNSt6thread6_StateESt14default_deleteIS1_EEEC2Ev
	.weak	_ZNSt11_Tuple_implILm0EJPNSt6thread6_StateESt14default_deleteIS1_EEEC1Ev
	.set	_ZNSt11_Tuple_implILm0EJPNSt6thread6_StateESt14default_deleteIS1_EEEC1Ev,_ZNSt11_Tuple_implILm0EJPNSt6thread6_StateESt14default_deleteIS1_EEEC2Ev
	.section	.text._ZSt12__get_helperILm0EPNSt6thread6_StateEJSt14default_deleteIS1_EEERT0_RSt11_Tuple_implIXT_EJS5_DpT1_EE,"axG",@progbits,_ZSt12__get_helperILm0EPNSt6thread6_StateEJSt14default_deleteIS1_EEERT0_RSt11_Tuple_implIXT_EJS5_DpT1_EE,comdat
	.align	2
	.weak	_ZSt12__get_helperILm0EPNSt6thread6_StateEJSt14default_deleteIS1_EEERT0_RSt11_Tuple_implIXT_EJS5_DpT1_EE
	.type	_ZSt12__get_helperILm0EPNSt6thread6_StateEJSt14default_deleteIS1_EEERT0_RSt11_Tuple_implIXT_EJS5_DpT1_EE, %function
_ZSt12__get_helperILm0EPNSt6thread6_StateEJSt14default_deleteIS1_EEERT0_RSt11_Tuple_implIXT_EJS5_DpT1_EE:
.LFB5093:
	.cfi_startproc
	stp	x29, x30, [sp, -32]!
	.cfi_def_cfa_offset 32
	.cfi_offset 29, -32
	.cfi_offset 30, -24
	mov	x29, sp
	str	x0, [sp, 24]
	ldr	x0, [sp, 24]
	bl	_ZNSt11_Tuple_implILm0EJPNSt6thread6_StateESt14default_deleteIS1_EEE7_M_headERS5_
	ldp	x29, x30, [sp], 32
	.cfi_restore 30
	.cfi_restore 29
	.cfi_def_cfa_offset 0
	ret
	.cfi_endproc
.LFE5093:
	.size	_ZSt12__get_helperILm0EPNSt6thread6_StateEJSt14default_deleteIS1_EEERT0_RSt11_Tuple_implIXT_EJS5_DpT1_EE, .-_ZSt12__get_helperILm0EPNSt6thread6_StateEJSt14default_deleteIS1_EEERT0_RSt11_Tuple_implIXT_EJS5_DpT1_EE
	.section	.text._ZSt3getILm1EJPNSt6thread6_StateESt14default_deleteIS1_EEERNSt13tuple_elementIXT_ESt5tupleIJDpT0_EEE4typeERS9_,"axG",@progbits,_ZSt3getILm1EJPNSt6thread6_StateESt14default_deleteIS1_EEERNSt13tuple_elementIXT_ESt5tupleIJDpT0_EEE4typeERS9_,comdat
	.align	2
	.weak	_ZSt3getILm1EJPNSt6thread6_StateESt14default_deleteIS1_EEERNSt13tuple_elementIXT_ESt5tupleIJDpT0_EEE4typeERS9_
	.type	_ZSt3getILm1EJPNSt6thread6_StateESt14default_deleteIS1_EEERNSt13tuple_elementIXT_ESt5tupleIJDpT0_EEE4typeERS9_, %function
_ZSt3getILm1EJPNSt6thread6_StateESt14default_deleteIS1_EEERNSt13tuple_elementIXT_ESt5tupleIJDpT0_EEE4typeERS9_:
.LFB5094:
	.cfi_startproc
	stp	x29, x30, [sp, -32]!
	.cfi_def_cfa_offset 32
	.cfi_offset 29, -32
	.cfi_offset 30, -24
	mov	x29, sp
	str	x0, [sp, 24]
	ldr	x0, [sp, 24]
	bl	_ZSt12__get_helperILm1ESt14default_deleteINSt6thread6_StateEEJEERT0_RSt11_Tuple_implIXT_EJS4_DpT1_EE
	ldp	x29, x30, [sp], 32
	.cfi_restore 30
	.cfi_restore 29
	.cfi_def_cfa_offset 0
	ret
	.cfi_endproc
.LFE5094:
	.size	_ZSt3getILm1EJPNSt6thread6_StateESt14default_deleteIS1_EEERNSt13tuple_elementIXT_ESt5tupleIJDpT0_EEE4typeERS9_, .-_ZSt3getILm1EJPNSt6thread6_StateESt14default_deleteIS1_EEERNSt13tuple_elementIXT_ESt5tupleIJDpT0_EEE4typeERS9_
	.section	.text._ZNSt14__shared_countILN9__gnu_cxx12_Lock_policyE2EEC2I7MessageSaIS4_EJiEEERPT_St20_Sp_alloc_shared_tagIT0_EDpOT1_,"axG",@progbits,_ZNSt14__shared_countILN9__gnu_cxx12_Lock_policyE2EEC5I7MessageSaIS4_EJiEEERPT_St20_Sp_alloc_shared_tagIT0_EDpOT1_,comdat
	.align	2
	.weak	_ZNSt14__shared_countILN9__gnu_cxx12_Lock_policyE2EEC2I7MessageSaIS4_EJiEEERPT_St20_Sp_alloc_shared_tagIT0_EDpOT1_
	.type	_ZNSt14__shared_countILN9__gnu_cxx12_Lock_policyE2EEC2I7MessageSaIS4_EJiEEERPT_St20_Sp_alloc_shared_tagIT0_EDpOT1_, %function
_ZNSt14__shared_countILN9__gnu_cxx12_Lock_policyE2EEC2I7MessageSaIS4_EJiEEERPT_St20_Sp_alloc_shared_tagIT0_EDpOT1_:
.LFB5096:
	.cfi_startproc
	.cfi_personality 0x9b,DW.ref.__gxx_personality_v0
	.cfi_lsda 0x1b,.LLSDA5096
	stp	x29, x30, [sp, -144]!
	.cfi_def_cfa_offset 144
	.cfi_offset 29, -144
	.cfi_offset 30, -136
	mov	x29, sp
	stp	x19, x20, [sp, 16]
	stp	x21, x22, [sp, 32]
	.cfi_offset 19, -128
	.cfi_offset 20, -120
	.cfi_offset 21, -112
	.cfi_offset 22, -104
	str	x0, [sp, 72]
	str	x1, [sp, 64]
	str	x2, [sp, 56]
	str	x3, [sp, 48]
	adrp	x0, :got:__stack_chk_guard
	ldr	x0, [x0, #:got_lo12:__stack_chk_guard]
	ldr	x1, [x0]
	str	x1, [sp, 136]
	mov	x1, 0
	ldr	x1, [sp, 56]
	add	x0, sp, 88
	bl	_ZNSaISt23_Sp_counted_ptr_inplaceI7MessageSaIS0_ELN9__gnu_cxx12_Lock_policyE2EEEC1IS0_EERKSaIT_E
	add	x0, sp, 88
	add	x1, sp, 120
	mov	x8, x1
.LEHB28:
	bl	_ZSt18__allocate_guardedISaISt23_Sp_counted_ptr_inplaceI7MessageSaIS1_ELN9__gnu_cxx12_Lock_policyE2EEEESt15__allocated_ptrIT_ERS8_
.LEHE28:
	add	x0, sp, 120
	bl	_ZNSt15__allocated_ptrISaISt23_Sp_counted_ptr_inplaceI7MessageSaIS1_ELN9__gnu_cxx12_Lock_policyE2EEEE3getEv
	str	x0, [sp, 104]
	ldr	x1, [sp, 56]
	add	x0, sp, 96
	bl	_ZNSaI7MessageEC1ERKS0_
	add	x21, sp, 96
	ldr	x0, [sp, 48]
	bl	_ZSt7forwardIiEOT_RNSt16remove_referenceIS0_E4typeE
	mov	x22, x0
	ldr	x20, [sp, 104]
	mov	x1, x20
	mov	x0, 72
	bl	_ZnwmPv
	mov	x19, x0
	mov	x2, x22
	mov	x1, x21
	mov	x0, x19
.LEHB29:
	bl	_ZNSt23_Sp_counted_ptr_inplaceI7MessageSaIS0_ELN9__gnu_cxx12_Lock_policyE2EEC1IJiEEES1_DpOT_
.LEHE29:
	str	x19, [sp, 112]
	add	x0, sp, 96
	bl	_ZNSaI7MessageED1Ev
	add	x0, sp, 120
	mov	x1, 0
	bl	_ZNSt15__allocated_ptrISaISt23_Sp_counted_ptr_inplaceI7MessageSaIS1_ELN9__gnu_cxx12_Lock_policyE2EEEEaSEDn
	ldr	x0, [sp, 72]
	ldr	x1, [sp, 112]
	str	x1, [x0]
	ldr	x0, [sp, 112]
	bl	_ZNSt23_Sp_counted_ptr_inplaceI7MessageSaIS0_ELN9__gnu_cxx12_Lock_policyE2EE6_M_ptrEv
	mov	x1, x0
	ldr	x0, [sp, 64]
	str	x1, [x0]
	add	x0, sp, 120
	bl	_ZNSt15__allocated_ptrISaISt23_Sp_counted_ptr_inplaceI7MessageSaIS1_ELN9__gnu_cxx12_Lock_policyE2EEEED1Ev
	add	x0, sp, 88
	bl	_ZNSaISt23_Sp_counted_ptr_inplaceI7MessageSaIS0_ELN9__gnu_cxx12_Lock_policyE2EEED1Ev
	nop
	adrp	x0, :got:__stack_chk_guard
	ldr	x0, [x0, #:got_lo12:__stack_chk_guard]
	ldr	x2, [sp, 136]
	ldr	x1, [x0]
	subs	x2, x2, x1
	mov	x1, 0
	beq	.L269
	b	.L272
.L271:
	mov	x21, x0
	mov	x1, x20
	mov	x0, x19
	bl	_ZdlPvS_
	mov	x19, x21
	add	x0, sp, 96
	bl	_ZNSaI7MessageED1Ev
	add	x0, sp, 120
	bl	_ZNSt15__allocated_ptrISaISt23_Sp_counted_ptr_inplaceI7MessageSaIS1_ELN9__gnu_cxx12_Lock_policyE2EEEED1Ev
	b	.L268
.L270:
	mov	x19, x0
.L268:
	add	x0, sp, 88
	bl	_ZNSaISt23_Sp_counted_ptr_inplaceI7MessageSaIS0_ELN9__gnu_cxx12_Lock_policyE2EEED1Ev
	mov	x0, x19
.LEHB30:
	bl	_Unwind_Resume
.LEHE30:
.L272:
	bl	__stack_chk_fail
.L269:
	ldp	x19, x20, [sp, 16]
	ldp	x21, x22, [sp, 32]
	ldp	x29, x30, [sp], 144
	.cfi_restore 30
	.cfi_restore 29
	.cfi_restore 21
	.cfi_restore 22
	.cfi_restore 19
	.cfi_restore 20
	.cfi_def_cfa_offset 0
	ret
	.cfi_endproc
.LFE5096:
	.section	.gcc_except_table
.LLSDA5096:
	.byte	0xff
	.byte	0xff
	.byte	0x1
	.uleb128 .LLSDACSE5096-.LLSDACSB5096
.LLSDACSB5096:
	.uleb128 .LEHB28-.LFB5096
	.uleb128 .LEHE28-.LEHB28
	.uleb128 .L270-.LFB5096
	.uleb128 0
	.uleb128 .LEHB29-.LFB5096
	.uleb128 .LEHE29-.LEHB29
	.uleb128 .L271-.LFB5096
	.uleb128 0
	.uleb128 .LEHB30-.LFB5096
	.uleb128 .LEHE30-.LEHB30
	.uleb128 0
	.uleb128 0
.LLSDACSE5096:
	.section	.text._ZNSt14__shared_countILN9__gnu_cxx12_Lock_policyE2EEC2I7MessageSaIS4_EJiEEERPT_St20_Sp_alloc_shared_tagIT0_EDpOT1_,"axG",@progbits,_ZNSt14__shared_countILN9__gnu_cxx12_Lock_policyE2EEC5I7MessageSaIS4_EJiEEERPT_St20_Sp_alloc_shared_tagIT0_EDpOT1_,comdat
	.size	_ZNSt14__shared_countILN9__gnu_cxx12_Lock_policyE2EEC2I7MessageSaIS4_EJiEEERPT_St20_Sp_alloc_shared_tagIT0_EDpOT1_, .-_ZNSt14__shared_countILN9__gnu_cxx12_Lock_policyE2EEC2I7MessageSaIS4_EJiEEERPT_St20_Sp_alloc_shared_tagIT0_EDpOT1_
	.weak	_ZNSt14__shared_countILN9__gnu_cxx12_Lock_policyE2EEC1I7MessageSaIS4_EJiEEERPT_St20_Sp_alloc_shared_tagIT0_EDpOT1_
	.set	_ZNSt14__shared_countILN9__gnu_cxx12_Lock_policyE2EEC1I7MessageSaIS4_EJiEEERPT_St20_Sp_alloc_shared_tagIT0_EDpOT1_,_ZNSt14__shared_countILN9__gnu_cxx12_Lock_policyE2EEC2I7MessageSaIS4_EJiEEERPT_St20_Sp_alloc_shared_tagIT0_EDpOT1_
	.section	.text._ZNSt12__shared_ptrI7MessageLN9__gnu_cxx12_Lock_policyE2EE31_M_enable_shared_from_this_withIS0_S0_EENSt9enable_ifIXsrNS3_15__has_esft_baseIT0_vEE5valueEvE4typeEPT_,"axG",@progbits,_ZNSt12__shared_ptrI7MessageLN9__gnu_cxx12_Lock_policyE2EE31_M_enable_shared_from_this_withIS0_S0_EENSt9enable_ifIXsrNS3_15__has_esft_baseIT0_vEE5valueEvE4typeEPT_,comdat
	.align	2
	.weak	_ZNSt12__shared_ptrI7MessageLN9__gnu_cxx12_Lock_policyE2EE31_M_enable_shared_from_this_withIS0_S0_EENSt9enable_ifIXsrNS3_15__has_esft_baseIT0_vEE5valueEvE4typeEPT_
	.type	_ZNSt12__shared_ptrI7MessageLN9__gnu_cxx12_Lock_policyE2EE31_M_enable_shared_from_this_withIS0_S0_EENSt9enable_ifIXsrNS3_15__has_esft_baseIT0_vEE5valueEvE4typeEPT_, %function
_ZNSt12__shared_ptrI7MessageLN9__gnu_cxx12_Lock_policyE2EE31_M_enable_shared_from_this_withIS0_S0_EENSt9enable_ifIXsrNS3_15__has_esft_baseIT0_vEE5valueEvE4typeEPT_:
.LFB5098:
	.cfi_startproc
	stp	x29, x30, [sp, -48]!
	.cfi_def_cfa_offset 48
	.cfi_offset 29, -48
	.cfi_offset 30, -40
	mov	x29, sp
	str	x0, [sp, 24]
	str	x1, [sp, 16]
	ldr	x0, [sp, 24]
	add	x0, x0, 8
	ldr	x1, [sp, 16]
	bl	_ZSt30__enable_shared_from_this_baseRKSt14__shared_countILN9__gnu_cxx12_Lock_policyE2EEPKSt23enable_shared_from_thisI7MessageE
	str	x0, [sp, 40]
	ldr	x0, [sp, 40]
	cmp	x0, 0
	beq	.L275
	ldr	x0, [sp, 24]
	add	x0, x0, 8
	mov	x2, x0
	ldr	x1, [sp, 16]
	ldr	x0, [sp, 40]
	bl	_ZNKSt23enable_shared_from_thisI7MessageE14_M_weak_assignIS0_EEvPT_RKSt14__shared_countILN9__gnu_cxx12_Lock_policyE2EE
.L275:
	nop
	ldp	x29, x30, [sp], 48
	.cfi_restore 30
	.cfi_restore 29
	.cfi_def_cfa_offset 0
	ret
	.cfi_endproc
.LFE5098:
	.size	_ZNSt12__shared_ptrI7MessageLN9__gnu_cxx12_Lock_policyE2EE31_M_enable_shared_from_this_withIS0_S0_EENSt9enable_ifIXsrNS3_15__has_esft_baseIT0_vEE5valueEvE4typeEPT_, .-_ZNSt12__shared_ptrI7MessageLN9__gnu_cxx12_Lock_policyE2EE31_M_enable_shared_from_this_withIS0_S0_EENSt9enable_ifIXsrNS3_15__has_esft_baseIT0_vEE5valueEvE4typeEPT_
	.section	.text._ZNSt14__shared_countILN9__gnu_cxx12_Lock_policyE2EEC2I9FdHandlerSaIS4_EJEEERPT_St20_Sp_alloc_shared_tagIT0_EDpOT1_,"axG",@progbits,_ZNSt14__shared_countILN9__gnu_cxx12_Lock_policyE2EEC5I9FdHandlerSaIS4_EJEEERPT_St20_Sp_alloc_shared_tagIT0_EDpOT1_,comdat
	.align	2
	.weak	_ZNSt14__shared_countILN9__gnu_cxx12_Lock_policyE2EEC2I9FdHandlerSaIS4_EJEEERPT_St20_Sp_alloc_shared_tagIT0_EDpOT1_
	.type	_ZNSt14__shared_countILN9__gnu_cxx12_Lock_policyE2EEC2I9FdHandlerSaIS4_EJEEERPT_St20_Sp_alloc_shared_tagIT0_EDpOT1_, %function
_ZNSt14__shared_countILN9__gnu_cxx12_Lock_policyE2EEC2I9FdHandlerSaIS4_EJEEERPT_St20_Sp_alloc_shared_tagIT0_EDpOT1_:
.LFB5100:
	.cfi_startproc
	.cfi_personality 0x9b,DW.ref.__gxx_personality_v0
	.cfi_lsda 0x1b,.LLSDA5100
	stp	x29, x30, [sp, -128]!
	.cfi_def_cfa_offset 128
	.cfi_offset 29, -128
	.cfi_offset 30, -120
	mov	x29, sp
	stp	x19, x20, [sp, 16]
	.cfi_offset 19, -112
	.cfi_offset 20, -104
	str	x0, [sp, 56]
	str	x1, [sp, 48]
	str	x2, [sp, 40]
	adrp	x0, :got:__stack_chk_guard
	ldr	x0, [x0, #:got_lo12:__stack_chk_guard]
	ldr	x1, [x0]
	str	x1, [sp, 120]
	mov	x1, 0
	ldr	x1, [sp, 40]
	add	x0, sp, 72
	bl	_ZNSaISt23_Sp_counted_ptr_inplaceI9FdHandlerSaIS0_ELN9__gnu_cxx12_Lock_policyE2EEEC1IS0_EERKSaIT_E
	add	x0, sp, 72
	add	x1, sp, 104
	mov	x8, x1
.LEHB31:
	bl	_ZSt18__allocate_guardedISaISt23_Sp_counted_ptr_inplaceI9FdHandlerSaIS1_ELN9__gnu_cxx12_Lock_policyE2EEEESt15__allocated_ptrIT_ERS8_
.LEHE31:
	add	x0, sp, 104
	bl	_ZNSt15__allocated_ptrISaISt23_Sp_counted_ptr_inplaceI9FdHandlerSaIS1_ELN9__gnu_cxx12_Lock_policyE2EEEE3getEv
	str	x0, [sp, 88]
	ldr	x1, [sp, 40]
	add	x0, sp, 80
	bl	_ZNSaI9FdHandlerEC1ERKS0_
	add	x20, sp, 80
	ldr	x0, [sp, 88]
	mov	x1, x0
	mov	x0, 40
	bl	_ZnwmPv
	mov	x19, x0
	mov	x1, x20
	mov	x0, x19
	bl	_ZNSt23_Sp_counted_ptr_inplaceI9FdHandlerSaIS0_ELN9__gnu_cxx12_Lock_policyE2EEC1IJEEES1_DpOT_
	str	x19, [sp, 96]
	add	x0, sp, 80
	bl	_ZNSaI9FdHandlerED1Ev
	add	x0, sp, 104
	mov	x1, 0
	bl	_ZNSt15__allocated_ptrISaISt23_Sp_counted_ptr_inplaceI9FdHandlerSaIS1_ELN9__gnu_cxx12_Lock_policyE2EEEEaSEDn
	ldr	x0, [sp, 56]
	ldr	x1, [sp, 96]
	str	x1, [x0]
	ldr	x0, [sp, 96]
	bl	_ZNSt23_Sp_counted_ptr_inplaceI9FdHandlerSaIS0_ELN9__gnu_cxx12_Lock_policyE2EE6_M_ptrEv
	mov	x1, x0
	ldr	x0, [sp, 48]
	str	x1, [x0]
	add	x0, sp, 104
	bl	_ZNSt15__allocated_ptrISaISt23_Sp_counted_ptr_inplaceI9FdHandlerSaIS1_ELN9__gnu_cxx12_Lock_policyE2EEEED1Ev
	add	x0, sp, 72
	bl	_ZNSaISt23_Sp_counted_ptr_inplaceI9FdHandlerSaIS0_ELN9__gnu_cxx12_Lock_policyE2EEED1Ev
	nop
	adrp	x0, :got:__stack_chk_guard
	ldr	x0, [x0, #:got_lo12:__stack_chk_guard]
	ldr	x2, [sp, 120]
	ldr	x1, [x0]
	subs	x2, x2, x1
	mov	x1, 0
	beq	.L278
	b	.L280
.L279:
	mov	x19, x0
	add	x0, sp, 72
	bl	_ZNSaISt23_Sp_counted_ptr_inplaceI9FdHandlerSaIS0_ELN9__gnu_cxx12_Lock_policyE2EEED1Ev
	mov	x0, x19
.LEHB32:
	bl	_Unwind_Resume
.LEHE32:
.L280:
	bl	__stack_chk_fail
.L278:
	ldp	x19, x20, [sp, 16]
	ldp	x29, x30, [sp], 128
	.cfi_restore 30
	.cfi_restore 29
	.cfi_restore 19
	.cfi_restore 20
	.cfi_def_cfa_offset 0
	ret
	.cfi_endproc
.LFE5100:
	.section	.gcc_except_table
.LLSDA5100:
	.byte	0xff
	.byte	0xff
	.byte	0x1
	.uleb128 .LLSDACSE5100-.LLSDACSB5100
.LLSDACSB5100:
	.uleb128 .LEHB31-.LFB5100
	.uleb128 .LEHE31-.LEHB31
	.uleb128 .L279-.LFB5100
	.uleb128 0
	.uleb128 .LEHB32-.LFB5100
	.uleb128 .LEHE32-.LEHB32
	.uleb128 0
	.uleb128 0
.LLSDACSE5100:
	.section	.text._ZNSt14__shared_countILN9__gnu_cxx12_Lock_policyE2EEC2I9FdHandlerSaIS4_EJEEERPT_St20_Sp_alloc_shared_tagIT0_EDpOT1_,"axG",@progbits,_ZNSt14__shared_countILN9__gnu_cxx12_Lock_policyE2EEC5I9FdHandlerSaIS4_EJEEERPT_St20_Sp_alloc_shared_tagIT0_EDpOT1_,comdat
	.size	_ZNSt14__shared_countILN9__gnu_cxx12_Lock_policyE2EEC2I9FdHandlerSaIS4_EJEEERPT_St20_Sp_alloc_shared_tagIT0_EDpOT1_, .-_ZNSt14__shared_countILN9__gnu_cxx12_Lock_policyE2EEC2I9FdHandlerSaIS4_EJEEERPT_St20_Sp_alloc_shared_tagIT0_EDpOT1_
	.weak	_ZNSt14__shared_countILN9__gnu_cxx12_Lock_policyE2EEC1I9FdHandlerSaIS4_EJEEERPT_St20_Sp_alloc_shared_tagIT0_EDpOT1_
	.set	_ZNSt14__shared_countILN9__gnu_cxx12_Lock_policyE2EEC1I9FdHandlerSaIS4_EJEEERPT_St20_Sp_alloc_shared_tagIT0_EDpOT1_,_ZNSt14__shared_countILN9__gnu_cxx12_Lock_policyE2EEC2I9FdHandlerSaIS4_EJEEERPT_St20_Sp_alloc_shared_tagIT0_EDpOT1_
	.section	.text._ZNSt12__shared_ptrI9FdHandlerLN9__gnu_cxx12_Lock_policyE2EE31_M_enable_shared_from_this_withIS0_S0_EENSt9enable_ifIXsrNS3_15__has_esft_baseIT0_vEE5valueEvE4typeEPT_,"axG",@progbits,_ZNSt12__shared_ptrI9FdHandlerLN9__gnu_cxx12_Lock_policyE2EE31_M_enable_shared_from_this_withIS0_S0_EENSt9enable_ifIXsrNS3_15__has_esft_baseIT0_vEE5valueEvE4typeEPT_,comdat
	.align	2
	.weak	_ZNSt12__shared_ptrI9FdHandlerLN9__gnu_cxx12_Lock_policyE2EE31_M_enable_shared_from_this_withIS0_S0_EENSt9enable_ifIXsrNS3_15__has_esft_baseIT0_vEE5valueEvE4typeEPT_
	.type	_ZNSt12__shared_ptrI9FdHandlerLN9__gnu_cxx12_Lock_policyE2EE31_M_enable_shared_from_this_withIS0_S0_EENSt9enable_ifIXsrNS3_15__has_esft_baseIT0_vEE5valueEvE4typeEPT_, %function
_ZNSt12__shared_ptrI9FdHandlerLN9__gnu_cxx12_Lock_policyE2EE31_M_enable_shared_from_this_withIS0_S0_EENSt9enable_ifIXsrNS3_15__has_esft_baseIT0_vEE5valueEvE4typeEPT_:
.LFB5102:
	.cfi_startproc
	stp	x29, x30, [sp, -48]!
	.cfi_def_cfa_offset 48
	.cfi_offset 29, -48
	.cfi_offset 30, -40
	mov	x29, sp
	str	x0, [sp, 24]
	str	x1, [sp, 16]
	ldr	x0, [sp, 24]
	add	x2, x0, 8
	ldr	x0, [sp, 16]
	cmp	x0, 0
	beq	.L282
	ldr	x0, [sp, 16]
	add	x0, x0, 8
	b	.L283
.L282:
	mov	x0, 0
.L283:
	mov	x1, x0
	mov	x0, x2
	bl	_ZSt30__enable_shared_from_this_baseRKSt14__shared_countILN9__gnu_cxx12_Lock_policyE2EEPKSt23enable_shared_from_thisI14LooperCallbackE
	str	x0, [sp, 40]
	ldr	x0, [sp, 40]
	cmp	x0, 0
	beq	.L285
	ldr	x0, [sp, 24]
	add	x0, x0, 8
	mov	x2, x0
	ldr	x1, [sp, 16]
	ldr	x0, [sp, 40]
	bl	_ZNKSt23enable_shared_from_thisI14LooperCallbackE14_M_weak_assignI9FdHandlerEEvPT_RKSt14__shared_countILN9__gnu_cxx12_Lock_policyE2EE
.L285:
	nop
	ldp	x29, x30, [sp], 48
	.cfi_restore 30
	.cfi_restore 29
	.cfi_def_cfa_offset 0
	ret
	.cfi_endproc
.LFE5102:
	.size	_ZNSt12__shared_ptrI9FdHandlerLN9__gnu_cxx12_Lock_policyE2EE31_M_enable_shared_from_this_withIS0_S0_EENSt9enable_ifIXsrNS3_15__has_esft_baseIT0_vEE5valueEvE4typeEPT_, .-_ZNSt12__shared_ptrI9FdHandlerLN9__gnu_cxx12_Lock_policyE2EE31_M_enable_shared_from_this_withIS0_S0_EENSt9enable_ifIXsrNS3_15__has_esft_baseIT0_vEE5valueEvE4typeEPT_
	.section	.text._ZNSaISt23_Sp_counted_ptr_inplaceI6LooperSaIS0_ELN9__gnu_cxx12_Lock_policyE2EEEC2IS0_EERKSaIT_E,"axG",@progbits,_ZNSaISt23_Sp_counted_ptr_inplaceI6LooperSaIS0_ELN9__gnu_cxx12_Lock_policyE2EEEC5IS0_EERKSaIT_E,comdat
	.align	2
	.weak	_ZNSaISt23_Sp_counted_ptr_inplaceI6LooperSaIS0_ELN9__gnu_cxx12_Lock_policyE2EEEC2IS0_EERKSaIT_E
	.type	_ZNSaISt23_Sp_counted_ptr_inplaceI6LooperSaIS0_ELN9__gnu_cxx12_Lock_policyE2EEEC2IS0_EERKSaIT_E, %function
_ZNSaISt23_Sp_counted_ptr_inplaceI6LooperSaIS0_ELN9__gnu_cxx12_Lock_policyE2EEEC2IS0_EERKSaIT_E:
.LFB5127:
	.cfi_startproc
	stp	x29, x30, [sp, -32]!
	.cfi_def_cfa_offset 32
	.cfi_offset 29, -32
	.cfi_offset 30, -24
	mov	x29, sp
	str	x0, [sp, 24]
	str	x1, [sp, 16]
	ldr	x0, [sp, 24]
	bl	_ZN9__gnu_cxx13new_allocatorISt23_Sp_counted_ptr_inplaceI6LooperSaIS2_ELNS_12_Lock_policyE2EEEC2Ev
	nop
	ldp	x29, x30, [sp], 32
	.cfi_restore 30
	.cfi_restore 29
	.cfi_def_cfa_offset 0
	ret
	.cfi_endproc
.LFE5127:
	.size	_ZNSaISt23_Sp_counted_ptr_inplaceI6LooperSaIS0_ELN9__gnu_cxx12_Lock_policyE2EEEC2IS0_EERKSaIT_E, .-_ZNSaISt23_Sp_counted_ptr_inplaceI6LooperSaIS0_ELN9__gnu_cxx12_Lock_policyE2EEEC2IS0_EERKSaIT_E
	.weak	_ZNSaISt23_Sp_counted_ptr_inplaceI6LooperSaIS0_ELN9__gnu_cxx12_Lock_policyE2EEEC1IS0_EERKSaIT_E
	.set	_ZNSaISt23_Sp_counted_ptr_inplaceI6LooperSaIS0_ELN9__gnu_cxx12_Lock_policyE2EEEC1IS0_EERKSaIT_E,_ZNSaISt23_Sp_counted_ptr_inplaceI6LooperSaIS0_ELN9__gnu_cxx12_Lock_policyE2EEEC2IS0_EERKSaIT_E
	.section	.text._ZNSaISt23_Sp_counted_ptr_inplaceI6LooperSaIS0_ELN9__gnu_cxx12_Lock_policyE2EEED2Ev,"axG",@progbits,_ZNSaISt23_Sp_counted_ptr_inplaceI6LooperSaIS0_ELN9__gnu_cxx12_Lock_policyE2EEED5Ev,comdat
	.align	2
	.weak	_ZNSaISt23_Sp_counted_ptr_inplaceI6LooperSaIS0_ELN9__gnu_cxx12_Lock_policyE2EEED2Ev
	.type	_ZNSaISt23_Sp_counted_ptr_inplaceI6LooperSaIS0_ELN9__gnu_cxx12_Lock_policyE2EEED2Ev, %function
_ZNSaISt23_Sp_counted_ptr_inplaceI6LooperSaIS0_ELN9__gnu_cxx12_Lock_policyE2EEED2Ev:
.LFB5130:
	.cfi_startproc
	stp	x29, x30, [sp, -32]!
	.cfi_def_cfa_offset 32
	.cfi_offset 29, -32
	.cfi_offset 30, -24
	mov	x29, sp
	str	x0, [sp, 24]
	ldr	x0, [sp, 24]
	bl	_ZN9__gnu_cxx13new_allocatorISt23_Sp_counted_ptr_inplaceI6LooperSaIS2_ELNS_12_Lock_policyE2EEED2Ev
	nop
	ldp	x29, x30, [sp], 32
	.cfi_restore 30
	.cfi_restore 29
	.cfi_def_cfa_offset 0
	ret
	.cfi_endproc
.LFE5130:
	.size	_ZNSaISt23_Sp_counted_ptr_inplaceI6LooperSaIS0_ELN9__gnu_cxx12_Lock_policyE2EEED2Ev, .-_ZNSaISt23_Sp_counted_ptr_inplaceI6LooperSaIS0_ELN9__gnu_cxx12_Lock_policyE2EEED2Ev
	.weak	_ZNSaISt23_Sp_counted_ptr_inplaceI6LooperSaIS0_ELN9__gnu_cxx12_Lock_policyE2EEED1Ev
	.set	_ZNSaISt23_Sp_counted_ptr_inplaceI6LooperSaIS0_ELN9__gnu_cxx12_Lock_policyE2EEED1Ev,_ZNSaISt23_Sp_counted_ptr_inplaceI6LooperSaIS0_ELN9__gnu_cxx12_Lock_policyE2EEED2Ev
	.section	.text._ZSt18__allocate_guardedISaISt23_Sp_counted_ptr_inplaceI6LooperSaIS1_ELN9__gnu_cxx12_Lock_policyE2EEEESt15__allocated_ptrIT_ERS8_,"axG",@progbits,_ZSt18__allocate_guardedISaISt23_Sp_counted_ptr_inplaceI6LooperSaIS1_ELN9__gnu_cxx12_Lock_policyE2EEEESt15__allocated_ptrIT_ERS8_,comdat
	.align	2
	.weak	_ZSt18__allocate_guardedISaISt23_Sp_counted_ptr_inplaceI6LooperSaIS1_ELN9__gnu_cxx12_Lock_policyE2EEEESt15__allocated_ptrIT_ERS8_
	.type	_ZSt18__allocate_guardedISaISt23_Sp_counted_ptr_inplaceI6LooperSaIS1_ELN9__gnu_cxx12_Lock_policyE2EEEESt15__allocated_ptrIT_ERS8_, %function
_ZSt18__allocate_guardedISaISt23_Sp_counted_ptr_inplaceI6LooperSaIS1_ELN9__gnu_cxx12_Lock_policyE2EEEESt15__allocated_ptrIT_ERS8_:
.LFB5132:
	.cfi_startproc
	stp	x29, x30, [sp, -48]!
	.cfi_def_cfa_offset 48
	.cfi_offset 29, -48
	.cfi_offset 30, -40
	mov	x29, sp
	str	x19, [sp, 16]
	.cfi_offset 19, -32
	mov	x19, x8
	str	x0, [sp, 40]
	mov	x1, 1
	ldr	x0, [sp, 40]
	bl	_ZNSt16allocator_traitsISaISt23_Sp_counted_ptr_inplaceI6LooperSaIS1_ELN9__gnu_cxx12_Lock_policyE2EEEE8allocateERS6_m
	mov	x2, x0
	ldr	x1, [sp, 40]
	mov	x0, x19
	bl	_ZNSt15__allocated_ptrISaISt23_Sp_counted_ptr_inplaceI6LooperSaIS1_ELN9__gnu_cxx12_Lock_policyE2EEEEC1ERS6_PS5_
	mov	x0, x19
	ldr	x19, [sp, 16]
	ldp	x29, x30, [sp], 48
	.cfi_restore 30
	.cfi_restore 29
	.cfi_restore 19
	.cfi_def_cfa_offset 0
	ret
	.cfi_endproc
.LFE5132:
	.size	_ZSt18__allocate_guardedISaISt23_Sp_counted_ptr_inplaceI6LooperSaIS1_ELN9__gnu_cxx12_Lock_policyE2EEEESt15__allocated_ptrIT_ERS8_, .-_ZSt18__allocate_guardedISaISt23_Sp_counted_ptr_inplaceI6LooperSaIS1_ELN9__gnu_cxx12_Lock_policyE2EEEESt15__allocated_ptrIT_ERS8_
	.section	.text._ZNSt15__allocated_ptrISaISt23_Sp_counted_ptr_inplaceI6LooperSaIS1_ELN9__gnu_cxx12_Lock_policyE2EEEED2Ev,"axG",@progbits,_ZNSt15__allocated_ptrISaISt23_Sp_counted_ptr_inplaceI6LooperSaIS1_ELN9__gnu_cxx12_Lock_policyE2EEEED5Ev,comdat
	.align	2
	.weak	_ZNSt15__allocated_ptrISaISt23_Sp_counted_ptr_inplaceI6LooperSaIS1_ELN9__gnu_cxx12_Lock_policyE2EEEED2Ev
	.type	_ZNSt15__allocated_ptrISaISt23_Sp_counted_ptr_inplaceI6LooperSaIS1_ELN9__gnu_cxx12_Lock_policyE2EEEED2Ev, %function
_ZNSt15__allocated_ptrISaISt23_Sp_counted_ptr_inplaceI6LooperSaIS1_ELN9__gnu_cxx12_Lock_policyE2EEEED2Ev:
.LFB5134:
	.cfi_startproc
	.cfi_personality 0x9b,DW.ref.__gxx_personality_v0
	.cfi_lsda 0x1b,.LLSDA5134
	stp	x29, x30, [sp, -32]!
	.cfi_def_cfa_offset 32
	.cfi_offset 29, -32
	.cfi_offset 30, -24
	mov	x29, sp
	str	x0, [sp, 24]
	ldr	x0, [sp, 24]
	ldr	x0, [x0, 8]
	cmp	x0, 0
	beq	.L292
	ldr	x0, [sp, 24]
	ldr	x3, [x0]
	ldr	x0, [sp, 24]
	ldr	x0, [x0, 8]
	mov	x2, 1
	mov	x1, x0
	mov	x0, x3
	bl	_ZNSt16allocator_traitsISaISt23_Sp_counted_ptr_inplaceI6LooperSaIS1_ELN9__gnu_cxx12_Lock_policyE2EEEE10deallocateERS6_PS5_m
.L292:
	nop
	ldp	x29, x30, [sp], 32
	.cfi_restore 30
	.cfi_restore 29
	.cfi_def_cfa_offset 0
	ret
	.cfi_endproc
.LFE5134:
	.section	.gcc_except_table
.LLSDA5134:
	.byte	0xff
	.byte	0xff
	.byte	0x1
	.uleb128 .LLSDACSE5134-.LLSDACSB5134
.LLSDACSB5134:
.LLSDACSE5134:
	.section	.text._ZNSt15__allocated_ptrISaISt23_Sp_counted_ptr_inplaceI6LooperSaIS1_ELN9__gnu_cxx12_Lock_policyE2EEEED2Ev,"axG",@progbits,_ZNSt15__allocated_ptrISaISt23_Sp_counted_ptr_inplaceI6LooperSaIS1_ELN9__gnu_cxx12_Lock_policyE2EEEED5Ev,comdat
	.size	_ZNSt15__allocated_ptrISaISt23_Sp_counted_ptr_inplaceI6LooperSaIS1_ELN9__gnu_cxx12_Lock_policyE2EEEED2Ev, .-_ZNSt15__allocated_ptrISaISt23_Sp_counted_ptr_inplaceI6LooperSaIS1_ELN9__gnu_cxx12_Lock_policyE2EEEED2Ev
	.weak	_ZNSt15__allocated_ptrISaISt23_Sp_counted_ptr_inplaceI6LooperSaIS1_ELN9__gnu_cxx12_Lock_policyE2EEEED1Ev
	.set	_ZNSt15__allocated_ptrISaISt23_Sp_counted_ptr_inplaceI6LooperSaIS1_ELN9__gnu_cxx12_Lock_policyE2EEEED1Ev,_ZNSt15__allocated_ptrISaISt23_Sp_counted_ptr_inplaceI6LooperSaIS1_ELN9__gnu_cxx12_Lock_policyE2EEEED2Ev
	.section	.text._ZNSt15__allocated_ptrISaISt23_Sp_counted_ptr_inplaceI6LooperSaIS1_ELN9__gnu_cxx12_Lock_policyE2EEEE3getEv,"axG",@progbits,_ZNSt15__allocated_ptrISaISt23_Sp_counted_ptr_inplaceI6LooperSaIS1_ELN9__gnu_cxx12_Lock_policyE2EEEE3getEv,comdat
	.align	2
	.weak	_ZNSt15__allocated_ptrISaISt23_Sp_counted_ptr_inplaceI6LooperSaIS1_ELN9__gnu_cxx12_Lock_policyE2EEEE3getEv
	.type	_ZNSt15__allocated_ptrISaISt23_Sp_counted_ptr_inplaceI6LooperSaIS1_ELN9__gnu_cxx12_Lock_policyE2EEEE3getEv, %function
_ZNSt15__allocated_ptrISaISt23_Sp_counted_ptr_inplaceI6LooperSaIS1_ELN9__gnu_cxx12_Lock_policyE2EEEE3getEv:
.LFB5136:
	.cfi_startproc
	stp	x29, x30, [sp, -32]!
	.cfi_def_cfa_offset 32
	.cfi_offset 29, -32
	.cfi_offset 30, -24
	mov	x29, sp
	str	x0, [sp, 24]
	ldr	x0, [sp, 24]
	ldr	x0, [x0, 8]
	bl	_ZSt12__to_addressISt23_Sp_counted_ptr_inplaceI6LooperSaIS1_ELN9__gnu_cxx12_Lock_policyE2EEEPT_S7_
	ldp	x29, x30, [sp], 32
	.cfi_restore 30
	.cfi_restore 29
	.cfi_def_cfa_offset 0
	ret
	.cfi_endproc
.LFE5136:
	.size	_ZNSt15__allocated_ptrISaISt23_Sp_counted_ptr_inplaceI6LooperSaIS1_ELN9__gnu_cxx12_Lock_policyE2EEEE3getEv, .-_ZNSt15__allocated_ptrISaISt23_Sp_counted_ptr_inplaceI6LooperSaIS1_ELN9__gnu_cxx12_Lock_policyE2EEEE3getEv
	.section	.text._ZNSaI6LooperEC2ERKS0_,"axG",@progbits,_ZNSaI6LooperEC5ERKS0_,comdat
	.align	2
	.weak	_ZNSaI6LooperEC2ERKS0_
	.type	_ZNSaI6LooperEC2ERKS0_, %function
_ZNSaI6LooperEC2ERKS0_:
.LFB5138:
	.cfi_startproc
	stp	x29, x30, [sp, -32]!
	.cfi_def_cfa_offset 32
	.cfi_offset 29, -32
	.cfi_offset 30, -24
	mov	x29, sp
	str	x0, [sp, 24]
	str	x1, [sp, 16]
	ldr	x1, [sp, 16]
	ldr	x0, [sp, 24]
	bl	_ZN9__gnu_cxx13new_allocatorI6LooperEC2ERKS2_
	nop
	ldp	x29, x30, [sp], 32
	.cfi_restore 30
	.cfi_restore 29
	.cfi_def_cfa_offset 0
	ret
	.cfi_endproc
.LFE5138:
	.size	_ZNSaI6LooperEC2ERKS0_, .-_ZNSaI6LooperEC2ERKS0_
	.weak	_ZNSaI6LooperEC1ERKS0_
	.set	_ZNSaI6LooperEC1ERKS0_,_ZNSaI6LooperEC2ERKS0_
	.section	.text._ZNSt14_Sp_ebo_helperILi0ESaI6LooperELb1EED2Ev,"axG",@progbits,_ZNSt14_Sp_ebo_helperILi0ESaI6LooperELb1EED5Ev,comdat
	.align	2
	.weak	_ZNSt14_Sp_ebo_helperILi0ESaI6LooperELb1EED2Ev
	.type	_ZNSt14_Sp_ebo_helperILi0ESaI6LooperELb1EED2Ev, %function
_ZNSt14_Sp_ebo_helperILi0ESaI6LooperELb1EED2Ev:
.LFB5143:
	.cfi_startproc
	stp	x29, x30, [sp, -32]!
	.cfi_def_cfa_offset 32
	.cfi_offset 29, -32
	.cfi_offset 30, -24
	mov	x29, sp
	str	x0, [sp, 24]
	ldr	x0, [sp, 24]
	bl	_ZNSaI6LooperED2Ev
	nop
	ldp	x29, x30, [sp], 32
	.cfi_restore 30
	.cfi_restore 29
	.cfi_def_cfa_offset 0
	ret
	.cfi_endproc
.LFE5143:
	.size	_ZNSt14_Sp_ebo_helperILi0ESaI6LooperELb1EED2Ev, .-_ZNSt14_Sp_ebo_helperILi0ESaI6LooperELb1EED2Ev
	.weak	_ZNSt14_Sp_ebo_helperILi0ESaI6LooperELb1EED1Ev
	.set	_ZNSt14_Sp_ebo_helperILi0ESaI6LooperELb1EED1Ev,_ZNSt14_Sp_ebo_helperILi0ESaI6LooperELb1EED2Ev
	.section	.text._ZNSt23_Sp_counted_ptr_inplaceI6LooperSaIS0_ELN9__gnu_cxx12_Lock_policyE2EE5_ImplD2Ev,"axG",@progbits,_ZNSt23_Sp_counted_ptr_inplaceI6LooperSaIS0_ELN9__gnu_cxx12_Lock_policyE2EE5_ImplD5Ev,comdat
	.align	2
	.weak	_ZNSt23_Sp_counted_ptr_inplaceI6LooperSaIS0_ELN9__gnu_cxx12_Lock_policyE2EE5_ImplD2Ev
	.type	_ZNSt23_Sp_counted_ptr_inplaceI6LooperSaIS0_ELN9__gnu_cxx12_Lock_policyE2EE5_ImplD2Ev, %function
_ZNSt23_Sp_counted_ptr_inplaceI6LooperSaIS0_ELN9__gnu_cxx12_Lock_policyE2EE5_ImplD2Ev:
.LFB5145:
	.cfi_startproc
	stp	x29, x30, [sp, -32]!
	.cfi_def_cfa_offset 32
	.cfi_offset 29, -32
	.cfi_offset 30, -24
	mov	x29, sp
	str	x0, [sp, 24]
	ldr	x0, [sp, 24]
	bl	_ZNSt14_Sp_ebo_helperILi0ESaI6LooperELb1EED2Ev
	nop
	ldp	x29, x30, [sp], 32
	.cfi_restore 30
	.cfi_restore 29
	.cfi_def_cfa_offset 0
	ret
	.cfi_endproc
.LFE5145:
	.size	_ZNSt23_Sp_counted_ptr_inplaceI6LooperSaIS0_ELN9__gnu_cxx12_Lock_policyE2EE5_ImplD2Ev, .-_ZNSt23_Sp_counted_ptr_inplaceI6LooperSaIS0_ELN9__gnu_cxx12_Lock_policyE2EE5_ImplD2Ev
	.weak	_ZNSt23_Sp_counted_ptr_inplaceI6LooperSaIS0_ELN9__gnu_cxx12_Lock_policyE2EE5_ImplD1Ev
	.set	_ZNSt23_Sp_counted_ptr_inplaceI6LooperSaIS0_ELN9__gnu_cxx12_Lock_policyE2EE5_ImplD1Ev,_ZNSt23_Sp_counted_ptr_inplaceI6LooperSaIS0_ELN9__gnu_cxx12_Lock_policyE2EE5_ImplD2Ev
	.section	.text._ZNSt23_Sp_counted_ptr_inplaceI6LooperSaIS0_ELN9__gnu_cxx12_Lock_policyE2EEC2IJEEES1_DpOT_,"axG",@progbits,_ZNSt23_Sp_counted_ptr_inplaceI6LooperSaIS0_ELN9__gnu_cxx12_Lock_policyE2EEC5IJEEES1_DpOT_,comdat
	.align	2
	.weak	_ZNSt23_Sp_counted_ptr_inplaceI6LooperSaIS0_ELN9__gnu_cxx12_Lock_policyE2EEC2IJEEES1_DpOT_
	.type	_ZNSt23_Sp_counted_ptr_inplaceI6LooperSaIS0_ELN9__gnu_cxx12_Lock_policyE2EEC2IJEEES1_DpOT_, %function
_ZNSt23_Sp_counted_ptr_inplaceI6LooperSaIS0_ELN9__gnu_cxx12_Lock_policyE2EEC2IJEEES1_DpOT_:
.LFB5148:
	.cfi_startproc
	.cfi_personality 0x9b,DW.ref.__gxx_personality_v0
	.cfi_lsda 0x1b,.LLSDA5148
	stp	x29, x30, [sp, -64]!
	.cfi_def_cfa_offset 64
	.cfi_offset 29, -64
	.cfi_offset 30, -56
	mov	x29, sp
	str	x19, [sp, 16]
	.cfi_offset 19, -48
	str	x0, [sp, 40]
	str	x1, [sp, 32]
	adrp	x0, :got:__stack_chk_guard
	ldr	x0, [x0, #:got_lo12:__stack_chk_guard]
	ldr	x1, [x0]
	str	x1, [sp, 56]
	mov	x1, 0
	ldr	x0, [sp, 40]
	bl	_ZNSt16_Sp_counted_baseILN9__gnu_cxx12_Lock_policyE2EEC2Ev
	adrp	x0, _ZTVSt23_Sp_counted_ptr_inplaceI6LooperSaIS0_ELN9__gnu_cxx12_Lock_policyE2EE+16
	add	x1, x0, :lo12:_ZTVSt23_Sp_counted_ptr_inplaceI6LooperSaIS0_ELN9__gnu_cxx12_Lock_policyE2EE+16
	ldr	x0, [sp, 40]
	str	x1, [x0]
	ldr	x0, [sp, 40]
	add	x19, x0, 16
	add	x0, sp, 48
	ldr	x1, [sp, 32]
	bl	_ZNSaI6LooperEC1ERKS0_
	add	x0, sp, 48
	mov	x1, x0
	mov	x0, x19
	bl	_ZNSt23_Sp_counted_ptr_inplaceI6LooperSaIS0_ELN9__gnu_cxx12_Lock_policyE2EE5_ImplC1ES1_
	add	x0, sp, 48
	bl	_ZNSaI6LooperED1Ev
	ldr	x0, [sp, 40]
	bl	_ZNSt23_Sp_counted_ptr_inplaceI6LooperSaIS0_ELN9__gnu_cxx12_Lock_policyE2EE6_M_ptrEv
	mov	x1, x0
	ldr	x0, [sp, 32]
.LEHB33:
	bl	_ZNSt16allocator_traitsISaI6LooperEE9constructIS0_JEEEvRS1_PT_DpOT0_
.LEHE33:
	b	.L302
.L301:
	mov	x19, x0
	ldr	x0, [sp, 40]
	add	x0, x0, 16
	bl	_ZNSt23_Sp_counted_ptr_inplaceI6LooperSaIS0_ELN9__gnu_cxx12_Lock_policyE2EE5_ImplD1Ev
	ldr	x0, [sp, 40]
	bl	_ZNSt16_Sp_counted_baseILN9__gnu_cxx12_Lock_policyE2EED2Ev
	mov	x0, x19
.LEHB34:
	bl	_Unwind_Resume
.LEHE34:
.L302:
	adrp	x0, :got:__stack_chk_guard
	ldr	x0, [x0, #:got_lo12:__stack_chk_guard]
	ldr	x2, [sp, 56]
	ldr	x1, [x0]
	subs	x2, x2, x1
	mov	x1, 0
	beq	.L300
	bl	__stack_chk_fail
.L300:
	ldr	x19, [sp, 16]
	ldp	x29, x30, [sp], 64
	.cfi_restore 30
	.cfi_restore 29
	.cfi_restore 19
	.cfi_def_cfa_offset 0
	ret
	.cfi_endproc
.LFE5148:
	.section	.gcc_except_table
.LLSDA5148:
	.byte	0xff
	.byte	0xff
	.byte	0x1
	.uleb128 .LLSDACSE5148-.LLSDACSB5148
.LLSDACSB5148:
	.uleb128 .LEHB33-.LFB5148
	.uleb128 .LEHE33-.LEHB33
	.uleb128 .L301-.LFB5148
	.uleb128 0
	.uleb128 .LEHB34-.LFB5148
	.uleb128 .LEHE34-.LEHB34
	.uleb128 0
	.uleb128 0
.LLSDACSE5148:
	.section	.text._ZNSt23_Sp_counted_ptr_inplaceI6LooperSaIS0_ELN9__gnu_cxx12_Lock_policyE2EEC2IJEEES1_DpOT_,"axG",@progbits,_ZNSt23_Sp_counted_ptr_inplaceI6LooperSaIS0_ELN9__gnu_cxx12_Lock_policyE2EEC5IJEEES1_DpOT_,comdat
	.size	_ZNSt23_Sp_counted_ptr_inplaceI6LooperSaIS0_ELN9__gnu_cxx12_Lock_policyE2EEC2IJEEES1_DpOT_, .-_ZNSt23_Sp_counted_ptr_inplaceI6LooperSaIS0_ELN9__gnu_cxx12_Lock_policyE2EEC2IJEEES1_DpOT_
	.weak	_ZNSt23_Sp_counted_ptr_inplaceI6LooperSaIS0_ELN9__gnu_cxx12_Lock_policyE2EEC1IJEEES1_DpOT_
	.set	_ZNSt23_Sp_counted_ptr_inplaceI6LooperSaIS0_ELN9__gnu_cxx12_Lock_policyE2EEC1IJEEES1_DpOT_,_ZNSt23_Sp_counted_ptr_inplaceI6LooperSaIS0_ELN9__gnu_cxx12_Lock_policyE2EEC2IJEEES1_DpOT_
	.section	.text._ZNSt15__allocated_ptrISaISt23_Sp_counted_ptr_inplaceI6LooperSaIS1_ELN9__gnu_cxx12_Lock_policyE2EEEEaSEDn,"axG",@progbits,_ZNSt15__allocated_ptrISaISt23_Sp_counted_ptr_inplaceI6LooperSaIS1_ELN9__gnu_cxx12_Lock_policyE2EEEEaSEDn,comdat
	.align	2
	.weak	_ZNSt15__allocated_ptrISaISt23_Sp_counted_ptr_inplaceI6LooperSaIS1_ELN9__gnu_cxx12_Lock_policyE2EEEEaSEDn
	.type	_ZNSt15__allocated_ptrISaISt23_Sp_counted_ptr_inplaceI6LooperSaIS1_ELN9__gnu_cxx12_Lock_policyE2EEEEaSEDn, %function
_ZNSt15__allocated_ptrISaISt23_Sp_counted_ptr_inplaceI6LooperSaIS1_ELN9__gnu_cxx12_Lock_policyE2EEEEaSEDn:
.LFB5150:
	.cfi_startproc
	sub	sp, sp, #16
	.cfi_def_cfa_offset 16
	str	x0, [sp, 8]
	str	x1, [sp]
	ldr	x0, [sp, 8]
	str	xzr, [x0, 8]
	ldr	x0, [sp, 8]
	add	sp, sp, 16
	.cfi_def_cfa_offset 0
	ret
	.cfi_endproc
.LFE5150:
	.size	_ZNSt15__allocated_ptrISaISt23_Sp_counted_ptr_inplaceI6LooperSaIS1_ELN9__gnu_cxx12_Lock_policyE2EEEEaSEDn, .-_ZNSt15__allocated_ptrISaISt23_Sp_counted_ptr_inplaceI6LooperSaIS1_ELN9__gnu_cxx12_Lock_policyE2EEEEaSEDn
	.section	.text._ZNSt23_Sp_counted_ptr_inplaceI6LooperSaIS0_ELN9__gnu_cxx12_Lock_policyE2EE6_M_ptrEv,"axG",@progbits,_ZNSt23_Sp_counted_ptr_inplaceI6LooperSaIS0_ELN9__gnu_cxx12_Lock_policyE2EE6_M_ptrEv,comdat
	.align	2
	.weak	_ZNSt23_Sp_counted_ptr_inplaceI6LooperSaIS0_ELN9__gnu_cxx12_Lock_policyE2EE6_M_ptrEv
	.type	_ZNSt23_Sp_counted_ptr_inplaceI6LooperSaIS0_ELN9__gnu_cxx12_Lock_policyE2EE6_M_ptrEv, %function
_ZNSt23_Sp_counted_ptr_inplaceI6LooperSaIS0_ELN9__gnu_cxx12_Lock_policyE2EE6_M_ptrEv:
.LFB5151:
	.cfi_startproc
	stp	x29, x30, [sp, -32]!
	.cfi_def_cfa_offset 32
	.cfi_offset 29, -32
	.cfi_offset 30, -24
	mov	x29, sp
	str	x0, [sp, 24]
	ldr	x0, [sp, 24]
	add	x0, x0, 16
	bl	_ZN9__gnu_cxx16__aligned_bufferI6LooperE6_M_ptrEv
	ldp	x29, x30, [sp], 32
	.cfi_restore 30
	.cfi_restore 29
	.cfi_def_cfa_offset 0
	ret
	.cfi_endproc
.LFE5151:
	.size	_ZNSt23_Sp_counted_ptr_inplaceI6LooperSaIS0_ELN9__gnu_cxx12_Lock_policyE2EE6_M_ptrEv, .-_ZNSt23_Sp_counted_ptr_inplaceI6LooperSaIS0_ELN9__gnu_cxx12_Lock_policyE2EE6_M_ptrEv
	.section	.text._ZSt30__enable_shared_from_this_baseRKSt14__shared_countILN9__gnu_cxx12_Lock_policyE2EEPKSt23enable_shared_from_thisI6LooperE,"axG",@progbits,_ZSt30__enable_shared_from_this_baseRKSt14__shared_countILN9__gnu_cxx12_Lock_policyE2EEPKSt23enable_shared_from_thisI6LooperE,comdat
	.align	2
	.weak	_ZSt30__enable_shared_from_this_baseRKSt14__shared_countILN9__gnu_cxx12_Lock_policyE2EEPKSt23enable_shared_from_thisI6LooperE
	.type	_ZSt30__enable_shared_from_this_baseRKSt14__shared_countILN9__gnu_cxx12_Lock_policyE2EEPKSt23enable_shared_from_thisI6LooperE, %function
_ZSt30__enable_shared_from_this_baseRKSt14__shared_countILN9__gnu_cxx12_Lock_policyE2EEPKSt23enable_shared_from_thisI6LooperE:
.LFB5152:
	.cfi_startproc
	sub	sp, sp, #16
	.cfi_def_cfa_offset 16
	str	x0, [sp, 8]
	str	x1, [sp]
	ldr	x0, [sp]
	add	sp, sp, 16
	.cfi_def_cfa_offset 0
	ret
	.cfi_endproc
.LFE5152:
	.size	_ZSt30__enable_shared_from_this_baseRKSt14__shared_countILN9__gnu_cxx12_Lock_policyE2EEPKSt23enable_shared_from_thisI6LooperE, .-_ZSt30__enable_shared_from_this_baseRKSt14__shared_countILN9__gnu_cxx12_Lock_policyE2EEPKSt23enable_shared_from_thisI6LooperE
	.section	.text._ZNKSt23enable_shared_from_thisI6LooperE14_M_weak_assignIS0_EEvPT_RKSt14__shared_countILN9__gnu_cxx12_Lock_policyE2EE,"axG",@progbits,_ZNKSt23enable_shared_from_thisI6LooperE14_M_weak_assignIS0_EEvPT_RKSt14__shared_countILN9__gnu_cxx12_Lock_policyE2EE,comdat
	.align	2
	.weak	_ZNKSt23enable_shared_from_thisI6LooperE14_M_weak_assignIS0_EEvPT_RKSt14__shared_countILN9__gnu_cxx12_Lock_policyE2EE
	.type	_ZNKSt23enable_shared_from_thisI6LooperE14_M_weak_assignIS0_EEvPT_RKSt14__shared_countILN9__gnu_cxx12_Lock_policyE2EE, %function
_ZNKSt23enable_shared_from_thisI6LooperE14_M_weak_assignIS0_EEvPT_RKSt14__shared_countILN9__gnu_cxx12_Lock_policyE2EE:
.LFB5153:
	.cfi_startproc
	stp	x29, x30, [sp, -48]!
	.cfi_def_cfa_offset 48
	.cfi_offset 29, -48
	.cfi_offset 30, -40
	mov	x29, sp
	str	x0, [sp, 40]
	str	x1, [sp, 32]
	str	x2, [sp, 24]
	ldr	x0, [sp, 40]
	ldr	x2, [sp, 24]
	ldr	x1, [sp, 32]
	bl	_ZNSt10__weak_ptrI6LooperLN9__gnu_cxx12_Lock_policyE2EE9_M_assignEPS0_RKSt14__shared_countILS2_2EE
	nop
	ldp	x29, x30, [sp], 48
	.cfi_restore 30
	.cfi_restore 29
	.cfi_def_cfa_offset 0
	ret
	.cfi_endproc
.LFE5153:
	.size	_ZNKSt23enable_shared_from_thisI6LooperE14_M_weak_assignIS0_EEvPT_RKSt14__shared_countILN9__gnu_cxx12_Lock_policyE2EE, .-_ZNKSt23enable_shared_from_thisI6LooperE14_M_weak_assignIS0_EEvPT_RKSt14__shared_countILN9__gnu_cxx12_Lock_policyE2EE
	.section	.text._ZNSaISt23_Sp_counted_ptr_inplaceI1MSaIS0_ELN9__gnu_cxx12_Lock_policyE2EEEC2IS0_EERKSaIT_E,"axG",@progbits,_ZNSaISt23_Sp_counted_ptr_inplaceI1MSaIS0_ELN9__gnu_cxx12_Lock_policyE2EEEC5IS0_EERKSaIT_E,comdat
	.align	2
	.weak	_ZNSaISt23_Sp_counted_ptr_inplaceI1MSaIS0_ELN9__gnu_cxx12_Lock_policyE2EEEC2IS0_EERKSaIT_E
	.type	_ZNSaISt23_Sp_counted_ptr_inplaceI1MSaIS0_ELN9__gnu_cxx12_Lock_policyE2EEEC2IS0_EERKSaIT_E, %function
_ZNSaISt23_Sp_counted_ptr_inplaceI1MSaIS0_ELN9__gnu_cxx12_Lock_policyE2EEEC2IS0_EERKSaIT_E:
.LFB5155:
	.cfi_startproc
	stp	x29, x30, [sp, -32]!
	.cfi_def_cfa_offset 32
	.cfi_offset 29, -32
	.cfi_offset 30, -24
	mov	x29, sp
	str	x0, [sp, 24]
	str	x1, [sp, 16]
	ldr	x0, [sp, 24]
	bl	_ZN9__gnu_cxx13new_allocatorISt23_Sp_counted_ptr_inplaceI1MSaIS2_ELNS_12_Lock_policyE2EEEC2Ev
	nop
	ldp	x29, x30, [sp], 32
	.cfi_restore 30
	.cfi_restore 29
	.cfi_def_cfa_offset 0
	ret
	.cfi_endproc
.LFE5155:
	.size	_ZNSaISt23_Sp_counted_ptr_inplaceI1MSaIS0_ELN9__gnu_cxx12_Lock_policyE2EEEC2IS0_EERKSaIT_E, .-_ZNSaISt23_Sp_counted_ptr_inplaceI1MSaIS0_ELN9__gnu_cxx12_Lock_policyE2EEEC2IS0_EERKSaIT_E
	.weak	_ZNSaISt23_Sp_counted_ptr_inplaceI1MSaIS0_ELN9__gnu_cxx12_Lock_policyE2EEEC1IS0_EERKSaIT_E
	.set	_ZNSaISt23_Sp_counted_ptr_inplaceI1MSaIS0_ELN9__gnu_cxx12_Lock_policyE2EEEC1IS0_EERKSaIT_E,_ZNSaISt23_Sp_counted_ptr_inplaceI1MSaIS0_ELN9__gnu_cxx12_Lock_policyE2EEEC2IS0_EERKSaIT_E
	.section	.text._ZNSaISt23_Sp_counted_ptr_inplaceI1MSaIS0_ELN9__gnu_cxx12_Lock_policyE2EEED2Ev,"axG",@progbits,_ZNSaISt23_Sp_counted_ptr_inplaceI1MSaIS0_ELN9__gnu_cxx12_Lock_policyE2EEED5Ev,comdat
	.align	2
	.weak	_ZNSaISt23_Sp_counted_ptr_inplaceI1MSaIS0_ELN9__gnu_cxx12_Lock_policyE2EEED2Ev
	.type	_ZNSaISt23_Sp_counted_ptr_inplaceI1MSaIS0_ELN9__gnu_cxx12_Lock_policyE2EEED2Ev, %function
_ZNSaISt23_Sp_counted_ptr_inplaceI1MSaIS0_ELN9__gnu_cxx12_Lock_policyE2EEED2Ev:
.LFB5158:
	.cfi_startproc
	stp	x29, x30, [sp, -32]!
	.cfi_def_cfa_offset 32
	.cfi_offset 29, -32
	.cfi_offset 30, -24
	mov	x29, sp
	str	x0, [sp, 24]
	ldr	x0, [sp, 24]
	bl	_ZN9__gnu_cxx13new_allocatorISt23_Sp_counted_ptr_inplaceI1MSaIS2_ELNS_12_Lock_policyE2EEED2Ev
	nop
	ldp	x29, x30, [sp], 32
	.cfi_restore 30
	.cfi_restore 29
	.cfi_def_cfa_offset 0
	ret
	.cfi_endproc
.LFE5158:
	.size	_ZNSaISt23_Sp_counted_ptr_inplaceI1MSaIS0_ELN9__gnu_cxx12_Lock_policyE2EEED2Ev, .-_ZNSaISt23_Sp_counted_ptr_inplaceI1MSaIS0_ELN9__gnu_cxx12_Lock_policyE2EEED2Ev
	.weak	_ZNSaISt23_Sp_counted_ptr_inplaceI1MSaIS0_ELN9__gnu_cxx12_Lock_policyE2EEED1Ev
	.set	_ZNSaISt23_Sp_counted_ptr_inplaceI1MSaIS0_ELN9__gnu_cxx12_Lock_policyE2EEED1Ev,_ZNSaISt23_Sp_counted_ptr_inplaceI1MSaIS0_ELN9__gnu_cxx12_Lock_policyE2EEED2Ev
	.section	.text._ZSt18__allocate_guardedISaISt23_Sp_counted_ptr_inplaceI1MSaIS1_ELN9__gnu_cxx12_Lock_policyE2EEEESt15__allocated_ptrIT_ERS8_,"axG",@progbits,_ZSt18__allocate_guardedISaISt23_Sp_counted_ptr_inplaceI1MSaIS1_ELN9__gnu_cxx12_Lock_policyE2EEEESt15__allocated_ptrIT_ERS8_,comdat
	.align	2
	.weak	_ZSt18__allocate_guardedISaISt23_Sp_counted_ptr_inplaceI1MSaIS1_ELN9__gnu_cxx12_Lock_policyE2EEEESt15__allocated_ptrIT_ERS8_
	.type	_ZSt18__allocate_guardedISaISt23_Sp_counted_ptr_inplaceI1MSaIS1_ELN9__gnu_cxx12_Lock_policyE2EEEESt15__allocated_ptrIT_ERS8_, %function
_ZSt18__allocate_guardedISaISt23_Sp_counted_ptr_inplaceI1MSaIS1_ELN9__gnu_cxx12_Lock_policyE2EEEESt15__allocated_ptrIT_ERS8_:
.LFB5160:
	.cfi_startproc
	stp	x29, x30, [sp, -48]!
	.cfi_def_cfa_offset 48
	.cfi_offset 29, -48
	.cfi_offset 30, -40
	mov	x29, sp
	str	x19, [sp, 16]
	.cfi_offset 19, -32
	mov	x19, x8
	str	x0, [sp, 40]
	mov	x1, 1
	ldr	x0, [sp, 40]
	bl	_ZNSt16allocator_traitsISaISt23_Sp_counted_ptr_inplaceI1MSaIS1_ELN9__gnu_cxx12_Lock_policyE2EEEE8allocateERS6_m
	mov	x2, x0
	ldr	x1, [sp, 40]
	mov	x0, x19
	bl	_ZNSt15__allocated_ptrISaISt23_Sp_counted_ptr_inplaceI1MSaIS1_ELN9__gnu_cxx12_Lock_policyE2EEEEC1ERS6_PS5_
	mov	x0, x19
	ldr	x19, [sp, 16]
	ldp	x29, x30, [sp], 48
	.cfi_restore 30
	.cfi_restore 29
	.cfi_restore 19
	.cfi_def_cfa_offset 0
	ret
	.cfi_endproc
.LFE5160:
	.size	_ZSt18__allocate_guardedISaISt23_Sp_counted_ptr_inplaceI1MSaIS1_ELN9__gnu_cxx12_Lock_policyE2EEEESt15__allocated_ptrIT_ERS8_, .-_ZSt18__allocate_guardedISaISt23_Sp_counted_ptr_inplaceI1MSaIS1_ELN9__gnu_cxx12_Lock_policyE2EEEESt15__allocated_ptrIT_ERS8_
	.section	.text._ZNSt15__allocated_ptrISaISt23_Sp_counted_ptr_inplaceI1MSaIS1_ELN9__gnu_cxx12_Lock_policyE2EEEED2Ev,"axG",@progbits,_ZNSt15__allocated_ptrISaISt23_Sp_counted_ptr_inplaceI1MSaIS1_ELN9__gnu_cxx12_Lock_policyE2EEEED5Ev,comdat
	.align	2
	.weak	_ZNSt15__allocated_ptrISaISt23_Sp_counted_ptr_inplaceI1MSaIS1_ELN9__gnu_cxx12_Lock_policyE2EEEED2Ev
	.type	_ZNSt15__allocated_ptrISaISt23_Sp_counted_ptr_inplaceI1MSaIS1_ELN9__gnu_cxx12_Lock_policyE2EEEED2Ev, %function
_ZNSt15__allocated_ptrISaISt23_Sp_counted_ptr_inplaceI1MSaIS1_ELN9__gnu_cxx12_Lock_policyE2EEEED2Ev:
.LFB5162:
	.cfi_startproc
	.cfi_personality 0x9b,DW.ref.__gxx_personality_v0
	.cfi_lsda 0x1b,.LLSDA5162
	stp	x29, x30, [sp, -32]!
	.cfi_def_cfa_offset 32
	.cfi_offset 29, -32
	.cfi_offset 30, -24
	mov	x29, sp
	str	x0, [sp, 24]
	ldr	x0, [sp, 24]
	ldr	x0, [x0, 8]
	cmp	x0, 0
	beq	.L316
	ldr	x0, [sp, 24]
	ldr	x3, [x0]
	ldr	x0, [sp, 24]
	ldr	x0, [x0, 8]
	mov	x2, 1
	mov	x1, x0
	mov	x0, x3
	bl	_ZNSt16allocator_traitsISaISt23_Sp_counted_ptr_inplaceI1MSaIS1_ELN9__gnu_cxx12_Lock_policyE2EEEE10deallocateERS6_PS5_m
.L316:
	nop
	ldp	x29, x30, [sp], 32
	.cfi_restore 30
	.cfi_restore 29
	.cfi_def_cfa_offset 0
	ret
	.cfi_endproc
.LFE5162:
	.section	.gcc_except_table
.LLSDA5162:
	.byte	0xff
	.byte	0xff
	.byte	0x1
	.uleb128 .LLSDACSE5162-.LLSDACSB5162
.LLSDACSB5162:
.LLSDACSE5162:
	.section	.text._ZNSt15__allocated_ptrISaISt23_Sp_counted_ptr_inplaceI1MSaIS1_ELN9__gnu_cxx12_Lock_policyE2EEEED2Ev,"axG",@progbits,_ZNSt15__allocated_ptrISaISt23_Sp_counted_ptr_inplaceI1MSaIS1_ELN9__gnu_cxx12_Lock_policyE2EEEED5Ev,comdat
	.size	_ZNSt15__allocated_ptrISaISt23_Sp_counted_ptr_inplaceI1MSaIS1_ELN9__gnu_cxx12_Lock_policyE2EEEED2Ev, .-_ZNSt15__allocated_ptrISaISt23_Sp_counted_ptr_inplaceI1MSaIS1_ELN9__gnu_cxx12_Lock_policyE2EEEED2Ev
	.weak	_ZNSt15__allocated_ptrISaISt23_Sp_counted_ptr_inplaceI1MSaIS1_ELN9__gnu_cxx12_Lock_policyE2EEEED1Ev
	.set	_ZNSt15__allocated_ptrISaISt23_Sp_counted_ptr_inplaceI1MSaIS1_ELN9__gnu_cxx12_Lock_policyE2EEEED1Ev,_ZNSt15__allocated_ptrISaISt23_Sp_counted_ptr_inplaceI1MSaIS1_ELN9__gnu_cxx12_Lock_policyE2EEEED2Ev
	.section	.text._ZNSt15__allocated_ptrISaISt23_Sp_counted_ptr_inplaceI1MSaIS1_ELN9__gnu_cxx12_Lock_policyE2EEEE3getEv,"axG",@progbits,_ZNSt15__allocated_ptrISaISt23_Sp_counted_ptr_inplaceI1MSaIS1_ELN9__gnu_cxx12_Lock_policyE2EEEE3getEv,comdat
	.align	2
	.weak	_ZNSt15__allocated_ptrISaISt23_Sp_counted_ptr_inplaceI1MSaIS1_ELN9__gnu_cxx12_Lock_policyE2EEEE3getEv
	.type	_ZNSt15__allocated_ptrISaISt23_Sp_counted_ptr_inplaceI1MSaIS1_ELN9__gnu_cxx12_Lock_policyE2EEEE3getEv, %function
_ZNSt15__allocated_ptrISaISt23_Sp_counted_ptr_inplaceI1MSaIS1_ELN9__gnu_cxx12_Lock_policyE2EEEE3getEv:
.LFB5164:
	.cfi_startproc
	stp	x29, x30, [sp, -32]!
	.cfi_def_cfa_offset 32
	.cfi_offset 29, -32
	.cfi_offset 30, -24
	mov	x29, sp
	str	x0, [sp, 24]
	ldr	x0, [sp, 24]
	ldr	x0, [x0, 8]
	bl	_ZSt12__to_addressISt23_Sp_counted_ptr_inplaceI1MSaIS1_ELN9__gnu_cxx12_Lock_policyE2EEEPT_S7_
	ldp	x29, x30, [sp], 32
	.cfi_restore 30
	.cfi_restore 29
	.cfi_def_cfa_offset 0
	ret
	.cfi_endproc
.LFE5164:
	.size	_ZNSt15__allocated_ptrISaISt23_Sp_counted_ptr_inplaceI1MSaIS1_ELN9__gnu_cxx12_Lock_policyE2EEEE3getEv, .-_ZNSt15__allocated_ptrISaISt23_Sp_counted_ptr_inplaceI1MSaIS1_ELN9__gnu_cxx12_Lock_policyE2EEEE3getEv
	.section	.text._ZNSaI1MEC2ERKS0_,"axG",@progbits,_ZNSaI1MEC5ERKS0_,comdat
	.align	2
	.weak	_ZNSaI1MEC2ERKS0_
	.type	_ZNSaI1MEC2ERKS0_, %function
_ZNSaI1MEC2ERKS0_:
.LFB5166:
	.cfi_startproc
	stp	x29, x30, [sp, -32]!
	.cfi_def_cfa_offset 32
	.cfi_offset 29, -32
	.cfi_offset 30, -24
	mov	x29, sp
	str	x0, [sp, 24]
	str	x1, [sp, 16]
	ldr	x1, [sp, 16]
	ldr	x0, [sp, 24]
	bl	_ZN9__gnu_cxx13new_allocatorI1MEC2ERKS2_
	nop
	ldp	x29, x30, [sp], 32
	.cfi_restore 30
	.cfi_restore 29
	.cfi_def_cfa_offset 0
	ret
	.cfi_endproc
.LFE5166:
	.size	_ZNSaI1MEC2ERKS0_, .-_ZNSaI1MEC2ERKS0_
	.weak	_ZNSaI1MEC1ERKS0_
	.set	_ZNSaI1MEC1ERKS0_,_ZNSaI1MEC2ERKS0_
	.section	.text._ZNSt14_Sp_ebo_helperILi0ESaI1MELb1EED2Ev,"axG",@progbits,_ZNSt14_Sp_ebo_helperILi0ESaI1MELb1EED5Ev,comdat
	.align	2
	.weak	_ZNSt14_Sp_ebo_helperILi0ESaI1MELb1EED2Ev
	.type	_ZNSt14_Sp_ebo_helperILi0ESaI1MELb1EED2Ev, %function
_ZNSt14_Sp_ebo_helperILi0ESaI1MELb1EED2Ev:
.LFB5171:
	.cfi_startproc
	stp	x29, x30, [sp, -32]!
	.cfi_def_cfa_offset 32
	.cfi_offset 29, -32
	.cfi_offset 30, -24
	mov	x29, sp
	str	x0, [sp, 24]
	ldr	x0, [sp, 24]
	bl	_ZNSaI1MED2Ev
	nop
	ldp	x29, x30, [sp], 32
	.cfi_restore 30
	.cfi_restore 29
	.cfi_def_cfa_offset 0
	ret
	.cfi_endproc
.LFE5171:
	.size	_ZNSt14_Sp_ebo_helperILi0ESaI1MELb1EED2Ev, .-_ZNSt14_Sp_ebo_helperILi0ESaI1MELb1EED2Ev
	.weak	_ZNSt14_Sp_ebo_helperILi0ESaI1MELb1EED1Ev
	.set	_ZNSt14_Sp_ebo_helperILi0ESaI1MELb1EED1Ev,_ZNSt14_Sp_ebo_helperILi0ESaI1MELb1EED2Ev
	.section	.text._ZNSt23_Sp_counted_ptr_inplaceI1MSaIS0_ELN9__gnu_cxx12_Lock_policyE2EE5_ImplD2Ev,"axG",@progbits,_ZNSt23_Sp_counted_ptr_inplaceI1MSaIS0_ELN9__gnu_cxx12_Lock_policyE2EE5_ImplD5Ev,comdat
	.align	2
	.weak	_ZNSt23_Sp_counted_ptr_inplaceI1MSaIS0_ELN9__gnu_cxx12_Lock_policyE2EE5_ImplD2Ev
	.type	_ZNSt23_Sp_counted_ptr_inplaceI1MSaIS0_ELN9__gnu_cxx12_Lock_policyE2EE5_ImplD2Ev, %function
_ZNSt23_Sp_counted_ptr_inplaceI1MSaIS0_ELN9__gnu_cxx12_Lock_policyE2EE5_ImplD2Ev:
.LFB5173:
	.cfi_startproc
	stp	x29, x30, [sp, -32]!
	.cfi_def_cfa_offset 32
	.cfi_offset 29, -32
	.cfi_offset 30, -24
	mov	x29, sp
	str	x0, [sp, 24]
	ldr	x0, [sp, 24]
	bl	_ZNSt14_Sp_ebo_helperILi0ESaI1MELb1EED2Ev
	nop
	ldp	x29, x30, [sp], 32
	.cfi_restore 30
	.cfi_restore 29
	.cfi_def_cfa_offset 0
	ret
	.cfi_endproc
.LFE5173:
	.size	_ZNSt23_Sp_counted_ptr_inplaceI1MSaIS0_ELN9__gnu_cxx12_Lock_policyE2EE5_ImplD2Ev, .-_ZNSt23_Sp_counted_ptr_inplaceI1MSaIS0_ELN9__gnu_cxx12_Lock_policyE2EE5_ImplD2Ev
	.weak	_ZNSt23_Sp_counted_ptr_inplaceI1MSaIS0_ELN9__gnu_cxx12_Lock_policyE2EE5_ImplD1Ev
	.set	_ZNSt23_Sp_counted_ptr_inplaceI1MSaIS0_ELN9__gnu_cxx12_Lock_policyE2EE5_ImplD1Ev,_ZNSt23_Sp_counted_ptr_inplaceI1MSaIS0_ELN9__gnu_cxx12_Lock_policyE2EE5_ImplD2Ev
	.section	.text._ZNSt23_Sp_counted_ptr_inplaceI1MSaIS0_ELN9__gnu_cxx12_Lock_policyE2EEC2IJEEES1_DpOT_,"axG",@progbits,_ZNSt23_Sp_counted_ptr_inplaceI1MSaIS0_ELN9__gnu_cxx12_Lock_policyE2EEC5IJEEES1_DpOT_,comdat
	.align	2
	.weak	_ZNSt23_Sp_counted_ptr_inplaceI1MSaIS0_ELN9__gnu_cxx12_Lock_policyE2EEC2IJEEES1_DpOT_
	.type	_ZNSt23_Sp_counted_ptr_inplaceI1MSaIS0_ELN9__gnu_cxx12_Lock_policyE2EEC2IJEEES1_DpOT_, %function
_ZNSt23_Sp_counted_ptr_inplaceI1MSaIS0_ELN9__gnu_cxx12_Lock_policyE2EEC2IJEEES1_DpOT_:
.LFB5176:
	.cfi_startproc
	stp	x29, x30, [sp, -64]!
	.cfi_def_cfa_offset 64
	.cfi_offset 29, -64
	.cfi_offset 30, -56
	mov	x29, sp
	str	x19, [sp, 16]
	.cfi_offset 19, -48
	str	x0, [sp, 40]
	str	x1, [sp, 32]
	adrp	x0, :got:__stack_chk_guard
	ldr	x0, [x0, #:got_lo12:__stack_chk_guard]
	ldr	x1, [x0]
	str	x1, [sp, 56]
	mov	x1, 0
	ldr	x0, [sp, 40]
	bl	_ZNSt16_Sp_counted_baseILN9__gnu_cxx12_Lock_policyE2EEC2Ev
	adrp	x0, _ZTVSt23_Sp_counted_ptr_inplaceI1MSaIS0_ELN9__gnu_cxx12_Lock_policyE2EE+16
	add	x1, x0, :lo12:_ZTVSt23_Sp_counted_ptr_inplaceI1MSaIS0_ELN9__gnu_cxx12_Lock_policyE2EE+16
	ldr	x0, [sp, 40]
	str	x1, [x0]
	ldr	x0, [sp, 40]
	add	x19, x0, 16
	add	x0, sp, 48
	ldr	x1, [sp, 32]
	bl	_ZNSaI1MEC1ERKS0_
	add	x0, sp, 48
	mov	x1, x0
	mov	x0, x19
	bl	_ZNSt23_Sp_counted_ptr_inplaceI1MSaIS0_ELN9__gnu_cxx12_Lock_policyE2EE5_ImplC1ES1_
	add	x0, sp, 48
	bl	_ZNSaI1MED1Ev
	ldr	x0, [sp, 40]
	bl	_ZNSt23_Sp_counted_ptr_inplaceI1MSaIS0_ELN9__gnu_cxx12_Lock_policyE2EE6_M_ptrEv
	mov	x1, x0
	ldr	x0, [sp, 32]
	bl	_ZNSt16allocator_traitsISaI1MEE9constructIS0_JEEEvRS1_PT_DpOT0_
	nop
	adrp	x0, :got:__stack_chk_guard
	ldr	x0, [x0, #:got_lo12:__stack_chk_guard]
	ldr	x2, [sp, 56]
	ldr	x1, [x0]
	subs	x2, x2, x1
	mov	x1, 0
	beq	.L323
	bl	__stack_chk_fail
.L323:
	ldr	x19, [sp, 16]
	ldp	x29, x30, [sp], 64
	.cfi_restore 30
	.cfi_restore 29
	.cfi_restore 19
	.cfi_def_cfa_offset 0
	ret
	.cfi_endproc
.LFE5176:
	.size	_ZNSt23_Sp_counted_ptr_inplaceI1MSaIS0_ELN9__gnu_cxx12_Lock_policyE2EEC2IJEEES1_DpOT_, .-_ZNSt23_Sp_counted_ptr_inplaceI1MSaIS0_ELN9__gnu_cxx12_Lock_policyE2EEC2IJEEES1_DpOT_
	.weak	_ZNSt23_Sp_counted_ptr_inplaceI1MSaIS0_ELN9__gnu_cxx12_Lock_policyE2EEC1IJEEES1_DpOT_
	.set	_ZNSt23_Sp_counted_ptr_inplaceI1MSaIS0_ELN9__gnu_cxx12_Lock_policyE2EEC1IJEEES1_DpOT_,_ZNSt23_Sp_counted_ptr_inplaceI1MSaIS0_ELN9__gnu_cxx12_Lock_policyE2EEC2IJEEES1_DpOT_
	.section	.text._ZNSt15__allocated_ptrISaISt23_Sp_counted_ptr_inplaceI1MSaIS1_ELN9__gnu_cxx12_Lock_policyE2EEEEaSEDn,"axG",@progbits,_ZNSt15__allocated_ptrISaISt23_Sp_counted_ptr_inplaceI1MSaIS1_ELN9__gnu_cxx12_Lock_policyE2EEEEaSEDn,comdat
	.align	2
	.weak	_ZNSt15__allocated_ptrISaISt23_Sp_counted_ptr_inplaceI1MSaIS1_ELN9__gnu_cxx12_Lock_policyE2EEEEaSEDn
	.type	_ZNSt15__allocated_ptrISaISt23_Sp_counted_ptr_inplaceI1MSaIS1_ELN9__gnu_cxx12_Lock_policyE2EEEEaSEDn, %function
_ZNSt15__allocated_ptrISaISt23_Sp_counted_ptr_inplaceI1MSaIS1_ELN9__gnu_cxx12_Lock_policyE2EEEEaSEDn:
.LFB5178:
	.cfi_startproc
	sub	sp, sp, #16
	.cfi_def_cfa_offset 16
	str	x0, [sp, 8]
	str	x1, [sp]
	ldr	x0, [sp, 8]
	str	xzr, [x0, 8]
	ldr	x0, [sp, 8]
	add	sp, sp, 16
	.cfi_def_cfa_offset 0
	ret
	.cfi_endproc
.LFE5178:
	.size	_ZNSt15__allocated_ptrISaISt23_Sp_counted_ptr_inplaceI1MSaIS1_ELN9__gnu_cxx12_Lock_policyE2EEEEaSEDn, .-_ZNSt15__allocated_ptrISaISt23_Sp_counted_ptr_inplaceI1MSaIS1_ELN9__gnu_cxx12_Lock_policyE2EEEEaSEDn
	.section	.text._ZNSt23_Sp_counted_ptr_inplaceI1MSaIS0_ELN9__gnu_cxx12_Lock_policyE2EE6_M_ptrEv,"axG",@progbits,_ZNSt23_Sp_counted_ptr_inplaceI1MSaIS0_ELN9__gnu_cxx12_Lock_policyE2EE6_M_ptrEv,comdat
	.align	2
	.weak	_ZNSt23_Sp_counted_ptr_inplaceI1MSaIS0_ELN9__gnu_cxx12_Lock_policyE2EE6_M_ptrEv
	.type	_ZNSt23_Sp_counted_ptr_inplaceI1MSaIS0_ELN9__gnu_cxx12_Lock_policyE2EE6_M_ptrEv, %function
_ZNSt23_Sp_counted_ptr_inplaceI1MSaIS0_ELN9__gnu_cxx12_Lock_policyE2EE6_M_ptrEv:
.LFB5179:
	.cfi_startproc
	stp	x29, x30, [sp, -32]!
	.cfi_def_cfa_offset 32
	.cfi_offset 29, -32
	.cfi_offset 30, -24
	mov	x29, sp
	str	x0, [sp, 24]
	ldr	x0, [sp, 24]
	add	x0, x0, 16
	bl	_ZN9__gnu_cxx16__aligned_bufferI1ME6_M_ptrEv
	ldp	x29, x30, [sp], 32
	.cfi_restore 30
	.cfi_restore 29
	.cfi_def_cfa_offset 0
	ret
	.cfi_endproc
.LFE5179:
	.size	_ZNSt23_Sp_counted_ptr_inplaceI1MSaIS0_ELN9__gnu_cxx12_Lock_policyE2EE6_M_ptrEv, .-_ZNSt23_Sp_counted_ptr_inplaceI1MSaIS0_ELN9__gnu_cxx12_Lock_policyE2EE6_M_ptrEv
	.section	.text._ZSt30__enable_shared_from_this_baseRKSt14__shared_countILN9__gnu_cxx12_Lock_policyE2EEPKSt23enable_shared_from_thisI14MessageHandlerE,"axG",@progbits,_ZSt30__enable_shared_from_this_baseRKSt14__shared_countILN9__gnu_cxx12_Lock_policyE2EEPKSt23enable_shared_from_thisI14MessageHandlerE,comdat
	.align	2
	.weak	_ZSt30__enable_shared_from_this_baseRKSt14__shared_countILN9__gnu_cxx12_Lock_policyE2EEPKSt23enable_shared_from_thisI14MessageHandlerE
	.type	_ZSt30__enable_shared_from_this_baseRKSt14__shared_countILN9__gnu_cxx12_Lock_policyE2EEPKSt23enable_shared_from_thisI14MessageHandlerE, %function
_ZSt30__enable_shared_from_this_baseRKSt14__shared_countILN9__gnu_cxx12_Lock_policyE2EEPKSt23enable_shared_from_thisI14MessageHandlerE:
.LFB5180:
	.cfi_startproc
	sub	sp, sp, #16
	.cfi_def_cfa_offset 16
	str	x0, [sp, 8]
	str	x1, [sp]
	ldr	x0, [sp]
	add	sp, sp, 16
	.cfi_def_cfa_offset 0
	ret
	.cfi_endproc
.LFE5180:
	.size	_ZSt30__enable_shared_from_this_baseRKSt14__shared_countILN9__gnu_cxx12_Lock_policyE2EEPKSt23enable_shared_from_thisI14MessageHandlerE, .-_ZSt30__enable_shared_from_this_baseRKSt14__shared_countILN9__gnu_cxx12_Lock_policyE2EEPKSt23enable_shared_from_thisI14MessageHandlerE
	.section	.text._ZNKSt23enable_shared_from_thisI14MessageHandlerE14_M_weak_assignI1MEEvPT_RKSt14__shared_countILN9__gnu_cxx12_Lock_policyE2EE,"axG",@progbits,_ZNKSt23enable_shared_from_thisI14MessageHandlerE14_M_weak_assignI1MEEvPT_RKSt14__shared_countILN9__gnu_cxx12_Lock_policyE2EE,comdat
	.align	2
	.weak	_ZNKSt23enable_shared_from_thisI14MessageHandlerE14_M_weak_assignI1MEEvPT_RKSt14__shared_countILN9__gnu_cxx12_Lock_policyE2EE
	.type	_ZNKSt23enable_shared_from_thisI14MessageHandlerE14_M_weak_assignI1MEEvPT_RKSt14__shared_countILN9__gnu_cxx12_Lock_policyE2EE, %function
_ZNKSt23enable_shared_from_thisI14MessageHandlerE14_M_weak_assignI1MEEvPT_RKSt14__shared_countILN9__gnu_cxx12_Lock_policyE2EE:
.LFB5181:
	.cfi_startproc
	stp	x29, x30, [sp, -48]!
	.cfi_def_cfa_offset 48
	.cfi_offset 29, -48
	.cfi_offset 30, -40
	mov	x29, sp
	str	x0, [sp, 40]
	str	x1, [sp, 32]
	str	x2, [sp, 24]
	ldr	x0, [sp, 40]
	ldr	x2, [sp, 24]
	ldr	x1, [sp, 32]
	bl	_ZNSt10__weak_ptrI14MessageHandlerLN9__gnu_cxx12_Lock_policyE2EE9_M_assignEPS0_RKSt14__shared_countILS2_2EE
	nop
	ldp	x29, x30, [sp], 48
	.cfi_restore 30
	.cfi_restore 29
	.cfi_def_cfa_offset 0
	ret
	.cfi_endproc
.LFE5181:
	.size	_ZNKSt23enable_shared_from_thisI14MessageHandlerE14_M_weak_assignI1MEEvPT_RKSt14__shared_countILN9__gnu_cxx12_Lock_policyE2EE, .-_ZNKSt23enable_shared_from_thisI14MessageHandlerE14_M_weak_assignI1MEEvPT_RKSt14__shared_countILN9__gnu_cxx12_Lock_policyE2EE
	.section	.text._ZNSt11_Tuple_implILm1EJSt14default_deleteINSt6thread6_StateEEEEC2Ev,"axG",@progbits,_ZNSt11_Tuple_implILm1EJSt14default_deleteINSt6thread6_StateEEEEC5Ev,comdat
	.align	2
	.weak	_ZNSt11_Tuple_implILm1EJSt14default_deleteINSt6thread6_StateEEEEC2Ev
	.type	_ZNSt11_Tuple_implILm1EJSt14default_deleteINSt6thread6_StateEEEEC2Ev, %function
_ZNSt11_Tuple_implILm1EJSt14default_deleteINSt6thread6_StateEEEEC2Ev:
.LFB5183:
	.cfi_startproc
	stp	x29, x30, [sp, -32]!
	.cfi_def_cfa_offset 32
	.cfi_offset 29, -32
	.cfi_offset 30, -24
	mov	x29, sp
	str	x0, [sp, 24]
	ldr	x0, [sp, 24]
	bl	_ZNSt10_Head_baseILm1ESt14default_deleteINSt6thread6_StateEELb1EEC2Ev
	nop
	ldp	x29, x30, [sp], 32
	.cfi_restore 30
	.cfi_restore 29
	.cfi_def_cfa_offset 0
	ret
	.cfi_endproc
.LFE5183:
	.size	_ZNSt11_Tuple_implILm1EJSt14default_deleteINSt6thread6_StateEEEEC2Ev, .-_ZNSt11_Tuple_implILm1EJSt14default_deleteINSt6thread6_StateEEEEC2Ev
	.weak	_ZNSt11_Tuple_implILm1EJSt14default_deleteINSt6thread6_StateEEEEC1Ev
	.set	_ZNSt11_Tuple_implILm1EJSt14default_deleteINSt6thread6_StateEEEEC1Ev,_ZNSt11_Tuple_implILm1EJSt14default_deleteINSt6thread6_StateEEEEC2Ev
	.section	.text._ZNSt10_Head_baseILm0EPNSt6thread6_StateELb0EEC2Ev,"axG",@progbits,_ZNSt10_Head_baseILm0EPNSt6thread6_StateELb0EEC5Ev,comdat
	.align	2
	.weak	_ZNSt10_Head_baseILm0EPNSt6thread6_StateELb0EEC2Ev
	.type	_ZNSt10_Head_baseILm0EPNSt6thread6_StateELb0EEC2Ev, %function
_ZNSt10_Head_baseILm0EPNSt6thread6_StateELb0EEC2Ev:
.LFB5186:
	.cfi_startproc
	sub	sp, sp, #16
	.cfi_def_cfa_offset 16
	str	x0, [sp, 8]
	ldr	x0, [sp, 8]
	str	xzr, [x0]
	nop
	add	sp, sp, 16
	.cfi_def_cfa_offset 0
	ret
	.cfi_endproc
.LFE5186:
	.size	_ZNSt10_Head_baseILm0EPNSt6thread6_StateELb0EEC2Ev, .-_ZNSt10_Head_baseILm0EPNSt6thread6_StateELb0EEC2Ev
	.weak	_ZNSt10_Head_baseILm0EPNSt6thread6_StateELb0EEC1Ev
	.set	_ZNSt10_Head_baseILm0EPNSt6thread6_StateELb0EEC1Ev,_ZNSt10_Head_baseILm0EPNSt6thread6_StateELb0EEC2Ev
	.section	.text._ZNSt11_Tuple_implILm0EJPNSt6thread6_StateESt14default_deleteIS1_EEE7_M_headERS5_,"axG",@progbits,_ZNSt11_Tuple_implILm0EJPNSt6thread6_StateESt14default_deleteIS1_EEE7_M_headERS5_,comdat
	.align	2
	.weak	_ZNSt11_Tuple_implILm0EJPNSt6thread6_StateESt14default_deleteIS1_EEE7_M_headERS5_
	.type	_ZNSt11_Tuple_implILm0EJPNSt6thread6_StateESt14default_deleteIS1_EEE7_M_headERS5_, %function
_ZNSt11_Tuple_implILm0EJPNSt6thread6_StateESt14default_deleteIS1_EEE7_M_headERS5_:
.LFB5188:
	.cfi_startproc
	stp	x29, x30, [sp, -32]!
	.cfi_def_cfa_offset 32
	.cfi_offset 29, -32
	.cfi_offset 30, -24
	mov	x29, sp
	str	x0, [sp, 24]
	ldr	x0, [sp, 24]
	bl	_ZNSt10_Head_baseILm0EPNSt6thread6_StateELb0EE7_M_headERS3_
	ldp	x29, x30, [sp], 32
	.cfi_restore 30
	.cfi_restore 29
	.cfi_def_cfa_offset 0
	ret
	.cfi_endproc
.LFE5188:
	.size	_ZNSt11_Tuple_implILm0EJPNSt6thread6_StateESt14default_deleteIS1_EEE7_M_headERS5_, .-_ZNSt11_Tuple_implILm0EJPNSt6thread6_StateESt14default_deleteIS1_EEE7_M_headERS5_
	.section	.text._ZSt12__get_helperILm1ESt14default_deleteINSt6thread6_StateEEJEERT0_RSt11_Tuple_implIXT_EJS4_DpT1_EE,"axG",@progbits,_ZSt12__get_helperILm1ESt14default_deleteINSt6thread6_StateEEJEERT0_RSt11_Tuple_implIXT_EJS4_DpT1_EE,comdat
	.align	2
	.weak	_ZSt12__get_helperILm1ESt14default_deleteINSt6thread6_StateEEJEERT0_RSt11_Tuple_implIXT_EJS4_DpT1_EE
	.type	_ZSt12__get_helperILm1ESt14default_deleteINSt6thread6_StateEEJEERT0_RSt11_Tuple_implIXT_EJS4_DpT1_EE, %function
_ZSt12__get_helperILm1ESt14default_deleteINSt6thread6_StateEEJEERT0_RSt11_Tuple_implIXT_EJS4_DpT1_EE:
.LFB5189:
	.cfi_startproc
	stp	x29, x30, [sp, -32]!
	.cfi_def_cfa_offset 32
	.cfi_offset 29, -32
	.cfi_offset 30, -24
	mov	x29, sp
	str	x0, [sp, 24]
	ldr	x0, [sp, 24]
	bl	_ZNSt11_Tuple_implILm1EJSt14default_deleteINSt6thread6_StateEEEE7_M_headERS4_
	ldp	x29, x30, [sp], 32
	.cfi_restore 30
	.cfi_restore 29
	.cfi_def_cfa_offset 0
	ret
	.cfi_endproc
.LFE5189:
	.size	_ZSt12__get_helperILm1ESt14default_deleteINSt6thread6_StateEEJEERT0_RSt11_Tuple_implIXT_EJS4_DpT1_EE, .-_ZSt12__get_helperILm1ESt14default_deleteINSt6thread6_StateEEJEERT0_RSt11_Tuple_implIXT_EJS4_DpT1_EE
	.section	.text._ZNSaISt23_Sp_counted_ptr_inplaceI7MessageSaIS0_ELN9__gnu_cxx12_Lock_policyE2EEEC2IS0_EERKSaIT_E,"axG",@progbits,_ZNSaISt23_Sp_counted_ptr_inplaceI7MessageSaIS0_ELN9__gnu_cxx12_Lock_policyE2EEEC5IS0_EERKSaIT_E,comdat
	.align	2
	.weak	_ZNSaISt23_Sp_counted_ptr_inplaceI7MessageSaIS0_ELN9__gnu_cxx12_Lock_policyE2EEEC2IS0_EERKSaIT_E
	.type	_ZNSaISt23_Sp_counted_ptr_inplaceI7MessageSaIS0_ELN9__gnu_cxx12_Lock_policyE2EEEC2IS0_EERKSaIT_E, %function
_ZNSaISt23_Sp_counted_ptr_inplaceI7MessageSaIS0_ELN9__gnu_cxx12_Lock_policyE2EEEC2IS0_EERKSaIT_E:
.LFB5191:
	.cfi_startproc
	stp	x29, x30, [sp, -32]!
	.cfi_def_cfa_offset 32
	.cfi_offset 29, -32
	.cfi_offset 30, -24
	mov	x29, sp
	str	x0, [sp, 24]
	str	x1, [sp, 16]
	ldr	x0, [sp, 24]
	bl	_ZN9__gnu_cxx13new_allocatorISt23_Sp_counted_ptr_inplaceI7MessageSaIS2_ELNS_12_Lock_policyE2EEEC2Ev
	nop
	ldp	x29, x30, [sp], 32
	.cfi_restore 30
	.cfi_restore 29
	.cfi_def_cfa_offset 0
	ret
	.cfi_endproc
.LFE5191:
	.size	_ZNSaISt23_Sp_counted_ptr_inplaceI7MessageSaIS0_ELN9__gnu_cxx12_Lock_policyE2EEEC2IS0_EERKSaIT_E, .-_ZNSaISt23_Sp_counted_ptr_inplaceI7MessageSaIS0_ELN9__gnu_cxx12_Lock_policyE2EEEC2IS0_EERKSaIT_E
	.weak	_ZNSaISt23_Sp_counted_ptr_inplaceI7MessageSaIS0_ELN9__gnu_cxx12_Lock_policyE2EEEC1IS0_EERKSaIT_E
	.set	_ZNSaISt23_Sp_counted_ptr_inplaceI7MessageSaIS0_ELN9__gnu_cxx12_Lock_policyE2EEEC1IS0_EERKSaIT_E,_ZNSaISt23_Sp_counted_ptr_inplaceI7MessageSaIS0_ELN9__gnu_cxx12_Lock_policyE2EEEC2IS0_EERKSaIT_E
	.section	.text._ZNSaISt23_Sp_counted_ptr_inplaceI7MessageSaIS0_ELN9__gnu_cxx12_Lock_policyE2EEED2Ev,"axG",@progbits,_ZNSaISt23_Sp_counted_ptr_inplaceI7MessageSaIS0_ELN9__gnu_cxx12_Lock_policyE2EEED5Ev,comdat
	.align	2
	.weak	_ZNSaISt23_Sp_counted_ptr_inplaceI7MessageSaIS0_ELN9__gnu_cxx12_Lock_policyE2EEED2Ev
	.type	_ZNSaISt23_Sp_counted_ptr_inplaceI7MessageSaIS0_ELN9__gnu_cxx12_Lock_policyE2EEED2Ev, %function
_ZNSaISt23_Sp_counted_ptr_inplaceI7MessageSaIS0_ELN9__gnu_cxx12_Lock_policyE2EEED2Ev:
.LFB5194:
	.cfi_startproc
	stp	x29, x30, [sp, -32]!
	.cfi_def_cfa_offset 32
	.cfi_offset 29, -32
	.cfi_offset 30, -24
	mov	x29, sp
	str	x0, [sp, 24]
	ldr	x0, [sp, 24]
	bl	_ZN9__gnu_cxx13new_allocatorISt23_Sp_counted_ptr_inplaceI7MessageSaIS2_ELNS_12_Lock_policyE2EEED2Ev
	nop
	ldp	x29, x30, [sp], 32
	.cfi_restore 30
	.cfi_restore 29
	.cfi_def_cfa_offset 0
	ret
	.cfi_endproc
.LFE5194:
	.size	_ZNSaISt23_Sp_counted_ptr_inplaceI7MessageSaIS0_ELN9__gnu_cxx12_Lock_policyE2EEED2Ev, .-_ZNSaISt23_Sp_counted_ptr_inplaceI7MessageSaIS0_ELN9__gnu_cxx12_Lock_policyE2EEED2Ev
	.weak	_ZNSaISt23_Sp_counted_ptr_inplaceI7MessageSaIS0_ELN9__gnu_cxx12_Lock_policyE2EEED1Ev
	.set	_ZNSaISt23_Sp_counted_ptr_inplaceI7MessageSaIS0_ELN9__gnu_cxx12_Lock_policyE2EEED1Ev,_ZNSaISt23_Sp_counted_ptr_inplaceI7MessageSaIS0_ELN9__gnu_cxx12_Lock_policyE2EEED2Ev
	.section	.text._ZSt18__allocate_guardedISaISt23_Sp_counted_ptr_inplaceI7MessageSaIS1_ELN9__gnu_cxx12_Lock_policyE2EEEESt15__allocated_ptrIT_ERS8_,"axG",@progbits,_ZSt18__allocate_guardedISaISt23_Sp_counted_ptr_inplaceI7MessageSaIS1_ELN9__gnu_cxx12_Lock_policyE2EEEESt15__allocated_ptrIT_ERS8_,comdat
	.align	2
	.weak	_ZSt18__allocate_guardedISaISt23_Sp_counted_ptr_inplaceI7MessageSaIS1_ELN9__gnu_cxx12_Lock_policyE2EEEESt15__allocated_ptrIT_ERS8_
	.type	_ZSt18__allocate_guardedISaISt23_Sp_counted_ptr_inplaceI7MessageSaIS1_ELN9__gnu_cxx12_Lock_policyE2EEEESt15__allocated_ptrIT_ERS8_, %function
_ZSt18__allocate_guardedISaISt23_Sp_counted_ptr_inplaceI7MessageSaIS1_ELN9__gnu_cxx12_Lock_policyE2EEEESt15__allocated_ptrIT_ERS8_:
.LFB5196:
	.cfi_startproc
	stp	x29, x30, [sp, -48]!
	.cfi_def_cfa_offset 48
	.cfi_offset 29, -48
	.cfi_offset 30, -40
	mov	x29, sp
	str	x19, [sp, 16]
	.cfi_offset 19, -32
	mov	x19, x8
	str	x0, [sp, 40]
	mov	x1, 1
	ldr	x0, [sp, 40]
	bl	_ZNSt16allocator_traitsISaISt23_Sp_counted_ptr_inplaceI7MessageSaIS1_ELN9__gnu_cxx12_Lock_policyE2EEEE8allocateERS6_m
	mov	x2, x0
	ldr	x1, [sp, 40]
	mov	x0, x19
	bl	_ZNSt15__allocated_ptrISaISt23_Sp_counted_ptr_inplaceI7MessageSaIS1_ELN9__gnu_cxx12_Lock_policyE2EEEEC1ERS6_PS5_
	mov	x0, x19
	ldr	x19, [sp, 16]
	ldp	x29, x30, [sp], 48
	.cfi_restore 30
	.cfi_restore 29
	.cfi_restore 19
	.cfi_def_cfa_offset 0
	ret
	.cfi_endproc
.LFE5196:
	.size	_ZSt18__allocate_guardedISaISt23_Sp_counted_ptr_inplaceI7MessageSaIS1_ELN9__gnu_cxx12_Lock_policyE2EEEESt15__allocated_ptrIT_ERS8_, .-_ZSt18__allocate_guardedISaISt23_Sp_counted_ptr_inplaceI7MessageSaIS1_ELN9__gnu_cxx12_Lock_policyE2EEEESt15__allocated_ptrIT_ERS8_
	.section	.text._ZNSt15__allocated_ptrISaISt23_Sp_counted_ptr_inplaceI7MessageSaIS1_ELN9__gnu_cxx12_Lock_policyE2EEEED2Ev,"axG",@progbits,_ZNSt15__allocated_ptrISaISt23_Sp_counted_ptr_inplaceI7MessageSaIS1_ELN9__gnu_cxx12_Lock_policyE2EEEED5Ev,comdat
	.align	2
	.weak	_ZNSt15__allocated_ptrISaISt23_Sp_counted_ptr_inplaceI7MessageSaIS1_ELN9__gnu_cxx12_Lock_policyE2EEEED2Ev
	.type	_ZNSt15__allocated_ptrISaISt23_Sp_counted_ptr_inplaceI7MessageSaIS1_ELN9__gnu_cxx12_Lock_policyE2EEEED2Ev, %function
_ZNSt15__allocated_ptrISaISt23_Sp_counted_ptr_inplaceI7MessageSaIS1_ELN9__gnu_cxx12_Lock_policyE2EEEED2Ev:
.LFB5198:
	.cfi_startproc
	.cfi_personality 0x9b,DW.ref.__gxx_personality_v0
	.cfi_lsda 0x1b,.LLSDA5198
	stp	x29, x30, [sp, -32]!
	.cfi_def_cfa_offset 32
	.cfi_offset 29, -32
	.cfi_offset 30, -24
	mov	x29, sp
	str	x0, [sp, 24]
	ldr	x0, [sp, 24]
	ldr	x0, [x0, 8]
	cmp	x0, 0
	beq	.L343
	ldr	x0, [sp, 24]
	ldr	x3, [x0]
	ldr	x0, [sp, 24]
	ldr	x0, [x0, 8]
	mov	x2, 1
	mov	x1, x0
	mov	x0, x3
	bl	_ZNSt16allocator_traitsISaISt23_Sp_counted_ptr_inplaceI7MessageSaIS1_ELN9__gnu_cxx12_Lock_policyE2EEEE10deallocateERS6_PS5_m
.L343:
	nop
	ldp	x29, x30, [sp], 32
	.cfi_restore 30
	.cfi_restore 29
	.cfi_def_cfa_offset 0
	ret
	.cfi_endproc
.LFE5198:
	.section	.gcc_except_table
.LLSDA5198:
	.byte	0xff
	.byte	0xff
	.byte	0x1
	.uleb128 .LLSDACSE5198-.LLSDACSB5198
.LLSDACSB5198:
.LLSDACSE5198:
	.section	.text._ZNSt15__allocated_ptrISaISt23_Sp_counted_ptr_inplaceI7MessageSaIS1_ELN9__gnu_cxx12_Lock_policyE2EEEED2Ev,"axG",@progbits,_ZNSt15__allocated_ptrISaISt23_Sp_counted_ptr_inplaceI7MessageSaIS1_ELN9__gnu_cxx12_Lock_policyE2EEEED5Ev,comdat
	.size	_ZNSt15__allocated_ptrISaISt23_Sp_counted_ptr_inplaceI7MessageSaIS1_ELN9__gnu_cxx12_Lock_policyE2EEEED2Ev, .-_ZNSt15__allocated_ptrISaISt23_Sp_counted_ptr_inplaceI7MessageSaIS1_ELN9__gnu_cxx12_Lock_policyE2EEEED2Ev
	.weak	_ZNSt15__allocated_ptrISaISt23_Sp_counted_ptr_inplaceI7MessageSaIS1_ELN9__gnu_cxx12_Lock_policyE2EEEED1Ev
	.set	_ZNSt15__allocated_ptrISaISt23_Sp_counted_ptr_inplaceI7MessageSaIS1_ELN9__gnu_cxx12_Lock_policyE2EEEED1Ev,_ZNSt15__allocated_ptrISaISt23_Sp_counted_ptr_inplaceI7MessageSaIS1_ELN9__gnu_cxx12_Lock_policyE2EEEED2Ev
	.section	.text._ZNSt15__allocated_ptrISaISt23_Sp_counted_ptr_inplaceI7MessageSaIS1_ELN9__gnu_cxx12_Lock_policyE2EEEE3getEv,"axG",@progbits,_ZNSt15__allocated_ptrISaISt23_Sp_counted_ptr_inplaceI7MessageSaIS1_ELN9__gnu_cxx12_Lock_policyE2EEEE3getEv,comdat
	.align	2
	.weak	_ZNSt15__allocated_ptrISaISt23_Sp_counted_ptr_inplaceI7MessageSaIS1_ELN9__gnu_cxx12_Lock_policyE2EEEE3getEv
	.type	_ZNSt15__allocated_ptrISaISt23_Sp_counted_ptr_inplaceI7MessageSaIS1_ELN9__gnu_cxx12_Lock_policyE2EEEE3getEv, %function
_ZNSt15__allocated_ptrISaISt23_Sp_counted_ptr_inplaceI7MessageSaIS1_ELN9__gnu_cxx12_Lock_policyE2EEEE3getEv:
.LFB5200:
	.cfi_startproc
	stp	x29, x30, [sp, -32]!
	.cfi_def_cfa_offset 32
	.cfi_offset 29, -32
	.cfi_offset 30, -24
	mov	x29, sp
	str	x0, [sp, 24]
	ldr	x0, [sp, 24]
	ldr	x0, [x0, 8]
	bl	_ZSt12__to_addressISt23_Sp_counted_ptr_inplaceI7MessageSaIS1_ELN9__gnu_cxx12_Lock_policyE2EEEPT_S7_
	ldp	x29, x30, [sp], 32
	.cfi_restore 30
	.cfi_restore 29
	.cfi_def_cfa_offset 0
	ret
	.cfi_endproc
.LFE5200:
	.size	_ZNSt15__allocated_ptrISaISt23_Sp_counted_ptr_inplaceI7MessageSaIS1_ELN9__gnu_cxx12_Lock_policyE2EEEE3getEv, .-_ZNSt15__allocated_ptrISaISt23_Sp_counted_ptr_inplaceI7MessageSaIS1_ELN9__gnu_cxx12_Lock_policyE2EEEE3getEv
	.section	.text._ZNSaI7MessageEC2ERKS0_,"axG",@progbits,_ZNSaI7MessageEC5ERKS0_,comdat
	.align	2
	.weak	_ZNSaI7MessageEC2ERKS0_
	.type	_ZNSaI7MessageEC2ERKS0_, %function
_ZNSaI7MessageEC2ERKS0_:
.LFB5202:
	.cfi_startproc
	stp	x29, x30, [sp, -32]!
	.cfi_def_cfa_offset 32
	.cfi_offset 29, -32
	.cfi_offset 30, -24
	mov	x29, sp
	str	x0, [sp, 24]
	str	x1, [sp, 16]
	ldr	x1, [sp, 16]
	ldr	x0, [sp, 24]
	bl	_ZN9__gnu_cxx13new_allocatorI7MessageEC2ERKS2_
	nop
	ldp	x29, x30, [sp], 32
	.cfi_restore 30
	.cfi_restore 29
	.cfi_def_cfa_offset 0
	ret
	.cfi_endproc
.LFE5202:
	.size	_ZNSaI7MessageEC2ERKS0_, .-_ZNSaI7MessageEC2ERKS0_
	.weak	_ZNSaI7MessageEC1ERKS0_
	.set	_ZNSaI7MessageEC1ERKS0_,_ZNSaI7MessageEC2ERKS0_
	.section	.text._ZNSt14_Sp_ebo_helperILi0ESaI7MessageELb1EED2Ev,"axG",@progbits,_ZNSt14_Sp_ebo_helperILi0ESaI7MessageELb1EED5Ev,comdat
	.align	2
	.weak	_ZNSt14_Sp_ebo_helperILi0ESaI7MessageELb1EED2Ev
	.type	_ZNSt14_Sp_ebo_helperILi0ESaI7MessageELb1EED2Ev, %function
_ZNSt14_Sp_ebo_helperILi0ESaI7MessageELb1EED2Ev:
.LFB5207:
	.cfi_startproc
	stp	x29, x30, [sp, -32]!
	.cfi_def_cfa_offset 32
	.cfi_offset 29, -32
	.cfi_offset 30, -24
	mov	x29, sp
	str	x0, [sp, 24]
	ldr	x0, [sp, 24]
	bl	_ZNSaI7MessageED2Ev
	nop
	ldp	x29, x30, [sp], 32
	.cfi_restore 30
	.cfi_restore 29
	.cfi_def_cfa_offset 0
	ret
	.cfi_endproc
.LFE5207:
	.size	_ZNSt14_Sp_ebo_helperILi0ESaI7MessageELb1EED2Ev, .-_ZNSt14_Sp_ebo_helperILi0ESaI7MessageELb1EED2Ev
	.weak	_ZNSt14_Sp_ebo_helperILi0ESaI7MessageELb1EED1Ev
	.set	_ZNSt14_Sp_ebo_helperILi0ESaI7MessageELb1EED1Ev,_ZNSt14_Sp_ebo_helperILi0ESaI7MessageELb1EED2Ev
	.section	.text._ZNSt23_Sp_counted_ptr_inplaceI7MessageSaIS0_ELN9__gnu_cxx12_Lock_policyE2EE5_ImplD2Ev,"axG",@progbits,_ZNSt23_Sp_counted_ptr_inplaceI7MessageSaIS0_ELN9__gnu_cxx12_Lock_policyE2EE5_ImplD5Ev,comdat
	.align	2
	.weak	_ZNSt23_Sp_counted_ptr_inplaceI7MessageSaIS0_ELN9__gnu_cxx12_Lock_policyE2EE5_ImplD2Ev
	.type	_ZNSt23_Sp_counted_ptr_inplaceI7MessageSaIS0_ELN9__gnu_cxx12_Lock_policyE2EE5_ImplD2Ev, %function
_ZNSt23_Sp_counted_ptr_inplaceI7MessageSaIS0_ELN9__gnu_cxx12_Lock_policyE2EE5_ImplD2Ev:
.LFB5209:
	.cfi_startproc
	stp	x29, x30, [sp, -32]!
	.cfi_def_cfa_offset 32
	.cfi_offset 29, -32
	.cfi_offset 30, -24
	mov	x29, sp
	str	x0, [sp, 24]
	ldr	x0, [sp, 24]
	bl	_ZNSt14_Sp_ebo_helperILi0ESaI7MessageELb1EED2Ev
	nop
	ldp	x29, x30, [sp], 32
	.cfi_restore 30
	.cfi_restore 29
	.cfi_def_cfa_offset 0
	ret
	.cfi_endproc
.LFE5209:
	.size	_ZNSt23_Sp_counted_ptr_inplaceI7MessageSaIS0_ELN9__gnu_cxx12_Lock_policyE2EE5_ImplD2Ev, .-_ZNSt23_Sp_counted_ptr_inplaceI7MessageSaIS0_ELN9__gnu_cxx12_Lock_policyE2EE5_ImplD2Ev
	.weak	_ZNSt23_Sp_counted_ptr_inplaceI7MessageSaIS0_ELN9__gnu_cxx12_Lock_policyE2EE5_ImplD1Ev
	.set	_ZNSt23_Sp_counted_ptr_inplaceI7MessageSaIS0_ELN9__gnu_cxx12_Lock_policyE2EE5_ImplD1Ev,_ZNSt23_Sp_counted_ptr_inplaceI7MessageSaIS0_ELN9__gnu_cxx12_Lock_policyE2EE5_ImplD2Ev
	.section	.text._ZNSt23_Sp_counted_ptr_inplaceI7MessageSaIS0_ELN9__gnu_cxx12_Lock_policyE2EEC2IJiEEES1_DpOT_,"axG",@progbits,_ZNSt23_Sp_counted_ptr_inplaceI7MessageSaIS0_ELN9__gnu_cxx12_Lock_policyE2EEC5IJiEEES1_DpOT_,comdat
	.align	2
	.weak	_ZNSt23_Sp_counted_ptr_inplaceI7MessageSaIS0_ELN9__gnu_cxx12_Lock_policyE2EEC2IJiEEES1_DpOT_
	.type	_ZNSt23_Sp_counted_ptr_inplaceI7MessageSaIS0_ELN9__gnu_cxx12_Lock_policyE2EEC2IJiEEES1_DpOT_, %function
_ZNSt23_Sp_counted_ptr_inplaceI7MessageSaIS0_ELN9__gnu_cxx12_Lock_policyE2EEC2IJiEEES1_DpOT_:
.LFB5212:
	.cfi_startproc
	.cfi_personality 0x9b,DW.ref.__gxx_personality_v0
	.cfi_lsda 0x1b,.LLSDA5212
	stp	x29, x30, [sp, -80]!
	.cfi_def_cfa_offset 80
	.cfi_offset 29, -80
	.cfi_offset 30, -72
	mov	x29, sp
	str	x19, [sp, 16]
	.cfi_offset 19, -64
	str	x0, [sp, 56]
	str	x1, [sp, 48]
	str	x2, [sp, 40]
	adrp	x0, :got:__stack_chk_guard
	ldr	x0, [x0, #:got_lo12:__stack_chk_guard]
	ldr	x1, [x0]
	str	x1, [sp, 72]
	mov	x1, 0
	ldr	x0, [sp, 56]
	bl	_ZNSt16_Sp_counted_baseILN9__gnu_cxx12_Lock_policyE2EEC2Ev
	adrp	x0, _ZTVSt23_Sp_counted_ptr_inplaceI7MessageSaIS0_ELN9__gnu_cxx12_Lock_policyE2EE+16
	add	x1, x0, :lo12:_ZTVSt23_Sp_counted_ptr_inplaceI7MessageSaIS0_ELN9__gnu_cxx12_Lock_policyE2EE+16
	ldr	x0, [sp, 56]
	str	x1, [x0]
	ldr	x0, [sp, 56]
	add	x19, x0, 16
	add	x0, sp, 64
	ldr	x1, [sp, 48]
	bl	_ZNSaI7MessageEC1ERKS0_
	add	x0, sp, 64
	mov	x1, x0
	mov	x0, x19
	bl	_ZNSt23_Sp_counted_ptr_inplaceI7MessageSaIS0_ELN9__gnu_cxx12_Lock_policyE2EE5_ImplC1ES1_
	add	x0, sp, 64
	bl	_ZNSaI7MessageED1Ev
	ldr	x0, [sp, 56]
	bl	_ZNSt23_Sp_counted_ptr_inplaceI7MessageSaIS0_ELN9__gnu_cxx12_Lock_policyE2EE6_M_ptrEv
	mov	x19, x0
	ldr	x0, [sp, 40]
	bl	_ZSt7forwardIiEOT_RNSt16remove_referenceIS0_E4typeE
	mov	x2, x0
	mov	x1, x19
	ldr	x0, [sp, 48]
.LEHB35:
	bl	_ZNSt16allocator_traitsISaI7MessageEE9constructIS0_JiEEEvRS1_PT_DpOT0_
.LEHE35:
	b	.L353
.L352:
	mov	x19, x0
	ldr	x0, [sp, 56]
	add	x0, x0, 16
	bl	_ZNSt23_Sp_counted_ptr_inplaceI7MessageSaIS0_ELN9__gnu_cxx12_Lock_policyE2EE5_ImplD1Ev
	ldr	x0, [sp, 56]
	bl	_ZNSt16_Sp_counted_baseILN9__gnu_cxx12_Lock_policyE2EED2Ev
	mov	x0, x19
.LEHB36:
	bl	_Unwind_Resume
.LEHE36:
.L353:
	adrp	x0, :got:__stack_chk_guard
	ldr	x0, [x0, #:got_lo12:__stack_chk_guard]
	ldr	x2, [sp, 72]
	ldr	x1, [x0]
	subs	x2, x2, x1
	mov	x1, 0
	beq	.L351
	bl	__stack_chk_fail
.L351:
	ldr	x19, [sp, 16]
	ldp	x29, x30, [sp], 80
	.cfi_restore 30
	.cfi_restore 29
	.cfi_restore 19
	.cfi_def_cfa_offset 0
	ret
	.cfi_endproc
.LFE5212:
	.section	.gcc_except_table
.LLSDA5212:
	.byte	0xff
	.byte	0xff
	.byte	0x1
	.uleb128 .LLSDACSE5212-.LLSDACSB5212
.LLSDACSB5212:
	.uleb128 .LEHB35-.LFB5212
	.uleb128 .LEHE35-.LEHB35
	.uleb128 .L352-.LFB5212
	.uleb128 0
	.uleb128 .LEHB36-.LFB5212
	.uleb128 .LEHE36-.LEHB36
	.uleb128 0
	.uleb128 0
.LLSDACSE5212:
	.section	.text._ZNSt23_Sp_counted_ptr_inplaceI7MessageSaIS0_ELN9__gnu_cxx12_Lock_policyE2EEC2IJiEEES1_DpOT_,"axG",@progbits,_ZNSt23_Sp_counted_ptr_inplaceI7MessageSaIS0_ELN9__gnu_cxx12_Lock_policyE2EEC5IJiEEES1_DpOT_,comdat
	.size	_ZNSt23_Sp_counted_ptr_inplaceI7MessageSaIS0_ELN9__gnu_cxx12_Lock_policyE2EEC2IJiEEES1_DpOT_, .-_ZNSt23_Sp_counted_ptr_inplaceI7MessageSaIS0_ELN9__gnu_cxx12_Lock_policyE2EEC2IJiEEES1_DpOT_
	.weak	_ZNSt23_Sp_counted_ptr_inplaceI7MessageSaIS0_ELN9__gnu_cxx12_Lock_policyE2EEC1IJiEEES1_DpOT_
	.set	_ZNSt23_Sp_counted_ptr_inplaceI7MessageSaIS0_ELN9__gnu_cxx12_Lock_policyE2EEC1IJiEEES1_DpOT_,_ZNSt23_Sp_counted_ptr_inplaceI7MessageSaIS0_ELN9__gnu_cxx12_Lock_policyE2EEC2IJiEEES1_DpOT_
	.section	.text._ZNSt15__allocated_ptrISaISt23_Sp_counted_ptr_inplaceI7MessageSaIS1_ELN9__gnu_cxx12_Lock_policyE2EEEEaSEDn,"axG",@progbits,_ZNSt15__allocated_ptrISaISt23_Sp_counted_ptr_inplaceI7MessageSaIS1_ELN9__gnu_cxx12_Lock_policyE2EEEEaSEDn,comdat
	.align	2
	.weak	_ZNSt15__allocated_ptrISaISt23_Sp_counted_ptr_inplaceI7MessageSaIS1_ELN9__gnu_cxx12_Lock_policyE2EEEEaSEDn
	.type	_ZNSt15__allocated_ptrISaISt23_Sp_counted_ptr_inplaceI7MessageSaIS1_ELN9__gnu_cxx12_Lock_policyE2EEEEaSEDn, %function
_ZNSt15__allocated_ptrISaISt23_Sp_counted_ptr_inplaceI7MessageSaIS1_ELN9__gnu_cxx12_Lock_policyE2EEEEaSEDn:
.LFB5214:
	.cfi_startproc
	sub	sp, sp, #16
	.cfi_def_cfa_offset 16
	str	x0, [sp, 8]
	str	x1, [sp]
	ldr	x0, [sp, 8]
	str	xzr, [x0, 8]
	ldr	x0, [sp, 8]
	add	sp, sp, 16
	.cfi_def_cfa_offset 0
	ret
	.cfi_endproc
.LFE5214:
	.size	_ZNSt15__allocated_ptrISaISt23_Sp_counted_ptr_inplaceI7MessageSaIS1_ELN9__gnu_cxx12_Lock_policyE2EEEEaSEDn, .-_ZNSt15__allocated_ptrISaISt23_Sp_counted_ptr_inplaceI7MessageSaIS1_ELN9__gnu_cxx12_Lock_policyE2EEEEaSEDn
	.section	.text._ZNSt23_Sp_counted_ptr_inplaceI7MessageSaIS0_ELN9__gnu_cxx12_Lock_policyE2EE6_M_ptrEv,"axG",@progbits,_ZNSt23_Sp_counted_ptr_inplaceI7MessageSaIS0_ELN9__gnu_cxx12_Lock_policyE2EE6_M_ptrEv,comdat
	.align	2
	.weak	_ZNSt23_Sp_counted_ptr_inplaceI7MessageSaIS0_ELN9__gnu_cxx12_Lock_policyE2EE6_M_ptrEv
	.type	_ZNSt23_Sp_counted_ptr_inplaceI7MessageSaIS0_ELN9__gnu_cxx12_Lock_policyE2EE6_M_ptrEv, %function
_ZNSt23_Sp_counted_ptr_inplaceI7MessageSaIS0_ELN9__gnu_cxx12_Lock_policyE2EE6_M_ptrEv:
.LFB5215:
	.cfi_startproc
	stp	x29, x30, [sp, -32]!
	.cfi_def_cfa_offset 32
	.cfi_offset 29, -32
	.cfi_offset 30, -24
	mov	x29, sp
	str	x0, [sp, 24]
	ldr	x0, [sp, 24]
	add	x0, x0, 16
	bl	_ZN9__gnu_cxx16__aligned_bufferI7MessageE6_M_ptrEv
	ldp	x29, x30, [sp], 32
	.cfi_restore 30
	.cfi_restore 29
	.cfi_def_cfa_offset 0
	ret
	.cfi_endproc
.LFE5215:
	.size	_ZNSt23_Sp_counted_ptr_inplaceI7MessageSaIS0_ELN9__gnu_cxx12_Lock_policyE2EE6_M_ptrEv, .-_ZNSt23_Sp_counted_ptr_inplaceI7MessageSaIS0_ELN9__gnu_cxx12_Lock_policyE2EE6_M_ptrEv
	.section	.text._ZSt30__enable_shared_from_this_baseRKSt14__shared_countILN9__gnu_cxx12_Lock_policyE2EEPKSt23enable_shared_from_thisI7MessageE,"axG",@progbits,_ZSt30__enable_shared_from_this_baseRKSt14__shared_countILN9__gnu_cxx12_Lock_policyE2EEPKSt23enable_shared_from_thisI7MessageE,comdat
	.align	2
	.weak	_ZSt30__enable_shared_from_this_baseRKSt14__shared_countILN9__gnu_cxx12_Lock_policyE2EEPKSt23enable_shared_from_thisI7MessageE
	.type	_ZSt30__enable_shared_from_this_baseRKSt14__shared_countILN9__gnu_cxx12_Lock_policyE2EEPKSt23enable_shared_from_thisI7MessageE, %function
_ZSt30__enable_shared_from_this_baseRKSt14__shared_countILN9__gnu_cxx12_Lock_policyE2EEPKSt23enable_shared_from_thisI7MessageE:
.LFB5216:
	.cfi_startproc
	sub	sp, sp, #16
	.cfi_def_cfa_offset 16
	str	x0, [sp, 8]
	str	x1, [sp]
	ldr	x0, [sp]
	add	sp, sp, 16
	.cfi_def_cfa_offset 0
	ret
	.cfi_endproc
.LFE5216:
	.size	_ZSt30__enable_shared_from_this_baseRKSt14__shared_countILN9__gnu_cxx12_Lock_policyE2EEPKSt23enable_shared_from_thisI7MessageE, .-_ZSt30__enable_shared_from_this_baseRKSt14__shared_countILN9__gnu_cxx12_Lock_policyE2EEPKSt23enable_shared_from_thisI7MessageE
	.section	.text._ZNKSt23enable_shared_from_thisI7MessageE14_M_weak_assignIS0_EEvPT_RKSt14__shared_countILN9__gnu_cxx12_Lock_policyE2EE,"axG",@progbits,_ZNKSt23enable_shared_from_thisI7MessageE14_M_weak_assignIS0_EEvPT_RKSt14__shared_countILN9__gnu_cxx12_Lock_policyE2EE,comdat
	.align	2
	.weak	_ZNKSt23enable_shared_from_thisI7MessageE14_M_weak_assignIS0_EEvPT_RKSt14__shared_countILN9__gnu_cxx12_Lock_policyE2EE
	.type	_ZNKSt23enable_shared_from_thisI7MessageE14_M_weak_assignIS0_EEvPT_RKSt14__shared_countILN9__gnu_cxx12_Lock_policyE2EE, %function
_ZNKSt23enable_shared_from_thisI7MessageE14_M_weak_assignIS0_EEvPT_RKSt14__shared_countILN9__gnu_cxx12_Lock_policyE2EE:
.LFB5217:
	.cfi_startproc
	stp	x29, x30, [sp, -48]!
	.cfi_def_cfa_offset 48
	.cfi_offset 29, -48
	.cfi_offset 30, -40
	mov	x29, sp
	str	x0, [sp, 40]
	str	x1, [sp, 32]
	str	x2, [sp, 24]
	ldr	x0, [sp, 40]
	ldr	x2, [sp, 24]
	ldr	x1, [sp, 32]
	bl	_ZNSt10__weak_ptrI7MessageLN9__gnu_cxx12_Lock_policyE2EE9_M_assignEPS0_RKSt14__shared_countILS2_2EE
	nop
	ldp	x29, x30, [sp], 48
	.cfi_restore 30
	.cfi_restore 29
	.cfi_def_cfa_offset 0
	ret
	.cfi_endproc
.LFE5217:
	.size	_ZNKSt23enable_shared_from_thisI7MessageE14_M_weak_assignIS0_EEvPT_RKSt14__shared_countILN9__gnu_cxx12_Lock_policyE2EE, .-_ZNKSt23enable_shared_from_thisI7MessageE14_M_weak_assignIS0_EEvPT_RKSt14__shared_countILN9__gnu_cxx12_Lock_policyE2EE
	.section	.text._ZNSaISt23_Sp_counted_ptr_inplaceI9FdHandlerSaIS0_ELN9__gnu_cxx12_Lock_policyE2EEEC2IS0_EERKSaIT_E,"axG",@progbits,_ZNSaISt23_Sp_counted_ptr_inplaceI9FdHandlerSaIS0_ELN9__gnu_cxx12_Lock_policyE2EEEC5IS0_EERKSaIT_E,comdat
	.align	2
	.weak	_ZNSaISt23_Sp_counted_ptr_inplaceI9FdHandlerSaIS0_ELN9__gnu_cxx12_Lock_policyE2EEEC2IS0_EERKSaIT_E
	.type	_ZNSaISt23_Sp_counted_ptr_inplaceI9FdHandlerSaIS0_ELN9__gnu_cxx12_Lock_policyE2EEEC2IS0_EERKSaIT_E, %function
_ZNSaISt23_Sp_counted_ptr_inplaceI9FdHandlerSaIS0_ELN9__gnu_cxx12_Lock_policyE2EEEC2IS0_EERKSaIT_E:
.LFB5219:
	.cfi_startproc
	stp	x29, x30, [sp, -32]!
	.cfi_def_cfa_offset 32
	.cfi_offset 29, -32
	.cfi_offset 30, -24
	mov	x29, sp
	str	x0, [sp, 24]
	str	x1, [sp, 16]
	ldr	x0, [sp, 24]
	bl	_ZN9__gnu_cxx13new_allocatorISt23_Sp_counted_ptr_inplaceI9FdHandlerSaIS2_ELNS_12_Lock_policyE2EEEC2Ev
	nop
	ldp	x29, x30, [sp], 32
	.cfi_restore 30
	.cfi_restore 29
	.cfi_def_cfa_offset 0
	ret
	.cfi_endproc
.LFE5219:
	.size	_ZNSaISt23_Sp_counted_ptr_inplaceI9FdHandlerSaIS0_ELN9__gnu_cxx12_Lock_policyE2EEEC2IS0_EERKSaIT_E, .-_ZNSaISt23_Sp_counted_ptr_inplaceI9FdHandlerSaIS0_ELN9__gnu_cxx12_Lock_policyE2EEEC2IS0_EERKSaIT_E
	.weak	_ZNSaISt23_Sp_counted_ptr_inplaceI9FdHandlerSaIS0_ELN9__gnu_cxx12_Lock_policyE2EEEC1IS0_EERKSaIT_E
	.set	_ZNSaISt23_Sp_counted_ptr_inplaceI9FdHandlerSaIS0_ELN9__gnu_cxx12_Lock_policyE2EEEC1IS0_EERKSaIT_E,_ZNSaISt23_Sp_counted_ptr_inplaceI9FdHandlerSaIS0_ELN9__gnu_cxx12_Lock_policyE2EEEC2IS0_EERKSaIT_E
	.section	.text._ZNSaISt23_Sp_counted_ptr_inplaceI9FdHandlerSaIS0_ELN9__gnu_cxx12_Lock_policyE2EEED2Ev,"axG",@progbits,_ZNSaISt23_Sp_counted_ptr_inplaceI9FdHandlerSaIS0_ELN9__gnu_cxx12_Lock_policyE2EEED5Ev,comdat
	.align	2
	.weak	_ZNSaISt23_Sp_counted_ptr_inplaceI9FdHandlerSaIS0_ELN9__gnu_cxx12_Lock_policyE2EEED2Ev
	.type	_ZNSaISt23_Sp_counted_ptr_inplaceI9FdHandlerSaIS0_ELN9__gnu_cxx12_Lock_policyE2EEED2Ev, %function
_ZNSaISt23_Sp_counted_ptr_inplaceI9FdHandlerSaIS0_ELN9__gnu_cxx12_Lock_policyE2EEED2Ev:
.LFB5222:
	.cfi_startproc
	stp	x29, x30, [sp, -32]!
	.cfi_def_cfa_offset 32
	.cfi_offset 29, -32
	.cfi_offset 30, -24
	mov	x29, sp
	str	x0, [sp, 24]
	ldr	x0, [sp, 24]
	bl	_ZN9__gnu_cxx13new_allocatorISt23_Sp_counted_ptr_inplaceI9FdHandlerSaIS2_ELNS_12_Lock_policyE2EEED2Ev
	nop
	ldp	x29, x30, [sp], 32
	.cfi_restore 30
	.cfi_restore 29
	.cfi_def_cfa_offset 0
	ret
	.cfi_endproc
.LFE5222:
	.size	_ZNSaISt23_Sp_counted_ptr_inplaceI9FdHandlerSaIS0_ELN9__gnu_cxx12_Lock_policyE2EEED2Ev, .-_ZNSaISt23_Sp_counted_ptr_inplaceI9FdHandlerSaIS0_ELN9__gnu_cxx12_Lock_policyE2EEED2Ev
	.weak	_ZNSaISt23_Sp_counted_ptr_inplaceI9FdHandlerSaIS0_ELN9__gnu_cxx12_Lock_policyE2EEED1Ev
	.set	_ZNSaISt23_Sp_counted_ptr_inplaceI9FdHandlerSaIS0_ELN9__gnu_cxx12_Lock_policyE2EEED1Ev,_ZNSaISt23_Sp_counted_ptr_inplaceI9FdHandlerSaIS0_ELN9__gnu_cxx12_Lock_policyE2EEED2Ev
	.section	.text._ZSt18__allocate_guardedISaISt23_Sp_counted_ptr_inplaceI9FdHandlerSaIS1_ELN9__gnu_cxx12_Lock_policyE2EEEESt15__allocated_ptrIT_ERS8_,"axG",@progbits,_ZSt18__allocate_guardedISaISt23_Sp_counted_ptr_inplaceI9FdHandlerSaIS1_ELN9__gnu_cxx12_Lock_policyE2EEEESt15__allocated_ptrIT_ERS8_,comdat
	.align	2
	.weak	_ZSt18__allocate_guardedISaISt23_Sp_counted_ptr_inplaceI9FdHandlerSaIS1_ELN9__gnu_cxx12_Lock_policyE2EEEESt15__allocated_ptrIT_ERS8_
	.type	_ZSt18__allocate_guardedISaISt23_Sp_counted_ptr_inplaceI9FdHandlerSaIS1_ELN9__gnu_cxx12_Lock_policyE2EEEESt15__allocated_ptrIT_ERS8_, %function
_ZSt18__allocate_guardedISaISt23_Sp_counted_ptr_inplaceI9FdHandlerSaIS1_ELN9__gnu_cxx12_Lock_policyE2EEEESt15__allocated_ptrIT_ERS8_:
.LFB5224:
	.cfi_startproc
	stp	x29, x30, [sp, -48]!
	.cfi_def_cfa_offset 48
	.cfi_offset 29, -48
	.cfi_offset 30, -40
	mov	x29, sp
	str	x19, [sp, 16]
	.cfi_offset 19, -32
	mov	x19, x8
	str	x0, [sp, 40]
	mov	x1, 1
	ldr	x0, [sp, 40]
	bl	_ZNSt16allocator_traitsISaISt23_Sp_counted_ptr_inplaceI9FdHandlerSaIS1_ELN9__gnu_cxx12_Lock_policyE2EEEE8allocateERS6_m
	mov	x2, x0
	ldr	x1, [sp, 40]
	mov	x0, x19
	bl	_ZNSt15__allocated_ptrISaISt23_Sp_counted_ptr_inplaceI9FdHandlerSaIS1_ELN9__gnu_cxx12_Lock_policyE2EEEEC1ERS6_PS5_
	mov	x0, x19
	ldr	x19, [sp, 16]
	ldp	x29, x30, [sp], 48
	.cfi_restore 30
	.cfi_restore 29
	.cfi_restore 19
	.cfi_def_cfa_offset 0
	ret
	.cfi_endproc
.LFE5224:
	.size	_ZSt18__allocate_guardedISaISt23_Sp_counted_ptr_inplaceI9FdHandlerSaIS1_ELN9__gnu_cxx12_Lock_policyE2EEEESt15__allocated_ptrIT_ERS8_, .-_ZSt18__allocate_guardedISaISt23_Sp_counted_ptr_inplaceI9FdHandlerSaIS1_ELN9__gnu_cxx12_Lock_policyE2EEEESt15__allocated_ptrIT_ERS8_
	.section	.text._ZNSt15__allocated_ptrISaISt23_Sp_counted_ptr_inplaceI9FdHandlerSaIS1_ELN9__gnu_cxx12_Lock_policyE2EEEED2Ev,"axG",@progbits,_ZNSt15__allocated_ptrISaISt23_Sp_counted_ptr_inplaceI9FdHandlerSaIS1_ELN9__gnu_cxx12_Lock_policyE2EEEED5Ev,comdat
	.align	2
	.weak	_ZNSt15__allocated_ptrISaISt23_Sp_counted_ptr_inplaceI9FdHandlerSaIS1_ELN9__gnu_cxx12_Lock_policyE2EEEED2Ev
	.type	_ZNSt15__allocated_ptrISaISt23_Sp_counted_ptr_inplaceI9FdHandlerSaIS1_ELN9__gnu_cxx12_Lock_policyE2EEEED2Ev, %function
_ZNSt15__allocated_ptrISaISt23_Sp_counted_ptr_inplaceI9FdHandlerSaIS1_ELN9__gnu_cxx12_Lock_policyE2EEEED2Ev:
.LFB5226:
	.cfi_startproc
	.cfi_personality 0x9b,DW.ref.__gxx_personality_v0
	.cfi_lsda 0x1b,.LLSDA5226
	stp	x29, x30, [sp, -32]!
	.cfi_def_cfa_offset 32
	.cfi_offset 29, -32
	.cfi_offset 30, -24
	mov	x29, sp
	str	x0, [sp, 24]
	ldr	x0, [sp, 24]
	ldr	x0, [x0, 8]
	cmp	x0, 0
	beq	.L367
	ldr	x0, [sp, 24]
	ldr	x3, [x0]
	ldr	x0, [sp, 24]
	ldr	x0, [x0, 8]
	mov	x2, 1
	mov	x1, x0
	mov	x0, x3
	bl	_ZNSt16allocator_traitsISaISt23_Sp_counted_ptr_inplaceI9FdHandlerSaIS1_ELN9__gnu_cxx12_Lock_policyE2EEEE10deallocateERS6_PS5_m
.L367:
	nop
	ldp	x29, x30, [sp], 32
	.cfi_restore 30
	.cfi_restore 29
	.cfi_def_cfa_offset 0
	ret
	.cfi_endproc
.LFE5226:
	.section	.gcc_except_table
.LLSDA5226:
	.byte	0xff
	.byte	0xff
	.byte	0x1
	.uleb128 .LLSDACSE5226-.LLSDACSB5226
.LLSDACSB5226:
.LLSDACSE5226:
	.section	.text._ZNSt15__allocated_ptrISaISt23_Sp_counted_ptr_inplaceI9FdHandlerSaIS1_ELN9__gnu_cxx12_Lock_policyE2EEEED2Ev,"axG",@progbits,_ZNSt15__allocated_ptrISaISt23_Sp_counted_ptr_inplaceI9FdHandlerSaIS1_ELN9__gnu_cxx12_Lock_policyE2EEEED5Ev,comdat
	.size	_ZNSt15__allocated_ptrISaISt23_Sp_counted_ptr_inplaceI9FdHandlerSaIS1_ELN9__gnu_cxx12_Lock_policyE2EEEED2Ev, .-_ZNSt15__allocated_ptrISaISt23_Sp_counted_ptr_inplaceI9FdHandlerSaIS1_ELN9__gnu_cxx12_Lock_policyE2EEEED2Ev
	.weak	_ZNSt15__allocated_ptrISaISt23_Sp_counted_ptr_inplaceI9FdHandlerSaIS1_ELN9__gnu_cxx12_Lock_policyE2EEEED1Ev
	.set	_ZNSt15__allocated_ptrISaISt23_Sp_counted_ptr_inplaceI9FdHandlerSaIS1_ELN9__gnu_cxx12_Lock_policyE2EEEED1Ev,_ZNSt15__allocated_ptrISaISt23_Sp_counted_ptr_inplaceI9FdHandlerSaIS1_ELN9__gnu_cxx12_Lock_policyE2EEEED2Ev
	.section	.text._ZNSt15__allocated_ptrISaISt23_Sp_counted_ptr_inplaceI9FdHandlerSaIS1_ELN9__gnu_cxx12_Lock_policyE2EEEE3getEv,"axG",@progbits,_ZNSt15__allocated_ptrISaISt23_Sp_counted_ptr_inplaceI9FdHandlerSaIS1_ELN9__gnu_cxx12_Lock_policyE2EEEE3getEv,comdat
	.align	2
	.weak	_ZNSt15__allocated_ptrISaISt23_Sp_counted_ptr_inplaceI9FdHandlerSaIS1_ELN9__gnu_cxx12_Lock_policyE2EEEE3getEv
	.type	_ZNSt15__allocated_ptrISaISt23_Sp_counted_ptr_inplaceI9FdHandlerSaIS1_ELN9__gnu_cxx12_Lock_policyE2EEEE3getEv, %function
_ZNSt15__allocated_ptrISaISt23_Sp_counted_ptr_inplaceI9FdHandlerSaIS1_ELN9__gnu_cxx12_Lock_policyE2EEEE3getEv:
.LFB5228:
	.cfi_startproc
	stp	x29, x30, [sp, -32]!
	.cfi_def_cfa_offset 32
	.cfi_offset 29, -32
	.cfi_offset 30, -24
	mov	x29, sp
	str	x0, [sp, 24]
	ldr	x0, [sp, 24]
	ldr	x0, [x0, 8]
	bl	_ZSt12__to_addressISt23_Sp_counted_ptr_inplaceI9FdHandlerSaIS1_ELN9__gnu_cxx12_Lock_policyE2EEEPT_S7_
	ldp	x29, x30, [sp], 32
	.cfi_restore 30
	.cfi_restore 29
	.cfi_def_cfa_offset 0
	ret
	.cfi_endproc
.LFE5228:
	.size	_ZNSt15__allocated_ptrISaISt23_Sp_counted_ptr_inplaceI9FdHandlerSaIS1_ELN9__gnu_cxx12_Lock_policyE2EEEE3getEv, .-_ZNSt15__allocated_ptrISaISt23_Sp_counted_ptr_inplaceI9FdHandlerSaIS1_ELN9__gnu_cxx12_Lock_policyE2EEEE3getEv
	.section	.text._ZNSaI9FdHandlerEC2ERKS0_,"axG",@progbits,_ZNSaI9FdHandlerEC5ERKS0_,comdat
	.align	2
	.weak	_ZNSaI9FdHandlerEC2ERKS0_
	.type	_ZNSaI9FdHandlerEC2ERKS0_, %function
_ZNSaI9FdHandlerEC2ERKS0_:
.LFB5230:
	.cfi_startproc
	stp	x29, x30, [sp, -32]!
	.cfi_def_cfa_offset 32
	.cfi_offset 29, -32
	.cfi_offset 30, -24
	mov	x29, sp
	str	x0, [sp, 24]
	str	x1, [sp, 16]
	ldr	x1, [sp, 16]
	ldr	x0, [sp, 24]
	bl	_ZN9__gnu_cxx13new_allocatorI9FdHandlerEC2ERKS2_
	nop
	ldp	x29, x30, [sp], 32
	.cfi_restore 30
	.cfi_restore 29
	.cfi_def_cfa_offset 0
	ret
	.cfi_endproc
.LFE5230:
	.size	_ZNSaI9FdHandlerEC2ERKS0_, .-_ZNSaI9FdHandlerEC2ERKS0_
	.weak	_ZNSaI9FdHandlerEC1ERKS0_
	.set	_ZNSaI9FdHandlerEC1ERKS0_,_ZNSaI9FdHandlerEC2ERKS0_
	.section	.text._ZNSt14_Sp_ebo_helperILi0ESaI9FdHandlerELb1EED2Ev,"axG",@progbits,_ZNSt14_Sp_ebo_helperILi0ESaI9FdHandlerELb1EED5Ev,comdat
	.align	2
	.weak	_ZNSt14_Sp_ebo_helperILi0ESaI9FdHandlerELb1EED2Ev
	.type	_ZNSt14_Sp_ebo_helperILi0ESaI9FdHandlerELb1EED2Ev, %function
_ZNSt14_Sp_ebo_helperILi0ESaI9FdHandlerELb1EED2Ev:
.LFB5235:
	.cfi_startproc
	stp	x29, x30, [sp, -32]!
	.cfi_def_cfa_offset 32
	.cfi_offset 29, -32
	.cfi_offset 30, -24
	mov	x29, sp
	str	x0, [sp, 24]
	ldr	x0, [sp, 24]
	bl	_ZNSaI9FdHandlerED2Ev
	nop
	ldp	x29, x30, [sp], 32
	.cfi_restore 30
	.cfi_restore 29
	.cfi_def_cfa_offset 0
	ret
	.cfi_endproc
.LFE5235:
	.size	_ZNSt14_Sp_ebo_helperILi0ESaI9FdHandlerELb1EED2Ev, .-_ZNSt14_Sp_ebo_helperILi0ESaI9FdHandlerELb1EED2Ev
	.weak	_ZNSt14_Sp_ebo_helperILi0ESaI9FdHandlerELb1EED1Ev
	.set	_ZNSt14_Sp_ebo_helperILi0ESaI9FdHandlerELb1EED1Ev,_ZNSt14_Sp_ebo_helperILi0ESaI9FdHandlerELb1EED2Ev
	.section	.text._ZNSt23_Sp_counted_ptr_inplaceI9FdHandlerSaIS0_ELN9__gnu_cxx12_Lock_policyE2EE5_ImplD2Ev,"axG",@progbits,_ZNSt23_Sp_counted_ptr_inplaceI9FdHandlerSaIS0_ELN9__gnu_cxx12_Lock_policyE2EE5_ImplD5Ev,comdat
	.align	2
	.weak	_ZNSt23_Sp_counted_ptr_inplaceI9FdHandlerSaIS0_ELN9__gnu_cxx12_Lock_policyE2EE5_ImplD2Ev
	.type	_ZNSt23_Sp_counted_ptr_inplaceI9FdHandlerSaIS0_ELN9__gnu_cxx12_Lock_policyE2EE5_ImplD2Ev, %function
_ZNSt23_Sp_counted_ptr_inplaceI9FdHandlerSaIS0_ELN9__gnu_cxx12_Lock_policyE2EE5_ImplD2Ev:
.LFB5237:
	.cfi_startproc
	stp	x29, x30, [sp, -32]!
	.cfi_def_cfa_offset 32
	.cfi_offset 29, -32
	.cfi_offset 30, -24
	mov	x29, sp
	str	x0, [sp, 24]
	ldr	x0, [sp, 24]
	bl	_ZNSt14_Sp_ebo_helperILi0ESaI9FdHandlerELb1EED2Ev
	nop
	ldp	x29, x30, [sp], 32
	.cfi_restore 30
	.cfi_restore 29
	.cfi_def_cfa_offset 0
	ret
	.cfi_endproc
.LFE5237:
	.size	_ZNSt23_Sp_counted_ptr_inplaceI9FdHandlerSaIS0_ELN9__gnu_cxx12_Lock_policyE2EE5_ImplD2Ev, .-_ZNSt23_Sp_counted_ptr_inplaceI9FdHandlerSaIS0_ELN9__gnu_cxx12_Lock_policyE2EE5_ImplD2Ev
	.weak	_ZNSt23_Sp_counted_ptr_inplaceI9FdHandlerSaIS0_ELN9__gnu_cxx12_Lock_policyE2EE5_ImplD1Ev
	.set	_ZNSt23_Sp_counted_ptr_inplaceI9FdHandlerSaIS0_ELN9__gnu_cxx12_Lock_policyE2EE5_ImplD1Ev,_ZNSt23_Sp_counted_ptr_inplaceI9FdHandlerSaIS0_ELN9__gnu_cxx12_Lock_policyE2EE5_ImplD2Ev
	.section	.text._ZNSt23_Sp_counted_ptr_inplaceI9FdHandlerSaIS0_ELN9__gnu_cxx12_Lock_policyE2EEC2IJEEES1_DpOT_,"axG",@progbits,_ZNSt23_Sp_counted_ptr_inplaceI9FdHandlerSaIS0_ELN9__gnu_cxx12_Lock_policyE2EEC5IJEEES1_DpOT_,comdat
	.align	2
	.weak	_ZNSt23_Sp_counted_ptr_inplaceI9FdHandlerSaIS0_ELN9__gnu_cxx12_Lock_policyE2EEC2IJEEES1_DpOT_
	.type	_ZNSt23_Sp_counted_ptr_inplaceI9FdHandlerSaIS0_ELN9__gnu_cxx12_Lock_policyE2EEC2IJEEES1_DpOT_, %function
_ZNSt23_Sp_counted_ptr_inplaceI9FdHandlerSaIS0_ELN9__gnu_cxx12_Lock_policyE2EEC2IJEEES1_DpOT_:
.LFB5240:
	.cfi_startproc
	stp	x29, x30, [sp, -64]!
	.cfi_def_cfa_offset 64
	.cfi_offset 29, -64
	.cfi_offset 30, -56
	mov	x29, sp
	str	x19, [sp, 16]
	.cfi_offset 19, -48
	str	x0, [sp, 40]
	str	x1, [sp, 32]
	adrp	x0, :got:__stack_chk_guard
	ldr	x0, [x0, #:got_lo12:__stack_chk_guard]
	ldr	x1, [x0]
	str	x1, [sp, 56]
	mov	x1, 0
	ldr	x0, [sp, 40]
	bl	_ZNSt16_Sp_counted_baseILN9__gnu_cxx12_Lock_policyE2EEC2Ev
	adrp	x0, _ZTVSt23_Sp_counted_ptr_inplaceI9FdHandlerSaIS0_ELN9__gnu_cxx12_Lock_policyE2EE+16
	add	x1, x0, :lo12:_ZTVSt23_Sp_counted_ptr_inplaceI9FdHandlerSaIS0_ELN9__gnu_cxx12_Lock_policyE2EE+16
	ldr	x0, [sp, 40]
	str	x1, [x0]
	ldr	x0, [sp, 40]
	add	x19, x0, 16
	add	x0, sp, 48
	ldr	x1, [sp, 32]
	bl	_ZNSaI9FdHandlerEC1ERKS0_
	add	x0, sp, 48
	mov	x1, x0
	mov	x0, x19
	bl	_ZNSt23_Sp_counted_ptr_inplaceI9FdHandlerSaIS0_ELN9__gnu_cxx12_Lock_policyE2EE5_ImplC1ES1_
	add	x0, sp, 48
	bl	_ZNSaI9FdHandlerED1Ev
	ldr	x0, [sp, 40]
	bl	_ZNSt23_Sp_counted_ptr_inplaceI9FdHandlerSaIS0_ELN9__gnu_cxx12_Lock_policyE2EE6_M_ptrEv
	mov	x1, x0
	ldr	x0, [sp, 32]
	bl	_ZNSt16allocator_traitsISaI9FdHandlerEE9constructIS0_JEEEvRS1_PT_DpOT0_
	nop
	adrp	x0, :got:__stack_chk_guard
	ldr	x0, [x0, #:got_lo12:__stack_chk_guard]
	ldr	x2, [sp, 56]
	ldr	x1, [x0]
	subs	x2, x2, x1
	mov	x1, 0
	beq	.L374
	bl	__stack_chk_fail
.L374:
	ldr	x19, [sp, 16]
	ldp	x29, x30, [sp], 64
	.cfi_restore 30
	.cfi_restore 29
	.cfi_restore 19
	.cfi_def_cfa_offset 0
	ret
	.cfi_endproc
.LFE5240:
	.size	_ZNSt23_Sp_counted_ptr_inplaceI9FdHandlerSaIS0_ELN9__gnu_cxx12_Lock_policyE2EEC2IJEEES1_DpOT_, .-_ZNSt23_Sp_counted_ptr_inplaceI9FdHandlerSaIS0_ELN9__gnu_cxx12_Lock_policyE2EEC2IJEEES1_DpOT_
	.weak	_ZNSt23_Sp_counted_ptr_inplaceI9FdHandlerSaIS0_ELN9__gnu_cxx12_Lock_policyE2EEC1IJEEES1_DpOT_
	.set	_ZNSt23_Sp_counted_ptr_inplaceI9FdHandlerSaIS0_ELN9__gnu_cxx12_Lock_policyE2EEC1IJEEES1_DpOT_,_ZNSt23_Sp_counted_ptr_inplaceI9FdHandlerSaIS0_ELN9__gnu_cxx12_Lock_policyE2EEC2IJEEES1_DpOT_
	.section	.text._ZNSt15__allocated_ptrISaISt23_Sp_counted_ptr_inplaceI9FdHandlerSaIS1_ELN9__gnu_cxx12_Lock_policyE2EEEEaSEDn,"axG",@progbits,_ZNSt15__allocated_ptrISaISt23_Sp_counted_ptr_inplaceI9FdHandlerSaIS1_ELN9__gnu_cxx12_Lock_policyE2EEEEaSEDn,comdat
	.align	2
	.weak	_ZNSt15__allocated_ptrISaISt23_Sp_counted_ptr_inplaceI9FdHandlerSaIS1_ELN9__gnu_cxx12_Lock_policyE2EEEEaSEDn
	.type	_ZNSt15__allocated_ptrISaISt23_Sp_counted_ptr_inplaceI9FdHandlerSaIS1_ELN9__gnu_cxx12_Lock_policyE2EEEEaSEDn, %function
_ZNSt15__allocated_ptrISaISt23_Sp_counted_ptr_inplaceI9FdHandlerSaIS1_ELN9__gnu_cxx12_Lock_policyE2EEEEaSEDn:
.LFB5242:
	.cfi_startproc
	sub	sp, sp, #16
	.cfi_def_cfa_offset 16
	str	x0, [sp, 8]
	str	x1, [sp]
	ldr	x0, [sp, 8]
	str	xzr, [x0, 8]
	ldr	x0, [sp, 8]
	add	sp, sp, 16
	.cfi_def_cfa_offset 0
	ret
	.cfi_endproc
.LFE5242:
	.size	_ZNSt15__allocated_ptrISaISt23_Sp_counted_ptr_inplaceI9FdHandlerSaIS1_ELN9__gnu_cxx12_Lock_policyE2EEEEaSEDn, .-_ZNSt15__allocated_ptrISaISt23_Sp_counted_ptr_inplaceI9FdHandlerSaIS1_ELN9__gnu_cxx12_Lock_policyE2EEEEaSEDn
	.section	.text._ZNSt23_Sp_counted_ptr_inplaceI9FdHandlerSaIS0_ELN9__gnu_cxx12_Lock_policyE2EE6_M_ptrEv,"axG",@progbits,_ZNSt23_Sp_counted_ptr_inplaceI9FdHandlerSaIS0_ELN9__gnu_cxx12_Lock_policyE2EE6_M_ptrEv,comdat
	.align	2
	.weak	_ZNSt23_Sp_counted_ptr_inplaceI9FdHandlerSaIS0_ELN9__gnu_cxx12_Lock_policyE2EE6_M_ptrEv
	.type	_ZNSt23_Sp_counted_ptr_inplaceI9FdHandlerSaIS0_ELN9__gnu_cxx12_Lock_policyE2EE6_M_ptrEv, %function
_ZNSt23_Sp_counted_ptr_inplaceI9FdHandlerSaIS0_ELN9__gnu_cxx12_Lock_policyE2EE6_M_ptrEv:
.LFB5243:
	.cfi_startproc
	stp	x29, x30, [sp, -32]!
	.cfi_def_cfa_offset 32
	.cfi_offset 29, -32
	.cfi_offset 30, -24
	mov	x29, sp
	str	x0, [sp, 24]
	ldr	x0, [sp, 24]
	add	x0, x0, 16
	bl	_ZN9__gnu_cxx16__aligned_bufferI9FdHandlerE6_M_ptrEv
	ldp	x29, x30, [sp], 32
	.cfi_restore 30
	.cfi_restore 29
	.cfi_def_cfa_offset 0
	ret
	.cfi_endproc
.LFE5243:
	.size	_ZNSt23_Sp_counted_ptr_inplaceI9FdHandlerSaIS0_ELN9__gnu_cxx12_Lock_policyE2EE6_M_ptrEv, .-_ZNSt23_Sp_counted_ptr_inplaceI9FdHandlerSaIS0_ELN9__gnu_cxx12_Lock_policyE2EE6_M_ptrEv
	.section	.text._ZSt30__enable_shared_from_this_baseRKSt14__shared_countILN9__gnu_cxx12_Lock_policyE2EEPKSt23enable_shared_from_thisI14LooperCallbackE,"axG",@progbits,_ZSt30__enable_shared_from_this_baseRKSt14__shared_countILN9__gnu_cxx12_Lock_policyE2EEPKSt23enable_shared_from_thisI14LooperCallbackE,comdat
	.align	2
	.weak	_ZSt30__enable_shared_from_this_baseRKSt14__shared_countILN9__gnu_cxx12_Lock_policyE2EEPKSt23enable_shared_from_thisI14LooperCallbackE
	.type	_ZSt30__enable_shared_from_this_baseRKSt14__shared_countILN9__gnu_cxx12_Lock_policyE2EEPKSt23enable_shared_from_thisI14LooperCallbackE, %function
_ZSt30__enable_shared_from_this_baseRKSt14__shared_countILN9__gnu_cxx12_Lock_policyE2EEPKSt23enable_shared_from_thisI14LooperCallbackE:
.LFB5244:
	.cfi_startproc
	sub	sp, sp, #16
	.cfi_def_cfa_offset 16
	str	x0, [sp, 8]
	str	x1, [sp]
	ldr	x0, [sp]
	add	sp, sp, 16
	.cfi_def_cfa_offset 0
	ret
	.cfi_endproc
.LFE5244:
	.size	_ZSt30__enable_shared_from_this_baseRKSt14__shared_countILN9__gnu_cxx12_Lock_policyE2EEPKSt23enable_shared_from_thisI14LooperCallbackE, .-_ZSt30__enable_shared_from_this_baseRKSt14__shared_countILN9__gnu_cxx12_Lock_policyE2EEPKSt23enable_shared_from_thisI14LooperCallbackE
	.section	.text._ZNKSt23enable_shared_from_thisI14LooperCallbackE14_M_weak_assignI9FdHandlerEEvPT_RKSt14__shared_countILN9__gnu_cxx12_Lock_policyE2EE,"axG",@progbits,_ZNKSt23enable_shared_from_thisI14LooperCallbackE14_M_weak_assignI9FdHandlerEEvPT_RKSt14__shared_countILN9__gnu_cxx12_Lock_policyE2EE,comdat
	.align	2
	.weak	_ZNKSt23enable_shared_from_thisI14LooperCallbackE14_M_weak_assignI9FdHandlerEEvPT_RKSt14__shared_countILN9__gnu_cxx12_Lock_policyE2EE
	.type	_ZNKSt23enable_shared_from_thisI14LooperCallbackE14_M_weak_assignI9FdHandlerEEvPT_RKSt14__shared_countILN9__gnu_cxx12_Lock_policyE2EE, %function
_ZNKSt23enable_shared_from_thisI14LooperCallbackE14_M_weak_assignI9FdHandlerEEvPT_RKSt14__shared_countILN9__gnu_cxx12_Lock_policyE2EE:
.LFB5245:
	.cfi_startproc
	stp	x29, x30, [sp, -48]!
	.cfi_def_cfa_offset 48
	.cfi_offset 29, -48
	.cfi_offset 30, -40
	mov	x29, sp
	str	x0, [sp, 40]
	str	x1, [sp, 32]
	str	x2, [sp, 24]
	ldr	x0, [sp, 40]
	ldr	x2, [sp, 24]
	ldr	x1, [sp, 32]
	bl	_ZNSt10__weak_ptrI14LooperCallbackLN9__gnu_cxx12_Lock_policyE2EE9_M_assignEPS0_RKSt14__shared_countILS2_2EE
	nop
	ldp	x29, x30, [sp], 48
	.cfi_restore 30
	.cfi_restore 29
	.cfi_def_cfa_offset 0
	ret
	.cfi_endproc
.LFE5245:
	.size	_ZNKSt23enable_shared_from_thisI14LooperCallbackE14_M_weak_assignI9FdHandlerEEvPT_RKSt14__shared_countILN9__gnu_cxx12_Lock_policyE2EE, .-_ZNKSt23enable_shared_from_thisI14LooperCallbackE14_M_weak_assignI9FdHandlerEEvPT_RKSt14__shared_countILN9__gnu_cxx12_Lock_policyE2EE
	.section	.text._ZN9__gnu_cxx13new_allocatorISt23_Sp_counted_ptr_inplaceI6LooperSaIS2_ELNS_12_Lock_policyE2EEEC2Ev,"axG",@progbits,_ZN9__gnu_cxx13new_allocatorISt23_Sp_counted_ptr_inplaceI6LooperSaIS2_ELNS_12_Lock_policyE2EEEC5Ev,comdat
	.align	2
	.weak	_ZN9__gnu_cxx13new_allocatorISt23_Sp_counted_ptr_inplaceI6LooperSaIS2_ELNS_12_Lock_policyE2EEEC2Ev
	.type	_ZN9__gnu_cxx13new_allocatorISt23_Sp_counted_ptr_inplaceI6LooperSaIS2_ELNS_12_Lock_policyE2EEEC2Ev, %function
_ZN9__gnu_cxx13new_allocatorISt23_Sp_counted_ptr_inplaceI6LooperSaIS2_ELNS_12_Lock_policyE2EEEC2Ev:
.LFB5259:
	.cfi_startproc
	sub	sp, sp, #16
	.cfi_def_cfa_offset 16
	str	x0, [sp, 8]
	nop
	add	sp, sp, 16
	.cfi_def_cfa_offset 0
	ret
	.cfi_endproc
.LFE5259:
	.size	_ZN9__gnu_cxx13new_allocatorISt23_Sp_counted_ptr_inplaceI6LooperSaIS2_ELNS_12_Lock_policyE2EEEC2Ev, .-_ZN9__gnu_cxx13new_allocatorISt23_Sp_counted_ptr_inplaceI6LooperSaIS2_ELNS_12_Lock_policyE2EEEC2Ev
	.weak	_ZN9__gnu_cxx13new_allocatorISt23_Sp_counted_ptr_inplaceI6LooperSaIS2_ELNS_12_Lock_policyE2EEEC1Ev
	.set	_ZN9__gnu_cxx13new_allocatorISt23_Sp_counted_ptr_inplaceI6LooperSaIS2_ELNS_12_Lock_policyE2EEEC1Ev,_ZN9__gnu_cxx13new_allocatorISt23_Sp_counted_ptr_inplaceI6LooperSaIS2_ELNS_12_Lock_policyE2EEEC2Ev
	.section	.text._ZN9__gnu_cxx13new_allocatorISt23_Sp_counted_ptr_inplaceI6LooperSaIS2_ELNS_12_Lock_policyE2EEED2Ev,"axG",@progbits,_ZN9__gnu_cxx13new_allocatorISt23_Sp_counted_ptr_inplaceI6LooperSaIS2_ELNS_12_Lock_policyE2EEED5Ev,comdat
	.align	2
	.weak	_ZN9__gnu_cxx13new_allocatorISt23_Sp_counted_ptr_inplaceI6LooperSaIS2_ELNS_12_Lock_policyE2EEED2Ev
	.type	_ZN9__gnu_cxx13new_allocatorISt23_Sp_counted_ptr_inplaceI6LooperSaIS2_ELNS_12_Lock_policyE2EEED2Ev, %function
_ZN9__gnu_cxx13new_allocatorISt23_Sp_counted_ptr_inplaceI6LooperSaIS2_ELNS_12_Lock_policyE2EEED2Ev:
.LFB5262:
	.cfi_startproc
	sub	sp, sp, #16
	.cfi_def_cfa_offset 16
	str	x0, [sp, 8]
	nop
	add	sp, sp, 16
	.cfi_def_cfa_offset 0
	ret
	.cfi_endproc
.LFE5262:
	.size	_ZN9__gnu_cxx13new_allocatorISt23_Sp_counted_ptr_inplaceI6LooperSaIS2_ELNS_12_Lock_policyE2EEED2Ev, .-_ZN9__gnu_cxx13new_allocatorISt23_Sp_counted_ptr_inplaceI6LooperSaIS2_ELNS_12_Lock_policyE2EEED2Ev
	.weak	_ZN9__gnu_cxx13new_allocatorISt23_Sp_counted_ptr_inplaceI6LooperSaIS2_ELNS_12_Lock_policyE2EEED1Ev
	.set	_ZN9__gnu_cxx13new_allocatorISt23_Sp_counted_ptr_inplaceI6LooperSaIS2_ELNS_12_Lock_policyE2EEED1Ev,_ZN9__gnu_cxx13new_allocatorISt23_Sp_counted_ptr_inplaceI6LooperSaIS2_ELNS_12_Lock_policyE2EEED2Ev
	.section	.text._ZNSt16allocator_traitsISaISt23_Sp_counted_ptr_inplaceI6LooperSaIS1_ELN9__gnu_cxx12_Lock_policyE2EEEE8allocateERS6_m,"axG",@progbits,_ZNSt16allocator_traitsISaISt23_Sp_counted_ptr_inplaceI6LooperSaIS1_ELN9__gnu_cxx12_Lock_policyE2EEEE8allocateERS6_m,comdat
	.align	2
	.weak	_ZNSt16allocator_traitsISaISt23_Sp_counted_ptr_inplaceI6LooperSaIS1_ELN9__gnu_cxx12_Lock_policyE2EEEE8allocateERS6_m
	.type	_ZNSt16allocator_traitsISaISt23_Sp_counted_ptr_inplaceI6LooperSaIS1_ELN9__gnu_cxx12_Lock_policyE2EEEE8allocateERS6_m, %function
_ZNSt16allocator_traitsISaISt23_Sp_counted_ptr_inplaceI6LooperSaIS1_ELN9__gnu_cxx12_Lock_policyE2EEEE8allocateERS6_m:
.LFB5264:
	.cfi_startproc
	stp	x29, x30, [sp, -32]!
	.cfi_def_cfa_offset 32
	.cfi_offset 29, -32
	.cfi_offset 30, -24
	mov	x29, sp
	str	x0, [sp, 24]
	str	x1, [sp, 16]
	mov	x2, 0
	ldr	x1, [sp, 16]
	ldr	x0, [sp, 24]
	bl	_ZN9__gnu_cxx13new_allocatorISt23_Sp_counted_ptr_inplaceI6LooperSaIS2_ELNS_12_Lock_policyE2EEE8allocateEmPKv
	ldp	x29, x30, [sp], 32
	.cfi_restore 30
	.cfi_restore 29
	.cfi_def_cfa_offset 0
	ret
	.cfi_endproc
.LFE5264:
	.size	_ZNSt16allocator_traitsISaISt23_Sp_counted_ptr_inplaceI6LooperSaIS1_ELN9__gnu_cxx12_Lock_policyE2EEEE8allocateERS6_m, .-_ZNSt16allocator_traitsISaISt23_Sp_counted_ptr_inplaceI6LooperSaIS1_ELN9__gnu_cxx12_Lock_policyE2EEEE8allocateERS6_m
	.section	.text._ZNSt15__allocated_ptrISaISt23_Sp_counted_ptr_inplaceI6LooperSaIS1_ELN9__gnu_cxx12_Lock_policyE2EEEEC2ERS6_PS5_,"axG",@progbits,_ZNSt15__allocated_ptrISaISt23_Sp_counted_ptr_inplaceI6LooperSaIS1_ELN9__gnu_cxx12_Lock_policyE2EEEEC5ERS6_PS5_,comdat
	.align	2
	.weak	_ZNSt15__allocated_ptrISaISt23_Sp_counted_ptr_inplaceI6LooperSaIS1_ELN9__gnu_cxx12_Lock_policyE2EEEEC2ERS6_PS5_
	.type	_ZNSt15__allocated_ptrISaISt23_Sp_counted_ptr_inplaceI6LooperSaIS1_ELN9__gnu_cxx12_Lock_policyE2EEEEC2ERS6_PS5_, %function
_ZNSt15__allocated_ptrISaISt23_Sp_counted_ptr_inplaceI6LooperSaIS1_ELN9__gnu_cxx12_Lock_policyE2EEEEC2ERS6_PS5_:
.LFB5266:
	.cfi_startproc
	stp	x29, x30, [sp, -48]!
	.cfi_def_cfa_offset 48
	.cfi_offset 29, -48
	.cfi_offset 30, -40
	mov	x29, sp
	str	x0, [sp, 40]
	str	x1, [sp, 32]
	str	x2, [sp, 24]
	ldr	x0, [sp, 32]
	bl	_ZSt11__addressofISaISt23_Sp_counted_ptr_inplaceI6LooperSaIS1_ELN9__gnu_cxx12_Lock_policyE2EEEEPT_RS7_
	mov	x1, x0
	ldr	x0, [sp, 40]
	str	x1, [x0]
	ldr	x0, [sp, 40]
	ldr	x1, [sp, 24]
	str	x1, [x0, 8]
	nop
	ldp	x29, x30, [sp], 48
	.cfi_restore 30
	.cfi_restore 29
	.cfi_def_cfa_offset 0
	ret
	.cfi_endproc
.LFE5266:
	.size	_ZNSt15__allocated_ptrISaISt23_Sp_counted_ptr_inplaceI6LooperSaIS1_ELN9__gnu_cxx12_Lock_policyE2EEEEC2ERS6_PS5_, .-_ZNSt15__allocated_ptrISaISt23_Sp_counted_ptr_inplaceI6LooperSaIS1_ELN9__gnu_cxx12_Lock_policyE2EEEEC2ERS6_PS5_
	.weak	_ZNSt15__allocated_ptrISaISt23_Sp_counted_ptr_inplaceI6LooperSaIS1_ELN9__gnu_cxx12_Lock_policyE2EEEEC1ERS6_PS5_
	.set	_ZNSt15__allocated_ptrISaISt23_Sp_counted_ptr_inplaceI6LooperSaIS1_ELN9__gnu_cxx12_Lock_policyE2EEEEC1ERS6_PS5_,_ZNSt15__allocated_ptrISaISt23_Sp_counted_ptr_inplaceI6LooperSaIS1_ELN9__gnu_cxx12_Lock_policyE2EEEEC2ERS6_PS5_
	.section	.text._ZNSt16allocator_traitsISaISt23_Sp_counted_ptr_inplaceI6LooperSaIS1_ELN9__gnu_cxx12_Lock_policyE2EEEE10deallocateERS6_PS5_m,"axG",@progbits,_ZNSt16allocator_traitsISaISt23_Sp_counted_ptr_inplaceI6LooperSaIS1_ELN9__gnu_cxx12_Lock_policyE2EEEE10deallocateERS6_PS5_m,comdat
	.align	2
	.weak	_ZNSt16allocator_traitsISaISt23_Sp_counted_ptr_inplaceI6LooperSaIS1_ELN9__gnu_cxx12_Lock_policyE2EEEE10deallocateERS6_PS5_m
	.type	_ZNSt16allocator_traitsISaISt23_Sp_counted_ptr_inplaceI6LooperSaIS1_ELN9__gnu_cxx12_Lock_policyE2EEEE10deallocateERS6_PS5_m, %function
_ZNSt16allocator_traitsISaISt23_Sp_counted_ptr_inplaceI6LooperSaIS1_ELN9__gnu_cxx12_Lock_policyE2EEEE10deallocateERS6_PS5_m:
.LFB5268:
	.cfi_startproc
	stp	x29, x30, [sp, -48]!
	.cfi_def_cfa_offset 48
	.cfi_offset 29, -48
	.cfi_offset 30, -40
	mov	x29, sp
	str	x0, [sp, 40]
	str	x1, [sp, 32]
	str	x2, [sp, 24]
	ldr	x2, [sp, 24]
	ldr	x1, [sp, 32]
	ldr	x0, [sp, 40]
	bl	_ZN9__gnu_cxx13new_allocatorISt23_Sp_counted_ptr_inplaceI6LooperSaIS2_ELNS_12_Lock_policyE2EEE10deallocateEPS5_m
	nop
	ldp	x29, x30, [sp], 48
	.cfi_restore 30
	.cfi_restore 29
	.cfi_def_cfa_offset 0
	ret
	.cfi_endproc
.LFE5268:
	.size	_ZNSt16allocator_traitsISaISt23_Sp_counted_ptr_inplaceI6LooperSaIS1_ELN9__gnu_cxx12_Lock_policyE2EEEE10deallocateERS6_PS5_m, .-_ZNSt16allocator_traitsISaISt23_Sp_counted_ptr_inplaceI6LooperSaIS1_ELN9__gnu_cxx12_Lock_policyE2EEEE10deallocateERS6_PS5_m
	.section	.text._ZSt12__to_addressISt23_Sp_counted_ptr_inplaceI6LooperSaIS1_ELN9__gnu_cxx12_Lock_policyE2EEEPT_S7_,"axG",@progbits,_ZSt12__to_addressISt23_Sp_counted_ptr_inplaceI6LooperSaIS1_ELN9__gnu_cxx12_Lock_policyE2EEEPT_S7_,comdat
	.align	2
	.weak	_ZSt12__to_addressISt23_Sp_counted_ptr_inplaceI6LooperSaIS1_ELN9__gnu_cxx12_Lock_policyE2EEEPT_S7_
	.type	_ZSt12__to_addressISt23_Sp_counted_ptr_inplaceI6LooperSaIS1_ELN9__gnu_cxx12_Lock_policyE2EEEPT_S7_, %function
_ZSt12__to_addressISt23_Sp_counted_ptr_inplaceI6LooperSaIS1_ELN9__gnu_cxx12_Lock_policyE2EEEPT_S7_:
.LFB5269:
	.cfi_startproc
	sub	sp, sp, #16
	.cfi_def_cfa_offset 16
	str	x0, [sp, 8]
	ldr	x0, [sp, 8]
	add	sp, sp, 16
	.cfi_def_cfa_offset 0
	ret
	.cfi_endproc
.LFE5269:
	.size	_ZSt12__to_addressISt23_Sp_counted_ptr_inplaceI6LooperSaIS1_ELN9__gnu_cxx12_Lock_policyE2EEEPT_S7_, .-_ZSt12__to_addressISt23_Sp_counted_ptr_inplaceI6LooperSaIS1_ELN9__gnu_cxx12_Lock_policyE2EEEPT_S7_
	.section	.text._ZN9__gnu_cxx13new_allocatorI6LooperEC2ERKS2_,"axG",@progbits,_ZN9__gnu_cxx13new_allocatorI6LooperEC5ERKS2_,comdat
	.align	2
	.weak	_ZN9__gnu_cxx13new_allocatorI6LooperEC2ERKS2_
	.type	_ZN9__gnu_cxx13new_allocatorI6LooperEC2ERKS2_, %function
_ZN9__gnu_cxx13new_allocatorI6LooperEC2ERKS2_:
.LFB5271:
	.cfi_startproc
	sub	sp, sp, #16
	.cfi_def_cfa_offset 16
	str	x0, [sp, 8]
	str	x1, [sp]
	nop
	add	sp, sp, 16
	.cfi_def_cfa_offset 0
	ret
	.cfi_endproc
.LFE5271:
	.size	_ZN9__gnu_cxx13new_allocatorI6LooperEC2ERKS2_, .-_ZN9__gnu_cxx13new_allocatorI6LooperEC2ERKS2_
	.weak	_ZN9__gnu_cxx13new_allocatorI6LooperEC1ERKS2_
	.set	_ZN9__gnu_cxx13new_allocatorI6LooperEC1ERKS2_,_ZN9__gnu_cxx13new_allocatorI6LooperEC2ERKS2_
	.section	.text._ZNSt16_Sp_counted_baseILN9__gnu_cxx12_Lock_policyE2EEC2Ev,"axG",@progbits,_ZNSt16_Sp_counted_baseILN9__gnu_cxx12_Lock_policyE2EEC5Ev,comdat
	.align	2
	.weak	_ZNSt16_Sp_counted_baseILN9__gnu_cxx12_Lock_policyE2EEC2Ev
	.type	_ZNSt16_Sp_counted_baseILN9__gnu_cxx12_Lock_policyE2EEC2Ev, %function
_ZNSt16_Sp_counted_baseILN9__gnu_cxx12_Lock_policyE2EEC2Ev:
.LFB5274:
	.cfi_startproc
	sub	sp, sp, #16
	.cfi_def_cfa_offset 16
	str	x0, [sp, 8]
	adrp	x0, _ZTVSt16_Sp_counted_baseILN9__gnu_cxx12_Lock_policyE2EE+16
	add	x1, x0, :lo12:_ZTVSt16_Sp_counted_baseILN9__gnu_cxx12_Lock_policyE2EE+16
	ldr	x0, [sp, 8]
	str	x1, [x0]
	ldr	x0, [sp, 8]
	mov	w1, 1
	str	w1, [x0, 8]
	ldr	x0, [sp, 8]
	mov	w1, 1
	str	w1, [x0, 12]
	nop
	add	sp, sp, 16
	.cfi_def_cfa_offset 0
	ret
	.cfi_endproc
.LFE5274:
	.size	_ZNSt16_Sp_counted_baseILN9__gnu_cxx12_Lock_policyE2EEC2Ev, .-_ZNSt16_Sp_counted_baseILN9__gnu_cxx12_Lock_policyE2EEC2Ev
	.weak	_ZNSt16_Sp_counted_baseILN9__gnu_cxx12_Lock_policyE2EEC1Ev
	.set	_ZNSt16_Sp_counted_baseILN9__gnu_cxx12_Lock_policyE2EEC1Ev,_ZNSt16_Sp_counted_baseILN9__gnu_cxx12_Lock_policyE2EEC2Ev
	.section	.text._ZNSt23_Sp_counted_ptr_inplaceI6LooperSaIS0_ELN9__gnu_cxx12_Lock_policyE2EE5_ImplC2ES1_,"axG",@progbits,_ZNSt23_Sp_counted_ptr_inplaceI6LooperSaIS0_ELN9__gnu_cxx12_Lock_policyE2EE5_ImplC5ES1_,comdat
	.align	2
	.weak	_ZNSt23_Sp_counted_ptr_inplaceI6LooperSaIS0_ELN9__gnu_cxx12_Lock_policyE2EE5_ImplC2ES1_
	.type	_ZNSt23_Sp_counted_ptr_inplaceI6LooperSaIS0_ELN9__gnu_cxx12_Lock_policyE2EE5_ImplC2ES1_, %function
_ZNSt23_Sp_counted_ptr_inplaceI6LooperSaIS0_ELN9__gnu_cxx12_Lock_policyE2EE5_ImplC2ES1_:
.LFB5277:
	.cfi_startproc
	stp	x29, x30, [sp, -32]!
	.cfi_def_cfa_offset 32
	.cfi_offset 29, -32
	.cfi_offset 30, -24
	mov	x29, sp
	str	x0, [sp, 24]
	str	x1, [sp, 16]
	ldr	x1, [sp, 16]
	ldr	x0, [sp, 24]
	bl	_ZNSt14_Sp_ebo_helperILi0ESaI6LooperELb1EEC2ERKS1_
	nop
	ldp	x29, x30, [sp], 32
	.cfi_restore 30
	.cfi_restore 29
	.cfi_def_cfa_offset 0
	ret
	.cfi_endproc
.LFE5277:
	.size	_ZNSt23_Sp_counted_ptr_inplaceI6LooperSaIS0_ELN9__gnu_cxx12_Lock_policyE2EE5_ImplC2ES1_, .-_ZNSt23_Sp_counted_ptr_inplaceI6LooperSaIS0_ELN9__gnu_cxx12_Lock_policyE2EE5_ImplC2ES1_
	.weak	_ZNSt23_Sp_counted_ptr_inplaceI6LooperSaIS0_ELN9__gnu_cxx12_Lock_policyE2EE5_ImplC1ES1_
	.set	_ZNSt23_Sp_counted_ptr_inplaceI6LooperSaIS0_ELN9__gnu_cxx12_Lock_policyE2EE5_ImplC1ES1_,_ZNSt23_Sp_counted_ptr_inplaceI6LooperSaIS0_ELN9__gnu_cxx12_Lock_policyE2EE5_ImplC2ES1_
	.section	.text._ZNSt16allocator_traitsISaI6LooperEE9constructIS0_JEEEvRS1_PT_DpOT0_,"axG",@progbits,_ZNSt16allocator_traitsISaI6LooperEE9constructIS0_JEEEvRS1_PT_DpOT0_,comdat
	.align	2
	.weak	_ZNSt16allocator_traitsISaI6LooperEE9constructIS0_JEEEvRS1_PT_DpOT0_
	.type	_ZNSt16allocator_traitsISaI6LooperEE9constructIS0_JEEEvRS1_PT_DpOT0_, %function
_ZNSt16allocator_traitsISaI6LooperEE9constructIS0_JEEEvRS1_PT_DpOT0_:
