	.section	__TEXT,__text,regular,pure_instructions
	.build_version macos, 13, 0	sdk_version 13, 1
	.file	1 "/Users/xieyao/Desktop/git/C-/mac/myproject" "external/subprocess/subprocess/environ.hpp"
	.file	2 "/Applications/Xcode.app/Contents/Developer/Platforms/MacOSX.platform/Developer/SDKs/MacOSX13.1.sdk/usr/include/c++/v1" "__string"
	.file	3 "/Applications/Xcode.app/Contents/Developer/Toolchains/XcodeDefault.xctoolchain/usr/lib/clang/14.0.0/include" "stddef.h"
	.file	4 "/Applications/Xcode.app/Contents/Developer/Platforms/MacOSX.platform/Developer/SDKs/MacOSX13.1.sdk/usr/include/c++/v1/__memory" "allocator.h"
	.file	5 "/Applications/Xcode.app/Contents/Developer/Platforms/MacOSX.platform/Developer/SDKs/MacOSX13.1.sdk/usr/include/c++/v1" "string"
	.file	6 "/Applications/Xcode.app/Contents/Developer/Platforms/MacOSX.platform/Developer/SDKs/MacOSX13.1.sdk/usr/include/c++/v1/__memory" "allocator_traits.h"
	.file	7 "/Applications/Xcode.app/Contents/Developer/Platforms/MacOSX.platform/Developer/SDKs/MacOSX13.1.sdk/usr/include/c++/v1/__memory" "compressed_pair.h"
	.file	8 "/Applications/Xcode.app/Contents/Developer/Platforms/MacOSX.platform/Developer/SDKs/MacOSX13.1.sdk/usr/include/c++/v1" "initializer_list"
	.file	9 "/Applications/Xcode.app/Contents/Developer/Platforms/MacOSX.platform/Developer/SDKs/MacOSX13.1.sdk/usr/include/c++/v1" "string_view"
	.file	10 "/Applications/Xcode.app/Contents/Developer/Platforms/MacOSX.platform/Developer/SDKs/MacOSX13.1.sdk/usr/include/c++/v1" "type_traits"
	.file	11 "/Applications/Xcode.app/Contents/Developer/Platforms/MacOSX.platform/Developer/SDKs/MacOSX13.1.sdk/usr/include/c++/v1" "iosfwd"
	.file	12 "/Applications/Xcode.app/Contents/Developer/Platforms/MacOSX.platform/Developer/SDKs/MacOSX13.1.sdk/usr/include/c++/v1" "__nullptr"
	.file	13 "/Users/xieyao/Desktop/git/C-/mac/myproject" "external/subprocess/subprocess/environ.cpp"
	.file	14 "/Applications/Xcode.app/Contents/Developer/Platforms/MacOSX.platform/Developer/SDKs/MacOSX13.1.sdk/usr/include/c++/v1/__utility" "piecewise_construct.h"
	.file	15 "/Applications/Xcode.app/Contents/Developer/Platforms/MacOSX.platform/Developer/SDKs/MacOSX13.1.sdk/usr/include/c++/v1" "new"
	.file	16 "/Applications/Xcode.app/Contents/Developer/Platforms/MacOSX.platform/Developer/SDKs/MacOSX13.1.sdk/usr/include/_types" "_uint16_t.h"
	.file	17 "/Applications/Xcode.app/Contents/Developer/Platforms/MacOSX.platform/Developer/SDKs/MacOSX13.1.sdk/usr/include" "stdint.h"
	.file	18 "/Applications/Xcode.app/Contents/Developer/Platforms/MacOSX.platform/Developer/SDKs/MacOSX13.1.sdk/usr/include/c++/v1/__functional" "binary_function.h"
	.file	19 "/Applications/Xcode.app/Contents/Developer/Platforms/MacOSX.platform/Developer/SDKs/MacOSX13.1.sdk/usr/include/c++/v1/__functional" "operations.h"
	.file	20 "/Applications/Xcode.app/Contents/Developer/Platforms/MacOSX.platform/Developer/SDKs/MacOSX13.1.sdk/usr/include/c++/v1/__utility" "pair.h"
	.file	21 "/Applications/Xcode.app/Contents/Developer/Platforms/MacOSX.platform/Developer/SDKs/MacOSX13.1.sdk/usr/include/c++/v1" "map"
	.file	22 "/Applications/Xcode.app/Contents/Developer/Platforms/MacOSX.platform/Developer/SDKs/MacOSX13.1.sdk/usr/include/c++/v1" "__tree"
	.file	23 "/Applications/Xcode.app/Contents/Developer/Platforms/MacOSX.platform/Developer/SDKs/MacOSX13.1.sdk/usr/include/c++/v1/__memory" "pointer_traits.h"
	.file	24 "/Applications/Xcode.app/Contents/Developer/Platforms/MacOSX.platform/Developer/SDKs/MacOSX13.1.sdk/usr/include/c++/v1/__memory" "unique_ptr.h"
	.file	25 "/Applications/Xcode.app/Contents/Developer/Platforms/MacOSX.platform/Developer/SDKs/MacOSX13.1.sdk/usr/include/c++/v1" "__node_handle"
	.file	26 "/Applications/Xcode.app/Contents/Developer/Platforms/MacOSX.platform/Developer/SDKs/MacOSX13.1.sdk/usr/include/c++/v1" "exception"
	.file	27 "/Applications/Xcode.app/Contents/Developer/Platforms/MacOSX.platform/Developer/SDKs/MacOSX13.1.sdk/usr/include/c++/v1" "stdexcept"
	.file	28 "/Applications/Xcode.app/Contents/Developer/Platforms/MacOSX.platform/Developer/SDKs/MacOSX13.1.sdk/usr/include/c++/v1" "__tuple"
	.file	29 "/Applications/Xcode.app/Contents/Developer/Platforms/MacOSX.platform/Developer/SDKs/MacOSX13.1.sdk/usr/include/c++/v1" "tuple"
	.file	30 "/Applications/Xcode.app/Contents/Developer/Platforms/MacOSX.platform/Developer/SDKs/MacOSX13.1.sdk/usr/include/c++/v1" "stddef.h"
	.file	31 "/Applications/Xcode.app/Contents/Developer/Platforms/MacOSX.platform/Developer/SDKs/MacOSX13.1.sdk/usr/include/arm" "_types.h"
	.file	32 "/Applications/Xcode.app/Contents/Developer/Platforms/MacOSX.platform/Developer/SDKs/MacOSX13.1.sdk/usr/include/sys/_types" "_mbstate_t.h"
	.file	33 "/Applications/Xcode.app/Contents/Developer/Platforms/MacOSX.platform/Developer/SDKs/MacOSX13.1.sdk/usr/include/c++/v1" "__mbstate_t.h"
	.file	34 "/Applications/Xcode.app/Contents/Developer/Platforms/MacOSX.platform/Developer/SDKs/MacOSX13.1.sdk/usr/include/c++/v1" "cstddef"
	.file	35 "/Applications/Xcode.app/Contents/Developer/Toolchains/XcodeDefault.xctoolchain/usr/lib/clang/14.0.0/include" "__stddef_max_align_t.h"
	.file	36 "/Applications/Xcode.app/Contents/Developer/Platforms/MacOSX.platform/Developer/SDKs/MacOSX13.1.sdk/usr/include/c++/v1" "cstdlib"
	.file	37 "/Applications/Xcode.app/Contents/Developer/Platforms/MacOSX.platform/Developer/SDKs/MacOSX13.1.sdk/usr/include" "stdlib.h"
	.file	38 "/Applications/Xcode.app/Contents/Developer/Platforms/MacOSX.platform/Developer/SDKs/MacOSX13.1.sdk/usr/include/malloc" "_malloc.h"
	.file	39 "/Applications/Xcode.app/Contents/Developer/Platforms/MacOSX.platform/Developer/SDKs/MacOSX13.1.sdk/usr/include/c++/v1" "stdlib.h"
	.file	40 "/Applications/Xcode.app/Contents/Developer/Platforms/MacOSX.platform/Developer/SDKs/MacOSX13.1.sdk/usr/include/sys/_types" "_int8_t.h"
	.file	41 "/Applications/Xcode.app/Contents/Developer/Platforms/MacOSX.platform/Developer/SDKs/MacOSX13.1.sdk/usr/include/c++/v1" "cstdint"
	.file	42 "/Applications/Xcode.app/Contents/Developer/Platforms/MacOSX.platform/Developer/SDKs/MacOSX13.1.sdk/usr/include/sys/_types" "_int16_t.h"
	.file	43 "/Applications/Xcode.app/Contents/Developer/Platforms/MacOSX.platform/Developer/SDKs/MacOSX13.1.sdk/usr/include/sys/_types" "_int32_t.h"
	.file	44 "/Applications/Xcode.app/Contents/Developer/Platforms/MacOSX.platform/Developer/SDKs/MacOSX13.1.sdk/usr/include/sys/_types" "_int64_t.h"
	.file	45 "/Applications/Xcode.app/Contents/Developer/Platforms/MacOSX.platform/Developer/SDKs/MacOSX13.1.sdk/usr/include/_types" "_uint8_t.h"
	.file	46 "/Applications/Xcode.app/Contents/Developer/Platforms/MacOSX.platform/Developer/SDKs/MacOSX13.1.sdk/usr/include/_types" "_uint32_t.h"
	.file	47 "/Applications/Xcode.app/Contents/Developer/Platforms/MacOSX.platform/Developer/SDKs/MacOSX13.1.sdk/usr/include/_types" "_uint64_t.h"
	.file	48 "/Applications/Xcode.app/Contents/Developer/Platforms/MacOSX.platform/Developer/SDKs/MacOSX13.1.sdk/usr/include/sys/_types" "_intptr_t.h"
	.file	49 "/Applications/Xcode.app/Contents/Developer/Platforms/MacOSX.platform/Developer/SDKs/MacOSX13.1.sdk/usr/include/sys/_types" "_uintptr_t.h"
	.file	50 "/Applications/Xcode.app/Contents/Developer/Platforms/MacOSX.platform/Developer/SDKs/MacOSX13.1.sdk/usr/include/_types" "_intmax_t.h"
	.file	51 "/Applications/Xcode.app/Contents/Developer/Platforms/MacOSX.platform/Developer/SDKs/MacOSX13.1.sdk/usr/include/_types" "_uintmax_t.h"
	.file	52 "/Applications/Xcode.app/Contents/Developer/Platforms/MacOSX.platform/Developer/SDKs/MacOSX13.1.sdk/usr/include/c++/v1" "cstring"
	.file	53 "/Applications/Xcode.app/Contents/Developer/Platforms/MacOSX.platform/Developer/SDKs/MacOSX13.1.sdk/usr/include" "string.h"
	.file	54 "/Applications/Xcode.app/Contents/Developer/Platforms/MacOSX.platform/Developer/SDKs/MacOSX13.1.sdk/usr/include/c++/v1" "string.h"
	.file	55 "/Applications/Xcode.app/Contents/Developer/Platforms/MacOSX.platform/Developer/SDKs/MacOSX13.1.sdk/usr/include/sys/_types" "_clock_t.h"
	.file	56 "/Applications/Xcode.app/Contents/Developer/Platforms/MacOSX.platform/Developer/SDKs/MacOSX13.1.sdk/usr/include/c++/v1" "ctime"
	.file	57 "/Applications/Xcode.app/Contents/Developer/Platforms/MacOSX.platform/Developer/SDKs/MacOSX13.1.sdk/usr/include/sys/_types" "_time_t.h"
	.file	58 "/Applications/Xcode.app/Contents/Developer/Platforms/MacOSX.platform/Developer/SDKs/MacOSX13.1.sdk/usr/include" "time.h"
	.file	59 "/Applications/Xcode.app/Contents/Developer/Platforms/MacOSX.platform/Developer/SDKs/MacOSX13.1.sdk/usr/include/sys/_types" "_timespec.h"
	.file	60 "/Applications/Xcode.app/Contents/Developer/Platforms/MacOSX.platform/Developer/SDKs/MacOSX13.1.sdk/usr/include/c++/v1" "chrono"
	.file	61 "/Applications/Xcode.app/Contents/Developer/Platforms/MacOSX.platform/Developer/SDKs/MacOSX13.1.sdk/usr/include" "_stdio.h"
	.file	62 "/Applications/Xcode.app/Contents/Developer/Platforms/MacOSX.platform/Developer/SDKs/MacOSX13.1.sdk/usr/include/sys" "_types.h"
	.file	63 "/Applications/Xcode.app/Contents/Developer/Platforms/MacOSX.platform/Developer/SDKs/MacOSX13.1.sdk/usr/include/c++/v1" "cstdio"
	.file	64 "/Applications/Xcode.app/Contents/Developer/Platforms/MacOSX.platform/Developer/SDKs/MacOSX13.1.sdk/usr/include" "stdio.h"
	.file	65 "/Applications/Xcode.app/Contents/Developer/Platforms/MacOSX.platform/Developer/SDKs/MacOSX13.1.sdk/usr/include/sys/_types" "_va_list.h"
	.file	66 "/Applications/Xcode.app/Contents/Developer/Platforms/MacOSX.platform/Developer/SDKs/MacOSX13.1.sdk/usr/include" "_ctype.h"
	.file	67 "/Applications/Xcode.app/Contents/Developer/Platforms/MacOSX.platform/Developer/SDKs/MacOSX13.1.sdk/usr/include/c++/v1" "cctype"
	.file	68 "/Applications/Xcode.app/Contents/Developer/Platforms/MacOSX.platform/Developer/SDKs/MacOSX13.1.sdk/usr/include/sys/_types" "_wint_t.h"
	.file	69 "/Applications/Xcode.app/Contents/Developer/Platforms/MacOSX.platform/Developer/SDKs/MacOSX13.1.sdk/usr/include/c++/v1" "cwctype"
	.file	70 "/Applications/Xcode.app/Contents/Developer/Platforms/MacOSX.platform/Developer/SDKs/MacOSX13.1.sdk/usr/include" "_types.h"
	.file	71 "/Applications/Xcode.app/Contents/Developer/Platforms/MacOSX.platform/Developer/SDKs/MacOSX13.1.sdk/usr/include/_types" "_wctrans_t.h"
	.file	72 "/Applications/Xcode.app/Contents/Developer/Platforms/MacOSX.platform/Developer/SDKs/MacOSX13.1.sdk/usr/include/_types" "_wctype_t.h"
	.file	73 "/Applications/Xcode.app/Contents/Developer/Platforms/MacOSX.platform/Developer/SDKs/MacOSX13.1.sdk/usr/include" "_wctype.h"
	.file	74 "/Applications/Xcode.app/Contents/Developer/Platforms/MacOSX.platform/Developer/SDKs/MacOSX13.1.sdk/usr/include" "wctype.h"
	.file	75 "/Applications/Xcode.app/Contents/Developer/Platforms/MacOSX.platform/Developer/SDKs/MacOSX13.1.sdk/usr/include/c++/v1" "cwchar"
	.file	76 "/Applications/Xcode.app/Contents/Developer/Platforms/MacOSX.platform/Developer/SDKs/MacOSX13.1.sdk/usr/include" "wchar.h"
	.file	77 "/Applications/Xcode.app/Contents/Developer/Platforms/MacOSX.platform/Developer/SDKs/MacOSX13.1.sdk/usr/include/c++/v1" "wchar.h"
	.file	78 "/Applications/Xcode.app/Contents/Developer/Platforms/MacOSX.platform/Developer/SDKs/MacOSX13.1.sdk/usr/include/arm" "signal.h"
	.file	79 "/Applications/Xcode.app/Contents/Developer/Platforms/MacOSX.platform/Developer/SDKs/MacOSX13.1.sdk/usr/include/c++/v1" "csignal"
	.file	80 "/Applications/Xcode.app/Contents/Developer/Platforms/MacOSX.platform/Developer/SDKs/MacOSX13.1.sdk/usr/include/sys" "signal.h"
	.file	81 "/Applications/Xcode.app/Contents/Developer/Platforms/MacOSX.platform/Developer/SDKs/MacOSX13.1.sdk/usr/include" "signal.h"
	.globl	__ZN10subprocess13EnvironSetterC2ERKNSt3__112basic_stringIcNS1_11char_traitsIcEENS1_9allocatorIcEEEE ; -- Begin function _ZN10subprocess13EnvironSetterC2ERKNSt3__112basic_stringIcNS1_11char_traitsIcEENS1_9allocatorIcEEEE
	.p2align	2
__ZN10subprocess13EnvironSetterC2ERKNSt3__112basic_stringIcNS1_11char_traitsIcEENS1_9allocatorIcEEEE: ; @_ZN10subprocess13EnvironSetterC2ERKNSt3__112basic_stringIcNS1_11char_traitsIcEENS1_9allocatorIcEEEE
Lfunc_begin0:
	.loc	13 14 0                         ; external/subprocess/subprocess/environ.cpp:14:0
	.cfi_startproc
	.cfi_personality 155, ___gxx_personality_v0
	.cfi_lsda 16, Lexception0
; %bb.0:
	sub	sp, sp, #64
	stp	x29, x30, [sp, #48]             ; 16-byte Folded Spill
	add	x29, sp, #48
	.cfi_def_cfa w29, 16
	.cfi_offset w30, -8
	.cfi_offset w29, -16
	stur	x0, [x29, #-8]
	stur	x1, [x29, #-16]
	ldur	x0, [x29, #-8]
	str	x0, [sp, #8]                    ; 8-byte Folded Spill
Ltmp3:
	.loc	13 14 20 prologue_end           ; external/subprocess/subprocess/environ.cpp:14:20
	bl	__ZNSt3__112basic_stringIcNS_11char_traitsIcEENS_9allocatorIcEEEC1Ev
	ldr	x0, [sp, #8]                    ; 8-byte Folded Reload
Ltmp4:
	.loc	13 15 17                        ; external/subprocess/subprocess/environ.cpp:15:17
	ldur	x1, [x29, #-16]
Ltmp0:
	.loc	13 15 15 is_stmt 0              ; external/subprocess/subprocess/environ.cpp:15:15
	bl	__ZNSt3__112basic_stringIcNS_11char_traitsIcEENS_9allocatorIcEEEaSERKS5_
Ltmp1:
	b	LBB0_1
Ltmp5:
LBB0_1:
	.loc	13 0 15                         ; external/subprocess/subprocess/environ.cpp:0:15
	ldr	x0, [sp, #8]                    ; 8-byte Folded Reload
	.loc	13 16 5 is_stmt 1               ; external/subprocess/subprocess/environ.cpp:16:5
	ldp	x29, x30, [sp, #48]             ; 16-byte Folded Reload
	add	sp, sp, #64
	ret
LBB0_2:
Ltmp2:
Ltmp6:
	.loc	13 16 5 is_stmt 0               ; external/subprocess/subprocess/environ.cpp:16:5
	mov	x9, x0
	ldr	x0, [sp, #8]                    ; 8-byte Folded Reload
	mov	x8, x1
	str	x9, [sp, #24]
	str	w8, [sp, #20]
	bl	__ZNSt3__112basic_stringIcNS_11char_traitsIcEENS_9allocatorIcEEED1Ev
	b	LBB0_3
LBB0_3:
	ldr	x0, [sp, #24]
	bl	__Unwind_Resume
Ltmp7:
Lfunc_end0:
	.cfi_endproc
	.section	__TEXT,__gcc_except_tab
	.p2align	2
GCC_except_table0:
Lexception0:
	.byte	255                             ; @LPStart Encoding = omit
	.byte	255                             ; @TType Encoding = omit
	.byte	1                               ; Call site Encoding = uleb128
	.uleb128 Lcst_end0-Lcst_begin0
Lcst_begin0:
	.uleb128 Ltmp0-Lfunc_begin0             ; >> Call Site 1 <<
	.uleb128 Ltmp1-Ltmp0                    ;   Call between Ltmp0 and Ltmp1
	.uleb128 Ltmp2-Lfunc_begin0             ;     jumps to Ltmp2
	.byte	0                               ;   On action: cleanup
	.uleb128 Ltmp1-Lfunc_begin0             ; >> Call Site 2 <<
	.uleb128 Lfunc_end0-Ltmp1               ;   Call between Ltmp1 and Lfunc_end0
	.byte	0                               ;     has no landing pad
	.byte	0                               ;   On action: cleanup
Lcst_end0:
	.p2align	2
                                        ; -- End function
	.section	__TEXT,__text,regular,pure_instructions
	.p2align	2                               ; -- Begin function _ZNSt3__112basic_stringIcNS_11char_traitsIcEENS_9allocatorIcEEEC1Ev
__ZNSt3__112basic_stringIcNS_11char_traitsIcEENS_9allocatorIcEEEC1Ev: ; @_ZNSt3__112basic_stringIcNS_11char_traitsIcEENS_9allocatorIcEEEC1Ev
Lfunc_begin1:
	.loc	5 1860 0 is_stmt 1              ; /Applications/Xcode.app/Contents/Developer/Platforms/MacOSX.platform/Developer/SDKs/MacOSX13.1.sdk/usr/include/c++/v1/string:1860:0
	.cfi_startproc
; %bb.0:
	sub	sp, sp, #32
	stp	x29, x30, [sp, #16]             ; 16-byte Folded Spill
	add	x29, sp, #16
	.cfi_def_cfa w29, 16
	.cfi_offset w30, -8
	.cfi_offset w29, -16
	str	x0, [sp, #8]
	ldr	x0, [sp, #8]
	str	x0, [sp]                        ; 8-byte Folded Spill
Ltmp8:
	.loc	5 1860 1 prologue_end           ; /Applications/Xcode.app/Contents/Developer/Platforms/MacOSX.platform/Developer/SDKs/MacOSX13.1.sdk/usr/include/c++/v1/string:1860:1
	bl	__ZNSt3__112basic_stringIcNS_11char_traitsIcEENS_9allocatorIcEEEC2Ev
	ldr	x0, [sp]                        ; 8-byte Folded Reload
	.loc	5 1865 1                        ; /Applications/Xcode.app/Contents/Developer/Platforms/MacOSX.platform/Developer/SDKs/MacOSX13.1.sdk/usr/include/c++/v1/string:1865:1
	ldp	x29, x30, [sp, #16]             ; 16-byte Folded Reload
	add	sp, sp, #32
	ret
Ltmp9:
Lfunc_end1:
	.cfi_endproc
                                        ; -- End function
	.globl	__ZN10subprocess13EnvironSetterC1ERKNSt3__112basic_stringIcNS1_11char_traitsIcEENS1_9allocatorIcEEEE ; -- Begin function _ZN10subprocess13EnvironSetterC1ERKNSt3__112basic_stringIcNS1_11char_traitsIcEENS1_9allocatorIcEEEE
	.p2align	2
__ZN10subprocess13EnvironSetterC1ERKNSt3__112basic_stringIcNS1_11char_traitsIcEENS1_9allocatorIcEEEE: ; @_ZN10subprocess13EnvironSetterC1ERKNSt3__112basic_stringIcNS1_11char_traitsIcEENS1_9allocatorIcEEEE
Lfunc_begin2:
	.loc	13 14 0                         ; external/subprocess/subprocess/environ.cpp:14:0
	.cfi_startproc
; %bb.0:
	sub	sp, sp, #48
	stp	x29, x30, [sp, #32]             ; 16-byte Folded Spill
	add	x29, sp, #32
	.cfi_def_cfa w29, 16
	.cfi_offset w30, -8
	.cfi_offset w29, -16
	stur	x0, [x29, #-8]
	str	x1, [sp, #16]
	ldur	x0, [x29, #-8]
	str	x0, [sp, #8]                    ; 8-byte Folded Spill
Ltmp10:
	.loc	13 14 59 prologue_end           ; external/subprocess/subprocess/environ.cpp:14:59
	ldr	x1, [sp, #16]
	bl	__ZN10subprocess13EnvironSetterC2ERKNSt3__112basic_stringIcNS1_11char_traitsIcEENS1_9allocatorIcEEEE
	ldr	x0, [sp, #8]                    ; 8-byte Folded Reload
	.loc	13 16 5                         ; external/subprocess/subprocess/environ.cpp:16:5
	ldp	x29, x30, [sp, #32]             ; 16-byte Folded Reload
	add	sp, sp, #48
	ret
Ltmp11:
Lfunc_end2:
	.cfi_endproc
                                        ; -- End function
	.globl	__ZNK10subprocess13EnvironSettercvbEv ; -- Begin function _ZNK10subprocess13EnvironSettercvbEv
	.p2align	2
__ZNK10subprocess13EnvironSettercvbEv:  ; @_ZNK10subprocess13EnvironSettercvbEv
Lfunc_begin3:
	.loc	13 17 0                         ; external/subprocess/subprocess/environ.cpp:17:0
	.cfi_startproc
; %bb.0:
	sub	sp, sp, #48
	stp	x29, x30, [sp, #32]             ; 16-byte Folded Spill
	add	x29, sp, #32
	.cfi_def_cfa w29, 16
	.cfi_offset w30, -8
	.cfi_offset w29, -16
	str	x0, [sp, #16]
	ldr	x0, [sp, #16]
	str	x0, [sp]                        ; 8-byte Folded Spill
Ltmp12:
	.loc	13 18 19 prologue_end           ; external/subprocess/subprocess/environ.cpp:18:19
	bl	__ZNKSt3__112basic_stringIcNS_11char_traitsIcEENS_9allocatorIcEEE5emptyEv
Ltmp13:
	.loc	13 18 13 is_stmt 0              ; external/subprocess/subprocess/environ.cpp:18:13
	tbz	w0, #0, LBB3_2
	b	LBB3_1
LBB3_1:
	.loc	13 0 13                         ; external/subprocess/subprocess/environ.cpp:0:13
	mov	w8, #0
Ltmp14:
	.loc	13 19 13 is_stmt 1              ; external/subprocess/subprocess/environ.cpp:19:13
	and	w8, w8, #0x1
	and	w8, w8, #0x1
	sturb	w8, [x29, #-1]
	b	LBB3_5
Ltmp15:
LBB3_2:
	.loc	13 0 13 is_stmt 0               ; external/subprocess/subprocess/environ.cpp:0:13
	ldr	x0, [sp]                        ; 8-byte Folded Reload
	.loc	13 20 44 is_stmt 1              ; external/subprocess/subprocess/environ.cpp:20:44
	bl	__ZNKSt3__112basic_stringIcNS_11char_traitsIcEENS_9allocatorIcEEE5c_strEv
	.loc	13 20 29 is_stmt 0              ; external/subprocess/subprocess/environ.cpp:20:29
	bl	_getenv
	.loc	13 20 21                        ; external/subprocess/subprocess/environ.cpp:20:21
	str	x0, [sp, #8]
Ltmp16:
	.loc	13 21 13 is_stmt 1              ; external/subprocess/subprocess/environ.cpp:21:13
	ldr	x8, [sp, #8]
Ltmp17:
	.loc	13 21 13 is_stmt 0              ; external/subprocess/subprocess/environ.cpp:21:13
	cbnz	x8, LBB3_4
	b	LBB3_3
LBB3_3:
	.loc	13 0 13                         ; external/subprocess/subprocess/environ.cpp:0:13
	mov	w8, #0
Ltmp18:
	.loc	13 21 31                        ; external/subprocess/subprocess/environ.cpp:21:31
	and	w8, w8, #0x1
	and	w8, w8, #0x1
	sturb	w8, [x29, #-1]
	b	LBB3_5
Ltmp19:
LBB3_4:
	.loc	13 22 19 is_stmt 1              ; external/subprocess/subprocess/environ.cpp:22:19
	ldr	x8, [sp, #8]
	.loc	13 22 18 is_stmt 0              ; external/subprocess/subprocess/environ.cpp:22:18
	ldrb	w8, [x8]
	subs	w8, w8, #0
	cset	w8, ne
	.loc	13 22 9                         ; external/subprocess/subprocess/environ.cpp:22:9
	and	w8, w8, #0x1
	and	w8, w8, #0x1
	sturb	w8, [x29, #-1]
	b	LBB3_5
LBB3_5:
	.loc	13 23 5 is_stmt 1               ; external/subprocess/subprocess/environ.cpp:23:5
	ldurb	w8, [x29, #-1]
	and	w0, w8, #0x1
	ldp	x29, x30, [sp, #32]             ; 16-byte Folded Reload
	add	sp, sp, #48
	ret
Ltmp20:
Lfunc_end3:
	.cfi_endproc
                                        ; -- End function
	.p2align	2                               ; -- Begin function _ZNKSt3__112basic_stringIcNS_11char_traitsIcEENS_9allocatorIcEEE5emptyEv
__ZNKSt3__112basic_stringIcNS_11char_traitsIcEENS_9allocatorIcEEE5emptyEv: ; @_ZNKSt3__112basic_stringIcNS_11char_traitsIcEENS_9allocatorIcEEE5emptyEv
Lfunc_begin4:
	.loc	5 998 0                         ; /Applications/Xcode.app/Contents/Developer/Platforms/MacOSX.platform/Developer/SDKs/MacOSX13.1.sdk/usr/include/c++/v1/string:998:0
	.cfi_startproc
; %bb.0:
	sub	sp, sp, #32
	stp	x29, x30, [sp, #16]             ; 16-byte Folded Spill
	add	x29, sp, #16
	.cfi_def_cfa w29, 16
	.cfi_offset w30, -8
	.cfi_offset w29, -16
	str	x0, [sp, #8]
	ldr	x0, [sp, #8]
Ltmp21:
	.loc	5 998 41 prologue_end           ; /Applications/Xcode.app/Contents/Developer/Platforms/MacOSX.platform/Developer/SDKs/MacOSX13.1.sdk/usr/include/c++/v1/string:998:41
	bl	__ZNKSt3__112basic_stringIcNS_11char_traitsIcEENS_9allocatorIcEEE4sizeEv
	.loc	5 998 48 is_stmt 0              ; /Applications/Xcode.app/Contents/Developer/Platforms/MacOSX.platform/Developer/SDKs/MacOSX13.1.sdk/usr/include/c++/v1/string:998:48
	subs	x8, x0, #0
	cset	w8, eq
	.loc	5 998 34                        ; /Applications/Xcode.app/Contents/Developer/Platforms/MacOSX.platform/Developer/SDKs/MacOSX13.1.sdk/usr/include/c++/v1/string:998:34
	and	w0, w8, #0x1
	ldp	x29, x30, [sp, #16]             ; 16-byte Folded Reload
	add	sp, sp, #32
	ret
Ltmp22:
Lfunc_end4:
	.cfi_endproc
                                        ; -- End function
	.p2align	2                               ; -- Begin function _ZNKSt3__112basic_stringIcNS_11char_traitsIcEENS_9allocatorIcEEE5c_strEv
__ZNKSt3__112basic_stringIcNS_11char_traitsIcEENS_9allocatorIcEEE5c_strEv: ; @_ZNKSt3__112basic_stringIcNS_11char_traitsIcEENS_9allocatorIcEEE5c_strEv
Lfunc_begin5:
	.loc	5 1263 0 is_stmt 1              ; /Applications/Xcode.app/Contents/Developer/Platforms/MacOSX.platform/Developer/SDKs/MacOSX13.1.sdk/usr/include/c++/v1/string:1263:0
	.cfi_startproc
; %bb.0:
	sub	sp, sp, #32
	stp	x29, x30, [sp, #16]             ; 16-byte Folded Spill
	add	x29, sp, #16
	.cfi_def_cfa w29, 16
	.cfi_offset w30, -8
	.cfi_offset w29, -16
	str	x0, [sp, #8]
	ldr	x0, [sp, #8]
Ltmp23:
	.loc	5 1263 54 prologue_end          ; /Applications/Xcode.app/Contents/Developer/Platforms/MacOSX.platform/Developer/SDKs/MacOSX13.1.sdk/usr/include/c++/v1/string:1263:54
	bl	__ZNKSt3__112basic_stringIcNS_11char_traitsIcEENS_9allocatorIcEEE4dataEv
	.loc	5 1263 47 is_stmt 0             ; /Applications/Xcode.app/Contents/Developer/Platforms/MacOSX.platform/Developer/SDKs/MacOSX13.1.sdk/usr/include/c++/v1/string:1263:47
	ldp	x29, x30, [sp, #16]             ; 16-byte Folded Reload
	add	sp, sp, #32
	ret
Ltmp24:
Lfunc_end5:
	.cfi_endproc
                                        ; -- End function
	.globl	__ZN10subprocess13EnvironSetter9to_stringEv ; -- Begin function _ZN10subprocess13EnvironSetter9to_stringEv
	.p2align	2
__ZN10subprocess13EnvironSetter9to_stringEv: ; @_ZN10subprocess13EnvironSetter9to_stringEv
Lfunc_begin6:
	.loc	13 24 0 is_stmt 1               ; external/subprocess/subprocess/environ.cpp:24:0
	.cfi_startproc
; %bb.0:
	sub	sp, sp, #64
	stp	x29, x30, [sp, #48]             ; 16-byte Folded Spill
	add	x29, sp, #48
	.cfi_def_cfa w29, 16
	.cfi_offset w30, -8
	.cfi_offset w29, -16
	str	x8, [sp, #16]                   ; 8-byte Folded Spill
	stur	x8, [x29, #-8]
	stur	x0, [x29, #-16]
	ldur	x0, [x29, #-16]
Ltmp25:
	.loc	13 25 44 prologue_end           ; external/subprocess/subprocess/environ.cpp:25:44
	bl	__ZNKSt3__112basic_stringIcNS_11char_traitsIcEENS_9allocatorIcEEE5c_strEv
	.loc	13 25 29 is_stmt 0              ; external/subprocess/subprocess/environ.cpp:25:29
	bl	_getenv
	.loc	13 25 21                        ; external/subprocess/subprocess/environ.cpp:25:21
	str	x0, [sp, #24]
	.loc	13 26 16 is_stmt 1              ; external/subprocess/subprocess/environ.cpp:26:16
	ldr	x8, [sp, #24]
	cbz	x8, LBB6_2
	b	LBB6_1
LBB6_1:
	.loc	13 26 23 is_stmt 0              ; external/subprocess/subprocess/environ.cpp:26:23
	ldr	x8, [sp, #24]
	str	x8, [sp, #8]                    ; 8-byte Folded Spill
	.loc	13 26 16                        ; external/subprocess/subprocess/environ.cpp:26:16
	b	LBB6_3
LBB6_2:
	.loc	13 0 0                          ; external/subprocess/subprocess/environ.cpp:0:0
	adrp	x8, l_.str@PAGE
	add	x8, x8, l_.str@PAGEOFF
	str	x8, [sp, #8]                    ; 8-byte Folded Spill
	.loc	13 26 16                        ; external/subprocess/subprocess/environ.cpp:26:16
	b	LBB6_3
LBB6_3:
	.loc	13 0 16                         ; external/subprocess/subprocess/environ.cpp:0:16
	ldr	x0, [sp, #16]                   ; 8-byte Folded Reload
	ldr	x1, [sp, #8]                    ; 8-byte Folded Reload
	.loc	13 26 16                        ; external/subprocess/subprocess/environ.cpp:26:16
	bl	__ZNSt3__112basic_stringIcNS_11char_traitsIcEENS_9allocatorIcEEEC1IDnEEPKc
	.loc	13 26 9                         ; external/subprocess/subprocess/environ.cpp:26:9
	ldp	x29, x30, [sp, #48]             ; 16-byte Folded Reload
	add	sp, sp, #64
	ret
Ltmp26:
Lfunc_end6:
	.cfi_endproc
                                        ; -- End function
	.p2align	2                               ; -- Begin function _ZNSt3__112basic_stringIcNS_11char_traitsIcEENS_9allocatorIcEEEC1IDnEEPKc
__ZNSt3__112basic_stringIcNS_11char_traitsIcEENS_9allocatorIcEEEC1IDnEEPKc: ; @_ZNSt3__112basic_stringIcNS_11char_traitsIcEENS_9allocatorIcEEEC1IDnEEPKc
Lfunc_begin7:
	.loc	5 840 0 is_stmt 1               ; /Applications/Xcode.app/Contents/Developer/Platforms/MacOSX.platform/Developer/SDKs/MacOSX13.1.sdk/usr/include/c++/v1/string:840:0
	.cfi_startproc
; %bb.0:
	sub	sp, sp, #48
	stp	x29, x30, [sp, #32]             ; 16-byte Folded Spill
	add	x29, sp, #32
	.cfi_def_cfa w29, 16
	.cfi_offset w30, -8
	.cfi_offset w29, -16
	stur	x0, [x29, #-8]
	str	x1, [sp, #16]
	ldur	x0, [x29, #-8]
	str	x0, [sp, #8]                    ; 8-byte Folded Spill
Ltmp27:
	.loc	5 840 88 prologue_end           ; /Applications/Xcode.app/Contents/Developer/Platforms/MacOSX.platform/Developer/SDKs/MacOSX13.1.sdk/usr/include/c++/v1/string:840:88
	ldr	x1, [sp, #16]
	bl	__ZNSt3__112basic_stringIcNS_11char_traitsIcEENS_9allocatorIcEEEC2IDnEEPKc
	ldr	x0, [sp, #8]                    ; 8-byte Folded Reload
	.loc	5 846 5                         ; /Applications/Xcode.app/Contents/Developer/Platforms/MacOSX.platform/Developer/SDKs/MacOSX13.1.sdk/usr/include/c++/v1/string:846:5
	ldp	x29, x30, [sp, #32]             ; 16-byte Folded Reload
	add	sp, sp, #48
	ret
Ltmp28:
Lfunc_end7:
	.cfi_endproc
                                        ; -- End function
	.globl	__ZN10subprocess13EnvironSetteraSERKNSt3__112basic_stringIcNS1_11char_traitsIcEENS1_9allocatorIcEEEE ; -- Begin function _ZN10subprocess13EnvironSetteraSERKNSt3__112basic_stringIcNS1_11char_traitsIcEENS1_9allocatorIcEEEE
	.p2align	2
__ZN10subprocess13EnvironSetteraSERKNSt3__112basic_stringIcNS1_11char_traitsIcEENS1_9allocatorIcEEEE: ; @_ZN10subprocess13EnvironSetteraSERKNSt3__112basic_stringIcNS1_11char_traitsIcEENS1_9allocatorIcEEEE
Lfunc_begin8:
	.loc	13 28 0                         ; external/subprocess/subprocess/environ.cpp:28:0
	.cfi_startproc
; %bb.0:
	sub	sp, sp, #48
	stp	x29, x30, [sp, #32]             ; 16-byte Folded Spill
	add	x29, sp, #32
	.cfi_def_cfa w29, 16
	.cfi_offset w30, -8
	.cfi_offset w29, -16
	stur	x0, [x29, #-8]
	str	x1, [sp, #16]
	ldur	x8, [x29, #-8]
	str	x8, [sp, #8]                    ; 8-byte Folded Spill
Ltmp29:
	.loc	13 29 24 prologue_end           ; external/subprocess/subprocess/environ.cpp:29:24
	ldr	x0, [sp, #16]
	.loc	13 29 28 is_stmt 0              ; external/subprocess/subprocess/environ.cpp:29:28
	bl	__ZNKSt3__112basic_stringIcNS_11char_traitsIcEENS_9allocatorIcEEE5c_strEv
	mov	x1, x0
	ldr	x0, [sp, #8]                    ; 8-byte Folded Reload
	.loc	13 29 22                        ; external/subprocess/subprocess/environ.cpp:29:22
	bl	__ZN10subprocess13EnvironSetteraSEPKc
	.loc	13 29 9                         ; external/subprocess/subprocess/environ.cpp:29:9
	ldp	x29, x30, [sp, #32]             ; 16-byte Folded Reload
	add	sp, sp, #48
	ret
Ltmp30:
Lfunc_end8:
	.cfi_endproc
                                        ; -- End function
	.globl	__ZN10subprocess13EnvironSetteraSEPKc ; -- Begin function _ZN10subprocess13EnvironSetteraSEPKc
	.p2align	2
__ZN10subprocess13EnvironSetteraSEPKc:  ; @_ZN10subprocess13EnvironSetteraSEPKc
Lfunc_begin9:
	.loc	13 32 0 is_stmt 1               ; external/subprocess/subprocess/environ.cpp:32:0
	.cfi_startproc
; %bb.0:
	sub	sp, sp, #48
	stp	x29, x30, [sp, #32]             ; 16-byte Folded Spill
	add	x29, sp, #32
	.cfi_def_cfa w29, 16
	.cfi_offset w30, -8
	.cfi_offset w29, -16
	stur	x0, [x29, #-8]
	str	x1, [sp, #16]
	ldur	x0, [x29, #-8]
	str	x0, [sp, #8]                    ; 8-byte Folded Spill
Ltmp31:
	.loc	13 0 0 is_stmt 0                ; external/subprocess/subprocess/environ.cpp:0:0
	adrp	x1, l_.str.1@PAGE
	add	x1, x1, l_.str.1@PAGEOFF
	.loc	13 33 19 prologue_end is_stmt 1 ; external/subprocess/subprocess/environ.cpp:33:19
	bl	__ZNSt3__1eqIcNS_11char_traitsIcEENS_9allocatorIcEEEEbRKNS_12basic_stringIT_T0_T1_EEPKS6_
	.loc	13 33 29 is_stmt 0              ; external/subprocess/subprocess/environ.cpp:33:29
	tbnz	w0, #0, LBB9_3
	b	LBB9_1
LBB9_1:
	.loc	13 0 29                         ; external/subprocess/subprocess/environ.cpp:0:29
	ldr	x0, [sp, #8]                    ; 8-byte Folded Reload
	adrp	x1, l_.str.2@PAGE
	add	x1, x1, l_.str.2@PAGEOFF
	.loc	13 33 38                        ; external/subprocess/subprocess/environ.cpp:33:38
	bl	__ZNSt3__1eqIcNS_11char_traitsIcEENS_9allocatorIcEEEEbRKNS_12basic_stringIT_T0_T1_EEPKS6_
	.loc	13 33 48                        ; external/subprocess/subprocess/environ.cpp:33:48
	tbnz	w0, #0, LBB9_3
	b	LBB9_2
LBB9_2:
	.loc	13 0 48                         ; external/subprocess/subprocess/environ.cpp:0:48
	ldr	x0, [sp, #8]                    ; 8-byte Folded Reload
	adrp	x1, l_.str.3@PAGE
	add	x1, x1, l_.str.3@PAGEOFF
	.loc	13 33 57                        ; external/subprocess/subprocess/environ.cpp:33:57
	bl	__ZNSt3__1eqIcNS_11char_traitsIcEENS_9allocatorIcEEEEbRKNS_12basic_stringIT_T0_T1_EEPKS6_
Ltmp32:
	.loc	13 33 13                        ; external/subprocess/subprocess/environ.cpp:33:13
	tbz	w0, #0, LBB9_4
	b	LBB9_3
LBB9_3:
Ltmp33:
	.loc	13 34 13 is_stmt 1              ; external/subprocess/subprocess/environ.cpp:34:13
	bl	__ZN10subprocess24find_program_clear_cacheEv
	.loc	13 35 9                         ; external/subprocess/subprocess/environ.cpp:35:9
	b	LBB9_4
Ltmp34:
LBB9_4:
	.loc	13 40 13                        ; external/subprocess/subprocess/environ.cpp:40:13
	ldr	x8, [sp, #16]
	.loc	13 40 28 is_stmt 0              ; external/subprocess/subprocess/environ.cpp:40:28
	cbz	x8, LBB9_6
	b	LBB9_5
LBB9_5:
	.loc	13 40 33                        ; external/subprocess/subprocess/environ.cpp:40:33
	ldr	x8, [sp, #16]
	.loc	13 40 32                        ; external/subprocess/subprocess/environ.cpp:40:32
	ldrb	w8, [x8]
Ltmp35:
	.loc	13 40 13                        ; external/subprocess/subprocess/environ.cpp:40:13
	cbnz	w8, LBB9_7
	b	LBB9_6
LBB9_6:
	.loc	13 0 13                         ; external/subprocess/subprocess/environ.cpp:0:13
	ldr	x0, [sp, #8]                    ; 8-byte Folded Reload
Ltmp36:
	.loc	13 41 28 is_stmt 1              ; external/subprocess/subprocess/environ.cpp:41:28
	bl	__ZNKSt3__112basic_stringIcNS_11char_traitsIcEENS_9allocatorIcEEE5c_strEv
	.loc	13 41 13 is_stmt 0              ; external/subprocess/subprocess/environ.cpp:41:13
	bl	_unsetenv
	.loc	13 42 9 is_stmt 1               ; external/subprocess/subprocess/environ.cpp:42:9
	b	LBB9_8
Ltmp37:
LBB9_7:
	.loc	13 0 9 is_stmt 0                ; external/subprocess/subprocess/environ.cpp:0:9
	ldr	x0, [sp, #8]                    ; 8-byte Folded Reload
Ltmp38:
	.loc	13 43 26 is_stmt 1              ; external/subprocess/subprocess/environ.cpp:43:26
	bl	__ZNKSt3__112basic_stringIcNS_11char_traitsIcEENS_9allocatorIcEEE5c_strEv
	.loc	13 43 35 is_stmt 0              ; external/subprocess/subprocess/environ.cpp:43:35
	ldr	x1, [sp, #16]
	mov	w2, #1
	.loc	13 43 13                        ; external/subprocess/subprocess/environ.cpp:43:13
	bl	_setenv
	b	LBB9_8
Ltmp39:
LBB9_8:
	.loc	13 0 13                         ; external/subprocess/subprocess/environ.cpp:0:13
	ldr	x0, [sp, #8]                    ; 8-byte Folded Reload
	.loc	13 46 9 is_stmt 1               ; external/subprocess/subprocess/environ.cpp:46:9
	ldp	x29, x30, [sp, #32]             ; 16-byte Folded Reload
	add	sp, sp, #48
	ret
Ltmp40:
Lfunc_end9:
	.cfi_endproc
                                        ; -- End function
	.p2align	2                               ; -- Begin function _ZNSt3__1eqIcNS_11char_traitsIcEENS_9allocatorIcEEEEbRKNS_12basic_stringIT_T0_T1_EEPKS6_
__ZNSt3__1eqIcNS_11char_traitsIcEENS_9allocatorIcEEEEbRKNS_12basic_stringIT_T0_T1_EEPKS6_: ; @_ZNSt3__1eqIcNS_11char_traitsIcEENS_9allocatorIcEEEEbRKNS_12basic_stringIT_T0_T1_EEPKS6_
Lfunc_begin10:
	.loc	5 4119 0                        ; /Applications/Xcode.app/Contents/Developer/Platforms/MacOSX.platform/Developer/SDKs/MacOSX13.1.sdk/usr/include/c++/v1/string:4119:0
	.cfi_startproc
	.cfi_personality 155, ___gxx_personality_v0
	.cfi_lsda 16, Lexception1
; %bb.0:
	sub	sp, sp, #64
	stp	x29, x30, [sp, #48]             ; 16-byte Folded Spill
	add	x29, sp, #48
	.cfi_def_cfa w29, 16
	.cfi_offset w30, -8
	.cfi_offset w29, -16
	stur	x0, [x29, #-16]
	str	x1, [sp, #24]
Ltmp44:
	.loc	5 4122 40 prologue_end          ; /Applications/Xcode.app/Contents/Developer/Platforms/MacOSX.platform/Developer/SDKs/MacOSX13.1.sdk/usr/include/c++/v1/string:4122:40
	ldr	x0, [sp, #24]
	.loc	5 4122 24 is_stmt 0             ; /Applications/Xcode.app/Contents/Developer/Platforms/MacOSX.platform/Developer/SDKs/MacOSX13.1.sdk/usr/include/c++/v1/string:4122:24
	bl	__ZNSt3__111char_traitsIcE6lengthEPKc
	.loc	5 4122 12                       ; /Applications/Xcode.app/Contents/Developer/Platforms/MacOSX.platform/Developer/SDKs/MacOSX13.1.sdk/usr/include/c++/v1/string:4122:12
	str	x0, [sp, #16]
Ltmp45:
	.loc	5 4123 9 is_stmt 1              ; /Applications/Xcode.app/Contents/Developer/Platforms/MacOSX.platform/Developer/SDKs/MacOSX13.1.sdk/usr/include/c++/v1/string:4123:9
	ldr	x8, [sp, #16]
	str	x8, [sp, #8]                    ; 8-byte Folded Spill
	.loc	5 4123 22 is_stmt 0             ; /Applications/Xcode.app/Contents/Developer/Platforms/MacOSX.platform/Developer/SDKs/MacOSX13.1.sdk/usr/include/c++/v1/string:4123:22
	ldur	x0, [x29, #-16]
	.loc	5 4123 28                       ; /Applications/Xcode.app/Contents/Developer/Platforms/MacOSX.platform/Developer/SDKs/MacOSX13.1.sdk/usr/include/c++/v1/string:4123:28
	bl	__ZNKSt3__112basic_stringIcNS_11char_traitsIcEENS_9allocatorIcEEE4sizeEv
	ldr	x8, [sp, #8]                    ; 8-byte Folded Reload
Ltmp46:
	.loc	5 4123 9                        ; /Applications/Xcode.app/Contents/Developer/Platforms/MacOSX.platform/Developer/SDKs/MacOSX13.1.sdk/usr/include/c++/v1/string:4123:9
	subs	x8, x8, x0
	b.eq	LBB10_2
	b	LBB10_1
LBB10_1:
	.loc	5 0 9                           ; /Applications/Xcode.app/Contents/Developer/Platforms/MacOSX.platform/Developer/SDKs/MacOSX13.1.sdk/usr/include/c++/v1/string:0:9
	mov	w8, #0
Ltmp47:
	.loc	5 4123 36                       ; /Applications/Xcode.app/Contents/Developer/Platforms/MacOSX.platform/Developer/SDKs/MacOSX13.1.sdk/usr/include/c++/v1/string:4123:36
	and	w8, w8, #0x1
	and	w8, w8, #0x1
	sturb	w8, [x29, #-1]
	b	LBB10_4
Ltmp48:
LBB10_2:
	.loc	5 4124 12 is_stmt 1             ; /Applications/Xcode.app/Contents/Developer/Platforms/MacOSX.platform/Developer/SDKs/MacOSX13.1.sdk/usr/include/c++/v1/string:4124:12
	ldur	x0, [x29, #-16]
	.loc	5 4124 44 is_stmt 0             ; /Applications/Xcode.app/Contents/Developer/Platforms/MacOSX.platform/Developer/SDKs/MacOSX13.1.sdk/usr/include/c++/v1/string:4124:44
	ldr	x3, [sp, #24]
	.loc	5 4124 51                       ; /Applications/Xcode.app/Contents/Developer/Platforms/MacOSX.platform/Developer/SDKs/MacOSX13.1.sdk/usr/include/c++/v1/string:4124:51
	ldr	x4, [sp, #16]
Ltmp41:
	mov	x1, #0
	mov	x2, #-1
	.loc	5 4124 18                       ; /Applications/Xcode.app/Contents/Developer/Platforms/MacOSX.platform/Developer/SDKs/MacOSX13.1.sdk/usr/include/c++/v1/string:4124:18
	bl	__ZNKSt3__112basic_stringIcNS_11char_traitsIcEENS_9allocatorIcEEE7compareEmmPKcm
	str	w0, [sp, #4]                    ; 4-byte Folded Spill
Ltmp42:
	b	LBB10_3
LBB10_3:
	.loc	5 0 18                          ; /Applications/Xcode.app/Contents/Developer/Platforms/MacOSX.platform/Developer/SDKs/MacOSX13.1.sdk/usr/include/c++/v1/string:0:18
	ldr	w8, [sp, #4]                    ; 4-byte Folded Reload
	.loc	5 4124 62                       ; /Applications/Xcode.app/Contents/Developer/Platforms/MacOSX.platform/Developer/SDKs/MacOSX13.1.sdk/usr/include/c++/v1/string:4124:62
	subs	w8, w8, #0
	cset	w8, eq
	.loc	5 4124 5                        ; /Applications/Xcode.app/Contents/Developer/Platforms/MacOSX.platform/Developer/SDKs/MacOSX13.1.sdk/usr/include/c++/v1/string:4124:5
	and	w8, w8, #0x1
	and	w8, w8, #0x1
	sturb	w8, [x29, #-1]
	b	LBB10_4
LBB10_4:
	.loc	5 4125 1 is_stmt 1              ; /Applications/Xcode.app/Contents/Developer/Platforms/MacOSX.platform/Developer/SDKs/MacOSX13.1.sdk/usr/include/c++/v1/string:4125:1
	ldurb	w8, [x29, #-1]
	and	w0, w8, #0x1
	ldp	x29, x30, [sp, #48]             ; 16-byte Folded Reload
	add	sp, sp, #64
	ret
LBB10_5:
Ltmp43:
	.loc	5 4124 18                       ; /Applications/Xcode.app/Contents/Developer/Platforms/MacOSX.platform/Developer/SDKs/MacOSX13.1.sdk/usr/include/c++/v1/string:4124:18
	bl	___clang_call_terminate
Ltmp49:
Lfunc_end10:
	.cfi_endproc
	.section	__TEXT,__gcc_except_tab
	.p2align	2
GCC_except_table10:
Lexception1:
	.byte	255                             ; @LPStart Encoding = omit
	.byte	155                             ; @TType Encoding = indirect pcrel sdata4
	.uleb128 Lttbase0-Lttbaseref0
Lttbaseref0:
	.byte	1                               ; Call site Encoding = uleb128
	.uleb128 Lcst_end1-Lcst_begin1
Lcst_begin1:
	.uleb128 Ltmp41-Lfunc_begin10           ; >> Call Site 1 <<
	.uleb128 Ltmp42-Ltmp41                  ;   Call between Ltmp41 and Ltmp42
	.uleb128 Ltmp43-Lfunc_begin10           ;     jumps to Ltmp43
	.byte	1                               ;   On action: 1
Lcst_end1:
	.byte	1                               ; >> Action Record 1 <<
                                        ;   Catch TypeInfo 1
	.byte	0                               ;   No further actions
	.p2align	2
                                        ; >> Catch TypeInfos <<
	.long	0                               ; TypeInfo 1
Lttbase0:
	.p2align	2
                                        ; -- End function
	.section	__TEXT,__text,regular,pure_instructions
	.globl	__ZN10subprocess13EnvironSetteraSEi ; -- Begin function _ZN10subprocess13EnvironSetteraSEi
	.p2align	2
__ZN10subprocess13EnvironSetteraSEi:    ; @_ZN10subprocess13EnvironSetteraSEi
Lfunc_begin11:
	.loc	13 48 0                         ; external/subprocess/subprocess/environ.cpp:48:0
	.cfi_startproc
	.cfi_personality 155, ___gxx_personality_v0
	.cfi_lsda 16, Lexception2
; %bb.0:
	sub	sp, sp, #96
	stp	x29, x30, [sp, #80]             ; 16-byte Folded Spill
	add	x29, sp, #80
	.cfi_def_cfa w29, 16
	.cfi_offset w30, -8
	.cfi_offset w29, -16
	stur	x0, [x29, #-8]
	stur	w1, [x29, #-12]
	ldur	x8, [x29, #-8]
	str	x8, [sp]                        ; 8-byte Folded Spill
Ltmp53:
	.loc	13 49 39 prologue_end           ; external/subprocess/subprocess/environ.cpp:49:39
	ldur	w0, [x29, #-12]
	add	x8, sp, #40
	str	x8, [sp, #8]                    ; 8-byte Folded Spill
	.loc	13 49 24 is_stmt 0              ; external/subprocess/subprocess/environ.cpp:49:24
	bl	__ZNSt3__19to_stringEi
	ldr	x0, [sp]                        ; 8-byte Folded Reload
	ldr	x1, [sp, #8]                    ; 8-byte Folded Reload
Ltmp50:
	.loc	13 49 22                        ; external/subprocess/subprocess/environ.cpp:49:22
	bl	__ZN10subprocess13EnvironSetteraSERKNSt3__112basic_stringIcNS1_11char_traitsIcEENS1_9allocatorIcEEEE
	str	x0, [sp, #16]                   ; 8-byte Folded Spill
Ltmp51:
	b	LBB11_1
LBB11_1:
	.loc	13 0 22                         ; external/subprocess/subprocess/environ.cpp:0:22
	add	x0, sp, #40
	.loc	13 49 9                         ; external/subprocess/subprocess/environ.cpp:49:9
	bl	__ZNSt3__112basic_stringIcNS_11char_traitsIcEENS_9allocatorIcEEED1Ev
	ldr	x0, [sp, #16]                   ; 8-byte Folded Reload
	ldp	x29, x30, [sp, #80]             ; 16-byte Folded Reload
	add	sp, sp, #96
	ret
LBB11_2:
Ltmp52:
	.loc	13 50 5 is_stmt 1               ; external/subprocess/subprocess/environ.cpp:50:5
	mov	x8, x1
	str	x0, [sp, #32]
	str	w8, [sp, #28]
	add	x0, sp, #40
	.loc	13 49 9                         ; external/subprocess/subprocess/environ.cpp:49:9
	bl	__ZNSt3__112basic_stringIcNS_11char_traitsIcEENS_9allocatorIcEEED1Ev
	b	LBB11_3
LBB11_3:
	ldr	x0, [sp, #32]
	bl	__Unwind_Resume
Ltmp54:
Lfunc_end11:
	.cfi_endproc
	.section	__TEXT,__gcc_except_tab
	.p2align	2
GCC_except_table11:
Lexception2:
	.byte	255                             ; @LPStart Encoding = omit
	.byte	255                             ; @TType Encoding = omit
	.byte	1                               ; Call site Encoding = uleb128
	.uleb128 Lcst_end2-Lcst_begin2
Lcst_begin2:
	.uleb128 Lfunc_begin11-Lfunc_begin11    ; >> Call Site 1 <<
	.uleb128 Ltmp50-Lfunc_begin11           ;   Call between Lfunc_begin11 and Ltmp50
	.byte	0                               ;     has no landing pad
	.byte	0                               ;   On action: cleanup
	.uleb128 Ltmp50-Lfunc_begin11           ; >> Call Site 2 <<
	.uleb128 Ltmp51-Ltmp50                  ;   Call between Ltmp50 and Ltmp51
	.uleb128 Ltmp52-Lfunc_begin11           ;     jumps to Ltmp52
	.byte	0                               ;   On action: cleanup
	.uleb128 Ltmp51-Lfunc_begin11           ; >> Call Site 3 <<
	.uleb128 Lfunc_end11-Ltmp51             ;   Call between Ltmp51 and Lfunc_end11
	.byte	0                               ;     has no landing pad
	.byte	0                               ;   On action: cleanup
Lcst_end2:
	.p2align	2
                                        ; -- End function
	.section	__TEXT,__text,regular,pure_instructions
	.globl	__ZN10subprocess13EnvironSetteraSEb ; -- Begin function _ZN10subprocess13EnvironSetteraSEb
	.p2align	2
__ZN10subprocess13EnvironSetteraSEb:    ; @_ZN10subprocess13EnvironSetteraSEb
Lfunc_begin12:
	.loc	13 51 0                         ; external/subprocess/subprocess/environ.cpp:51:0
	.cfi_startproc
; %bb.0:
	sub	sp, sp, #48
	stp	x29, x30, [sp, #32]             ; 16-byte Folded Spill
	add	x29, sp, #32
	.cfi_def_cfa w29, 16
	.cfi_offset w30, -8
	.cfi_offset w29, -16
	stur	x0, [x29, #-8]
	mov	w8, #1
	and	w8, w1, w8
	sturb	w8, [x29, #-9]
	ldur	x8, [x29, #-8]
	str	x8, [sp, #8]                    ; 8-byte Folded Spill
Ltmp55:
	.loc	13 52 24 prologue_end           ; external/subprocess/subprocess/environ.cpp:52:24
	ldurb	w8, [x29, #-9]
	tbz	w8, #0, LBB12_2
	b	LBB12_1
LBB12_1:
	.loc	13 0 0 is_stmt 0                ; external/subprocess/subprocess/environ.cpp:0:0
	adrp	x8, l_.str.4@PAGE
	add	x8, x8, l_.str.4@PAGEOFF
	str	x8, [sp]                        ; 8-byte Folded Spill
	.loc	13 52 24                        ; external/subprocess/subprocess/environ.cpp:52:24
	b	LBB12_3
LBB12_2:
	.loc	13 0 0                          ; external/subprocess/subprocess/environ.cpp:0:0
	adrp	x8, l_.str.5@PAGE
	add	x8, x8, l_.str.5@PAGEOFF
	str	x8, [sp]                        ; 8-byte Folded Spill
	.loc	13 52 24                        ; external/subprocess/subprocess/environ.cpp:52:24
	b	LBB12_3
LBB12_3:
	.loc	13 0 24                         ; external/subprocess/subprocess/environ.cpp:0:24
	ldr	x0, [sp, #8]                    ; 8-byte Folded Reload
	ldr	x1, [sp]                        ; 8-byte Folded Reload
	.loc	13 52 22                        ; external/subprocess/subprocess/environ.cpp:52:22
	bl	__ZN10subprocess13EnvironSetteraSEPKc
	.loc	13 52 9                         ; external/subprocess/subprocess/environ.cpp:52:9
	ldp	x29, x30, [sp, #32]             ; 16-byte Folded Reload
	add	sp, sp, #48
	ret
Ltmp56:
Lfunc_end12:
	.cfi_endproc
                                        ; -- End function
	.globl	__ZN10subprocess13EnvironSetteraSEf ; -- Begin function _ZN10subprocess13EnvironSetteraSEf
	.p2align	2
__ZN10subprocess13EnvironSetteraSEf:    ; @_ZN10subprocess13EnvironSetteraSEf
Lfunc_begin13:
	.loc	13 54 0 is_stmt 1               ; external/subprocess/subprocess/environ.cpp:54:0
	.cfi_startproc
	.cfi_personality 155, ___gxx_personality_v0
	.cfi_lsda 16, Lexception3
; %bb.0:
	sub	sp, sp, #96
	stp	x29, x30, [sp, #80]             ; 16-byte Folded Spill
	add	x29, sp, #80
	.cfi_def_cfa w29, 16
	.cfi_offset w30, -8
	.cfi_offset w29, -16
	stur	x0, [x29, #-8]
	stur	s0, [x29, #-12]
	ldur	x8, [x29, #-8]
	str	x8, [sp]                        ; 8-byte Folded Spill
Ltmp60:
	.loc	13 55 39 prologue_end           ; external/subprocess/subprocess/environ.cpp:55:39
	ldur	s0, [x29, #-12]
	add	x8, sp, #40
	str	x8, [sp, #8]                    ; 8-byte Folded Spill
	.loc	13 55 24 is_stmt 0              ; external/subprocess/subprocess/environ.cpp:55:24
	bl	__ZNSt3__19to_stringEf
	ldr	x0, [sp]                        ; 8-byte Folded Reload
	ldr	x1, [sp, #8]                    ; 8-byte Folded Reload
Ltmp57:
	.loc	13 55 22                        ; external/subprocess/subprocess/environ.cpp:55:22
	bl	__ZN10subprocess13EnvironSetteraSERKNSt3__112basic_stringIcNS1_11char_traitsIcEENS1_9allocatorIcEEEE
	str	x0, [sp, #16]                   ; 8-byte Folded Spill
Ltmp58:
	b	LBB13_1
LBB13_1:
	.loc	13 0 22                         ; external/subprocess/subprocess/environ.cpp:0:22
	add	x0, sp, #40
	.loc	13 55 9                         ; external/subprocess/subprocess/environ.cpp:55:9
	bl	__ZNSt3__112basic_stringIcNS_11char_traitsIcEENS_9allocatorIcEEED1Ev
	ldr	x0, [sp, #16]                   ; 8-byte Folded Reload
	ldp	x29, x30, [sp, #80]             ; 16-byte Folded Reload
	add	sp, sp, #96
	ret
LBB13_2:
Ltmp59:
	.loc	13 56 5 is_stmt 1               ; external/subprocess/subprocess/environ.cpp:56:5
	mov	x8, x1
	str	x0, [sp, #32]
	str	w8, [sp, #28]
	add	x0, sp, #40
	.loc	13 55 9                         ; external/subprocess/subprocess/environ.cpp:55:9
	bl	__ZNSt3__112basic_stringIcNS_11char_traitsIcEENS_9allocatorIcEEED1Ev
	b	LBB13_3
LBB13_3:
	ldr	x0, [sp, #32]
	bl	__Unwind_Resume
Ltmp61:
Lfunc_end13:
	.cfi_endproc
	.section	__TEXT,__gcc_except_tab
	.p2align	2
GCC_except_table13:
Lexception3:
	.byte	255                             ; @LPStart Encoding = omit
	.byte	255                             ; @TType Encoding = omit
	.byte	1                               ; Call site Encoding = uleb128
	.uleb128 Lcst_end3-Lcst_begin3
Lcst_begin3:
	.uleb128 Lfunc_begin13-Lfunc_begin13    ; >> Call Site 1 <<
	.uleb128 Ltmp57-Lfunc_begin13           ;   Call between Lfunc_begin13 and Ltmp57
	.byte	0                               ;     has no landing pad
	.byte	0                               ;   On action: cleanup
	.uleb128 Ltmp57-Lfunc_begin13           ; >> Call Site 2 <<
	.uleb128 Ltmp58-Ltmp57                  ;   Call between Ltmp57 and Ltmp58
	.uleb128 Ltmp59-Lfunc_begin13           ;     jumps to Ltmp59
	.byte	0                               ;   On action: cleanup
	.uleb128 Ltmp58-Lfunc_begin13           ; >> Call Site 3 <<
	.uleb128 Lfunc_end13-Ltmp58             ;   Call between Ltmp58 and Lfunc_end13
	.byte	0                               ;     has no landing pad
	.byte	0                               ;   On action: cleanup
Lcst_end3:
	.p2align	2
                                        ; -- End function
	.section	__TEXT,__text,regular,pure_instructions
	.globl	__ZN10subprocess7EnvironixERKNSt3__112basic_stringIcNS1_11char_traitsIcEENS1_9allocatorIcEEEE ; -- Begin function _ZN10subprocess7EnvironixERKNSt3__112basic_stringIcNS1_11char_traitsIcEENS1_9allocatorIcEEEE
	.p2align	2
__ZN10subprocess7EnvironixERKNSt3__112basic_stringIcNS1_11char_traitsIcEENS1_9allocatorIcEEEE: ; @_ZN10subprocess7EnvironixERKNSt3__112basic_stringIcNS1_11char_traitsIcEENS1_9allocatorIcEEEE
Lfunc_begin14:
	.loc	13 59 0                         ; external/subprocess/subprocess/environ.cpp:59:0
	.cfi_startproc
; %bb.0:
	sub	sp, sp, #48
	stp	x29, x30, [sp, #32]             ; 16-byte Folded Spill
	add	x29, sp, #32
	.cfi_def_cfa w29, 16
	.cfi_offset w30, -8
	.cfi_offset w29, -16
	str	x8, [sp]                        ; 8-byte Folded Spill
	mov	x8, x0
	ldr	x0, [sp]                        ; 8-byte Folded Reload
	mov	x9, x0
	stur	x9, [x29, #-8]
	str	x8, [sp, #16]
	str	x1, [sp, #8]
Ltmp62:
	.loc	13 60 17 prologue_end           ; external/subprocess/subprocess/environ.cpp:60:17
	ldr	x1, [sp, #8]
	.loc	13 60 16 is_stmt 0              ; external/subprocess/subprocess/environ.cpp:60:16
	bl	__ZN10subprocess13EnvironSetterC1ERKNSt3__112basic_stringIcNS1_11char_traitsIcEENS1_9allocatorIcEEEE
	.loc	13 60 9                         ; external/subprocess/subprocess/environ.cpp:60:9
	ldp	x29, x30, [sp, #32]             ; 16-byte Folded Reload
	add	sp, sp, #48
	ret
Ltmp63:
Lfunc_end14:
	.cfi_endproc
                                        ; -- End function
	.globl	__ZN10subprocess8EnvGuardD2Ev   ; -- Begin function _ZN10subprocess8EnvGuardD2Ev
	.p2align	2
__ZN10subprocess8EnvGuardD2Ev:          ; @_ZN10subprocess8EnvGuardD2Ev
Lfunc_begin15:
	.loc	13 64 0 is_stmt 1               ; external/subprocess/subprocess/environ.cpp:64:0
	.cfi_startproc
	.cfi_personality 155, ___gxx_personality_v0
	.cfi_lsda 16, Lexception4
; %bb.0:
	sub	sp, sp, #352
	stp	x28, x27, [sp, #320]            ; 16-byte Folded Spill
	stp	x29, x30, [sp, #336]            ; 16-byte Folded Spill
	add	x29, sp, #336
	.cfi_def_cfa w29, 16
	.cfi_offset w30, -8
	.cfi_offset w29, -16
	.cfi_offset w27, -24
	.cfi_offset w28, -32
	stur	x0, [x29, #-32]
	ldur	x8, [x29, #-32]
	str	x8, [sp, #104]                  ; 8-byte Folded Spill
	stur	x8, [x29, #-24]
Ltmp64:
	sub	x8, x29, #56
Ltmp105:
	.loc	13 65 24 prologue_end           ; external/subprocess/subprocess/environ.cpp:65:24
	bl	__ZN10subprocess16current_env_copyEv
Ltmp65:
	b	LBB15_1
LBB15_1:
	.loc	13 0 24 is_stmt 0               ; external/subprocess/subprocess/environ.cpp:0:24
	sub	x8, x29, #56
Ltmp106:
	.loc	13 66 25 is_stmt 1              ; external/subprocess/subprocess/environ.cpp:66:25
	stur	x8, [x29, #-80]
	.loc	13 66 23 is_stmt 0              ; external/subprocess/subprocess/environ.cpp:66:23
	ldur	x0, [x29, #-80]
	bl	__ZNSt3__13mapINS_12basic_stringIcNS_11char_traitsIcEENS_9allocatorIcEEEES6_NS_4lessIS6_EENS4_INS_4pairIKS6_S6_EEEEE5beginEv
	stur	x0, [x29, #-88]
	ldur	x0, [x29, #-80]
	bl	__ZNSt3__13mapINS_12basic_stringIcNS_11char_traitsIcEENS_9allocatorIcEEEES6_NS_4lessIS6_EENS4_INS_4pairIKS6_S6_EEEEE3endEv
	stur	x0, [x29, #-96]
	b	LBB15_2
LBB15_2:                                ; =>This Inner Loop Header: Depth=1
Ltmp67:
	.loc	13 0 23                         ; external/subprocess/subprocess/environ.cpp:0:23
	sub	x0, x29, #88
	sub	x1, x29, #96
	.loc	13 66 23                        ; external/subprocess/subprocess/environ.cpp:66:23
	bl	__ZNSt3__1neERKNS_14__map_iteratorINS_15__tree_iteratorINS_12__value_typeINS_12basic_stringIcNS_11char_traitsIcEENS_9allocatorIcEEEES8_EEPNS_11__tree_nodeIS9_PvEElEEEESH_
	str	w0, [sp, #100]                  ; 4-byte Folded Spill
Ltmp68:
	b	LBB15_3
LBB15_3:                                ;   in Loop: Header=BB15_2 Depth=1
	.loc	13 0 23                         ; external/subprocess/subprocess/environ.cpp:0:23
	ldr	w8, [sp, #100]                  ; 4-byte Folded Reload
	.loc	13 66 23                        ; external/subprocess/subprocess/environ.cpp:66:23
	tbz	w8, #0, LBB15_26
	b	LBB15_4
LBB15_4:                                ;   in Loop: Header=BB15_2 Depth=1
Ltmp80:
	.loc	13 0 23                         ; external/subprocess/subprocess/environ.cpp:0:23
	sub	x0, x29, #88
Ltmp107:
	.loc	13 66 23                        ; external/subprocess/subprocess/environ.cpp:66:23
	bl	__ZNKSt3__114__map_iteratorINS_15__tree_iteratorINS_12__value_typeINS_12basic_stringIcNS_11char_traitsIcEENS_9allocatorIcEEEES8_EEPNS_11__tree_nodeIS9_PvEElEEEdeEv
	str	x0, [sp, #88]                   ; 8-byte Folded Spill
Ltmp81:
	b	LBB15_5
LBB15_5:                                ;   in Loop: Header=BB15_2 Depth=1
	.loc	13 0 23                         ; external/subprocess/subprocess/environ.cpp:0:23
	ldr	x8, [sp, #104]                  ; 8-byte Folded Reload
	ldr	x9, [sp, #88]                   ; 8-byte Folded Reload
	.loc	13 66 19                        ; external/subprocess/subprocess/environ.cpp:66:19
	stur	x9, [x29, #-104]
Ltmp108:
	.loc	13 67 23 is_stmt 1              ; external/subprocess/subprocess/environ.cpp:67:23
	add	x0, x8, #24
	.loc	13 67 33 is_stmt 0              ; external/subprocess/subprocess/environ.cpp:67:33
	ldur	x1, [x29, #-104]
Ltmp82:
	.loc	13 67 28                        ; external/subprocess/subprocess/environ.cpp:67:28
	bl	__ZNSt3__13mapINS_12basic_stringIcNS_11char_traitsIcEENS_9allocatorIcEEEES6_NS_4lessIS6_EENS4_INS_4pairIKS6_S6_EEEEE4findERSA_
	str	x0, [sp, #80]                   ; 8-byte Folded Spill
Ltmp83:
	b	LBB15_6
LBB15_6:                                ;   in Loop: Header=BB15_2 Depth=1
	.loc	13 0 28                         ; external/subprocess/subprocess/environ.cpp:0:28
	ldr	x8, [sp, #104]                  ; 8-byte Folded Reload
	ldr	x9, [sp, #80]                   ; 8-byte Folded Reload
	sub	x10, x29, #112
	str	x10, [sp, #64]                  ; 8-byte Folded Spill
	.loc	13 67 28                        ; external/subprocess/subprocess/environ.cpp:67:28
	stur	x9, [x29, #-112]
Ltmp109:
	.loc	13 68 23 is_stmt 1              ; external/subprocess/subprocess/environ.cpp:68:23
	add	x0, x8, #24
	.loc	13 68 28 is_stmt 0              ; external/subprocess/subprocess/environ.cpp:68:28
	bl	__ZNSt3__13mapINS_12basic_stringIcNS_11char_traitsIcEENS_9allocatorIcEEEES6_NS_4lessIS6_EENS4_INS_4pairIKS6_S6_EEEEE3endEv
	mov	x8, x0
	ldr	x0, [sp, #64]                   ; 8-byte Folded Reload
	sub	x1, x29, #120
	stur	x8, [x29, #-120]
Ltmp84:
	.loc	13 68 20                        ; external/subprocess/subprocess/environ.cpp:68:20
	bl	__ZNSt3__1eqERKNS_14__map_iteratorINS_15__tree_iteratorINS_12__value_typeINS_12basic_stringIcNS_11char_traitsIcEENS_9allocatorIcEEEES8_EEPNS_11__tree_nodeIS9_PvEElEEEESH_
	str	w0, [sp, #76]                   ; 4-byte Folded Spill
Ltmp85:
	b	LBB15_7
Ltmp110:
LBB15_7:                                ;   in Loop: Header=BB15_2 Depth=1
	.loc	13 0 20                         ; external/subprocess/subprocess/environ.cpp:0:20
	ldr	w8, [sp, #76]                   ; 4-byte Folded Reload
	.loc	13 68 17                        ; external/subprocess/subprocess/environ.cpp:68:17
	tbz	w8, #0, LBB15_14
	b	LBB15_8
LBB15_8:                                ;   in Loop: Header=BB15_2 Depth=1
Ltmp111:
	.loc	13 69 22 is_stmt 1              ; external/subprocess/subprocess/environ.cpp:69:22
	ldur	x1, [x29, #-104]
Ltmp97:
	sub	x8, x29, #144
Ltmp112:
	.loc	13 0 0 is_stmt 0                ; external/subprocess/subprocess/environ.cpp:0:0
	adrp	x0, __ZN10subprocess4cenvE@PAGE
	add	x0, x0, __ZN10subprocess4cenvE@PAGEOFF
Ltmp113:
	.loc	13 69 17                        ; external/subprocess/subprocess/environ.cpp:69:17
	bl	__ZN10subprocess7EnvironixERKNSt3__112basic_stringIcNS1_11char_traitsIcEENS1_9allocatorIcEEEE
Ltmp98:
	b	LBB15_9
LBB15_9:                                ;   in Loop: Header=BB15_2 Depth=1
Ltmp99:
	.loc	13 0 17                         ; external/subprocess/subprocess/environ.cpp:0:17
	sub	x0, x29, #144
	mov	x1, #0
	.loc	13 69 33                        ; external/subprocess/subprocess/environ.cpp:69:33
	bl	__ZN10subprocess13EnvironSetteraSEDn
Ltmp100:
	b	LBB15_10
LBB15_10:                               ;   in Loop: Header=BB15_2 Depth=1
	.loc	13 0 33                         ; external/subprocess/subprocess/environ.cpp:0:33
	sub	x0, x29, #144
	.loc	13 69 17                        ; external/subprocess/subprocess/environ.cpp:69:17
	bl	__ZN10subprocess13EnvironSetterD1Ev
	.loc	13 70 13 is_stmt 1              ; external/subprocess/subprocess/environ.cpp:70:13
	b	LBB15_23
Ltmp114:
LBB15_11:
Ltmp66:
	.loc	13 77 5                         ; external/subprocess/subprocess/environ.cpp:77:5
	mov	x8, x1
	stur	x0, [x29, #-64]
	stur	w8, [x29, #-68]
	b	LBB15_38
LBB15_12:
Ltmp104:
Ltmp115:
	.loc	13 77 5 is_stmt 0               ; external/subprocess/subprocess/environ.cpp:77:5
	mov	x8, x1
	stur	x0, [x29, #-64]
	stur	w8, [x29, #-68]
	b	LBB15_37
LBB15_13:
Ltmp101:
Ltmp116:
	.loc	13 77 5                         ; external/subprocess/subprocess/environ.cpp:77:5
	mov	x8, x1
	stur	x0, [x29, #-64]
	stur	w8, [x29, #-68]
	sub	x0, x29, #144
	.loc	13 69 17 is_stmt 1              ; external/subprocess/subprocess/environ.cpp:69:17
	bl	__ZN10subprocess13EnvironSetterD1Ev
	b	LBB15_37
Ltmp117:
LBB15_14:                               ;   in Loop: Header=BB15_2 Depth=1
	.loc	13 70 24                        ; external/subprocess/subprocess/environ.cpp:70:24
	ldur	x8, [x29, #-104]
	.loc	13 70 28 is_stmt 0              ; external/subprocess/subprocess/environ.cpp:70:28
	add	x8, x8, #24
	str	x8, [sp, #48]                   ; 8-byte Folded Spill
Ltmp86:
	sub	x0, x29, #112
	.loc	13 70 38                        ; external/subprocess/subprocess/environ.cpp:70:38
	bl	__ZNKSt3__114__map_iteratorINS_15__tree_iteratorINS_12__value_typeINS_12basic_stringIcNS_11char_traitsIcEENS_9allocatorIcEEEES8_EEPNS_11__tree_nodeIS9_PvEElEEEptEv
	str	x0, [sp, #56]                   ; 8-byte Folded Spill
Ltmp87:
	b	LBB15_15
LBB15_15:                               ;   in Loop: Header=BB15_2 Depth=1
	.loc	13 0 38                         ; external/subprocess/subprocess/environ.cpp:0:38
	ldr	x0, [sp, #48]                   ; 8-byte Folded Reload
	ldr	x8, [sp, #56]                   ; 8-byte Folded Reload
	.loc	13 70 42                        ; external/subprocess/subprocess/environ.cpp:70:42
	add	x1, x8, #24
	.loc	13 70 35                        ; external/subprocess/subprocess/environ.cpp:70:35
	bl	__ZNSt3__1neIcNS_11char_traitsIcEENS_9allocatorIcEEEEbRKNS_12basic_stringIT_T0_T1_EESB_
Ltmp118:
	.loc	13 70 24                        ; external/subprocess/subprocess/environ.cpp:70:24
	tbz	w0, #0, LBB15_22
	b	LBB15_16
LBB15_16:                               ;   in Loop: Header=BB15_2 Depth=1
Ltmp88:
	.loc	13 0 24                         ; external/subprocess/subprocess/environ.cpp:0:24
	sub	x0, x29, #112
Ltmp119:
	.loc	13 71 35 is_stmt 1              ; external/subprocess/subprocess/environ.cpp:71:35
	bl	__ZNKSt3__114__map_iteratorINS_15__tree_iteratorINS_12__value_typeINS_12basic_stringIcNS_11char_traitsIcEENS_9allocatorIcEEEES8_EEPNS_11__tree_nodeIS9_PvEElEEEptEv
	str	x0, [sp, #40]                   ; 8-byte Folded Spill
Ltmp89:
	b	LBB15_17
LBB15_17:                               ;   in Loop: Header=BB15_2 Depth=1
	.loc	13 0 35 is_stmt 0               ; external/subprocess/subprocess/environ.cpp:0:35
	ldr	x8, [sp, #40]                   ; 8-byte Folded Reload
	.loc	13 71 39                        ; external/subprocess/subprocess/environ.cpp:71:39
	add	x8, x8, #24
	str	x8, [sp, #24]                   ; 8-byte Folded Spill
Ltmp90:
	sub	x0, x29, #112
	.loc	13 71 22                        ; external/subprocess/subprocess/environ.cpp:71:22
	bl	__ZNKSt3__114__map_iteratorINS_15__tree_iteratorINS_12__value_typeINS_12basic_stringIcNS_11char_traitsIcEENS_9allocatorIcEEEES8_EEPNS_11__tree_nodeIS9_PvEElEEEptEv
	str	x0, [sp, #32]                   ; 8-byte Folded Spill
Ltmp91:
	b	LBB15_18
Ltmp120:
LBB15_18:                               ;   in Loop: Header=BB15_2 Depth=1
Ltmp92:
	.loc	13 0 22                         ; external/subprocess/subprocess/environ.cpp:0:22
	ldr	x1, [sp, #32]                   ; 8-byte Folded Reload
	add	x8, sp, #168
Ltmp121:
	adrp	x0, __ZN10subprocess4cenvE@PAGE
	add	x0, x0, __ZN10subprocess4cenvE@PAGEOFF
Ltmp122:
	.loc	13 71 17                        ; external/subprocess/subprocess/environ.cpp:71:17
	bl	__ZN10subprocess7EnvironixERKNSt3__112basic_stringIcNS1_11char_traitsIcEENS1_9allocatorIcEEEE
Ltmp93:
	b	LBB15_19
LBB15_19:                               ;   in Loop: Header=BB15_2 Depth=1
Ltmp94:
	.loc	13 0 17                         ; external/subprocess/subprocess/environ.cpp:0:17
	ldr	x1, [sp, #24]                   ; 8-byte Folded Reload
	add	x0, sp, #168
	.loc	13 71 33                        ; external/subprocess/subprocess/environ.cpp:71:33
	bl	__ZN10subprocess13EnvironSetteraSERKNSt3__112basic_stringIcNS1_11char_traitsIcEENS1_9allocatorIcEEEE
Ltmp95:
	b	LBB15_20
LBB15_20:                               ;   in Loop: Header=BB15_2 Depth=1
	.loc	13 0 33                         ; external/subprocess/subprocess/environ.cpp:0:33
	add	x0, sp, #168
	.loc	13 71 17                        ; external/subprocess/subprocess/environ.cpp:71:17
	bl	__ZN10subprocess13EnvironSetterD1Ev
	.loc	13 72 13 is_stmt 1              ; external/subprocess/subprocess/environ.cpp:72:13
	b	LBB15_22
LBB15_21:
Ltmp96:
	.loc	13 77 5                         ; external/subprocess/subprocess/environ.cpp:77:5
	mov	x8, x1
	stur	x0, [x29, #-64]
	stur	w8, [x29, #-68]
	add	x0, sp, #168
	.loc	13 71 17                        ; external/subprocess/subprocess/environ.cpp:71:17
	bl	__ZN10subprocess13EnvironSetterD1Ev
	b	LBB15_37
Ltmp123:
LBB15_22:                               ;   in Loop: Header=BB15_2 Depth=1
	.loc	13 0 17 is_stmt 0               ; external/subprocess/subprocess/environ.cpp:0:17
	b	LBB15_23
LBB15_23:                               ;   in Loop: Header=BB15_2 Depth=1
	.loc	13 66 9 is_stmt 1               ; external/subprocess/subprocess/environ.cpp:66:9
	b	LBB15_24
LBB15_24:                               ;   in Loop: Header=BB15_2 Depth=1
Ltmp102:
	.loc	13 0 9 is_stmt 0                ; external/subprocess/subprocess/environ.cpp:0:9
	sub	x0, x29, #88
	.loc	13 66 23                        ; external/subprocess/subprocess/environ.cpp:66:23
	bl	__ZNSt3__114__map_iteratorINS_15__tree_iteratorINS_12__value_typeINS_12basic_stringIcNS_11char_traitsIcEENS_9allocatorIcEEEES8_EEPNS_11__tree_nodeIS9_PvEElEEEppEv
Ltmp103:
	b	LBB15_25
LBB15_25:                               ;   in Loop: Header=BB15_2 Depth=1
	b	LBB15_2
Ltmp124:
LBB15_26:
	.loc	13 0 23                         ; external/subprocess/subprocess/environ.cpp:0:23
	ldr	x8, [sp, #104]                  ; 8-byte Folded Reload
Ltmp125:
	.loc	13 74 26 is_stmt 1              ; external/subprocess/subprocess/environ.cpp:74:26
	add	x8, x8, #24
	str	x8, [sp, #160]
	.loc	13 74 24 is_stmt 0              ; external/subprocess/subprocess/environ.cpp:74:24
	ldr	x0, [sp, #160]
	bl	__ZNSt3__13mapINS_12basic_stringIcNS_11char_traitsIcEENS_9allocatorIcEEEES6_NS_4lessIS6_EENS4_INS_4pairIKS6_S6_EEEEE5beginEv
	str	x0, [sp, #152]
	ldr	x0, [sp, #160]
	bl	__ZNSt3__13mapINS_12basic_stringIcNS_11char_traitsIcEENS_9allocatorIcEEEES6_NS_4lessIS6_EENS4_INS_4pairIKS6_S6_EEEEE3endEv
	str	x0, [sp, #144]
	b	LBB15_27
LBB15_27:                               ; =>This Inner Loop Header: Depth=1
Ltmp69:
	.loc	13 0 24                         ; external/subprocess/subprocess/environ.cpp:0:24
	add	x0, sp, #152
	add	x1, sp, #144
	.loc	13 74 24                        ; external/subprocess/subprocess/environ.cpp:74:24
	bl	__ZNSt3__1neERKNS_14__map_iteratorINS_15__tree_iteratorINS_12__value_typeINS_12basic_stringIcNS_11char_traitsIcEENS_9allocatorIcEEEES8_EEPNS_11__tree_nodeIS9_PvEElEEEESH_
	str	w0, [sp, #20]                   ; 4-byte Folded Spill
Ltmp70:
	b	LBB15_28
LBB15_28:                               ;   in Loop: Header=BB15_27 Depth=1
	.loc	13 0 24                         ; external/subprocess/subprocess/environ.cpp:0:24
	ldr	w8, [sp, #20]                   ; 4-byte Folded Reload
	.loc	13 74 24                        ; external/subprocess/subprocess/environ.cpp:74:24
	tbz	w8, #0, LBB15_36
	b	LBB15_29
LBB15_29:                               ;   in Loop: Header=BB15_27 Depth=1
Ltmp71:
	.loc	13 0 24                         ; external/subprocess/subprocess/environ.cpp:0:24
	add	x0, sp, #152
Ltmp126:
	.loc	13 74 24                        ; external/subprocess/subprocess/environ.cpp:74:24
	bl	__ZNKSt3__114__map_iteratorINS_15__tree_iteratorINS_12__value_typeINS_12basic_stringIcNS_11char_traitsIcEENS_9allocatorIcEEEES8_EEPNS_11__tree_nodeIS9_PvEElEEEdeEv
	str	x0, [sp, #8]                    ; 8-byte Folded Spill
Ltmp72:
	b	LBB15_30
LBB15_30:                               ;   in Loop: Header=BB15_27 Depth=1
	.loc	13 0 24                         ; external/subprocess/subprocess/environ.cpp:0:24
	ldr	x8, [sp, #8]                    ; 8-byte Folded Reload
	.loc	13 74 20                        ; external/subprocess/subprocess/environ.cpp:74:20
	str	x8, [sp, #136]
Ltmp127:
	.loc	13 75 31 is_stmt 1              ; external/subprocess/subprocess/environ.cpp:75:31
	ldr	x8, [sp, #136]
	.loc	13 75 35 is_stmt 0              ; external/subprocess/subprocess/environ.cpp:75:35
	add	x8, x8, #24
	str	x8, [sp]                        ; 8-byte Folded Spill
	.loc	13 75 18                        ; external/subprocess/subprocess/environ.cpp:75:18
	ldr	x1, [sp, #136]
Ltmp73:
	add	x8, sp, #112
	.loc	13 0 0                          ; external/subprocess/subprocess/environ.cpp:0:0
	adrp	x0, __ZN10subprocess4cenvE@PAGE
	add	x0, x0, __ZN10subprocess4cenvE@PAGEOFF
	.loc	13 75 13                        ; external/subprocess/subprocess/environ.cpp:75:13
	bl	__ZN10subprocess7EnvironixERKNSt3__112basic_stringIcNS1_11char_traitsIcEENS1_9allocatorIcEEEE
Ltmp74:
	b	LBB15_31
LBB15_31:                               ;   in Loop: Header=BB15_27 Depth=1
Ltmp75:
	.loc	13 0 13                         ; external/subprocess/subprocess/environ.cpp:0:13
	ldr	x1, [sp]                        ; 8-byte Folded Reload
	add	x0, sp, #112
	.loc	13 75 29                        ; external/subprocess/subprocess/environ.cpp:75:29
	bl	__ZN10subprocess13EnvironSetteraSERKNSt3__112basic_stringIcNS1_11char_traitsIcEENS1_9allocatorIcEEEE
Ltmp76:
	b	LBB15_32
LBB15_32:                               ;   in Loop: Header=BB15_27 Depth=1
	.loc	13 0 29                         ; external/subprocess/subprocess/environ.cpp:0:29
	add	x0, sp, #112
	.loc	13 75 13                        ; external/subprocess/subprocess/environ.cpp:75:13
	bl	__ZN10subprocess13EnvironSetterD1Ev
Ltmp128:
	.loc	13 74 9 is_stmt 1               ; external/subprocess/subprocess/environ.cpp:74:9
	b	LBB15_33
LBB15_33:                               ;   in Loop: Header=BB15_27 Depth=1
Ltmp78:
	.loc	13 0 9 is_stmt 0                ; external/subprocess/subprocess/environ.cpp:0:9
	add	x0, sp, #152
	.loc	13 74 24                        ; external/subprocess/subprocess/environ.cpp:74:24
	bl	__ZNSt3__114__map_iteratorINS_15__tree_iteratorINS_12__value_typeINS_12basic_stringIcNS_11char_traitsIcEENS_9allocatorIcEEEES8_EEPNS_11__tree_nodeIS9_PvEElEEEppEv
Ltmp79:
	b	LBB15_34
LBB15_34:                               ;   in Loop: Header=BB15_27 Depth=1
	b	LBB15_27
LBB15_35:
Ltmp77:
Ltmp129:
	.loc	13 77 5 is_stmt 1               ; external/subprocess/subprocess/environ.cpp:77:5
	mov	x8, x1
	stur	x0, [x29, #-64]
	stur	w8, [x29, #-68]
	add	x0, sp, #112
	.loc	13 75 13                        ; external/subprocess/subprocess/environ.cpp:75:13
	bl	__ZN10subprocess13EnvironSetterD1Ev
	b	LBB15_37
Ltmp130:
LBB15_36:
	.loc	13 0 13 is_stmt 0               ; external/subprocess/subprocess/environ.cpp:0:13
	sub	x0, x29, #56
	.loc	13 77 5 is_stmt 1               ; external/subprocess/subprocess/environ.cpp:77:5
	bl	__ZNSt3__13mapINS_12basic_stringIcNS_11char_traitsIcEENS_9allocatorIcEEEES6_NS_4lessIS6_EENS4_INS_4pairIKS6_S6_EEEEED1Ev
	ldr	x8, [sp, #104]                  ; 8-byte Folded Reload
Ltmp131:
	.loc	13 77 5 is_stmt 0               ; external/subprocess/subprocess/environ.cpp:77:5
	add	x0, x8, #24
	bl	__ZNSt3__13mapINS_12basic_stringIcNS_11char_traitsIcEENS_9allocatorIcEEEES6_NS_4lessIS6_EENS4_INS_4pairIKS6_S6_EEEEED1Ev
	ldr	x0, [sp, #104]                  ; 8-byte Folded Reload
	bl	__ZN10subprocess8CwdGuardD2Ev
Ltmp132:
	.loc	13 77 5                         ; external/subprocess/subprocess/environ.cpp:77:5
	ldur	x0, [x29, #-24]
	ldp	x29, x30, [sp, #336]            ; 16-byte Folded Reload
	ldp	x28, x27, [sp, #320]            ; 16-byte Folded Reload
	add	sp, sp, #352
	ret
LBB15_37:
	.loc	13 0 5                          ; external/subprocess/subprocess/environ.cpp:0:5
	sub	x0, x29, #56
	.loc	13 77 5                         ; external/subprocess/subprocess/environ.cpp:77:5
	bl	__ZNSt3__13mapINS_12basic_stringIcNS_11char_traitsIcEENS_9allocatorIcEEEES6_NS_4lessIS6_EENS4_INS_4pairIKS6_S6_EEEEED1Ev
	b	LBB15_38
LBB15_38:
	.loc	13 0 5                          ; external/subprocess/subprocess/environ.cpp:0:5
	ldr	x8, [sp, #104]                  ; 8-byte Folded Reload
Ltmp133:
	.loc	13 77 5                         ; external/subprocess/subprocess/environ.cpp:77:5
	add	x0, x8, #24
	bl	__ZNSt3__13mapINS_12basic_stringIcNS_11char_traitsIcEENS_9allocatorIcEEEES6_NS_4lessIS6_EENS4_INS_4pairIKS6_S6_EEEEED1Ev
	ldr	x0, [sp, #104]                  ; 8-byte Folded Reload
	bl	__ZN10subprocess8CwdGuardD2Ev
	b	LBB15_39
LBB15_39:
	ldur	x0, [x29, #-64]
	bl	___clang_call_terminate
Ltmp134:
Lfunc_end15:
	.cfi_endproc
	.file	82 "/Users/xieyao/Desktop/git/C-/mac/myproject" "external/subprocess/subprocess/basic_types.hpp"
	.section	__TEXT,__gcc_except_tab
	.p2align	2
GCC_except_table15:
Lexception4:
	.byte	255                             ; @LPStart Encoding = omit
	.byte	155                             ; @TType Encoding = indirect pcrel sdata4
	.uleb128 Lttbase1-Lttbaseref1
Lttbaseref1:
	.byte	1                               ; Call site Encoding = uleb128
	.uleb128 Lcst_end4-Lcst_begin4
Lcst_begin4:
	.uleb128 Ltmp64-Lfunc_begin15           ; >> Call Site 1 <<
	.uleb128 Ltmp65-Ltmp64                  ;   Call between Ltmp64 and Ltmp65
	.uleb128 Ltmp66-Lfunc_begin15           ;     jumps to Ltmp66
	.byte	1                               ;   On action: 1
	.uleb128 Ltmp67-Lfunc_begin15           ; >> Call Site 2 <<
	.uleb128 Ltmp98-Ltmp67                  ;   Call between Ltmp67 and Ltmp98
	.uleb128 Ltmp104-Lfunc_begin15          ;     jumps to Ltmp104
	.byte	1                               ;   On action: 1
	.uleb128 Ltmp99-Lfunc_begin15           ; >> Call Site 3 <<
	.uleb128 Ltmp100-Ltmp99                 ;   Call between Ltmp99 and Ltmp100
	.uleb128 Ltmp101-Lfunc_begin15          ;     jumps to Ltmp101
	.byte	1                               ;   On action: 1
	.uleb128 Ltmp86-Lfunc_begin15           ; >> Call Site 4 <<
	.uleb128 Ltmp93-Ltmp86                  ;   Call between Ltmp86 and Ltmp93
	.uleb128 Ltmp104-Lfunc_begin15          ;     jumps to Ltmp104
	.byte	1                               ;   On action: 1
	.uleb128 Ltmp94-Lfunc_begin15           ; >> Call Site 5 <<
	.uleb128 Ltmp95-Ltmp94                  ;   Call between Ltmp94 and Ltmp95
	.uleb128 Ltmp96-Lfunc_begin15           ;     jumps to Ltmp96
	.byte	1                               ;   On action: 1
	.uleb128 Ltmp102-Lfunc_begin15          ; >> Call Site 6 <<
	.uleb128 Ltmp74-Ltmp102                 ;   Call between Ltmp102 and Ltmp74
	.uleb128 Ltmp104-Lfunc_begin15          ;     jumps to Ltmp104
	.byte	1                               ;   On action: 1
	.uleb128 Ltmp75-Lfunc_begin15           ; >> Call Site 7 <<
	.uleb128 Ltmp76-Ltmp75                  ;   Call between Ltmp75 and Ltmp76
	.uleb128 Ltmp77-Lfunc_begin15           ;     jumps to Ltmp77
	.byte	1                               ;   On action: 1
	.uleb128 Ltmp78-Lfunc_begin15           ; >> Call Site 8 <<
	.uleb128 Ltmp79-Ltmp78                  ;   Call between Ltmp78 and Ltmp79
	.uleb128 Ltmp104-Lfunc_begin15          ;     jumps to Ltmp104
	.byte	1                               ;   On action: 1
Lcst_end4:
	.byte	1                               ; >> Action Record 1 <<
                                        ;   Catch TypeInfo 1
	.byte	0                               ;   No further actions
	.p2align	2
                                        ; >> Catch TypeInfos <<
	.long	0                               ; TypeInfo 1
Lttbase1:
	.p2align	2
                                        ; -- End function
	.section	__TEXT,__text,regular,pure_instructions
	.globl	__ZN10subprocess16current_env_copyEv ; -- Begin function _ZN10subprocess16current_env_copyEv
	.p2align	2
__ZN10subprocess16current_env_copyEv:   ; @_ZN10subprocess16current_env_copyEv
Lfunc_begin16:
	.loc	13 78 0 is_stmt 1               ; external/subprocess/subprocess/environ.cpp:78:0
	.cfi_startproc
	.cfi_personality 155, ___gxx_personality_v0
	.cfi_lsda 16, Lexception5
; %bb.0:
	sub	sp, sp, #144
	stp	x29, x30, [sp, #128]            ; 16-byte Folded Spill
	add	x29, sp, #128
	.cfi_def_cfa w29, 16
	.cfi_offset w30, -8
	.cfi_offset w29, -16
	mov	x0, x8
	str	x0, [sp, #24]                   ; 8-byte Folded Spill
	mov	x8, x0
	stur	x8, [x29, #-8]
	mov	w8, #0
	mov	w9, #1
Ltmp143:
	.loc	13 79 9 prologue_end            ; external/subprocess/subprocess/environ.cpp:79:9
	and	w8, w8, #0x1
	and	w8, w8, w9
	sturb	w8, [x29, #-9]
	.loc	13 79 16 is_stmt 0              ; external/subprocess/subprocess/environ.cpp:79:16
	bl	__ZNSt3__13mapINS_12basic_stringIcNS_11char_traitsIcEENS_9allocatorIcEEEES6_NS_4lessIS6_EENS4_INS_4pairIKS6_S6_EEEEEC1Ev
Ltmp144:
	.loc	13 0 0                          ; external/subprocess/subprocess/environ.cpp:0:0
	adrp	x8, _environ@GOTPAGE
	ldr	x8, [x8, _environ@GOTPAGEOFF]
	.loc	13 101 28 is_stmt 1             ; external/subprocess/subprocess/environ.cpp:101:28
	ldr	x8, [x8]
	.loc	13 101 21 is_stmt 0             ; external/subprocess/subprocess/environ.cpp:101:21
	stur	x8, [x29, #-24]
	.loc	13 101 14                       ; external/subprocess/subprocess/environ.cpp:101:14
	b	LBB16_1
LBB16_1:                                ; =>This Loop Header: Depth=1
                                        ;     Child Loop BB16_3 Depth 2
Ltmp145:
	.loc	13 101 38                       ; external/subprocess/subprocess/environ.cpp:101:38
	ldur	x8, [x29, #-24]
	.loc	13 101 37                       ; external/subprocess/subprocess/environ.cpp:101:37
	ldr	x8, [x8]
Ltmp146:
	.loc	13 101 9                        ; external/subprocess/subprocess/environ.cpp:101:9
	cbz	x8, LBB16_22
	b	LBB16_2
LBB16_2:                                ;   in Loop: Header=BB16_1 Depth=1
Ltmp147:
	.loc	13 102 33 is_stmt 1             ; external/subprocess/subprocess/environ.cpp:102:33
	ldur	x8, [x29, #-24]
	.loc	13 102 32 is_stmt 0             ; external/subprocess/subprocess/environ.cpp:102:32
	ldr	x8, [x8]
	.loc	13 102 19                       ; external/subprocess/subprocess/environ.cpp:102:19
	stur	x8, [x29, #-32]
	.loc	13 103 30 is_stmt 1             ; external/subprocess/subprocess/environ.cpp:103:30
	ldur	x8, [x29, #-32]
	.loc	13 103 19 is_stmt 0             ; external/subprocess/subprocess/environ.cpp:103:19
	stur	x8, [x29, #-40]
	.loc	13 104 13 is_stmt 1             ; external/subprocess/subprocess/environ.cpp:104:13
	b	LBB16_3
LBB16_3:                                ;   Parent Loop BB16_1 Depth=1
                                        ; =>  This Inner Loop Header: Depth=2
	.loc	13 104 21 is_stmt 0             ; external/subprocess/subprocess/environ.cpp:104:21
	ldur	x8, [x29, #-40]
	.loc	13 104 20                       ; external/subprocess/subprocess/environ.cpp:104:20
	ldrsb	w9, [x8]
	mov	w8, #0
	.loc	13 104 37                       ; external/subprocess/subprocess/environ.cpp:104:37
	subs	w9, w9, #61
	str	w8, [sp, #20]                   ; 4-byte Folded Spill
	b.eq	LBB16_5
	b	LBB16_4
LBB16_4:                                ;   in Loop: Header=BB16_3 Depth=2
	.loc	13 104 41                       ; external/subprocess/subprocess/environ.cpp:104:41
	ldur	x8, [x29, #-40]
	.loc	13 104 40                       ; external/subprocess/subprocess/environ.cpp:104:40
	ldrb	w8, [x8]
	subs	w8, w8, #0
	cset	w8, ne
	str	w8, [sp, #20]                   ; 4-byte Folded Spill
	b	LBB16_5
LBB16_5:                                ;   in Loop: Header=BB16_3 Depth=2
	.loc	13 0 40                         ; external/subprocess/subprocess/environ.cpp:0:40
	ldr	w8, [sp, #20]                   ; 4-byte Folded Reload
	.loc	13 104 13                       ; external/subprocess/subprocess/environ.cpp:104:13
	tbz	w8, #0, LBB16_7
	b	LBB16_6
LBB16_6:                                ;   in Loop: Header=BB16_3 Depth=2
	.loc	13 104 50                       ; external/subprocess/subprocess/environ.cpp:104:50
	ldur	x8, [x29, #-40]
	add	x8, x8, #1
	stur	x8, [x29, #-40]
	.loc	13 104 13                       ; external/subprocess/subprocess/environ.cpp:104:13
	b	LBB16_3
LBB16_7:                                ;   in Loop: Header=BB16_1 Depth=1
Ltmp148:
	.loc	13 105 18 is_stmt 1             ; external/subprocess/subprocess/environ.cpp:105:18
	ldur	x8, [x29, #-40]
	.loc	13 105 17 is_stmt 0             ; external/subprocess/subprocess/environ.cpp:105:17
	ldrsb	w8, [x8]
	.loc	13 105 34                       ; external/subprocess/subprocess/environ.cpp:105:34
	subs	w8, w8, #61
	b.ne	LBB16_9
	b	LBB16_8
LBB16_8:                                ;   in Loop: Header=BB16_1 Depth=1
	.loc	13 105 37                       ; external/subprocess/subprocess/environ.cpp:105:37
	ldur	x8, [x29, #-40]
	.loc	13 105 49                       ; external/subprocess/subprocess/environ.cpp:105:49
	ldur	x9, [x29, #-32]
Ltmp149:
	.loc	13 105 17                       ; external/subprocess/subprocess/environ.cpp:105:17
	subs	x8, x8, x9
	b.ne	LBB16_10
	b	LBB16_9
LBB16_9:                                ;   in Loop: Header=BB16_1 Depth=1
Ltmp150:
	.loc	13 106 17 is_stmt 1             ; external/subprocess/subprocess/environ.cpp:106:17
	b	LBB16_20
Ltmp151:
LBB16_10:                               ;   in Loop: Header=BB16_1 Depth=1
	.loc	13 107 30                       ; external/subprocess/subprocess/environ.cpp:107:30
	ldur	x1, [x29, #-32]
	.loc	13 107 42 is_stmt 0             ; external/subprocess/subprocess/environ.cpp:107:42
	ldur	x2, [x29, #-40]
Ltmp135:
	add	x0, sp, #64
	.loc	13 107 25                       ; external/subprocess/subprocess/environ.cpp:107:25
	bl	__ZNSt3__112basic_stringIcNS_11char_traitsIcEENS_9allocatorIcEEEC1IPcvEET_S8_
Ltmp136:
	b	LBB16_11
LBB16_11:                               ;   in Loop: Header=BB16_1 Depth=1
	.loc	13 108 27 is_stmt 1             ; external/subprocess/subprocess/environ.cpp:108:27
	ldur	x8, [x29, #-40]
	.loc	13 108 35 is_stmt 0             ; external/subprocess/subprocess/environ.cpp:108:35
	add	x8, x8, #1
	.loc	13 108 19                       ; external/subprocess/subprocess/environ.cpp:108:19
	str	x8, [sp, #40]
Ltmp152:
	.loc	13 109 19 is_stmt 1             ; external/subprocess/subprocess/environ.cpp:109:19
	ldr	x8, [sp, #40]
	.loc	13 109 18 is_stmt 0             ; external/subprocess/subprocess/environ.cpp:109:18
	ldrb	w8, [x8]
Ltmp153:
	.loc	13 109 17                       ; external/subprocess/subprocess/environ.cpp:109:17
	cbnz	w8, LBB16_14
	b	LBB16_12
LBB16_12:                               ;   in Loop: Header=BB16_1 Depth=1
	.loc	13 0 17                         ; external/subprocess/subprocess/environ.cpp:0:17
	mov	w8, #4
	str	w8, [sp, #36]
Ltmp154:
	.loc	13 110 17 is_stmt 1             ; external/subprocess/subprocess/environ.cpp:110:17
	b	LBB16_17
Ltmp155:
LBB16_13:
Ltmp137:
	.loc	13 115 5                        ; external/subprocess/subprocess/environ.cpp:115:5
	mov	x8, x1
	str	x0, [sp, #56]
	str	w8, [sp, #52]
	b	LBB16_25
LBB16_14:                               ;   in Loop: Header=BB16_1 Depth=1
	.loc	13 0 5 is_stmt 0                ; external/subprocess/subprocess/environ.cpp:0:5
	ldr	x0, [sp, #24]                   ; 8-byte Folded Reload
	.loc	13 111 25 is_stmt 1             ; external/subprocess/subprocess/environ.cpp:111:25
	ldr	x8, [sp, #40]
	str	x8, [sp]                        ; 8-byte Folded Spill
Ltmp138:
	add	x1, sp, #64
	.loc	13 111 13 is_stmt 0             ; external/subprocess/subprocess/environ.cpp:111:13
	bl	__ZNSt3__13mapINS_12basic_stringIcNS_11char_traitsIcEENS_9allocatorIcEEEES6_NS_4lessIS6_EENS4_INS_4pairIKS6_S6_EEEEEixERSA_
	str	x0, [sp, #8]                    ; 8-byte Folded Spill
Ltmp139:
	b	LBB16_15
LBB16_15:                               ;   in Loop: Header=BB16_1 Depth=1
Ltmp140:
	.loc	13 0 13                         ; external/subprocess/subprocess/environ.cpp:0:13
	ldr	x1, [sp]                        ; 8-byte Folded Reload
	ldr	x0, [sp, #8]                    ; 8-byte Folded Reload
	.loc	13 111 23                       ; external/subprocess/subprocess/environ.cpp:111:23
	bl	__ZNSt3__112basic_stringIcNS_11char_traitsIcEENS_9allocatorIcEEEaSEPKc
Ltmp141:
	b	LBB16_16
Ltmp156:
LBB16_16:                               ;   in Loop: Header=BB16_1 Depth=1
	.loc	13 112 9 is_stmt 1              ; external/subprocess/subprocess/environ.cpp:112:9
	str	wzr, [sp, #36]
	b	LBB16_17
LBB16_17:                               ;   in Loop: Header=BB16_1 Depth=1
	.loc	13 0 9 is_stmt 0                ; external/subprocess/subprocess/environ.cpp:0:9
	add	x0, sp, #64
	.loc	13 112 9                        ; external/subprocess/subprocess/environ.cpp:112:9
	bl	__ZNSt3__112basic_stringIcNS_11char_traitsIcEENS_9allocatorIcEEED1Ev
	ldr	w8, [sp, #36]
	cbz	w8, LBB16_19
	b	LBB16_18
LBB16_18:                               ;   in Loop: Header=BB16_1 Depth=1
	.loc	13 0 9                          ; external/subprocess/subprocess/environ.cpp:0:9
	b	LBB16_20
LBB16_19:                               ;   in Loop: Header=BB16_1 Depth=1
Ltmp157:
	.loc	13 112 9                        ; external/subprocess/subprocess/environ.cpp:112:9
	b	LBB16_20
Ltmp158:
LBB16_20:                               ;   in Loop: Header=BB16_1 Depth=1
	.loc	13 101 44 is_stmt 1             ; external/subprocess/subprocess/environ.cpp:101:44
	ldur	x8, [x29, #-24]
	add	x8, x8, #8
	stur	x8, [x29, #-24]
	.loc	13 101 9 is_stmt 0              ; external/subprocess/subprocess/environ.cpp:101:9
	b	LBB16_1
LBB16_21:
Ltmp142:
Ltmp159:
	.loc	13 115 5 is_stmt 1              ; external/subprocess/subprocess/environ.cpp:115:5
	mov	x8, x1
	str	x0, [sp, #56]
	str	w8, [sp, #52]
	add	x0, sp, #64
Ltmp160:
	.loc	13 112 9                        ; external/subprocess/subprocess/environ.cpp:112:9
	bl	__ZNSt3__112basic_stringIcNS_11char_traitsIcEENS_9allocatorIcEEED1Ev
	b	LBB16_25
Ltmp161:
LBB16_22:
	.loc	13 0 9 is_stmt 0                ; external/subprocess/subprocess/environ.cpp:0:9
	mov	w8, #1
	.loc	13 114 9 is_stmt 1              ; external/subprocess/subprocess/environ.cpp:114:9
	and	w8, w8, #0x1
	and	w8, w8, #0x1
	sturb	w8, [x29, #-9]
	mov	w8, #1
	str	w8, [sp, #36]
	.loc	13 115 5                        ; external/subprocess/subprocess/environ.cpp:115:5
	ldurb	w8, [x29, #-9]
	tbnz	w8, #0, LBB16_24
	b	LBB16_23
LBB16_23:
	.loc	13 0 5 is_stmt 0                ; external/subprocess/subprocess/environ.cpp:0:5
	ldr	x0, [sp, #24]                   ; 8-byte Folded Reload
	.loc	13 115 5                        ; external/subprocess/subprocess/environ.cpp:115:5
	bl	__ZNSt3__13mapINS_12basic_stringIcNS_11char_traitsIcEENS_9allocatorIcEEEES6_NS_4lessIS6_EENS4_INS_4pairIKS6_S6_EEEEED1Ev
	b	LBB16_24
LBB16_24:
	ldp	x29, x30, [sp, #128]            ; 16-byte Folded Reload
	add	sp, sp, #144
	ret
LBB16_25:
	.loc	13 0 5                          ; external/subprocess/subprocess/environ.cpp:0:5
	ldr	x0, [sp, #24]                   ; 8-byte Folded Reload
	.loc	13 115 5                        ; external/subprocess/subprocess/environ.cpp:115:5
	bl	__ZNSt3__13mapINS_12basic_stringIcNS_11char_traitsIcEENS_9allocatorIcEEEES6_NS_4lessIS6_EENS4_INS_4pairIKS6_S6_EEEEED1Ev
	b	LBB16_26
LBB16_26:
	ldr	x0, [sp, #56]
	bl	__Unwind_Resume
Ltmp162:
; %bb.27:
Lfunc_end16:
	.cfi_endproc
	.section	__TEXT,__gcc_except_tab
	.p2align	2
GCC_except_table16:
Lexception5:
	.byte	255                             ; @LPStart Encoding = omit
	.byte	255                             ; @TType Encoding = omit
	.byte	1                               ; Call site Encoding = uleb128
	.uleb128 Lcst_end5-Lcst_begin5
Lcst_begin5:
	.uleb128 Ltmp135-Lfunc_begin16          ; >> Call Site 1 <<
	.uleb128 Ltmp136-Ltmp135                ;   Call between Ltmp135 and Ltmp136
	.uleb128 Ltmp137-Lfunc_begin16          ;     jumps to Ltmp137
	.byte	0                               ;   On action: cleanup
	.uleb128 Ltmp138-Lfunc_begin16          ; >> Call Site 2 <<
	.uleb128 Ltmp141-Ltmp138                ;   Call between Ltmp138 and Ltmp141
	.uleb128 Ltmp142-Lfunc_begin16          ;     jumps to Ltmp142
	.byte	0                               ;   On action: cleanup
	.uleb128 Ltmp141-Lfunc_begin16          ; >> Call Site 3 <<
	.uleb128 Lfunc_end16-Ltmp141            ;   Call between Ltmp141 and Lfunc_end16
	.byte	0                               ;     has no landing pad
	.byte	0                               ;   On action: cleanup
Lcst_end5:
	.p2align	2
                                        ; -- End function
	.section	__TEXT,__text,regular,pure_instructions
	.p2align	2                               ; -- Begin function _ZNSt3__13mapINS_12basic_stringIcNS_11char_traitsIcEENS_9allocatorIcEEEES6_NS_4lessIS6_EENS4_INS_4pairIKS6_S6_EEEEE5beginEv
__ZNSt3__13mapINS_12basic_stringIcNS_11char_traitsIcEENS_9allocatorIcEEEES6_NS_4lessIS6_EENS4_INS_4pairIKS6_S6_EEEEE5beginEv: ; @_ZNSt3__13mapINS_12basic_stringIcNS_11char_traitsIcEENS_9allocatorIcEEEES6_NS_4lessIS6_EENS4_INS_4pairIKS6_S6_EEEEE5beginEv
Lfunc_begin17:
	.loc	21 1120 0 is_stmt 1             ; /Applications/Xcode.app/Contents/Developer/Platforms/MacOSX.platform/Developer/SDKs/MacOSX13.1.sdk/usr/include/c++/v1/map:1120:0
	.cfi_startproc
; %bb.0:
	sub	sp, sp, #48
	stp	x29, x30, [sp, #32]             ; 16-byte Folded Spill
	add	x29, sp, #32
	.cfi_def_cfa w29, 16
	.cfi_offset w30, -8
	.cfi_offset w29, -16
	str	x0, [sp, #16]
	ldr	x0, [sp, #16]
Ltmp163:
	.loc	21 1120 53 prologue_end         ; /Applications/Xcode.app/Contents/Developer/Platforms/MacOSX.platform/Developer/SDKs/MacOSX13.1.sdk/usr/include/c++/v1/map:1120:53
	bl	__ZNSt3__16__treeINS_12__value_typeINS_12basic_stringIcNS_11char_traitsIcEENS_9allocatorIcEEEES7_EENS_19__map_value_compareIS7_S8_NS_4lessIS7_EELb1EEENS5_IS8_EEE5beginEv
	str	x0, [sp, #8]
	.loc	21 1120 45 is_stmt 0            ; /Applications/Xcode.app/Contents/Developer/Platforms/MacOSX.platform/Developer/SDKs/MacOSX13.1.sdk/usr/include/c++/v1/map:1120:45
	ldr	x1, [sp, #8]
	sub	x0, x29, #8
	bl	__ZNSt3__114__map_iteratorINS_15__tree_iteratorINS_12__value_typeINS_12basic_stringIcNS_11char_traitsIcEENS_9allocatorIcEEEES8_EEPNS_11__tree_nodeIS9_PvEElEEEC1ESE_
	.loc	21 1120 38                      ; /Applications/Xcode.app/Contents/Developer/Platforms/MacOSX.platform/Developer/SDKs/MacOSX13.1.sdk/usr/include/c++/v1/map:1120:38
	ldur	x0, [x29, #-8]
	ldp	x29, x30, [sp, #32]             ; 16-byte Folded Reload
	add	sp, sp, #48
	ret
Ltmp164:
Lfunc_end17:
	.cfi_endproc
                                        ; -- End function
	.p2align	2                               ; -- Begin function _ZNSt3__13mapINS_12basic_stringIcNS_11char_traitsIcEENS_9allocatorIcEEEES6_NS_4lessIS6_EENS4_INS_4pairIKS6_S6_EEEEE3endEv
__ZNSt3__13mapINS_12basic_stringIcNS_11char_traitsIcEENS_9allocatorIcEEEES6_NS_4lessIS6_EENS4_INS_4pairIKS6_S6_EEEEE3endEv: ; @_ZNSt3__13mapINS_12basic_stringIcNS_11char_traitsIcEENS_9allocatorIcEEEES6_NS_4lessIS6_EENS4_INS_4pairIKS6_S6_EEEEE3endEv
Lfunc_begin18:
	.loc	21 1124 0 is_stmt 1             ; /Applications/Xcode.app/Contents/Developer/Platforms/MacOSX.platform/Developer/SDKs/MacOSX13.1.sdk/usr/include/c++/v1/map:1124:0
	.cfi_startproc
; %bb.0:
	sub	sp, sp, #48
	stp	x29, x30, [sp, #32]             ; 16-byte Folded Spill
	add	x29, sp, #32
	.cfi_def_cfa w29, 16
	.cfi_offset w30, -8
	.cfi_offset w29, -16
	str	x0, [sp, #16]
	ldr	x0, [sp, #16]
Ltmp165:
	.loc	21 1124 51 prologue_end         ; /Applications/Xcode.app/Contents/Developer/Platforms/MacOSX.platform/Developer/SDKs/MacOSX13.1.sdk/usr/include/c++/v1/map:1124:51
	bl	__ZNSt3__16__treeINS_12__value_typeINS_12basic_stringIcNS_11char_traitsIcEENS_9allocatorIcEEEES7_EENS_19__map_value_compareIS7_S8_NS_4lessIS7_EELb1EEENS5_IS8_EEE3endEv
	str	x0, [sp, #8]
	.loc	21 1124 43 is_stmt 0            ; /Applications/Xcode.app/Contents/Developer/Platforms/MacOSX.platform/Developer/SDKs/MacOSX13.1.sdk/usr/include/c++/v1/map:1124:43
	ldr	x1, [sp, #8]
	sub	x0, x29, #8
	bl	__ZNSt3__114__map_iteratorINS_15__tree_iteratorINS_12__value_typeINS_12basic_stringIcNS_11char_traitsIcEENS_9allocatorIcEEEES8_EEPNS_11__tree_nodeIS9_PvEElEEEC1ESE_
	.loc	21 1124 36                      ; /Applications/Xcode.app/Contents/Developer/Platforms/MacOSX.platform/Developer/SDKs/MacOSX13.1.sdk/usr/include/c++/v1/map:1124:36
	ldur	x0, [x29, #-8]
	ldp	x29, x30, [sp, #32]             ; 16-byte Folded Reload
	add	sp, sp, #48
	ret
Ltmp166:
Lfunc_end18:
	.cfi_endproc
                                        ; -- End function
	.p2align	2                               ; -- Begin function _ZNSt3__1neERKNS_14__map_iteratorINS_15__tree_iteratorINS_12__value_typeINS_12basic_stringIcNS_11char_traitsIcEENS_9allocatorIcEEEES8_EEPNS_11__tree_nodeIS9_PvEElEEEESH_
__ZNSt3__1neERKNS_14__map_iteratorINS_15__tree_iteratorINS_12__value_typeINS_12basic_stringIcNS_11char_traitsIcEENS_9allocatorIcEEEES8_EEPNS_11__tree_nodeIS9_PvEElEEEESH_: ; @_ZNSt3__1neERKNS_14__map_iteratorINS_15__tree_iteratorINS_12__value_typeINS_12basic_stringIcNS_11char_traitsIcEENS_9allocatorIcEEEES8_EEPNS_11__tree_nodeIS9_PvEElEEEESH_
Lfunc_begin19:
	.loc	21 845 0 is_stmt 1              ; /Applications/Xcode.app/Contents/Developer/Platforms/MacOSX.platform/Developer/SDKs/MacOSX13.1.sdk/usr/include/c++/v1/map:845:0
	.cfi_startproc
; %bb.0:
	sub	sp, sp, #32
	stp	x29, x30, [sp, #16]             ; 16-byte Folded Spill
	add	x29, sp, #16
	.cfi_def_cfa w29, 16
	.cfi_offset w30, -8
	.cfi_offset w29, -16
	str	x0, [sp, #8]
	str	x1, [sp]
Ltmp167:
	.loc	21 845 17 prologue_end          ; /Applications/Xcode.app/Contents/Developer/Platforms/MacOSX.platform/Developer/SDKs/MacOSX13.1.sdk/usr/include/c++/v1/map:845:17
	ldr	x0, [sp, #8]
	.loc	21 845 29 is_stmt 0             ; /Applications/Xcode.app/Contents/Developer/Platforms/MacOSX.platform/Developer/SDKs/MacOSX13.1.sdk/usr/include/c++/v1/map:845:29
	ldr	x1, [sp]
	.loc	21 845 26                       ; /Applications/Xcode.app/Contents/Developer/Platforms/MacOSX.platform/Developer/SDKs/MacOSX13.1.sdk/usr/include/c++/v1/map:845:26
	bl	__ZNSt3__1neERKNS_15__tree_iteratorINS_12__value_typeINS_12basic_stringIcNS_11char_traitsIcEENS_9allocatorIcEEEES7_EEPNS_11__tree_nodeIS8_PvEElEESF_
	.loc	21 845 10                       ; /Applications/Xcode.app/Contents/Developer/Platforms/MacOSX.platform/Developer/SDKs/MacOSX13.1.sdk/usr/include/c++/v1/map:845:10
	and	w0, w0, #0x1
	ldp	x29, x30, [sp, #16]             ; 16-byte Folded Reload
	add	sp, sp, #32
	ret
Ltmp168:
Lfunc_end19:
	.cfi_endproc
                                        ; -- End function
	.p2align	2                               ; -- Begin function _ZNKSt3__114__map_iteratorINS_15__tree_iteratorINS_12__value_typeINS_12basic_stringIcNS_11char_traitsIcEENS_9allocatorIcEEEES8_EEPNS_11__tree_nodeIS9_PvEElEEEdeEv
__ZNKSt3__114__map_iteratorINS_15__tree_iteratorINS_12__value_typeINS_12basic_stringIcNS_11char_traitsIcEENS_9allocatorIcEEEES8_EEPNS_11__tree_nodeIS9_PvEElEEEdeEv: ; @_ZNKSt3__114__map_iteratorINS_15__tree_iteratorINS_12__value_typeINS_12basic_stringIcNS_11char_traitsIcEENS_9allocatorIcEEEES8_EEPNS_11__tree_nodeIS9_PvEElEEEdeEv
Lfunc_begin20:
	.loc	21 815 0 is_stmt 1              ; /Applications/Xcode.app/Contents/Developer/Platforms/MacOSX.platform/Developer/SDKs/MacOSX13.1.sdk/usr/include/c++/v1/map:815:0
	.cfi_startproc
; %bb.0:
	sub	sp, sp, #32
	stp	x29, x30, [sp, #16]             ; 16-byte Folded Spill
	add	x29, sp, #16
	.cfi_def_cfa w29, 16
	.cfi_offset w30, -8
	.cfi_offset w29, -16
	str	x0, [sp, #8]
	ldr	x0, [sp, #8]
Ltmp169:
	.loc	21 815 41 prologue_end          ; /Applications/Xcode.app/Contents/Developer/Platforms/MacOSX.platform/Developer/SDKs/MacOSX13.1.sdk/usr/include/c++/v1/map:815:41
	bl	__ZNKSt3__115__tree_iteratorINS_12__value_typeINS_12basic_stringIcNS_11char_traitsIcEENS_9allocatorIcEEEES7_EEPNS_11__tree_nodeIS8_PvEElEptEv
	.loc	21 815 47 is_stmt 0             ; /Applications/Xcode.app/Contents/Developer/Platforms/MacOSX.platform/Developer/SDKs/MacOSX13.1.sdk/usr/include/c++/v1/map:815:47
	bl	__ZNSt3__112__value_typeINS_12basic_stringIcNS_11char_traitsIcEENS_9allocatorIcEEEES6_E11__get_valueEv
	.loc	21 815 34                       ; /Applications/Xcode.app/Contents/Developer/Platforms/MacOSX.platform/Developer/SDKs/MacOSX13.1.sdk/usr/include/c++/v1/map:815:34
	ldp	x29, x30, [sp, #16]             ; 16-byte Folded Reload
	add	sp, sp, #32
	ret
Ltmp170:
Lfunc_end20:
	.cfi_endproc
                                        ; -- End function
	.p2align	2                               ; -- Begin function _ZNSt3__13mapINS_12basic_stringIcNS_11char_traitsIcEENS_9allocatorIcEEEES6_NS_4lessIS6_EENS4_INS_4pairIKS6_S6_EEEEE4findERSA_
__ZNSt3__13mapINS_12basic_stringIcNS_11char_traitsIcEENS_9allocatorIcEEEES6_NS_4lessIS6_EENS4_INS_4pairIKS6_S6_EEEEE4findERSA_: ; @_ZNSt3__13mapINS_12basic_stringIcNS_11char_traitsIcEENS_9allocatorIcEEEES6_NS_4lessIS6_EENS4_INS_4pairIKS6_S6_EEEEE4findERSA_
Lfunc_begin21:
	.loc	21 1405 0 is_stmt 1             ; /Applications/Xcode.app/Contents/Developer/Platforms/MacOSX.platform/Developer/SDKs/MacOSX13.1.sdk/usr/include/c++/v1/map:1405:0
	.cfi_startproc
; %bb.0:
	sub	sp, sp, #48
	stp	x29, x30, [sp, #32]             ; 16-byte Folded Spill
	add	x29, sp, #32
	.cfi_def_cfa w29, 16
	.cfi_offset w30, -8
	.cfi_offset w29, -16
	str	x0, [sp, #16]
	str	x1, [sp, #8]
	ldr	x0, [sp, #16]
Ltmp171:
	.loc	21 1405 61 prologue_end         ; /Applications/Xcode.app/Contents/Developer/Platforms/MacOSX.platform/Developer/SDKs/MacOSX13.1.sdk/usr/include/c++/v1/map:1405:61
	ldr	x1, [sp, #8]
	.loc	21 1405 56 is_stmt 0            ; /Applications/Xcode.app/Contents/Developer/Platforms/MacOSX.platform/Developer/SDKs/MacOSX13.1.sdk/usr/include/c++/v1/map:1405:56
	bl	__ZNSt3__16__treeINS_12__value_typeINS_12basic_stringIcNS_11char_traitsIcEENS_9allocatorIcEEEES7_EENS_19__map_value_compareIS7_S8_NS_4lessIS7_EELb1EEENS5_IS8_EEE4findIS7_EENS_15__tree_iteratorIS8_PNS_11__tree_nodeIS8_PvEElEERKT_
	str	x0, [sp]
	.loc	21 1405 48                      ; /Applications/Xcode.app/Contents/Developer/Platforms/MacOSX.platform/Developer/SDKs/MacOSX13.1.sdk/usr/include/c++/v1/map:1405:48
	ldr	x1, [sp]
	sub	x0, x29, #8
	bl	__ZNSt3__114__map_iteratorINS_15__tree_iteratorINS_12__value_typeINS_12basic_stringIcNS_11char_traitsIcEENS_9allocatorIcEEEES8_EEPNS_11__tree_nodeIS9_PvEElEEEC1ESE_
	.loc	21 1405 41                      ; /Applications/Xcode.app/Contents/Developer/Platforms/MacOSX.platform/Developer/SDKs/MacOSX13.1.sdk/usr/include/c++/v1/map:1405:41
	ldur	x0, [x29, #-8]
	ldp	x29, x30, [sp, #32]             ; 16-byte Folded Reload
	add	sp, sp, #48
	ret
Ltmp172:
Lfunc_end21:
	.cfi_endproc
                                        ; -- End function
	.p2align	2                               ; -- Begin function _ZNSt3__1eqERKNS_14__map_iteratorINS_15__tree_iteratorINS_12__value_typeINS_12basic_stringIcNS_11char_traitsIcEENS_9allocatorIcEEEES8_EEPNS_11__tree_nodeIS9_PvEElEEEESH_
__ZNSt3__1eqERKNS_14__map_iteratorINS_15__tree_iteratorINS_12__value_typeINS_12basic_stringIcNS_11char_traitsIcEENS_9allocatorIcEEEES8_EEPNS_11__tree_nodeIS9_PvEElEEEESH_: ; @_ZNSt3__1eqERKNS_14__map_iteratorINS_15__tree_iteratorINS_12__value_typeINS_12basic_stringIcNS_11char_traitsIcEENS_9allocatorIcEEEES8_EEPNS_11__tree_nodeIS9_PvEElEEEESH_
Lfunc_begin22:
	.loc	21 841 0 is_stmt 1              ; /Applications/Xcode.app/Contents/Developer/Platforms/MacOSX.platform/Developer/SDKs/MacOSX13.1.sdk/usr/include/c++/v1/map:841:0
	.cfi_startproc
; %bb.0:
	sub	sp, sp, #32
	stp	x29, x30, [sp, #16]             ; 16-byte Folded Spill
	add	x29, sp, #16
	.cfi_def_cfa w29, 16
	.cfi_offset w30, -8
	.cfi_offset w29, -16
	str	x0, [sp, #8]
	str	x1, [sp]
Ltmp173:
	.loc	21 841 17 prologue_end          ; /Applications/Xcode.app/Contents/Developer/Platforms/MacOSX.platform/Developer/SDKs/MacOSX13.1.sdk/usr/include/c++/v1/map:841:17
	ldr	x0, [sp, #8]
	.loc	21 841 29 is_stmt 0             ; /Applications/Xcode.app/Contents/Developer/Platforms/MacOSX.platform/Developer/SDKs/MacOSX13.1.sdk/usr/include/c++/v1/map:841:29
	ldr	x1, [sp]
	.loc	21 841 26                       ; /Applications/Xcode.app/Contents/Developer/Platforms/MacOSX.platform/Developer/SDKs/MacOSX13.1.sdk/usr/include/c++/v1/map:841:26
	bl	__ZNSt3__1eqERKNS_15__tree_iteratorINS_12__value_typeINS_12basic_stringIcNS_11char_traitsIcEENS_9allocatorIcEEEES7_EEPNS_11__tree_nodeIS8_PvEElEESF_
	.loc	21 841 10                       ; /Applications/Xcode.app/Contents/Developer/Platforms/MacOSX.platform/Developer/SDKs/MacOSX13.1.sdk/usr/include/c++/v1/map:841:10
	and	w0, w0, #0x1
	ldp	x29, x30, [sp, #16]             ; 16-byte Folded Reload
	add	sp, sp, #32
	ret
Ltmp174:
Lfunc_end22:
	.cfi_endproc
                                        ; -- End function
	.globl	__ZN10subprocess13EnvironSetteraSEDn ; -- Begin function _ZN10subprocess13EnvironSetteraSEDn
	.weak_definition	__ZN10subprocess13EnvironSetteraSEDn
	.p2align	2
__ZN10subprocess13EnvironSetteraSEDn:   ; @_ZN10subprocess13EnvironSetteraSEDn
Lfunc_begin23:
	.loc	1 18 0 is_stmt 1                ; external/subprocess/subprocess/environ.hpp:18:0
	.cfi_startproc
; %bb.0:
	sub	sp, sp, #32
	stp	x29, x30, [sp, #16]             ; 16-byte Folded Spill
	add	x29, sp, #16
	.cfi_def_cfa w29, 16
	.cfi_offset w30, -8
	.cfi_offset w29, -16
	str	x0, [sp, #8]
	str	x1, [sp]
	ldr	x0, [sp, #8]
	mov	x1, #0
Ltmp175:
	.loc	1 18 65 prologue_end            ; external/subprocess/subprocess/environ.hpp:18:65
	bl	__ZN10subprocess13EnvironSetteraSEPKc
	.loc	1 18 52 is_stmt 0               ; external/subprocess/subprocess/environ.hpp:18:52
	ldp	x29, x30, [sp, #16]             ; 16-byte Folded Reload
	add	sp, sp, #32
	ret
Ltmp176:
Lfunc_end23:
	.cfi_endproc
                                        ; -- End function
	.globl	__ZN10subprocess13EnvironSetterD1Ev ; -- Begin function _ZN10subprocess13EnvironSetterD1Ev
	.weak_def_can_be_hidden	__ZN10subprocess13EnvironSetterD1Ev
	.p2align	2
__ZN10subprocess13EnvironSetterD1Ev:    ; @_ZN10subprocess13EnvironSetterD1Ev
Lfunc_begin24:
	.loc	1 10 0 is_stmt 1                ; external/subprocess/subprocess/environ.hpp:10:0
	.cfi_startproc
; %bb.0:
	sub	sp, sp, #32
	stp	x29, x30, [sp, #16]             ; 16-byte Folded Spill
	add	x29, sp, #16
	.cfi_def_cfa w29, 16
	.cfi_offset w30, -8
	.cfi_offset w29, -16
	str	x0, [sp, #8]
	ldr	x0, [sp, #8]
	str	x0, [sp]                        ; 8-byte Folded Spill
Ltmp177:
	.loc	1 10 11 prologue_end            ; external/subprocess/subprocess/environ.hpp:10:11
	bl	__ZN10subprocess13EnvironSetterD2Ev
	ldr	x0, [sp]                        ; 8-byte Folded Reload
	ldp	x29, x30, [sp, #16]             ; 16-byte Folded Reload
	add	sp, sp, #32
	ret
Ltmp178:
Lfunc_end24:
	.cfi_endproc
                                        ; -- End function
	.p2align	2                               ; -- Begin function _ZNSt3__1neIcNS_11char_traitsIcEENS_9allocatorIcEEEEbRKNS_12basic_stringIT_T0_T1_EESB_
__ZNSt3__1neIcNS_11char_traitsIcEENS_9allocatorIcEEEEbRKNS_12basic_stringIT_T0_T1_EESB_: ; @_ZNSt3__1neIcNS_11char_traitsIcEENS_9allocatorIcEEEEbRKNS_12basic_stringIT_T0_T1_EESB_
Lfunc_begin25:
	.loc	5 4132 0                        ; /Applications/Xcode.app/Contents/Developer/Platforms/MacOSX.platform/Developer/SDKs/MacOSX13.1.sdk/usr/include/c++/v1/string:4132:0
	.cfi_startproc
; %bb.0:
	sub	sp, sp, #32
	stp	x29, x30, [sp, #16]             ; 16-byte Folded Spill
	add	x29, sp, #16
	.cfi_def_cfa w29, 16
	.cfi_offset w30, -8
	.cfi_offset w29, -16
	str	x0, [sp, #8]
	str	x1, [sp]
Ltmp179:
	.loc	5 4133 14 prologue_end          ; /Applications/Xcode.app/Contents/Developer/Platforms/MacOSX.platform/Developer/SDKs/MacOSX13.1.sdk/usr/include/c++/v1/string:4133:14
	ldr	x0, [sp, #8]
	.loc	5 4133 23 is_stmt 0             ; /Applications/Xcode.app/Contents/Developer/Platforms/MacOSX.platform/Developer/SDKs/MacOSX13.1.sdk/usr/include/c++/v1/string:4133:23
	ldr	x1, [sp]
	.loc	5 4133 20                       ; /Applications/Xcode.app/Contents/Developer/Platforms/MacOSX.platform/Developer/SDKs/MacOSX13.1.sdk/usr/include/c++/v1/string:4133:20
	bl	__ZNSt3__1eqINS_9allocatorIcEEEEbRKNS_12basic_stringIcNS_11char_traitsIcEET_EES9_
	.loc	5 4133 12                       ; /Applications/Xcode.app/Contents/Developer/Platforms/MacOSX.platform/Developer/SDKs/MacOSX13.1.sdk/usr/include/c++/v1/string:4133:12
	eor	w8, w0, #0x1
	.loc	5 4133 5                        ; /Applications/Xcode.app/Contents/Developer/Platforms/MacOSX.platform/Developer/SDKs/MacOSX13.1.sdk/usr/include/c++/v1/string:4133:5
	and	w0, w8, #0x1
	ldp	x29, x30, [sp, #16]             ; 16-byte Folded Reload
	add	sp, sp, #32
	ret
Ltmp180:
Lfunc_end25:
	.cfi_endproc
                                        ; -- End function
	.p2align	2                               ; -- Begin function _ZNKSt3__114__map_iteratorINS_15__tree_iteratorINS_12__value_typeINS_12basic_stringIcNS_11char_traitsIcEENS_9allocatorIcEEEES8_EEPNS_11__tree_nodeIS9_PvEElEEEptEv
__ZNKSt3__114__map_iteratorINS_15__tree_iteratorINS_12__value_typeINS_12basic_stringIcNS_11char_traitsIcEENS_9allocatorIcEEEES8_EEPNS_11__tree_nodeIS9_PvEElEEEptEv: ; @_ZNKSt3__114__map_iteratorINS_15__tree_iteratorINS_12__value_typeINS_12basic_stringIcNS_11char_traitsIcEENS_9allocatorIcEEEES8_EEPNS_11__tree_nodeIS9_PvEElEEEptEv
Lfunc_begin26:
	.loc	21 817 0 is_stmt 1              ; /Applications/Xcode.app/Contents/Developer/Platforms/MacOSX.platform/Developer/SDKs/MacOSX13.1.sdk/usr/include/c++/v1/map:817:0
	.cfi_startproc
; %bb.0:
	sub	sp, sp, #32
	stp	x29, x30, [sp, #16]             ; 16-byte Folded Spill
	add	x29, sp, #16
	.cfi_def_cfa w29, 16
	.cfi_offset w30, -8
	.cfi_offset w29, -16
	str	x0, [sp, #8]
	ldr	x0, [sp, #8]
Ltmp181:
	.loc	21 817 76 prologue_end          ; /Applications/Xcode.app/Contents/Developer/Platforms/MacOSX.platform/Developer/SDKs/MacOSX13.1.sdk/usr/include/c++/v1/map:817:76
	bl	__ZNKSt3__115__tree_iteratorINS_12__value_typeINS_12basic_stringIcNS_11char_traitsIcEENS_9allocatorIcEEEES7_EEPNS_11__tree_nodeIS8_PvEElEptEv
	.loc	21 817 82 is_stmt 0             ; /Applications/Xcode.app/Contents/Developer/Platforms/MacOSX.platform/Developer/SDKs/MacOSX13.1.sdk/usr/include/c++/v1/map:817:82
	bl	__ZNSt3__112__value_typeINS_12basic_stringIcNS_11char_traitsIcEENS_9allocatorIcEEEES6_E11__get_valueEv
	.loc	21 817 40                       ; /Applications/Xcode.app/Contents/Developer/Platforms/MacOSX.platform/Developer/SDKs/MacOSX13.1.sdk/usr/include/c++/v1/map:817:40
	bl	__ZNSt3__114pointer_traitsIPNS_4pairIKNS_12basic_stringIcNS_11char_traitsIcEENS_9allocatorIcEEEES7_EEE10pointer_toERS9_
	.loc	21 817 33                       ; /Applications/Xcode.app/Contents/Developer/Platforms/MacOSX.platform/Developer/SDKs/MacOSX13.1.sdk/usr/include/c++/v1/map:817:33
	ldp	x29, x30, [sp, #16]             ; 16-byte Folded Reload
	add	sp, sp, #32
	ret
Ltmp182:
Lfunc_end26:
	.cfi_endproc
                                        ; -- End function
	.p2align	2                               ; -- Begin function _ZNSt3__114__map_iteratorINS_15__tree_iteratorINS_12__value_typeINS_12basic_stringIcNS_11char_traitsIcEENS_9allocatorIcEEEES8_EEPNS_11__tree_nodeIS9_PvEElEEEppEv
__ZNSt3__114__map_iteratorINS_15__tree_iteratorINS_12__value_typeINS_12basic_stringIcNS_11char_traitsIcEENS_9allocatorIcEEEES8_EEPNS_11__tree_nodeIS9_PvEElEEEppEv: ; @_ZNSt3__114__map_iteratorINS_15__tree_iteratorINS_12__value_typeINS_12basic_stringIcNS_11char_traitsIcEENS_9allocatorIcEEEES8_EEPNS_11__tree_nodeIS9_PvEElEEEppEv
Lfunc_begin27:
	.loc	21 820 0 is_stmt 1              ; /Applications/Xcode.app/Contents/Developer/Platforms/MacOSX.platform/Developer/SDKs/MacOSX13.1.sdk/usr/include/c++/v1/map:820:0
	.cfi_startproc
; %bb.0:
	sub	sp, sp, #32
	stp	x29, x30, [sp, #16]             ; 16-byte Folded Spill
	add	x29, sp, #16
	.cfi_def_cfa w29, 16
	.cfi_offset w30, -8
	.cfi_offset w29, -16
	str	x0, [sp, #8]
	ldr	x0, [sp, #8]
	str	x0, [sp]                        ; 8-byte Folded Spill
Ltmp183:
	.loc	21 820 35 prologue_end          ; /Applications/Xcode.app/Contents/Developer/Platforms/MacOSX.platform/Developer/SDKs/MacOSX13.1.sdk/usr/include/c++/v1/map:820:35
	bl	__ZNSt3__115__tree_iteratorINS_12__value_typeINS_12basic_stringIcNS_11char_traitsIcEENS_9allocatorIcEEEES7_EEPNS_11__tree_nodeIS8_PvEElEppEv
	ldr	x0, [sp]                        ; 8-byte Folded Reload
	.loc	21 820 43 is_stmt 0             ; /Applications/Xcode.app/Contents/Developer/Platforms/MacOSX.platform/Developer/SDKs/MacOSX13.1.sdk/usr/include/c++/v1/map:820:43
	ldp	x29, x30, [sp, #16]             ; 16-byte Folded Reload
	add	sp, sp, #32
	ret
Ltmp184:
Lfunc_end27:
	.cfi_endproc
                                        ; -- End function
	.p2align	2                               ; -- Begin function _ZNSt3__13mapINS_12basic_stringIcNS_11char_traitsIcEENS_9allocatorIcEEEES6_NS_4lessIS6_EENS4_INS_4pairIKS6_S6_EEEEED1Ev
__ZNSt3__13mapINS_12basic_stringIcNS_11char_traitsIcEENS_9allocatorIcEEEES6_NS_4lessIS6_EENS4_INS_4pairIKS6_S6_EEEEED1Ev: ; @_ZNSt3__13mapINS_12basic_stringIcNS_11char_traitsIcEENS_9allocatorIcEEEES6_NS_4lessIS6_EENS4_INS_4pairIKS6_S6_EEEEED1Ev
Lfunc_begin28:
	.loc	21 1115 0 is_stmt 1             ; /Applications/Xcode.app/Contents/Developer/Platforms/MacOSX.platform/Developer/SDKs/MacOSX13.1.sdk/usr/include/c++/v1/map:1115:0
	.cfi_startproc
; %bb.0:
	sub	sp, sp, #32
	stp	x29, x30, [sp, #16]             ; 16-byte Folded Spill
	add	x29, sp, #16
	.cfi_def_cfa w29, 16
	.cfi_offset w30, -8
	.cfi_offset w29, -16
	str	x0, [sp, #8]
	ldr	x0, [sp, #8]
	str	x0, [sp]                        ; 8-byte Folded Spill
Ltmp185:
	.loc	21 1115 12 prologue_end         ; /Applications/Xcode.app/Contents/Developer/Platforms/MacOSX.platform/Developer/SDKs/MacOSX13.1.sdk/usr/include/c++/v1/map:1115:12
	bl	__ZNSt3__13mapINS_12basic_stringIcNS_11char_traitsIcEENS_9allocatorIcEEEES6_NS_4lessIS6_EENS4_INS_4pairIKS6_S6_EEEEED2Ev
	ldr	x0, [sp]                        ; 8-byte Folded Reload
	.loc	21 1117 5                       ; /Applications/Xcode.app/Contents/Developer/Platforms/MacOSX.platform/Developer/SDKs/MacOSX13.1.sdk/usr/include/c++/v1/map:1117:5
	ldp	x29, x30, [sp, #16]             ; 16-byte Folded Reload
	add	sp, sp, #32
	ret
Ltmp186:
Lfunc_end28:
	.cfi_endproc
                                        ; -- End function
	.globl	__ZN10subprocess8CwdGuardD2Ev   ; -- Begin function _ZN10subprocess8CwdGuardD2Ev
	.weak_def_can_be_hidden	__ZN10subprocess8CwdGuardD2Ev
	.p2align	2
__ZN10subprocess8CwdGuardD2Ev:          ; @_ZN10subprocess8CwdGuardD2Ev
Lfunc_begin29:
	.loc	1 54 0                          ; external/subprocess/subprocess/environ.hpp:54:0
	.cfi_startproc
	.cfi_personality 155, ___gxx_personality_v0
	.cfi_lsda 16, Lexception6
; %bb.0:
	sub	sp, sp, #48
	stp	x29, x30, [sp, #32]             ; 16-byte Folded Spill
	add	x29, sp, #32
	.cfi_def_cfa w29, 16
	.cfi_offset w30, -8
	.cfi_offset w29, -16
	stur	x0, [x29, #-8]
	ldur	x0, [x29, #-8]
	str	x0, [sp]                        ; 8-byte Folded Spill
Ltmp187:
Ltmp190:
	.loc	1 55 13 prologue_end            ; external/subprocess/subprocess/environ.hpp:55:13
	bl	__ZN10subprocess6setcwdERKNSt3__112basic_stringIcNS0_11char_traitsIcEENS0_9allocatorIcEEEE
Ltmp188:
	b	LBB29_1
LBB29_1:
	.loc	1 0 13 is_stmt 0                ; external/subprocess/subprocess/environ.hpp:0:13
	ldr	x0, [sp]                        ; 8-byte Folded Reload
	.loc	1 56 9 is_stmt 1                ; external/subprocess/subprocess/environ.hpp:56:9
	bl	__ZNSt3__112basic_stringIcNS_11char_traitsIcEENS_9allocatorIcEEED1Ev
	ldr	x0, [sp]                        ; 8-byte Folded Reload
Ltmp191:
	.loc	1 56 9 is_stmt 0                ; external/subprocess/subprocess/environ.hpp:56:9
	ldp	x29, x30, [sp, #32]             ; 16-byte Folded Reload
	add	sp, sp, #48
	ret
LBB29_2:
Ltmp189:
Ltmp192:
	.loc	1 56 9                          ; external/subprocess/subprocess/environ.hpp:56:9
	mov	x9, x0
	ldr	x0, [sp]                        ; 8-byte Folded Reload
	mov	x8, x1
	str	x9, [sp, #16]
	str	w8, [sp, #12]
	bl	__ZNSt3__112basic_stringIcNS_11char_traitsIcEENS_9allocatorIcEEED1Ev
	b	LBB29_3
LBB29_3:
	ldr	x0, [sp, #16]
	bl	___clang_call_terminate
Ltmp193:
Lfunc_end29:
	.cfi_endproc
	.section	__TEXT,__gcc_except_tab
	.p2align	2
GCC_except_table29:
Lexception6:
	.byte	255                             ; @LPStart Encoding = omit
	.byte	155                             ; @TType Encoding = indirect pcrel sdata4
	.uleb128 Lttbase2-Lttbaseref2
Lttbaseref2:
	.byte	1                               ; Call site Encoding = uleb128
	.uleb128 Lcst_end6-Lcst_begin6
Lcst_begin6:
	.uleb128 Ltmp187-Lfunc_begin29          ; >> Call Site 1 <<
	.uleb128 Ltmp188-Ltmp187                ;   Call between Ltmp187 and Ltmp188
	.uleb128 Ltmp189-Lfunc_begin29          ;     jumps to Ltmp189
	.byte	1                               ;   On action: 1
Lcst_end6:
	.byte	1                               ; >> Action Record 1 <<
                                        ;   Catch TypeInfo 1
	.byte	0                               ;   No further actions
	.p2align	2
                                        ; >> Catch TypeInfos <<
	.long	0                               ; TypeInfo 1
Lttbase2:
	.p2align	2
                                        ; -- End function
	.section	__TEXT,__text,regular,pure_instructions
	.private_extern	___clang_call_terminate ; -- Begin function __clang_call_terminate
	.globl	___clang_call_terminate
	.weak_definition	___clang_call_terminate
	.p2align	2
___clang_call_terminate:                ; @__clang_call_terminate
Lfunc_begin30:
	.cfi_startproc
; %bb.0:
	stp	x29, x30, [sp, #-16]!           ; 16-byte Folded Spill
	.cfi_def_cfa_offset 16
	.cfi_offset w30, -8
	.cfi_offset w29, -16
	bl	___cxa_begin_catch
	bl	__ZSt9terminatev
Lfunc_end30:
	.cfi_endproc
                                        ; -- End function
	.globl	__ZN10subprocess8EnvGuardD1Ev   ; -- Begin function _ZN10subprocess8EnvGuardD1Ev
	.p2align	2
__ZN10subprocess8EnvGuardD1Ev:          ; @_ZN10subprocess8EnvGuardD1Ev
Lfunc_begin31:
	.loc	13 64 0 is_stmt 1               ; external/subprocess/subprocess/environ.cpp:64:0
	.cfi_startproc
; %bb.0:
	sub	sp, sp, #32
	stp	x29, x30, [sp, #16]             ; 16-byte Folded Spill
	add	x29, sp, #16
	.cfi_def_cfa w29, 16
	.cfi_offset w30, -8
	.cfi_offset w29, -16
	str	x0, [sp, #8]
	ldr	x0, [sp, #8]
	str	x0, [sp]                        ; 8-byte Folded Spill
Ltmp194:
	.loc	13 64 27 prologue_end           ; external/subprocess/subprocess/environ.cpp:64:27
	bl	__ZN10subprocess8EnvGuardD2Ev
	ldr	x0, [sp]                        ; 8-byte Folded Reload
	.loc	13 77 5                         ; external/subprocess/subprocess/environ.cpp:77:5
	ldp	x29, x30, [sp, #16]             ; 16-byte Folded Reload
	add	sp, sp, #32
	ret
Ltmp195:
Lfunc_end31:
	.cfi_endproc
                                        ; -- End function
	.p2align	2                               ; -- Begin function _ZNSt3__13mapINS_12basic_stringIcNS_11char_traitsIcEENS_9allocatorIcEEEES6_NS_4lessIS6_EENS4_INS_4pairIKS6_S6_EEEEEC1Ev
__ZNSt3__13mapINS_12basic_stringIcNS_11char_traitsIcEENS_9allocatorIcEEEES6_NS_4lessIS6_EENS4_INS_4pairIKS6_S6_EEEEEC1Ev: ; @_ZNSt3__13mapINS_12basic_stringIcNS_11char_traitsIcEENS_9allocatorIcEEEES6_NS_4lessIS6_EENS4_INS_4pairIKS6_S6_EEEEEC1Ev
Lfunc_begin32:
	.loc	21 992 0                        ; /Applications/Xcode.app/Contents/Developer/Platforms/MacOSX.platform/Developer/SDKs/MacOSX13.1.sdk/usr/include/c++/v1/map:992:0
	.cfi_startproc
; %bb.0:
	sub	sp, sp, #32
	stp	x29, x30, [sp, #16]             ; 16-byte Folded Spill
	add	x29, sp, #16
	.cfi_def_cfa w29, 16
	.cfi_offset w30, -8
	.cfi_offset w29, -16
	str	x0, [sp, #8]
	ldr	x0, [sp, #8]
	str	x0, [sp]                        ; 8-byte Folded Spill
Ltmp196:
	.loc	21 992 40 prologue_end          ; /Applications/Xcode.app/Contents/Developer/Platforms/MacOSX.platform/Developer/SDKs/MacOSX13.1.sdk/usr/include/c++/v1/map:992:40
	bl	__ZNSt3__13mapINS_12basic_stringIcNS_11char_traitsIcEENS_9allocatorIcEEEES6_NS_4lessIS6_EENS4_INS_4pairIKS6_S6_EEEEEC2Ev
	ldr	x0, [sp]                        ; 8-byte Folded Reload
	.loc	21 992 41 is_stmt 0             ; /Applications/Xcode.app/Contents/Developer/Platforms/MacOSX.platform/Developer/SDKs/MacOSX13.1.sdk/usr/include/c++/v1/map:992:41
	ldp	x29, x30, [sp, #16]             ; 16-byte Folded Reload
	add	sp, sp, #32
	ret
Ltmp197:
Lfunc_end32:
	.cfi_endproc
                                        ; -- End function
	.p2align	2                               ; -- Begin function _ZNSt3__112basic_stringIcNS_11char_traitsIcEENS_9allocatorIcEEEC1IPcvEET_S8_
__ZNSt3__112basic_stringIcNS_11char_traitsIcEENS_9allocatorIcEEEC1IPcvEET_S8_: ; @_ZNSt3__112basic_stringIcNS_11char_traitsIcEENS_9allocatorIcEEEC1IPcvEET_S8_
Lfunc_begin33:
	.loc	5 2247 0 is_stmt 1              ; /Applications/Xcode.app/Contents/Developer/Platforms/MacOSX.platform/Developer/SDKs/MacOSX13.1.sdk/usr/include/c++/v1/string:2247:0
	.cfi_startproc
; %bb.0:
	sub	sp, sp, #48
	stp	x29, x30, [sp, #32]             ; 16-byte Folded Spill
	add	x29, sp, #32
	.cfi_def_cfa w29, 16
	.cfi_offset w30, -8
	.cfi_offset w29, -16
	stur	x0, [x29, #-8]
	str	x1, [sp, #16]
	str	x2, [sp, #8]
	ldur	x0, [x29, #-8]
	str	x0, [sp]                        ; 8-byte Folded Spill
Ltmp198:
	.loc	5 2247 1 prologue_end           ; /Applications/Xcode.app/Contents/Developer/Platforms/MacOSX.platform/Developer/SDKs/MacOSX13.1.sdk/usr/include/c++/v1/string:2247:1
	ldr	x1, [sp, #16]
	ldr	x2, [sp, #8]
	bl	__ZNSt3__112basic_stringIcNS_11char_traitsIcEENS_9allocatorIcEEEC2IPcvEET_S8_
	ldr	x0, [sp]                        ; 8-byte Folded Reload
	.loc	5 2252 1                        ; /Applications/Xcode.app/Contents/Developer/Platforms/MacOSX.platform/Developer/SDKs/MacOSX13.1.sdk/usr/include/c++/v1/string:2252:1
	ldp	x29, x30, [sp, #32]             ; 16-byte Folded Reload
	add	sp, sp, #48
	ret
Ltmp199:
Lfunc_end33:
	.cfi_endproc
                                        ; -- End function
	.globl	__ZNSt3__13mapINS_12basic_stringIcNS_11char_traitsIcEENS_9allocatorIcEEEES6_NS_4lessIS6_EENS4_INS_4pairIKS6_S6_EEEEEixERSA_ ; -- Begin function _ZNSt3__13mapINS_12basic_stringIcNS_11char_traitsIcEENS_9allocatorIcEEEES6_NS_4lessIS6_EENS4_INS_4pairIKS6_S6_EEEEEixERSA_
	.weak_definition	__ZNSt3__13mapINS_12basic_stringIcNS_11char_traitsIcEENS_9allocatorIcEEEES6_NS_4lessIS6_EENS4_INS_4pairIKS6_S6_EEEEEixERSA_
	.p2align	2
__ZNSt3__13mapINS_12basic_stringIcNS_11char_traitsIcEENS_9allocatorIcEEEES6_NS_4lessIS6_EENS4_INS_4pairIKS6_S6_EEEEEixERSA_: ; @_ZNSt3__13mapINS_12basic_stringIcNS_11char_traitsIcEENS_9allocatorIcEEEES6_NS_4lessIS6_EENS4_INS_4pairIKS6_S6_EEEEEixERSA_
Lfunc_begin34:
	.loc	21 1549 0                       ; /Applications/Xcode.app/Contents/Developer/Platforms/MacOSX.platform/Developer/SDKs/MacOSX13.1.sdk/usr/include/c++/v1/map:1549:0
	.cfi_startproc
; %bb.0:
	sub	sp, sp, #96
	stp	x29, x30, [sp, #80]             ; 16-byte Folded Spill
	add	x29, sp, #80
	.cfi_def_cfa w29, 16
	.cfi_offset w30, -8
	.cfi_offset w29, -16
	stur	x0, [x29, #-8]
	stur	x1, [x29, #-16]
	ldur	x8, [x29, #-8]
	str	x8, [sp, #8]                    ; 8-byte Folded Spill
Ltmp200:
	.loc	21 1550 46 prologue_end         ; /Applications/Xcode.app/Contents/Developer/Platforms/MacOSX.platform/Developer/SDKs/MacOSX13.1.sdk/usr/include/c++/v1/map:1550:46
	ldur	x8, [x29, #-16]
	str	x8, [sp, #16]                   ; 8-byte Folded Spill
	.loc	21 1552 36                      ; /Applications/Xcode.app/Contents/Developer/Platforms/MacOSX.platform/Developer/SDKs/MacOSX13.1.sdk/usr/include/c++/v1/map:1552:36
	ldur	x0, [x29, #-16]
	.loc	21 1552 9 is_stmt 0             ; /Applications/Xcode.app/Contents/Developer/Platforms/MacOSX.platform/Developer/SDKs/MacOSX13.1.sdk/usr/include/c++/v1/map:1552:9
	bl	__ZNSt3__1L16forward_as_tupleIJRKNS_12basic_stringIcNS_11char_traitsIcEENS_9allocatorIcEEEEEEENS_5tupleIJDpOT_EEESC_
	add	x8, sp, #40
	str	x8, [sp, #24]                   ; 8-byte Folded Spill
	str	x0, [sp, #40]
	.loc	21 1553 9 is_stmt 1             ; /Applications/Xcode.app/Contents/Developer/Platforms/MacOSX.platform/Developer/SDKs/MacOSX13.1.sdk/usr/include/c++/v1/map:1553:9
	bl	__ZNSt3__1L16forward_as_tupleIJEEENS_5tupleIJDpOT_EEES4_
	ldr	x0, [sp, #8]                    ; 8-byte Folded Reload
	ldr	x1, [sp, #16]                   ; 8-byte Folded Reload
	ldr	x3, [sp, #24]                   ; 8-byte Folded Reload
	.loc	21 0 0 is_stmt 0                ; /Applications/Xcode.app/Contents/Developer/Platforms/MacOSX.platform/Developer/SDKs/MacOSX13.1.sdk/usr/include/c++/v1/map:0:0
	adrp	x2, __ZNSt3__1L19piecewise_constructE@PAGE
	add	x2, x2, __ZNSt3__1L19piecewise_constructE@PAGEOFF
	add	x4, sp, #39
	.loc	21 1550 20 is_stmt 1            ; /Applications/Xcode.app/Contents/Developer/Platforms/MacOSX.platform/Developer/SDKs/MacOSX13.1.sdk/usr/include/c++/v1/map:1550:20
	bl	__ZNSt3__16__treeINS_12__value_typeINS_12basic_stringIcNS_11char_traitsIcEENS_9allocatorIcEEEES7_EENS_19__map_value_compareIS7_S8_NS_4lessIS7_EELb1EEENS5_IS8_EEE25__emplace_unique_key_argsIS7_JRKNS_21piecewise_construct_tENS_5tupleIJRKS7_EEENSJ_IJEEEEEENS_4pairINS_15__tree_iteratorIS8_PNS_11__tree_nodeIS8_PvEElEEbEERKT_DpOT0_
	mov	x8, x0
	sub	x0, x29, #32
	stur	x8, [x29, #-32]
	stur	x1, [x29, #-24]
	.loc	21 1550 12 is_stmt 0            ; /Applications/Xcode.app/Contents/Developer/Platforms/MacOSX.platform/Developer/SDKs/MacOSX13.1.sdk/usr/include/c++/v1/map:1550:12
	bl	__ZNKSt3__115__tree_iteratorINS_12__value_typeINS_12basic_stringIcNS_11char_traitsIcEENS_9allocatorIcEEEES7_EEPNS_11__tree_nodeIS8_PvEElEptEv
	.loc	21 1553 46 is_stmt 1            ; /Applications/Xcode.app/Contents/Developer/Platforms/MacOSX.platform/Developer/SDKs/MacOSX13.1.sdk/usr/include/c++/v1/map:1553:46
	bl	__ZNSt3__112__value_typeINS_12basic_stringIcNS_11char_traitsIcEENS_9allocatorIcEEEES6_E11__get_valueEv
	.loc	21 1553 60 is_stmt 0            ; /Applications/Xcode.app/Contents/Developer/Platforms/MacOSX.platform/Developer/SDKs/MacOSX13.1.sdk/usr/include/c++/v1/map:1553:60
	add	x0, x0, #24
	.loc	21 1550 5 is_stmt 1             ; /Applications/Xcode.app/Contents/Developer/Platforms/MacOSX.platform/Developer/SDKs/MacOSX13.1.sdk/usr/include/c++/v1/map:1550:5
	ldp	x29, x30, [sp, #80]             ; 16-byte Folded Reload
	add	sp, sp, #96
	ret
Ltmp201:
Lfunc_end34:
	.cfi_endproc
                                        ; -- End function
	.p2align	2                               ; -- Begin function _ZNSt3__112basic_stringIcNS_11char_traitsIcEENS_9allocatorIcEEEaSEPKc
__ZNSt3__112basic_stringIcNS_11char_traitsIcEENS_9allocatorIcEEEaSEPKc: ; @_ZNSt3__112basic_stringIcNS_11char_traitsIcEENS_9allocatorIcEEEaSEPKc
Lfunc_begin35:
	.loc	5 918 0                         ; /Applications/Xcode.app/Contents/Developer/Platforms/MacOSX.platform/Developer/SDKs/MacOSX13.1.sdk/usr/include/c++/v1/string:918:0
	.cfi_startproc
; %bb.0:
	sub	sp, sp, #32
	stp	x29, x30, [sp, #16]             ; 16-byte Folded Spill
	add	x29, sp, #16
	.cfi_def_cfa w29, 16
	.cfi_offset w30, -8
	.cfi_offset w29, -16
	str	x0, [sp, #8]
	str	x1, [sp]
	ldr	x0, [sp, #8]
Ltmp202:
	.loc	5 918 145 prologue_end          ; /Applications/Xcode.app/Contents/Developer/Platforms/MacOSX.platform/Developer/SDKs/MacOSX13.1.sdk/usr/include/c++/v1/string:918:145
	ldr	x1, [sp]
	.loc	5 918 138 is_stmt 0             ; /Applications/Xcode.app/Contents/Developer/Platforms/MacOSX.platform/Developer/SDKs/MacOSX13.1.sdk/usr/include/c++/v1/string:918:138
	bl	__ZNSt3__112basic_stringIcNS_11char_traitsIcEENS_9allocatorIcEEE6assignEPKc
	.loc	5 918 131                       ; /Applications/Xcode.app/Contents/Developer/Platforms/MacOSX.platform/Developer/SDKs/MacOSX13.1.sdk/usr/include/c++/v1/string:918:131
	ldp	x29, x30, [sp, #16]             ; 16-byte Folded Reload
	add	sp, sp, #32
	ret
Ltmp203:
Lfunc_end35:
	.cfi_endproc
                                        ; -- End function
	.globl	__ZN10subprocess16create_env_blockERKNSt3__13mapINS0_12basic_stringIcNS0_11char_traitsIcEENS0_9allocatorIcEEEES7_NS0_4lessIS7_EENS5_INS0_4pairIKS7_S7_EEEEEE ; -- Begin function _ZN10subprocess16create_env_blockERKNSt3__13mapINS0_12basic_stringIcNS0_11char_traitsIcEENS0_9allocatorIcEEEES7_NS0_4lessIS7_EENS5_INS0_4pairIKS7_S7_EEEEEE
	.p2align	2
__ZN10subprocess16create_env_blockERKNSt3__13mapINS0_12basic_stringIcNS0_11char_traitsIcEENS0_9allocatorIcEEEES7_NS0_4lessIS7_EENS5_INS0_4pairIKS7_S7_EEEEEE: ; @_ZN10subprocess16create_env_blockERKNSt3__13mapINS0_12basic_stringIcNS0_11char_traitsIcEENS0_9allocatorIcEEEES7_NS0_4lessIS7_EENS5_INS0_4pairIKS7_S7_EEEEEE
Lfunc_begin36:
	.loc	13 117 0 is_stmt 1              ; external/subprocess/subprocess/environ.cpp:117:0
	.cfi_startproc
	.cfi_personality 155, ___gxx_personality_v0
	.cfi_lsda 16, Lexception7
; %bb.0:
	sub	sp, sp, #240
	stp	x29, x30, [sp, #224]            ; 16-byte Folded Spill
	add	x29, sp, #224
	.cfi_def_cfa w29, 16
	.cfi_offset w30, -8
	.cfi_offset w29, -16
	str	x8, [sp, #32]                   ; 8-byte Folded Spill
	stur	x8, [x29, #-8]
	stur	x0, [x29, #-16]
Ltmp228:
	.loc	13 118 16 prologue_end          ; external/subprocess/subprocess/environ.cpp:118:16
	stur	xzr, [x29, #-24]
Ltmp229:
	.loc	13 119 27                       ; external/subprocess/subprocess/environ.cpp:119:27
	ldur	x8, [x29, #-16]
	stur	x8, [x29, #-32]
	.loc	13 119 25 is_stmt 0             ; external/subprocess/subprocess/environ.cpp:119:25
	ldur	x0, [x29, #-32]
	bl	__ZNKSt3__13mapINS_12basic_stringIcNS_11char_traitsIcEENS_9allocatorIcEEEES6_NS_4lessIS6_EENS4_INS_4pairIKS6_S6_EEEEE5beginEv
	stur	x0, [x29, #-40]
	ldur	x0, [x29, #-32]
	bl	__ZNKSt3__13mapINS_12basic_stringIcNS_11char_traitsIcEENS_9allocatorIcEEEES6_NS_4lessIS6_EENS4_INS_4pairIKS6_S6_EEEEE3endEv
	stur	x0, [x29, #-48]
	b	LBB36_1
LBB36_1:                                ; =>This Inner Loop Header: Depth=1
	.loc	13 0 25                         ; external/subprocess/subprocess/environ.cpp:0:25
	sub	x0, x29, #40
	sub	x1, x29, #48
	.loc	13 119 25                       ; external/subprocess/subprocess/environ.cpp:119:25
	bl	__ZNSt3__1neERKNS_20__map_const_iteratorINS_21__tree_const_iteratorINS_12__value_typeINS_12basic_stringIcNS_11char_traitsIcEENS_9allocatorIcEEEES8_EEPNS_11__tree_nodeIS9_PvEElEEEESH_
	tbz	w0, #0, LBB36_4
	b	LBB36_2
LBB36_2:                                ;   in Loop: Header=BB36_1 Depth=1
	.loc	13 0 25                         ; external/subprocess/subprocess/environ.cpp:0:25
	sub	x0, x29, #40
Ltmp230:
	.loc	13 119 25                       ; external/subprocess/subprocess/environ.cpp:119:25
	bl	__ZNKSt3__120__map_const_iteratorINS_21__tree_const_iteratorINS_12__value_typeINS_12basic_stringIcNS_11char_traitsIcEENS_9allocatorIcEEEES8_EEPNS_11__tree_nodeIS9_PvEElEEEdeEv
	.loc	13 119 20                       ; external/subprocess/subprocess/environ.cpp:119:20
	stur	x0, [x29, #-56]
Ltmp231:
	.loc	13 120 21 is_stmt 1             ; external/subprocess/subprocess/environ.cpp:120:21
	ldur	x0, [x29, #-56]
	.loc	13 120 32 is_stmt 0             ; external/subprocess/subprocess/environ.cpp:120:32
	bl	__ZNKSt3__112basic_stringIcNS_11char_traitsIcEENS_9allocatorIcEEE4sizeEv
	str	x0, [sp, #24]                   ; 8-byte Folded Spill
	.loc	13 120 41                       ; external/subprocess/subprocess/environ.cpp:120:41
	ldur	x8, [x29, #-56]
	.loc	13 120 46                       ; external/subprocess/subprocess/environ.cpp:120:46
	add	x0, x8, #24
	.loc	13 120 53                       ; external/subprocess/subprocess/environ.cpp:120:53
	bl	__ZNKSt3__112basic_stringIcNS_11char_traitsIcEENS_9allocatorIcEEE4sizeEv
	mov	x8, x0
	ldr	x0, [sp, #24]                   ; 8-byte Folded Reload
	.loc	13 120 39                       ; external/subprocess/subprocess/environ.cpp:120:39
	add	x8, x0, x8
	.loc	13 120 60                       ; external/subprocess/subprocess/environ.cpp:120:60
	add	x9, x8, #2
	.loc	13 120 18                       ; external/subprocess/subprocess/environ.cpp:120:18
	ldur	x8, [x29, #-24]
	add	x8, x8, x9
	stur	x8, [x29, #-24]
Ltmp232:
	.loc	13 119 9 is_stmt 1              ; external/subprocess/subprocess/environ.cpp:119:9
	b	LBB36_3
LBB36_3:                                ;   in Loop: Header=BB36_1 Depth=1
	.loc	13 0 9 is_stmt 0                ; external/subprocess/subprocess/environ.cpp:0:9
	sub	x0, x29, #40
	.loc	13 119 25                       ; external/subprocess/subprocess/environ.cpp:119:25
	bl	__ZNSt3__120__map_const_iteratorINS_21__tree_const_iteratorINS_12__value_typeINS_12basic_stringIcNS_11char_traitsIcEENS_9allocatorIcEEEES8_EEPNS_11__tree_nodeIS9_PvEElEEEppEv
	b	LBB36_1
Ltmp233:
LBB36_4:
	.loc	13 0 25                         ; external/subprocess/subprocess/environ.cpp:0:25
	ldr	x0, [sp, #32]                   ; 8-byte Folded Reload
	.loc	13 122 14 is_stmt 1             ; external/subprocess/subprocess/environ.cpp:122:14
	ldur	x8, [x29, #-24]
	add	x8, x8, #1
	stur	x8, [x29, #-24]
	mov	w8, #0
	.loc	13 124 9                        ; external/subprocess/subprocess/environ.cpp:124:9
	and	w8, w8, #0x1
	and	w8, w8, #0x1
	sturb	w8, [x29, #-57]
	.loc	13 124 24 is_stmt 0             ; external/subprocess/subprocess/environ.cpp:124:24
	bl	__ZNSt3__112basic_stringIDsNS_11char_traitsIDsEENS_9allocatorIDsEEEC1Ev
	ldr	x0, [sp, #32]                   ; 8-byte Folded Reload
	.loc	13 125 24 is_stmt 1             ; external/subprocess/subprocess/environ.cpp:125:24
	ldur	x8, [x29, #-24]
	.loc	13 125 28 is_stmt 0             ; external/subprocess/subprocess/environ.cpp:125:28
	lsl	x1, x8, #1
Ltmp204:
	.loc	13 125 16                       ; external/subprocess/subprocess/environ.cpp:125:16
	bl	__ZNSt3__112basic_stringIDsNS_11char_traitsIDsEENS_9allocatorIDsEEE7reserveEm
Ltmp205:
	b	LBB36_5
LBB36_5:
Ltmp234:
	.loc	13 126 27 is_stmt 1             ; external/subprocess/subprocess/environ.cpp:126:27
	ldur	x8, [x29, #-16]
	stur	x8, [x29, #-88]
	.loc	13 126 25 is_stmt 0             ; external/subprocess/subprocess/environ.cpp:126:25
	ldur	x0, [x29, #-88]
	bl	__ZNKSt3__13mapINS_12basic_stringIcNS_11char_traitsIcEENS_9allocatorIcEEEES6_NS_4lessIS6_EENS4_INS_4pairIKS6_S6_EEEEE5beginEv
	stur	x0, [x29, #-96]
	ldur	x0, [x29, #-88]
	bl	__ZNKSt3__13mapINS_12basic_stringIcNS_11char_traitsIcEENS_9allocatorIcEEEES6_NS_4lessIS6_EENS4_INS_4pairIKS6_S6_EEEEE3endEv
	stur	x0, [x29, #-104]
	b	LBB36_6
LBB36_6:                                ; =>This Inner Loop Header: Depth=1
Ltmp206:
	.loc	13 0 25                         ; external/subprocess/subprocess/environ.cpp:0:25
	sub	x0, x29, #96
	sub	x1, x29, #104
	.loc	13 126 25                       ; external/subprocess/subprocess/environ.cpp:126:25
	bl	__ZNSt3__1neERKNS_20__map_const_iteratorINS_21__tree_const_iteratorINS_12__value_typeINS_12basic_stringIcNS_11char_traitsIcEENS_9allocatorIcEEEES8_EEPNS_11__tree_nodeIS9_PvEElEEEESH_
	str	w0, [sp, #20]                   ; 4-byte Folded Spill
Ltmp207:
	b	LBB36_7
LBB36_7:                                ;   in Loop: Header=BB36_6 Depth=1
	.loc	13 0 25                         ; external/subprocess/subprocess/environ.cpp:0:25
	ldr	w8, [sp, #20]                   ; 4-byte Folded Reload
	.loc	13 126 25                       ; external/subprocess/subprocess/environ.cpp:126:25
	tbz	w8, #0, LBB36_22
	b	LBB36_8
LBB36_8:                                ;   in Loop: Header=BB36_6 Depth=1
Ltmp210:
	.loc	13 0 25                         ; external/subprocess/subprocess/environ.cpp:0:25
	sub	x0, x29, #96
Ltmp235:
	.loc	13 126 25                       ; external/subprocess/subprocess/environ.cpp:126:25
	bl	__ZNKSt3__120__map_const_iteratorINS_21__tree_const_iteratorINS_12__value_typeINS_12basic_stringIcNS_11char_traitsIcEENS_9allocatorIcEEEES8_EEPNS_11__tree_nodeIS9_PvEElEEEdeEv
	str	x0, [sp, #8]                    ; 8-byte Folded Spill
Ltmp211:
	b	LBB36_9
LBB36_9:                                ;   in Loop: Header=BB36_6 Depth=1
	.loc	13 0 25                         ; external/subprocess/subprocess/environ.cpp:0:25
	ldr	x8, [sp, #8]                    ; 8-byte Folded Reload
	.loc	13 126 20                       ; external/subprocess/subprocess/environ.cpp:126:20
	str	x8, [sp, #112]
Ltmp236:
	.loc	13 127 32 is_stmt 1             ; external/subprocess/subprocess/environ.cpp:127:32
	ldr	x0, [sp, #112]
Ltmp212:
	add	x8, sp, #64
	.loc	13 0 0 is_stmt 0                ; external/subprocess/subprocess/environ.cpp:0:0
	adrp	x1, l_.str.6@PAGE
	add	x1, x1, l_.str.6@PAGEOFF
	.loc	13 127 43                       ; external/subprocess/subprocess/environ.cpp:127:43
	bl	__ZNSt3__1plIcNS_11char_traitsIcEENS_9allocatorIcEEEENS_12basic_stringIT_T0_T1_EERKS9_PKS6_
Ltmp213:
	b	LBB36_10
LBB36_10:                               ;   in Loop: Header=BB36_6 Depth=1
	.loc	13 127 51                       ; external/subprocess/subprocess/environ.cpp:127:51
	ldr	x8, [sp, #112]
	.loc	13 127 56                       ; external/subprocess/subprocess/environ.cpp:127:56
	add	x1, x8, #24
Ltmp214:
	add	x8, sp, #88
	add	x0, sp, #64
	.loc	13 127 49                       ; external/subprocess/subprocess/environ.cpp:127:49
	bl	__ZNSt3__1plIcNS_11char_traitsIcEENS_9allocatorIcEEEENS_12basic_stringIT_T0_T1_EEOS9_RKS9_
Ltmp215:
	b	LBB36_11
LBB36_11:                               ;   in Loop: Header=BB36_6 Depth=1
	.loc	13 0 49                         ; external/subprocess/subprocess/environ.cpp:0:49
	add	x0, sp, #64
	.loc	13 127 32                       ; external/subprocess/subprocess/environ.cpp:127:32
	bl	__ZNSt3__112basic_stringIcNS_11char_traitsIcEENS_9allocatorIcEEED1Ev
Ltmp217:
	add	x8, sp, #40
	add	x0, sp, #88
	.loc	13 128 23 is_stmt 1             ; external/subprocess/subprocess/environ.cpp:128:23
	bl	__ZN10subprocess13utf8_to_utf16ERKNSt3__112basic_stringIcNS0_11char_traitsIcEENS0_9allocatorIcEEEE
Ltmp218:
	b	LBB36_12
LBB36_12:                               ;   in Loop: Header=BB36_6 Depth=1
Ltmp219:
	.loc	13 0 23 is_stmt 0               ; external/subprocess/subprocess/environ.cpp:0:23
	ldr	x0, [sp, #32]                   ; 8-byte Folded Reload
	add	x1, sp, #40
	.loc	13 128 20                       ; external/subprocess/subprocess/environ.cpp:128:20
	bl	__ZNSt3__112basic_stringIDsNS_11char_traitsIDsEENS_9allocatorIDsEEEpLERKS5_
Ltmp220:
	b	LBB36_13
LBB36_13:                               ;   in Loop: Header=BB36_6 Depth=1
	.loc	13 0 20                         ; external/subprocess/subprocess/environ.cpp:0:20
	add	x0, sp, #40
	.loc	13 128 13                       ; external/subprocess/subprocess/environ.cpp:128:13
	bl	__ZNSt3__112basic_stringIDsNS_11char_traitsIDsEENS_9allocatorIDsEEED1Ev
	ldr	x0, [sp, #32]                   ; 8-byte Folded Reload
Ltmp222:
	mov	w1, #0
	.loc	13 129 20 is_stmt 1             ; external/subprocess/subprocess/environ.cpp:129:20
	bl	__ZNSt3__112basic_stringIDsNS_11char_traitsIDsEENS_9allocatorIDsEEEpLEDs
Ltmp223:
	b	LBB36_14
Ltmp237:
LBB36_14:                               ;   in Loop: Header=BB36_6 Depth=1
	.loc	13 0 20 is_stmt 0               ; external/subprocess/subprocess/environ.cpp:0:20
	add	x0, sp, #88
	.loc	13 130 9 is_stmt 1              ; external/subprocess/subprocess/environ.cpp:130:9
	bl	__ZNSt3__112basic_stringIcNS_11char_traitsIcEENS_9allocatorIcEEED1Ev
Ltmp238:
	.loc	13 126 9                        ; external/subprocess/subprocess/environ.cpp:126:9
	b	LBB36_15
LBB36_15:                               ;   in Loop: Header=BB36_6 Depth=1
Ltmp225:
	.loc	13 0 9 is_stmt 0                ; external/subprocess/subprocess/environ.cpp:0:9
	sub	x0, x29, #96
	.loc	13 126 25                       ; external/subprocess/subprocess/environ.cpp:126:25
	bl	__ZNSt3__120__map_const_iteratorINS_21__tree_const_iteratorINS_12__value_typeINS_12basic_stringIcNS_11char_traitsIcEENS_9allocatorIcEEEES8_EEPNS_11__tree_nodeIS9_PvEElEEEppEv
Ltmp226:
	b	LBB36_16
LBB36_16:                               ;   in Loop: Header=BB36_6 Depth=1
	b	LBB36_6
Ltmp239:
LBB36_17:
Ltmp227:
	.loc	13 133 5 is_stmt 1              ; external/subprocess/subprocess/environ.cpp:133:5
	mov	x8, x1
	stur	x0, [x29, #-72]
	stur	w8, [x29, #-76]
	b	LBB36_26
LBB36_18:
Ltmp216:
Ltmp240:
	.loc	13 133 5 is_stmt 0              ; external/subprocess/subprocess/environ.cpp:133:5
	mov	x8, x1
	stur	x0, [x29, #-72]
	stur	w8, [x29, #-76]
	add	x0, sp, #64
	.loc	13 127 32 is_stmt 1             ; external/subprocess/subprocess/environ.cpp:127:32
	bl	__ZNSt3__112basic_stringIcNS_11char_traitsIcEENS_9allocatorIcEEED1Ev
	b	LBB36_26
LBB36_19:
Ltmp224:
	.loc	13 133 5                        ; external/subprocess/subprocess/environ.cpp:133:5
	mov	x8, x1
	stur	x0, [x29, #-72]
	stur	w8, [x29, #-76]
	b	LBB36_21
LBB36_20:
Ltmp221:
	mov	x8, x1
	stur	x0, [x29, #-72]
	stur	w8, [x29, #-76]
	add	x0, sp, #40
	.loc	13 128 13                       ; external/subprocess/subprocess/environ.cpp:128:13
	bl	__ZNSt3__112basic_stringIDsNS_11char_traitsIDsEENS_9allocatorIDsEEED1Ev
	b	LBB36_21
Ltmp241:
LBB36_21:
	.loc	13 0 13 is_stmt 0               ; external/subprocess/subprocess/environ.cpp:0:13
	add	x0, sp, #88
	.loc	13 130 9 is_stmt 1              ; external/subprocess/subprocess/environ.cpp:130:9
	bl	__ZNSt3__112basic_stringIcNS_11char_traitsIcEENS_9allocatorIcEEED1Ev
	b	LBB36_26
Ltmp242:
LBB36_22:
Ltmp208:
	.loc	13 0 9 is_stmt 0                ; external/subprocess/subprocess/environ.cpp:0:9
	ldr	x0, [sp, #32]                   ; 8-byte Folded Reload
	mov	w1, #0
	.loc	13 131 16 is_stmt 1             ; external/subprocess/subprocess/environ.cpp:131:16
	bl	__ZNSt3__112basic_stringIDsNS_11char_traitsIDsEENS_9allocatorIDsEEEpLEDs
Ltmp209:
	b	LBB36_23
LBB36_23:
	.loc	13 0 16 is_stmt 0               ; external/subprocess/subprocess/environ.cpp:0:16
	mov	w8, #1
	.loc	13 132 9 is_stmt 1              ; external/subprocess/subprocess/environ.cpp:132:9
	and	w8, w8, #0x1
	and	w8, w8, #0x1
	sturb	w8, [x29, #-57]
	.loc	13 133 5                        ; external/subprocess/subprocess/environ.cpp:133:5
	ldurb	w8, [x29, #-57]
	tbnz	w8, #0, LBB36_25
	b	LBB36_24
LBB36_24:
	.loc	13 0 5 is_stmt 0                ; external/subprocess/subprocess/environ.cpp:0:5
	ldr	x0, [sp, #32]                   ; 8-byte Folded Reload
	.loc	13 133 5                        ; external/subprocess/subprocess/environ.cpp:133:5
	bl	__ZNSt3__112basic_stringIDsNS_11char_traitsIDsEENS_9allocatorIDsEEED1Ev
	b	LBB36_25
LBB36_25:
	ldp	x29, x30, [sp, #224]            ; 16-byte Folded Reload
	add	sp, sp, #240
	ret
LBB36_26:
	.loc	13 0 5                          ; external/subprocess/subprocess/environ.cpp:0:5
	ldr	x0, [sp, #32]                   ; 8-byte Folded Reload
	.loc	13 133 5                        ; external/subprocess/subprocess/environ.cpp:133:5
	bl	__ZNSt3__112basic_stringIDsNS_11char_traitsIDsEENS_9allocatorIDsEEED1Ev
	b	LBB36_27
LBB36_27:
	ldur	x0, [x29, #-72]
	bl	__Unwind_Resume
Ltmp243:
Lfunc_end36:
	.cfi_endproc
	.section	__TEXT,__gcc_except_tab
	.p2align	2
GCC_except_table36:
Lexception7:
	.byte	255                             ; @LPStart Encoding = omit
	.byte	255                             ; @TType Encoding = omit
	.byte	1                               ; Call site Encoding = uleb128
	.uleb128 Lcst_end7-Lcst_begin7
Lcst_begin7:
	.uleb128 Lfunc_begin36-Lfunc_begin36    ; >> Call Site 1 <<
	.uleb128 Ltmp204-Lfunc_begin36          ;   Call between Lfunc_begin36 and Ltmp204
	.byte	0                               ;     has no landing pad
	.byte	0                               ;   On action: cleanup
	.uleb128 Ltmp204-Lfunc_begin36          ; >> Call Site 2 <<
	.uleb128 Ltmp213-Ltmp204                ;   Call between Ltmp204 and Ltmp213
	.uleb128 Ltmp227-Lfunc_begin36          ;     jumps to Ltmp227
	.byte	0                               ;   On action: cleanup
	.uleb128 Ltmp214-Lfunc_begin36          ; >> Call Site 3 <<
	.uleb128 Ltmp215-Ltmp214                ;   Call between Ltmp214 and Ltmp215
	.uleb128 Ltmp216-Lfunc_begin36          ;     jumps to Ltmp216
	.byte	0                               ;   On action: cleanup
	.uleb128 Ltmp217-Lfunc_begin36          ; >> Call Site 4 <<
	.uleb128 Ltmp218-Ltmp217                ;   Call between Ltmp217 and Ltmp218
	.uleb128 Ltmp224-Lfunc_begin36          ;     jumps to Ltmp224
	.byte	0                               ;   On action: cleanup
	.uleb128 Ltmp219-Lfunc_begin36          ; >> Call Site 5 <<
	.uleb128 Ltmp220-Ltmp219                ;   Call between Ltmp219 and Ltmp220
	.uleb128 Ltmp221-Lfunc_begin36          ;     jumps to Ltmp221
	.byte	0                               ;   On action: cleanup
	.uleb128 Ltmp222-Lfunc_begin36          ; >> Call Site 6 <<
	.uleb128 Ltmp223-Ltmp222                ;   Call between Ltmp222 and Ltmp223
	.uleb128 Ltmp224-Lfunc_begin36          ;     jumps to Ltmp224
	.byte	0                               ;   On action: cleanup
	.uleb128 Ltmp225-Lfunc_begin36          ; >> Call Site 7 <<
	.uleb128 Ltmp209-Ltmp225                ;   Call between Ltmp225 and Ltmp209
	.uleb128 Ltmp227-Lfunc_begin36          ;     jumps to Ltmp227
	.byte	0                               ;   On action: cleanup
	.uleb128 Ltmp209-Lfunc_begin36          ; >> Call Site 8 <<
	.uleb128 Lfunc_end36-Ltmp209            ;   Call between Ltmp209 and Lfunc_end36
	.byte	0                               ;     has no landing pad
	.byte	0                               ;   On action: cleanup
Lcst_end7:
	.p2align	2
                                        ; -- End function
	.section	__TEXT,__text,regular,pure_instructions
	.p2align	2                               ; -- Begin function _ZNKSt3__13mapINS_12basic_stringIcNS_11char_traitsIcEENS_9allocatorIcEEEES6_NS_4lessIS6_EENS4_INS_4pairIKS6_S6_EEEEE5beginEv
__ZNKSt3__13mapINS_12basic_stringIcNS_11char_traitsIcEENS_9allocatorIcEEEES6_NS_4lessIS6_EENS4_INS_4pairIKS6_S6_EEEEE5beginEv: ; @_ZNKSt3__13mapINS_12basic_stringIcNS_11char_traitsIcEENS_9allocatorIcEEEES6_NS_4lessIS6_EENS4_INS_4pairIKS6_S6_EEEEE5beginEv
Lfunc_begin37:
	.loc	21 1122 0 is_stmt 1             ; /Applications/Xcode.app/Contents/Developer/Platforms/MacOSX.platform/Developer/SDKs/MacOSX13.1.sdk/usr/include/c++/v1/map:1122:0
	.cfi_startproc
; %bb.0:
	sub	sp, sp, #48
	stp	x29, x30, [sp, #32]             ; 16-byte Folded Spill
	add	x29, sp, #32
	.cfi_def_cfa w29, 16
	.cfi_offset w30, -8
	.cfi_offset w29, -16
	str	x0, [sp, #16]
	ldr	x0, [sp, #16]
Ltmp244:
	.loc	21 1122 59 prologue_end         ; /Applications/Xcode.app/Contents/Developer/Platforms/MacOSX.platform/Developer/SDKs/MacOSX13.1.sdk/usr/include/c++/v1/map:1122:59
	bl	__ZNKSt3__16__treeINS_12__value_typeINS_12basic_stringIcNS_11char_traitsIcEENS_9allocatorIcEEEES7_EENS_19__map_value_compareIS7_S8_NS_4lessIS7_EELb1EEENS5_IS8_EEE5beginEv
	str	x0, [sp, #8]
	.loc	21 1122 51 is_stmt 0            ; /Applications/Xcode.app/Contents/Developer/Platforms/MacOSX.platform/Developer/SDKs/MacOSX13.1.sdk/usr/include/c++/v1/map:1122:51
	ldr	x1, [sp, #8]
	sub	x0, x29, #8
	bl	__ZNSt3__120__map_const_iteratorINS_21__tree_const_iteratorINS_12__value_typeINS_12basic_stringIcNS_11char_traitsIcEENS_9allocatorIcEEEES8_EEPNS_11__tree_nodeIS9_PvEElEEEC1ESE_
	.loc	21 1122 44                      ; /Applications/Xcode.app/Contents/Developer/Platforms/MacOSX.platform/Developer/SDKs/MacOSX13.1.sdk/usr/include/c++/v1/map:1122:44
	ldur	x0, [x29, #-8]
	ldp	x29, x30, [sp, #32]             ; 16-byte Folded Reload
	add	sp, sp, #48
	ret
Ltmp245:
Lfunc_end37:
	.cfi_endproc
                                        ; -- End function
	.p2align	2                               ; -- Begin function _ZNKSt3__13mapINS_12basic_stringIcNS_11char_traitsIcEENS_9allocatorIcEEEES6_NS_4lessIS6_EENS4_INS_4pairIKS6_S6_EEEEE3endEv
__ZNKSt3__13mapINS_12basic_stringIcNS_11char_traitsIcEENS_9allocatorIcEEEES6_NS_4lessIS6_EENS4_INS_4pairIKS6_S6_EEEEE3endEv: ; @_ZNKSt3__13mapINS_12basic_stringIcNS_11char_traitsIcEENS_9allocatorIcEEEES6_NS_4lessIS6_EENS4_INS_4pairIKS6_S6_EEEEE3endEv
Lfunc_begin38:
	.loc	21 1126 0 is_stmt 1             ; /Applications/Xcode.app/Contents/Developer/Platforms/MacOSX.platform/Developer/SDKs/MacOSX13.1.sdk/usr/include/c++/v1/map:1126:0
	.cfi_startproc
; %bb.0:
	sub	sp, sp, #48
	stp	x29, x30, [sp, #32]             ; 16-byte Folded Spill
	add	x29, sp, #32
	.cfi_def_cfa w29, 16
	.cfi_offset w30, -8
	.cfi_offset w29, -16
	str	x0, [sp, #16]
	ldr	x0, [sp, #16]
Ltmp246:
	.loc	21 1126 57 prologue_end         ; /Applications/Xcode.app/Contents/Developer/Platforms/MacOSX.platform/Developer/SDKs/MacOSX13.1.sdk/usr/include/c++/v1/map:1126:57
	bl	__ZNKSt3__16__treeINS_12__value_typeINS_12basic_stringIcNS_11char_traitsIcEENS_9allocatorIcEEEES7_EENS_19__map_value_compareIS7_S8_NS_4lessIS7_EELb1EEENS5_IS8_EEE3endEv
	str	x0, [sp, #8]
	.loc	21 1126 49 is_stmt 0            ; /Applications/Xcode.app/Contents/Developer/Platforms/MacOSX.platform/Developer/SDKs/MacOSX13.1.sdk/usr/include/c++/v1/map:1126:49
	ldr	x1, [sp, #8]
	sub	x0, x29, #8
	bl	__ZNSt3__120__map_const_iteratorINS_21__tree_const_iteratorINS_12__value_typeINS_12basic_stringIcNS_11char_traitsIcEENS_9allocatorIcEEEES8_EEPNS_11__tree_nodeIS9_PvEElEEEC1ESE_
	.loc	21 1126 42                      ; /Applications/Xcode.app/Contents/Developer/Platforms/MacOSX.platform/Developer/SDKs/MacOSX13.1.sdk/usr/include/c++/v1/map:1126:42
	ldur	x0, [x29, #-8]
	ldp	x29, x30, [sp, #32]             ; 16-byte Folded Reload
	add	sp, sp, #48
	ret
Ltmp247:
Lfunc_end38:
	.cfi_endproc
                                        ; -- End function
	.p2align	2                               ; -- Begin function _ZNSt3__1neERKNS_20__map_const_iteratorINS_21__tree_const_iteratorINS_12__value_typeINS_12basic_stringIcNS_11char_traitsIcEENS_9allocatorIcEEEES8_EEPNS_11__tree_nodeIS9_PvEElEEEESH_
__ZNSt3__1neERKNS_20__map_const_iteratorINS_21__tree_const_iteratorINS_12__value_typeINS_12basic_stringIcNS_11char_traitsIcEENS_9allocatorIcEEEES8_EEPNS_11__tree_nodeIS9_PvEElEEEESH_: ; @_ZNSt3__1neERKNS_20__map_const_iteratorINS_21__tree_const_iteratorINS_12__value_typeINS_12basic_stringIcNS_11char_traitsIcEENS_9allocatorIcEEEES8_EEPNS_11__tree_nodeIS9_PvEElEEEESH_
Lfunc_begin39:
	.loc	21 907 0 is_stmt 1              ; /Applications/Xcode.app/Contents/Developer/Platforms/MacOSX.platform/Developer/SDKs/MacOSX13.1.sdk/usr/include/c++/v1/map:907:0
	.cfi_startproc
; %bb.0:
	sub	sp, sp, #32
	stp	x29, x30, [sp, #16]             ; 16-byte Folded Spill
	add	x29, sp, #16
	.cfi_def_cfa w29, 16
	.cfi_offset w30, -8
	.cfi_offset w29, -16
	str	x0, [sp, #8]
	str	x1, [sp]
Ltmp248:
	.loc	21 907 17 prologue_end          ; /Applications/Xcode.app/Contents/Developer/Platforms/MacOSX.platform/Developer/SDKs/MacOSX13.1.sdk/usr/include/c++/v1/map:907:17
	ldr	x0, [sp, #8]
	.loc	21 907 29 is_stmt 0             ; /Applications/Xcode.app/Contents/Developer/Platforms/MacOSX.platform/Developer/SDKs/MacOSX13.1.sdk/usr/include/c++/v1/map:907:29
	ldr	x1, [sp]
	.loc	21 907 26                       ; /Applications/Xcode.app/Contents/Developer/Platforms/MacOSX.platform/Developer/SDKs/MacOSX13.1.sdk/usr/include/c++/v1/map:907:26
	bl	__ZNSt3__1neERKNS_21__tree_const_iteratorINS_12__value_typeINS_12basic_stringIcNS_11char_traitsIcEENS_9allocatorIcEEEES7_EEPNS_11__tree_nodeIS8_PvEElEESF_
	.loc	21 907 10                       ; /Applications/Xcode.app/Contents/Developer/Platforms/MacOSX.platform/Developer/SDKs/MacOSX13.1.sdk/usr/include/c++/v1/map:907:10
	and	w0, w0, #0x1
	ldp	x29, x30, [sp, #16]             ; 16-byte Folded Reload
	add	sp, sp, #32
	ret
Ltmp249:
Lfunc_end39:
	.cfi_endproc
                                        ; -- End function
	.p2align	2                               ; -- Begin function _ZNKSt3__120__map_const_iteratorINS_21__tree_const_iteratorINS_12__value_typeINS_12basic_stringIcNS_11char_traitsIcEENS_9allocatorIcEEEES8_EEPNS_11__tree_nodeIS9_PvEElEEEdeEv
__ZNKSt3__120__map_const_iteratorINS_21__tree_const_iteratorINS_12__value_typeINS_12basic_stringIcNS_11char_traitsIcEENS_9allocatorIcEEEES8_EEPNS_11__tree_nodeIS9_PvEElEEEdeEv: ; @_ZNKSt3__120__map_const_iteratorINS_21__tree_const_iteratorINS_12__value_typeINS_12basic_stringIcNS_11char_traitsIcEENS_9allocatorIcEEEES8_EEPNS_11__tree_nodeIS9_PvEElEEEdeEv
Lfunc_begin40:
	.loc	21 878 0 is_stmt 1              ; /Applications/Xcode.app/Contents/Developer/Platforms/MacOSX.platform/Developer/SDKs/MacOSX13.1.sdk/usr/include/c++/v1/map:878:0
	.cfi_startproc
; %bb.0:
	sub	sp, sp, #32
	stp	x29, x30, [sp, #16]             ; 16-byte Folded Spill
	add	x29, sp, #16
	.cfi_def_cfa w29, 16
	.cfi_offset w30, -8
	.cfi_offset w29, -16
	str	x0, [sp, #8]
	ldr	x0, [sp, #8]
Ltmp250:
	.loc	21 878 41 prologue_end          ; /Applications/Xcode.app/Contents/Developer/Platforms/MacOSX.platform/Developer/SDKs/MacOSX13.1.sdk/usr/include/c++/v1/map:878:41
	bl	__ZNKSt3__121__tree_const_iteratorINS_12__value_typeINS_12basic_stringIcNS_11char_traitsIcEENS_9allocatorIcEEEES7_EEPNS_11__tree_nodeIS8_PvEElEptEv
	.loc	21 878 47 is_stmt 0             ; /Applications/Xcode.app/Contents/Developer/Platforms/MacOSX.platform/Developer/SDKs/MacOSX13.1.sdk/usr/include/c++/v1/map:878:47
	bl	__ZNKSt3__112__value_typeINS_12basic_stringIcNS_11char_traitsIcEENS_9allocatorIcEEEES6_E11__get_valueEv
	.loc	21 878 34                       ; /Applications/Xcode.app/Contents/Developer/Platforms/MacOSX.platform/Developer/SDKs/MacOSX13.1.sdk/usr/include/c++/v1/map:878:34
	ldp	x29, x30, [sp, #16]             ; 16-byte Folded Reload
	add	sp, sp, #32
	ret
Ltmp251:
Lfunc_end40:
	.cfi_endproc
                                        ; -- End function
	.p2align	2                               ; -- Begin function _ZNKSt3__112basic_stringIcNS_11char_traitsIcEENS_9allocatorIcEEE4sizeEv
__ZNKSt3__112basic_stringIcNS_11char_traitsIcEENS_9allocatorIcEEE4sizeEv: ; @_ZNKSt3__112basic_stringIcNS_11char_traitsIcEENS_9allocatorIcEEE4sizeEv
Lfunc_begin41:
	.loc	5 978 0 is_stmt 1               ; /Applications/Xcode.app/Contents/Developer/Platforms/MacOSX.platform/Developer/SDKs/MacOSX13.1.sdk/usr/include/c++/v1/string:978:0
	.cfi_startproc
; %bb.0:
	sub	sp, sp, #48
	stp	x29, x30, [sp, #32]             ; 16-byte Folded Spill
	add	x29, sp, #32
	.cfi_def_cfa w29, 16
	.cfi_offset w30, -8
	.cfi_offset w29, -16
	stur	x0, [x29, #-8]
	ldur	x0, [x29, #-8]
	str	x0, [sp, #16]                   ; 8-byte Folded Spill
Ltmp252:
	.loc	5 978 17 prologue_end           ; /Applications/Xcode.app/Contents/Developer/Platforms/MacOSX.platform/Developer/SDKs/MacOSX13.1.sdk/usr/include/c++/v1/string:978:17
	bl	__ZNKSt3__112basic_stringIcNS_11char_traitsIcEENS_9allocatorIcEEE9__is_longEv
	tbz	w0, #0, LBB41_2
	b	LBB41_1
LBB41_1:
	.loc	5 0 17 is_stmt 0                ; /Applications/Xcode.app/Contents/Developer/Platforms/MacOSX.platform/Developer/SDKs/MacOSX13.1.sdk/usr/include/c++/v1/string:0:17
	ldr	x0, [sp, #16]                   ; 8-byte Folded Reload
	.loc	5 978 31                        ; /Applications/Xcode.app/Contents/Developer/Platforms/MacOSX.platform/Developer/SDKs/MacOSX13.1.sdk/usr/include/c++/v1/string:978:31
	bl	__ZNKSt3__112basic_stringIcNS_11char_traitsIcEENS_9allocatorIcEEE15__get_long_sizeEv
	str	x0, [sp, #8]                    ; 8-byte Folded Spill
	.loc	5 978 17                        ; /Applications/Xcode.app/Contents/Developer/Platforms/MacOSX.platform/Developer/SDKs/MacOSX13.1.sdk/usr/include/c++/v1/string:978:17
	b	LBB41_3
LBB41_2:
	.loc	5 0 17                          ; /Applications/Xcode.app/Contents/Developer/Platforms/MacOSX.platform/Developer/SDKs/MacOSX13.1.sdk/usr/include/c++/v1/string:0:17
	ldr	x0, [sp, #16]                   ; 8-byte Folded Reload
	.loc	5 978 51                        ; /Applications/Xcode.app/Contents/Developer/Platforms/MacOSX.platform/Developer/SDKs/MacOSX13.1.sdk/usr/include/c++/v1/string:978:51
	bl	__ZNKSt3__112basic_stringIcNS_11char_traitsIcEENS_9allocatorIcEEE16__get_short_sizeEv
	str	x0, [sp, #8]                    ; 8-byte Folded Spill
	.loc	5 978 17                        ; /Applications/Xcode.app/Contents/Developer/Platforms/MacOSX.platform/Developer/SDKs/MacOSX13.1.sdk/usr/include/c++/v1/string:978:17
	b	LBB41_3
LBB41_3:
	.loc	5 0 17                          ; /Applications/Xcode.app/Contents/Developer/Platforms/MacOSX.platform/Developer/SDKs/MacOSX13.1.sdk/usr/include/c++/v1/string:0:17
	ldr	x0, [sp, #8]                    ; 8-byte Folded Reload
	.loc	5 978 10                        ; /Applications/Xcode.app/Contents/Developer/Platforms/MacOSX.platform/Developer/SDKs/MacOSX13.1.sdk/usr/include/c++/v1/string:978:10
	ldp	x29, x30, [sp, #32]             ; 16-byte Folded Reload
	add	sp, sp, #48
	ret
Ltmp253:
Lfunc_end41:
	.cfi_endproc
                                        ; -- End function
	.p2align	2                               ; -- Begin function _ZNSt3__120__map_const_iteratorINS_21__tree_const_iteratorINS_12__value_typeINS_12basic_stringIcNS_11char_traitsIcEENS_9allocatorIcEEEES8_EEPNS_11__tree_nodeIS9_PvEElEEEppEv
__ZNSt3__120__map_const_iteratorINS_21__tree_const_iteratorINS_12__value_typeINS_12basic_stringIcNS_11char_traitsIcEENS_9allocatorIcEEEES8_EEPNS_11__tree_nodeIS9_PvEElEEEppEv: ; @_ZNSt3__120__map_const_iteratorINS_21__tree_const_iteratorINS_12__value_typeINS_12basic_stringIcNS_11char_traitsIcEENS_9allocatorIcEEEES8_EEPNS_11__tree_nodeIS9_PvEElEEEppEv
Lfunc_begin42:
	.loc	21 883 0 is_stmt 1              ; /Applications/Xcode.app/Contents/Developer/Platforms/MacOSX.platform/Developer/SDKs/MacOSX13.1.sdk/usr/include/c++/v1/map:883:0
	.cfi_startproc
; %bb.0:
	sub	sp, sp, #32
	stp	x29, x30, [sp, #16]             ; 16-byte Folded Spill
	add	x29, sp, #16
	.cfi_def_cfa w29, 16
	.cfi_offset w30, -8
	.cfi_offset w29, -16
	str	x0, [sp, #8]
	ldr	x0, [sp, #8]
	str	x0, [sp]                        ; 8-byte Folded Spill
Ltmp254:
	.loc	21 883 41 prologue_end          ; /Applications/Xcode.app/Contents/Developer/Platforms/MacOSX.platform/Developer/SDKs/MacOSX13.1.sdk/usr/include/c++/v1/map:883:41
	bl	__ZNSt3__121__tree_const_iteratorINS_12__value_typeINS_12basic_stringIcNS_11char_traitsIcEENS_9allocatorIcEEEES7_EEPNS_11__tree_nodeIS8_PvEElEppEv
	ldr	x0, [sp]                        ; 8-byte Folded Reload
	.loc	21 883 49 is_stmt 0             ; /Applications/Xcode.app/Contents/Developer/Platforms/MacOSX.platform/Developer/SDKs/MacOSX13.1.sdk/usr/include/c++/v1/map:883:49
	ldp	x29, x30, [sp, #16]             ; 16-byte Folded Reload
	add	sp, sp, #32
	ret
Ltmp255:
Lfunc_end42:
	.cfi_endproc
                                        ; -- End function
	.p2align	2                               ; -- Begin function _ZNSt3__112basic_stringIDsNS_11char_traitsIDsEENS_9allocatorIDsEEEC1Ev
__ZNSt3__112basic_stringIDsNS_11char_traitsIDsEENS_9allocatorIDsEEEC1Ev: ; @_ZNSt3__112basic_stringIDsNS_11char_traitsIDsEENS_9allocatorIDsEEEC1Ev
Lfunc_begin43:
	.loc	5 1860 0 is_stmt 1              ; /Applications/Xcode.app/Contents/Developer/Platforms/MacOSX.platform/Developer/SDKs/MacOSX13.1.sdk/usr/include/c++/v1/string:1860:0
	.cfi_startproc
; %bb.0:
	sub	sp, sp, #32
	stp	x29, x30, [sp, #16]             ; 16-byte Folded Spill
	add	x29, sp, #16
	.cfi_def_cfa w29, 16
	.cfi_offset w30, -8
	.cfi_offset w29, -16
	str	x0, [sp, #8]
	ldr	x0, [sp, #8]
	str	x0, [sp]                        ; 8-byte Folded Spill
Ltmp256:
	.loc	5 1860 1 prologue_end           ; /Applications/Xcode.app/Contents/Developer/Platforms/MacOSX.platform/Developer/SDKs/MacOSX13.1.sdk/usr/include/c++/v1/string:1860:1
	bl	__ZNSt3__112basic_stringIDsNS_11char_traitsIDsEENS_9allocatorIDsEEEC2Ev
	ldr	x0, [sp]                        ; 8-byte Folded Reload
	.loc	5 1865 1                        ; /Applications/Xcode.app/Contents/Developer/Platforms/MacOSX.platform/Developer/SDKs/MacOSX13.1.sdk/usr/include/c++/v1/string:1865:1
	ldp	x29, x30, [sp, #16]             ; 16-byte Folded Reload
	add	sp, sp, #32
	ret
Ltmp257:
Lfunc_end43:
	.cfi_endproc
                                        ; -- End function
	.globl	__ZNSt3__112basic_stringIDsNS_11char_traitsIDsEENS_9allocatorIDsEEE7reserveEm ; -- Begin function _ZNSt3__112basic_stringIDsNS_11char_traitsIDsEENS_9allocatorIDsEEE7reserveEm
	.weak_definition	__ZNSt3__112basic_stringIDsNS_11char_traitsIDsEENS_9allocatorIDsEEE7reserveEm
	.p2align	2
__ZNSt3__112basic_stringIDsNS_11char_traitsIDsEENS_9allocatorIDsEEE7reserveEm: ; @_ZNSt3__112basic_stringIDsNS_11char_traitsIDsEENS_9allocatorIDsEEE7reserveEm
Lfunc_begin44:
	.loc	5 3343 0                        ; /Applications/Xcode.app/Contents/Developer/Platforms/MacOSX.platform/Developer/SDKs/MacOSX13.1.sdk/usr/include/c++/v1/string:3343:0
	.cfi_startproc
; %bb.0:
	sub	sp, sp, #80
	stp	x29, x30, [sp, #64]             ; 16-byte Folded Spill
	add	x29, sp, #64
	.cfi_def_cfa w29, 16
	.cfi_offset w30, -8
	.cfi_offset w29, -16
	stur	x0, [x29, #-8]
	stur	x1, [x29, #-16]
	ldur	x0, [x29, #-8]
	str	x0, [sp, #16]                   ; 8-byte Folded Spill
Ltmp258:
	.loc	5 3344 9 prologue_end           ; /Applications/Xcode.app/Contents/Developer/Platforms/MacOSX.platform/Developer/SDKs/MacOSX13.1.sdk/usr/include/c++/v1/string:3344:9
	ldur	x8, [x29, #-16]
	str	x8, [sp, #24]                   ; 8-byte Folded Spill
	.loc	5 3344 32 is_stmt 0             ; /Applications/Xcode.app/Contents/Developer/Platforms/MacOSX.platform/Developer/SDKs/MacOSX13.1.sdk/usr/include/c++/v1/string:3344:32
	bl	__ZNKSt3__112basic_stringIDsNS_11char_traitsIDsEENS_9allocatorIDsEEE8max_sizeEv
	ldr	x8, [sp, #24]                   ; 8-byte Folded Reload
Ltmp259:
	.loc	5 3344 9                        ; /Applications/Xcode.app/Contents/Developer/Platforms/MacOSX.platform/Developer/SDKs/MacOSX13.1.sdk/usr/include/c++/v1/string:3344:9
	subs	x8, x8, x0
	b.ls	LBB44_2
	b	LBB44_1
LBB44_1:
	.loc	5 0 9                           ; /Applications/Xcode.app/Contents/Developer/Platforms/MacOSX.platform/Developer/SDKs/MacOSX13.1.sdk/usr/include/c++/v1/string:0:9
	ldr	x0, [sp, #16]                   ; 8-byte Folded Reload
Ltmp260:
	.loc	5 3345 15 is_stmt 1             ; /Applications/Xcode.app/Contents/Developer/Platforms/MacOSX.platform/Developer/SDKs/MacOSX13.1.sdk/usr/include/c++/v1/string:3345:15
	bl	__ZNKSt3__112basic_stringIDsNS_11char_traitsIDsEENS_9allocatorIDsEEE20__throw_length_errorEv
Ltmp261:
LBB44_2:
	.loc	5 0 15 is_stmt 0                ; /Applications/Xcode.app/Contents/Developer/Platforms/MacOSX.platform/Developer/SDKs/MacOSX13.1.sdk/usr/include/c++/v1/string:0:15
	ldr	x0, [sp, #16]                   ; 8-byte Folded Reload
	.loc	5 3352 71 is_stmt 1             ; /Applications/Xcode.app/Contents/Developer/Platforms/MacOSX.platform/Developer/SDKs/MacOSX13.1.sdk/usr/include/c++/v1/string:3352:71
	bl	__ZNKSt3__112basic_stringIDsNS_11char_traitsIDsEENS_9allocatorIDsEEE4sizeEv
	add	x1, sp, #32
	str	x0, [sp, #32]
	sub	x0, x29, #16
	.loc	5 3352 35 is_stmt 0             ; /Applications/Xcode.app/Contents/Developer/Platforms/MacOSX.platform/Developer/SDKs/MacOSX13.1.sdk/usr/include/c++/v1/string:3352:35
	bl	__ZNSt3__1L3maxImEERKT_S3_S3_
	ldr	x8, [x0]
	.loc	5 3352 15                       ; /Applications/Xcode.app/Contents/Developer/Platforms/MacOSX.platform/Developer/SDKs/MacOSX13.1.sdk/usr/include/c++/v1/string:3352:15
	stur	x8, [x29, #-24]
	.loc	5 3353 37 is_stmt 1             ; /Applications/Xcode.app/Contents/Developer/Platforms/MacOSX.platform/Developer/SDKs/MacOSX13.1.sdk/usr/include/c++/v1/string:3353:37
	ldur	x0, [x29, #-24]
	.loc	5 3353 25 is_stmt 0             ; /Applications/Xcode.app/Contents/Developer/Platforms/MacOSX.platform/Developer/SDKs/MacOSX13.1.sdk/usr/include/c++/v1/string:3353:25
	bl	__ZNSt3__112basic_stringIDsNS_11char_traitsIDsEENS_9allocatorIDsEEE11__recommendEm
	mov	x8, x0
	ldr	x0, [sp, #16]                   ; 8-byte Folded Reload
	.loc	5 3353 23                       ; /Applications/Xcode.app/Contents/Developer/Platforms/MacOSX.platform/Developer/SDKs/MacOSX13.1.sdk/usr/include/c++/v1/string:3353:23
	stur	x8, [x29, #-24]
Ltmp262:
	.loc	5 3354 9 is_stmt 1              ; /Applications/Xcode.app/Contents/Developer/Platforms/MacOSX.platform/Developer/SDKs/MacOSX13.1.sdk/usr/include/c++/v1/string:3354:9
	ldur	x8, [x29, #-24]
	str	x8, [sp, #8]                    ; 8-byte Folded Spill
	.loc	5 3354 30 is_stmt 0             ; /Applications/Xcode.app/Contents/Developer/Platforms/MacOSX.platform/Developer/SDKs/MacOSX13.1.sdk/usr/include/c++/v1/string:3354:30
	bl	__ZNKSt3__112basic_stringIDsNS_11char_traitsIDsEENS_9allocatorIDsEEE8capacityEv
	ldr	x8, [sp, #8]                    ; 8-byte Folded Reload
Ltmp263:
	.loc	5 3354 9                        ; /Applications/Xcode.app/Contents/Developer/Platforms/MacOSX.platform/Developer/SDKs/MacOSX13.1.sdk/usr/include/c++/v1/string:3354:9
	subs	x8, x8, x0
	b.ne	LBB44_4
	b	LBB44_3
LBB44_3:
Ltmp264:
	.loc	5 3354 42                       ; /Applications/Xcode.app/Contents/Developer/Platforms/MacOSX.platform/Developer/SDKs/MacOSX13.1.sdk/usr/include/c++/v1/string:3354:42
	b	LBB44_5
Ltmp265:
LBB44_4:
	.loc	5 0 42                          ; /Applications/Xcode.app/Contents/Developer/Platforms/MacOSX.platform/Developer/SDKs/MacOSX13.1.sdk/usr/include/c++/v1/string:0:42
	ldr	x0, [sp, #16]                   ; 8-byte Folded Reload
	.loc	5 3356 24 is_stmt 1             ; /Applications/Xcode.app/Contents/Developer/Platforms/MacOSX.platform/Developer/SDKs/MacOSX13.1.sdk/usr/include/c++/v1/string:3356:24
	ldur	x1, [x29, #-24]
	.loc	5 3356 5 is_stmt 0              ; /Applications/Xcode.app/Contents/Developer/Platforms/MacOSX.platform/Developer/SDKs/MacOSX13.1.sdk/usr/include/c++/v1/string:3356:5
	bl	__ZNSt3__112basic_stringIDsNS_11char_traitsIDsEENS_9allocatorIDsEEE18__shrink_or_extendEm
	.loc	5 3357 1 is_stmt 1              ; /Applications/Xcode.app/Contents/Developer/Platforms/MacOSX.platform/Developer/SDKs/MacOSX13.1.sdk/usr/include/c++/v1/string:3357:1
	b	LBB44_5
LBB44_5:
	ldp	x29, x30, [sp, #64]             ; 16-byte Folded Reload
	add	sp, sp, #80
	ret
Ltmp266:
Lfunc_end44:
	.cfi_endproc
                                        ; -- End function
	.p2align	2                               ; -- Begin function _ZNSt3__1plIcNS_11char_traitsIcEENS_9allocatorIcEEEENS_12basic_stringIT_T0_T1_EEOS9_RKS9_
__ZNSt3__1plIcNS_11char_traitsIcEENS_9allocatorIcEEEENS_12basic_stringIT_T0_T1_EEOS9_RKS9_: ; @_ZNSt3__1plIcNS_11char_traitsIcEENS_9allocatorIcEEEENS_12basic_stringIT_T0_T1_EEOS9_RKS9_
Lfunc_begin45:
	.loc	5 4338 0                        ; /Applications/Xcode.app/Contents/Developer/Platforms/MacOSX.platform/Developer/SDKs/MacOSX13.1.sdk/usr/include/c++/v1/string:4338:0
	.cfi_startproc
; %bb.0:
	sub	sp, sp, #48
	stp	x29, x30, [sp, #32]             ; 16-byte Folded Spill
	add	x29, sp, #32
	.cfi_def_cfa w29, 16
	.cfi_offset w30, -8
	.cfi_offset w29, -16
	str	x8, [sp]                        ; 8-byte Folded Spill
	stur	x8, [x29, #-8]
	str	x0, [sp, #16]
	str	x1, [sp, #8]
Ltmp267:
	.loc	5 4339 27 prologue_end          ; /Applications/Xcode.app/Contents/Developer/Platforms/MacOSX.platform/Developer/SDKs/MacOSX13.1.sdk/usr/include/c++/v1/string:4339:27
	ldr	x0, [sp, #16]
	.loc	5 4339 40 is_stmt 0             ; /Applications/Xcode.app/Contents/Developer/Platforms/MacOSX.platform/Developer/SDKs/MacOSX13.1.sdk/usr/include/c++/v1/string:4339:40
	ldr	x1, [sp, #8]
	.loc	5 4339 33                       ; /Applications/Xcode.app/Contents/Developer/Platforms/MacOSX.platform/Developer/SDKs/MacOSX13.1.sdk/usr/include/c++/v1/string:4339:33
	bl	__ZNSt3__112basic_stringIcNS_11char_traitsIcEENS_9allocatorIcEEE6appendERKS5_
	.loc	5 4339 12                       ; /Applications/Xcode.app/Contents/Developer/Platforms/MacOSX.platform/Developer/SDKs/MacOSX13.1.sdk/usr/include/c++/v1/string:4339:12
	bl	__ZNSt3__1L4moveIRNS_12basic_stringIcNS_11char_traitsIcEENS_9allocatorIcEEEEEEONS_16remove_referenceIT_E4typeEOS9_
	mov	x1, x0
	ldr	x0, [sp]                        ; 8-byte Folded Reload
	bl	__ZNSt3__112basic_stringIcNS_11char_traitsIcEENS_9allocatorIcEEEC1EOS5_
	.loc	5 4339 5                        ; /Applications/Xcode.app/Contents/Developer/Platforms/MacOSX.platform/Developer/SDKs/MacOSX13.1.sdk/usr/include/c++/v1/string:4339:5
	ldp	x29, x30, [sp, #32]             ; 16-byte Folded Reload
	add	sp, sp, #48
	ret
Ltmp268:
Lfunc_end45:
	.cfi_endproc
                                        ; -- End function
	.p2align	2                               ; -- Begin function _ZNSt3__1plIcNS_11char_traitsIcEENS_9allocatorIcEEEENS_12basic_stringIT_T0_T1_EERKS9_PKS6_
__ZNSt3__1plIcNS_11char_traitsIcEENS_9allocatorIcEEEENS_12basic_stringIT_T0_T1_EERKS9_PKS6_: ; @_ZNSt3__1plIcNS_11char_traitsIcEENS_9allocatorIcEEEENS_12basic_stringIT_T0_T1_EERKS9_PKS6_
Lfunc_begin46:
	.loc	5 4312 0 is_stmt 1              ; /Applications/Xcode.app/Contents/Developer/Platforms/MacOSX.platform/Developer/SDKs/MacOSX13.1.sdk/usr/include/c++/v1/string:4312:0
	.cfi_startproc
	.cfi_personality 155, ___gxx_personality_v0
	.cfi_lsda 16, Lexception8
; %bb.0:
	sub	sp, sp, #96
	stp	x29, x30, [sp, #80]             ; 16-byte Folded Spill
	add	x29, sp, #80
	.cfi_def_cfa w29, 16
	.cfi_offset w30, -8
	.cfi_offset w29, -16
	str	x8, [sp, #8]                    ; 8-byte Folded Spill
	stur	x8, [x29, #-8]
	stur	x0, [x29, #-16]
	stur	x1, [x29, #-24]
	mov	w8, #0
Ltmp274:
	.loc	5 4313 5 prologue_end           ; /Applications/Xcode.app/Contents/Developer/Platforms/MacOSX.platform/Developer/SDKs/MacOSX13.1.sdk/usr/include/c++/v1/string:4313:5
	and	w8, w8, #0x1
	and	w8, w8, #0x1
	sturb	w8, [x29, #-25]
	.loc	5 4313 51 is_stmt 0             ; /Applications/Xcode.app/Contents/Developer/Platforms/MacOSX.platform/Developer/SDKs/MacOSX13.1.sdk/usr/include/c++/v1/string:4313:51
	ldur	x0, [x29, #-16]
	.loc	5 4313 57                       ; /Applications/Xcode.app/Contents/Developer/Platforms/MacOSX.platform/Developer/SDKs/MacOSX13.1.sdk/usr/include/c++/v1/string:4313:57
	bl	__ZNKSt3__112basic_stringIcNS_11char_traitsIcEENS_9allocatorIcEEE13get_allocatorEv
	ldr	x0, [sp, #8]                    ; 8-byte Folded Reload
	sub	x1, x29, #26
	.loc	5 4313 47                       ; /Applications/Xcode.app/Contents/Developer/Platforms/MacOSX.platform/Developer/SDKs/MacOSX13.1.sdk/usr/include/c++/v1/string:4313:47
	bl	__ZNSt3__112basic_stringIcNS_11char_traitsIcEENS_9allocatorIcEEEC1ERKS4_
	.loc	5 4314 78 is_stmt 1             ; /Applications/Xcode.app/Contents/Developer/Platforms/MacOSX.platform/Developer/SDKs/MacOSX13.1.sdk/usr/include/c++/v1/string:4314:78
	ldur	x0, [x29, #-16]
	.loc	5 4314 84 is_stmt 0             ; /Applications/Xcode.app/Contents/Developer/Platforms/MacOSX.platform/Developer/SDKs/MacOSX13.1.sdk/usr/include/c++/v1/string:4314:84
	bl	__ZNKSt3__112basic_stringIcNS_11char_traitsIcEENS_9allocatorIcEEE4sizeEv
	.loc	5 4314 67                       ; /Applications/Xcode.app/Contents/Developer/Platforms/MacOSX.platform/Developer/SDKs/MacOSX13.1.sdk/usr/include/c++/v1/string:4314:67
	str	x0, [sp, #40]
	.loc	5 4315 94 is_stmt 1             ; /Applications/Xcode.app/Contents/Developer/Platforms/MacOSX.platform/Developer/SDKs/MacOSX13.1.sdk/usr/include/c++/v1/string:4315:94
	ldur	x0, [x29, #-24]
	.loc	5 4315 78 is_stmt 0             ; /Applications/Xcode.app/Contents/Developer/Platforms/MacOSX.platform/Developer/SDKs/MacOSX13.1.sdk/usr/include/c++/v1/string:4315:78
	bl	__ZNSt3__111char_traitsIcE6lengthEPKc
	.loc	5 4315 67                       ; /Applications/Xcode.app/Contents/Developer/Platforms/MacOSX.platform/Developer/SDKs/MacOSX13.1.sdk/usr/include/c++/v1/string:4315:67
	str	x0, [sp, #32]
	.loc	5 4316 16 is_stmt 1             ; /Applications/Xcode.app/Contents/Developer/Platforms/MacOSX.platform/Developer/SDKs/MacOSX13.1.sdk/usr/include/c++/v1/string:4316:16
	ldur	x0, [x29, #-16]
	.loc	5 4316 22 is_stmt 0             ; /Applications/Xcode.app/Contents/Developer/Platforms/MacOSX.platform/Developer/SDKs/MacOSX13.1.sdk/usr/include/c++/v1/string:4316:22
	bl	__ZNKSt3__112basic_stringIcNS_11char_traitsIcEENS_9allocatorIcEEE4dataEv
	mov	x1, x0
	ldr	x0, [sp, #8]                    ; 8-byte Folded Reload
	.loc	5 4316 30                       ; /Applications/Xcode.app/Contents/Developer/Platforms/MacOSX.platform/Developer/SDKs/MacOSX13.1.sdk/usr/include/c++/v1/string:4316:30
	ldr	x2, [sp, #40]
	.loc	5 4316 40                       ; /Applications/Xcode.app/Contents/Developer/Platforms/MacOSX.platform/Developer/SDKs/MacOSX13.1.sdk/usr/include/c++/v1/string:4316:40
	ldr	x8, [sp, #40]
	.loc	5 4316 51                       ; /Applications/Xcode.app/Contents/Developer/Platforms/MacOSX.platform/Developer/SDKs/MacOSX13.1.sdk/usr/include/c++/v1/string:4316:51
	ldr	x9, [sp, #32]
	.loc	5 4316 49                       ; /Applications/Xcode.app/Contents/Developer/Platforms/MacOSX.platform/Developer/SDKs/MacOSX13.1.sdk/usr/include/c++/v1/string:4316:49
	add	x3, x8, x9
Ltmp269:
	.loc	5 4316 9                        ; /Applications/Xcode.app/Contents/Developer/Platforms/MacOSX.platform/Developer/SDKs/MacOSX13.1.sdk/usr/include/c++/v1/string:4316:9
	bl	__ZNSt3__112basic_stringIcNS_11char_traitsIcEENS_9allocatorIcEEE6__initEPKcmm
Ltmp270:
	b	LBB46_1
LBB46_1:
	.loc	5 0 9                           ; /Applications/Xcode.app/Contents/Developer/Platforms/MacOSX.platform/Developer/SDKs/MacOSX13.1.sdk/usr/include/c++/v1/string:0:9
	ldr	x0, [sp, #8]                    ; 8-byte Folded Reload
	.loc	5 4317 16 is_stmt 1             ; /Applications/Xcode.app/Contents/Developer/Platforms/MacOSX.platform/Developer/SDKs/MacOSX13.1.sdk/usr/include/c++/v1/string:4317:16
	ldur	x1, [x29, #-24]
	.loc	5 4317 23 is_stmt 0             ; /Applications/Xcode.app/Contents/Developer/Platforms/MacOSX.platform/Developer/SDKs/MacOSX13.1.sdk/usr/include/c++/v1/string:4317:23
	ldr	x2, [sp, #32]
Ltmp271:
	.loc	5 4317 9                        ; /Applications/Xcode.app/Contents/Developer/Platforms/MacOSX.platform/Developer/SDKs/MacOSX13.1.sdk/usr/include/c++/v1/string:4317:9
	bl	__ZNSt3__112basic_stringIcNS_11char_traitsIcEENS_9allocatorIcEEE6appendEPKcm
Ltmp272:
	b	LBB46_2
LBB46_2:
	.loc	5 0 9                           ; /Applications/Xcode.app/Contents/Developer/Platforms/MacOSX.platform/Developer/SDKs/MacOSX13.1.sdk/usr/include/c++/v1/string:0:9
	mov	w8, #1
	.loc	5 4318 5 is_stmt 1              ; /Applications/Xcode.app/Contents/Developer/Platforms/MacOSX.platform/Developer/SDKs/MacOSX13.1.sdk/usr/include/c++/v1/string:4318:5
	and	w8, w8, #0x1
	and	w8, w8, #0x1
	sturb	w8, [x29, #-25]
	.loc	5 4319 1                        ; /Applications/Xcode.app/Contents/Developer/Platforms/MacOSX.platform/Developer/SDKs/MacOSX13.1.sdk/usr/include/c++/v1/string:4319:1
	ldurb	w8, [x29, #-25]
	tbnz	w8, #0, LBB46_5
	b	LBB46_4
LBB46_3:
Ltmp273:
	mov	x9, x0
	ldr	x0, [sp, #8]                    ; 8-byte Folded Reload
	mov	x8, x1
	str	x9, [sp, #24]
	str	w8, [sp, #20]
	bl	__ZNSt3__112basic_stringIcNS_11char_traitsIcEENS_9allocatorIcEEED1Ev
	b	LBB46_6
LBB46_4:
	.loc	5 0 1 is_stmt 0                 ; /Applications/Xcode.app/Contents/Developer/Platforms/MacOSX.platform/Developer/SDKs/MacOSX13.1.sdk/usr/include/c++/v1/string:0:1
	ldr	x0, [sp, #8]                    ; 8-byte Folded Reload
	.loc	5 4319 1                        ; /Applications/Xcode.app/Contents/Developer/Platforms/MacOSX.platform/Developer/SDKs/MacOSX13.1.sdk/usr/include/c++/v1/string:4319:1
	bl	__ZNSt3__112basic_stringIcNS_11char_traitsIcEENS_9allocatorIcEEED1Ev
	b	LBB46_5
LBB46_5:
	ldp	x29, x30, [sp, #80]             ; 16-byte Folded Reload
	add	sp, sp, #96
	ret
LBB46_6:
	ldr	x0, [sp, #24]
	bl	__Unwind_Resume
Ltmp275:
Lfunc_end46:
	.cfi_endproc
	.section	__TEXT,__gcc_except_tab
	.p2align	2
GCC_except_table46:
Lexception8:
	.byte	255                             ; @LPStart Encoding = omit
	.byte	255                             ; @TType Encoding = omit
	.byte	1                               ; Call site Encoding = uleb128
	.uleb128 Lcst_end8-Lcst_begin8
Lcst_begin8:
	.uleb128 Ltmp269-Lfunc_begin46          ; >> Call Site 1 <<
	.uleb128 Ltmp272-Ltmp269                ;   Call between Ltmp269 and Ltmp272
	.uleb128 Ltmp273-Lfunc_begin46          ;     jumps to Ltmp273
	.byte	0                               ;   On action: cleanup
	.uleb128 Ltmp272-Lfunc_begin46          ; >> Call Site 2 <<
	.uleb128 Lfunc_end46-Ltmp272            ;   Call between Ltmp272 and Lfunc_end46
	.byte	0                               ;     has no landing pad
	.byte	0                               ;   On action: cleanup
Lcst_end8:
	.p2align	2
                                        ; -- End function
	.section	__TEXT,__text,regular,pure_instructions
	.p2align	2                               ; -- Begin function _ZNSt3__112basic_stringIDsNS_11char_traitsIDsEENS_9allocatorIDsEEEpLERKS5_
__ZNSt3__112basic_stringIDsNS_11char_traitsIDsEENS_9allocatorIDsEEEpLERKS5_: ; @_ZNSt3__112basic_stringIDsNS_11char_traitsIDsEENS_9allocatorIDsEEEpLERKS5_
Lfunc_begin47:
	.loc	5 1006 0 is_stmt 1              ; /Applications/Xcode.app/Contents/Developer/Platforms/MacOSX.platform/Developer/SDKs/MacOSX13.1.sdk/usr/include/c++/v1/string:1006:0
	.cfi_startproc
; %bb.0:
	sub	sp, sp, #32
	stp	x29, x30, [sp, #16]             ; 16-byte Folded Spill
	add	x29, sp, #16
	.cfi_def_cfa w29, 16
	.cfi_offset w30, -8
	.cfi_offset w29, -16
	str	x0, [sp, #8]
	str	x1, [sp]
	ldr	x0, [sp, #8]
Ltmp276:
	.loc	5 1006 150 prologue_end         ; /Applications/Xcode.app/Contents/Developer/Platforms/MacOSX.platform/Developer/SDKs/MacOSX13.1.sdk/usr/include/c++/v1/string:1006:150
	ldr	x1, [sp]
	.loc	5 1006 143 is_stmt 0            ; /Applications/Xcode.app/Contents/Developer/Platforms/MacOSX.platform/Developer/SDKs/MacOSX13.1.sdk/usr/include/c++/v1/string:1006:143
	bl	__ZNSt3__112basic_stringIDsNS_11char_traitsIDsEENS_9allocatorIDsEEE6appendERKS5_
	.loc	5 1006 136                      ; /Applications/Xcode.app/Contents/Developer/Platforms/MacOSX.platform/Developer/SDKs/MacOSX13.1.sdk/usr/include/c++/v1/string:1006:136
	ldp	x29, x30, [sp, #16]             ; 16-byte Folded Reload
	add	sp, sp, #32
	ret
Ltmp277:
Lfunc_end47:
	.cfi_endproc
                                        ; -- End function
	.globl	__ZNSt3__112basic_stringIDsNS_11char_traitsIDsEENS_9allocatorIDsEEED1Ev ; -- Begin function _ZNSt3__112basic_stringIDsNS_11char_traitsIDsEENS_9allocatorIDsEEED1Ev
	.weak_def_can_be_hidden	__ZNSt3__112basic_stringIDsNS_11char_traitsIDsEENS_9allocatorIDsEEED1Ev
	.p2align	2
__ZNSt3__112basic_stringIDsNS_11char_traitsIDsEENS_9allocatorIDsEEED1Ev: ; @_ZNSt3__112basic_stringIDsNS_11char_traitsIDsEENS_9allocatorIDsEEED1Ev
Lfunc_begin48:
	.loc	5 2298 0 is_stmt 1              ; /Applications/Xcode.app/Contents/Developer/Platforms/MacOSX.platform/Developer/SDKs/MacOSX13.1.sdk/usr/include/c++/v1/string:2298:0
	.cfi_startproc
; %bb.0:
	sub	sp, sp, #32
	stp	x29, x30, [sp, #16]             ; 16-byte Folded Spill
	add	x29, sp, #16
	.cfi_def_cfa w29, 16
	.cfi_offset w30, -8
	.cfi_offset w29, -16
	str	x0, [sp, #8]
	ldr	x0, [sp, #8]
	str	x0, [sp]                        ; 8-byte Folded Spill
Ltmp278:
	.loc	5 2298 1 prologue_end           ; /Applications/Xcode.app/Contents/Developer/Platforms/MacOSX.platform/Developer/SDKs/MacOSX13.1.sdk/usr/include/c++/v1/string:2298:1
	bl	__ZNSt3__112basic_stringIDsNS_11char_traitsIDsEENS_9allocatorIDsEEED2Ev
	ldr	x0, [sp]                        ; 8-byte Folded Reload
	.loc	5 2304 1                        ; /Applications/Xcode.app/Contents/Developer/Platforms/MacOSX.platform/Developer/SDKs/MacOSX13.1.sdk/usr/include/c++/v1/string:2304:1
	ldp	x29, x30, [sp, #16]             ; 16-byte Folded Reload
	add	sp, sp, #32
	ret
Ltmp279:
Lfunc_end48:
	.cfi_endproc
                                        ; -- End function
	.p2align	2                               ; -- Begin function _ZNSt3__112basic_stringIDsNS_11char_traitsIDsEENS_9allocatorIDsEEEpLEDs
__ZNSt3__112basic_stringIDsNS_11char_traitsIDsEENS_9allocatorIDsEEEpLEDs: ; @_ZNSt3__112basic_stringIDsNS_11char_traitsIDsEENS_9allocatorIDsEEEpLEDs
Lfunc_begin49:
	.loc	5 1018 0                        ; /Applications/Xcode.app/Contents/Developer/Platforms/MacOSX.platform/Developer/SDKs/MacOSX13.1.sdk/usr/include/c++/v1/string:1018:0
	.cfi_startproc
; %bb.0:
	sub	sp, sp, #48
	stp	x29, x30, [sp, #32]             ; 16-byte Folded Spill
	add	x29, sp, #32
	.cfi_def_cfa w29, 16
	.cfi_offset w30, -8
	.cfi_offset w29, -16
	stur	x0, [x29, #-8]
	sturh	w1, [x29, #-10]
	ldur	x0, [x29, #-8]
	str	x0, [sp, #8]                    ; 8-byte Folded Spill
Ltmp280:
	.loc	5 1018 135 prologue_end         ; /Applications/Xcode.app/Contents/Developer/Platforms/MacOSX.platform/Developer/SDKs/MacOSX13.1.sdk/usr/include/c++/v1/string:1018:135
	ldurh	w1, [x29, #-10]
	.loc	5 1018 125 is_stmt 0            ; /Applications/Xcode.app/Contents/Developer/Platforms/MacOSX.platform/Developer/SDKs/MacOSX13.1.sdk/usr/include/c++/v1/string:1018:125
	bl	__ZNSt3__112basic_stringIDsNS_11char_traitsIDsEENS_9allocatorIDsEEE9push_backEDs
	ldr	x0, [sp, #8]                    ; 8-byte Folded Reload
	.loc	5 1018 141                      ; /Applications/Xcode.app/Contents/Developer/Platforms/MacOSX.platform/Developer/SDKs/MacOSX13.1.sdk/usr/include/c++/v1/string:1018:141
	ldp	x29, x30, [sp, #32]             ; 16-byte Folded Reload
	add	sp, sp, #48
	ret
Ltmp281:
Lfunc_end49:
	.cfi_endproc
                                        ; -- End function
	.globl	__ZN10subprocess13EnvironSetterD2Ev ; -- Begin function _ZN10subprocess13EnvironSetterD2Ev
	.weak_def_can_be_hidden	__ZN10subprocess13EnvironSetterD2Ev
	.p2align	2
__ZN10subprocess13EnvironSetterD2Ev:    ; @_ZN10subprocess13EnvironSetterD2Ev
Lfunc_begin50:
	.loc	1 10 0 is_stmt 1                ; external/subprocess/subprocess/environ.hpp:10:0
	.cfi_startproc
; %bb.0:
	sub	sp, sp, #32
	stp	x29, x30, [sp, #16]             ; 16-byte Folded Spill
	add	x29, sp, #16
	.cfi_def_cfa w29, 16
	.cfi_offset w30, -8
	.cfi_offset w29, -16
	str	x0, [sp, #8]
	ldr	x0, [sp, #8]
	str	x0, [sp]                        ; 8-byte Folded Spill
Ltmp282:
	.loc	1 10 11 prologue_end            ; external/subprocess/subprocess/environ.hpp:10:11
	bl	__ZNSt3__112basic_stringIcNS_11char_traitsIcEENS_9allocatorIcEEED1Ev
	ldr	x0, [sp]                        ; 8-byte Folded Reload
Ltmp283:
	.loc	1 10 11 is_stmt 0               ; external/subprocess/subprocess/environ.hpp:10:11
	ldp	x29, x30, [sp, #16]             ; 16-byte Folded Reload
	add	sp, sp, #32
	ret
Ltmp284:
Lfunc_end50:
	.cfi_endproc
                                        ; -- End function
	.globl	__ZNSt3__112basic_stringIDsNS_11char_traitsIDsEENS_9allocatorIDsEEED2Ev ; -- Begin function _ZNSt3__112basic_stringIDsNS_11char_traitsIDsEENS_9allocatorIDsEEED2Ev
	.weak_def_can_be_hidden	__ZNSt3__112basic_stringIDsNS_11char_traitsIDsEENS_9allocatorIDsEEED2Ev
	.p2align	2
__ZNSt3__112basic_stringIDsNS_11char_traitsIDsEENS_9allocatorIDsEEED2Ev: ; @_ZNSt3__112basic_stringIDsNS_11char_traitsIDsEENS_9allocatorIDsEEED2Ev
Lfunc_begin51:
	.loc	5 2298 0 is_stmt 1              ; /Applications/Xcode.app/Contents/Developer/Platforms/MacOSX.platform/Developer/SDKs/MacOSX13.1.sdk/usr/include/c++/v1/string:2298:0
	.cfi_startproc
; %bb.0:
	sub	sp, sp, #64
	stp	x29, x30, [sp, #48]             ; 16-byte Folded Spill
	add	x29, sp, #48
	.cfi_def_cfa w29, 16
	.cfi_offset w30, -8
	.cfi_offset w29, -16
	stur	x0, [x29, #-16]
	ldur	x0, [x29, #-16]
	str	x0, [sp, #24]                   ; 8-byte Folded Spill
	stur	x0, [x29, #-8]
Ltmp285:
	.loc	5 2302 9 prologue_end           ; /Applications/Xcode.app/Contents/Developer/Platforms/MacOSX.platform/Developer/SDKs/MacOSX13.1.sdk/usr/include/c++/v1/string:2302:9
	bl	__ZNKSt3__112basic_stringIDsNS_11char_traitsIDsEENS_9allocatorIDsEEE9__is_longEv
Ltmp286:
	.loc	5 2302 9 is_stmt 0              ; /Applications/Xcode.app/Contents/Developer/Platforms/MacOSX.platform/Developer/SDKs/MacOSX13.1.sdk/usr/include/c++/v1/string:2302:9
	tbz	w0, #0, LBB51_2
	b	LBB51_1
LBB51_1:
	.loc	5 0 9                           ; /Applications/Xcode.app/Contents/Developer/Platforms/MacOSX.platform/Developer/SDKs/MacOSX13.1.sdk/usr/include/c++/v1/string:0:9
	ldr	x0, [sp, #24]                   ; 8-byte Folded Reload
Ltmp287:
	.loc	5 2303 36 is_stmt 1             ; /Applications/Xcode.app/Contents/Developer/Platforms/MacOSX.platform/Developer/SDKs/MacOSX13.1.sdk/usr/include/c++/v1/string:2303:36
	bl	__ZNSt3__112basic_stringIDsNS_11char_traitsIDsEENS_9allocatorIDsEEE7__allocEv
	mov	x1, x0
	ldr	x0, [sp, #24]                   ; 8-byte Folded Reload
	str	x1, [sp, #16]                   ; 8-byte Folded Spill
	.loc	5 2303 47 is_stmt 0             ; /Applications/Xcode.app/Contents/Developer/Platforms/MacOSX.platform/Developer/SDKs/MacOSX13.1.sdk/usr/include/c++/v1/string:2303:47
	bl	__ZNSt3__112basic_stringIDsNS_11char_traitsIDsEENS_9allocatorIDsEEE18__get_long_pointerEv
	mov	x1, x0
	ldr	x0, [sp, #24]                   ; 8-byte Folded Reload
	str	x1, [sp, #8]                    ; 8-byte Folded Spill
	.loc	5 2303 69                       ; /Applications/Xcode.app/Contents/Developer/Platforms/MacOSX.platform/Developer/SDKs/MacOSX13.1.sdk/usr/include/c++/v1/string:2303:69
	bl	__ZNKSt3__112basic_stringIDsNS_11char_traitsIDsEENS_9allocatorIDsEEE14__get_long_capEv
	ldr	x1, [sp, #8]                    ; 8-byte Folded Reload
	mov	x2, x0
	ldr	x0, [sp, #16]                   ; 8-byte Folded Reload
	.loc	5 2303 9                        ; /Applications/Xcode.app/Contents/Developer/Platforms/MacOSX.platform/Developer/SDKs/MacOSX13.1.sdk/usr/include/c++/v1/string:2303:9
	bl	__ZNSt3__116allocator_traitsINS_9allocatorIDsEEE10deallocateERS2_PDsm
	b	LBB51_2
Ltmp288:
LBB51_2:
	.loc	5 2304 1 is_stmt 1              ; /Applications/Xcode.app/Contents/Developer/Platforms/MacOSX.platform/Developer/SDKs/MacOSX13.1.sdk/usr/include/c++/v1/string:2304:1
	ldur	x0, [x29, #-8]
	ldp	x29, x30, [sp, #48]             ; 16-byte Folded Reload
	add	sp, sp, #64
	ret
Ltmp289:
Lfunc_end51:
	.cfi_endproc
                                        ; -- End function
	.p2align	2                               ; -- Begin function _ZNKSt3__112basic_stringIDsNS_11char_traitsIDsEENS_9allocatorIDsEEE9__is_longEv
__ZNKSt3__112basic_stringIDsNS_11char_traitsIDsEENS_9allocatorIDsEEE9__is_longEv: ; @_ZNKSt3__112basic_stringIDsNS_11char_traitsIDsEENS_9allocatorIDsEEE9__is_longEv
Lfunc_begin52:
	.loc	5 1459 0                        ; /Applications/Xcode.app/Contents/Developer/Platforms/MacOSX.platform/Developer/SDKs/MacOSX13.1.sdk/usr/include/c++/v1/string:1459:0
	.cfi_startproc
; %bb.0:
	sub	sp, sp, #32
	stp	x29, x30, [sp, #16]             ; 16-byte Folded Spill
	add	x29, sp, #16
	.cfi_def_cfa w29, 16
	.cfi_offset w30, -8
	.cfi_offset w29, -16
	str	x0, [sp, #8]
	ldr	x0, [sp, #8]
Ltmp290:
	.loc	5 1459 27 prologue_end          ; /Applications/Xcode.app/Contents/Developer/Platforms/MacOSX.platform/Developer/SDKs/MacOSX13.1.sdk/usr/include/c++/v1/string:1459:27
	bl	__ZNKSt3__117__compressed_pairINS_12basic_stringIDsNS_11char_traitsIDsEENS_9allocatorIDsEEE5__repES5_E5firstEv
	.loc	5 1459 39 is_stmt 0             ; /Applications/Xcode.app/Contents/Developer/Platforms/MacOSX.platform/Developer/SDKs/MacOSX13.1.sdk/usr/include/c++/v1/string:1459:39
	ldrb	w8, [x0, #23]
                                        ; kill: def $x8 killed $w8
	.loc	5 1459 22                       ; /Applications/Xcode.app/Contents/Developer/Platforms/MacOSX.platform/Developer/SDKs/MacOSX13.1.sdk/usr/include/c++/v1/string:1459:22
	ands	x8, x8, #0x80
	cset	w8, ne
	.loc	5 1459 10                       ; /Applications/Xcode.app/Contents/Developer/Platforms/MacOSX.platform/Developer/SDKs/MacOSX13.1.sdk/usr/include/c++/v1/string:1459:10
	and	w0, w8, #0x1
	ldp	x29, x30, [sp, #16]             ; 16-byte Folded Reload
	add	sp, sp, #32
	ret
Ltmp291:
Lfunc_end52:
	.cfi_endproc
                                        ; -- End function
	.p2align	2                               ; -- Begin function _ZNSt3__116allocator_traitsINS_9allocatorIDsEEE10deallocateERS2_PDsm
__ZNSt3__116allocator_traitsINS_9allocatorIDsEEE10deallocateERS2_PDsm: ; @_ZNSt3__116allocator_traitsINS_9allocatorIDsEEE10deallocateERS2_PDsm
Lfunc_begin53:
	.loc	6 281 0 is_stmt 1               ; /Applications/Xcode.app/Contents/Developer/Platforms/MacOSX.platform/Developer/SDKs/MacOSX13.1.sdk/usr/include/c++/v1/__memory/allocator_traits.h:281:0
	.cfi_startproc
; %bb.0:
	sub	sp, sp, #48
	stp	x29, x30, [sp, #32]             ; 16-byte Folded Spill
	add	x29, sp, #32
	.cfi_def_cfa w29, 16
	.cfi_offset w30, -8
	.cfi_offset w29, -16
	stur	x0, [x29, #-8]
	str	x1, [sp, #16]
	str	x2, [sp, #8]
Ltmp292:
	.loc	6 282 9 prologue_end            ; /Applications/Xcode.app/Contents/Developer/Platforms/MacOSX.platform/Developer/SDKs/MacOSX13.1.sdk/usr/include/c++/v1/__memory/allocator_traits.h:282:9
	ldur	x0, [x29, #-8]
	.loc	6 282 24 is_stmt 0              ; /Applications/Xcode.app/Contents/Developer/Platforms/MacOSX.platform/Developer/SDKs/MacOSX13.1.sdk/usr/include/c++/v1/__memory/allocator_traits.h:282:24
	ldr	x1, [sp, #16]
	.loc	6 282 29                        ; /Applications/Xcode.app/Contents/Developer/Platforms/MacOSX.platform/Developer/SDKs/MacOSX13.1.sdk/usr/include/c++/v1/__memory/allocator_traits.h:282:29
	ldr	x2, [sp, #8]
	.loc	6 282 13                        ; /Applications/Xcode.app/Contents/Developer/Platforms/MacOSX.platform/Developer/SDKs/MacOSX13.1.sdk/usr/include/c++/v1/__memory/allocator_traits.h:282:13
	bl	__ZNSt3__19allocatorIDsE10deallocateEPDsm
	.loc	6 283 5 is_stmt 1               ; /Applications/Xcode.app/Contents/Developer/Platforms/MacOSX.platform/Developer/SDKs/MacOSX13.1.sdk/usr/include/c++/v1/__memory/allocator_traits.h:283:5
	ldp	x29, x30, [sp, #32]             ; 16-byte Folded Reload
	add	sp, sp, #48
	ret
Ltmp293:
Lfunc_end53:
	.cfi_endproc
                                        ; -- End function
	.p2align	2                               ; -- Begin function _ZNSt3__112basic_stringIDsNS_11char_traitsIDsEENS_9allocatorIDsEEE7__allocEv
__ZNSt3__112basic_stringIDsNS_11char_traitsIDsEENS_9allocatorIDsEEE7__allocEv: ; @_ZNSt3__112basic_stringIDsNS_11char_traitsIDsEENS_9allocatorIDsEEE7__allocEv
Lfunc_begin54:
	.loc	5 1503 0                        ; /Applications/Xcode.app/Contents/Developer/Platforms/MacOSX.platform/Developer/SDKs/MacOSX13.1.sdk/usr/include/c++/v1/string:1503:0
	.cfi_startproc
; %bb.0:
	sub	sp, sp, #32
	stp	x29, x30, [sp, #16]             ; 16-byte Folded Spill
	add	x29, sp, #16
	.cfi_def_cfa w29, 16
	.cfi_offset w30, -8
	.cfi_offset w29, -16
	str	x0, [sp, #8]
	ldr	x0, [sp, #8]
Ltmp294:
	.loc	5 1503 132 prologue_end         ; /Applications/Xcode.app/Contents/Developer/Platforms/MacOSX.platform/Developer/SDKs/MacOSX13.1.sdk/usr/include/c++/v1/string:1503:132
	bl	__ZNSt3__117__compressed_pairINS_12basic_stringIDsNS_11char_traitsIDsEENS_9allocatorIDsEEE5__repES5_E6secondEv
	.loc	5 1503 120 is_stmt 0            ; /Applications/Xcode.app/Contents/Developer/Platforms/MacOSX.platform/Developer/SDKs/MacOSX13.1.sdk/usr/include/c++/v1/string:1503:120
	ldp	x29, x30, [sp, #16]             ; 16-byte Folded Reload
	add	sp, sp, #32
	ret
Ltmp295:
Lfunc_end54:
	.cfi_endproc
                                        ; -- End function
	.p2align	2                               ; -- Begin function _ZNSt3__112basic_stringIDsNS_11char_traitsIDsEENS_9allocatorIDsEEE18__get_long_pointerEv
__ZNSt3__112basic_stringIDsNS_11char_traitsIDsEENS_9allocatorIDsEEE18__get_long_pointerEv: ; @_ZNSt3__112basic_stringIDsNS_11char_traitsIDsEENS_9allocatorIDsEEE18__get_long_pointerEv
Lfunc_begin55:
	.loc	5 1566 0 is_stmt 1              ; /Applications/Xcode.app/Contents/Developer/Platforms/MacOSX.platform/Developer/SDKs/MacOSX13.1.sdk/usr/include/c++/v1/string:1566:0
	.cfi_startproc
; %bb.0:
	sub	sp, sp, #32
	stp	x29, x30, [sp, #16]             ; 16-byte Folded Spill
	add	x29, sp, #16
	.cfi_def_cfa w29, 16
	.cfi_offset w30, -8
	.cfi_offset w29, -16
	str	x0, [sp, #8]
	ldr	x0, [sp, #8]
Ltmp296:
	.loc	5 1566 22 prologue_end          ; /Applications/Xcode.app/Contents/Developer/Platforms/MacOSX.platform/Developer/SDKs/MacOSX13.1.sdk/usr/include/c++/v1/string:1566:22
	bl	__ZNSt3__117__compressed_pairINS_12basic_stringIDsNS_11char_traitsIDsEENS_9allocatorIDsEEE5__repES5_E5firstEv
	.loc	5 1566 34 is_stmt 0             ; /Applications/Xcode.app/Contents/Developer/Platforms/MacOSX.platform/Developer/SDKs/MacOSX13.1.sdk/usr/include/c++/v1/string:1566:34
	ldr	x0, [x0]
	.loc	5 1566 10                       ; /Applications/Xcode.app/Contents/Developer/Platforms/MacOSX.platform/Developer/SDKs/MacOSX13.1.sdk/usr/include/c++/v1/string:1566:10
	ldp	x29, x30, [sp, #16]             ; 16-byte Folded Reload
	add	sp, sp, #32
	ret
Ltmp297:
Lfunc_end55:
	.cfi_endproc
                                        ; -- End function
	.p2align	2                               ; -- Begin function _ZNKSt3__112basic_stringIDsNS_11char_traitsIDsEENS_9allocatorIDsEEE14__get_long_capEv
__ZNKSt3__112basic_stringIDsNS_11char_traitsIDsEENS_9allocatorIDsEEE14__get_long_capEv: ; @_ZNKSt3__112basic_stringIDsNS_11char_traitsIDsEENS_9allocatorIDsEEE14__get_long_capEv
Lfunc_begin56:
	.loc	5 1559 0 is_stmt 1              ; /Applications/Xcode.app/Contents/Developer/Platforms/MacOSX.platform/Developer/SDKs/MacOSX13.1.sdk/usr/include/c++/v1/string:1559:0
	.cfi_startproc
; %bb.0:
	sub	sp, sp, #32
	stp	x29, x30, [sp, #16]             ; 16-byte Folded Spill
	add	x29, sp, #16
	.cfi_def_cfa w29, 16
	.cfi_offset w30, -8
	.cfi_offset w29, -16
	str	x0, [sp, #8]
	ldr	x0, [sp, #8]
Ltmp298:
	.loc	5 1559 22 prologue_end          ; /Applications/Xcode.app/Contents/Developer/Platforms/MacOSX.platform/Developer/SDKs/MacOSX13.1.sdk/usr/include/c++/v1/string:1559:22
	bl	__ZNKSt3__117__compressed_pairINS_12basic_stringIDsNS_11char_traitsIDsEENS_9allocatorIDsEEE5__repES5_E5firstEv
	.loc	5 1559 34 is_stmt 0             ; /Applications/Xcode.app/Contents/Developer/Platforms/MacOSX.platform/Developer/SDKs/MacOSX13.1.sdk/usr/include/c++/v1/string:1559:34
	ldr	x8, [x0, #16]
	.loc	5 1559 41                       ; /Applications/Xcode.app/Contents/Developer/Platforms/MacOSX.platform/Developer/SDKs/MacOSX13.1.sdk/usr/include/c++/v1/string:1559:41
	and	x0, x8, #0x7fffffffffffffff
	.loc	5 1559 10                       ; /Applications/Xcode.app/Contents/Developer/Platforms/MacOSX.platform/Developer/SDKs/MacOSX13.1.sdk/usr/include/c++/v1/string:1559:10
	ldp	x29, x30, [sp, #16]             ; 16-byte Folded Reload
	add	sp, sp, #32
	ret
Ltmp299:
Lfunc_end56:
	.cfi_endproc
                                        ; -- End function
	.p2align	2                               ; -- Begin function _ZNKSt3__117__compressed_pairINS_12basic_stringIDsNS_11char_traitsIDsEENS_9allocatorIDsEEE5__repES5_E5firstEv
__ZNKSt3__117__compressed_pairINS_12basic_stringIDsNS_11char_traitsIDsEENS_9allocatorIDsEEE5__repES5_E5firstEv: ; @_ZNKSt3__117__compressed_pairINS_12basic_stringIDsNS_11char_traitsIDsEENS_9allocatorIDsEEE5__repES5_E5firstEv
Lfunc_begin57:
	.loc	7 155 0 is_stmt 1               ; /Applications/Xcode.app/Contents/Developer/Platforms/MacOSX.platform/Developer/SDKs/MacOSX13.1.sdk/usr/include/c++/v1/__memory/compressed_pair.h:155:0
	.cfi_startproc
; %bb.0:
	sub	sp, sp, #32
	stp	x29, x30, [sp, #16]             ; 16-byte Folded Spill
	add	x29, sp, #16
	.cfi_def_cfa w29, 16
	.cfi_offset w30, -8
	.cfi_offset w29, -16
	str	x0, [sp, #8]
	ldr	x0, [sp, #8]
Ltmp300:
	.loc	7 156 46 prologue_end           ; /Applications/Xcode.app/Contents/Developer/Platforms/MacOSX.platform/Developer/SDKs/MacOSX13.1.sdk/usr/include/c++/v1/__memory/compressed_pair.h:156:46
	bl	__ZNKSt3__122__compressed_pair_elemINS_12basic_stringIDsNS_11char_traitsIDsEENS_9allocatorIDsEEE5__repELi0ELb0EE5__getEv
	.loc	7 156 5 is_stmt 0               ; /Applications/Xcode.app/Contents/Developer/Platforms/MacOSX.platform/Developer/SDKs/MacOSX13.1.sdk/usr/include/c++/v1/__memory/compressed_pair.h:156:5
	ldp	x29, x30, [sp, #16]             ; 16-byte Folded Reload
	add	sp, sp, #32
	ret
Ltmp301:
Lfunc_end57:
	.cfi_endproc
                                        ; -- End function
	.p2align	2                               ; -- Begin function _ZNKSt3__122__compressed_pair_elemINS_12basic_stringIDsNS_11char_traitsIDsEENS_9allocatorIDsEEE5__repELi0ELb0EE5__getEv
__ZNKSt3__122__compressed_pair_elemINS_12basic_stringIDsNS_11char_traitsIDsEENS_9allocatorIDsEEE5__repELi0ELb0EE5__getEv: ; @_ZNKSt3__122__compressed_pair_elemINS_12basic_stringIDsNS_11char_traitsIDsEENS_9allocatorIDsEEE5__repELi0ELb0EE5__getEv
Lfunc_begin58:
	.loc	7 67 0 is_stmt 1                ; /Applications/Xcode.app/Contents/Developer/Platforms/MacOSX.platform/Developer/SDKs/MacOSX13.1.sdk/usr/include/c++/v1/__memory/compressed_pair.h:67:0
	.cfi_startproc
; %bb.0:
	sub	sp, sp, #16
	.cfi_def_cfa_offset 16
	str	x0, [sp, #8]
	ldr	x0, [sp, #8]
Ltmp303:
	.loc	7 67 44 prologue_end            ; /Applications/Xcode.app/Contents/Developer/Platforms/MacOSX.platform/Developer/SDKs/MacOSX13.1.sdk/usr/include/c++/v1/__memory/compressed_pair.h:67:44
	add	sp, sp, #16
	ret
Ltmp304:
Lfunc_end58:
	.cfi_endproc
                                        ; -- End function
	.p2align	2                               ; -- Begin function _ZNSt3__19allocatorIDsE10deallocateEPDsm
__ZNSt3__19allocatorIDsE10deallocateEPDsm: ; @_ZNSt3__19allocatorIDsE10deallocateEPDsm
Lfunc_begin59:
	.loc	4 113 0                         ; /Applications/Xcode.app/Contents/Developer/Platforms/MacOSX.platform/Developer/SDKs/MacOSX13.1.sdk/usr/include/c++/v1/__memory/allocator.h:113:0
	.cfi_startproc
	.cfi_personality 155, ___gxx_personality_v0
	.cfi_lsda 16, Lexception9
; %bb.0:
	sub	sp, sp, #48
	stp	x29, x30, [sp, #32]             ; 16-byte Folded Spill
	add	x29, sp, #32
	.cfi_def_cfa w29, 16
	.cfi_offset w30, -8
	.cfi_offset w29, -16
	stur	x0, [x29, #-8]
	str	x1, [sp, #16]
	str	x2, [sp, #8]
Ltmp308:
	.loc	4 117 50 prologue_end           ; /Applications/Xcode.app/Contents/Developer/Platforms/MacOSX.platform/Developer/SDKs/MacOSX13.1.sdk/usr/include/c++/v1/__memory/allocator.h:117:50
	ldr	x0, [sp, #16]
	.loc	4 117 55 is_stmt 0              ; /Applications/Xcode.app/Contents/Developer/Platforms/MacOSX.platform/Developer/SDKs/MacOSX13.1.sdk/usr/include/c++/v1/__memory/allocator.h:117:55
	ldr	x8, [sp, #8]
	.loc	4 117 59                        ; /Applications/Xcode.app/Contents/Developer/Platforms/MacOSX.platform/Developer/SDKs/MacOSX13.1.sdk/usr/include/c++/v1/__memory/allocator.h:117:59
	lsl	x1, x8, #1
Ltmp305:
	mov	x2, #2
	.loc	4 117 13                        ; /Applications/Xcode.app/Contents/Developer/Platforms/MacOSX.platform/Developer/SDKs/MacOSX13.1.sdk/usr/include/c++/v1/__memory/allocator.h:117:13
	bl	__ZNSt3__1L19__libcpp_deallocateEPvmm
Ltmp306:
	b	LBB59_1
Ltmp309:
LBB59_1:
	.loc	4 119 5 is_stmt 1               ; /Applications/Xcode.app/Contents/Developer/Platforms/MacOSX.platform/Developer/SDKs/MacOSX13.1.sdk/usr/include/c++/v1/__memory/allocator.h:119:5
	ldp	x29, x30, [sp, #32]             ; 16-byte Folded Reload
	add	sp, sp, #48
	ret
LBB59_2:
Ltmp307:
Ltmp310:
	.loc	4 117 13                        ; /Applications/Xcode.app/Contents/Developer/Platforms/MacOSX.platform/Developer/SDKs/MacOSX13.1.sdk/usr/include/c++/v1/__memory/allocator.h:117:13
	bl	___clang_call_terminate
Ltmp311:
Lfunc_end59:
	.cfi_endproc
	.section	__TEXT,__gcc_except_tab
	.p2align	2
GCC_except_table59:
Lexception9:
	.byte	255                             ; @LPStart Encoding = omit
	.byte	155                             ; @TType Encoding = indirect pcrel sdata4
	.uleb128 Lttbase3-Lttbaseref3
Lttbaseref3:
	.byte	1                               ; Call site Encoding = uleb128
	.uleb128 Lcst_end9-Lcst_begin9
Lcst_begin9:
	.uleb128 Ltmp305-Lfunc_begin59          ; >> Call Site 1 <<
	.uleb128 Ltmp306-Ltmp305                ;   Call between Ltmp305 and Ltmp306
	.uleb128 Ltmp307-Lfunc_begin59          ;     jumps to Ltmp307
	.byte	1                               ;   On action: 1
Lcst_end9:
	.byte	1                               ; >> Action Record 1 <<
                                        ;   Catch TypeInfo 1
	.byte	0                               ;   No further actions
	.p2align	2
                                        ; >> Catch TypeInfos <<
	.long	0                               ; TypeInfo 1
Lttbase3:
	.p2align	2
                                        ; -- End function
	.section	__TEXT,__text,regular,pure_instructions
	.p2align	2                               ; -- Begin function _ZNSt3__1L19__libcpp_deallocateEPvmm
__ZNSt3__1L19__libcpp_deallocateEPvmm:  ; @_ZNSt3__1L19__libcpp_deallocateEPvmm
Lfunc_begin60:
	.loc	15 276 0                        ; /Applications/Xcode.app/Contents/Developer/Platforms/MacOSX.platform/Developer/SDKs/MacOSX13.1.sdk/usr/include/c++/v1/new:276:0
	.cfi_startproc
; %bb.0:
	sub	sp, sp, #48
	stp	x29, x30, [sp, #32]             ; 16-byte Folded Spill
	add	x29, sp, #32
	.cfi_def_cfa w29, 16
	.cfi_offset w30, -8
	.cfi_offset w29, -16
	stur	x0, [x29, #-8]
	str	x1, [sp, #16]
	str	x2, [sp, #8]
Ltmp312:
	.loc	15 281 34 prologue_end          ; /Applications/Xcode.app/Contents/Developer/Platforms/MacOSX.platform/Developer/SDKs/MacOSX13.1.sdk/usr/include/c++/v1/new:281:34
	ldr	x0, [sp, #8]
	.loc	15 281 9 is_stmt 0              ; /Applications/Xcode.app/Contents/Developer/Platforms/MacOSX.platform/Developer/SDKs/MacOSX13.1.sdk/usr/include/c++/v1/new:281:9
	bl	__ZNSt3__1L24__is_overaligned_for_newEm
Ltmp313:
	.loc	15 281 9                        ; /Applications/Xcode.app/Contents/Developer/Platforms/MacOSX.platform/Developer/SDKs/MacOSX13.1.sdk/usr/include/c++/v1/new:281:9
	tbz	w0, #0, LBB60_2
	b	LBB60_1
LBB60_1:
Ltmp314:
	.loc	15 282 64 is_stmt 1             ; /Applications/Xcode.app/Contents/Developer/Platforms/MacOSX.platform/Developer/SDKs/MacOSX13.1.sdk/usr/include/c++/v1/new:282:64
	ldr	x8, [sp, #8]
	.loc	15 282 25 is_stmt 0             ; /Applications/Xcode.app/Contents/Developer/Platforms/MacOSX.platform/Developer/SDKs/MacOSX13.1.sdk/usr/include/c++/v1/new:282:25
	str	x8, [sp]
	.loc	15 283 42 is_stmt 1             ; /Applications/Xcode.app/Contents/Developer/Platforms/MacOSX.platform/Developer/SDKs/MacOSX13.1.sdk/usr/include/c++/v1/new:283:42
	ldur	x0, [x29, #-8]
	.loc	15 283 49 is_stmt 0             ; /Applications/Xcode.app/Contents/Developer/Platforms/MacOSX.platform/Developer/SDKs/MacOSX13.1.sdk/usr/include/c++/v1/new:283:49
	ldr	x1, [sp, #16]
	.loc	15 283 57                       ; /Applications/Xcode.app/Contents/Developer/Platforms/MacOSX.platform/Developer/SDKs/MacOSX13.1.sdk/usr/include/c++/v1/new:283:57
	ldr	x2, [sp]
	.loc	15 283 14                       ; /Applications/Xcode.app/Contents/Developer/Platforms/MacOSX.platform/Developer/SDKs/MacOSX13.1.sdk/usr/include/c++/v1/new:283:14
	bl	__ZNSt3__1L27__do_deallocate_handle_sizeIJSt11align_val_tEEEvPvmDpT_
	.loc	15 283 7                        ; /Applications/Xcode.app/Contents/Developer/Platforms/MacOSX.platform/Developer/SDKs/MacOSX13.1.sdk/usr/include/c++/v1/new:283:7
	b	LBB60_3
Ltmp315:
LBB60_2:
	.loc	15 285 42 is_stmt 1             ; /Applications/Xcode.app/Contents/Developer/Platforms/MacOSX.platform/Developer/SDKs/MacOSX13.1.sdk/usr/include/c++/v1/new:285:42
	ldur	x0, [x29, #-8]
	.loc	15 285 49 is_stmt 0             ; /Applications/Xcode.app/Contents/Developer/Platforms/MacOSX.platform/Developer/SDKs/MacOSX13.1.sdk/usr/include/c++/v1/new:285:49
	ldr	x1, [sp, #16]
	.loc	15 285 14                       ; /Applications/Xcode.app/Contents/Developer/Platforms/MacOSX.platform/Developer/SDKs/MacOSX13.1.sdk/usr/include/c++/v1/new:285:14
	bl	__ZNSt3__1L27__do_deallocate_handle_sizeIJEEEvPvmDpT_
	.loc	15 285 7                        ; /Applications/Xcode.app/Contents/Developer/Platforms/MacOSX.platform/Developer/SDKs/MacOSX13.1.sdk/usr/include/c++/v1/new:285:7
	b	LBB60_3
Ltmp316:
LBB60_3:
	.loc	15 288 1 is_stmt 1              ; /Applications/Xcode.app/Contents/Developer/Platforms/MacOSX.platform/Developer/SDKs/MacOSX13.1.sdk/usr/include/c++/v1/new:288:1
	ldp	x29, x30, [sp, #32]             ; 16-byte Folded Reload
	add	sp, sp, #48
	ret
Ltmp317:
Lfunc_end60:
	.cfi_endproc
                                        ; -- End function
	.p2align	2                               ; -- Begin function _ZNSt3__1L24__is_overaligned_for_newEm
__ZNSt3__1L24__is_overaligned_for_newEm: ; @_ZNSt3__1L24__is_overaligned_for_newEm
Lfunc_begin61:
	.loc	15 223 0                        ; /Applications/Xcode.app/Contents/Developer/Platforms/MacOSX.platform/Developer/SDKs/MacOSX13.1.sdk/usr/include/c++/v1/new:223:0
	.cfi_startproc
; %bb.0:
	sub	sp, sp, #16
	.cfi_def_cfa_offset 16
	str	x0, [sp, #8]
Ltmp319:
	.loc	15 225 10 prologue_end          ; /Applications/Xcode.app/Contents/Developer/Platforms/MacOSX.platform/Developer/SDKs/MacOSX13.1.sdk/usr/include/c++/v1/new:225:10
	ldr	x8, [sp, #8]
	.loc	15 225 18 is_stmt 0             ; /Applications/Xcode.app/Contents/Developer/Platforms/MacOSX.platform/Developer/SDKs/MacOSX13.1.sdk/usr/include/c++/v1/new:225:18
	subs	x8, x8, #16
	cset	w8, hi
	.loc	15 225 3                        ; /Applications/Xcode.app/Contents/Developer/Platforms/MacOSX.platform/Developer/SDKs/MacOSX13.1.sdk/usr/include/c++/v1/new:225:3
	and	w0, w8, #0x1
	add	sp, sp, #16
	ret
Ltmp320:
Lfunc_end61:
	.cfi_endproc
                                        ; -- End function
	.p2align	2                               ; -- Begin function _ZNSt3__1L27__do_deallocate_handle_sizeIJSt11align_val_tEEEvPvmDpT_
__ZNSt3__1L27__do_deallocate_handle_sizeIJSt11align_val_tEEEvPvmDpT_: ; @_ZNSt3__1L27__do_deallocate_handle_sizeIJSt11align_val_tEEEvPvmDpT_
Lfunc_begin62:
	.loc	15 266 0 is_stmt 1              ; /Applications/Xcode.app/Contents/Developer/Platforms/MacOSX.platform/Developer/SDKs/MacOSX13.1.sdk/usr/include/c++/v1/new:266:0
	.cfi_startproc
; %bb.0:
	sub	sp, sp, #48
	stp	x29, x30, [sp, #32]             ; 16-byte Folded Spill
	add	x29, sp, #32
	.cfi_def_cfa w29, 16
	.cfi_offset w30, -8
	.cfi_offset w29, -16
	stur	x0, [x29, #-8]
	str	x1, [sp, #16]
	str	x2, [sp, #8]
Ltmp321:
	.loc	15 269 35 prologue_end          ; /Applications/Xcode.app/Contents/Developer/Platforms/MacOSX.platform/Developer/SDKs/MacOSX13.1.sdk/usr/include/c++/v1/new:269:35
	ldur	x0, [x29, #-8]
	.loc	15 269 42 is_stmt 0             ; /Applications/Xcode.app/Contents/Developer/Platforms/MacOSX.platform/Developer/SDKs/MacOSX13.1.sdk/usr/include/c++/v1/new:269:42
	ldr	x1, [sp, #8]
	.loc	15 269 10                       ; /Applications/Xcode.app/Contents/Developer/Platforms/MacOSX.platform/Developer/SDKs/MacOSX13.1.sdk/usr/include/c++/v1/new:269:10
	bl	__ZNSt3__1L24__libcpp_operator_deleteIJPvSt11align_val_tEEEvDpT_
	.loc	15 269 3                        ; /Applications/Xcode.app/Contents/Developer/Platforms/MacOSX.platform/Developer/SDKs/MacOSX13.1.sdk/usr/include/c++/v1/new:269:3
	ldp	x29, x30, [sp, #32]             ; 16-byte Folded Reload
	add	sp, sp, #48
	ret
Ltmp322:
Lfunc_end62:
	.cfi_endproc
                                        ; -- End function
	.p2align	2                               ; -- Begin function _ZNSt3__1L27__do_deallocate_handle_sizeIJEEEvPvmDpT_
__ZNSt3__1L27__do_deallocate_handle_sizeIJEEEvPvmDpT_: ; @_ZNSt3__1L27__do_deallocate_handle_sizeIJEEEvPvmDpT_
Lfunc_begin63:
	.loc	15 266 0 is_stmt 1              ; /Applications/Xcode.app/Contents/Developer/Platforms/MacOSX.platform/Developer/SDKs/MacOSX13.1.sdk/usr/include/c++/v1/new:266:0
	.cfi_startproc
; %bb.0:
	sub	sp, sp, #32
	stp	x29, x30, [sp, #16]             ; 16-byte Folded Spill
	add	x29, sp, #16
	.cfi_def_cfa w29, 16
	.cfi_offset w30, -8
	.cfi_offset w29, -16
	str	x0, [sp, #8]
	str	x1, [sp]
Ltmp323:
	.loc	15 269 35 prologue_end          ; /Applications/Xcode.app/Contents/Developer/Platforms/MacOSX.platform/Developer/SDKs/MacOSX13.1.sdk/usr/include/c++/v1/new:269:35
	ldr	x0, [sp, #8]
	.loc	15 269 10 is_stmt 0             ; /Applications/Xcode.app/Contents/Developer/Platforms/MacOSX.platform/Developer/SDKs/MacOSX13.1.sdk/usr/include/c++/v1/new:269:10
	bl	__ZNSt3__1L24__libcpp_operator_deleteIJPvEEEvDpT_
	.loc	15 269 3                        ; /Applications/Xcode.app/Contents/Developer/Platforms/MacOSX.platform/Developer/SDKs/MacOSX13.1.sdk/usr/include/c++/v1/new:269:3
	ldp	x29, x30, [sp, #16]             ; 16-byte Folded Reload
	add	sp, sp, #32
	ret
Ltmp324:
Lfunc_end63:
	.cfi_endproc
                                        ; -- End function
	.p2align	2                               ; -- Begin function _ZNSt3__1L24__libcpp_operator_deleteIJPvSt11align_val_tEEEvDpT_
__ZNSt3__1L24__libcpp_operator_deleteIJPvSt11align_val_tEEEvDpT_: ; @_ZNSt3__1L24__libcpp_operator_deleteIJPvSt11align_val_tEEEvDpT_
Lfunc_begin64:
	.loc	15 243 0 is_stmt 1              ; /Applications/Xcode.app/Contents/Developer/Platforms/MacOSX.platform/Developer/SDKs/MacOSX13.1.sdk/usr/include/c++/v1/new:243:0
	.cfi_startproc
; %bb.0:
	sub	sp, sp, #32
	stp	x29, x30, [sp, #16]             ; 16-byte Folded Spill
	add	x29, sp, #16
	.cfi_def_cfa w29, 16
	.cfi_offset w30, -8
	.cfi_offset w29, -16
	str	x0, [sp, #8]
	str	x1, [sp]
Ltmp325:
	.loc	15 245 29 prologue_end          ; /Applications/Xcode.app/Contents/Developer/Platforms/MacOSX.platform/Developer/SDKs/MacOSX13.1.sdk/usr/include/c++/v1/new:245:29
	ldr	x0, [sp, #8]
	ldr	x1, [sp]
	.loc	15 245 3 is_stmt 0              ; /Applications/Xcode.app/Contents/Developer/Platforms/MacOSX.platform/Developer/SDKs/MacOSX13.1.sdk/usr/include/c++/v1/new:245:3
	bl	__ZdlPvSt11align_val_t
	.loc	15 249 1 is_stmt 1              ; /Applications/Xcode.app/Contents/Developer/Platforms/MacOSX.platform/Developer/SDKs/MacOSX13.1.sdk/usr/include/c++/v1/new:249:1
	ldp	x29, x30, [sp, #16]             ; 16-byte Folded Reload
	add	sp, sp, #32
	ret
Ltmp326:
Lfunc_end64:
	.cfi_endproc
                                        ; -- End function
	.p2align	2                               ; -- Begin function _ZNSt3__1L24__libcpp_operator_deleteIJPvEEEvDpT_
__ZNSt3__1L24__libcpp_operator_deleteIJPvEEEvDpT_: ; @_ZNSt3__1L24__libcpp_operator_deleteIJPvEEEvDpT_
Lfunc_begin65:
	.loc	15 243 0                        ; /Applications/Xcode.app/Contents/Developer/Platforms/MacOSX.platform/Developer/SDKs/MacOSX13.1.sdk/usr/include/c++/v1/new:243:0
	.cfi_startproc
; %bb.0:
	sub	sp, sp, #32
	stp	x29, x30, [sp, #16]             ; 16-byte Folded Spill
	add	x29, sp, #16
	.cfi_def_cfa w29, 16
	.cfi_offset w30, -8
	.cfi_offset w29, -16
	str	x0, [sp, #8]
Ltmp327:
	.loc	15 245 29 prologue_end          ; /Applications/Xcode.app/Contents/Developer/Platforms/MacOSX.platform/Developer/SDKs/MacOSX13.1.sdk/usr/include/c++/v1/new:245:29
	ldr	x0, [sp, #8]
	.loc	15 245 3 is_stmt 0              ; /Applications/Xcode.app/Contents/Developer/Platforms/MacOSX.platform/Developer/SDKs/MacOSX13.1.sdk/usr/include/c++/v1/new:245:3
	bl	__ZdlPv
	.loc	15 249 1 is_stmt 1              ; /Applications/Xcode.app/Contents/Developer/Platforms/MacOSX.platform/Developer/SDKs/MacOSX13.1.sdk/usr/include/c++/v1/new:249:1
	ldp	x29, x30, [sp, #16]             ; 16-byte Folded Reload
	add	sp, sp, #32
	ret
Ltmp328:
Lfunc_end65:
	.cfi_endproc
                                        ; -- End function
	.p2align	2                               ; -- Begin function _ZNSt3__117__compressed_pairINS_12basic_stringIDsNS_11char_traitsIDsEENS_9allocatorIDsEEE5__repES5_E6secondEv
__ZNSt3__117__compressed_pairINS_12basic_stringIDsNS_11char_traitsIDsEENS_9allocatorIDsEEE5__repES5_E6secondEv: ; @_ZNSt3__117__compressed_pairINS_12basic_stringIDsNS_11char_traitsIDsEENS_9allocatorIDsEEE5__repES5_E6secondEv
Lfunc_begin66:
	.loc	7 160 0                         ; /Applications/Xcode.app/Contents/Developer/Platforms/MacOSX.platform/Developer/SDKs/MacOSX13.1.sdk/usr/include/c++/v1/__memory/compressed_pair.h:160:0
	.cfi_startproc
; %bb.0:
	sub	sp, sp, #32
	stp	x29, x30, [sp, #16]             ; 16-byte Folded Spill
	add	x29, sp, #16
	.cfi_def_cfa w29, 16
	.cfi_offset w30, -8
	.cfi_offset w29, -16
	str	x0, [sp, #8]
	ldr	x0, [sp, #8]
Ltmp329:
	.loc	7 161 40 prologue_end           ; /Applications/Xcode.app/Contents/Developer/Platforms/MacOSX.platform/Developer/SDKs/MacOSX13.1.sdk/usr/include/c++/v1/__memory/compressed_pair.h:161:40
	bl	__ZNSt3__122__compressed_pair_elemINS_9allocatorIDsEELi1ELb1EE5__getEv
	.loc	7 161 5 is_stmt 0               ; /Applications/Xcode.app/Contents/Developer/Platforms/MacOSX.platform/Developer/SDKs/MacOSX13.1.sdk/usr/include/c++/v1/__memory/compressed_pair.h:161:5
	ldp	x29, x30, [sp, #16]             ; 16-byte Folded Reload
	add	sp, sp, #32
	ret
Ltmp330:
Lfunc_end66:
	.cfi_endproc
                                        ; -- End function
	.p2align	2                               ; -- Begin function _ZNSt3__122__compressed_pair_elemINS_9allocatorIDsEELi1ELb1EE5__getEv
__ZNSt3__122__compressed_pair_elemINS_9allocatorIDsEELi1ELb1EE5__getEv: ; @_ZNSt3__122__compressed_pair_elemINS_9allocatorIDsEELi1ELb1EE5__getEv
Lfunc_begin67:
	.loc	7 103 0 is_stmt 1               ; /Applications/Xcode.app/Contents/Developer/Platforms/MacOSX.platform/Developer/SDKs/MacOSX13.1.sdk/usr/include/c++/v1/__memory/compressed_pair.h:103:0
	.cfi_startproc
; %bb.0:
	sub	sp, sp, #16
	.cfi_def_cfa_offset 16
	str	x0, [sp, #8]
	ldr	x0, [sp, #8]
Ltmp332:
	.loc	7 103 110 prologue_end          ; /Applications/Xcode.app/Contents/Developer/Platforms/MacOSX.platform/Developer/SDKs/MacOSX13.1.sdk/usr/include/c++/v1/__memory/compressed_pair.h:103:110
	add	sp, sp, #16
	ret
Ltmp333:
Lfunc_end67:
	.cfi_endproc
                                        ; -- End function
	.p2align	2                               ; -- Begin function _ZNSt3__117__compressed_pairINS_12basic_stringIDsNS_11char_traitsIDsEENS_9allocatorIDsEEE5__repES5_E5firstEv
__ZNSt3__117__compressed_pairINS_12basic_stringIDsNS_11char_traitsIDsEENS_9allocatorIDsEEE5__repES5_E5firstEv: ; @_ZNSt3__117__compressed_pairINS_12basic_stringIDsNS_11char_traitsIDsEENS_9allocatorIDsEEE5__repES5_E5firstEv
Lfunc_begin68:
	.loc	7 150 0                         ; /Applications/Xcode.app/Contents/Developer/Platforms/MacOSX.platform/Developer/SDKs/MacOSX13.1.sdk/usr/include/c++/v1/__memory/compressed_pair.h:150:0
	.cfi_startproc
; %bb.0:
	sub	sp, sp, #32
	stp	x29, x30, [sp, #16]             ; 16-byte Folded Spill
	add	x29, sp, #16
	.cfi_def_cfa w29, 16
	.cfi_offset w30, -8
	.cfi_offset w29, -16
	str	x0, [sp, #8]
	ldr	x0, [sp, #8]
Ltmp334:
	.loc	7 151 40 prologue_end           ; /Applications/Xcode.app/Contents/Developer/Platforms/MacOSX.platform/Developer/SDKs/MacOSX13.1.sdk/usr/include/c++/v1/__memory/compressed_pair.h:151:40
	bl	__ZNSt3__122__compressed_pair_elemINS_12basic_stringIDsNS_11char_traitsIDsEENS_9allocatorIDsEEE5__repELi0ELb0EE5__getEv
	.loc	7 151 5 is_stmt 0               ; /Applications/Xcode.app/Contents/Developer/Platforms/MacOSX.platform/Developer/SDKs/MacOSX13.1.sdk/usr/include/c++/v1/__memory/compressed_pair.h:151:5
	ldp	x29, x30, [sp, #16]             ; 16-byte Folded Reload
	add	sp, sp, #32
	ret
Ltmp335:
Lfunc_end68:
	.cfi_endproc
                                        ; -- End function
	.p2align	2                               ; -- Begin function _ZNSt3__122__compressed_pair_elemINS_12basic_stringIDsNS_11char_traitsIDsEENS_9allocatorIDsEEE5__repELi0ELb0EE5__getEv
__ZNSt3__122__compressed_pair_elemINS_12basic_stringIDsNS_11char_traitsIDsEENS_9allocatorIDsEEE5__repELi0ELb0EE5__getEv: ; @_ZNSt3__122__compressed_pair_elemINS_12basic_stringIDsNS_11char_traitsIDsEENS_9allocatorIDsEEE5__repELi0ELb0EE5__getEv
Lfunc_begin69:
	.loc	7 65 0 is_stmt 1                ; /Applications/Xcode.app/Contents/Developer/Platforms/MacOSX.platform/Developer/SDKs/MacOSX13.1.sdk/usr/include/c++/v1/__memory/compressed_pair.h:65:0
	.cfi_startproc
; %bb.0:
	sub	sp, sp, #16
	.cfi_def_cfa_offset 16
	str	x0, [sp, #8]
	ldr	x0, [sp, #8]
Ltmp337:
	.loc	7 65 110 prologue_end           ; /Applications/Xcode.app/Contents/Developer/Platforms/MacOSX.platform/Developer/SDKs/MacOSX13.1.sdk/usr/include/c++/v1/__memory/compressed_pair.h:65:110
	add	sp, sp, #16
	ret
Ltmp338:
Lfunc_end69:
	.cfi_endproc
                                        ; -- End function
	.p2align	2                               ; -- Begin function _ZNSt3__112basic_stringIcNS_11char_traitsIcEENS_9allocatorIcEEEC2Ev
__ZNSt3__112basic_stringIcNS_11char_traitsIcEENS_9allocatorIcEEEC2Ev: ; @_ZNSt3__112basic_stringIcNS_11char_traitsIcEENS_9allocatorIcEEEC2Ev
Lfunc_begin70:
	.loc	5 1860 0                        ; /Applications/Xcode.app/Contents/Developer/Platforms/MacOSX.platform/Developer/SDKs/MacOSX13.1.sdk/usr/include/c++/v1/string:1860:0
	.cfi_startproc
	.cfi_personality 155, ___gxx_personality_v0
	.cfi_lsda 16, Lexception10
; %bb.0:
	sub	sp, sp, #48
	stp	x29, x30, [sp, #32]             ; 16-byte Folded Spill
	add	x29, sp, #32
	.cfi_def_cfa w29, 16
	.cfi_offset w30, -8
	.cfi_offset w29, -16
	stur	x0, [x29, #-8]
	ldur	x0, [x29, #-8]
	str	x0, [sp, #8]                    ; 8-byte Folded Spill
Ltmp339:
	sub	x1, x29, #9
	sub	x2, x29, #10
Ltmp342:
	.loc	5 1859 8 prologue_end           ; /Applications/Xcode.app/Contents/Developer/Platforms/MacOSX.platform/Developer/SDKs/MacOSX13.1.sdk/usr/include/c++/v1/string:1859:8
	bl	__ZNSt3__117__compressed_pairINS_12basic_stringIcNS_11char_traitsIcEENS_9allocatorIcEEE5__repES5_EC1INS_18__default_init_tagESA_EEOT_OT0_
Ltmp340:
	b	LBB70_1
LBB70_1:
	.loc	5 0 8 is_stmt 0                 ; /Applications/Xcode.app/Contents/Developer/Platforms/MacOSX.platform/Developer/SDKs/MacOSX13.1.sdk/usr/include/c++/v1/string:0:8
	ldr	x0, [sp, #8]                    ; 8-byte Folded Reload
Ltmp343:
	.loc	5 1864 5 is_stmt 1              ; /Applications/Xcode.app/Contents/Developer/Platforms/MacOSX.platform/Developer/SDKs/MacOSX13.1.sdk/usr/include/c++/v1/string:1864:5
	bl	__ZNSt3__112basic_stringIcNS_11char_traitsIcEENS_9allocatorIcEEE6__zeroEv
	ldr	x0, [sp, #8]                    ; 8-byte Folded Reload
Ltmp344:
	.loc	5 1865 1                        ; /Applications/Xcode.app/Contents/Developer/Platforms/MacOSX.platform/Developer/SDKs/MacOSX13.1.sdk/usr/include/c++/v1/string:1865:1
	ldp	x29, x30, [sp, #32]             ; 16-byte Folded Reload
	add	sp, sp, #48
	ret
LBB70_2:
Ltmp341:
	.loc	5 1859 8                        ; /Applications/Xcode.app/Contents/Developer/Platforms/MacOSX.platform/Developer/SDKs/MacOSX13.1.sdk/usr/include/c++/v1/string:1859:8
	bl	___clang_call_terminate
Ltmp345:
Lfunc_end70:
	.cfi_endproc
	.section	__TEXT,__gcc_except_tab
	.p2align	2
GCC_except_table70:
Lexception10:
	.byte	255                             ; @LPStart Encoding = omit
	.byte	155                             ; @TType Encoding = indirect pcrel sdata4
	.uleb128 Lttbase4-Lttbaseref4
Lttbaseref4:
	.byte	1                               ; Call site Encoding = uleb128
	.uleb128 Lcst_end10-Lcst_begin10
Lcst_begin10:
	.uleb128 Ltmp339-Lfunc_begin70          ; >> Call Site 1 <<
	.uleb128 Ltmp340-Ltmp339                ;   Call between Ltmp339 and Ltmp340
	.uleb128 Ltmp341-Lfunc_begin70          ;     jumps to Ltmp341
	.byte	1                               ;   On action: 1
Lcst_end10:
	.byte	1                               ; >> Action Record 1 <<
                                        ;   Catch TypeInfo 1
	.byte	0                               ;   No further actions
	.p2align	2
                                        ; >> Catch TypeInfos <<
	.long	0                               ; TypeInfo 1
Lttbase4:
	.p2align	2
                                        ; -- End function
	.section	__TEXT,__text,regular,pure_instructions
	.p2align	2                               ; -- Begin function _ZNSt3__117__compressed_pairINS_12basic_stringIcNS_11char_traitsIcEENS_9allocatorIcEEE5__repES5_EC1INS_18__default_init_tagESA_EEOT_OT0_
__ZNSt3__117__compressed_pairINS_12basic_stringIcNS_11char_traitsIcEENS_9allocatorIcEEE5__repES5_EC1INS_18__default_init_tagESA_EEOT_OT0_: ; @_ZNSt3__117__compressed_pairINS_12basic_stringIcNS_11char_traitsIcEENS_9allocatorIcEEE5__repES5_EC1INS_18__default_init_tagESA_EEOT_OT0_
Lfunc_begin71:
	.loc	7 136 0                         ; /Applications/Xcode.app/Contents/Developer/Platforms/MacOSX.platform/Developer/SDKs/MacOSX13.1.sdk/usr/include/c++/v1/__memory/compressed_pair.h:136:0
	.cfi_startproc
; %bb.0:
	sub	sp, sp, #48
	stp	x29, x30, [sp, #32]             ; 16-byte Folded Spill
	add	x29, sp, #32
	.cfi_def_cfa w29, 16
	.cfi_offset w30, -8
	.cfi_offset w29, -16
	stur	x0, [x29, #-8]
	str	x1, [sp, #16]
	str	x2, [sp, #8]
	ldur	x0, [x29, #-8]
	str	x0, [sp]                        ; 8-byte Folded Spill
Ltmp346:
	.loc	7 136 84 prologue_end           ; /Applications/Xcode.app/Contents/Developer/Platforms/MacOSX.platform/Developer/SDKs/MacOSX13.1.sdk/usr/include/c++/v1/__memory/compressed_pair.h:136:84
	ldr	x1, [sp, #16]
	ldr	x2, [sp, #8]
	bl	__ZNSt3__117__compressed_pairINS_12basic_stringIcNS_11char_traitsIcEENS_9allocatorIcEEE5__repES5_EC2INS_18__default_init_tagESA_EEOT_OT0_
	ldr	x0, [sp]                        ; 8-byte Folded Reload
	.loc	7 136 85 is_stmt 0              ; /Applications/Xcode.app/Contents/Developer/Platforms/MacOSX.platform/Developer/SDKs/MacOSX13.1.sdk/usr/include/c++/v1/__memory/compressed_pair.h:136:85
	ldp	x29, x30, [sp, #32]             ; 16-byte Folded Reload
	add	sp, sp, #48
	ret
Ltmp347:
Lfunc_end71:
	.cfi_endproc
                                        ; -- End function
	.p2align	2                               ; -- Begin function _ZNSt3__112basic_stringIcNS_11char_traitsIcEENS_9allocatorIcEEE6__zeroEv
__ZNSt3__112basic_stringIcNS_11char_traitsIcEENS_9allocatorIcEEE6__zeroEv: ; @_ZNSt3__112basic_stringIcNS_11char_traitsIcEENS_9allocatorIcEEE6__zeroEv
Lfunc_begin72:
	.loc	5 1585 0 is_stmt 1              ; /Applications/Xcode.app/Contents/Developer/Platforms/MacOSX.platform/Developer/SDKs/MacOSX13.1.sdk/usr/include/c++/v1/string:1585:0
	.cfi_startproc
; %bb.0:
	sub	sp, sp, #48
	stp	x29, x30, [sp, #32]             ; 16-byte Folded Spill
	add	x29, sp, #32
	.cfi_def_cfa w29, 16
	.cfi_offset w30, -8
	.cfi_offset w29, -16
	stur	x0, [x29, #-8]
	ldur	x0, [x29, #-8]
Ltmp348:
	.loc	5 1586 48 prologue_end          ; /Applications/Xcode.app/Contents/Developer/Platforms/MacOSX.platform/Developer/SDKs/MacOSX13.1.sdk/usr/include/c++/v1/string:1586:48
	bl	__ZNSt3__117__compressed_pairINS_12basic_stringIcNS_11char_traitsIcEENS_9allocatorIcEEE5__repES5_E5firstEv
	.loc	5 1586 25 is_stmt 0             ; /Applications/Xcode.app/Contents/Developer/Platforms/MacOSX.platform/Developer/SDKs/MacOSX13.1.sdk/usr/include/c++/v1/string:1586:25
	str	x0, [sp, #16]
Ltmp349:
	.loc	5 1587 27 is_stmt 1             ; /Applications/Xcode.app/Contents/Developer/Platforms/MacOSX.platform/Developer/SDKs/MacOSX13.1.sdk/usr/include/c++/v1/string:1587:27
	str	wzr, [sp, #12]
	.loc	5 1587 18 is_stmt 0             ; /Applications/Xcode.app/Contents/Developer/Platforms/MacOSX.platform/Developer/SDKs/MacOSX13.1.sdk/usr/include/c++/v1/string:1587:18
	b	LBB72_1
LBB72_1:                                ; =>This Inner Loop Header: Depth=1
Ltmp350:
	.loc	5 1587 36                       ; /Applications/Xcode.app/Contents/Developer/Platforms/MacOSX.platform/Developer/SDKs/MacOSX13.1.sdk/usr/include/c++/v1/string:1587:36
	ldr	w8, [sp, #12]
Ltmp351:
	.loc	5 1587 13                       ; /Applications/Xcode.app/Contents/Developer/Platforms/MacOSX.platform/Developer/SDKs/MacOSX13.1.sdk/usr/include/c++/v1/string:1587:13
	subs	w8, w8, #3
	b.hs	LBB72_4
	b	LBB72_2
LBB72_2:                                ;   in Loop: Header=BB72_1 Depth=1
Ltmp352:
	.loc	5 1588 17 is_stmt 1             ; /Applications/Xcode.app/Contents/Developer/Platforms/MacOSX.platform/Developer/SDKs/MacOSX13.1.sdk/usr/include/c++/v1/string:1588:17
	ldr	x9, [sp, #16]
	.loc	5 1588 21 is_stmt 0             ; /Applications/Xcode.app/Contents/Developer/Platforms/MacOSX.platform/Developer/SDKs/MacOSX13.1.sdk/usr/include/c++/v1/string:1588:21
	ldr	w8, [sp, #12]
	mov	x10, x8
	mov	x8, #0
	.loc	5 1588 26                       ; /Applications/Xcode.app/Contents/Developer/Platforms/MacOSX.platform/Developer/SDKs/MacOSX13.1.sdk/usr/include/c++/v1/string:1588:26
	str	x8, [x9, x10, lsl #3]
	.loc	5 1588 17                       ; /Applications/Xcode.app/Contents/Developer/Platforms/MacOSX.platform/Developer/SDKs/MacOSX13.1.sdk/usr/include/c++/v1/string:1588:17
	b	LBB72_3
LBB72_3:                                ;   in Loop: Header=BB72_1 Depth=1
	.loc	5 1587 53 is_stmt 1             ; /Applications/Xcode.app/Contents/Developer/Platforms/MacOSX.platform/Developer/SDKs/MacOSX13.1.sdk/usr/include/c++/v1/string:1587:53
	ldr	w8, [sp, #12]
	add	w8, w8, #1
	str	w8, [sp, #12]
	.loc	5 1587 13 is_stmt 0             ; /Applications/Xcode.app/Contents/Developer/Platforms/MacOSX.platform/Developer/SDKs/MacOSX13.1.sdk/usr/include/c++/v1/string:1587:13
	b	LBB72_1
Ltmp353:
LBB72_4:
	.loc	5 1589 9 is_stmt 1              ; /Applications/Xcode.app/Contents/Developer/Platforms/MacOSX.platform/Developer/SDKs/MacOSX13.1.sdk/usr/include/c++/v1/string:1589:9
	ldp	x29, x30, [sp, #32]             ; 16-byte Folded Reload
	add	sp, sp, #48
	ret
Ltmp354:
Lfunc_end72:
	.cfi_endproc
                                        ; -- End function
	.p2align	2                               ; -- Begin function _ZNSt3__117__compressed_pairINS_12basic_stringIcNS_11char_traitsIcEENS_9allocatorIcEEE5__repES5_EC2INS_18__default_init_tagESA_EEOT_OT0_
__ZNSt3__117__compressed_pairINS_12basic_stringIcNS_11char_traitsIcEENS_9allocatorIcEEE5__repES5_EC2INS_18__default_init_tagESA_EEOT_OT0_: ; @_ZNSt3__117__compressed_pairINS_12basic_stringIcNS_11char_traitsIcEENS_9allocatorIcEEE5__repES5_EC2INS_18__default_init_tagESA_EEOT_OT0_
Lfunc_begin73:
	.loc	7 136 0                         ; /Applications/Xcode.app/Contents/Developer/Platforms/MacOSX.platform/Developer/SDKs/MacOSX13.1.sdk/usr/include/c++/v1/__memory/compressed_pair.h:136:0
	.cfi_startproc
; %bb.0:
	sub	sp, sp, #64
	stp	x29, x30, [sp, #48]             ; 16-byte Folded Spill
	add	x29, sp, #48
	.cfi_def_cfa w29, 16
	.cfi_offset w30, -8
	.cfi_offset w29, -16
	stur	x0, [x29, #-8]
	stur	x1, [x29, #-16]
	str	x2, [sp, #24]
	ldur	x8, [x29, #-8]
	str	x8, [sp, #8]                    ; 8-byte Folded Spill
Ltmp355:
	.loc	7 136 39 prologue_end           ; /Applications/Xcode.app/Contents/Developer/Platforms/MacOSX.platform/Developer/SDKs/MacOSX13.1.sdk/usr/include/c++/v1/__memory/compressed_pair.h:136:39
	ldur	x0, [x29, #-16]
	.loc	7 136 16 is_stmt 0              ; /Applications/Xcode.app/Contents/Developer/Platforms/MacOSX.platform/Developer/SDKs/MacOSX13.1.sdk/usr/include/c++/v1/__memory/compressed_pair.h:136:16
	bl	__ZNSt3__1L7forwardINS_18__default_init_tagEEEOT_RNS_16remove_referenceIS2_E4typeE
	ldr	x0, [sp, #8]                    ; 8-byte Folded Reload
	.loc	7 136 9                         ; /Applications/Xcode.app/Contents/Developer/Platforms/MacOSX.platform/Developer/SDKs/MacOSX13.1.sdk/usr/include/c++/v1/__memory/compressed_pair.h:136:9
	bl	__ZNSt3__122__compressed_pair_elemINS_12basic_stringIcNS_11char_traitsIcEENS_9allocatorIcEEE5__repELi0ELb0EEC2ENS_18__default_init_tagE
	.loc	7 136 77                        ; /Applications/Xcode.app/Contents/Developer/Platforms/MacOSX.platform/Developer/SDKs/MacOSX13.1.sdk/usr/include/c++/v1/__memory/compressed_pair.h:136:77
	ldr	x0, [sp, #24]
	.loc	7 136 54                        ; /Applications/Xcode.app/Contents/Developer/Platforms/MacOSX.platform/Developer/SDKs/MacOSX13.1.sdk/usr/include/c++/v1/__memory/compressed_pair.h:136:54
	bl	__ZNSt3__1L7forwardINS_18__default_init_tagEEEOT_RNS_16remove_referenceIS2_E4typeE
	ldr	x0, [sp, #8]                    ; 8-byte Folded Reload
	.loc	7 136 47                        ; /Applications/Xcode.app/Contents/Developer/Platforms/MacOSX.platform/Developer/SDKs/MacOSX13.1.sdk/usr/include/c++/v1/__memory/compressed_pair.h:136:47
	bl	__ZNSt3__122__compressed_pair_elemINS_9allocatorIcEELi1ELb1EEC2ENS_18__default_init_tagE
	ldr	x0, [sp, #8]                    ; 8-byte Folded Reload
	.loc	7 136 85                        ; /Applications/Xcode.app/Contents/Developer/Platforms/MacOSX.platform/Developer/SDKs/MacOSX13.1.sdk/usr/include/c++/v1/__memory/compressed_pair.h:136:85
	ldp	x29, x30, [sp, #48]             ; 16-byte Folded Reload
	add	sp, sp, #64
	ret
Ltmp356:
Lfunc_end73:
	.cfi_endproc
                                        ; -- End function
	.p2align	2                               ; -- Begin function _ZNSt3__1L7forwardINS_18__default_init_tagEEEOT_RNS_16remove_referenceIS2_E4typeE
__ZNSt3__1L7forwardINS_18__default_init_tagEEEOT_RNS_16remove_referenceIS2_E4typeE: ; @_ZNSt3__1L7forwardINS_18__default_init_tagEEEOT_RNS_16remove_referenceIS2_E4typeE
Lfunc_begin74:
	.file	83 "/Applications/Xcode.app/Contents/Developer/Platforms/MacOSX.platform/Developer/SDKs/MacOSX13.1.sdk/usr/include/c++/v1/__utility" "forward.h"
	.loc	83 27 0 is_stmt 1               ; /Applications/Xcode.app/Contents/Developer/Platforms/MacOSX.platform/Developer/SDKs/MacOSX13.1.sdk/usr/include/c++/v1/__utility/forward.h:27:0
	.cfi_startproc
; %bb.0:
	sub	sp, sp, #16
	.cfi_def_cfa_offset 16
	str	x0, [sp, #8]
Ltmp358:
	.loc	83 28 29 prologue_end           ; /Applications/Xcode.app/Contents/Developer/Platforms/MacOSX.platform/Developer/SDKs/MacOSX13.1.sdk/usr/include/c++/v1/__utility/forward.h:28:29
	ldr	x0, [sp, #8]
	.loc	83 28 3 is_stmt 0               ; /Applications/Xcode.app/Contents/Developer/Platforms/MacOSX.platform/Developer/SDKs/MacOSX13.1.sdk/usr/include/c++/v1/__utility/forward.h:28:3
	add	sp, sp, #16
	ret
Ltmp359:
Lfunc_end74:
	.cfi_endproc
                                        ; -- End function
	.p2align	2                               ; -- Begin function _ZNSt3__122__compressed_pair_elemINS_12basic_stringIcNS_11char_traitsIcEENS_9allocatorIcEEE5__repELi0ELb0EEC2ENS_18__default_init_tagE
__ZNSt3__122__compressed_pair_elemINS_12basic_stringIcNS_11char_traitsIcEENS_9allocatorIcEEE5__repELi0ELb0EEC2ENS_18__default_init_tagE: ; @_ZNSt3__122__compressed_pair_elemINS_12basic_stringIcNS_11char_traitsIcEENS_9allocatorIcEEE5__repELi0ELb0EEC2ENS_18__default_init_tagE
Lfunc_begin75:
	.loc	7 41 0 is_stmt 1                ; /Applications/Xcode.app/Contents/Developer/Platforms/MacOSX.platform/Developer/SDKs/MacOSX13.1.sdk/usr/include/c++/v1/__memory/compressed_pair.h:41:0
	.cfi_startproc
; %bb.0:
	sub	sp, sp, #16
	.cfi_def_cfa_offset 16
	str	x0, [sp]
	ldr	x0, [sp]
Ltmp361:
	.loc	7 41 47 prologue_end            ; /Applications/Xcode.app/Contents/Developer/Platforms/MacOSX.platform/Developer/SDKs/MacOSX13.1.sdk/usr/include/c++/v1/__memory/compressed_pair.h:41:47
	add	sp, sp, #16
	ret
Ltmp362:
Lfunc_end75:
	.cfi_endproc
                                        ; -- End function
	.p2align	2                               ; -- Begin function _ZNSt3__122__compressed_pair_elemINS_9allocatorIcEELi1ELb1EEC2ENS_18__default_init_tagE
__ZNSt3__122__compressed_pair_elemINS_9allocatorIcEELi1ELb1EEC2ENS_18__default_init_tagE: ; @_ZNSt3__122__compressed_pair_elemINS_9allocatorIcEELi1ELb1EEC2ENS_18__default_init_tagE
Lfunc_begin76:
	.loc	7 82 0                          ; /Applications/Xcode.app/Contents/Developer/Platforms/MacOSX.platform/Developer/SDKs/MacOSX13.1.sdk/usr/include/c++/v1/__memory/compressed_pair.h:82:0
	.cfi_startproc
; %bb.0:
	sub	sp, sp, #48
	stp	x29, x30, [sp, #32]             ; 16-byte Folded Spill
	add	x29, sp, #32
	.cfi_def_cfa w29, 16
	.cfi_offset w30, -8
	.cfi_offset w29, -16
	str	x0, [sp, #16]
	ldr	x0, [sp, #16]
	str	x0, [sp, #8]                    ; 8-byte Folded Spill
Ltmp363:
	.loc	7 82 3 prologue_end             ; /Applications/Xcode.app/Contents/Developer/Platforms/MacOSX.platform/Developer/SDKs/MacOSX13.1.sdk/usr/include/c++/v1/__memory/compressed_pair.h:82:3
	bl	__ZNSt3__19allocatorIcEC2Ev
	ldr	x0, [sp, #8]                    ; 8-byte Folded Reload
	.loc	7 82 47 is_stmt 0               ; /Applications/Xcode.app/Contents/Developer/Platforms/MacOSX.platform/Developer/SDKs/MacOSX13.1.sdk/usr/include/c++/v1/__memory/compressed_pair.h:82:47
	ldp	x29, x30, [sp, #32]             ; 16-byte Folded Reload
	add	sp, sp, #48
	ret
Ltmp364:
Lfunc_end76:
	.cfi_endproc
                                        ; -- End function
	.p2align	2                               ; -- Begin function _ZNSt3__19allocatorIcEC2Ev
__ZNSt3__19allocatorIcEC2Ev:            ; @_ZNSt3__19allocatorIcEC2Ev
Lfunc_begin77:
	.loc	4 94 0 is_stmt 1                ; /Applications/Xcode.app/Contents/Developer/Platforms/MacOSX.platform/Developer/SDKs/MacOSX13.1.sdk/usr/include/c++/v1/__memory/allocator.h:94:0
	.cfi_startproc
; %bb.0:
	sub	sp, sp, #32
	stp	x29, x30, [sp, #16]             ; 16-byte Folded Spill
	add	x29, sp, #16
	.cfi_def_cfa w29, 16
	.cfi_offset w30, -8
	.cfi_offset w29, -16
	str	x0, [sp, #8]
	ldr	x0, [sp, #8]
	str	x0, [sp]                        ; 8-byte Folded Spill
Ltmp365:
	.loc	4 94 5 prologue_end             ; /Applications/Xcode.app/Contents/Developer/Platforms/MacOSX.platform/Developer/SDKs/MacOSX13.1.sdk/usr/include/c++/v1/__memory/allocator.h:94:5
	bl	__ZNSt3__116__non_trivial_ifILb1ENS_9allocatorIcEEEC2Ev
	ldr	x0, [sp]                        ; 8-byte Folded Reload
	.loc	4 94 34 is_stmt 0               ; /Applications/Xcode.app/Contents/Developer/Platforms/MacOSX.platform/Developer/SDKs/MacOSX13.1.sdk/usr/include/c++/v1/__memory/allocator.h:94:34
	ldp	x29, x30, [sp, #16]             ; 16-byte Folded Reload
	add	sp, sp, #32
	ret
Ltmp366:
Lfunc_end77:
	.cfi_endproc
                                        ; -- End function
	.p2align	2                               ; -- Begin function _ZNSt3__116__non_trivial_ifILb1ENS_9allocatorIcEEEC2Ev
__ZNSt3__116__non_trivial_ifILb1ENS_9allocatorIcEEEC2Ev: ; @_ZNSt3__116__non_trivial_ifILb1ENS_9allocatorIcEEEC2Ev
Lfunc_begin78:
	.loc	4 74 0 is_stmt 1                ; /Applications/Xcode.app/Contents/Developer/Platforms/MacOSX.platform/Developer/SDKs/MacOSX13.1.sdk/usr/include/c++/v1/__memory/allocator.h:74:0
	.cfi_startproc
; %bb.0:
	sub	sp, sp, #16
	.cfi_def_cfa_offset 16
	str	x0, [sp, #8]
	ldr	x0, [sp, #8]
Ltmp368:
	.loc	4 74 45 prologue_end            ; /Applications/Xcode.app/Contents/Developer/Platforms/MacOSX.platform/Developer/SDKs/MacOSX13.1.sdk/usr/include/c++/v1/__memory/allocator.h:74:45
	add	sp, sp, #16
	ret
Ltmp369:
Lfunc_end78:
	.cfi_endproc
                                        ; -- End function
	.p2align	2                               ; -- Begin function _ZNSt3__117__compressed_pairINS_12basic_stringIcNS_11char_traitsIcEENS_9allocatorIcEEE5__repES5_E5firstEv
__ZNSt3__117__compressed_pairINS_12basic_stringIcNS_11char_traitsIcEENS_9allocatorIcEEE5__repES5_E5firstEv: ; @_ZNSt3__117__compressed_pairINS_12basic_stringIcNS_11char_traitsIcEENS_9allocatorIcEEE5__repES5_E5firstEv
Lfunc_begin79:
	.loc	7 150 0                         ; /Applications/Xcode.app/Contents/Developer/Platforms/MacOSX.platform/Developer/SDKs/MacOSX13.1.sdk/usr/include/c++/v1/__memory/compressed_pair.h:150:0
	.cfi_startproc
; %bb.0:
	sub	sp, sp, #32
	stp	x29, x30, [sp, #16]             ; 16-byte Folded Spill
	add	x29, sp, #16
	.cfi_def_cfa w29, 16
	.cfi_offset w30, -8
	.cfi_offset w29, -16
	str	x0, [sp, #8]
	ldr	x0, [sp, #8]
Ltmp370:
	.loc	7 151 40 prologue_end           ; /Applications/Xcode.app/Contents/Developer/Platforms/MacOSX.platform/Developer/SDKs/MacOSX13.1.sdk/usr/include/c++/v1/__memory/compressed_pair.h:151:40
	bl	__ZNSt3__122__compressed_pair_elemINS_12basic_stringIcNS_11char_traitsIcEENS_9allocatorIcEEE5__repELi0ELb0EE5__getEv
	.loc	7 151 5 is_stmt 0               ; /Applications/Xcode.app/Contents/Developer/Platforms/MacOSX.platform/Developer/SDKs/MacOSX13.1.sdk/usr/include/c++/v1/__memory/compressed_pair.h:151:5
	ldp	x29, x30, [sp, #16]             ; 16-byte Folded Reload
	add	sp, sp, #32
	ret
Ltmp371:
Lfunc_end79:
	.cfi_endproc
                                        ; -- End function
	.p2align	2                               ; -- Begin function _ZNSt3__122__compressed_pair_elemINS_12basic_stringIcNS_11char_traitsIcEENS_9allocatorIcEEE5__repELi0ELb0EE5__getEv
__ZNSt3__122__compressed_pair_elemINS_12basic_stringIcNS_11char_traitsIcEENS_9allocatorIcEEE5__repELi0ELb0EE5__getEv: ; @_ZNSt3__122__compressed_pair_elemINS_12basic_stringIcNS_11char_traitsIcEENS_9allocatorIcEEE5__repELi0ELb0EE5__getEv
Lfunc_begin80:
	.loc	7 65 0 is_stmt 1                ; /Applications/Xcode.app/Contents/Developer/Platforms/MacOSX.platform/Developer/SDKs/MacOSX13.1.sdk/usr/include/c++/v1/__memory/compressed_pair.h:65:0
	.cfi_startproc
; %bb.0:
	sub	sp, sp, #16
	.cfi_def_cfa_offset 16
	str	x0, [sp, #8]
	ldr	x0, [sp, #8]
Ltmp373:
	.loc	7 65 110 prologue_end           ; /Applications/Xcode.app/Contents/Developer/Platforms/MacOSX.platform/Developer/SDKs/MacOSX13.1.sdk/usr/include/c++/v1/__memory/compressed_pair.h:65:110
	add	sp, sp, #16
	ret
Ltmp374:
Lfunc_end80:
	.cfi_endproc
                                        ; -- End function
	.p2align	2                               ; -- Begin function _ZNSt3__13mapINS_12basic_stringIcNS_11char_traitsIcEENS_9allocatorIcEEEES6_NS_4lessIS6_EENS4_INS_4pairIKS6_S6_EEEEEC2Ev
__ZNSt3__13mapINS_12basic_stringIcNS_11char_traitsIcEENS_9allocatorIcEEEES6_NS_4lessIS6_EENS4_INS_4pairIKS6_S6_EEEEEC2Ev: ; @_ZNSt3__13mapINS_12basic_stringIcNS_11char_traitsIcEENS_9allocatorIcEEEES6_NS_4lessIS6_EENS4_INS_4pairIKS6_S6_EEEEEC2Ev
Lfunc_begin81:
	.loc	21 992 0                        ; /Applications/Xcode.app/Contents/Developer/Platforms/MacOSX.platform/Developer/SDKs/MacOSX13.1.sdk/usr/include/c++/v1/map:992:0
	.cfi_startproc
; %bb.0:
	sub	sp, sp, #48
	stp	x29, x30, [sp, #32]             ; 16-byte Folded Spill
	add	x29, sp, #32
	.cfi_def_cfa w29, 16
	.cfi_offset w30, -8
	.cfi_offset w29, -16
	stur	x0, [x29, #-8]
	ldur	x8, [x29, #-8]
	str	x8, [sp, #8]                    ; 8-byte Folded Spill
	sub	x0, x29, #9
	str	x0, [sp]                        ; 8-byte Folded Spill
Ltmp375:
	.loc	21 992 19 prologue_end          ; /Applications/Xcode.app/Contents/Developer/Platforms/MacOSX.platform/Developer/SDKs/MacOSX13.1.sdk/usr/include/c++/v1/map:992:19
	bl	__ZNSt3__119__map_value_compareINS_12basic_stringIcNS_11char_traitsIcEENS_9allocatorIcEEEENS_12__value_typeIS6_S6_EENS_4lessIS6_EELb1EEC1ESA_
	ldr	x0, [sp, #8]                    ; 8-byte Folded Reload
	ldr	x1, [sp]                        ; 8-byte Folded Reload
	.loc	21 992 11 is_stmt 0             ; /Applications/Xcode.app/Contents/Developer/Platforms/MacOSX.platform/Developer/SDKs/MacOSX13.1.sdk/usr/include/c++/v1/map:992:11
	bl	__ZNSt3__16__treeINS_12__value_typeINS_12basic_stringIcNS_11char_traitsIcEENS_9allocatorIcEEEES7_EENS_19__map_value_compareIS7_S8_NS_4lessIS7_EELb1EEENS5_IS8_EEEC1ERKSC_
	ldr	x0, [sp, #8]                    ; 8-byte Folded Reload
	.loc	21 992 41                       ; /Applications/Xcode.app/Contents/Developer/Platforms/MacOSX.platform/Developer/SDKs/MacOSX13.1.sdk/usr/include/c++/v1/map:992:41
	ldp	x29, x30, [sp, #32]             ; 16-byte Folded Reload
	add	sp, sp, #48
	ret
Ltmp376:
Lfunc_end81:
	.cfi_endproc
                                        ; -- End function
	.p2align	2                               ; -- Begin function _ZNSt3__119__map_value_compareINS_12basic_stringIcNS_11char_traitsIcEENS_9allocatorIcEEEENS_12__value_typeIS6_S6_EENS_4lessIS6_EELb1EEC1ESA_
__ZNSt3__119__map_value_compareINS_12basic_stringIcNS_11char_traitsIcEENS_9allocatorIcEEEENS_12__value_typeIS6_S6_EENS_4lessIS6_EELb1EEC1ESA_: ; @_ZNSt3__119__map_value_compareINS_12basic_stringIcNS_11char_traitsIcEENS_9allocatorIcEEEENS_12__value_typeIS6_S6_EENS_4lessIS6_EELb1EEC1ESA_
Lfunc_begin82:
	.loc	21 526 0 is_stmt 1              ; /Applications/Xcode.app/Contents/Developer/Platforms/MacOSX.platform/Developer/SDKs/MacOSX13.1.sdk/usr/include/c++/v1/map:526:0
	.cfi_startproc
; %bb.0:
	sub	sp, sp, #48
	stp	x29, x30, [sp, #32]             ; 16-byte Folded Spill
	add	x29, sp, #32
	.cfi_def_cfa w29, 16
	.cfi_offset w30, -8
	.cfi_offset w29, -16
	str	x0, [sp, #16]
	ldr	x0, [sp, #16]
	str	x0, [sp, #8]                    ; 8-byte Folded Spill
Ltmp377:
	.loc	21 526 23 prologue_end          ; /Applications/Xcode.app/Contents/Developer/Platforms/MacOSX.platform/Developer/SDKs/MacOSX13.1.sdk/usr/include/c++/v1/map:526:23
	bl	__ZNSt3__119__map_value_compareINS_12basic_stringIcNS_11char_traitsIcEENS_9allocatorIcEEEENS_12__value_typeIS6_S6_EENS_4lessIS6_EELb1EEC2ESA_
	ldr	x0, [sp, #8]                    ; 8-byte Folded Reload
	.loc	21 526 24 is_stmt 0             ; /Applications/Xcode.app/Contents/Developer/Platforms/MacOSX.platform/Developer/SDKs/MacOSX13.1.sdk/usr/include/c++/v1/map:526:24
	ldp	x29, x30, [sp, #32]             ; 16-byte Folded Reload
	add	sp, sp, #48
	ret
Ltmp378:
Lfunc_end82:
	.cfi_endproc
                                        ; -- End function
	.globl	__ZNSt3__16__treeINS_12__value_typeINS_12basic_stringIcNS_11char_traitsIcEENS_9allocatorIcEEEES7_EENS_19__map_value_compareIS7_S8_NS_4lessIS7_EELb1EEENS5_IS8_EEEC1ERKSC_ ; -- Begin function _ZNSt3__16__treeINS_12__value_typeINS_12basic_stringIcNS_11char_traitsIcEENS_9allocatorIcEEEES7_EENS_19__map_value_compareIS7_S8_NS_4lessIS7_EELb1EEENS5_IS8_EEEC1ERKSC_
	.weak_def_can_be_hidden	__ZNSt3__16__treeINS_12__value_typeINS_12basic_stringIcNS_11char_traitsIcEENS_9allocatorIcEEEES7_EENS_19__map_value_compareIS7_S8_NS_4lessIS7_EELb1EEENS5_IS8_EEEC1ERKSC_
	.p2align	2
__ZNSt3__16__treeINS_12__value_typeINS_12basic_stringIcNS_11char_traitsIcEENS_9allocatorIcEEEES7_EENS_19__map_value_compareIS7_S8_NS_4lessIS7_EELb1EEENS5_IS8_EEEC1ERKSC_: ; @_ZNSt3__16__treeINS_12__value_typeINS_12basic_stringIcNS_11char_traitsIcEENS_9allocatorIcEEEES7_EENS_19__map_value_compareIS7_S8_NS_4lessIS7_EELb1EEENS5_IS8_EEEC1ERKSC_
Lfunc_begin83:
	.loc	22 1544 0 is_stmt 1             ; /Applications/Xcode.app/Contents/Developer/Platforms/MacOSX.platform/Developer/SDKs/MacOSX13.1.sdk/usr/include/c++/v1/__tree:1544:0
	.cfi_startproc
; %bb.0:
	sub	sp, sp, #48
	stp	x29, x30, [sp, #32]             ; 16-byte Folded Spill
	add	x29, sp, #32
	.cfi_def_cfa w29, 16
	.cfi_offset w30, -8
	.cfi_offset w29, -16
	stur	x0, [x29, #-8]
	str	x1, [sp, #16]
	ldur	x0, [x29, #-8]
	str	x0, [sp, #8]                    ; 8-byte Folded Spill
Ltmp379:
	.loc	22 1544 1 prologue_end          ; /Applications/Xcode.app/Contents/Developer/Platforms/MacOSX.platform/Developer/SDKs/MacOSX13.1.sdk/usr/include/c++/v1/__tree:1544:1
	ldr	x1, [sp, #16]
	bl	__ZNSt3__16__treeINS_12__value_typeINS_12basic_stringIcNS_11char_traitsIcEENS_9allocatorIcEEEES7_EENS_19__map_value_compareIS7_S8_NS_4lessIS7_EELb1EEENS5_IS8_EEEC2ERKSC_
	ldr	x0, [sp, #8]                    ; 8-byte Folded Reload
	.loc	22 1546 1                       ; /Applications/Xcode.app/Contents/Developer/Platforms/MacOSX.platform/Developer/SDKs/MacOSX13.1.sdk/usr/include/c++/v1/__tree:1546:1
	ldp	x29, x30, [sp, #32]             ; 16-byte Folded Reload
	add	sp, sp, #48
	ret
Ltmp380:
Lfunc_end83:
	.cfi_endproc
                                        ; -- End function
	.p2align	2                               ; -- Begin function _ZNSt3__119__map_value_compareINS_12basic_stringIcNS_11char_traitsIcEENS_9allocatorIcEEEENS_12__value_typeIS6_S6_EENS_4lessIS6_EELb1EEC2ESA_
__ZNSt3__119__map_value_compareINS_12basic_stringIcNS_11char_traitsIcEENS_9allocatorIcEEEENS_12__value_typeIS6_S6_EENS_4lessIS6_EELb1EEC2ESA_: ; @_ZNSt3__119__map_value_compareINS_12basic_stringIcNS_11char_traitsIcEENS_9allocatorIcEEEENS_12__value_typeIS6_S6_EENS_4lessIS6_EELb1EEC2ESA_
Lfunc_begin84:
	.loc	21 526 0                        ; /Applications/Xcode.app/Contents/Developer/Platforms/MacOSX.platform/Developer/SDKs/MacOSX13.1.sdk/usr/include/c++/v1/map:526:0
	.cfi_startproc
; %bb.0:
	sub	sp, sp, #16
	.cfi_def_cfa_offset 16
	str	x0, [sp]
	ldr	x0, [sp]
Ltmp382:
	.loc	21 526 24 prologue_end          ; /Applications/Xcode.app/Contents/Developer/Platforms/MacOSX.platform/Developer/SDKs/MacOSX13.1.sdk/usr/include/c++/v1/map:526:24
	add	sp, sp, #16
	ret
Ltmp383:
Lfunc_end84:
	.cfi_endproc
                                        ; -- End function
	.globl	__ZNSt3__16__treeINS_12__value_typeINS_12basic_stringIcNS_11char_traitsIcEENS_9allocatorIcEEEES7_EENS_19__map_value_compareIS7_S8_NS_4lessIS7_EELb1EEENS5_IS8_EEEC2ERKSC_ ; -- Begin function _ZNSt3__16__treeINS_12__value_typeINS_12basic_stringIcNS_11char_traitsIcEENS_9allocatorIcEEEES7_EENS_19__map_value_compareIS7_S8_NS_4lessIS7_EELb1EEENS5_IS8_EEEC2ERKSC_
	.weak_def_can_be_hidden	__ZNSt3__16__treeINS_12__value_typeINS_12basic_stringIcNS_11char_traitsIcEENS_9allocatorIcEEEES7_EENS_19__map_value_compareIS7_S8_NS_4lessIS7_EELb1EEENS5_IS8_EEEC2ERKSC_
	.p2align	2
__ZNSt3__16__treeINS_12__value_typeINS_12basic_stringIcNS_11char_traitsIcEENS_9allocatorIcEEEES7_EENS_19__map_value_compareIS7_S8_NS_4lessIS7_EELb1EEENS5_IS8_EEEC2ERKSC_: ; @_ZNSt3__16__treeINS_12__value_typeINS_12basic_stringIcNS_11char_traitsIcEENS_9allocatorIcEEEES7_EENS_19__map_value_compareIS7_S8_NS_4lessIS7_EELb1EEENS5_IS8_EEEC2ERKSC_
Lfunc_begin85:
	.loc	22 1544 0                       ; /Applications/Xcode.app/Contents/Developer/Platforms/MacOSX.platform/Developer/SDKs/MacOSX13.1.sdk/usr/include/c++/v1/__tree:1544:0
	.cfi_startproc
	.cfi_personality 155, ___gxx_personality_v0
	.cfi_lsda 16, Lexception11
; %bb.0:
	sub	sp, sp, #64
	stp	x29, x30, [sp, #48]             ; 16-byte Folded Spill
	add	x29, sp, #48
	.cfi_def_cfa w29, 16
	.cfi_offset w30, -8
	.cfi_offset w29, -16
	stur	x0, [x29, #-8]
	stur	x1, [x29, #-16]
	ldur	x8, [x29, #-8]
	str	x8, [sp, #16]                   ; 8-byte Folded Spill
Ltmp384:
Ltmp389:
	.loc	22 1090 14 prologue_end         ; /Applications/Xcode.app/Contents/Developer/Platforms/MacOSX.platform/Developer/SDKs/MacOSX13.1.sdk/usr/include/c++/v1/__tree:1090:14
	add	x0, x8, #8
	bl	__ZNSt3__117__compressed_pairINS_15__tree_end_nodeIPNS_16__tree_node_baseIPvEEEENS_9allocatorINS_11__tree_nodeINS_12__value_typeINS_12basic_stringIcNS_11char_traitsIcEENS7_IcEEEESE_EES3_EEEEEC1ILb1EvEEv
Ltmp385:
	b	LBB85_1
LBB85_1:
	.loc	22 0 14 is_stmt 0               ; /Applications/Xcode.app/Contents/Developer/Platforms/MacOSX.platform/Developer/SDKs/MacOSX13.1.sdk/usr/include/c++/v1/__tree:0:14
	ldr	x8, [sp, #16]                   ; 8-byte Folded Reload
	.loc	22 1543 7 is_stmt 1             ; /Applications/Xcode.app/Contents/Developer/Platforms/MacOSX.platform/Developer/SDKs/MacOSX13.1.sdk/usr/include/c++/v1/__tree:1543:7
	add	x0, x8, #16
	sub	x1, x29, #20
	.loc	22 1543 16 is_stmt 0            ; /Applications/Xcode.app/Contents/Developer/Platforms/MacOSX.platform/Developer/SDKs/MacOSX13.1.sdk/usr/include/c++/v1/__tree:1543:16
	stur	wzr, [x29, #-20]
	.loc	22 1543 19                      ; /Applications/Xcode.app/Contents/Developer/Platforms/MacOSX.platform/Developer/SDKs/MacOSX13.1.sdk/usr/include/c++/v1/__tree:1543:19
	ldur	x2, [x29, #-16]
Ltmp386:
	.loc	22 1543 7                       ; /Applications/Xcode.app/Contents/Developer/Platforms/MacOSX.platform/Developer/SDKs/MacOSX13.1.sdk/usr/include/c++/v1/__tree:1543:7
	bl	__ZNSt3__117__compressed_pairImNS_19__map_value_compareINS_12basic_stringIcNS_11char_traitsIcEENS_9allocatorIcEEEENS_12__value_typeIS7_S7_EENS_4lessIS7_EELb1EEEEC1IiRKSC_EEOT_OT0_
Ltmp387:
	b	LBB85_2
LBB85_2:
	.loc	22 0 7                          ; /Applications/Xcode.app/Contents/Developer/Platforms/MacOSX.platform/Developer/SDKs/MacOSX13.1.sdk/usr/include/c++/v1/__tree:0:7
	ldr	x0, [sp, #16]                   ; 8-byte Folded Reload
Ltmp390:
	.loc	22 1545 22 is_stmt 1            ; /Applications/Xcode.app/Contents/Developer/Platforms/MacOSX.platform/Developer/SDKs/MacOSX13.1.sdk/usr/include/c++/v1/__tree:1545:22
	bl	__ZNSt3__16__treeINS_12__value_typeINS_12basic_stringIcNS_11char_traitsIcEENS_9allocatorIcEEEES7_EENS_19__map_value_compareIS7_S8_NS_4lessIS7_EELb1EEENS5_IS8_EEE10__end_nodeEv
	mov	x1, x0
	ldr	x0, [sp, #16]                   ; 8-byte Folded Reload
	str	x1, [sp, #8]                    ; 8-byte Folded Spill
	.loc	22 1545 5 is_stmt 0             ; /Applications/Xcode.app/Contents/Developer/Platforms/MacOSX.platform/Developer/SDKs/MacOSX13.1.sdk/usr/include/c++/v1/__tree:1545:5
	bl	__ZNSt3__16__treeINS_12__value_typeINS_12basic_stringIcNS_11char_traitsIcEENS_9allocatorIcEEEES7_EENS_19__map_value_compareIS7_S8_NS_4lessIS7_EELb1EEENS5_IS8_EEE12__begin_nodeEv
	ldr	x8, [sp, #8]                    ; 8-byte Folded Reload
	mov	x9, x0
	ldr	x0, [sp, #16]                   ; 8-byte Folded Reload
	.loc	22 1545 20                      ; /Applications/Xcode.app/Contents/Developer/Platforms/MacOSX.platform/Developer/SDKs/MacOSX13.1.sdk/usr/include/c++/v1/__tree:1545:20
	str	x8, [x9]
Ltmp391:
	.loc	22 1546 1 is_stmt 1             ; /Applications/Xcode.app/Contents/Developer/Platforms/MacOSX.platform/Developer/SDKs/MacOSX13.1.sdk/usr/include/c++/v1/__tree:1546:1
	ldp	x29, x30, [sp, #48]             ; 16-byte Folded Reload
	add	sp, sp, #64
	ret
LBB85_3:
Ltmp388:
	.loc	22 1090 14                      ; /Applications/Xcode.app/Contents/Developer/Platforms/MacOSX.platform/Developer/SDKs/MacOSX13.1.sdk/usr/include/c++/v1/__tree:1090:14
	bl	___clang_call_terminate
Ltmp392:
Lfunc_end85:
	.cfi_endproc
	.section	__TEXT,__gcc_except_tab
	.p2align	2
GCC_except_table85:
Lexception11:
	.byte	255                             ; @LPStart Encoding = omit
	.byte	155                             ; @TType Encoding = indirect pcrel sdata4
	.uleb128 Lttbase5-Lttbaseref5
Lttbaseref5:
	.byte	1                               ; Call site Encoding = uleb128
	.uleb128 Lcst_end11-Lcst_begin11
Lcst_begin11:
	.uleb128 Ltmp384-Lfunc_begin85          ; >> Call Site 1 <<
	.uleb128 Ltmp387-Ltmp384                ;   Call between Ltmp384 and Ltmp387
	.uleb128 Ltmp388-Lfunc_begin85          ;     jumps to Ltmp388
	.byte	1                               ;   On action: 1
Lcst_end11:
	.byte	1                               ; >> Action Record 1 <<
                                        ;   Catch TypeInfo 1
	.byte	0                               ;   No further actions
	.p2align	2
                                        ; >> Catch TypeInfos <<
	.long	0                               ; TypeInfo 1
Lttbase5:
	.p2align	2
                                        ; -- End function
	.section	__TEXT,__text,regular,pure_instructions
	.p2align	2                               ; -- Begin function _ZNSt3__117__compressed_pairINS_15__tree_end_nodeIPNS_16__tree_node_baseIPvEEEENS_9allocatorINS_11__tree_nodeINS_12__value_typeINS_12basic_stringIcNS_11char_traitsIcEENS7_IcEEEESE_EES3_EEEEEC1ILb1EvEEv
__ZNSt3__117__compressed_pairINS_15__tree_end_nodeIPNS_16__tree_node_baseIPvEEEENS_9allocatorINS_11__tree_nodeINS_12__value_typeINS_12basic_stringIcNS_11char_traitsIcEENS7_IcEEEESE_EES3_EEEEEC1ILb1EvEEv: ; @_ZNSt3__117__compressed_pairINS_15__tree_end_nodeIPNS_16__tree_node_baseIPvEEEENS_9allocatorINS_11__tree_nodeINS_12__value_typeINS_12basic_stringIcNS_11char_traitsIcEENS7_IcEEEESE_EES3_EEEEEC1ILb1EvEEv
Lfunc_begin86:
	.loc	7 131 0                         ; /Applications/Xcode.app/Contents/Developer/Platforms/MacOSX.platform/Developer/SDKs/MacOSX13.1.sdk/usr/include/c++/v1/__memory/compressed_pair.h:131:0
	.cfi_startproc
; %bb.0:
	sub	sp, sp, #32
	stp	x29, x30, [sp, #16]             ; 16-byte Folded Spill
	add	x29, sp, #16
	.cfi_def_cfa w29, 16
	.cfi_offset w30, -8
	.cfi_offset w29, -16
	str	x0, [sp, #8]
	ldr	x0, [sp, #8]
	str	x0, [sp]                        ; 8-byte Folded Spill
Ltmp393:
	.loc	7 131 90 prologue_end           ; /Applications/Xcode.app/Contents/Developer/Platforms/MacOSX.platform/Developer/SDKs/MacOSX13.1.sdk/usr/include/c++/v1/__memory/compressed_pair.h:131:90
	bl	__ZNSt3__117__compressed_pairINS_15__tree_end_nodeIPNS_16__tree_node_baseIPvEEEENS_9allocatorINS_11__tree_nodeINS_12__value_typeINS_12basic_stringIcNS_11char_traitsIcEENS7_IcEEEESE_EES3_EEEEEC2ILb1EvEEv
	ldr	x0, [sp]                        ; 8-byte Folded Reload
	.loc	7 131 91 is_stmt 0              ; /Applications/Xcode.app/Contents/Developer/Platforms/MacOSX.platform/Developer/SDKs/MacOSX13.1.sdk/usr/include/c++/v1/__memory/compressed_pair.h:131:91
	ldp	x29, x30, [sp, #16]             ; 16-byte Folded Reload
	add	sp, sp, #32
	ret
Ltmp394:
Lfunc_end86:
	.cfi_endproc
                                        ; -- End function
	.p2align	2                               ; -- Begin function _ZNSt3__117__compressed_pairImNS_19__map_value_compareINS_12basic_stringIcNS_11char_traitsIcEENS_9allocatorIcEEEENS_12__value_typeIS7_S7_EENS_4lessIS7_EELb1EEEEC1IiRKSC_EEOT_OT0_
__ZNSt3__117__compressed_pairImNS_19__map_value_compareINS_12basic_stringIcNS_11char_traitsIcEENS_9allocatorIcEEEENS_12__value_typeIS7_S7_EENS_4lessIS7_EELb1EEEEC1IiRKSC_EEOT_OT0_: ; @_ZNSt3__117__compressed_pairImNS_19__map_value_compareINS_12basic_stringIcNS_11char_traitsIcEENS_9allocatorIcEEEENS_12__value_typeIS7_S7_EENS_4lessIS7_EELb1EEEEC1IiRKSC_EEOT_OT0_
Lfunc_begin87:
	.loc	7 136 0 is_stmt 1               ; /Applications/Xcode.app/Contents/Developer/Platforms/MacOSX.platform/Developer/SDKs/MacOSX13.1.sdk/usr/include/c++/v1/__memory/compressed_pair.h:136:0
	.cfi_startproc
; %bb.0:
	sub	sp, sp, #48
	stp	x29, x30, [sp, #32]             ; 16-byte Folded Spill
	add	x29, sp, #32
	.cfi_def_cfa w29, 16
	.cfi_offset w30, -8
	.cfi_offset w29, -16
	stur	x0, [x29, #-8]
	str	x1, [sp, #16]
	str	x2, [sp, #8]
	ldur	x0, [x29, #-8]
	str	x0, [sp]                        ; 8-byte Folded Spill
Ltmp395:
	.loc	7 136 84 prologue_end           ; /Applications/Xcode.app/Contents/Developer/Platforms/MacOSX.platform/Developer/SDKs/MacOSX13.1.sdk/usr/include/c++/v1/__memory/compressed_pair.h:136:84
	ldr	x1, [sp, #16]
	ldr	x2, [sp, #8]
	bl	__ZNSt3__117__compressed_pairImNS_19__map_value_compareINS_12basic_stringIcNS_11char_traitsIcEENS_9allocatorIcEEEENS_12__value_typeIS7_S7_EENS_4lessIS7_EELb1EEEEC2IiRKSC_EEOT_OT0_
	ldr	x0, [sp]                        ; 8-byte Folded Reload
	.loc	7 136 85 is_stmt 0              ; /Applications/Xcode.app/Contents/Developer/Platforms/MacOSX.platform/Developer/SDKs/MacOSX13.1.sdk/usr/include/c++/v1/__memory/compressed_pair.h:136:85
	ldp	x29, x30, [sp, #32]             ; 16-byte Folded Reload
	add	sp, sp, #48
	ret
Ltmp396:
Lfunc_end87:
	.cfi_endproc
                                        ; -- End function
	.p2align	2                               ; -- Begin function _ZNSt3__16__treeINS_12__value_typeINS_12basic_stringIcNS_11char_traitsIcEENS_9allocatorIcEEEES7_EENS_19__map_value_compareIS7_S8_NS_4lessIS7_EELb1EEENS5_IS8_EEE10__end_nodeEv
__ZNSt3__16__treeINS_12__value_typeINS_12basic_stringIcNS_11char_traitsIcEENS_9allocatorIcEEEES7_EENS_19__map_value_compareIS7_S8_NS_4lessIS7_EELb1EEENS5_IS8_EEE10__end_nodeEv: ; @_ZNSt3__16__treeINS_12__value_typeINS_12basic_stringIcNS_11char_traitsIcEENS_9allocatorIcEEEES7_EENS_19__map_value_compareIS7_S8_NS_4lessIS7_EELb1EEENS5_IS8_EEE10__end_nodeEv
Lfunc_begin88:
	.loc	22 1038 0 is_stmt 1             ; /Applications/Xcode.app/Contents/Developer/Platforms/MacOSX.platform/Developer/SDKs/MacOSX13.1.sdk/usr/include/c++/v1/__tree:1038:0
	.cfi_startproc
; %bb.0:
	sub	sp, sp, #32
	stp	x29, x30, [sp, #16]             ; 16-byte Folded Spill
	add	x29, sp, #16
	.cfi_def_cfa w29, 16
	.cfi_offset w30, -8
	.cfi_offset w29, -16
	str	x0, [sp, #8]
	ldr	x8, [sp, #8]
Ltmp397:
	.loc	22 1040 60 prologue_end         ; /Applications/Xcode.app/Contents/Developer/Platforms/MacOSX.platform/Developer/SDKs/MacOSX13.1.sdk/usr/include/c++/v1/__tree:1040:60
	add	x0, x8, #8
	.loc	22 1040 69 is_stmt 0            ; /Applications/Xcode.app/Contents/Developer/Platforms/MacOSX.platform/Developer/SDKs/MacOSX13.1.sdk/usr/include/c++/v1/__tree:1040:69
	bl	__ZNSt3__117__compressed_pairINS_15__tree_end_nodeIPNS_16__tree_node_baseIPvEEEENS_9allocatorINS_11__tree_nodeINS_12__value_typeINS_12basic_stringIcNS_11char_traitsIcEENS7_IcEEEESE_EES3_EEEEE5firstEv
	.loc	22 1040 17                      ; /Applications/Xcode.app/Contents/Developer/Platforms/MacOSX.platform/Developer/SDKs/MacOSX13.1.sdk/usr/include/c++/v1/__tree:1040:17
	bl	__ZNSt3__114pointer_traitsIPNS_15__tree_end_nodeIPNS_16__tree_node_baseIPvEEEEE10pointer_toERS6_
	.loc	22 1039 9 is_stmt 1             ; /Applications/Xcode.app/Contents/Developer/Platforms/MacOSX.platform/Developer/SDKs/MacOSX13.1.sdk/usr/include/c++/v1/__tree:1039:9
	ldp	x29, x30, [sp, #16]             ; 16-byte Folded Reload
	add	sp, sp, #32
	ret
Ltmp398:
Lfunc_end88:
	.cfi_endproc
                                        ; -- End function
	.p2align	2                               ; -- Begin function _ZNSt3__16__treeINS_12__value_typeINS_12basic_stringIcNS_11char_traitsIcEENS_9allocatorIcEEEES7_EENS_19__map_value_compareIS7_S8_NS_4lessIS7_EELb1EEENS5_IS8_EEE12__begin_nodeEv
__ZNSt3__16__treeINS_12__value_typeINS_12basic_stringIcNS_11char_traitsIcEENS_9allocatorIcEEEES7_EENS_19__map_value_compareIS7_S8_NS_4lessIS7_EELb1EEENS5_IS8_EEE12__begin_nodeEv: ; @_ZNSt3__16__treeINS_12__value_typeINS_12basic_stringIcNS_11char_traitsIcEENS_9allocatorIcEEEES7_EENS_19__map_value_compareIS7_S8_NS_4lessIS7_EELb1EEENS5_IS8_EEE12__begin_nodeEv
Lfunc_begin89:
	.loc	22 1059 0                       ; /Applications/Xcode.app/Contents/Developer/Platforms/MacOSX.platform/Developer/SDKs/MacOSX13.1.sdk/usr/include/c++/v1/__tree:1059:0
	.cfi_startproc
; %bb.0:
	sub	sp, sp, #16
	.cfi_def_cfa_offset 16
	str	x0, [sp, #8]
	ldr	x0, [sp, #8]
Ltmp400:
	.loc	22 1059 52 prologue_end         ; /Applications/Xcode.app/Contents/Developer/Platforms/MacOSX.platform/Developer/SDKs/MacOSX13.1.sdk/usr/include/c++/v1/__tree:1059:52
	add	sp, sp, #16
	ret
Ltmp401:
Lfunc_end89:
	.cfi_endproc
                                        ; -- End function
	.p2align	2                               ; -- Begin function _ZNSt3__117__compressed_pairINS_15__tree_end_nodeIPNS_16__tree_node_baseIPvEEEENS_9allocatorINS_11__tree_nodeINS_12__value_typeINS_12basic_stringIcNS_11char_traitsIcEENS7_IcEEEESE_EES3_EEEEEC2ILb1EvEEv
