	.section	__TEXT,__text,regular,pure_instructions
	.build_version macos, 13, 0	sdk_version 13, 1
	.file	1 "/Users/xieyao/Desktop/git/C-/mac/myproject" "external/subprocess/subprocess/basic_types.hpp"
	.file	2 "/Applications/Xcode.app/Contents/Developer/Platforms/MacOSX.platform/Developer/SDKs/MacOSX13.1.sdk/usr/include/c++/v1" "__string"
	.file	3 "/Applications/Xcode.app/Contents/Developer/Platforms/MacOSX.platform/Developer/SDKs/MacOSX13.1.sdk/usr/include/arm" "_types.h"
	.file	4 "/Applications/Xcode.app/Contents/Developer/Platforms/MacOSX.platform/Developer/SDKs/MacOSX13.1.sdk/usr/include/sys/_types" "_size_t.h"
	.file	5 "/Applications/Xcode.app/Contents/Developer/Platforms/MacOSX.platform/Developer/SDKs/MacOSX13.1.sdk/usr/include/c++/v1/__memory" "allocator.h"
	.file	6 "/Applications/Xcode.app/Contents/Developer/Platforms/MacOSX.platform/Developer/SDKs/MacOSX13.1.sdk/usr/include/c++/v1" "string"
	.file	7 "/Applications/Xcode.app/Contents/Developer/Platforms/MacOSX.platform/Developer/SDKs/MacOSX13.1.sdk/usr/include/c++/v1/__memory" "allocator_traits.h"
	.file	8 "/Applications/Xcode.app/Contents/Developer/Platforms/MacOSX.platform/Developer/SDKs/MacOSX13.1.sdk/usr/include/c++/v1/__memory" "compressed_pair.h"
	.file	9 "/Applications/Xcode.app/Contents/Developer/Platforms/MacOSX.platform/Developer/SDKs/MacOSX13.1.sdk/usr/include/c++/v1" "initializer_list"
	.file	10 "/Applications/Xcode.app/Contents/Developer/Platforms/MacOSX.platform/Developer/SDKs/MacOSX13.1.sdk/usr/include/c++/v1" "string_view"
	.file	11 "/Applications/Xcode.app/Contents/Developer/Platforms/MacOSX.platform/Developer/SDKs/MacOSX13.1.sdk/usr/include/c++/v1/__iterator" "wrap_iter.h"
	.file	12 "/Applications/Xcode.app/Contents/Developer/Platforms/MacOSX.platform/Developer/SDKs/MacOSX13.1.sdk/usr/include/c++/v1/__iterator" "iterator_traits.h"
	.file	13 "/Applications/Xcode.app/Contents/Developer/Toolchains/XcodeDefault.xctoolchain/usr/lib/clang/14.0.0/include" "stddef.h"
	.file	14 "/Applications/Xcode.app/Contents/Developer/Platforms/MacOSX.platform/Developer/SDKs/MacOSX13.1.sdk/usr/include/c++/v1" "type_traits"
	.file	15 "/Applications/Xcode.app/Contents/Developer/Platforms/MacOSX.platform/Developer/SDKs/MacOSX13.1.sdk/usr/include/c++/v1" "new"
	.file	16 "/Applications/Xcode.app/Contents/Developer/Platforms/MacOSX.platform/Developer/SDKs/MacOSX13.1.sdk/usr/include/c++/v1" "limits"
	.file	17 "/Applications/Xcode.app/Contents/Developer/Platforms/MacOSX.platform/Developer/SDKs/MacOSX13.1.sdk/usr/include/c++/v1" "exception"
	.file	18 "/Applications/Xcode.app/Contents/Developer/Platforms/MacOSX.platform/Developer/SDKs/MacOSX13.1.sdk/usr/include/c++/v1" "stdexcept"
	.file	19 "/Applications/Xcode.app/Contents/Developer/Platforms/MacOSX.platform/Developer/SDKs/MacOSX13.1.sdk/usr/include/c++/v1" "iosfwd"
	.file	20 "/Applications/Xcode.app/Contents/Developer/Platforms/MacOSX.platform/Developer/SDKs/MacOSX13.1.sdk/usr/include/c++/v1" "thread"
	.file	21 "/Applications/Xcode.app/Contents/Developer/Platforms/MacOSX.platform/Developer/SDKs/MacOSX13.1.sdk/usr/include/sys/_pthread" "_pthread_types.h"
	.file	22 "/Applications/Xcode.app/Contents/Developer/Platforms/MacOSX.platform/Developer/SDKs/MacOSX13.1.sdk/usr/include/sys/_pthread" "_pthread_cond_t.h"
	.file	23 "/Applications/Xcode.app/Contents/Developer/Platforms/MacOSX.platform/Developer/SDKs/MacOSX13.1.sdk/usr/include/c++/v1" "__threading_support"
	.file	24 "/Applications/Xcode.app/Contents/Developer/Platforms/MacOSX.platform/Developer/SDKs/MacOSX13.1.sdk/usr/include/c++/v1" "__mutex_base"
	.file	25 "/Applications/Xcode.app/Contents/Developer/Platforms/MacOSX.platform/Developer/SDKs/MacOSX13.1.sdk/usr/include/sys/_pthread" "_pthread_mutex_t.h"
	.file	26 "/Applications/Xcode.app/Contents/Developer/Platforms/MacOSX.platform/Developer/SDKs/MacOSX13.1.sdk/usr/include/c++/v1" "chrono"
	.file	27 "/Applications/Xcode.app/Contents/Developer/Platforms/MacOSX.platform/Developer/SDKs/MacOSX13.1.sdk/usr/include/_types" "_intmax_t.h"
	.file	28 "/Applications/Xcode.app/Contents/Developer/Platforms/MacOSX.platform/Developer/SDKs/MacOSX13.1.sdk/usr/include/c++/v1" "ratio"
	.file	29 "/Applications/Xcode.app/Contents/Developer/Platforms/MacOSX.platform/Developer/SDKs/MacOSX13.1.sdk/usr/include/sys/_types" "_time_t.h"
	.file	30 "/Applications/Xcode.app/Contents/Developer/Platforms/MacOSX.platform/Developer/SDKs/MacOSX13.1.sdk/usr/include/c++/v1/__memory" "unique_ptr.h"
	.file	31 "/Applications/Xcode.app/Contents/Developer/Platforms/MacOSX.platform/Developer/SDKs/MacOSX13.1.sdk/usr/include/c++/v1" "__nullptr"
	.file	32 "/Users/xieyao/Desktop/git/C-/mac/myproject" "external/subprocess/subprocess/pipe.cpp"
	.file	33 "/Applications/Xcode.app/Contents/Developer/Platforms/MacOSX.platform/Developer/SDKs/MacOSX13.1.sdk/usr/include/c++/v1" "__tuple"
	.file	34 "/Applications/Xcode.app/Contents/Developer/Platforms/MacOSX.platform/Developer/SDKs/MacOSX13.1.sdk/usr/include/c++/v1" "tuple"
	.file	35 "/Applications/Xcode.app/Contents/Developer/Platforms/MacOSX.platform/Developer/SDKs/MacOSX13.1.sdk/usr/include/c++/v1" "vector"
	.file	36 "/Applications/Xcode.app/Contents/Developer/Platforms/MacOSX.platform/Developer/SDKs/MacOSX13.1.sdk/usr/include/c++/v1" "stddef.h"
	.file	37 "/Applications/Xcode.app/Contents/Developer/Platforms/MacOSX.platform/Developer/SDKs/MacOSX13.1.sdk/usr/include/sys/_types" "_mbstate_t.h"
	.file	38 "/Applications/Xcode.app/Contents/Developer/Platforms/MacOSX.platform/Developer/SDKs/MacOSX13.1.sdk/usr/include/c++/v1" "__mbstate_t.h"
	.file	39 "/Applications/Xcode.app/Contents/Developer/Platforms/MacOSX.platform/Developer/SDKs/MacOSX13.1.sdk/usr/include/c++/v1" "cstddef"
	.file	40 "/Applications/Xcode.app/Contents/Developer/Toolchains/XcodeDefault.xctoolchain/usr/lib/clang/14.0.0/include" "__stddef_max_align_t.h"
	.file	41 "/Applications/Xcode.app/Contents/Developer/Platforms/MacOSX.platform/Developer/SDKs/MacOSX13.1.sdk/usr/include/c++/v1" "cstdlib"
	.file	42 "/Applications/Xcode.app/Contents/Developer/Platforms/MacOSX.platform/Developer/SDKs/MacOSX13.1.sdk/usr/include" "stdlib.h"
	.file	43 "/Applications/Xcode.app/Contents/Developer/Platforms/MacOSX.platform/Developer/SDKs/MacOSX13.1.sdk/usr/include/malloc" "_malloc.h"
	.file	44 "/Applications/Xcode.app/Contents/Developer/Platforms/MacOSX.platform/Developer/SDKs/MacOSX13.1.sdk/usr/include/c++/v1" "stdlib.h"
	.file	45 "/Applications/Xcode.app/Contents/Developer/Platforms/MacOSX.platform/Developer/SDKs/MacOSX13.1.sdk/usr/include/sys/_types" "_int8_t.h"
	.file	46 "/Applications/Xcode.app/Contents/Developer/Platforms/MacOSX.platform/Developer/SDKs/MacOSX13.1.sdk/usr/include/c++/v1" "cstdint"
	.file	47 "/Applications/Xcode.app/Contents/Developer/Platforms/MacOSX.platform/Developer/SDKs/MacOSX13.1.sdk/usr/include/sys/_types" "_int16_t.h"
	.file	48 "/Applications/Xcode.app/Contents/Developer/Platforms/MacOSX.platform/Developer/SDKs/MacOSX13.1.sdk/usr/include/sys/_types" "_int32_t.h"
	.file	49 "/Applications/Xcode.app/Contents/Developer/Platforms/MacOSX.platform/Developer/SDKs/MacOSX13.1.sdk/usr/include/sys/_types" "_int64_t.h"
	.file	50 "/Applications/Xcode.app/Contents/Developer/Platforms/MacOSX.platform/Developer/SDKs/MacOSX13.1.sdk/usr/include/_types" "_uint8_t.h"
	.file	51 "/Applications/Xcode.app/Contents/Developer/Platforms/MacOSX.platform/Developer/SDKs/MacOSX13.1.sdk/usr/include/_types" "_uint16_t.h"
	.file	52 "/Applications/Xcode.app/Contents/Developer/Platforms/MacOSX.platform/Developer/SDKs/MacOSX13.1.sdk/usr/include/_types" "_uint32_t.h"
	.file	53 "/Applications/Xcode.app/Contents/Developer/Platforms/MacOSX.platform/Developer/SDKs/MacOSX13.1.sdk/usr/include/_types" "_uint64_t.h"
	.file	54 "/Applications/Xcode.app/Contents/Developer/Platforms/MacOSX.platform/Developer/SDKs/MacOSX13.1.sdk/usr/include" "stdint.h"
	.file	55 "/Applications/Xcode.app/Contents/Developer/Platforms/MacOSX.platform/Developer/SDKs/MacOSX13.1.sdk/usr/include/sys/_types" "_intptr_t.h"
	.file	56 "/Applications/Xcode.app/Contents/Developer/Platforms/MacOSX.platform/Developer/SDKs/MacOSX13.1.sdk/usr/include/sys/_types" "_uintptr_t.h"
	.file	57 "/Applications/Xcode.app/Contents/Developer/Platforms/MacOSX.platform/Developer/SDKs/MacOSX13.1.sdk/usr/include/_types" "_uintmax_t.h"
	.file	58 "/Applications/Xcode.app/Contents/Developer/Platforms/MacOSX.platform/Developer/SDKs/MacOSX13.1.sdk/usr/include/c++/v1" "cstring"
	.file	59 "/Applications/Xcode.app/Contents/Developer/Platforms/MacOSX.platform/Developer/SDKs/MacOSX13.1.sdk/usr/include" "string.h"
	.file	60 "/Applications/Xcode.app/Contents/Developer/Platforms/MacOSX.platform/Developer/SDKs/MacOSX13.1.sdk/usr/include/c++/v1" "string.h"
	.file	61 "/Applications/Xcode.app/Contents/Developer/Platforms/MacOSX.platform/Developer/SDKs/MacOSX13.1.sdk/usr/include/sys/_types" "_clock_t.h"
	.file	62 "/Applications/Xcode.app/Contents/Developer/Platforms/MacOSX.platform/Developer/SDKs/MacOSX13.1.sdk/usr/include/c++/v1" "ctime"
	.file	63 "/Applications/Xcode.app/Contents/Developer/Platforms/MacOSX.platform/Developer/SDKs/MacOSX13.1.sdk/usr/include" "time.h"
	.file	64 "/Applications/Xcode.app/Contents/Developer/Platforms/MacOSX.platform/Developer/SDKs/MacOSX13.1.sdk/usr/include/sys/_types" "_timespec.h"
	.file	65 "/Applications/Xcode.app/Contents/Developer/Platforms/MacOSX.platform/Developer/SDKs/MacOSX13.1.sdk/usr/include" "_stdio.h"
	.file	66 "/Applications/Xcode.app/Contents/Developer/Platforms/MacOSX.platform/Developer/SDKs/MacOSX13.1.sdk/usr/include/sys" "_types.h"
	.file	67 "/Applications/Xcode.app/Contents/Developer/Platforms/MacOSX.platform/Developer/SDKs/MacOSX13.1.sdk/usr/include/c++/v1" "cstdio"
	.file	68 "/Applications/Xcode.app/Contents/Developer/Platforms/MacOSX.platform/Developer/SDKs/MacOSX13.1.sdk/usr/include" "stdio.h"
	.file	69 "/Applications/Xcode.app/Contents/Developer/Platforms/MacOSX.platform/Developer/SDKs/MacOSX13.1.sdk/usr/include/sys/_types" "_va_list.h"
	.file	70 "/Applications/Xcode.app/Contents/Developer/Platforms/MacOSX.platform/Developer/SDKs/MacOSX13.1.sdk/usr/include" "_ctype.h"
	.file	71 "/Applications/Xcode.app/Contents/Developer/Platforms/MacOSX.platform/Developer/SDKs/MacOSX13.1.sdk/usr/include/c++/v1" "cctype"
	.file	72 "/Applications/Xcode.app/Contents/Developer/Platforms/MacOSX.platform/Developer/SDKs/MacOSX13.1.sdk/usr/include/sys/_types" "_wint_t.h"
	.file	73 "/Applications/Xcode.app/Contents/Developer/Platforms/MacOSX.platform/Developer/SDKs/MacOSX13.1.sdk/usr/include/c++/v1" "cwctype"
	.file	74 "/Applications/Xcode.app/Contents/Developer/Platforms/MacOSX.platform/Developer/SDKs/MacOSX13.1.sdk/usr/include" "_types.h"
	.file	75 "/Applications/Xcode.app/Contents/Developer/Platforms/MacOSX.platform/Developer/SDKs/MacOSX13.1.sdk/usr/include/_types" "_wctrans_t.h"
	.file	76 "/Applications/Xcode.app/Contents/Developer/Platforms/MacOSX.platform/Developer/SDKs/MacOSX13.1.sdk/usr/include/_types" "_wctype_t.h"
	.file	77 "/Applications/Xcode.app/Contents/Developer/Platforms/MacOSX.platform/Developer/SDKs/MacOSX13.1.sdk/usr/include" "_wctype.h"
	.file	78 "/Applications/Xcode.app/Contents/Developer/Platforms/MacOSX.platform/Developer/SDKs/MacOSX13.1.sdk/usr/include" "wctype.h"
	.file	79 "/Applications/Xcode.app/Contents/Developer/Platforms/MacOSX.platform/Developer/SDKs/MacOSX13.1.sdk/usr/include/c++/v1" "cwchar"
	.file	80 "/Applications/Xcode.app/Contents/Developer/Platforms/MacOSX.platform/Developer/SDKs/MacOSX13.1.sdk/usr/include" "wchar.h"
	.file	81 "/Applications/Xcode.app/Contents/Developer/Platforms/MacOSX.platform/Developer/SDKs/MacOSX13.1.sdk/usr/include/c++/v1" "wchar.h"
	.file	82 "/Applications/Xcode.app/Contents/Developer/Platforms/MacOSX.platform/Developer/SDKs/MacOSX13.1.sdk/usr/include/arm" "signal.h"
	.file	83 "/Applications/Xcode.app/Contents/Developer/Platforms/MacOSX.platform/Developer/SDKs/MacOSX13.1.sdk/usr/include/c++/v1" "csignal"
	.file	84 "/Applications/Xcode.app/Contents/Developer/Platforms/MacOSX.platform/Developer/SDKs/MacOSX13.1.sdk/usr/include/sys" "signal.h"
	.file	85 "/Applications/Xcode.app/Contents/Developer/Platforms/MacOSX.platform/Developer/SDKs/MacOSX13.1.sdk/usr/include" "signal.h"
	.globl	__ZN10subprocess8PipePairaSEOS0_ ; -- Begin function _ZN10subprocess8PipePairaSEOS0_
	.p2align	2
__ZN10subprocess8PipePairaSEOS0_:       ; @_ZN10subprocess8PipePairaSEOS0_
Lfunc_begin0:
	.loc	32 13 0                         ; external/subprocess/subprocess/pipe.cpp:13:0
	.cfi_startproc
; %bb.0:
	sub	sp, sp, #48
	stp	x29, x30, [sp, #32]             ; 16-byte Folded Spill
	add	x29, sp, #32
	.cfi_def_cfa w29, 16
	.cfi_offset w30, -8
	.cfi_offset w29, -16
	stur	x0, [x29, #-8]
	str	x1, [sp, #16]
	ldur	x0, [x29, #-8]
	str	x0, [sp, #8]                    ; 8-byte Folded Spill
Ltmp0:
	.loc	32 14 9 prologue_end            ; external/subprocess/subprocess/pipe.cpp:14:9
	bl	__ZN10subprocess8PipePair5closeEv
	ldr	x9, [sp, #8]                    ; 8-byte Folded Reload
	.loc	32 15 42                        ; external/subprocess/subprocess/pipe.cpp:15:42
	ldr	x8, [sp, #16]
	.loc	32 15 48 is_stmt 0              ; external/subprocess/subprocess/pipe.cpp:15:48
	ldr	w8, [x8]
	.loc	32 15 40                        ; external/subprocess/subprocess/pipe.cpp:15:40
	str	w8, [x9]
	.loc	32 16 43 is_stmt 1              ; external/subprocess/subprocess/pipe.cpp:16:43
	ldr	x8, [sp, #16]
	.loc	32 16 49 is_stmt 0              ; external/subprocess/subprocess/pipe.cpp:16:49
	ldr	w8, [x8, #4]
	.loc	32 16 41                        ; external/subprocess/subprocess/pipe.cpp:16:41
	str	w8, [x9, #4]
	.loc	32 17 9 is_stmt 1               ; external/subprocess/subprocess/pipe.cpp:17:9
	ldr	x0, [sp, #16]
	.loc	32 17 15 is_stmt 0              ; external/subprocess/subprocess/pipe.cpp:17:15
	bl	__ZN10subprocess8PipePair6disownEv
	ldr	x0, [sp, #8]                    ; 8-byte Folded Reload
	.loc	32 18 9 is_stmt 1               ; external/subprocess/subprocess/pipe.cpp:18:9
	ldp	x29, x30, [sp, #32]             ; 16-byte Folded Reload
	add	sp, sp, #48
	ret
Ltmp1:
Lfunc_end0:
	.cfi_endproc
	.file	86 "/Users/xieyao/Desktop/git/C-/mac/myproject" "external/subprocess/subprocess/pipe.hpp"
                                        ; -- End function
	.globl	__ZN10subprocess8PipePair5closeEv ; -- Begin function _ZN10subprocess8PipePair5closeEv
	.p2align	2
__ZN10subprocess8PipePair5closeEv:      ; @_ZN10subprocess8PipePair5closeEv
Lfunc_begin1:
	.loc	32 20 0                         ; external/subprocess/subprocess/pipe.cpp:20:0
	.cfi_startproc
; %bb.0:
	sub	sp, sp, #32
	stp	x29, x30, [sp, #16]             ; 16-byte Folded Spill
	add	x29, sp, #16
	.cfi_def_cfa w29, 16
	.cfi_offset w30, -8
	.cfi_offset w29, -16
	str	x0, [sp, #8]
	ldr	x8, [sp, #8]
	str	x8, [sp]                        ; 8-byte Folded Spill
Ltmp2:
	.loc	32 21 13 prologue_end           ; external/subprocess/subprocess/pipe.cpp:21:13
	ldr	w8, [x8]
Ltmp3:
	.loc	32 21 13 is_stmt 0              ; external/subprocess/subprocess/pipe.cpp:21:13
	adds	w8, w8, #1
	b.eq	LBB1_2
	b	LBB1_1
LBB1_1:
	.loc	32 0 13                         ; external/subprocess/subprocess/pipe.cpp:0:13
	ldr	x8, [sp]                        ; 8-byte Folded Reload
Ltmp4:
	.loc	32 22 24 is_stmt 1              ; external/subprocess/subprocess/pipe.cpp:22:24
	ldr	w0, [x8]
	.loc	32 22 13 is_stmt 0              ; external/subprocess/subprocess/pipe.cpp:22:13
	bl	__ZN10subprocess10pipe_closeEi
	b	LBB1_2
Ltmp5:
LBB1_2:
	.loc	32 0 13                         ; external/subprocess/subprocess/pipe.cpp:0:13
	ldr	x8, [sp]                        ; 8-byte Folded Reload
Ltmp6:
	.loc	32 23 13 is_stmt 1              ; external/subprocess/subprocess/pipe.cpp:23:13
	ldr	w8, [x8, #4]
Ltmp7:
	.loc	32 23 13 is_stmt 0              ; external/subprocess/subprocess/pipe.cpp:23:13
	adds	w8, w8, #1
	b.eq	LBB1_4
	b	LBB1_3
LBB1_3:
	.loc	32 0 13                         ; external/subprocess/subprocess/pipe.cpp:0:13
	ldr	x8, [sp]                        ; 8-byte Folded Reload
Ltmp8:
	.loc	32 24 24 is_stmt 1              ; external/subprocess/subprocess/pipe.cpp:24:24
	ldr	w0, [x8, #4]
	.loc	32 24 13 is_stmt 0              ; external/subprocess/subprocess/pipe.cpp:24:13
	bl	__ZN10subprocess10pipe_closeEi
	b	LBB1_4
Ltmp9:
LBB1_4:
	.loc	32 0 13                         ; external/subprocess/subprocess/pipe.cpp:0:13
	ldr	x0, [sp]                        ; 8-byte Folded Reload
	.loc	32 25 9 is_stmt 1               ; external/subprocess/subprocess/pipe.cpp:25:9
	bl	__ZN10subprocess8PipePair6disownEv
	.loc	32 26 5                         ; external/subprocess/subprocess/pipe.cpp:26:5
	ldp	x29, x30, [sp, #16]             ; 16-byte Folded Reload
	add	sp, sp, #32
	ret
Ltmp10:
Lfunc_end1:
	.cfi_endproc
                                        ; -- End function
	.globl	__ZN10subprocess8PipePair6disownEv ; -- Begin function _ZN10subprocess8PipePair6disownEv
	.weak_definition	__ZN10subprocess8PipePair6disownEv
	.p2align	2
__ZN10subprocess8PipePair6disownEv:     ; @_ZN10subprocess8PipePair6disownEv
Lfunc_begin2:
	.loc	86 29 0                         ; external/subprocess/subprocess/pipe.hpp:29:0
	.cfi_startproc
; %bb.0:
	sub	sp, sp, #16
	.cfi_def_cfa_offset 16
	str	x0, [sp, #8]
	ldr	x9, [sp, #8]
	mov	w8, #-1
Ltmp12:
	.loc	86 30 78 prologue_end           ; external/subprocess/subprocess/pipe.hpp:30:78
	str	w8, [x9, #4]
	.loc	86 30 44 is_stmt 0              ; external/subprocess/subprocess/pipe.hpp:30:44
	str	w8, [x9]
	.loc	86 31 9 is_stmt 1               ; external/subprocess/subprocess/pipe.hpp:31:9
	add	sp, sp, #16
	ret
Ltmp13:
Lfunc_end2:
	.cfi_endproc
                                        ; -- End function
	.globl	__ZN10subprocess10pipe_closeEi  ; -- Begin function _ZN10subprocess10pipe_closeEi
	.p2align	2
__ZN10subprocess10pipe_closeEi:         ; @_ZN10subprocess10pipe_closeEi
Lfunc_begin3:
	.loc	32 95 0                         ; external/subprocess/subprocess/pipe.cpp:95:0
	.cfi_startproc
; %bb.0:
	sub	sp, sp, #32
	stp	x29, x30, [sp, #16]             ; 16-byte Folded Spill
	add	x29, sp, #16
	.cfi_def_cfa w29, 16
	.cfi_offset w30, -8
	.cfi_offset w29, -16
	str	w0, [sp, #8]
Ltmp14:
	.loc	32 96 13 prologue_end           ; external/subprocess/subprocess/pipe.cpp:96:13
	ldr	w8, [sp, #8]
Ltmp15:
	.loc	32 96 13 is_stmt 0              ; external/subprocess/subprocess/pipe.cpp:96:13
	adds	w8, w8, #1
	b.ne	LBB3_2
	b	LBB3_1
LBB3_1:
	.loc	32 0 13                         ; external/subprocess/subprocess/pipe.cpp:0:13
	mov	w8, #0
Ltmp16:
	.loc	32 97 13 is_stmt 1              ; external/subprocess/subprocess/pipe.cpp:97:13
	and	w8, w8, #0x1
	and	w8, w8, #0x1
	sturb	w8, [x29, #-1]
	b	LBB3_3
Ltmp17:
LBB3_2:
	.loc	32 98 24                        ; external/subprocess/subprocess/pipe.cpp:98:24
	ldr	w0, [sp, #8]
	.loc	32 98 16 is_stmt 0              ; external/subprocess/subprocess/pipe.cpp:98:16
	bl	_close
	.loc	32 98 32                        ; external/subprocess/subprocess/pipe.cpp:98:32
	subs	w8, w0, #0
	cset	w8, eq
	.loc	32 98 9                         ; external/subprocess/subprocess/pipe.cpp:98:9
	and	w8, w8, #0x1
	and	w8, w8, #0x1
	sturb	w8, [x29, #-1]
	b	LBB3_3
LBB3_3:
	.loc	32 99 5 is_stmt 1               ; external/subprocess/subprocess/pipe.cpp:99:5
	ldurb	w8, [x29, #-1]
	and	w0, w8, #0x1
	ldp	x29, x30, [sp, #16]             ; 16-byte Folded Reload
	add	sp, sp, #32
	ret
Ltmp18:
Lfunc_end3:
	.cfi_endproc
                                        ; -- End function
	.globl	__ZN10subprocess8PipePair11close_inputEv ; -- Begin function _ZN10subprocess8PipePair11close_inputEv
	.p2align	2
__ZN10subprocess8PipePair11close_inputEv: ; @_ZN10subprocess8PipePair11close_inputEv
Lfunc_begin4:
	.loc	32 27 0                         ; external/subprocess/subprocess/pipe.cpp:27:0
	.cfi_startproc
; %bb.0:
	sub	sp, sp, #32
	stp	x29, x30, [sp, #16]             ; 16-byte Folded Spill
	add	x29, sp, #16
	.cfi_def_cfa w29, 16
	.cfi_offset w30, -8
	.cfi_offset w29, -16
	str	x0, [sp, #8]
	ldr	x8, [sp, #8]
	str	x8, [sp]                        ; 8-byte Folded Spill
Ltmp19:
	.loc	32 28 13 prologue_end           ; external/subprocess/subprocess/pipe.cpp:28:13
	ldr	w8, [x8]
Ltmp20:
	.loc	32 28 13 is_stmt 0              ; external/subprocess/subprocess/pipe.cpp:28:13
	adds	w8, w8, #1
	b.eq	LBB4_2
	b	LBB4_1
LBB4_1:
	.loc	32 0 13                         ; external/subprocess/subprocess/pipe.cpp:0:13
	ldr	x8, [sp]                        ; 8-byte Folded Reload
Ltmp21:
	.loc	32 29 24 is_stmt 1              ; external/subprocess/subprocess/pipe.cpp:29:24
	ldr	w0, [x8]
	.loc	32 29 13 is_stmt 0              ; external/subprocess/subprocess/pipe.cpp:29:13
	bl	__ZN10subprocess10pipe_closeEi
	ldr	x9, [sp]                        ; 8-byte Folded Reload
	mov	w8, #-1
	.loc	32 30 44 is_stmt 1              ; external/subprocess/subprocess/pipe.cpp:30:44
	str	w8, [x9]
	.loc	32 31 9                         ; external/subprocess/subprocess/pipe.cpp:31:9
	b	LBB4_2
Ltmp22:
LBB4_2:
	.loc	32 32 5                         ; external/subprocess/subprocess/pipe.cpp:32:5
	ldp	x29, x30, [sp, #16]             ; 16-byte Folded Reload
	add	sp, sp, #32
	ret
Ltmp23:
Lfunc_end4:
	.cfi_endproc
                                        ; -- End function
	.globl	__ZN10subprocess8PipePair12close_outputEv ; -- Begin function _ZN10subprocess8PipePair12close_outputEv
	.p2align	2
__ZN10subprocess8PipePair12close_outputEv: ; @_ZN10subprocess8PipePair12close_outputEv
Lfunc_begin5:
	.loc	32 33 0                         ; external/subprocess/subprocess/pipe.cpp:33:0
	.cfi_startproc
; %bb.0:
	sub	sp, sp, #32
	stp	x29, x30, [sp, #16]             ; 16-byte Folded Spill
	add	x29, sp, #16
	.cfi_def_cfa w29, 16
	.cfi_offset w30, -8
	.cfi_offset w29, -16
	str	x0, [sp, #8]
	ldr	x8, [sp, #8]
	str	x8, [sp]                        ; 8-byte Folded Spill
Ltmp24:
	.loc	32 34 13 prologue_end           ; external/subprocess/subprocess/pipe.cpp:34:13
	ldr	w8, [x8, #4]
Ltmp25:
	.loc	32 34 13 is_stmt 0              ; external/subprocess/subprocess/pipe.cpp:34:13
	adds	w8, w8, #1
	b.eq	LBB5_2
	b	LBB5_1
LBB5_1:
	.loc	32 0 13                         ; external/subprocess/subprocess/pipe.cpp:0:13
	ldr	x8, [sp]                        ; 8-byte Folded Reload
Ltmp26:
	.loc	32 35 24 is_stmt 1              ; external/subprocess/subprocess/pipe.cpp:35:24
	ldr	w0, [x8, #4]
	.loc	32 35 13 is_stmt 0              ; external/subprocess/subprocess/pipe.cpp:35:13
	bl	__ZN10subprocess10pipe_closeEi
	ldr	x9, [sp]                        ; 8-byte Folded Reload
	mov	w8, #-1
	.loc	32 36 45 is_stmt 1              ; external/subprocess/subprocess/pipe.cpp:36:45
	str	w8, [x9, #4]
	.loc	32 37 9                         ; external/subprocess/subprocess/pipe.cpp:37:9
	b	LBB5_2
Ltmp27:
LBB5_2:
	.loc	32 38 5                         ; external/subprocess/subprocess/pipe.cpp:38:5
	ldp	x29, x30, [sp, #16]             ; 16-byte Folded Reload
	add	sp, sp, #32
	ret
Ltmp28:
Lfunc_end5:
	.cfi_endproc
                                        ; -- End function
	.globl	__ZN10subprocess20pipe_set_inheritableEib ; -- Begin function _ZN10subprocess20pipe_set_inheritableEib
	.p2align	2
__ZN10subprocess20pipe_set_inheritableEib: ; @_ZN10subprocess20pipe_set_inheritableEib
Lfunc_begin6:
	.loc	32 81 0                         ; external/subprocess/subprocess/pipe.cpp:81:0
	.cfi_startproc
	.cfi_personality 155, ___gxx_personality_v0
	.cfi_lsda 16, Lexception0
; %bb.0:
	sub	sp, sp, #64
	stp	x29, x30, [sp, #48]             ; 16-byte Folded Spill
	add	x29, sp, #48
	.cfi_def_cfa w29, 16
	.cfi_offset w30, -8
	.cfi_offset w29, -16
	stur	w0, [x29, #-4]
	mov	w8, #1
	and	w8, w1, w8
	sturb	w8, [x29, #-5]
Ltmp32:
	.loc	32 82 13 prologue_end           ; external/subprocess/subprocess/pipe.cpp:82:13
	ldur	w8, [x29, #-4]
Ltmp33:
	.loc	32 82 13 is_stmt 0              ; external/subprocess/subprocess/pipe.cpp:82:13
	adds	w8, w8, #1
	b.ne	LBB6_4
	b	LBB6_1
LBB6_1:
	.loc	32 0 13                         ; external/subprocess/subprocess/pipe.cpp:0:13
	mov	x0, #16
Ltmp34:
	.loc	32 83 13 is_stmt 1              ; external/subprocess/subprocess/pipe.cpp:83:13
	bl	___cxa_allocate_exception
	str	x0, [sp, #8]                    ; 8-byte Folded Spill
Ltmp29:
	.loc	32 0 0 is_stmt 0                ; external/subprocess/subprocess/pipe.cpp:0:0
	adrp	x1, l_.str@PAGE
	add	x1, x1, l_.str@PAGEOFF
	.loc	32 83 19                        ; external/subprocess/subprocess/pipe.cpp:83:19
	bl	__ZNSt16invalid_argumentC1EPKc
Ltmp30:
	b	LBB6_2
LBB6_2:
	.loc	32 0 19                         ; external/subprocess/subprocess/pipe.cpp:0:19
	ldr	x0, [sp, #8]                    ; 8-byte Folded Reload
	adrp	x1, __ZTISt16invalid_argument@GOTPAGE
	ldr	x1, [x1, __ZTISt16invalid_argument@GOTPAGEOFF]
	adrp	x2, __ZNSt16invalid_argumentD1Ev@GOTPAGE
	ldr	x2, [x2, __ZNSt16invalid_argumentD1Ev@GOTPAGEOFF]
	.loc	32 83 13                        ; external/subprocess/subprocess/pipe.cpp:83:13
	bl	___cxa_throw
LBB6_3:
Ltmp31:
	.loc	32 94 5 is_stmt 1               ; external/subprocess/subprocess/pipe.cpp:94:5
	mov	x9, x0
	ldr	x0, [sp, #8]                    ; 8-byte Folded Reload
	mov	x8, x1
	stur	x9, [x29, #-16]
	stur	w8, [x29, #-20]
	.loc	32 83 13                        ; external/subprocess/subprocess/pipe.cpp:83:13
	bl	___cxa_free_exception
	b	LBB6_12
Ltmp35:
LBB6_4:
	.loc	32 84 27                        ; external/subprocess/subprocess/pipe.cpp:84:27
	ldur	w0, [x29, #-4]
	mov	w1, #1
	.loc	32 84 21 is_stmt 0              ; external/subprocess/subprocess/pipe.cpp:84:21
	bl	_fcntl
	.loc	32 84 13                        ; external/subprocess/subprocess/pipe.cpp:84:13
	str	w0, [sp, #24]
Ltmp36:
	.loc	32 85 13 is_stmt 1              ; external/subprocess/subprocess/pipe.cpp:85:13
	ldr	w8, [sp, #24]
Ltmp37:
	.loc	32 85 13 is_stmt 0              ; external/subprocess/subprocess/pipe.cpp:85:13
	subs	w8, w8, #0
	b.ge	LBB6_6
	b	LBB6_5
LBB6_5:
Ltmp38:
	.loc	32 86 39 is_stmt 1              ; external/subprocess/subprocess/pipe.cpp:86:39
	bl	___error
	.loc	32 86 38 is_stmt 0              ; external/subprocess/subprocess/pipe.cpp:86:38
	ldr	w1, [x0]
	.loc	32 0 0                          ; external/subprocess/subprocess/pipe.cpp:0:0
	adrp	x0, l_.str.1@PAGE
	add	x0, x0, l_.str.1@PAGEOFF
	.loc	32 86 13                        ; external/subprocess/subprocess/pipe.cpp:86:13
	bl	__ZN10subprocess7details14throw_os_errorEPKci
	b	LBB6_6
Ltmp39:
LBB6_6:
	.loc	32 87 13 is_stmt 1              ; external/subprocess/subprocess/pipe.cpp:87:13
	ldurb	w8, [x29, #-5]
Ltmp40:
	.loc	32 87 13 is_stmt 0              ; external/subprocess/subprocess/pipe.cpp:87:13
	tbz	w8, #0, LBB6_8
	b	LBB6_7
LBB6_7:
Ltmp41:
	.loc	32 88 19 is_stmt 1              ; external/subprocess/subprocess/pipe.cpp:88:19
	ldr	w8, [sp, #24]
	and	w8, w8, #0xfffffffe
	str	w8, [sp, #24]
	.loc	32 88 13 is_stmt 0              ; external/subprocess/subprocess/pipe.cpp:88:13
	b	LBB6_9
LBB6_8:
	.loc	32 90 19 is_stmt 1              ; external/subprocess/subprocess/pipe.cpp:90:19
	ldr	w8, [sp, #24]
	orr	w8, w8, #0x1
	str	w8, [sp, #24]
	b	LBB6_9
Ltmp42:
LBB6_9:
	.loc	32 91 28                        ; external/subprocess/subprocess/pipe.cpp:91:28
	ldur	w0, [x29, #-4]
	.loc	32 91 39 is_stmt 0              ; external/subprocess/subprocess/pipe.cpp:91:39
	ldr	w9, [sp, #24]
                                        ; implicit-def: $x8
	mov	x8, x9
	.loc	32 91 22                        ; external/subprocess/subprocess/pipe.cpp:91:22
	mov	x9, sp
	str	x8, [x9]
	mov	w1, #2
	bl	_fcntl
	.loc	32 91 13                        ; external/subprocess/subprocess/pipe.cpp:91:13
	str	w0, [sp, #20]
Ltmp43:
	.loc	32 92 13 is_stmt 1              ; external/subprocess/subprocess/pipe.cpp:92:13
	ldr	w8, [sp, #20]
Ltmp44:
	.loc	32 92 13 is_stmt 0              ; external/subprocess/subprocess/pipe.cpp:92:13
	adds	w8, w8, #1
	b.ge	LBB6_11
	b	LBB6_10
LBB6_10:
Ltmp45:
	.loc	32 93 39 is_stmt 1              ; external/subprocess/subprocess/pipe.cpp:93:39
	bl	___error
	.loc	32 93 38 is_stmt 0              ; external/subprocess/subprocess/pipe.cpp:93:38
	ldr	w1, [x0]
Ltmp46:
	.loc	32 0 0                          ; external/subprocess/subprocess/pipe.cpp:0:0
	adrp	x0, l_.str.1@PAGE
	add	x0, x0, l_.str.1@PAGEOFF
Ltmp47:
	.loc	32 93 13                        ; external/subprocess/subprocess/pipe.cpp:93:13
	bl	__ZN10subprocess7details14throw_os_errorEPKci
	b	LBB6_11
Ltmp48:
LBB6_11:
	.loc	32 94 5 is_stmt 1               ; external/subprocess/subprocess/pipe.cpp:94:5
	ldp	x29, x30, [sp, #48]             ; 16-byte Folded Reload
	add	sp, sp, #64
	ret
LBB6_12:
Ltmp49:
	.loc	32 83 13                        ; external/subprocess/subprocess/pipe.cpp:83:13
	ldur	x0, [x29, #-16]
	bl	__Unwind_Resume
Ltmp50:
Lfunc_end6:
	.cfi_endproc
	.section	__TEXT,__gcc_except_tab
	.p2align	2
GCC_except_table6:
Lexception0:
	.byte	255                             ; @LPStart Encoding = omit
	.byte	255                             ; @TType Encoding = omit
	.byte	1                               ; Call site Encoding = uleb128
	.uleb128 Lcst_end0-Lcst_begin0
Lcst_begin0:
	.uleb128 Lfunc_begin6-Lfunc_begin6      ; >> Call Site 1 <<
	.uleb128 Ltmp29-Lfunc_begin6            ;   Call between Lfunc_begin6 and Ltmp29
	.byte	0                               ;     has no landing pad
	.byte	0                               ;   On action: cleanup
	.uleb128 Ltmp29-Lfunc_begin6            ; >> Call Site 2 <<
	.uleb128 Ltmp30-Ltmp29                  ;   Call between Ltmp29 and Ltmp30
	.uleb128 Ltmp31-Lfunc_begin6            ;     jumps to Ltmp31
	.byte	0                               ;   On action: cleanup
	.uleb128 Ltmp30-Lfunc_begin6            ; >> Call Site 3 <<
	.uleb128 Lfunc_end6-Ltmp30              ;   Call between Ltmp30 and Lfunc_end6
	.byte	0                               ;     has no landing pad
	.byte	0                               ;   On action: cleanup
Lcst_end0:
	.p2align	2
                                        ; -- End function
	.section	__TEXT,__text,regular,pure_instructions
	.p2align	2                               ; -- Begin function _ZNSt16invalid_argumentC1EPKc
__ZNSt16invalid_argumentC1EPKc:         ; @_ZNSt16invalid_argumentC1EPKc
Lfunc_begin7:
	.loc	18 140 0                        ; /Applications/Xcode.app/Contents/Developer/Platforms/MacOSX.platform/Developer/SDKs/MacOSX13.1.sdk/usr/include/c++/v1/stdexcept:140:0
	.cfi_startproc
; %bb.0:
	sub	sp, sp, #48
	stp	x29, x30, [sp, #32]             ; 16-byte Folded Spill
	add	x29, sp, #32
	.cfi_def_cfa w29, 16
	.cfi_offset w30, -8
	.cfi_offset w29, -16
	stur	x0, [x29, #-8]
	str	x1, [sp, #16]
	ldur	x0, [x29, #-8]
	str	x0, [sp, #8]                    ; 8-byte Folded Spill
Ltmp51:
	.loc	18 140 145 prologue_end         ; /Applications/Xcode.app/Contents/Developer/Platforms/MacOSX.platform/Developer/SDKs/MacOSX13.1.sdk/usr/include/c++/v1/stdexcept:140:145
	ldr	x1, [sp, #16]
	bl	__ZNSt16invalid_argumentC2EPKc
	ldr	x0, [sp, #8]                    ; 8-byte Folded Reload
	.loc	18 140 146 is_stmt 0            ; /Applications/Xcode.app/Contents/Developer/Platforms/MacOSX.platform/Developer/SDKs/MacOSX13.1.sdk/usr/include/c++/v1/stdexcept:140:146
	ldp	x29, x30, [sp, #32]             ; 16-byte Folded Reload
	add	sp, sp, #48
	ret
Ltmp52:
Lfunc_end7:
	.cfi_endproc
                                        ; -- End function
	.globl	__ZN10subprocess11pipe_createEb ; -- Begin function _ZN10subprocess11pipe_createEb
	.p2align	2
__ZN10subprocess11pipe_createEb:        ; @_ZN10subprocess11pipe_createEb
Lfunc_begin8:
	.loc	32 101 0 is_stmt 1              ; external/subprocess/subprocess/pipe.cpp:101:0
	.cfi_startproc
; %bb.0:
	sub	sp, sp, #64
	stp	x29, x30, [sp, #48]             ; 16-byte Folded Spill
	add	x29, sp, #48
	.cfi_def_cfa w29, 16
	.cfi_offset w30, -8
	.cfi_offset w29, -16
	str	x8, [sp, #8]                    ; 8-byte Folded Spill
	adrp	x9, ___stack_chk_guard@GOTPAGE
	ldr	x9, [x9, ___stack_chk_guard@GOTPAGEOFF]
	ldr	x9, [x9]
	stur	x9, [x29, #-8]
	str	x8, [sp, #24]
	mov	w8, #1
	and	w8, w0, w8
	strb	w8, [sp, #23]
	sub	x0, x29, #16
Ltmp53:
	.loc	32 103 24 prologue_end          ; external/subprocess/subprocess/pipe.cpp:103:24
	bl	_pipe
	subs	w8, w0, #0
	cset	w8, eq
	.loc	32 103 14 is_stmt 0             ; external/subprocess/subprocess/pipe.cpp:103:14
	and	w8, w8, #0x1
	strb	w8, [sp, #22]
Ltmp54:
	.loc	32 104 14 is_stmt 1             ; external/subprocess/subprocess/pipe.cpp:104:14
	ldrb	w8, [sp, #22]
Ltmp55:
	.loc	32 104 13 is_stmt 0             ; external/subprocess/subprocess/pipe.cpp:104:13
	tbnz	w8, #0, LBB8_2
	b	LBB8_1
LBB8_1:
Ltmp56:
	.loc	32 105 38 is_stmt 1             ; external/subprocess/subprocess/pipe.cpp:105:38
	bl	___error
	.loc	32 105 37 is_stmt 0             ; external/subprocess/subprocess/pipe.cpp:105:37
	ldr	w1, [x0]
	.loc	32 0 0                          ; external/subprocess/subprocess/pipe.cpp:0:0
	adrp	x0, l_.str.2@PAGE
	add	x0, x0, l_.str.2@PAGEOFF
	.loc	32 105 13                       ; external/subprocess/subprocess/pipe.cpp:105:13
	bl	__ZN10subprocess7details14throw_os_errorEPKci
	ldr	x0, [sp, #8]                    ; 8-byte Folded Reload
	.loc	32 106 20 is_stmt 1             ; external/subprocess/subprocess/pipe.cpp:106:20
	bl	__ZN10subprocess8PipePairC1Ev
	.loc	32 106 13 is_stmt 0             ; external/subprocess/subprocess/pipe.cpp:106:13
	b	LBB8_5
Ltmp57:
LBB8_2:
	.loc	32 108 14 is_stmt 1             ; external/subprocess/subprocess/pipe.cpp:108:14
	ldrb	w8, [sp, #23]
Ltmp58:
	.loc	32 108 13 is_stmt 0             ; external/subprocess/subprocess/pipe.cpp:108:13
	tbnz	w8, #0, LBB8_4
	b	LBB8_3
LBB8_3:
Ltmp59:
	.loc	32 109 34 is_stmt 1             ; external/subprocess/subprocess/pipe.cpp:109:34
	ldur	w0, [x29, #-16]
	mov	w8, #0
	str	w8, [sp, #4]                    ; 4-byte Folded Spill
	.loc	32 109 13 is_stmt 0             ; external/subprocess/subprocess/pipe.cpp:109:13
	and	w1, w8, #0x1
	bl	__ZN10subprocess20pipe_set_inheritableEib
	ldr	w8, [sp, #4]                    ; 4-byte Folded Reload
	.loc	32 110 34 is_stmt 1             ; external/subprocess/subprocess/pipe.cpp:110:34
	ldur	w0, [x29, #-12]
	.loc	32 110 13 is_stmt 0             ; external/subprocess/subprocess/pipe.cpp:110:13
	and	w1, w8, #0x1
	bl	__ZN10subprocess20pipe_set_inheritableEib
	.loc	32 111 9 is_stmt 1              ; external/subprocess/subprocess/pipe.cpp:111:9
	b	LBB8_4
Ltmp60:
LBB8_4:
	.loc	32 0 9 is_stmt 0                ; external/subprocess/subprocess/pipe.cpp:0:9
	ldr	x0, [sp, #8]                    ; 8-byte Folded Reload
	.loc	32 112 17 is_stmt 1             ; external/subprocess/subprocess/pipe.cpp:112:17
	ldur	w1, [x29, #-16]
	.loc	32 112 24 is_stmt 0             ; external/subprocess/subprocess/pipe.cpp:112:24
	ldur	w2, [x29, #-12]
	.loc	32 112 16                       ; external/subprocess/subprocess/pipe.cpp:112:16
	bl	__ZN10subprocess8PipePairC1Eii
	.loc	32 112 9                        ; external/subprocess/subprocess/pipe.cpp:112:9
	b	LBB8_5
LBB8_5:
	.loc	32 113 5 is_stmt 1              ; external/subprocess/subprocess/pipe.cpp:113:5
	ldur	x9, [x29, #-8]
	adrp	x8, ___stack_chk_guard@GOTPAGE
	ldr	x8, [x8, ___stack_chk_guard@GOTPAGEOFF]
	ldr	x8, [x8]
	subs	x8, x8, x9
	b.eq	LBB8_7
	b	LBB8_6
LBB8_6:
	bl	___stack_chk_fail
LBB8_7:
	ldp	x29, x30, [sp, #48]             ; 16-byte Folded Reload
	add	sp, sp, #64
	ret
Ltmp61:
Lfunc_end8:
	.cfi_endproc
                                        ; -- End function
	.globl	__ZN10subprocess8PipePairC1Ev   ; -- Begin function _ZN10subprocess8PipePairC1Ev
	.weak_def_can_be_hidden	__ZN10subprocess8PipePairC1Ev
	.p2align	2
__ZN10subprocess8PipePairC1Ev:          ; @_ZN10subprocess8PipePairC1Ev
Lfunc_begin9:
	.loc	86 13 0                         ; external/subprocess/subprocess/pipe.hpp:13:0
	.cfi_startproc
; %bb.0:
	sub	sp, sp, #32
	stp	x29, x30, [sp, #16]             ; 16-byte Folded Spill
	add	x29, sp, #16
	.cfi_def_cfa w29, 16
	.cfi_offset w30, -8
	.cfi_offset w29, -16
	str	x0, [sp, #8]
	ldr	x0, [sp, #8]
	str	x0, [sp]                        ; 8-byte Folded Spill
Ltmp62:
	.loc	86 13 19 prologue_end           ; external/subprocess/subprocess/pipe.hpp:13:19
	bl	__ZN10subprocess8PipePairC2Ev
	ldr	x0, [sp]                        ; 8-byte Folded Reload
	.loc	86 13 20 is_stmt 0              ; external/subprocess/subprocess/pipe.hpp:13:20
	ldp	x29, x30, [sp, #16]             ; 16-byte Folded Reload
	add	sp, sp, #32
	ret
Ltmp63:
Lfunc_end9:
	.cfi_endproc
                                        ; -- End function
	.globl	__ZN10subprocess8PipePairC1Eii  ; -- Begin function _ZN10subprocess8PipePairC1Eii
	.weak_def_can_be_hidden	__ZN10subprocess8PipePairC1Eii
	.p2align	2
__ZN10subprocess8PipePairC1Eii:         ; @_ZN10subprocess8PipePairC1Eii
Lfunc_begin10:
	.loc	86 14 0 is_stmt 1               ; external/subprocess/subprocess/pipe.hpp:14:0
	.cfi_startproc
; %bb.0:
	sub	sp, sp, #48
	stp	x29, x30, [sp, #32]             ; 16-byte Folded Spill
	add	x29, sp, #32
	.cfi_def_cfa w29, 16
	.cfi_offset w30, -8
	.cfi_offset w29, -16
	stur	x0, [x29, #-8]
	stur	w1, [x29, #-12]
	str	w2, [sp, #16]
	ldur	x0, [x29, #-8]
	str	x0, [sp, #8]                    ; 8-byte Folded Spill
Ltmp64:
	.loc	86 14 86 prologue_end           ; external/subprocess/subprocess/pipe.hpp:14:86
	ldur	w1, [x29, #-12]
	ldr	w2, [sp, #16]
	bl	__ZN10subprocess8PipePairC2Eii
	ldr	x0, [sp, #8]                    ; 8-byte Folded Reload
	.loc	86 14 87 is_stmt 0              ; external/subprocess/subprocess/pipe.hpp:14:87
	ldp	x29, x30, [sp, #32]             ; 16-byte Folded Reload
	add	sp, sp, #48
	ret
Ltmp65:
Lfunc_end10:
	.cfi_endproc
                                        ; -- End function
	.globl	__ZN10subprocess9pipe_readEiPvm ; -- Begin function _ZN10subprocess9pipe_readEiPvm
	.p2align	2
__ZN10subprocess9pipe_readEiPvm:        ; @_ZN10subprocess9pipe_readEiPvm
Lfunc_begin11:
	.loc	32 115 0 is_stmt 1              ; external/subprocess/subprocess/pipe.cpp:115:0
	.cfi_startproc
; %bb.0:
	sub	sp, sp, #48
	stp	x29, x30, [sp, #32]             ; 16-byte Folded Spill
	add	x29, sp, #32
	.cfi_def_cfa w29, 16
	.cfi_offset w30, -8
	.cfi_offset w29, -16
	stur	w0, [x29, #-4]
	str	x1, [sp, #16]
	str	x2, [sp, #8]
Ltmp66:
	.loc	32 116 23 prologue_end          ; external/subprocess/subprocess/pipe.cpp:116:23
	ldur	w0, [x29, #-4]
	.loc	32 116 31 is_stmt 0             ; external/subprocess/subprocess/pipe.cpp:116:31
	ldr	x1, [sp, #16]
	.loc	32 116 39                       ; external/subprocess/subprocess/pipe.cpp:116:39
	ldr	x2, [sp, #8]
	.loc	32 116 16                       ; external/subprocess/subprocess/pipe.cpp:116:16
	bl	_read
	.loc	32 116 9                        ; external/subprocess/subprocess/pipe.cpp:116:9
	ldp	x29, x30, [sp, #32]             ; 16-byte Folded Reload
	add	sp, sp, #48
	ret
Ltmp67:
Lfunc_end11:
	.cfi_endproc
                                        ; -- End function
	.globl	__ZN10subprocess10pipe_writeEiPKvm ; -- Begin function _ZN10subprocess10pipe_writeEiPKvm
	.p2align	2
__ZN10subprocess10pipe_writeEiPKvm:     ; @_ZN10subprocess10pipe_writeEiPKvm
Lfunc_begin12:
	.loc	32 119 0 is_stmt 1              ; external/subprocess/subprocess/pipe.cpp:119:0
	.cfi_startproc
; %bb.0:
	sub	sp, sp, #48
	stp	x29, x30, [sp, #32]             ; 16-byte Folded Spill
	add	x29, sp, #32
	.cfi_def_cfa w29, 16
	.cfi_offset w30, -8
	.cfi_offset w29, -16
	stur	w0, [x29, #-4]
	str	x1, [sp, #16]
	str	x2, [sp, #8]
Ltmp68:
	.loc	32 120 24 prologue_end          ; external/subprocess/subprocess/pipe.cpp:120:24
	ldur	w0, [x29, #-4]
	.loc	32 120 32 is_stmt 0             ; external/subprocess/subprocess/pipe.cpp:120:32
	ldr	x1, [sp, #16]
	.loc	32 120 40                       ; external/subprocess/subprocess/pipe.cpp:120:40
	ldr	x2, [sp, #8]
	.loc	32 120 16                       ; external/subprocess/subprocess/pipe.cpp:120:16
	bl	_write
	.loc	32 120 9                        ; external/subprocess/subprocess/pipe.cpp:120:9
	ldp	x29, x30, [sp, #32]             ; 16-byte Folded Reload
	add	sp, sp, #48
	ret
Ltmp69:
Lfunc_end12:
	.cfi_endproc
                                        ; -- End function
	.globl	__ZN10subprocess13pipe_read_allEi ; -- Begin function _ZN10subprocess13pipe_read_allEi
	.p2align	2
__ZN10subprocess13pipe_read_allEi:      ; @_ZN10subprocess13pipe_read_allEi
Lfunc_begin13:
	.loc	32 124 0 is_stmt 1              ; external/subprocess/subprocess/pipe.cpp:124:0
	.cfi_startproc
	.cfi_personality 155, ___gxx_personality_v0
	.cfi_lsda 16, Lexception1
; %bb.0:
	stp	x28, x27, [sp, #-32]!           ; 16-byte Folded Spill
	stp	x29, x30, [sp, #16]             ; 16-byte Folded Spill
	add	x29, sp, #16
	sub	sp, sp, #2192
	.cfi_def_cfa w29, 16
	.cfi_offset w30, -8
	.cfi_offset w29, -16
	.cfi_offset w27, -24
	.cfi_offset w28, -32
	str	x8, [sp, #40]                   ; 8-byte Folded Spill
	adrp	x9, ___stack_chk_guard@GOTPAGE
	ldr	x9, [x9, ___stack_chk_guard@GOTPAGEOFF]
	ldr	x9, [x9]
	stur	x9, [x29, #-24]
	str	x8, [sp, #128]
	str	w0, [sp, #124]
Ltmp75:
	.loc	32 125 13 prologue_end          ; external/subprocess/subprocess/pipe.cpp:125:13
	ldr	w8, [sp, #124]
Ltmp76:
	.loc	32 125 13 is_stmt 0             ; external/subprocess/subprocess/pipe.cpp:125:13
	adds	w8, w8, #1
	b.ne	LBB13_2
	b	LBB13_1
LBB13_1:
	.loc	32 0 13                         ; external/subprocess/subprocess/pipe.cpp:0:13
	ldr	x0, [sp, #40]                   ; 8-byte Folded Reload
Ltmp77:
	.loc	32 126 20 is_stmt 1             ; external/subprocess/subprocess/pipe.cpp:126:20
	bl	__ZNSt3__112basic_stringIcNS_11char_traitsIcEENS_9allocatorIcEEEC1Ev
	.loc	32 126 13 is_stmt 0             ; external/subprocess/subprocess/pipe.cpp:126:13
	b	LBB13_12
Ltmp78:
LBB13_2:
	.loc	32 0 13                         ; external/subprocess/subprocess/pipe.cpp:0:13
	mov	w8, #2048
	.loc	32 127 23 is_stmt 1             ; external/subprocess/subprocess/pipe.cpp:127:23
	str	w8, [sp, #120]
	add	x0, sp, #96
	.loc	32 129 21                       ; external/subprocess/subprocess/pipe.cpp:129:21
	bl	__ZNSt3__112basic_stringIcNS_11char_traitsIcEENS_9allocatorIcEEEC1Ev
	.loc	32 130 9                        ; external/subprocess/subprocess/pipe.cpp:130:9
	b	LBB13_3
LBB13_3:                                ; =>This Inner Loop Header: Depth=1
	b	LBB13_4
LBB13_4:                                ;   in Loop: Header=BB13_3 Depth=1
Ltmp79:
	.loc	32 131 44                       ; external/subprocess/subprocess/pipe.cpp:131:44
	ldr	w0, [sp, #124]
Ltmp70:
	add	x1, sp, #136
	mov	x2, #2048
	.loc	32 131 34 is_stmt 0             ; external/subprocess/subprocess/pipe.cpp:131:34
	bl	__ZN10subprocess9pipe_readEiPvm
	str	x0, [sp, #32]                   ; 8-byte Folded Spill
Ltmp71:
	b	LBB13_5
LBB13_5:                                ;   in Loop: Header=BB13_3 Depth=1
	.loc	32 0 34                         ; external/subprocess/subprocess/pipe.cpp:0:34
	ldr	x8, [sp, #32]                   ; 8-byte Folded Reload
	.loc	32 131 21                       ; external/subprocess/subprocess/pipe.cpp:131:21
	str	x8, [sp, #88]
Ltmp80:
	.loc	32 132 16 is_stmt 1             ; external/subprocess/subprocess/pipe.cpp:132:16
	ldr	x8, [sp, #88]
Ltmp81:
	.loc	32 132 16 is_stmt 0             ; external/subprocess/subprocess/pipe.cpp:132:16
	subs	x8, x8, #0
	b.le	LBB13_9
	b	LBB13_6
LBB13_6:                                ;   in Loop: Header=BB13_3 Depth=1
	.loc	32 0 16                         ; external/subprocess/subprocess/pipe.cpp:0:16
	add	x0, sp, #96
	str	x0, [sp, #16]                   ; 8-byte Folded Spill
Ltmp82:
	.loc	32 133 38 is_stmt 1             ; external/subprocess/subprocess/pipe.cpp:133:38
	bl	__ZNSt3__112basic_stringIcNS_11char_traitsIcEENS_9allocatorIcEEE3endEv
	add	x1, sp, #56
	str	x0, [sp, #56]
	add	x0, sp, #64
	mov	x2, #0
	.loc	32 133 31 is_stmt 0             ; external/subprocess/subprocess/pipe.cpp:133:31
	bl	__ZNSt3__111__wrap_iterIPKcEC1IPcEERKNS0_IT_EEPNS_9enable_ifIXsr14is_convertibleIS6_S2_EE5valueEvE4typeE
	ldr	x0, [sp, #16]                   ; 8-byte Folded Reload
	.loc	32 133 59                       ; external/subprocess/subprocess/pipe.cpp:133:59
	ldr	x9, [sp, #88]
	add	x2, sp, #136
	.loc	32 133 55                       ; external/subprocess/subprocess/pipe.cpp:133:55
	mov	x8, x2
	add	x3, x8, x9
	.loc	32 133 24                       ; external/subprocess/subprocess/pipe.cpp:133:24
	ldr	x1, [sp, #64]
Ltmp72:
	bl	__ZNSt3__112basic_stringIcNS_11char_traitsIcEENS_9allocatorIcEEE6insertIPhEENS_9_MetaBaseIXsr27__is_cpp17_forward_iteratorIT_EE5valueEE13_EnableIfImplINS_11__wrap_iterIPcEEEENSC_IPKcEES9_S9_
	str	x0, [sp, #24]                   ; 8-byte Folded Spill
Ltmp73:
	b	LBB13_7
LBB13_7:                                ;   in Loop: Header=BB13_3 Depth=1
	.loc	32 0 24                         ; external/subprocess/subprocess/pipe.cpp:0:24
	ldr	x8, [sp, #24]                   ; 8-byte Folded Reload
	.loc	32 133 24                       ; external/subprocess/subprocess/pipe.cpp:133:24
	str	x8, [sp, #48]
	.loc	32 134 13 is_stmt 1             ; external/subprocess/subprocess/pipe.cpp:134:13
	b	LBB13_10
Ltmp83:
LBB13_8:
Ltmp74:
	.loc	32 139 5                        ; external/subprocess/subprocess/pipe.cpp:139:5
	mov	x8, x1
	str	x0, [sp, #80]
	str	w8, [sp, #76]
	add	x0, sp, #96
Ltmp84:
	.loc	32 139 5 is_stmt 0              ; external/subprocess/subprocess/pipe.cpp:139:5
	bl	__ZNSt3__112basic_stringIcNS_11char_traitsIcEENS_9allocatorIcEEED1Ev
	b	LBB13_15
LBB13_9:
Ltmp85:
	.loc	32 135 17 is_stmt 1             ; external/subprocess/subprocess/pipe.cpp:135:17
	b	LBB13_11
Ltmp86:
LBB13_10:                               ;   in Loop: Header=BB13_3 Depth=1
	.loc	32 130 9                        ; external/subprocess/subprocess/pipe.cpp:130:9
	b	LBB13_3
LBB13_11:
	.loc	32 0 9 is_stmt 0                ; external/subprocess/subprocess/pipe.cpp:0:9
	ldr	x0, [sp, #40]                   ; 8-byte Folded Reload
	add	x1, sp, #96
	str	x1, [sp, #8]                    ; 8-byte Folded Spill
	.loc	32 138 16 is_stmt 1             ; external/subprocess/subprocess/pipe.cpp:138:16
	bl	__ZNSt3__112basic_stringIcNS_11char_traitsIcEENS_9allocatorIcEEEC1EOS5_
	ldr	x0, [sp, #8]                    ; 8-byte Folded Reload
	.loc	32 139 5                        ; external/subprocess/subprocess/pipe.cpp:139:5
	bl	__ZNSt3__112basic_stringIcNS_11char_traitsIcEENS_9allocatorIcEEED1Ev
	b	LBB13_12
LBB13_12:
	ldur	x9, [x29, #-24]
	adrp	x8, ___stack_chk_guard@GOTPAGE
	ldr	x8, [x8, ___stack_chk_guard@GOTPAGEOFF]
	ldr	x8, [x8]
	subs	x8, x8, x9
	b.eq	LBB13_14
	b	LBB13_13
LBB13_13:
	bl	___stack_chk_fail
LBB13_14:
	add	sp, sp, #2192
	ldp	x29, x30, [sp, #16]             ; 16-byte Folded Reload
	ldp	x28, x27, [sp], #32             ; 16-byte Folded Reload
	ret
LBB13_15:
	ldr	x0, [sp, #80]
	bl	__Unwind_Resume
Ltmp87:
Lfunc_end13:
	.cfi_endproc
	.section	__TEXT,__gcc_except_tab
	.p2align	2
GCC_except_table13:
Lexception1:
	.byte	255                             ; @LPStart Encoding = omit
	.byte	255                             ; @TType Encoding = omit
	.byte	1                               ; Call site Encoding = uleb128
	.uleb128 Lcst_end1-Lcst_begin1
Lcst_begin1:
	.uleb128 Ltmp70-Lfunc_begin13           ; >> Call Site 1 <<
	.uleb128 Ltmp73-Ltmp70                  ;   Call between Ltmp70 and Ltmp73
	.uleb128 Ltmp74-Lfunc_begin13           ;     jumps to Ltmp74
	.byte	0                               ;   On action: cleanup
	.uleb128 Ltmp73-Lfunc_begin13           ; >> Call Site 2 <<
	.uleb128 Lfunc_end13-Ltmp73             ;   Call between Ltmp73 and Lfunc_end13
	.byte	0                               ;     has no landing pad
	.byte	0                               ;   On action: cleanup
Lcst_end1:
	.p2align	2
                                        ; -- End function
	.section	__TEXT,__text,regular,pure_instructions
	.p2align	2                               ; -- Begin function _ZNSt3__112basic_stringIcNS_11char_traitsIcEENS_9allocatorIcEEEC1Ev
__ZNSt3__112basic_stringIcNS_11char_traitsIcEENS_9allocatorIcEEEC1Ev: ; @_ZNSt3__112basic_stringIcNS_11char_traitsIcEENS_9allocatorIcEEEC1Ev
Lfunc_begin14:
	.loc	6 1860 0                        ; /Applications/Xcode.app/Contents/Developer/Platforms/MacOSX.platform/Developer/SDKs/MacOSX13.1.sdk/usr/include/c++/v1/string:1860:0
	.cfi_startproc
; %bb.0:
	sub	sp, sp, #32
	stp	x29, x30, [sp, #16]             ; 16-byte Folded Spill
	add	x29, sp, #16
	.cfi_def_cfa w29, 16
	.cfi_offset w30, -8
	.cfi_offset w29, -16
	str	x0, [sp, #8]
	ldr	x0, [sp, #8]
	str	x0, [sp]                        ; 8-byte Folded Spill
Ltmp88:
	.loc	6 1860 1 prologue_end           ; /Applications/Xcode.app/Contents/Developer/Platforms/MacOSX.platform/Developer/SDKs/MacOSX13.1.sdk/usr/include/c++/v1/string:1860:1
	bl	__ZNSt3__112basic_stringIcNS_11char_traitsIcEENS_9allocatorIcEEEC2Ev
	ldr	x0, [sp]                        ; 8-byte Folded Reload
	.loc	6 1865 1                        ; /Applications/Xcode.app/Contents/Developer/Platforms/MacOSX.platform/Developer/SDKs/MacOSX13.1.sdk/usr/include/c++/v1/string:1865:1
	ldp	x29, x30, [sp, #16]             ; 16-byte Folded Reload
	add	sp, sp, #32
	ret
Ltmp89:
Lfunc_end14:
	.cfi_endproc
                                        ; -- End function
	.globl	__ZNSt3__112basic_stringIcNS_11char_traitsIcEENS_9allocatorIcEEE6insertIPhEENS_9_MetaBaseIXsr27__is_cpp17_forward_iteratorIT_EE5valueEE13_EnableIfImplINS_11__wrap_iterIPcEEEENSC_IPKcEES9_S9_ ; -- Begin function _ZNSt3__112basic_stringIcNS_11char_traitsIcEENS_9allocatorIcEEE6insertIPhEENS_9_MetaBaseIXsr27__is_cpp17_forward_iteratorIT_EE5valueEE13_EnableIfImplINS_11__wrap_iterIPcEEEENSC_IPKcEES9_S9_
	.weak_definition	__ZNSt3__112basic_stringIcNS_11char_traitsIcEENS_9allocatorIcEEE6insertIPhEENS_9_MetaBaseIXsr27__is_cpp17_forward_iteratorIT_EE5valueEE13_EnableIfImplINS_11__wrap_iterIPcEEEENSC_IPKcEES9_S9_
	.p2align	2
__ZNSt3__112basic_stringIcNS_11char_traitsIcEENS_9allocatorIcEEE6insertIPhEENS_9_MetaBaseIXsr27__is_cpp17_forward_iteratorIT_EE5valueEE13_EnableIfImplINS_11__wrap_iterIPcEEEENSC_IPKcEES9_S9_: ; @_ZNSt3__112basic_stringIcNS_11char_traitsIcEENS_9allocatorIcEEE6insertIPhEENS_9_MetaBaseIXsr27__is_cpp17_forward_iteratorIT_EE5valueEE13_EnableIfImplINS_11__wrap_iterIPcEEEENSC_IPKcEES9_S9_
Lfunc_begin15:
	.loc	6 2888 0                        ; /Applications/Xcode.app/Contents/Developer/Platforms/MacOSX.platform/Developer/SDKs/MacOSX13.1.sdk/usr/include/c++/v1/string:2888:0
	.cfi_startproc
	.cfi_personality 155, ___gxx_personality_v0
	.cfi_lsda 16, Lexception2
; %bb.0:
	sub	sp, sp, #208
	stp	x29, x30, [sp, #192]            ; 16-byte Folded Spill
	add	x29, sp, #192
	.cfi_def_cfa w29, 16
	.cfi_offset w30, -8
	.cfi_offset w29, -16
	sub	x8, x29, #16
	str	x8, [sp, #56]                   ; 8-byte Folded Spill
	stur	x1, [x29, #-16]
	stur	x0, [x29, #-24]
	stur	x2, [x29, #-32]
	stur	x3, [x29, #-40]
	ldur	x0, [x29, #-24]
	str	x0, [sp, #48]                   ; 8-byte Folded Spill
Ltmp93:
	.loc	6 2892 53 prologue_end          ; /Applications/Xcode.app/Contents/Developer/Platforms/MacOSX.platform/Developer/SDKs/MacOSX13.1.sdk/usr/include/c++/v1/string:2892:53
	bl	__ZNSt3__112basic_stringIcNS_11char_traitsIcEENS_9allocatorIcEEE5beginEv
	mov	x8, x0
	ldr	x0, [sp, #56]                   ; 8-byte Folded Reload
	sub	x1, x29, #56
	stur	x8, [x29, #-56]
	.loc	6 2892 51 is_stmt 0             ; /Applications/Xcode.app/Contents/Developer/Platforms/MacOSX.platform/Developer/SDKs/MacOSX13.1.sdk/usr/include/c++/v1/string:2892:51
	bl	__ZNSt3__1miIPKcPcEEDTmicldtfp_4baseEcldtfp0_4baseEERKNS_11__wrap_iterIT_EERKNS5_IT0_EE
	.loc	6 2892 15                       ; /Applications/Xcode.app/Contents/Developer/Platforms/MacOSX.platform/Developer/SDKs/MacOSX13.1.sdk/usr/include/c++/v1/string:2892:15
	stur	x0, [x29, #-48]
	.loc	6 2893 58 is_stmt 1             ; /Applications/Xcode.app/Contents/Developer/Platforms/MacOSX.platform/Developer/SDKs/MacOSX13.1.sdk/usr/include/c++/v1/string:2893:58
	ldur	x0, [x29, #-32]
	.loc	6 2893 67 is_stmt 0             ; /Applications/Xcode.app/Contents/Developer/Platforms/MacOSX.platform/Developer/SDKs/MacOSX13.1.sdk/usr/include/c++/v1/string:2893:67
	ldur	x1, [x29, #-40]
	.loc	6 2893 44                       ; /Applications/Xcode.app/Contents/Developer/Platforms/MacOSX.platform/Developer/SDKs/MacOSX13.1.sdk/usr/include/c++/v1/string:2893:44
	bl	__ZNSt3__1L8distanceIPhEENS_15iterator_traitsIT_E15difference_typeES3_S3_
	.loc	6 2893 15                       ; /Applications/Xcode.app/Contents/Developer/Platforms/MacOSX.platform/Developer/SDKs/MacOSX13.1.sdk/usr/include/c++/v1/string:2893:15
	stur	x0, [x29, #-64]
Ltmp94:
	.loc	6 2894 9 is_stmt 1              ; /Applications/Xcode.app/Contents/Developer/Platforms/MacOSX.platform/Developer/SDKs/MacOSX13.1.sdk/usr/include/c++/v1/string:2894:9
	ldur	x8, [x29, #-64]
Ltmp95:
	.loc	6 2894 9 is_stmt 0              ; /Applications/Xcode.app/Contents/Developer/Platforms/MacOSX.platform/Developer/SDKs/MacOSX13.1.sdk/usr/include/c++/v1/string:2894:9
	cbnz	x8, LBB15_2
	b	LBB15_1
LBB15_1:
	.loc	6 0 9                           ; /Applications/Xcode.app/Contents/Developer/Platforms/MacOSX.platform/Developer/SDKs/MacOSX13.1.sdk/usr/include/c++/v1/string:0:9
	ldr	x0, [sp, #48]                   ; 8-byte Folded Reload
Ltmp96:
	.loc	6 2895 16 is_stmt 1             ; /Applications/Xcode.app/Contents/Developer/Platforms/MacOSX.platform/Developer/SDKs/MacOSX13.1.sdk/usr/include/c++/v1/string:2895:16
	bl	__ZNSt3__112basic_stringIcNS_11char_traitsIcEENS_9allocatorIcEEE5beginEv
	mov	x8, x0
	sub	x0, x29, #72
	stur	x8, [x29, #-72]
	.loc	6 2895 26 is_stmt 0             ; /Applications/Xcode.app/Contents/Developer/Platforms/MacOSX.platform/Developer/SDKs/MacOSX13.1.sdk/usr/include/c++/v1/string:2895:26
	ldur	x1, [x29, #-48]
	.loc	6 2895 24                       ; /Applications/Xcode.app/Contents/Developer/Platforms/MacOSX.platform/Developer/SDKs/MacOSX13.1.sdk/usr/include/c++/v1/string:2895:24
	bl	__ZNKSt3__111__wrap_iterIPcEplEl
	stur	x0, [x29, #-8]
	.loc	6 2895 9                        ; /Applications/Xcode.app/Contents/Developer/Platforms/MacOSX.platform/Developer/SDKs/MacOSX13.1.sdk/usr/include/c++/v1/string:2895:9
	b	LBB15_7
Ltmp97:
LBB15_2:
	.loc	6 0 9                           ; /Applications/Xcode.app/Contents/Developer/Platforms/MacOSX.platform/Developer/SDKs/MacOSX13.1.sdk/usr/include/c++/v1/string:0:9
	ldr	x0, [sp, #48]                   ; 8-byte Folded Reload
Ltmp98:
	.loc	6 2897 84 is_stmt 1             ; /Applications/Xcode.app/Contents/Developer/Platforms/MacOSX.platform/Developer/SDKs/MacOSX13.1.sdk/usr/include/c++/v1/string:2897:84
	ldur	x1, [x29, #-32]
	.loc	6 2897 67 is_stmt 0             ; /Applications/Xcode.app/Contents/Developer/Platforms/MacOSX.platform/Developer/SDKs/MacOSX13.1.sdk/usr/include/c++/v1/string:2897:67
	bl	__ZNKSt3__112basic_stringIcNS_11char_traitsIcEENS_9allocatorIcEEE15__addr_in_rangeIRhEEbOT_
Ltmp99:
	.loc	6 2897 9                        ; /Applications/Xcode.app/Contents/Developer/Platforms/MacOSX.platform/Developer/SDKs/MacOSX13.1.sdk/usr/include/c++/v1/string:2897:9
	tbnz	w0, #0, LBB15_4
	b	LBB15_3
LBB15_3:
	.loc	6 0 9                           ; /Applications/Xcode.app/Contents/Developer/Platforms/MacOSX.platform/Developer/SDKs/MacOSX13.1.sdk/usr/include/c++/v1/string:0:9
	ldr	x0, [sp, #48]                   ; 8-byte Folded Reload
Ltmp100:
	.loc	6 2899 40 is_stmt 1             ; /Applications/Xcode.app/Contents/Developer/Platforms/MacOSX.platform/Developer/SDKs/MacOSX13.1.sdk/usr/include/c++/v1/string:2899:40
	ldur	x1, [x29, #-64]
	.loc	6 2899 45 is_stmt 0             ; /Applications/Xcode.app/Contents/Developer/Platforms/MacOSX.platform/Developer/SDKs/MacOSX13.1.sdk/usr/include/c++/v1/string:2899:45
	ldur	x2, [x29, #-48]
	.loc	6 2899 51                       ; /Applications/Xcode.app/Contents/Developer/Platforms/MacOSX.platform/Developer/SDKs/MacOSX13.1.sdk/usr/include/c++/v1/string:2899:51
	ldur	x3, [x29, #-32]
	.loc	6 2899 60                       ; /Applications/Xcode.app/Contents/Developer/Platforms/MacOSX.platform/Developer/SDKs/MacOSX13.1.sdk/usr/include/c++/v1/string:2899:60
	ldur	x4, [x29, #-40]
	.loc	6 2899 16                       ; /Applications/Xcode.app/Contents/Developer/Platforms/MacOSX.platform/Developer/SDKs/MacOSX13.1.sdk/usr/include/c++/v1/string:2899:16
	bl	__ZNSt3__112basic_stringIcNS_11char_traitsIcEENS_9allocatorIcEEE23__insert_from_safe_copyIPhEENS_11__wrap_iterIPcEEmmT_SB_
	stur	x0, [x29, #-8]
	.loc	6 2899 9                        ; /Applications/Xcode.app/Contents/Developer/Platforms/MacOSX.platform/Developer/SDKs/MacOSX13.1.sdk/usr/include/c++/v1/string:2899:9
	b	LBB15_7
Ltmp101:
LBB15_4:
	.loc	6 0 9                           ; /Applications/Xcode.app/Contents/Developer/Platforms/MacOSX.platform/Developer/SDKs/MacOSX13.1.sdk/usr/include/c++/v1/string:0:9
	ldr	x0, [sp, #48]                   ; 8-byte Folded Reload
Ltmp102:
	.loc	6 2903 35 is_stmt 1             ; /Applications/Xcode.app/Contents/Developer/Platforms/MacOSX.platform/Developer/SDKs/MacOSX13.1.sdk/usr/include/c++/v1/string:2903:35
	ldur	x8, [x29, #-32]
	str	x8, [sp]                        ; 8-byte Folded Spill
	.loc	6 2903 44 is_stmt 0             ; /Applications/Xcode.app/Contents/Developer/Platforms/MacOSX.platform/Developer/SDKs/MacOSX13.1.sdk/usr/include/c++/v1/string:2903:44
	ldur	x8, [x29, #-40]
	str	x8, [sp, #8]                    ; 8-byte Folded Spill
	.loc	6 2903 52                       ; /Applications/Xcode.app/Contents/Developer/Platforms/MacOSX.platform/Developer/SDKs/MacOSX13.1.sdk/usr/include/c++/v1/string:2903:52
	bl	__ZNSt3__112basic_stringIcNS_11char_traitsIcEENS_9allocatorIcEEE7__allocEv
	ldr	x1, [sp]                        ; 8-byte Folded Reload
	ldr	x2, [sp, #8]                    ; 8-byte Folded Reload
	mov	x3, x0
	add	x0, sp, #96
	str	x0, [sp, #16]                   ; 8-byte Folded Spill
	.loc	6 2903 28                       ; /Applications/Xcode.app/Contents/Developer/Platforms/MacOSX.platform/Developer/SDKs/MacOSX13.1.sdk/usr/include/c++/v1/string:2903:28
	bl	__ZNSt3__112basic_stringIcNS_11char_traitsIcEENS_9allocatorIcEEEC1IPhvEET_S8_RKS4_
	ldr	x0, [sp, #16]                   ; 8-byte Folded Reload
	.loc	6 2904 40 is_stmt 1             ; /Applications/Xcode.app/Contents/Developer/Platforms/MacOSX.platform/Developer/SDKs/MacOSX13.1.sdk/usr/include/c++/v1/string:2904:40
	ldur	x8, [x29, #-64]
	str	x8, [sp, #24]                   ; 8-byte Folded Spill
	.loc	6 2904 45 is_stmt 0             ; /Applications/Xcode.app/Contents/Developer/Platforms/MacOSX.platform/Developer/SDKs/MacOSX13.1.sdk/usr/include/c++/v1/string:2904:45
	ldur	x8, [x29, #-48]
	str	x8, [sp, #32]                   ; 8-byte Folded Spill
	.loc	6 2904 58                       ; /Applications/Xcode.app/Contents/Developer/Platforms/MacOSX.platform/Developer/SDKs/MacOSX13.1.sdk/usr/include/c++/v1/string:2904:58
	bl	__ZNKSt3__112basic_stringIcNS_11char_traitsIcEENS_9allocatorIcEEE5beginEv
	mov	x8, x0
	ldr	x0, [sp, #16]                   ; 8-byte Folded Reload
	str	x8, [sp, #88]
	.loc	6 2904 74                       ; /Applications/Xcode.app/Contents/Developer/Platforms/MacOSX.platform/Developer/SDKs/MacOSX13.1.sdk/usr/include/c++/v1/string:2904:74
	bl	__ZNKSt3__112basic_stringIcNS_11char_traitsIcEENS_9allocatorIcEEE3endEv
	ldr	x1, [sp, #24]                   ; 8-byte Folded Reload
	ldr	x2, [sp, #32]                   ; 8-byte Folded Reload
	mov	x8, x0
	ldr	x0, [sp, #48]                   ; 8-byte Folded Reload
	str	x8, [sp, #80]
	.loc	6 2904 16                       ; /Applications/Xcode.app/Contents/Developer/Platforms/MacOSX.platform/Developer/SDKs/MacOSX13.1.sdk/usr/include/c++/v1/string:2904:16
	ldr	x3, [sp, #88]
	ldr	x4, [sp, #80]
Ltmp90:
	bl	__ZNSt3__112basic_stringIcNS_11char_traitsIcEENS_9allocatorIcEEE23__insert_from_safe_copyINS_11__wrap_iterIPKcEEEENS7_IPcEEmmT_SD_
	str	x0, [sp, #40]                   ; 8-byte Folded Spill
Ltmp91:
	b	LBB15_5
LBB15_5:
	.loc	6 0 16                          ; /Applications/Xcode.app/Contents/Developer/Platforms/MacOSX.platform/Developer/SDKs/MacOSX13.1.sdk/usr/include/c++/v1/string:0:16
	ldr	x8, [sp, #40]                   ; 8-byte Folded Reload
	.loc	6 2904 16                       ; /Applications/Xcode.app/Contents/Developer/Platforms/MacOSX.platform/Developer/SDKs/MacOSX13.1.sdk/usr/include/c++/v1/string:2904:16
	stur	x8, [x29, #-8]
	add	x0, sp, #96
Ltmp103:
	.loc	6 2905 5 is_stmt 1              ; /Applications/Xcode.app/Contents/Developer/Platforms/MacOSX.platform/Developer/SDKs/MacOSX13.1.sdk/usr/include/c++/v1/string:2905:5
	bl	__ZNSt3__112basic_stringIcNS_11char_traitsIcEENS_9allocatorIcEEED1Ev
	b	LBB15_7
LBB15_6:
Ltmp92:
Ltmp104:
	.loc	6 2906 1                        ; /Applications/Xcode.app/Contents/Developer/Platforms/MacOSX.platform/Developer/SDKs/MacOSX13.1.sdk/usr/include/c++/v1/string:2906:1
	mov	x8, x1
	str	x0, [sp, #72]
	str	w8, [sp, #68]
	add	x0, sp, #96
Ltmp105:
	.loc	6 2905 5                        ; /Applications/Xcode.app/Contents/Developer/Platforms/MacOSX.platform/Developer/SDKs/MacOSX13.1.sdk/usr/include/c++/v1/string:2905:5
	bl	__ZNSt3__112basic_stringIcNS_11char_traitsIcEENS_9allocatorIcEEED1Ev
	b	LBB15_8
Ltmp106:
LBB15_7:
	.loc	6 2906 1                        ; /Applications/Xcode.app/Contents/Developer/Platforms/MacOSX.platform/Developer/SDKs/MacOSX13.1.sdk/usr/include/c++/v1/string:2906:1
	ldur	x0, [x29, #-8]
	ldp	x29, x30, [sp, #192]            ; 16-byte Folded Reload
	add	sp, sp, #208
	ret
LBB15_8:
Ltmp107:
	.loc	6 2905 5                        ; /Applications/Xcode.app/Contents/Developer/Platforms/MacOSX.platform/Developer/SDKs/MacOSX13.1.sdk/usr/include/c++/v1/string:2905:5
	ldr	x0, [sp, #72]
	bl	__Unwind_Resume
Ltmp108:
Lfunc_end15:
	.cfi_endproc
	.section	__TEXT,__gcc_except_tab
	.p2align	2
GCC_except_table15:
Lexception2:
	.byte	255                             ; @LPStart Encoding = omit
	.byte	255                             ; @TType Encoding = omit
	.byte	1                               ; Call site Encoding = uleb128
	.uleb128 Lcst_end2-Lcst_begin2
Lcst_begin2:
	.uleb128 Lfunc_begin15-Lfunc_begin15    ; >> Call Site 1 <<
	.uleb128 Ltmp90-Lfunc_begin15           ;   Call between Lfunc_begin15 and Ltmp90
	.byte	0                               ;     has no landing pad
	.byte	0                               ;   On action: cleanup
	.uleb128 Ltmp90-Lfunc_begin15           ; >> Call Site 2 <<
	.uleb128 Ltmp91-Ltmp90                  ;   Call between Ltmp90 and Ltmp91
	.uleb128 Ltmp92-Lfunc_begin15           ;     jumps to Ltmp92
	.byte	0                               ;   On action: cleanup
	.uleb128 Ltmp91-Lfunc_begin15           ; >> Call Site 3 <<
	.uleb128 Lfunc_end15-Ltmp91             ;   Call between Ltmp91 and Lfunc_end15
	.byte	0                               ;     has no landing pad
	.byte	0                               ;   On action: cleanup
Lcst_end2:
	.p2align	2
                                        ; -- End function
	.section	__TEXT,__text,regular,pure_instructions
	.p2align	2                               ; -- Begin function _ZNSt3__112basic_stringIcNS_11char_traitsIcEENS_9allocatorIcEEE3endEv
__ZNSt3__112basic_stringIcNS_11char_traitsIcEENS_9allocatorIcEEE3endEv: ; @_ZNSt3__112basic_stringIcNS_11char_traitsIcEENS_9allocatorIcEEE3endEv
Lfunc_begin16:
	.loc	6 946 0                         ; /Applications/Xcode.app/Contents/Developer/Platforms/MacOSX.platform/Developer/SDKs/MacOSX13.1.sdk/usr/include/c++/v1/string:946:0
	.cfi_startproc
; %bb.0:
	sub	sp, sp, #48
	stp	x29, x30, [sp, #32]             ; 16-byte Folded Spill
	add	x29, sp, #32
	.cfi_def_cfa w29, 16
	.cfi_offset w30, -8
	.cfi_offset w29, -16
	str	x0, [sp, #16]
	ldr	x0, [sp, #16]
	str	x0, [sp]                        ; 8-byte Folded Spill
Ltmp109:
	.loc	6 946 26 prologue_end           ; /Applications/Xcode.app/Contents/Developer/Platforms/MacOSX.platform/Developer/SDKs/MacOSX13.1.sdk/usr/include/c++/v1/string:946:26
	bl	__ZNSt3__112basic_stringIcNS_11char_traitsIcEENS_9allocatorIcEEE13__get_pointerEv
	mov	x8, x0
	ldr	x0, [sp]                        ; 8-byte Folded Reload
	str	x8, [sp, #8]                    ; 8-byte Folded Spill
	.loc	6 946 44 is_stmt 0              ; /Applications/Xcode.app/Contents/Developer/Platforms/MacOSX.platform/Developer/SDKs/MacOSX13.1.sdk/usr/include/c++/v1/string:946:44
	bl	__ZNKSt3__112basic_stringIcNS_11char_traitsIcEENS_9allocatorIcEEE4sizeEv
	ldr	x8, [sp, #8]                    ; 8-byte Folded Reload
	mov	x9, x0
	sub	x0, x29, #8
	.loc	6 946 42                        ; /Applications/Xcode.app/Contents/Developer/Platforms/MacOSX.platform/Developer/SDKs/MacOSX13.1.sdk/usr/include/c++/v1/string:946:42
	add	x1, x8, x9
	.loc	6 946 17                        ; /Applications/Xcode.app/Contents/Developer/Platforms/MacOSX.platform/Developer/SDKs/MacOSX13.1.sdk/usr/include/c++/v1/string:946:17
	bl	__ZNSt3__111__wrap_iterIPcEC1ES1_
	.loc	6 946 10                        ; /Applications/Xcode.app/Contents/Developer/Platforms/MacOSX.platform/Developer/SDKs/MacOSX13.1.sdk/usr/include/c++/v1/string:946:10
	ldur	x0, [x29, #-8]
	ldp	x29, x30, [sp, #32]             ; 16-byte Folded Reload
	add	sp, sp, #48
	ret
Ltmp110:
Lfunc_end16:
	.cfi_endproc
                                        ; -- End function
	.p2align	2                               ; -- Begin function _ZNSt3__111__wrap_iterIPKcEC1IPcEERKNS0_IT_EEPNS_9enable_ifIXsr14is_convertibleIS6_S2_EE5valueEvE4typeE
__ZNSt3__111__wrap_iterIPKcEC1IPcEERKNS0_IT_EEPNS_9enable_ifIXsr14is_convertibleIS6_S2_EE5valueEvE4typeE: ; @_ZNSt3__111__wrap_iterIPKcEC1IPcEERKNS0_IT_EEPNS_9enable_ifIXsr14is_convertibleIS6_S2_EE5valueEvE4typeE
Lfunc_begin17:
	.loc	11 58 0 is_stmt 1               ; /Applications/Xcode.app/Contents/Developer/Platforms/MacOSX.platform/Developer/SDKs/MacOSX13.1.sdk/usr/include/c++/v1/__iterator/wrap_iter.h:58:0
	.cfi_startproc
; %bb.0:
	sub	sp, sp, #48
	stp	x29, x30, [sp, #32]             ; 16-byte Folded Spill
	add	x29, sp, #32
	.cfi_def_cfa w29, 16
	.cfi_offset w30, -8
	.cfi_offset w29, -16
	stur	x0, [x29, #-8]
	str	x1, [sp, #16]
	str	x2, [sp, #8]
	ldur	x0, [x29, #-8]
	str	x0, [sp]                        ; 8-byte Folded Spill
Ltmp111:
	.loc	11 58 5 prologue_end            ; /Applications/Xcode.app/Contents/Developer/Platforms/MacOSX.platform/Developer/SDKs/MacOSX13.1.sdk/usr/include/c++/v1/__iterator/wrap_iter.h:58:5
	ldr	x1, [sp, #16]
	ldr	x2, [sp, #8]
	bl	__ZNSt3__111__wrap_iterIPKcEC2IPcEERKNS0_IT_EEPNS_9enable_ifIXsr14is_convertibleIS6_S2_EE5valueEvE4typeE
	ldr	x0, [sp]                        ; 8-byte Folded Reload
	.loc	11 62 5                         ; /Applications/Xcode.app/Contents/Developer/Platforms/MacOSX.platform/Developer/SDKs/MacOSX13.1.sdk/usr/include/c++/v1/__iterator/wrap_iter.h:62:5
	ldp	x29, x30, [sp, #32]             ; 16-byte Folded Reload
	add	sp, sp, #48
	ret
Ltmp112:
Lfunc_end17:
	.cfi_endproc
                                        ; -- End function
	.p2align	2                               ; -- Begin function _ZNSt3__112basic_stringIcNS_11char_traitsIcEENS_9allocatorIcEEEC1EOS5_
__ZNSt3__112basic_stringIcNS_11char_traitsIcEENS_9allocatorIcEEEC1EOS5_: ; @_ZNSt3__112basic_stringIcNS_11char_traitsIcEENS_9allocatorIcEEEC1EOS5_
Lfunc_begin18:
	.loc	6 2028 0                        ; /Applications/Xcode.app/Contents/Developer/Platforms/MacOSX.platform/Developer/SDKs/MacOSX13.1.sdk/usr/include/c++/v1/string:2028:0
	.cfi_startproc
; %bb.0:
	sub	sp, sp, #48
	stp	x29, x30, [sp, #32]             ; 16-byte Folded Spill
	add	x29, sp, #32
	.cfi_def_cfa w29, 16
	.cfi_offset w30, -8
	.cfi_offset w29, -16
	stur	x0, [x29, #-8]
	str	x1, [sp, #16]
	ldur	x0, [x29, #-8]
	str	x0, [sp, #8]                    ; 8-byte Folded Spill
Ltmp113:
	.loc	6 2028 1 prologue_end           ; /Applications/Xcode.app/Contents/Developer/Platforms/MacOSX.platform/Developer/SDKs/MacOSX13.1.sdk/usr/include/c++/v1/string:2028:1
	ldr	x1, [sp, #16]
	bl	__ZNSt3__112basic_stringIcNS_11char_traitsIcEENS_9allocatorIcEEEC2EOS5_
	ldr	x0, [sp, #8]                    ; 8-byte Folded Reload
	.loc	6 2035 1                        ; /Applications/Xcode.app/Contents/Developer/Platforms/MacOSX.platform/Developer/SDKs/MacOSX13.1.sdk/usr/include/c++/v1/string:2035:1
	ldp	x29, x30, [sp, #32]             ; 16-byte Folded Reload
	add	sp, sp, #48
	ret
Ltmp114:
Lfunc_end18:
	.cfi_endproc
                                        ; -- End function
	.globl	__ZN10subprocess21pipe_ignore_and_closeEi ; -- Begin function _ZN10subprocess21pipe_ignore_and_closeEi
	.p2align	2
__ZN10subprocess21pipe_ignore_and_closeEi: ; @_ZN10subprocess21pipe_ignore_and_closeEi
Lfunc_begin19:
	.loc	32 141 0                        ; external/subprocess/subprocess/pipe.cpp:141:0
	.cfi_startproc
	.cfi_personality 155, ___gxx_personality_v0
	.cfi_lsda 16, Lexception3
; %bb.0:
	sub	sp, sp, #64
	stp	x29, x30, [sp, #48]             ; 16-byte Folded Spill
	add	x29, sp, #48
	.cfi_def_cfa w29, 16
	.cfi_offset w30, -8
	.cfi_offset w29, -16
	stur	w0, [x29, #-4]
Ltmp118:
	.loc	32 142 13 prologue_end          ; external/subprocess/subprocess/pipe.cpp:142:13
	ldur	w8, [x29, #-4]
Ltmp119:
	.loc	32 142 13 is_stmt 0             ; external/subprocess/subprocess/pipe.cpp:142:13
	adds	w8, w8, #1
	b.ne	LBB19_2
	b	LBB19_1
LBB19_1:
Ltmp120:
	.loc	32 143 13 is_stmt 1             ; external/subprocess/subprocess/pipe.cpp:143:13
	b	LBB19_4
Ltmp121:
LBB19_2:
	.loc	32 144 29                       ; external/subprocess/subprocess/pipe.cpp:144:29
	ldur	w8, [x29, #-4]
	sub	x1, x29, #20
	.loc	32 144 28 is_stmt 0             ; external/subprocess/subprocess/pipe.cpp:144:28
	stur	w8, [x29, #-20]
	sub	x0, x29, #16
	str	x0, [sp]                        ; 8-byte Folded Spill
	.loc	32 144 21                       ; external/subprocess/subprocess/pipe.cpp:144:21
	bl	__ZNSt3__16threadC1IZN10subprocess21pipe_ignore_and_closeEiE3$_0JEvEEOT_DpOT0_
	ldr	x0, [sp]                        ; 8-byte Folded Reload
Ltmp115:
	.loc	32 150 16 is_stmt 1             ; external/subprocess/subprocess/pipe.cpp:150:16
	bl	__ZNSt3__16thread6detachEv
Ltmp116:
	b	LBB19_3
LBB19_3:
	.loc	32 0 16 is_stmt 0               ; external/subprocess/subprocess/pipe.cpp:0:16
	sub	x0, x29, #16
	.loc	32 151 5 is_stmt 1              ; external/subprocess/subprocess/pipe.cpp:151:5
	bl	__ZNSt3__16threadD1Ev
	b	LBB19_4
LBB19_4:
	ldp	x29, x30, [sp, #48]             ; 16-byte Folded Reload
	add	sp, sp, #64
	ret
LBB19_5:
Ltmp117:
	mov	x8, x1
	str	x0, [sp, #16]
	str	w8, [sp, #12]
	sub	x0, x29, #16
	bl	__ZNSt3__16threadD1Ev
	b	LBB19_6
LBB19_6:
	ldr	x0, [sp, #16]
	bl	__Unwind_Resume
Ltmp122:
Lfunc_end19:
	.cfi_endproc
	.section	__TEXT,__gcc_except_tab
	.p2align	2
GCC_except_table19:
Lexception3:
	.byte	255                             ; @LPStart Encoding = omit
	.byte	255                             ; @TType Encoding = omit
	.byte	1                               ; Call site Encoding = uleb128
	.uleb128 Lcst_end3-Lcst_begin3
Lcst_begin3:
	.uleb128 Lfunc_begin19-Lfunc_begin19    ; >> Call Site 1 <<
	.uleb128 Ltmp115-Lfunc_begin19          ;   Call between Lfunc_begin19 and Ltmp115
	.byte	0                               ;     has no landing pad
	.byte	0                               ;   On action: cleanup
	.uleb128 Ltmp115-Lfunc_begin19          ; >> Call Site 2 <<
	.uleb128 Ltmp116-Ltmp115                ;   Call between Ltmp115 and Ltmp116
	.uleb128 Ltmp117-Lfunc_begin19          ;     jumps to Ltmp117
	.byte	0                               ;   On action: cleanup
	.uleb128 Ltmp116-Lfunc_begin19          ; >> Call Site 3 <<
	.uleb128 Lfunc_end19-Ltmp116            ;   Call between Ltmp116 and Lfunc_end19
	.byte	0                               ;     has no landing pad
	.byte	0                               ;   On action: cleanup
Lcst_end3:
	.p2align	2
                                        ; -- End function
	.section	__TEXT,__text,regular,pure_instructions
	.p2align	2                               ; -- Begin function _ZNSt3__16threadC1IZN10subprocess21pipe_ignore_and_closeEiE3$_0JEvEEOT_DpOT0_
__ZNSt3__16threadC1IZN10subprocess21pipe_ignore_and_closeEiE3$_0JEvEEOT_DpOT0_: ; @"_ZNSt3__16threadC1IZN10subprocess21pipe_ignore_and_closeEiE3$_0JEvEEOT_DpOT0_"
Lfunc_begin20:
	.loc	20 306 0                        ; /Applications/Xcode.app/Contents/Developer/Platforms/MacOSX.platform/Developer/SDKs/MacOSX13.1.sdk/usr/include/c++/v1/thread:306:0
	.cfi_startproc
; %bb.0:
	sub	sp, sp, #48
	stp	x29, x30, [sp, #32]             ; 16-byte Folded Spill
	add	x29, sp, #32
	.cfi_def_cfa w29, 16
	.cfi_offset w30, -8
	.cfi_offset w29, -16
	stur	x0, [x29, #-8]
	str	x1, [sp, #16]
	ldur	x0, [x29, #-8]
	str	x0, [sp, #8]                    ; 8-byte Folded Spill
Ltmp123:
	.loc	20 306 1 prologue_end           ; /Applications/Xcode.app/Contents/Developer/Platforms/MacOSX.platform/Developer/SDKs/MacOSX13.1.sdk/usr/include/c++/v1/thread:306:1
	ldr	x1, [sp, #16]
	bl	__ZNSt3__16threadC2IZN10subprocess21pipe_ignore_and_closeEiE3$_0JEvEEOT_DpOT0_
	ldr	x0, [sp, #8]                    ; 8-byte Folded Reload
	.loc	20 319 1                        ; /Applications/Xcode.app/Contents/Developer/Platforms/MacOSX.platform/Developer/SDKs/MacOSX13.1.sdk/usr/include/c++/v1/thread:319:1
	ldp	x29, x30, [sp, #32]             ; 16-byte Folded Reload
	add	sp, sp, #48
	ret
Ltmp124:
Lfunc_end20:
	.cfi_endproc
	.file	87 "/Applications/Xcode.app/Contents/Developer/Platforms/MacOSX.platform/Developer/SDKs/MacOSX13.1.sdk/usr/include/sys/_pthread" "_pthread_t.h"
                                        ; -- End function
	.p2align	2                               ; -- Begin function _ZNSt16invalid_argumentC2EPKc
__ZNSt16invalid_argumentC2EPKc:         ; @_ZNSt16invalid_argumentC2EPKc
Lfunc_begin21:
	.loc	18 140 0                        ; /Applications/Xcode.app/Contents/Developer/Platforms/MacOSX.platform/Developer/SDKs/MacOSX13.1.sdk/usr/include/c++/v1/stdexcept:140:0
	.cfi_startproc
; %bb.0:
	sub	sp, sp, #48
	stp	x29, x30, [sp, #32]             ; 16-byte Folded Spill
	add	x29, sp, #32
	.cfi_def_cfa w29, 16
	.cfi_offset w30, -8
	.cfi_offset w29, -16
Ltmp125:
	.loc	18 0 0 is_stmt 0                ; /Applications/Xcode.app/Contents/Developer/Platforms/MacOSX.platform/Developer/SDKs/MacOSX13.1.sdk/usr/include/c++/v1/stdexcept:0:0
	adrp	x8, __ZTVSt16invalid_argument@GOTPAGE
	ldr	x8, [x8, __ZTVSt16invalid_argument@GOTPAGEOFF]
	add	x8, x8, #16
	str	x8, [sp, #8]                    ; 8-byte Folded Spill
	stur	x0, [x29, #-8]
	str	x1, [sp, #16]
	ldur	x0, [x29, #-8]
	str	x0, [sp]                        ; 8-byte Folded Spill
	.loc	18 140 140 prologue_end is_stmt 1 ; /Applications/Xcode.app/Contents/Developer/Platforms/MacOSX.platform/Developer/SDKs/MacOSX13.1.sdk/usr/include/c++/v1/stdexcept:140:140
	ldr	x1, [sp, #16]
	.loc	18 140 128 is_stmt 0            ; /Applications/Xcode.app/Contents/Developer/Platforms/MacOSX.platform/Developer/SDKs/MacOSX13.1.sdk/usr/include/c++/v1/stdexcept:140:128
	bl	__ZNSt11logic_errorC2EPKc
	ldr	x0, [sp]                        ; 8-byte Folded Reload
	ldr	x8, [sp, #8]                    ; 8-byte Folded Reload
	.loc	18 140 145                      ; /Applications/Xcode.app/Contents/Developer/Platforms/MacOSX.platform/Developer/SDKs/MacOSX13.1.sdk/usr/include/c++/v1/stdexcept:140:145
	str	x8, [x0]
	.loc	18 140 146                      ; /Applications/Xcode.app/Contents/Developer/Platforms/MacOSX.platform/Developer/SDKs/MacOSX13.1.sdk/usr/include/c++/v1/stdexcept:140:146
	ldp	x29, x30, [sp, #32]             ; 16-byte Folded Reload
	add	sp, sp, #48
	ret
Ltmp126:
Lfunc_end21:
	.cfi_endproc
                                        ; -- End function
	.globl	__ZN10subprocess8PipePairC2Ev   ; -- Begin function _ZN10subprocess8PipePairC2Ev
	.weak_def_can_be_hidden	__ZN10subprocess8PipePairC2Ev
	.p2align	2
__ZN10subprocess8PipePairC2Ev:          ; @_ZN10subprocess8PipePairC2Ev
Lfunc_begin22:
	.loc	86 13 0 is_stmt 1               ; external/subprocess/subprocess/pipe.hpp:13:0
	.cfi_startproc
; %bb.0:
	sub	sp, sp, #16
	.cfi_def_cfa_offset 16
	str	x0, [sp, #8]
	ldr	x0, [sp, #8]
	mov	w8, #-1
Ltmp128:
	.loc	86 25 26 prologue_end           ; external/subprocess/subprocess/pipe.hpp:25:26
	str	w8, [x0]
	.loc	86 26 26                        ; external/subprocess/subprocess/pipe.hpp:26:26
	str	w8, [x0, #4]
	.loc	86 13 20                        ; external/subprocess/subprocess/pipe.hpp:13:20
	add	sp, sp, #16
	ret
Ltmp129:
Lfunc_end22:
	.cfi_endproc
                                        ; -- End function
	.globl	__ZN10subprocess8PipePairC2Eii  ; -- Begin function _ZN10subprocess8PipePairC2Eii
	.weak_def_can_be_hidden	__ZN10subprocess8PipePairC2Eii
	.p2align	2
__ZN10subprocess8PipePairC2Eii:         ; @_ZN10subprocess8PipePairC2Eii
Lfunc_begin23:
	.loc	86 14 0                         ; external/subprocess/subprocess/pipe.hpp:14:0
	.cfi_startproc
; %bb.0:
	sub	sp, sp, #16
	.cfi_def_cfa_offset 16
	str	x0, [sp, #8]
	str	w1, [sp, #4]
	str	w2, [sp]
	ldr	x0, [sp, #8]
Ltmp131:
	.loc	86 14 63 prologue_end           ; external/subprocess/subprocess/pipe.hpp:14:63
	ldr	w8, [sp, #4]
	.loc	86 14 57 is_stmt 0              ; external/subprocess/subprocess/pipe.hpp:14:57
	str	w8, [x0]
	.loc	86 14 78                        ; external/subprocess/subprocess/pipe.hpp:14:78
	ldr	w8, [sp]
	.loc	86 14 71                        ; external/subprocess/subprocess/pipe.hpp:14:71
	str	w8, [x0, #4]
	.loc	86 14 87                        ; external/subprocess/subprocess/pipe.hpp:14:87
	add	sp, sp, #16
	ret
Ltmp132:
Lfunc_end23:
	.cfi_endproc
                                        ; -- End function
	.p2align	2                               ; -- Begin function _ZNSt3__111__wrap_iterIPKcEC2IPcEERKNS0_IT_EEPNS_9enable_ifIXsr14is_convertibleIS6_S2_EE5valueEvE4typeE
__ZNSt3__111__wrap_iterIPKcEC2IPcEERKNS0_IT_EEPNS_9enable_ifIXsr14is_convertibleIS6_S2_EE5valueEvE4typeE: ; @_ZNSt3__111__wrap_iterIPKcEC2IPcEERKNS0_IT_EEPNS_9enable_ifIXsr14is_convertibleIS6_S2_EE5valueEvE4typeE
Lfunc_begin24:
	.loc	11 58 0 is_stmt 1               ; /Applications/Xcode.app/Contents/Developer/Platforms/MacOSX.platform/Developer/SDKs/MacOSX13.1.sdk/usr/include/c++/v1/__iterator/wrap_iter.h:58:0
	.cfi_startproc
; %bb.0:
	sub	sp, sp, #48
	stp	x29, x30, [sp, #32]             ; 16-byte Folded Spill
	add	x29, sp, #32
	.cfi_def_cfa w29, 16
	.cfi_offset w30, -8
	.cfi_offset w29, -16
	stur	x0, [x29, #-8]
	str	x1, [sp, #16]
	str	x2, [sp, #8]
	ldur	x8, [x29, #-8]
	str	x8, [sp]                        ; 8-byte Folded Spill
Ltmp133:
	.loc	11 57 19 prologue_end           ; /Applications/Xcode.app/Contents/Developer/Platforms/MacOSX.platform/Developer/SDKs/MacOSX13.1.sdk/usr/include/c++/v1/__iterator/wrap_iter.h:57:19
	ldr	x0, [sp, #16]
	.loc	11 57 23 is_stmt 0              ; /Applications/Xcode.app/Contents/Developer/Platforms/MacOSX.platform/Developer/SDKs/MacOSX13.1.sdk/usr/include/c++/v1/__iterator/wrap_iter.h:57:23
	bl	__ZNKSt3__111__wrap_iterIPcE4baseEv
	mov	x8, x0
	ldr	x0, [sp]                        ; 8-byte Folded Reload
	.loc	11 57 15                        ; /Applications/Xcode.app/Contents/Developer/Platforms/MacOSX.platform/Developer/SDKs/MacOSX13.1.sdk/usr/include/c++/v1/__iterator/wrap_iter.h:57:15
	str	x8, [x0]
	.loc	11 62 5 is_stmt 1               ; /Applications/Xcode.app/Contents/Developer/Platforms/MacOSX.platform/Developer/SDKs/MacOSX13.1.sdk/usr/include/c++/v1/__iterator/wrap_iter.h:62:5
	ldp	x29, x30, [sp, #32]             ; 16-byte Folded Reload
	add	sp, sp, #48
	ret
Ltmp134:
Lfunc_end24:
	.cfi_endproc
                                        ; -- End function
	.p2align	2                               ; -- Begin function _ZNKSt3__111__wrap_iterIPcE4baseEv
__ZNKSt3__111__wrap_iterIPcE4baseEv:    ; @_ZNKSt3__111__wrap_iterIPcE4baseEv
Lfunc_begin25:
	.loc	11 149 0                        ; /Applications/Xcode.app/Contents/Developer/Platforms/MacOSX.platform/Developer/SDKs/MacOSX13.1.sdk/usr/include/c++/v1/__iterator/wrap_iter.h:149:0
	.cfi_startproc
; %bb.0:
	sub	sp, sp, #16
	.cfi_def_cfa_offset 16
	str	x0, [sp, #8]
	ldr	x8, [sp, #8]
Ltmp136:
	.loc	11 149 137 prologue_end         ; /Applications/Xcode.app/Contents/Developer/Platforms/MacOSX.platform/Developer/SDKs/MacOSX13.1.sdk/usr/include/c++/v1/__iterator/wrap_iter.h:149:137
	ldr	x0, [x8]
	.loc	11 149 130 is_stmt 0            ; /Applications/Xcode.app/Contents/Developer/Platforms/MacOSX.platform/Developer/SDKs/MacOSX13.1.sdk/usr/include/c++/v1/__iterator/wrap_iter.h:149:130
	add	sp, sp, #16
	ret
Ltmp137:
Lfunc_end25:
	.cfi_endproc
                                        ; -- End function
	.p2align	2                               ; -- Begin function _ZNSt3__112basic_stringIcNS_11char_traitsIcEENS_9allocatorIcEEEC2Ev
__ZNSt3__112basic_stringIcNS_11char_traitsIcEENS_9allocatorIcEEEC2Ev: ; @_ZNSt3__112basic_stringIcNS_11char_traitsIcEENS_9allocatorIcEEEC2Ev
Lfunc_begin26:
	.loc	6 1860 0 is_stmt 1              ; /Applications/Xcode.app/Contents/Developer/Platforms/MacOSX.platform/Developer/SDKs/MacOSX13.1.sdk/usr/include/c++/v1/string:1860:0
	.cfi_startproc
	.cfi_personality 155, ___gxx_personality_v0
	.cfi_lsda 16, Lexception4
; %bb.0:
	sub	sp, sp, #48
	stp	x29, x30, [sp, #32]             ; 16-byte Folded Spill
	add	x29, sp, #32
	.cfi_def_cfa w29, 16
	.cfi_offset w30, -8
	.cfi_offset w29, -16
	stur	x0, [x29, #-8]
	ldur	x0, [x29, #-8]
	str	x0, [sp, #8]                    ; 8-byte Folded Spill
Ltmp138:
	sub	x1, x29, #9
	sub	x2, x29, #10
Ltmp141:
	.loc	6 1859 8 prologue_end           ; /Applications/Xcode.app/Contents/Developer/Platforms/MacOSX.platform/Developer/SDKs/MacOSX13.1.sdk/usr/include/c++/v1/string:1859:8
	bl	__ZNSt3__117__compressed_pairINS_12basic_stringIcNS_11char_traitsIcEENS_9allocatorIcEEE5__repES5_EC1INS_18__default_init_tagESA_EEOT_OT0_
Ltmp139:
	b	LBB26_1
LBB26_1:
	.loc	6 0 8 is_stmt 0                 ; /Applications/Xcode.app/Contents/Developer/Platforms/MacOSX.platform/Developer/SDKs/MacOSX13.1.sdk/usr/include/c++/v1/string:0:8
	ldr	x0, [sp, #8]                    ; 8-byte Folded Reload
Ltmp142:
	.loc	6 1864 5 is_stmt 1              ; /Applications/Xcode.app/Contents/Developer/Platforms/MacOSX.platform/Developer/SDKs/MacOSX13.1.sdk/usr/include/c++/v1/string:1864:5
	bl	__ZNSt3__112basic_stringIcNS_11char_traitsIcEENS_9allocatorIcEEE6__zeroEv
	ldr	x0, [sp, #8]                    ; 8-byte Folded Reload
Ltmp143:
	.loc	6 1865 1                        ; /Applications/Xcode.app/Contents/Developer/Platforms/MacOSX.platform/Developer/SDKs/MacOSX13.1.sdk/usr/include/c++/v1/string:1865:1
	ldp	x29, x30, [sp, #32]             ; 16-byte Folded Reload
	add	sp, sp, #48
	ret
LBB26_2:
Ltmp140:
	.loc	6 1859 8                        ; /Applications/Xcode.app/Contents/Developer/Platforms/MacOSX.platform/Developer/SDKs/MacOSX13.1.sdk/usr/include/c++/v1/string:1859:8
	bl	___clang_call_terminate
Ltmp144:
Lfunc_end26:
	.cfi_endproc
	.section	__TEXT,__gcc_except_tab
	.p2align	2
GCC_except_table26:
Lexception4:
	.byte	255                             ; @LPStart Encoding = omit
	.byte	155                             ; @TType Encoding = indirect pcrel sdata4
	.uleb128 Lttbase0-Lttbaseref0
Lttbaseref0:
	.byte	1                               ; Call site Encoding = uleb128
	.uleb128 Lcst_end4-Lcst_begin4
Lcst_begin4:
	.uleb128 Ltmp138-Lfunc_begin26          ; >> Call Site 1 <<
	.uleb128 Ltmp139-Ltmp138                ;   Call between Ltmp138 and Ltmp139
	.uleb128 Ltmp140-Lfunc_begin26          ;     jumps to Ltmp140
	.byte	1                               ;   On action: 1
Lcst_end4:
	.byte	1                               ; >> Action Record 1 <<
                                        ;   Catch TypeInfo 1
	.byte	0                               ;   No further actions
	.p2align	2
                                        ; >> Catch TypeInfos <<
	.long	0                               ; TypeInfo 1
Lttbase0:
	.p2align	2
                                        ; -- End function
	.section	__TEXT,__text,regular,pure_instructions
	.p2align	2                               ; -- Begin function _ZNSt3__117__compressed_pairINS_12basic_stringIcNS_11char_traitsIcEENS_9allocatorIcEEE5__repES5_EC1INS_18__default_init_tagESA_EEOT_OT0_
__ZNSt3__117__compressed_pairINS_12basic_stringIcNS_11char_traitsIcEENS_9allocatorIcEEE5__repES5_EC1INS_18__default_init_tagESA_EEOT_OT0_: ; @_ZNSt3__117__compressed_pairINS_12basic_stringIcNS_11char_traitsIcEENS_9allocatorIcEEE5__repES5_EC1INS_18__default_init_tagESA_EEOT_OT0_
Lfunc_begin27:
	.loc	8 136 0                         ; /Applications/Xcode.app/Contents/Developer/Platforms/MacOSX.platform/Developer/SDKs/MacOSX13.1.sdk/usr/include/c++/v1/__memory/compressed_pair.h:136:0
	.cfi_startproc
; %bb.0:
	sub	sp, sp, #48
	stp	x29, x30, [sp, #32]             ; 16-byte Folded Spill
	add	x29, sp, #32
	.cfi_def_cfa w29, 16
	.cfi_offset w30, -8
	.cfi_offset w29, -16
	stur	x0, [x29, #-8]
	str	x1, [sp, #16]
	str	x2, [sp, #8]
	ldur	x0, [x29, #-8]
	str	x0, [sp]                        ; 8-byte Folded Spill
Ltmp145:
	.loc	8 136 84 prologue_end           ; /Applications/Xcode.app/Contents/Developer/Platforms/MacOSX.platform/Developer/SDKs/MacOSX13.1.sdk/usr/include/c++/v1/__memory/compressed_pair.h:136:84
	ldr	x1, [sp, #16]
	ldr	x2, [sp, #8]
	bl	__ZNSt3__117__compressed_pairINS_12basic_stringIcNS_11char_traitsIcEENS_9allocatorIcEEE5__repES5_EC2INS_18__default_init_tagESA_EEOT_OT0_
	ldr	x0, [sp]                        ; 8-byte Folded Reload
	.loc	8 136 85 is_stmt 0              ; /Applications/Xcode.app/Contents/Developer/Platforms/MacOSX.platform/Developer/SDKs/MacOSX13.1.sdk/usr/include/c++/v1/__memory/compressed_pair.h:136:85
	ldp	x29, x30, [sp, #32]             ; 16-byte Folded Reload
	add	sp, sp, #48
	ret
Ltmp146:
Lfunc_end27:
	.cfi_endproc
                                        ; -- End function
	.private_extern	___clang_call_terminate ; -- Begin function __clang_call_terminate
	.globl	___clang_call_terminate
	.weak_definition	___clang_call_terminate
	.p2align	2
___clang_call_terminate:                ; @__clang_call_terminate
Lfunc_begin28:
	.cfi_startproc
; %bb.0:
	stp	x29, x30, [sp, #-16]!           ; 16-byte Folded Spill
	.cfi_def_cfa_offset 16
	.cfi_offset w30, -8
	.cfi_offset w29, -16
	bl	___cxa_begin_catch
	bl	__ZSt9terminatev
Lfunc_end28:
	.cfi_endproc
                                        ; -- End function
	.p2align	2                               ; -- Begin function _ZNSt3__112basic_stringIcNS_11char_traitsIcEENS_9allocatorIcEEE6__zeroEv
__ZNSt3__112basic_stringIcNS_11char_traitsIcEENS_9allocatorIcEEE6__zeroEv: ; @_ZNSt3__112basic_stringIcNS_11char_traitsIcEENS_9allocatorIcEEE6__zeroEv
Lfunc_begin29:
	.loc	6 1585 0 is_stmt 1              ; /Applications/Xcode.app/Contents/Developer/Platforms/MacOSX.platform/Developer/SDKs/MacOSX13.1.sdk/usr/include/c++/v1/string:1585:0
	.cfi_startproc
; %bb.0:
	sub	sp, sp, #48
	stp	x29, x30, [sp, #32]             ; 16-byte Folded Spill
	add	x29, sp, #32
	.cfi_def_cfa w29, 16
	.cfi_offset w30, -8
	.cfi_offset w29, -16
	stur	x0, [x29, #-8]
	ldur	x0, [x29, #-8]
Ltmp147:
	.loc	6 1586 48 prologue_end          ; /Applications/Xcode.app/Contents/Developer/Platforms/MacOSX.platform/Developer/SDKs/MacOSX13.1.sdk/usr/include/c++/v1/string:1586:48
	bl	__ZNSt3__117__compressed_pairINS_12basic_stringIcNS_11char_traitsIcEENS_9allocatorIcEEE5__repES5_E5firstEv
	.loc	6 1586 25 is_stmt 0             ; /Applications/Xcode.app/Contents/Developer/Platforms/MacOSX.platform/Developer/SDKs/MacOSX13.1.sdk/usr/include/c++/v1/string:1586:25
	str	x0, [sp, #16]
Ltmp148:
	.loc	6 1587 27 is_stmt 1             ; /Applications/Xcode.app/Contents/Developer/Platforms/MacOSX.platform/Developer/SDKs/MacOSX13.1.sdk/usr/include/c++/v1/string:1587:27
	str	wzr, [sp, #12]
	.loc	6 1587 18 is_stmt 0             ; /Applications/Xcode.app/Contents/Developer/Platforms/MacOSX.platform/Developer/SDKs/MacOSX13.1.sdk/usr/include/c++/v1/string:1587:18
	b	LBB29_1
LBB29_1:                                ; =>This Inner Loop Header: Depth=1
Ltmp149:
	.loc	6 1587 36                       ; /Applications/Xcode.app/Contents/Developer/Platforms/MacOSX.platform/Developer/SDKs/MacOSX13.1.sdk/usr/include/c++/v1/string:1587:36
	ldr	w8, [sp, #12]
Ltmp150:
	.loc	6 1587 13                       ; /Applications/Xcode.app/Contents/Developer/Platforms/MacOSX.platform/Developer/SDKs/MacOSX13.1.sdk/usr/include/c++/v1/string:1587:13
	subs	w8, w8, #3
	b.hs	LBB29_4
	b	LBB29_2
LBB29_2:                                ;   in Loop: Header=BB29_1 Depth=1
Ltmp151:
	.loc	6 1588 17 is_stmt 1             ; /Applications/Xcode.app/Contents/Developer/Platforms/MacOSX.platform/Developer/SDKs/MacOSX13.1.sdk/usr/include/c++/v1/string:1588:17
	ldr	x9, [sp, #16]
	.loc	6 1588 21 is_stmt 0             ; /Applications/Xcode.app/Contents/Developer/Platforms/MacOSX.platform/Developer/SDKs/MacOSX13.1.sdk/usr/include/c++/v1/string:1588:21
	ldr	w8, [sp, #12]
	mov	x10, x8
	mov	x8, #0
	.loc	6 1588 26                       ; /Applications/Xcode.app/Contents/Developer/Platforms/MacOSX.platform/Developer/SDKs/MacOSX13.1.sdk/usr/include/c++/v1/string:1588:26
	str	x8, [x9, x10, lsl #3]
	.loc	6 1588 17                       ; /Applications/Xcode.app/Contents/Developer/Platforms/MacOSX.platform/Developer/SDKs/MacOSX13.1.sdk/usr/include/c++/v1/string:1588:17
	b	LBB29_3
LBB29_3:                                ;   in Loop: Header=BB29_1 Depth=1
	.loc	6 1587 53 is_stmt 1             ; /Applications/Xcode.app/Contents/Developer/Platforms/MacOSX.platform/Developer/SDKs/MacOSX13.1.sdk/usr/include/c++/v1/string:1587:53
	ldr	w8, [sp, #12]
	add	w8, w8, #1
	str	w8, [sp, #12]
	.loc	6 1587 13 is_stmt 0             ; /Applications/Xcode.app/Contents/Developer/Platforms/MacOSX.platform/Developer/SDKs/MacOSX13.1.sdk/usr/include/c++/v1/string:1587:13
	b	LBB29_1
Ltmp152:
LBB29_4:
	.loc	6 1589 9 is_stmt 1              ; /Applications/Xcode.app/Contents/Developer/Platforms/MacOSX.platform/Developer/SDKs/MacOSX13.1.sdk/usr/include/c++/v1/string:1589:9
	ldp	x29, x30, [sp, #32]             ; 16-byte Folded Reload
	add	sp, sp, #48
	ret
Ltmp153:
Lfunc_end29:
	.cfi_endproc
                                        ; -- End function
	.p2align	2                               ; -- Begin function _ZNSt3__117__compressed_pairINS_12basic_stringIcNS_11char_traitsIcEENS_9allocatorIcEEE5__repES5_EC2INS_18__default_init_tagESA_EEOT_OT0_
__ZNSt3__117__compressed_pairINS_12basic_stringIcNS_11char_traitsIcEENS_9allocatorIcEEE5__repES5_EC2INS_18__default_init_tagESA_EEOT_OT0_: ; @_ZNSt3__117__compressed_pairINS_12basic_stringIcNS_11char_traitsIcEENS_9allocatorIcEEE5__repES5_EC2INS_18__default_init_tagESA_EEOT_OT0_
Lfunc_begin30:
	.loc	8 136 0                         ; /Applications/Xcode.app/Contents/Developer/Platforms/MacOSX.platform/Developer/SDKs/MacOSX13.1.sdk/usr/include/c++/v1/__memory/compressed_pair.h:136:0
	.cfi_startproc
; %bb.0:
	sub	sp, sp, #64
	stp	x29, x30, [sp, #48]             ; 16-byte Folded Spill
	add	x29, sp, #48
	.cfi_def_cfa w29, 16
	.cfi_offset w30, -8
	.cfi_offset w29, -16
	stur	x0, [x29, #-8]
	stur	x1, [x29, #-16]
	str	x2, [sp, #24]
	ldur	x8, [x29, #-8]
	str	x8, [sp, #8]                    ; 8-byte Folded Spill
Ltmp154:
	.loc	8 136 39 prologue_end           ; /Applications/Xcode.app/Contents/Developer/Platforms/MacOSX.platform/Developer/SDKs/MacOSX13.1.sdk/usr/include/c++/v1/__memory/compressed_pair.h:136:39
	ldur	x0, [x29, #-16]
	.loc	8 136 16 is_stmt 0              ; /Applications/Xcode.app/Contents/Developer/Platforms/MacOSX.platform/Developer/SDKs/MacOSX13.1.sdk/usr/include/c++/v1/__memory/compressed_pair.h:136:16
	bl	__ZNSt3__1L7forwardINS_18__default_init_tagEEEOT_RNS_16remove_referenceIS2_E4typeE
	ldr	x0, [sp, #8]                    ; 8-byte Folded Reload
	.loc	8 136 9                         ; /Applications/Xcode.app/Contents/Developer/Platforms/MacOSX.platform/Developer/SDKs/MacOSX13.1.sdk/usr/include/c++/v1/__memory/compressed_pair.h:136:9
	bl	__ZNSt3__122__compressed_pair_elemINS_12basic_stringIcNS_11char_traitsIcEENS_9allocatorIcEEE5__repELi0ELb0EEC2ENS_18__default_init_tagE
	.loc	8 136 77                        ; /Applications/Xcode.app/Contents/Developer/Platforms/MacOSX.platform/Developer/SDKs/MacOSX13.1.sdk/usr/include/c++/v1/__memory/compressed_pair.h:136:77
	ldr	x0, [sp, #24]
	.loc	8 136 54                        ; /Applications/Xcode.app/Contents/Developer/Platforms/MacOSX.platform/Developer/SDKs/MacOSX13.1.sdk/usr/include/c++/v1/__memory/compressed_pair.h:136:54
	bl	__ZNSt3__1L7forwardINS_18__default_init_tagEEEOT_RNS_16remove_referenceIS2_E4typeE
	ldr	x0, [sp, #8]                    ; 8-byte Folded Reload
	.loc	8 136 47                        ; /Applications/Xcode.app/Contents/Developer/Platforms/MacOSX.platform/Developer/SDKs/MacOSX13.1.sdk/usr/include/c++/v1/__memory/compressed_pair.h:136:47
	bl	__ZNSt3__122__compressed_pair_elemINS_9allocatorIcEELi1ELb1EEC2ENS_18__default_init_tagE
	ldr	x0, [sp, #8]                    ; 8-byte Folded Reload
	.loc	8 136 85                        ; /Applications/Xcode.app/Contents/Developer/Platforms/MacOSX.platform/Developer/SDKs/MacOSX13.1.sdk/usr/include/c++/v1/__memory/compressed_pair.h:136:85
	ldp	x29, x30, [sp, #48]             ; 16-byte Folded Reload
	add	sp, sp, #64
	ret
Ltmp155:
Lfunc_end30:
	.cfi_endproc
                                        ; -- End function
	.p2align	2                               ; -- Begin function _ZNSt3__1L7forwardINS_18__default_init_tagEEEOT_RNS_16remove_referenceIS2_E4typeE
__ZNSt3__1L7forwardINS_18__default_init_tagEEEOT_RNS_16remove_referenceIS2_E4typeE: ; @_ZNSt3__1L7forwardINS_18__default_init_tagEEEOT_RNS_16remove_referenceIS2_E4typeE
Lfunc_begin31:
	.file	88 "/Applications/Xcode.app/Contents/Developer/Platforms/MacOSX.platform/Developer/SDKs/MacOSX13.1.sdk/usr/include/c++/v1/__utility" "forward.h"
	.loc	88 27 0 is_stmt 1               ; /Applications/Xcode.app/Contents/Developer/Platforms/MacOSX.platform/Developer/SDKs/MacOSX13.1.sdk/usr/include/c++/v1/__utility/forward.h:27:0
	.cfi_startproc
; %bb.0:
	sub	sp, sp, #16
	.cfi_def_cfa_offset 16
	str	x0, [sp, #8]
Ltmp157:
	.loc	88 28 29 prologue_end           ; /Applications/Xcode.app/Contents/Developer/Platforms/MacOSX.platform/Developer/SDKs/MacOSX13.1.sdk/usr/include/c++/v1/__utility/forward.h:28:29
	ldr	x0, [sp, #8]
	.loc	88 28 3 is_stmt 0               ; /Applications/Xcode.app/Contents/Developer/Platforms/MacOSX.platform/Developer/SDKs/MacOSX13.1.sdk/usr/include/c++/v1/__utility/forward.h:28:3
	add	sp, sp, #16
	ret
Ltmp158:
Lfunc_end31:
	.cfi_endproc
                                        ; -- End function
	.p2align	2                               ; -- Begin function _ZNSt3__122__compressed_pair_elemINS_12basic_stringIcNS_11char_traitsIcEENS_9allocatorIcEEE5__repELi0ELb0EEC2ENS_18__default_init_tagE
__ZNSt3__122__compressed_pair_elemINS_12basic_stringIcNS_11char_traitsIcEENS_9allocatorIcEEE5__repELi0ELb0EEC2ENS_18__default_init_tagE: ; @_ZNSt3__122__compressed_pair_elemINS_12basic_stringIcNS_11char_traitsIcEENS_9allocatorIcEEE5__repELi0ELb0EEC2ENS_18__default_init_tagE
Lfunc_begin32:
	.loc	8 41 0 is_stmt 1                ; /Applications/Xcode.app/Contents/Developer/Platforms/MacOSX.platform/Developer/SDKs/MacOSX13.1.sdk/usr/include/c++/v1/__memory/compressed_pair.h:41:0
	.cfi_startproc
; %bb.0:
	sub	sp, sp, #16
	.cfi_def_cfa_offset 16
	str	x0, [sp]
	ldr	x0, [sp]
Ltmp160:
	.loc	8 41 47 prologue_end            ; /Applications/Xcode.app/Contents/Developer/Platforms/MacOSX.platform/Developer/SDKs/MacOSX13.1.sdk/usr/include/c++/v1/__memory/compressed_pair.h:41:47
	add	sp, sp, #16
	ret
Ltmp161:
Lfunc_end32:
	.cfi_endproc
                                        ; -- End function
	.p2align	2                               ; -- Begin function _ZNSt3__122__compressed_pair_elemINS_9allocatorIcEELi1ELb1EEC2ENS_18__default_init_tagE
__ZNSt3__122__compressed_pair_elemINS_9allocatorIcEELi1ELb1EEC2ENS_18__default_init_tagE: ; @_ZNSt3__122__compressed_pair_elemINS_9allocatorIcEELi1ELb1EEC2ENS_18__default_init_tagE
Lfunc_begin33:
	.loc	8 82 0                          ; /Applications/Xcode.app/Contents/Developer/Platforms/MacOSX.platform/Developer/SDKs/MacOSX13.1.sdk/usr/include/c++/v1/__memory/compressed_pair.h:82:0
	.cfi_startproc
; %bb.0:
	sub	sp, sp, #48
	stp	x29, x30, [sp, #32]             ; 16-byte Folded Spill
	add	x29, sp, #32
	.cfi_def_cfa w29, 16
	.cfi_offset w30, -8
	.cfi_offset w29, -16
	str	x0, [sp, #16]
	ldr	x0, [sp, #16]
	str	x0, [sp, #8]                    ; 8-byte Folded Spill
Ltmp162:
	.loc	8 82 3 prologue_end             ; /Applications/Xcode.app/Contents/Developer/Platforms/MacOSX.platform/Developer/SDKs/MacOSX13.1.sdk/usr/include/c++/v1/__memory/compressed_pair.h:82:3
	bl	__ZNSt3__19allocatorIcEC2Ev
	ldr	x0, [sp, #8]                    ; 8-byte Folded Reload
	.loc	8 82 47 is_stmt 0               ; /Applications/Xcode.app/Contents/Developer/Platforms/MacOSX.platform/Developer/SDKs/MacOSX13.1.sdk/usr/include/c++/v1/__memory/compressed_pair.h:82:47
	ldp	x29, x30, [sp, #32]             ; 16-byte Folded Reload
	add	sp, sp, #48
	ret
Ltmp163:
Lfunc_end33:
	.cfi_endproc
                                        ; -- End function
	.p2align	2                               ; -- Begin function _ZNSt3__19allocatorIcEC2Ev
__ZNSt3__19allocatorIcEC2Ev:            ; @_ZNSt3__19allocatorIcEC2Ev
Lfunc_begin34:
	.loc	5 94 0 is_stmt 1                ; /Applications/Xcode.app/Contents/Developer/Platforms/MacOSX.platform/Developer/SDKs/MacOSX13.1.sdk/usr/include/c++/v1/__memory/allocator.h:94:0
	.cfi_startproc
; %bb.0:
	sub	sp, sp, #32
	stp	x29, x30, [sp, #16]             ; 16-byte Folded Spill
	add	x29, sp, #16
	.cfi_def_cfa w29, 16
	.cfi_offset w30, -8
	.cfi_offset w29, -16
	str	x0, [sp, #8]
	ldr	x0, [sp, #8]
	str	x0, [sp]                        ; 8-byte Folded Spill
Ltmp164:
	.loc	5 94 5 prologue_end             ; /Applications/Xcode.app/Contents/Developer/Platforms/MacOSX.platform/Developer/SDKs/MacOSX13.1.sdk/usr/include/c++/v1/__memory/allocator.h:94:5
	bl	__ZNSt3__116__non_trivial_ifILb1ENS_9allocatorIcEEEC2Ev
	ldr	x0, [sp]                        ; 8-byte Folded Reload
	.loc	5 94 34 is_stmt 0               ; /Applications/Xcode.app/Contents/Developer/Platforms/MacOSX.platform/Developer/SDKs/MacOSX13.1.sdk/usr/include/c++/v1/__memory/allocator.h:94:34
	ldp	x29, x30, [sp, #16]             ; 16-byte Folded Reload
	add	sp, sp, #32
	ret
Ltmp165:
Lfunc_end34:
	.cfi_endproc
                                        ; -- End function
	.p2align	2                               ; -- Begin function _ZNSt3__116__non_trivial_ifILb1ENS_9allocatorIcEEEC2Ev
__ZNSt3__116__non_trivial_ifILb1ENS_9allocatorIcEEEC2Ev: ; @_ZNSt3__116__non_trivial_ifILb1ENS_9allocatorIcEEEC2Ev
Lfunc_begin35:
	.loc	5 74 0 is_stmt 1                ; /Applications/Xcode.app/Contents/Developer/Platforms/MacOSX.platform/Developer/SDKs/MacOSX13.1.sdk/usr/include/c++/v1/__memory/allocator.h:74:0
	.cfi_startproc
; %bb.0:
	sub	sp, sp, #16
	.cfi_def_cfa_offset 16
	str	x0, [sp, #8]
	ldr	x0, [sp, #8]
Ltmp167:
	.loc	5 74 45 prologue_end            ; /Applications/Xcode.app/Contents/Developer/Platforms/MacOSX.platform/Developer/SDKs/MacOSX13.1.sdk/usr/include/c++/v1/__memory/allocator.h:74:45
	add	sp, sp, #16
	ret
Ltmp168:
Lfunc_end35:
	.cfi_endproc
                                        ; -- End function
	.p2align	2                               ; -- Begin function _ZNSt3__117__compressed_pairINS_12basic_stringIcNS_11char_traitsIcEENS_9allocatorIcEEE5__repES5_E5firstEv
__ZNSt3__117__compressed_pairINS_12basic_stringIcNS_11char_traitsIcEENS_9allocatorIcEEE5__repES5_E5firstEv: ; @_ZNSt3__117__compressed_pairINS_12basic_stringIcNS_11char_traitsIcEENS_9allocatorIcEEE5__repES5_E5firstEv
Lfunc_begin36:
	.loc	8 150 0                         ; /Applications/Xcode.app/Contents/Developer/Platforms/MacOSX.platform/Developer/SDKs/MacOSX13.1.sdk/usr/include/c++/v1/__memory/compressed_pair.h:150:0
	.cfi_startproc
; %bb.0:
	sub	sp, sp, #32
	stp	x29, x30, [sp, #16]             ; 16-byte Folded Spill
	add	x29, sp, #16
	.cfi_def_cfa w29, 16
	.cfi_offset w30, -8
	.cfi_offset w29, -16
	str	x0, [sp, #8]
	ldr	x0, [sp, #8]
Ltmp169:
	.loc	8 151 40 prologue_end           ; /Applications/Xcode.app/Contents/Developer/Platforms/MacOSX.platform/Developer/SDKs/MacOSX13.1.sdk/usr/include/c++/v1/__memory/compressed_pair.h:151:40
	bl	__ZNSt3__122__compressed_pair_elemINS_12basic_stringIcNS_11char_traitsIcEENS_9allocatorIcEEE5__repELi0ELb0EE5__getEv
	.loc	8 151 5 is_stmt 0               ; /Applications/Xcode.app/Contents/Developer/Platforms/MacOSX.platform/Developer/SDKs/MacOSX13.1.sdk/usr/include/c++/v1/__memory/compressed_pair.h:151:5
	ldp	x29, x30, [sp, #16]             ; 16-byte Folded Reload
	add	sp, sp, #32
	ret
Ltmp170:
Lfunc_end36:
	.cfi_endproc
                                        ; -- End function
	.p2align	2                               ; -- Begin function _ZNSt3__122__compressed_pair_elemINS_12basic_stringIcNS_11char_traitsIcEENS_9allocatorIcEEE5__repELi0ELb0EE5__getEv
__ZNSt3__122__compressed_pair_elemINS_12basic_stringIcNS_11char_traitsIcEENS_9allocatorIcEEE5__repELi0ELb0EE5__getEv: ; @_ZNSt3__122__compressed_pair_elemINS_12basic_stringIcNS_11char_traitsIcEENS_9allocatorIcEEE5__repELi0ELb0EE5__getEv
Lfunc_begin37:
	.loc	8 65 0 is_stmt 1                ; /Applications/Xcode.app/Contents/Developer/Platforms/MacOSX.platform/Developer/SDKs/MacOSX13.1.sdk/usr/include/c++/v1/__memory/compressed_pair.h:65:0
	.cfi_startproc
; %bb.0:
	sub	sp, sp, #16
	.cfi_def_cfa_offset 16
	str	x0, [sp, #8]
	ldr	x0, [sp, #8]
Ltmp172:
	.loc	8 65 110 prologue_end           ; /Applications/Xcode.app/Contents/Developer/Platforms/MacOSX.platform/Developer/SDKs/MacOSX13.1.sdk/usr/include/c++/v1/__memory/compressed_pair.h:65:110
	add	sp, sp, #16
	ret
Ltmp173:
Lfunc_end37:
	.cfi_endproc
                                        ; -- End function
	.p2align	2                               ; -- Begin function _ZNSt3__112basic_stringIcNS_11char_traitsIcEENS_9allocatorIcEEE13__get_pointerEv
__ZNSt3__112basic_stringIcNS_11char_traitsIcEENS_9allocatorIcEEE13__get_pointerEv: ; @_ZNSt3__112basic_stringIcNS_11char_traitsIcEENS_9allocatorIcEEE13__get_pointerEv
Lfunc_begin38:
	.loc	6 1578 0                        ; /Applications/Xcode.app/Contents/Developer/Platforms/MacOSX.platform/Developer/SDKs/MacOSX13.1.sdk/usr/include/c++/v1/string:1578:0
	.cfi_startproc
; %bb.0:
	sub	sp, sp, #48
	stp	x29, x30, [sp, #32]             ; 16-byte Folded Spill
	add	x29, sp, #32
	.cfi_def_cfa w29, 16
	.cfi_offset w30, -8
	.cfi_offset w29, -16
	stur	x0, [x29, #-8]
	ldur	x0, [x29, #-8]
	str	x0, [sp, #16]                   ; 8-byte Folded Spill
Ltmp174:
	.loc	6 1578 17 prologue_end          ; /Applications/Xcode.app/Contents/Developer/Platforms/MacOSX.platform/Developer/SDKs/MacOSX13.1.sdk/usr/include/c++/v1/string:1578:17
	bl	__ZNKSt3__112basic_stringIcNS_11char_traitsIcEENS_9allocatorIcEEE9__is_longEv
	tbz	w0, #0, LBB38_2
	b	LBB38_1
LBB38_1:
	.loc	6 0 17 is_stmt 0                ; /Applications/Xcode.app/Contents/Developer/Platforms/MacOSX.platform/Developer/SDKs/MacOSX13.1.sdk/usr/include/c++/v1/string:0:17
	ldr	x0, [sp, #16]                   ; 8-byte Folded Reload
	.loc	6 1578 31                       ; /Applications/Xcode.app/Contents/Developer/Platforms/MacOSX.platform/Developer/SDKs/MacOSX13.1.sdk/usr/include/c++/v1/string:1578:31
	bl	__ZNSt3__112basic_stringIcNS_11char_traitsIcEENS_9allocatorIcEEE18__get_long_pointerEv
	str	x0, [sp, #8]                    ; 8-byte Folded Spill
	.loc	6 1578 17                       ; /Applications/Xcode.app/Contents/Developer/Platforms/MacOSX.platform/Developer/SDKs/MacOSX13.1.sdk/usr/include/c++/v1/string:1578:17
	b	LBB38_3
LBB38_2:
	.loc	6 0 17                          ; /Applications/Xcode.app/Contents/Developer/Platforms/MacOSX.platform/Developer/SDKs/MacOSX13.1.sdk/usr/include/c++/v1/string:0:17
	ldr	x0, [sp, #16]                   ; 8-byte Folded Reload
	.loc	6 1578 54                       ; /Applications/Xcode.app/Contents/Developer/Platforms/MacOSX.platform/Developer/SDKs/MacOSX13.1.sdk/usr/include/c++/v1/string:1578:54
	bl	__ZNSt3__112basic_stringIcNS_11char_traitsIcEENS_9allocatorIcEEE19__get_short_pointerEv
	str	x0, [sp, #8]                    ; 8-byte Folded Spill
	.loc	6 1578 17                       ; /Applications/Xcode.app/Contents/Developer/Platforms/MacOSX.platform/Developer/SDKs/MacOSX13.1.sdk/usr/include/c++/v1/string:1578:17
	b	LBB38_3
LBB38_3:
	.loc	6 0 17                          ; /Applications/Xcode.app/Contents/Developer/Platforms/MacOSX.platform/Developer/SDKs/MacOSX13.1.sdk/usr/include/c++/v1/string:0:17
	ldr	x0, [sp, #8]                    ; 8-byte Folded Reload
	.loc	6 1578 10                       ; /Applications/Xcode.app/Contents/Developer/Platforms/MacOSX.platform/Developer/SDKs/MacOSX13.1.sdk/usr/include/c++/v1/string:1578:10
	ldp	x29, x30, [sp, #32]             ; 16-byte Folded Reload
	add	sp, sp, #48
	ret
Ltmp175:
Lfunc_end38:
	.cfi_endproc
                                        ; -- End function
	.p2align	2                               ; -- Begin function _ZNKSt3__112basic_stringIcNS_11char_traitsIcEENS_9allocatorIcEEE4sizeEv
__ZNKSt3__112basic_stringIcNS_11char_traitsIcEENS_9allocatorIcEEE4sizeEv: ; @_ZNKSt3__112basic_stringIcNS_11char_traitsIcEENS_9allocatorIcEEE4sizeEv
Lfunc_begin39:
	.loc	6 978 0 is_stmt 1               ; /Applications/Xcode.app/Contents/Developer/Platforms/MacOSX.platform/Developer/SDKs/MacOSX13.1.sdk/usr/include/c++/v1/string:978:0
	.cfi_startproc
; %bb.0:
	sub	sp, sp, #48
	stp	x29, x30, [sp, #32]             ; 16-byte Folded Spill
	add	x29, sp, #32
	.cfi_def_cfa w29, 16
	.cfi_offset w30, -8
	.cfi_offset w29, -16
	stur	x0, [x29, #-8]
	ldur	x0, [x29, #-8]
	str	x0, [sp, #16]                   ; 8-byte Folded Spill
Ltmp176:
	.loc	6 978 17 prologue_end           ; /Applications/Xcode.app/Contents/Developer/Platforms/MacOSX.platform/Developer/SDKs/MacOSX13.1.sdk/usr/include/c++/v1/string:978:17
	bl	__ZNKSt3__112basic_stringIcNS_11char_traitsIcEENS_9allocatorIcEEE9__is_longEv
	tbz	w0, #0, LBB39_2
	b	LBB39_1
LBB39_1:
	.loc	6 0 17 is_stmt 0                ; /Applications/Xcode.app/Contents/Developer/Platforms/MacOSX.platform/Developer/SDKs/MacOSX13.1.sdk/usr/include/c++/v1/string:0:17
	ldr	x0, [sp, #16]                   ; 8-byte Folded Reload
	.loc	6 978 31                        ; /Applications/Xcode.app/Contents/Developer/Platforms/MacOSX.platform/Developer/SDKs/MacOSX13.1.sdk/usr/include/c++/v1/string:978:31
	bl	__ZNKSt3__112basic_stringIcNS_11char_traitsIcEENS_9allocatorIcEEE15__get_long_sizeEv
	str	x0, [sp, #8]                    ; 8-byte Folded Spill
	.loc	6 978 17                        ; /Applications/Xcode.app/Contents/Developer/Platforms/MacOSX.platform/Developer/SDKs/MacOSX13.1.sdk/usr/include/c++/v1/string:978:17
	b	LBB39_3
LBB39_2:
	.loc	6 0 17                          ; /Applications/Xcode.app/Contents/Developer/Platforms/MacOSX.platform/Developer/SDKs/MacOSX13.1.sdk/usr/include/c++/v1/string:0:17
	ldr	x0, [sp, #16]                   ; 8-byte Folded Reload
	.loc	6 978 51                        ; /Applications/Xcode.app/Contents/Developer/Platforms/MacOSX.platform/Developer/SDKs/MacOSX13.1.sdk/usr/include/c++/v1/string:978:51
	bl	__ZNKSt3__112basic_stringIcNS_11char_traitsIcEENS_9allocatorIcEEE16__get_short_sizeEv
	str	x0, [sp, #8]                    ; 8-byte Folded Spill
	.loc	6 978 17                        ; /Applications/Xcode.app/Contents/Developer/Platforms/MacOSX.platform/Developer/SDKs/MacOSX13.1.sdk/usr/include/c++/v1/string:978:17
	b	LBB39_3
LBB39_3:
	.loc	6 0 17                          ; /Applications/Xcode.app/Contents/Developer/Platforms/MacOSX.platform/Developer/SDKs/MacOSX13.1.sdk/usr/include/c++/v1/string:0:17
	ldr	x0, [sp, #8]                    ; 8-byte Folded Reload
	.loc	6 978 10                        ; /Applications/Xcode.app/Contents/Developer/Platforms/MacOSX.platform/Developer/SDKs/MacOSX13.1.sdk/usr/include/c++/v1/string:978:10
	ldp	x29, x30, [sp, #32]             ; 16-byte Folded Reload
	add	sp, sp, #48
	ret
Ltmp177:
Lfunc_end39:
	.cfi_endproc
                                        ; -- End function
	.p2align	2                               ; -- Begin function _ZNSt3__111__wrap_iterIPcEC1ES1_
__ZNSt3__111__wrap_iterIPcEC1ES1_:      ; @_ZNSt3__111__wrap_iterIPcEC1ES1_
Lfunc_begin40:
	.loc	11 158 0 is_stmt 1              ; /Applications/Xcode.app/Contents/Developer/Platforms/MacOSX.platform/Developer/SDKs/MacOSX13.1.sdk/usr/include/c++/v1/__iterator/wrap_iter.h:158:0
	.cfi_startproc
; %bb.0:
	sub	sp, sp, #48
	stp	x29, x30, [sp, #32]             ; 16-byte Folded Spill
	add	x29, sp, #32
	.cfi_def_cfa w29, 16
	.cfi_offset w30, -8
	.cfi_offset w29, -16
	stur	x0, [x29, #-8]
	str	x1, [sp, #16]
	ldur	x0, [x29, #-8]
	str	x0, [sp, #8]                    ; 8-byte Folded Spill
Ltmp178:
	.loc	11 158 144 prologue_end         ; /Applications/Xcode.app/Contents/Developer/Platforms/MacOSX.platform/Developer/SDKs/MacOSX13.1.sdk/usr/include/c++/v1/__iterator/wrap_iter.h:158:144
	ldr	x1, [sp, #16]
	bl	__ZNSt3__111__wrap_iterIPcEC2ES1_
	ldr	x0, [sp, #8]                    ; 8-byte Folded Reload
	.loc	11 158 145 is_stmt 0            ; /Applications/Xcode.app/Contents/Developer/Platforms/MacOSX.platform/Developer/SDKs/MacOSX13.1.sdk/usr/include/c++/v1/__iterator/wrap_iter.h:158:145
	ldp	x29, x30, [sp, #32]             ; 16-byte Folded Reload
	add	sp, sp, #48
	ret
Ltmp179:
Lfunc_end40:
	.cfi_endproc
                                        ; -- End function
	.p2align	2                               ; -- Begin function _ZNKSt3__112basic_stringIcNS_11char_traitsIcEENS_9allocatorIcEEE9__is_longEv
__ZNKSt3__112basic_stringIcNS_11char_traitsIcEENS_9allocatorIcEEE9__is_longEv: ; @_ZNKSt3__112basic_stringIcNS_11char_traitsIcEENS_9allocatorIcEEE9__is_longEv
Lfunc_begin41:
	.loc	6 1459 0 is_stmt 1              ; /Applications/Xcode.app/Contents/Developer/Platforms/MacOSX.platform/Developer/SDKs/MacOSX13.1.sdk/usr/include/c++/v1/string:1459:0
	.cfi_startproc
; %bb.0:
	sub	sp, sp, #32
	stp	x29, x30, [sp, #16]             ; 16-byte Folded Spill
	add	x29, sp, #16
	.cfi_def_cfa w29, 16
	.cfi_offset w30, -8
	.cfi_offset w29, -16
	str	x0, [sp, #8]
	ldr	x0, [sp, #8]
Ltmp180:
	.loc	6 1459 27 prologue_end          ; /Applications/Xcode.app/Contents/Developer/Platforms/MacOSX.platform/Developer/SDKs/MacOSX13.1.sdk/usr/include/c++/v1/string:1459:27
	bl	__ZNKSt3__117__compressed_pairINS_12basic_stringIcNS_11char_traitsIcEENS_9allocatorIcEEE5__repES5_E5firstEv
	.loc	6 1459 39 is_stmt 0             ; /Applications/Xcode.app/Contents/Developer/Platforms/MacOSX.platform/Developer/SDKs/MacOSX13.1.sdk/usr/include/c++/v1/string:1459:39
	ldrb	w8, [x0, #23]
                                        ; kill: def $x8 killed $w8
	.loc	6 1459 22                       ; /Applications/Xcode.app/Contents/Developer/Platforms/MacOSX.platform/Developer/SDKs/MacOSX13.1.sdk/usr/include/c++/v1/string:1459:22
	ands	x8, x8, #0x80
	cset	w8, ne
	.loc	6 1459 10                       ; /Applications/Xcode.app/Contents/Developer/Platforms/MacOSX.platform/Developer/SDKs/MacOSX13.1.sdk/usr/include/c++/v1/string:1459:10
	and	w0, w8, #0x1
	ldp	x29, x30, [sp, #16]             ; 16-byte Folded Reload
	add	sp, sp, #32
	ret
Ltmp181:
Lfunc_end41:
	.cfi_endproc
                                        ; -- End function
	.p2align	2                               ; -- Begin function _ZNSt3__112basic_stringIcNS_11char_traitsIcEENS_9allocatorIcEEE18__get_long_pointerEv
__ZNSt3__112basic_stringIcNS_11char_traitsIcEENS_9allocatorIcEEE18__get_long_pointerEv: ; @_ZNSt3__112basic_stringIcNS_11char_traitsIcEENS_9allocatorIcEEE18__get_long_pointerEv
Lfunc_begin42:
	.loc	6 1566 0 is_stmt 1              ; /Applications/Xcode.app/Contents/Developer/Platforms/MacOSX.platform/Developer/SDKs/MacOSX13.1.sdk/usr/include/c++/v1/string:1566:0
	.cfi_startproc
; %bb.0:
	sub	sp, sp, #32
	stp	x29, x30, [sp, #16]             ; 16-byte Folded Spill
	add	x29, sp, #16
	.cfi_def_cfa w29, 16
	.cfi_offset w30, -8
	.cfi_offset w29, -16
	str	x0, [sp, #8]
	ldr	x0, [sp, #8]
Ltmp182:
	.loc	6 1566 22 prologue_end          ; /Applications/Xcode.app/Contents/Developer/Platforms/MacOSX.platform/Developer/SDKs/MacOSX13.1.sdk/usr/include/c++/v1/string:1566:22
	bl	__ZNSt3__117__compressed_pairINS_12basic_stringIcNS_11char_traitsIcEENS_9allocatorIcEEE5__repES5_E5firstEv
	.loc	6 1566 34 is_stmt 0             ; /Applications/Xcode.app/Contents/Developer/Platforms/MacOSX.platform/Developer/SDKs/MacOSX13.1.sdk/usr/include/c++/v1/string:1566:34
	ldr	x0, [x0]
	.loc	6 1566 10                       ; /Applications/Xcode.app/Contents/Developer/Platforms/MacOSX.platform/Developer/SDKs/MacOSX13.1.sdk/usr/include/c++/v1/string:1566:10
	ldp	x29, x30, [sp, #16]             ; 16-byte Folded Reload
	add	sp, sp, #32
	ret
Ltmp183:
Lfunc_end42:
	.cfi_endproc
                                        ; -- End function
	.p2align	2                               ; -- Begin function _ZNSt3__112basic_stringIcNS_11char_traitsIcEENS_9allocatorIcEEE19__get_short_pointerEv
__ZNSt3__112basic_stringIcNS_11char_traitsIcEENS_9allocatorIcEEE19__get_short_pointerEv: ; @_ZNSt3__112basic_stringIcNS_11char_traitsIcEENS_9allocatorIcEEE19__get_short_pointerEv
Lfunc_begin43:
	.loc	6 1572 0 is_stmt 1              ; /Applications/Xcode.app/Contents/Developer/Platforms/MacOSX.platform/Developer/SDKs/MacOSX13.1.sdk/usr/include/c++/v1/string:1572:0
	.cfi_startproc
; %bb.0:
	sub	sp, sp, #32
	stp	x29, x30, [sp, #16]             ; 16-byte Folded Spill
	add	x29, sp, #16
	.cfi_def_cfa w29, 16
	.cfi_offset w30, -8
	.cfi_offset w29, -16
	str	x0, [sp, #8]
	ldr	x0, [sp, #8]
Ltmp184:
	.loc	6 1572 58 prologue_end          ; /Applications/Xcode.app/Contents/Developer/Platforms/MacOSX.platform/Developer/SDKs/MacOSX13.1.sdk/usr/include/c++/v1/string:1572:58
	bl	__ZNSt3__117__compressed_pairINS_12basic_stringIcNS_11char_traitsIcEENS_9allocatorIcEEE5__repES5_E5firstEv
	.loc	6 1572 17 is_stmt 0             ; /Applications/Xcode.app/Contents/Developer/Platforms/MacOSX.platform/Developer/SDKs/MacOSX13.1.sdk/usr/include/c++/v1/string:1572:17
	bl	__ZNSt3__114pointer_traitsIPcE10pointer_toERc
	.loc	6 1572 10                       ; /Applications/Xcode.app/Contents/Developer/Platforms/MacOSX.platform/Developer/SDKs/MacOSX13.1.sdk/usr/include/c++/v1/string:1572:10
	ldp	x29, x30, [sp, #16]             ; 16-byte Folded Reload
	add	sp, sp, #32
	ret
Ltmp185:
Lfunc_end43:
	.cfi_endproc
                                        ; -- End function
	.p2align	2                               ; -- Begin function _ZNKSt3__117__compressed_pairINS_12basic_stringIcNS_11char_traitsIcEENS_9allocatorIcEEE5__repES5_E5firstEv
__ZNKSt3__117__compressed_pairINS_12basic_stringIcNS_11char_traitsIcEENS_9allocatorIcEEE5__repES5_E5firstEv: ; @_ZNKSt3__117__compressed_pairINS_12basic_stringIcNS_11char_traitsIcEENS_9allocatorIcEEE5__repES5_E5firstEv
Lfunc_begin44:
	.loc	8 155 0 is_stmt 1               ; /Applications/Xcode.app/Contents/Developer/Platforms/MacOSX.platform/Developer/SDKs/MacOSX13.1.sdk/usr/include/c++/v1/__memory/compressed_pair.h:155:0
	.cfi_startproc
; %bb.0:
	sub	sp, sp, #32
	stp	x29, x30, [sp, #16]             ; 16-byte Folded Spill
	add	x29, sp, #16
	.cfi_def_cfa w29, 16
	.cfi_offset w30, -8
	.cfi_offset w29, -16
	str	x0, [sp, #8]
	ldr	x0, [sp, #8]
Ltmp186:
	.loc	8 156 46 prologue_end           ; /Applications/Xcode.app/Contents/Developer/Platforms/MacOSX.platform/Developer/SDKs/MacOSX13.1.sdk/usr/include/c++/v1/__memory/compressed_pair.h:156:46
	bl	__ZNKSt3__122__compressed_pair_elemINS_12basic_stringIcNS_11char_traitsIcEENS_9allocatorIcEEE5__repELi0ELb0EE5__getEv
	.loc	8 156 5 is_stmt 0               ; /Applications/Xcode.app/Contents/Developer/Platforms/MacOSX.platform/Developer/SDKs/MacOSX13.1.sdk/usr/include/c++/v1/__memory/compressed_pair.h:156:5
	ldp	x29, x30, [sp, #16]             ; 16-byte Folded Reload
	add	sp, sp, #32
	ret
Ltmp187:
Lfunc_end44:
	.cfi_endproc
                                        ; -- End function
	.p2align	2                               ; -- Begin function _ZNKSt3__122__compressed_pair_elemINS_12basic_stringIcNS_11char_traitsIcEENS_9allocatorIcEEE5__repELi0ELb0EE5__getEv
__ZNKSt3__122__compressed_pair_elemINS_12basic_stringIcNS_11char_traitsIcEENS_9allocatorIcEEE5__repELi0ELb0EE5__getEv: ; @_ZNKSt3__122__compressed_pair_elemINS_12basic_stringIcNS_11char_traitsIcEENS_9allocatorIcEEE5__repELi0ELb0EE5__getEv
Lfunc_begin45:
	.loc	8 67 0 is_stmt 1                ; /Applications/Xcode.app/Contents/Developer/Platforms/MacOSX.platform/Developer/SDKs/MacOSX13.1.sdk/usr/include/c++/v1/__memory/compressed_pair.h:67:0
	.cfi_startproc
; %bb.0:
	sub	sp, sp, #16
	.cfi_def_cfa_offset 16
	str	x0, [sp, #8]
	ldr	x0, [sp, #8]
Ltmp189:
	.loc	8 67 44 prologue_end            ; /Applications/Xcode.app/Contents/Developer/Platforms/MacOSX.platform/Developer/SDKs/MacOSX13.1.sdk/usr/include/c++/v1/__memory/compressed_pair.h:67:44
	add	sp, sp, #16
	ret
Ltmp190:
Lfunc_end45:
	.cfi_endproc
                                        ; -- End function
	.p2align	2                               ; -- Begin function _ZNSt3__114pointer_traitsIPcE10pointer_toERc
__ZNSt3__114pointer_traitsIPcE10pointer_toERc: ; @_ZNSt3__114pointer_traitsIPcE10pointer_toERc
Lfunc_begin46:
	.file	89 "/Applications/Xcode.app/Contents/Developer/Platforms/MacOSX.platform/Developer/SDKs/MacOSX13.1.sdk/usr/include/c++/v1/__memory" "pointer_traits.h"
	.loc	89 154 0                        ; /Applications/Xcode.app/Contents/Developer/Platforms/MacOSX.platform/Developer/SDKs/MacOSX13.1.sdk/usr/include/c++/v1/__memory/pointer_traits.h:154:0
	.cfi_startproc
; %bb.0:
	sub	sp, sp, #32
	stp	x29, x30, [sp, #16]             ; 16-byte Folded Spill
	add	x29, sp, #16
	.cfi_def_cfa w29, 16
	.cfi_offset w30, -8
	.cfi_offset w29, -16
	str	x0, [sp, #8]
Ltmp191:
	.loc	89 154 37 prologue_end          ; /Applications/Xcode.app/Contents/Developer/Platforms/MacOSX.platform/Developer/SDKs/MacOSX13.1.sdk/usr/include/c++/v1/__memory/pointer_traits.h:154:37
	ldr	x0, [sp, #8]
	.loc	89 154 17 is_stmt 0             ; /Applications/Xcode.app/Contents/Developer/Platforms/MacOSX.platform/Developer/SDKs/MacOSX13.1.sdk/usr/include/c++/v1/__memory/pointer_traits.h:154:17
	bl	__ZNSt3__1L9addressofIcEEPT_RS1_
	.loc	89 154 10                       ; /Applications/Xcode.app/Contents/Developer/Platforms/MacOSX.platform/Developer/SDKs/MacOSX13.1.sdk/usr/include/c++/v1/__memory/pointer_traits.h:154:10
	ldp	x29, x30, [sp, #16]             ; 16-byte Folded Reload
	add	sp, sp, #32
	ret
Ltmp192:
Lfunc_end46:
	.cfi_endproc
                                        ; -- End function
	.p2align	2                               ; -- Begin function _ZNSt3__1L9addressofIcEEPT_RS1_
__ZNSt3__1L9addressofIcEEPT_RS1_:       ; @_ZNSt3__1L9addressofIcEEPT_RS1_
Lfunc_begin47:
	.file	90 "/Applications/Xcode.app/Contents/Developer/Platforms/MacOSX.platform/Developer/SDKs/MacOSX13.1.sdk/usr/include/c++/v1/__memory" "addressof.h"
	.loc	90 31 0 is_stmt 1               ; /Applications/Xcode.app/Contents/Developer/Platforms/MacOSX.platform/Developer/SDKs/MacOSX13.1.sdk/usr/include/c++/v1/__memory/addressof.h:31:0
	.cfi_startproc
; %bb.0:
	sub	sp, sp, #16
	.cfi_def_cfa_offset 16
	str	x0, [sp, #8]
Ltmp194:
	.loc	90 32 32 prologue_end           ; /Applications/Xcode.app/Contents/Developer/Platforms/MacOSX.platform/Developer/SDKs/MacOSX13.1.sdk/usr/include/c++/v1/__memory/addressof.h:32:32
	ldr	x0, [sp, #8]
	.loc	90 32 5 is_stmt 0               ; /Applications/Xcode.app/Contents/Developer/Platforms/MacOSX.platform/Developer/SDKs/MacOSX13.1.sdk/usr/include/c++/v1/__memory/addressof.h:32:5
	add	sp, sp, #16
	ret
Ltmp195:
Lfunc_end47:
	.cfi_endproc
                                        ; -- End function
	.p2align	2                               ; -- Begin function _ZNKSt3__112basic_stringIcNS_11char_traitsIcEENS_9allocatorIcEEE15__get_long_sizeEv
__ZNKSt3__112basic_stringIcNS_11char_traitsIcEENS_9allocatorIcEEE15__get_long_sizeEv: ; @_ZNKSt3__112basic_stringIcNS_11char_traitsIcEENS_9allocatorIcEEE15__get_long_sizeEv
Lfunc_begin48:
	.loc	6 1549 0 is_stmt 1              ; /Applications/Xcode.app/Contents/Developer/Platforms/MacOSX.platform/Developer/SDKs/MacOSX13.1.sdk/usr/include/c++/v1/string:1549:0
	.cfi_startproc
; %bb.0:
	sub	sp, sp, #32
	stp	x29, x30, [sp, #16]             ; 16-byte Folded Spill
	add	x29, sp, #16
	.cfi_def_cfa w29, 16
	.cfi_offset w30, -8
	.cfi_offset w29, -16
	str	x0, [sp, #8]
	ldr	x0, [sp, #8]
Ltmp196:
	.loc	6 1549 22 prologue_end          ; /Applications/Xcode.app/Contents/Developer/Platforms/MacOSX.platform/Developer/SDKs/MacOSX13.1.sdk/usr/include/c++/v1/string:1549:22
	bl	__ZNKSt3__117__compressed_pairINS_12basic_stringIcNS_11char_traitsIcEENS_9allocatorIcEEE5__repES5_E5firstEv
	.loc	6 1549 34 is_stmt 0             ; /Applications/Xcode.app/Contents/Developer/Platforms/MacOSX.platform/Developer/SDKs/MacOSX13.1.sdk/usr/include/c++/v1/string:1549:34
	ldr	x0, [x0, #8]
	.loc	6 1549 10                       ; /Applications/Xcode.app/Contents/Developer/Platforms/MacOSX.platform/Developer/SDKs/MacOSX13.1.sdk/usr/include/c++/v1/string:1549:10
	ldp	x29, x30, [sp, #16]             ; 16-byte Folded Reload
	add	sp, sp, #32
	ret
Ltmp197:
Lfunc_end48:
	.cfi_endproc
                                        ; -- End function
	.p2align	2                               ; -- Begin function _ZNKSt3__112basic_stringIcNS_11char_traitsIcEENS_9allocatorIcEEE16__get_short_sizeEv
__ZNKSt3__112basic_stringIcNS_11char_traitsIcEENS_9allocatorIcEEE16__get_short_sizeEv: ; @_ZNKSt3__112basic_stringIcNS_11char_traitsIcEENS_9allocatorIcEEE16__get_short_sizeEv
Lfunc_begin49:
	.loc	6 1521 0 is_stmt 1              ; /Applications/Xcode.app/Contents/Developer/Platforms/MacOSX.platform/Developer/SDKs/MacOSX13.1.sdk/usr/include/c++/v1/string:1521:0
	.cfi_startproc
; %bb.0:
	sub	sp, sp, #32
	stp	x29, x30, [sp, #16]             ; 16-byte Folded Spill
	add	x29, sp, #16
	.cfi_def_cfa w29, 16
	.cfi_offset w30, -8
	.cfi_offset w29, -16
	str	x0, [sp, #8]
	ldr	x0, [sp, #8]
Ltmp198:
	.loc	6 1521 22 prologue_end          ; /Applications/Xcode.app/Contents/Developer/Platforms/MacOSX.platform/Developer/SDKs/MacOSX13.1.sdk/usr/include/c++/v1/string:1521:22
	bl	__ZNKSt3__117__compressed_pairINS_12basic_stringIcNS_11char_traitsIcEENS_9allocatorIcEEE5__repES5_E5firstEv
	.loc	6 1521 34 is_stmt 0             ; /Applications/Xcode.app/Contents/Developer/Platforms/MacOSX.platform/Developer/SDKs/MacOSX13.1.sdk/usr/include/c++/v1/string:1521:34
	ldrb	w8, [x0, #23]
	mov	x0, x8
	.loc	6 1521 10                       ; /Applications/Xcode.app/Contents/Developer/Platforms/MacOSX.platform/Developer/SDKs/MacOSX13.1.sdk/usr/include/c++/v1/string:1521:10
	ldp	x29, x30, [sp, #16]             ; 16-byte Folded Reload
	add	sp, sp, #32
	ret
Ltmp199:
Lfunc_end49:
	.cfi_endproc
                                        ; -- End function
	.p2align	2                               ; -- Begin function _ZNSt3__111__wrap_iterIPcEC2ES1_
__ZNSt3__111__wrap_iterIPcEC2ES1_:      ; @_ZNSt3__111__wrap_iterIPcEC2ES1_
Lfunc_begin50:
	.loc	11 158 0 is_stmt 1              ; /Applications/Xcode.app/Contents/Developer/Platforms/MacOSX.platform/Developer/SDKs/MacOSX13.1.sdk/usr/include/c++/v1/__iterator/wrap_iter.h:158:0
	.cfi_startproc
; %bb.0:
	sub	sp, sp, #16
	.cfi_def_cfa_offset 16
	str	x0, [sp, #8]
	str	x1, [sp]
	ldr	x0, [sp, #8]
Ltmp201:
	.loc	11 158 139 prologue_end         ; /Applications/Xcode.app/Contents/Developer/Platforms/MacOSX.platform/Developer/SDKs/MacOSX13.1.sdk/usr/include/c++/v1/__iterator/wrap_iter.h:158:139
	ldr	x8, [sp]
	.loc	11 158 135 is_stmt 0            ; /Applications/Xcode.app/Contents/Developer/Platforms/MacOSX.platform/Developer/SDKs/MacOSX13.1.sdk/usr/include/c++/v1/__iterator/wrap_iter.h:158:135
	str	x8, [x0]
	.loc	11 158 145                      ; /Applications/Xcode.app/Contents/Developer/Platforms/MacOSX.platform/Developer/SDKs/MacOSX13.1.sdk/usr/include/c++/v1/__iterator/wrap_iter.h:158:145
	add	sp, sp, #16
	ret
Ltmp202:
Lfunc_end50:
	.cfi_endproc
                                        ; -- End function
	.p2align	2                               ; -- Begin function _ZNSt3__1miIPKcPcEEDTmicldtfp_4baseEcldtfp0_4baseEERKNS_11__wrap_iterIT_EERKNS5_IT0_EE
__ZNSt3__1miIPKcPcEEDTmicldtfp_4baseEcldtfp0_4baseEERKNS_11__wrap_iterIT_EERKNS5_IT0_EE: ; @_ZNSt3__1miIPKcPcEEDTmicldtfp_4baseEcldtfp0_4baseEERKNS_11__wrap_iterIT_EERKNS5_IT0_EE
Lfunc_begin51:
	.loc	11 268 0 is_stmt 1              ; /Applications/Xcode.app/Contents/Developer/Platforms/MacOSX.platform/Developer/SDKs/MacOSX13.1.sdk/usr/include/c++/v1/__iterator/wrap_iter.h:268:0
	.cfi_startproc
; %bb.0:
	sub	sp, sp, #48
	stp	x29, x30, [sp, #32]             ; 16-byte Folded Spill
	add	x29, sp, #32
	.cfi_def_cfa w29, 16
	.cfi_offset w30, -8
	.cfi_offset w29, -16
	stur	x0, [x29, #-8]
	str	x1, [sp, #16]
Ltmp203:
	.loc	11 273 12 prologue_end          ; /Applications/Xcode.app/Contents/Developer/Platforms/MacOSX.platform/Developer/SDKs/MacOSX13.1.sdk/usr/include/c++/v1/__iterator/wrap_iter.h:273:12
	ldur	x0, [x29, #-8]
	.loc	11 273 16 is_stmt 0             ; /Applications/Xcode.app/Contents/Developer/Platforms/MacOSX.platform/Developer/SDKs/MacOSX13.1.sdk/usr/include/c++/v1/__iterator/wrap_iter.h:273:16
	bl	__ZNKSt3__111__wrap_iterIPKcE4baseEv
	str	x0, [sp, #8]                    ; 8-byte Folded Spill
	.loc	11 273 25                       ; /Applications/Xcode.app/Contents/Developer/Platforms/MacOSX.platform/Developer/SDKs/MacOSX13.1.sdk/usr/include/c++/v1/__iterator/wrap_iter.h:273:25
	ldr	x0, [sp, #16]
	.loc	11 273 29                       ; /Applications/Xcode.app/Contents/Developer/Platforms/MacOSX.platform/Developer/SDKs/MacOSX13.1.sdk/usr/include/c++/v1/__iterator/wrap_iter.h:273:29
	bl	__ZNKSt3__111__wrap_iterIPcE4baseEv
	mov	x8, x0
	ldr	x0, [sp, #8]                    ; 8-byte Folded Reload
	.loc	11 273 23                       ; /Applications/Xcode.app/Contents/Developer/Platforms/MacOSX.platform/Developer/SDKs/MacOSX13.1.sdk/usr/include/c++/v1/__iterator/wrap_iter.h:273:23
	subs	x0, x0, x8
	.loc	11 273 5                        ; /Applications/Xcode.app/Contents/Developer/Platforms/MacOSX.platform/Developer/SDKs/MacOSX13.1.sdk/usr/include/c++/v1/__iterator/wrap_iter.h:273:5
	ldp	x29, x30, [sp, #32]             ; 16-byte Folded Reload
	add	sp, sp, #48
	ret
Ltmp204:
Lfunc_end51:
	.cfi_endproc
                                        ; -- End function
	.p2align	2                               ; -- Begin function _ZNSt3__112basic_stringIcNS_11char_traitsIcEENS_9allocatorIcEEE5beginEv
__ZNSt3__112basic_stringIcNS_11char_traitsIcEENS_9allocatorIcEEE5beginEv: ; @_ZNSt3__112basic_stringIcNS_11char_traitsIcEENS_9allocatorIcEEE5beginEv
Lfunc_begin52:
	.loc	6 940 0 is_stmt 1               ; /Applications/Xcode.app/Contents/Developer/Platforms/MacOSX.platform/Developer/SDKs/MacOSX13.1.sdk/usr/include/c++/v1/string:940:0
	.cfi_startproc
; %bb.0:
	sub	sp, sp, #32
	stp	x29, x30, [sp, #16]             ; 16-byte Folded Spill
	add	x29, sp, #16
	.cfi_def_cfa w29, 16
	.cfi_offset w30, -8
	.cfi_offset w29, -16
	str	x0, [sp]
	ldr	x0, [sp]
Ltmp205:
	.loc	6 940 26 prologue_end           ; /Applications/Xcode.app/Contents/Developer/Platforms/MacOSX.platform/Developer/SDKs/MacOSX13.1.sdk/usr/include/c++/v1/string:940:26
	bl	__ZNSt3__112basic_stringIcNS_11char_traitsIcEENS_9allocatorIcEEE13__get_pointerEv
	mov	x1, x0
	add	x0, sp, #8
	.loc	6 940 17 is_stmt 0              ; /Applications/Xcode.app/Contents/Developer/Platforms/MacOSX.platform/Developer/SDKs/MacOSX13.1.sdk/usr/include/c++/v1/string:940:17
	bl	__ZNSt3__111__wrap_iterIPcEC1ES1_
	.loc	6 940 10                        ; /Applications/Xcode.app/Contents/Developer/Platforms/MacOSX.platform/Developer/SDKs/MacOSX13.1.sdk/usr/include/c++/v1/string:940:10
	ldr	x0, [sp, #8]
	ldp	x29, x30, [sp, #16]             ; 16-byte Folded Reload
	add	sp, sp, #32
	ret
Ltmp206:
Lfunc_end52:
	.cfi_endproc
                                        ; -- End function
	.p2align	2                               ; -- Begin function _ZNSt3__1L8distanceIPhEENS_15iterator_traitsIT_E15difference_typeES3_S3_
__ZNSt3__1L8distanceIPhEENS_15iterator_traitsIT_E15difference_typeES3_S3_: ; @_ZNSt3__1L8distanceIPhEENS_15iterator_traitsIT_E15difference_typeES3_S3_
Lfunc_begin53:
	.file	91 "/Applications/Xcode.app/Contents/Developer/Platforms/MacOSX.platform/Developer/SDKs/MacOSX13.1.sdk/usr/include/c++/v1/__iterator" "distance.h"
	.loc	91 48 0 is_stmt 1               ; /Applications/Xcode.app/Contents/Developer/Platforms/MacOSX.platform/Developer/SDKs/MacOSX13.1.sdk/usr/include/c++/v1/__iterator/distance.h:48:0
	.cfi_startproc
; %bb.0:
	sub	sp, sp, #48
	stp	x29, x30, [sp, #32]             ; 16-byte Folded Spill
	add	x29, sp, #32
	.cfi_def_cfa w29, 16
	.cfi_offset w30, -8
	.cfi_offset w29, -16
	stur	x0, [x29, #-8]
	str	x1, [sp, #16]
Ltmp207:
	.loc	91 49 33 prologue_end           ; /Applications/Xcode.app/Contents/Developer/Platforms/MacOSX.platform/Developer/SDKs/MacOSX13.1.sdk/usr/include/c++/v1/__iterator/distance.h:49:33
	ldur	x0, [x29, #-8]
	.loc	91 49 42 is_stmt 0              ; /Applications/Xcode.app/Contents/Developer/Platforms/MacOSX.platform/Developer/SDKs/MacOSX13.1.sdk/usr/include/c++/v1/__iterator/distance.h:49:42
	ldr	x1, [sp, #16]
	.loc	91 49 12                        ; /Applications/Xcode.app/Contents/Developer/Platforms/MacOSX.platform/Developer/SDKs/MacOSX13.1.sdk/usr/include/c++/v1/__iterator/distance.h:49:12
	bl	__ZNSt3__1L10__distanceIPhEENS_15iterator_traitsIT_E15difference_typeES3_S3_NS_26random_access_iterator_tagE
	.loc	91 49 5                         ; /Applications/Xcode.app/Contents/Developer/Platforms/MacOSX.platform/Developer/SDKs/MacOSX13.1.sdk/usr/include/c++/v1/__iterator/distance.h:49:5
	ldp	x29, x30, [sp, #32]             ; 16-byte Folded Reload
	add	sp, sp, #48
	ret
Ltmp208:
Lfunc_end53:
	.cfi_endproc
                                        ; -- End function
	.p2align	2                               ; -- Begin function _ZNKSt3__111__wrap_iterIPcEplEl
__ZNKSt3__111__wrap_iterIPcEplEl:       ; @_ZNKSt3__111__wrap_iterIPcEplEl
Lfunc_begin54:
	.loc	11 126 0 is_stmt 1              ; /Applications/Xcode.app/Contents/Developer/Platforms/MacOSX.platform/Developer/SDKs/MacOSX13.1.sdk/usr/include/c++/v1/__iterator/wrap_iter.h:126:0
	.cfi_startproc
; %bb.0:
	sub	sp, sp, #48
	stp	x29, x30, [sp, #32]             ; 16-byte Folded Spill
	add	x29, sp, #32
	.cfi_def_cfa w29, 16
	.cfi_offset w30, -8
	.cfi_offset w29, -16
	str	x0, [sp, #16]
	str	x1, [sp, #8]
	ldr	x8, [sp, #16]
Ltmp209:
	.loc	11 126 22 prologue_end          ; /Applications/Xcode.app/Contents/Developer/Platforms/MacOSX.platform/Developer/SDKs/MacOSX13.1.sdk/usr/include/c++/v1/__iterator/wrap_iter.h:126:22
	ldr	x8, [x8]
	sub	x0, x29, #8
	stur	x8, [x29, #-8]
	.loc	11 126 41 is_stmt 0             ; /Applications/Xcode.app/Contents/Developer/Platforms/MacOSX.platform/Developer/SDKs/MacOSX13.1.sdk/usr/include/c++/v1/__iterator/wrap_iter.h:126:41
	ldr	x1, [sp, #8]
	.loc	11 126 38                       ; /Applications/Xcode.app/Contents/Developer/Platforms/MacOSX.platform/Developer/SDKs/MacOSX13.1.sdk/usr/include/c++/v1/__iterator/wrap_iter.h:126:38
	bl	__ZNSt3__111__wrap_iterIPcEpLEl
	.loc	11 126 46                       ; /Applications/Xcode.app/Contents/Developer/Platforms/MacOSX.platform/Developer/SDKs/MacOSX13.1.sdk/usr/include/c++/v1/__iterator/wrap_iter.h:126:46
	ldur	x0, [x29, #-8]
	ldp	x29, x30, [sp, #32]             ; 16-byte Folded Reload
	add	sp, sp, #48
	ret
Ltmp210:
Lfunc_end54:
	.cfi_endproc
                                        ; -- End function
	.p2align	2                               ; -- Begin function _ZNKSt3__112basic_stringIcNS_11char_traitsIcEENS_9allocatorIcEEE15__addr_in_rangeIRhEEbOT_
__ZNKSt3__112basic_stringIcNS_11char_traitsIcEENS_9allocatorIcEEE15__addr_in_rangeIRhEEbOT_: ; @_ZNKSt3__112basic_stringIcNS_11char_traitsIcEENS_9allocatorIcEEE15__addr_in_rangeIRhEEbOT_
Lfunc_begin55:
	.loc	6 1744 0 is_stmt 1              ; /Applications/Xcode.app/Contents/Developer/Platforms/MacOSX.platform/Developer/SDKs/MacOSX13.1.sdk/usr/include/c++/v1/string:1744:0
	.cfi_startproc
; %bb.0:
	sub	sp, sp, #80
	stp	x29, x30, [sp, #64]             ; 16-byte Folded Spill
	add	x29, sp, #64
	.cfi_def_cfa w29, 16
	.cfi_offset w30, -8
	.cfi_offset w29, -16
	stur	x0, [x29, #-8]
	stur	x1, [x29, #-16]
	ldur	x8, [x29, #-8]
	str	x8, [sp, #24]                   ; 8-byte Folded Spill
Ltmp211:
	.loc	6 1745 56 prologue_end          ; /Applications/Xcode.app/Contents/Developer/Platforms/MacOSX.platform/Developer/SDKs/MacOSX13.1.sdk/usr/include/c++/v1/string:1745:56
	ldur	x0, [x29, #-16]
	.loc	6 1745 36 is_stmt 0             ; /Applications/Xcode.app/Contents/Developer/Platforms/MacOSX.platform/Developer/SDKs/MacOSX13.1.sdk/usr/include/c++/v1/string:1745:36
	bl	__ZNSt3__1L9addressofIhEEPT_RS1_
	mov	x8, x0
	ldr	x0, [sp, #24]                   ; 8-byte Folded Reload
	.loc	6 1745 30                       ; /Applications/Xcode.app/Contents/Developer/Platforms/MacOSX.platform/Developer/SDKs/MacOSX13.1.sdk/usr/include/c++/v1/string:1745:30
	stur	x8, [x29, #-24]
	.loc	6 1746 16 is_stmt 1             ; /Applications/Xcode.app/Contents/Developer/Platforms/MacOSX.platform/Developer/SDKs/MacOSX13.1.sdk/usr/include/c++/v1/string:1746:16
	bl	__ZNKSt3__112basic_stringIcNS_11char_traitsIcEENS_9allocatorIcEEE4dataEv
	.loc	6 1746 26 is_stmt 0             ; /Applications/Xcode.app/Contents/Developer/Platforms/MacOSX.platform/Developer/SDKs/MacOSX13.1.sdk/usr/include/c++/v1/string:1746:26
	ldur	x9, [x29, #-24]
	mov	w8, #0
	.loc	6 1746 30                       ; /Applications/Xcode.app/Contents/Developer/Platforms/MacOSX.platform/Developer/SDKs/MacOSX13.1.sdk/usr/include/c++/v1/string:1746:30
	subs	x9, x0, x9
	stur	w8, [x29, #-28]                 ; 4-byte Folded Spill
	b.hi	LBB55_2
	b	LBB55_1
LBB55_1:
	.loc	6 0 30                          ; /Applications/Xcode.app/Contents/Developer/Platforms/MacOSX.platform/Developer/SDKs/MacOSX13.1.sdk/usr/include/c++/v1/string:0:30
	ldr	x0, [sp, #24]                   ; 8-byte Folded Reload
	.loc	6 1746 33                       ; /Applications/Xcode.app/Contents/Developer/Platforms/MacOSX.platform/Developer/SDKs/MacOSX13.1.sdk/usr/include/c++/v1/string:1746:33
	ldur	x8, [x29, #-24]
	str	x8, [sp, #8]                    ; 8-byte Folded Spill
	.loc	6 1746 40                       ; /Applications/Xcode.app/Contents/Developer/Platforms/MacOSX.platform/Developer/SDKs/MacOSX13.1.sdk/usr/include/c++/v1/string:1746:40
	bl	__ZNKSt3__112basic_stringIcNS_11char_traitsIcEENS_9allocatorIcEEE4dataEv
	mov	x8, x0
	ldr	x0, [sp, #24]                   ; 8-byte Folded Reload
	str	x8, [sp, #16]                   ; 8-byte Folded Spill
	.loc	6 1746 49                       ; /Applications/Xcode.app/Contents/Developer/Platforms/MacOSX.platform/Developer/SDKs/MacOSX13.1.sdk/usr/include/c++/v1/string:1746:49
	bl	__ZNKSt3__112basic_stringIcNS_11char_traitsIcEENS_9allocatorIcEEE4sizeEv
	ldr	x8, [sp, #8]                    ; 8-byte Folded Reload
	mov	x9, x0
	ldr	x0, [sp, #16]                   ; 8-byte Folded Reload
	.loc	6 1746 47                       ; /Applications/Xcode.app/Contents/Developer/Platforms/MacOSX.platform/Developer/SDKs/MacOSX13.1.sdk/usr/include/c++/v1/string:1746:47
	add	x9, x0, x9
	.loc	6 1746 37                       ; /Applications/Xcode.app/Contents/Developer/Platforms/MacOSX.platform/Developer/SDKs/MacOSX13.1.sdk/usr/include/c++/v1/string:1746:37
	subs	x8, x8, x9
	cset	w8, ls
	stur	w8, [x29, #-28]                 ; 4-byte Folded Spill
	b	LBB55_2
LBB55_2:
	.loc	6 0 37                          ; /Applications/Xcode.app/Contents/Developer/Platforms/MacOSX.platform/Developer/SDKs/MacOSX13.1.sdk/usr/include/c++/v1/string:0:37
	ldur	w8, [x29, #-28]                 ; 4-byte Folded Reload
	.loc	6 1746 9                        ; /Applications/Xcode.app/Contents/Developer/Platforms/MacOSX.platform/Developer/SDKs/MacOSX13.1.sdk/usr/include/c++/v1/string:1746:9
	and	w0, w8, #0x1
	ldp	x29, x30, [sp, #64]             ; 16-byte Folded Reload
	add	sp, sp, #80
	ret
Ltmp212:
Lfunc_end55:
	.cfi_endproc
                                        ; -- End function
	.p2align	2                               ; -- Begin function _ZNSt3__112basic_stringIcNS_11char_traitsIcEENS_9allocatorIcEEE23__insert_from_safe_copyIPhEENS_11__wrap_iterIPcEEmmT_SB_
__ZNSt3__112basic_stringIcNS_11char_traitsIcEENS_9allocatorIcEEE23__insert_from_safe_copyIPhEENS_11__wrap_iterIPcEEmmT_SB_: ; @_ZNSt3__112basic_stringIcNS_11char_traitsIcEENS_9allocatorIcEEE23__insert_from_safe_copyIPhEENS_11__wrap_iterIPcEEmmT_SB_
Lfunc_begin56:
	.loc	6 1478 0 is_stmt 1              ; /Applications/Xcode.app/Contents/Developer/Platforms/MacOSX.platform/Developer/SDKs/MacOSX13.1.sdk/usr/include/c++/v1/string:1478:0
	.cfi_startproc
; %bb.0:
	sub	sp, sp, #128
	stp	x29, x30, [sp, #112]            ; 16-byte Folded Spill
	add	x29, sp, #112
	.cfi_def_cfa w29, 16
	.cfi_offset w30, -8
	.cfi_offset w29, -16
	stur	x0, [x29, #-16]
	stur	x1, [x29, #-24]
	stur	x2, [x29, #-32]
	stur	x3, [x29, #-40]
	stur	x4, [x29, #-48]
	ldur	x0, [x29, #-16]
	str	x0, [sp, #8]                    ; 8-byte Folded Spill
Ltmp213:
	.loc	6 1479 26 prologue_end          ; /Applications/Xcode.app/Contents/Developer/Platforms/MacOSX.platform/Developer/SDKs/MacOSX13.1.sdk/usr/include/c++/v1/string:1479:26
	bl	__ZNKSt3__112basic_stringIcNS_11char_traitsIcEENS_9allocatorIcEEE4sizeEv
	mov	x8, x0
	ldr	x0, [sp, #8]                    ; 8-byte Folded Reload
	.loc	6 1479 19 is_stmt 0             ; /Applications/Xcode.app/Contents/Developer/Platforms/MacOSX.platform/Developer/SDKs/MacOSX13.1.sdk/usr/include/c++/v1/string:1479:19
	str	x8, [sp, #56]
	.loc	6 1480 27 is_stmt 1             ; /Applications/Xcode.app/Contents/Developer/Platforms/MacOSX.platform/Developer/SDKs/MacOSX13.1.sdk/usr/include/c++/v1/string:1480:27
	bl	__ZNKSt3__112basic_stringIcNS_11char_traitsIcEENS_9allocatorIcEEE8capacityEv
	.loc	6 1480 19 is_stmt 0             ; /Applications/Xcode.app/Contents/Developer/Platforms/MacOSX.platform/Developer/SDKs/MacOSX13.1.sdk/usr/include/c++/v1/string:1480:19
	str	x0, [sp, #48]
Ltmp214:
	.loc	6 1482 13 is_stmt 1             ; /Applications/Xcode.app/Contents/Developer/Platforms/MacOSX.platform/Developer/SDKs/MacOSX13.1.sdk/usr/include/c++/v1/string:1482:13
	ldr	x8, [sp, #48]
	.loc	6 1482 21 is_stmt 0             ; /Applications/Xcode.app/Contents/Developer/Platforms/MacOSX.platform/Developer/SDKs/MacOSX13.1.sdk/usr/include/c++/v1/string:1482:21
	ldr	x9, [sp, #56]
	.loc	6 1482 19                       ; /Applications/Xcode.app/Contents/Developer/Platforms/MacOSX.platform/Developer/SDKs/MacOSX13.1.sdk/usr/include/c++/v1/string:1482:19
	subs	x8, x8, x9
	.loc	6 1482 29                       ; /Applications/Xcode.app/Contents/Developer/Platforms/MacOSX.platform/Developer/SDKs/MacOSX13.1.sdk/usr/include/c++/v1/string:1482:29
	ldur	x9, [x29, #-24]
Ltmp215:
	.loc	6 1482 13                       ; /Applications/Xcode.app/Contents/Developer/Platforms/MacOSX.platform/Developer/SDKs/MacOSX13.1.sdk/usr/include/c++/v1/string:1482:13
	subs	x8, x8, x9
	b.lo	LBB56_4
	b	LBB56_1
LBB56_1:
	.loc	6 0 13                          ; /Applications/Xcode.app/Contents/Developer/Platforms/MacOSX.platform/Developer/SDKs/MacOSX13.1.sdk/usr/include/c++/v1/string:0:13
	ldr	x0, [sp, #8]                    ; 8-byte Folded Reload
Ltmp216:
	.loc	6 1484 37 is_stmt 1             ; /Applications/Xcode.app/Contents/Developer/Platforms/MacOSX.platform/Developer/SDKs/MacOSX13.1.sdk/usr/include/c++/v1/string:1484:37
	bl	__ZNSt3__112basic_stringIcNS_11char_traitsIcEENS_9allocatorIcEEE13__get_pointerEv
	.loc	6 1484 19 is_stmt 0             ; /Applications/Xcode.app/Contents/Developer/Platforms/MacOSX.platform/Developer/SDKs/MacOSX13.1.sdk/usr/include/c++/v1/string:1484:19
	bl	__ZNSt3__1L12__to_addressIcEEPT_S2_
	.loc	6 1484 17                       ; /Applications/Xcode.app/Contents/Developer/Platforms/MacOSX.platform/Developer/SDKs/MacOSX13.1.sdk/usr/include/c++/v1/string:1484:17
	str	x0, [sp, #40]
	.loc	6 1485 34 is_stmt 1             ; /Applications/Xcode.app/Contents/Developer/Platforms/MacOSX.platform/Developer/SDKs/MacOSX13.1.sdk/usr/include/c++/v1/string:1485:34
	ldr	x8, [sp, #56]
	.loc	6 1485 41 is_stmt 0             ; /Applications/Xcode.app/Contents/Developer/Platforms/MacOSX.platform/Developer/SDKs/MacOSX13.1.sdk/usr/include/c++/v1/string:1485:41
	ldur	x9, [x29, #-32]
	.loc	6 1485 39                       ; /Applications/Xcode.app/Contents/Developer/Platforms/MacOSX.platform/Developer/SDKs/MacOSX13.1.sdk/usr/include/c++/v1/string:1485:39
	subs	x8, x8, x9
	.loc	6 1485 23                       ; /Applications/Xcode.app/Contents/Developer/Platforms/MacOSX.platform/Developer/SDKs/MacOSX13.1.sdk/usr/include/c++/v1/string:1485:23
	str	x8, [sp, #32]
Ltmp217:
	.loc	6 1486 17 is_stmt 1             ; /Applications/Xcode.app/Contents/Developer/Platforms/MacOSX.platform/Developer/SDKs/MacOSX13.1.sdk/usr/include/c++/v1/string:1486:17
	ldr	x8, [sp, #32]
Ltmp218:
	.loc	6 1486 17 is_stmt 0             ; /Applications/Xcode.app/Contents/Developer/Platforms/MacOSX.platform/Developer/SDKs/MacOSX13.1.sdk/usr/include/c++/v1/string:1486:17
	cbz	x8, LBB56_3
	b	LBB56_2
LBB56_2:
Ltmp219:
	.loc	6 1487 35 is_stmt 1             ; /Applications/Xcode.app/Contents/Developer/Platforms/MacOSX.platform/Developer/SDKs/MacOSX13.1.sdk/usr/include/c++/v1/string:1487:35
	ldr	x8, [sp, #40]
	.loc	6 1487 41 is_stmt 0             ; /Applications/Xcode.app/Contents/Developer/Platforms/MacOSX.platform/Developer/SDKs/MacOSX13.1.sdk/usr/include/c++/v1/string:1487:41
	ldur	x9, [x29, #-32]
	.loc	6 1487 39                       ; /Applications/Xcode.app/Contents/Developer/Platforms/MacOSX.platform/Developer/SDKs/MacOSX13.1.sdk/usr/include/c++/v1/string:1487:39
	add	x8, x8, x9
	.loc	6 1487 48                       ; /Applications/Xcode.app/Contents/Developer/Platforms/MacOSX.platform/Developer/SDKs/MacOSX13.1.sdk/usr/include/c++/v1/string:1487:48
	ldur	x9, [x29, #-24]
	.loc	6 1487 46                       ; /Applications/Xcode.app/Contents/Developer/Platforms/MacOSX.platform/Developer/SDKs/MacOSX13.1.sdk/usr/include/c++/v1/string:1487:46
	add	x0, x8, x9
	.loc	6 1487 53                       ; /Applications/Xcode.app/Contents/Developer/Platforms/MacOSX.platform/Developer/SDKs/MacOSX13.1.sdk/usr/include/c++/v1/string:1487:53
	ldr	x8, [sp, #40]
	.loc	6 1487 59                       ; /Applications/Xcode.app/Contents/Developer/Platforms/MacOSX.platform/Developer/SDKs/MacOSX13.1.sdk/usr/include/c++/v1/string:1487:59
	ldur	x9, [x29, #-32]
	.loc	6 1487 57                       ; /Applications/Xcode.app/Contents/Developer/Platforms/MacOSX.platform/Developer/SDKs/MacOSX13.1.sdk/usr/include/c++/v1/string:1487:57
	add	x1, x8, x9
	.loc	6 1487 65                       ; /Applications/Xcode.app/Contents/Developer/Platforms/MacOSX.platform/Developer/SDKs/MacOSX13.1.sdk/usr/include/c++/v1/string:1487:65
	ldr	x2, [sp, #32]
	.loc	6 1487 17                       ; /Applications/Xcode.app/Contents/Developer/Platforms/MacOSX.platform/Developer/SDKs/MacOSX13.1.sdk/usr/include/c++/v1/string:1487:17
	bl	__ZNSt3__111char_traitsIcE4moveEPcPKcm
	b	LBB56_3
Ltmp220:
LBB56_3:
	.loc	6 1488 9 is_stmt 1              ; /Applications/Xcode.app/Contents/Developer/Platforms/MacOSX.platform/Developer/SDKs/MacOSX13.1.sdk/usr/include/c++/v1/string:1488:9
	b	LBB56_5
Ltmp221:
LBB56_4:
	.loc	6 0 9 is_stmt 0                 ; /Applications/Xcode.app/Contents/Developer/Platforms/MacOSX.platform/Developer/SDKs/MacOSX13.1.sdk/usr/include/c++/v1/string:0:9
	ldr	x0, [sp, #8]                    ; 8-byte Folded Reload
Ltmp222:
	.loc	6 1491 23 is_stmt 1             ; /Applications/Xcode.app/Contents/Developer/Platforms/MacOSX.platform/Developer/SDKs/MacOSX13.1.sdk/usr/include/c++/v1/string:1491:23
	ldr	x1, [sp, #48]
	.loc	6 1491 30 is_stmt 0             ; /Applications/Xcode.app/Contents/Developer/Platforms/MacOSX.platform/Developer/SDKs/MacOSX13.1.sdk/usr/include/c++/v1/string:1491:30
	ldr	x8, [sp, #56]
	.loc	6 1491 37                       ; /Applications/Xcode.app/Contents/Developer/Platforms/MacOSX.platform/Developer/SDKs/MacOSX13.1.sdk/usr/include/c++/v1/string:1491:37
	ldur	x9, [x29, #-24]
	.loc	6 1491 35                       ; /Applications/Xcode.app/Contents/Developer/Platforms/MacOSX.platform/Developer/SDKs/MacOSX13.1.sdk/usr/include/c++/v1/string:1491:35
	add	x8, x8, x9
	.loc	6 1491 43                       ; /Applications/Xcode.app/Contents/Developer/Platforms/MacOSX.platform/Developer/SDKs/MacOSX13.1.sdk/usr/include/c++/v1/string:1491:43
	ldr	x9, [sp, #48]
	.loc	6 1491 41                       ; /Applications/Xcode.app/Contents/Developer/Platforms/MacOSX.platform/Developer/SDKs/MacOSX13.1.sdk/usr/include/c++/v1/string:1491:41
	subs	x2, x8, x9
	.loc	6 1491 50                       ; /Applications/Xcode.app/Contents/Developer/Platforms/MacOSX.platform/Developer/SDKs/MacOSX13.1.sdk/usr/include/c++/v1/string:1491:50
	ldr	x3, [sp, #56]
	.loc	6 1491 56                       ; /Applications/Xcode.app/Contents/Developer/Platforms/MacOSX.platform/Developer/SDKs/MacOSX13.1.sdk/usr/include/c++/v1/string:1491:56
	ldur	x4, [x29, #-32]
	.loc	6 1491 65                       ; /Applications/Xcode.app/Contents/Developer/Platforms/MacOSX.platform/Developer/SDKs/MacOSX13.1.sdk/usr/include/c++/v1/string:1491:65
	ldur	x6, [x29, #-24]
	mov	x5, #0
	.loc	6 1491 13                       ; /Applications/Xcode.app/Contents/Developer/Platforms/MacOSX.platform/Developer/SDKs/MacOSX13.1.sdk/usr/include/c++/v1/string:1491:13
	bl	__ZNSt3__112basic_stringIcNS_11char_traitsIcEENS_9allocatorIcEEE9__grow_byEmmmmmm
	ldr	x0, [sp, #8]                    ; 8-byte Folded Reload
	.loc	6 1492 37 is_stmt 1             ; /Applications/Xcode.app/Contents/Developer/Platforms/MacOSX.platform/Developer/SDKs/MacOSX13.1.sdk/usr/include/c++/v1/string:1492:37
	bl	__ZNSt3__112basic_stringIcNS_11char_traitsIcEENS_9allocatorIcEEE18__get_long_pointerEv
	.loc	6 1492 19 is_stmt 0             ; /Applications/Xcode.app/Contents/Developer/Platforms/MacOSX.platform/Developer/SDKs/MacOSX13.1.sdk/usr/include/c++/v1/string:1492:19
	bl	__ZNSt3__1L12__to_addressIcEEPT_S2_
	.loc	6 1492 17                       ; /Applications/Xcode.app/Contents/Developer/Platforms/MacOSX.platform/Developer/SDKs/MacOSX13.1.sdk/usr/include/c++/v1/string:1492:17
	str	x0, [sp, #40]
	b	LBB56_5
Ltmp223:
LBB56_5:
	.loc	6 0 17                          ; /Applications/Xcode.app/Contents/Developer/Platforms/MacOSX.platform/Developer/SDKs/MacOSX13.1.sdk/usr/include/c++/v1/string:0:17
	ldr	x0, [sp, #8]                    ; 8-byte Folded Reload
	.loc	6 1494 17 is_stmt 1             ; /Applications/Xcode.app/Contents/Developer/Platforms/MacOSX.platform/Developer/SDKs/MacOSX13.1.sdk/usr/include/c++/v1/string:1494:17
	ldur	x9, [x29, #-24]
	.loc	6 1494 14 is_stmt 0             ; /Applications/Xcode.app/Contents/Developer/Platforms/MacOSX.platform/Developer/SDKs/MacOSX13.1.sdk/usr/include/c++/v1/string:1494:14
	ldr	x8, [sp, #56]
	add	x8, x8, x9
	str	x8, [sp, #56]
	.loc	6 1495 20 is_stmt 1             ; /Applications/Xcode.app/Contents/Developer/Platforms/MacOSX.platform/Developer/SDKs/MacOSX13.1.sdk/usr/include/c++/v1/string:1495:20
	ldr	x1, [sp, #56]
	.loc	6 1495 9 is_stmt 0              ; /Applications/Xcode.app/Contents/Developer/Platforms/MacOSX.platform/Developer/SDKs/MacOSX13.1.sdk/usr/include/c++/v1/string:1495:9
	bl	__ZNSt3__112basic_stringIcNS_11char_traitsIcEENS_9allocatorIcEEE10__set_sizeEm
	.loc	6 1496 29 is_stmt 1             ; /Applications/Xcode.app/Contents/Developer/Platforms/MacOSX.platform/Developer/SDKs/MacOSX13.1.sdk/usr/include/c++/v1/string:1496:29
	ldr	x8, [sp, #40]
	.loc	6 1496 33 is_stmt 0             ; /Applications/Xcode.app/Contents/Developer/Platforms/MacOSX.platform/Developer/SDKs/MacOSX13.1.sdk/usr/include/c++/v1/string:1496:33
	ldr	x9, [sp, #56]
	.loc	6 1496 29                       ; /Applications/Xcode.app/Contents/Developer/Platforms/MacOSX.platform/Developer/SDKs/MacOSX13.1.sdk/usr/include/c++/v1/string:1496:29
	add	x0, x8, x9
	add	x1, sp, #31
	.loc	6 1496 40                       ; /Applications/Xcode.app/Contents/Developer/Platforms/MacOSX.platform/Developer/SDKs/MacOSX13.1.sdk/usr/include/c++/v1/string:1496:40
	strb	wzr, [sp, #31]
	.loc	6 1496 9                        ; /Applications/Xcode.app/Contents/Developer/Platforms/MacOSX.platform/Developer/SDKs/MacOSX13.1.sdk/usr/include/c++/v1/string:1496:9
	bl	__ZNSt3__111char_traitsIcE6assignERcRKc
Ltmp224:
	.loc	6 1497 21 is_stmt 1             ; /Applications/Xcode.app/Contents/Developer/Platforms/MacOSX.platform/Developer/SDKs/MacOSX13.1.sdk/usr/include/c++/v1/string:1497:21
	ldur	x9, [x29, #-32]
	.loc	6 1497 18 is_stmt 0             ; /Applications/Xcode.app/Contents/Developer/Platforms/MacOSX.platform/Developer/SDKs/MacOSX13.1.sdk/usr/include/c++/v1/string:1497:18
	ldr	x8, [sp, #40]
	add	x8, x8, x9
	str	x8, [sp, #40]
	.loc	6 1497 14                       ; /Applications/Xcode.app/Contents/Developer/Platforms/MacOSX.platform/Developer/SDKs/MacOSX13.1.sdk/usr/include/c++/v1/string:1497:14
	b	LBB56_6
LBB56_6:                                ; =>This Inner Loop Header: Depth=1
Ltmp225:
	.loc	6 1497 27                       ; /Applications/Xcode.app/Contents/Developer/Platforms/MacOSX.platform/Developer/SDKs/MacOSX13.1.sdk/usr/include/c++/v1/string:1497:27
	ldur	x8, [x29, #-40]
	.loc	6 1497 38                       ; /Applications/Xcode.app/Contents/Developer/Platforms/MacOSX.platform/Developer/SDKs/MacOSX13.1.sdk/usr/include/c++/v1/string:1497:38
	ldur	x9, [x29, #-48]
Ltmp226:
	.loc	6 1497 9                        ; /Applications/Xcode.app/Contents/Developer/Platforms/MacOSX.platform/Developer/SDKs/MacOSX13.1.sdk/usr/include/c++/v1/string:1497:9
	subs	x8, x8, x9
	b.eq	LBB56_9
	b	LBB56_7
LBB56_7:                                ;   in Loop: Header=BB56_6 Depth=1
Ltmp227:
	.loc	6 1498 34 is_stmt 1             ; /Applications/Xcode.app/Contents/Developer/Platforms/MacOSX.platform/Developer/SDKs/MacOSX13.1.sdk/usr/include/c++/v1/string:1498:34
	ldr	x0, [sp, #40]
	.loc	6 1498 40 is_stmt 0             ; /Applications/Xcode.app/Contents/Developer/Platforms/MacOSX.platform/Developer/SDKs/MacOSX13.1.sdk/usr/include/c++/v1/string:1498:40
	ldur	x8, [x29, #-40]
	.loc	6 1498 39                       ; /Applications/Xcode.app/Contents/Developer/Platforms/MacOSX.platform/Developer/SDKs/MacOSX13.1.sdk/usr/include/c++/v1/string:1498:39
	ldrb	w8, [x8]
	add	x1, sp, #30
	strb	w8, [sp, #30]
	.loc	6 1498 13                       ; /Applications/Xcode.app/Contents/Developer/Platforms/MacOSX.platform/Developer/SDKs/MacOSX13.1.sdk/usr/include/c++/v1/string:1498:13
	bl	__ZNSt3__111char_traitsIcE6assignERcRKc
	b	LBB56_8
LBB56_8:                                ;   in Loop: Header=BB56_6 Depth=1
	.loc	6 1497 46 is_stmt 1             ; /Applications/Xcode.app/Contents/Developer/Platforms/MacOSX.platform/Developer/SDKs/MacOSX13.1.sdk/usr/include/c++/v1/string:1497:46
	ldr	x8, [sp, #40]
	add	x8, x8, #1
	str	x8, [sp, #40]
	.loc	6 1497 53 is_stmt 0             ; /Applications/Xcode.app/Contents/Developer/Platforms/MacOSX.platform/Developer/SDKs/MacOSX13.1.sdk/usr/include/c++/v1/string:1497:53
	ldur	x8, [x29, #-40]
	add	x8, x8, #1
	stur	x8, [x29, #-40]
	.loc	6 1497 9                        ; /Applications/Xcode.app/Contents/Developer/Platforms/MacOSX.platform/Developer/SDKs/MacOSX13.1.sdk/usr/include/c++/v1/string:1497:9
	b	LBB56_6
Ltmp228:
LBB56_9:
	.loc	6 0 9                           ; /Applications/Xcode.app/Contents/Developer/Platforms/MacOSX.platform/Developer/SDKs/MacOSX13.1.sdk/usr/include/c++/v1/string:0:9
	ldr	x0, [sp, #8]                    ; 8-byte Folded Reload
	.loc	6 1500 16 is_stmt 1             ; /Applications/Xcode.app/Contents/Developer/Platforms/MacOSX.platform/Developer/SDKs/MacOSX13.1.sdk/usr/include/c++/v1/string:1500:16
	bl	__ZNSt3__112basic_stringIcNS_11char_traitsIcEENS_9allocatorIcEEE5beginEv
	mov	x8, x0
	add	x0, sp, #16
	str	x8, [sp, #16]
	.loc	6 1500 26 is_stmt 0             ; /Applications/Xcode.app/Contents/Developer/Platforms/MacOSX.platform/Developer/SDKs/MacOSX13.1.sdk/usr/include/c++/v1/string:1500:26
	ldur	x1, [x29, #-32]
	.loc	6 1500 24                       ; /Applications/Xcode.app/Contents/Developer/Platforms/MacOSX.platform/Developer/SDKs/MacOSX13.1.sdk/usr/include/c++/v1/string:1500:24
	bl	__ZNKSt3__111__wrap_iterIPcEplEl
	stur	x0, [x29, #-8]
	.loc	6 1500 9                        ; /Applications/Xcode.app/Contents/Developer/Platforms/MacOSX.platform/Developer/SDKs/MacOSX13.1.sdk/usr/include/c++/v1/string:1500:9
	ldur	x0, [x29, #-8]
	ldp	x29, x30, [sp, #112]            ; 16-byte Folded Reload
	add	sp, sp, #128
	ret
Ltmp229:
Lfunc_end56:
	.cfi_endproc
                                        ; -- End function
	.p2align	2                               ; -- Begin function _ZNSt3__112basic_stringIcNS_11char_traitsIcEENS_9allocatorIcEEE7__allocEv
__ZNSt3__112basic_stringIcNS_11char_traitsIcEENS_9allocatorIcEEE7__allocEv: ; @_ZNSt3__112basic_stringIcNS_11char_traitsIcEENS_9allocatorIcEEE7__allocEv
Lfunc_begin57:
	.loc	6 1503 0 is_stmt 1              ; /Applications/Xcode.app/Contents/Developer/Platforms/MacOSX.platform/Developer/SDKs/MacOSX13.1.sdk/usr/include/c++/v1/string:1503:0
	.cfi_startproc
; %bb.0:
	sub	sp, sp, #32
	stp	x29, x30, [sp, #16]             ; 16-byte Folded Spill
	add	x29, sp, #16
	.cfi_def_cfa w29, 16
	.cfi_offset w30, -8
	.cfi_offset w29, -16
	str	x0, [sp, #8]
	ldr	x0, [sp, #8]
Ltmp230:
	.loc	6 1503 132 prologue_end         ; /Applications/Xcode.app/Contents/Developer/Platforms/MacOSX.platform/Developer/SDKs/MacOSX13.1.sdk/usr/include/c++/v1/string:1503:132
	bl	__ZNSt3__117__compressed_pairINS_12basic_stringIcNS_11char_traitsIcEENS_9allocatorIcEEE5__repES5_E6secondEv
	.loc	6 1503 120 is_stmt 0            ; /Applications/Xcode.app/Contents/Developer/Platforms/MacOSX.platform/Developer/SDKs/MacOSX13.1.sdk/usr/include/c++/v1/string:1503:120
	ldp	x29, x30, [sp, #16]             ; 16-byte Folded Reload
	add	sp, sp, #32
	ret
Ltmp231:
Lfunc_end57:
	.cfi_endproc
                                        ; -- End function
	.p2align	2                               ; -- Begin function _ZNSt3__112basic_stringIcNS_11char_traitsIcEENS_9allocatorIcEEEC1IPhvEET_S8_RKS4_
__ZNSt3__112basic_stringIcNS_11char_traitsIcEENS_9allocatorIcEEEC1IPhvEET_S8_RKS4_: ; @_ZNSt3__112basic_stringIcNS_11char_traitsIcEENS_9allocatorIcEEEC1IPhvEET_S8_RKS4_
Lfunc_begin58:
	.loc	6 2260 0 is_stmt 1              ; /Applications/Xcode.app/Contents/Developer/Platforms/MacOSX.platform/Developer/SDKs/MacOSX13.1.sdk/usr/include/c++/v1/string:2260:0
	.cfi_startproc
; %bb.0:
	sub	sp, sp, #64
	stp	x29, x30, [sp, #48]             ; 16-byte Folded Spill
	add	x29, sp, #48
	.cfi_def_cfa w29, 16
	.cfi_offset w30, -8
	.cfi_offset w29, -16
	stur	x0, [x29, #-8]
	stur	x1, [x29, #-16]
	str	x2, [sp, #24]
	str	x3, [sp, #16]
	ldur	x0, [x29, #-8]
	str	x0, [sp, #8]                    ; 8-byte Folded Spill
Ltmp232:
	.loc	6 2260 1 prologue_end           ; /Applications/Xcode.app/Contents/Developer/Platforms/MacOSX.platform/Developer/SDKs/MacOSX13.1.sdk/usr/include/c++/v1/string:2260:1
	ldur	x1, [x29, #-16]
	ldr	x2, [sp, #24]
	ldr	x3, [sp, #16]
	bl	__ZNSt3__112basic_stringIcNS_11char_traitsIcEENS_9allocatorIcEEEC2IPhvEET_S8_RKS4_
	ldr	x0, [sp, #8]                    ; 8-byte Folded Reload
	.loc	6 2265 1                        ; /Applications/Xcode.app/Contents/Developer/Platforms/MacOSX.platform/Developer/SDKs/MacOSX13.1.sdk/usr/include/c++/v1/string:2265:1
	ldp	x29, x30, [sp, #48]             ; 16-byte Folded Reload
	add	sp, sp, #64
	ret
Ltmp233:
Lfunc_end58:
	.cfi_endproc
                                        ; -- End function
	.p2align	2                               ; -- Begin function _ZNSt3__112basic_stringIcNS_11char_traitsIcEENS_9allocatorIcEEE23__insert_from_safe_copyINS_11__wrap_iterIPKcEEEENS7_IPcEEmmT_SD_
__ZNSt3__112basic_stringIcNS_11char_traitsIcEENS_9allocatorIcEEE23__insert_from_safe_copyINS_11__wrap_iterIPKcEEEENS7_IPcEEmmT_SD_: ; @_ZNSt3__112basic_stringIcNS_11char_traitsIcEENS_9allocatorIcEEE23__insert_from_safe_copyINS_11__wrap_iterIPKcEEEENS7_IPcEEmmT_SD_
Lfunc_begin59:
	.loc	6 1478 0                        ; /Applications/Xcode.app/Contents/Developer/Platforms/MacOSX.platform/Developer/SDKs/MacOSX13.1.sdk/usr/include/c++/v1/string:1478:0
	.cfi_startproc
; %bb.0:
	sub	sp, sp, #128
	stp	x29, x30, [sp, #112]            ; 16-byte Folded Spill
	add	x29, sp, #112
	.cfi_def_cfa w29, 16
	.cfi_offset w30, -8
	.cfi_offset w29, -16
	stur	x3, [x29, #-16]
	stur	x4, [x29, #-24]
	stur	x0, [x29, #-32]
	stur	x1, [x29, #-40]
	stur	x2, [x29, #-48]
	ldur	x0, [x29, #-32]
	str	x0, [sp, #8]                    ; 8-byte Folded Spill
Ltmp234:
	.loc	6 1479 26 prologue_end          ; /Applications/Xcode.app/Contents/Developer/Platforms/MacOSX.platform/Developer/SDKs/MacOSX13.1.sdk/usr/include/c++/v1/string:1479:26
	bl	__ZNKSt3__112basic_stringIcNS_11char_traitsIcEENS_9allocatorIcEEE4sizeEv
	mov	x8, x0
	ldr	x0, [sp, #8]                    ; 8-byte Folded Reload
	.loc	6 1479 19 is_stmt 0             ; /Applications/Xcode.app/Contents/Developer/Platforms/MacOSX.platform/Developer/SDKs/MacOSX13.1.sdk/usr/include/c++/v1/string:1479:19
	str	x8, [sp, #56]
	.loc	6 1480 27 is_stmt 1             ; /Applications/Xcode.app/Contents/Developer/Platforms/MacOSX.platform/Developer/SDKs/MacOSX13.1.sdk/usr/include/c++/v1/string:1480:27
	bl	__ZNKSt3__112basic_stringIcNS_11char_traitsIcEENS_9allocatorIcEEE8capacityEv
	.loc	6 1480 19 is_stmt 0             ; /Applications/Xcode.app/Contents/Developer/Platforms/MacOSX.platform/Developer/SDKs/MacOSX13.1.sdk/usr/include/c++/v1/string:1480:19
	str	x0, [sp, #48]
Ltmp235:
	.loc	6 1482 13 is_stmt 1             ; /Applications/Xcode.app/Contents/Developer/Platforms/MacOSX.platform/Developer/SDKs/MacOSX13.1.sdk/usr/include/c++/v1/string:1482:13
	ldr	x8, [sp, #48]
	.loc	6 1482 21 is_stmt 0             ; /Applications/Xcode.app/Contents/Developer/Platforms/MacOSX.platform/Developer/SDKs/MacOSX13.1.sdk/usr/include/c++/v1/string:1482:21
	ldr	x9, [sp, #56]
	.loc	6 1482 19                       ; /Applications/Xcode.app/Contents/Developer/Platforms/MacOSX.platform/Developer/SDKs/MacOSX13.1.sdk/usr/include/c++/v1/string:1482:19
	subs	x8, x8, x9
	.loc	6 1482 29                       ; /Applications/Xcode.app/Contents/Developer/Platforms/MacOSX.platform/Developer/SDKs/MacOSX13.1.sdk/usr/include/c++/v1/string:1482:29
	ldur	x9, [x29, #-40]
Ltmp236:
	.loc	6 1482 13                       ; /Applications/Xcode.app/Contents/Developer/Platforms/MacOSX.platform/Developer/SDKs/MacOSX13.1.sdk/usr/include/c++/v1/string:1482:13
	subs	x8, x8, x9
	b.lo	LBB59_4
	b	LBB59_1
LBB59_1:
	.loc	6 0 13                          ; /Applications/Xcode.app/Contents/Developer/Platforms/MacOSX.platform/Developer/SDKs/MacOSX13.1.sdk/usr/include/c++/v1/string:0:13
	ldr	x0, [sp, #8]                    ; 8-byte Folded Reload
Ltmp237:
	.loc	6 1484 37 is_stmt 1             ; /Applications/Xcode.app/Contents/Developer/Platforms/MacOSX.platform/Developer/SDKs/MacOSX13.1.sdk/usr/include/c++/v1/string:1484:37
	bl	__ZNSt3__112basic_stringIcNS_11char_traitsIcEENS_9allocatorIcEEE13__get_pointerEv
	.loc	6 1484 19 is_stmt 0             ; /Applications/Xcode.app/Contents/Developer/Platforms/MacOSX.platform/Developer/SDKs/MacOSX13.1.sdk/usr/include/c++/v1/string:1484:19
	bl	__ZNSt3__1L12__to_addressIcEEPT_S2_
	.loc	6 1484 17                       ; /Applications/Xcode.app/Contents/Developer/Platforms/MacOSX.platform/Developer/SDKs/MacOSX13.1.sdk/usr/include/c++/v1/string:1484:17
	str	x0, [sp, #40]
	.loc	6 1485 34 is_stmt 1             ; /Applications/Xcode.app/Contents/Developer/Platforms/MacOSX.platform/Developer/SDKs/MacOSX13.1.sdk/usr/include/c++/v1/string:1485:34
	ldr	x8, [sp, #56]
	.loc	6 1485 41 is_stmt 0             ; /Applications/Xcode.app/Contents/Developer/Platforms/MacOSX.platform/Developer/SDKs/MacOSX13.1.sdk/usr/include/c++/v1/string:1485:41
	ldur	x9, [x29, #-48]
	.loc	6 1485 39                       ; /Applications/Xcode.app/Contents/Developer/Platforms/MacOSX.platform/Developer/SDKs/MacOSX13.1.sdk/usr/include/c++/v1/string:1485:39
	subs	x8, x8, x9
	.loc	6 1485 23                       ; /Applications/Xcode.app/Contents/Developer/Platforms/MacOSX.platform/Developer/SDKs/MacOSX13.1.sdk/usr/include/c++/v1/string:1485:23
	str	x8, [sp, #32]
Ltmp238:
	.loc	6 1486 17 is_stmt 1             ; /Applications/Xcode.app/Contents/Developer/Platforms/MacOSX.platform/Developer/SDKs/MacOSX13.1.sdk/usr/include/c++/v1/string:1486:17
	ldr	x8, [sp, #32]
Ltmp239:
	.loc	6 1486 17 is_stmt 0             ; /Applications/Xcode.app/Contents/Developer/Platforms/MacOSX.platform/Developer/SDKs/MacOSX13.1.sdk/usr/include/c++/v1/string:1486:17
	cbz	x8, LBB59_3
	b	LBB59_2
LBB59_2:
Ltmp240:
	.loc	6 1487 35 is_stmt 1             ; /Applications/Xcode.app/Contents/Developer/Platforms/MacOSX.platform/Developer/SDKs/MacOSX13.1.sdk/usr/include/c++/v1/string:1487:35
	ldr	x8, [sp, #40]
	.loc	6 1487 41 is_stmt 0             ; /Applications/Xcode.app/Contents/Developer/Platforms/MacOSX.platform/Developer/SDKs/MacOSX13.1.sdk/usr/include/c++/v1/string:1487:41
	ldur	x9, [x29, #-48]
	.loc	6 1487 39                       ; /Applications/Xcode.app/Contents/Developer/Platforms/MacOSX.platform/Developer/SDKs/MacOSX13.1.sdk/usr/include/c++/v1/string:1487:39
	add	x8, x8, x9
	.loc	6 1487 48                       ; /Applications/Xcode.app/Contents/Developer/Platforms/MacOSX.platform/Developer/SDKs/MacOSX13.1.sdk/usr/include/c++/v1/string:1487:48
	ldur	x9, [x29, #-40]
	.loc	6 1487 46                       ; /Applications/Xcode.app/Contents/Developer/Platforms/MacOSX.platform/Developer/SDKs/MacOSX13.1.sdk/usr/include/c++/v1/string:1487:46
	add	x0, x8, x9
	.loc	6 1487 53                       ; /Applications/Xcode.app/Contents/Developer/Platforms/MacOSX.platform/Developer/SDKs/MacOSX13.1.sdk/usr/include/c++/v1/string:1487:53
	ldr	x8, [sp, #40]
	.loc	6 1487 59                       ; /Applications/Xcode.app/Contents/Developer/Platforms/MacOSX.platform/Developer/SDKs/MacOSX13.1.sdk/usr/include/c++/v1/string:1487:59
	ldur	x9, [x29, #-48]
	.loc	6 1487 57                       ; /Applications/Xcode.app/Contents/Developer/Platforms/MacOSX.platform/Developer/SDKs/MacOSX13.1.sdk/usr/include/c++/v1/string:1487:57
	add	x1, x8, x9
	.loc	6 1487 65                       ; /Applications/Xcode.app/Contents/Developer/Platforms/MacOSX.platform/Developer/SDKs/MacOSX13.1.sdk/usr/include/c++/v1/string:1487:65
	ldr	x2, [sp, #32]
	.loc	6 1487 17                       ; /Applications/Xcode.app/Contents/Developer/Platforms/MacOSX.platform/Developer/SDKs/MacOSX13.1.sdk/usr/include/c++/v1/string:1487:17
	bl	__ZNSt3__111char_traitsIcE4moveEPcPKcm
	b	LBB59_3
Ltmp241:
LBB59_3:
	.loc	6 1488 9 is_stmt 1              ; /Applications/Xcode.app/Contents/Developer/Platforms/MacOSX.platform/Developer/SDKs/MacOSX13.1.sdk/usr/include/c++/v1/string:1488:9
	b	LBB59_5
Ltmp242:
LBB59_4:
	.loc	6 0 9 is_stmt 0                 ; /Applications/Xcode.app/Contents/Developer/Platforms/MacOSX.platform/Developer/SDKs/MacOSX13.1.sdk/usr/include/c++/v1/string:0:9
	ldr	x0, [sp, #8]                    ; 8-byte Folded Reload
Ltmp243:
	.loc	6 1491 23 is_stmt 1             ; /Applications/Xcode.app/Contents/Developer/Platforms/MacOSX.platform/Developer/SDKs/MacOSX13.1.sdk/usr/include/c++/v1/string:1491:23
	ldr	x1, [sp, #48]
	.loc	6 1491 30 is_stmt 0             ; /Applications/Xcode.app/Contents/Developer/Platforms/MacOSX.platform/Developer/SDKs/MacOSX13.1.sdk/usr/include/c++/v1/string:1491:30
	ldr	x8, [sp, #56]
	.loc	6 1491 37                       ; /Applications/Xcode.app/Contents/Developer/Platforms/MacOSX.platform/Developer/SDKs/MacOSX13.1.sdk/usr/include/c++/v1/string:1491:37
	ldur	x9, [x29, #-40]
	.loc	6 1491 35                       ; /Applications/Xcode.app/Contents/Developer/Platforms/MacOSX.platform/Developer/SDKs/MacOSX13.1.sdk/usr/include/c++/v1/string:1491:35
	add	x8, x8, x9
	.loc	6 1491 43                       ; /Applications/Xcode.app/Contents/Developer/Platforms/MacOSX.platform/Developer/SDKs/MacOSX13.1.sdk/usr/include/c++/v1/string:1491:43
	ldr	x9, [sp, #48]
	.loc	6 1491 41                       ; /Applications/Xcode.app/Contents/Developer/Platforms/MacOSX.platform/Developer/SDKs/MacOSX13.1.sdk/usr/include/c++/v1/string:1491:41
	subs	x2, x8, x9
	.loc	6 1491 50                       ; /Applications/Xcode.app/Contents/Developer/Platforms/MacOSX.platform/Developer/SDKs/MacOSX13.1.sdk/usr/include/c++/v1/string:1491:50
	ldr	x3, [sp, #56]
	.loc	6 1491 56                       ; /Applications/Xcode.app/Contents/Developer/Platforms/MacOSX.platform/Developer/SDKs/MacOSX13.1.sdk/usr/include/c++/v1/string:1491:56
	ldur	x4, [x29, #-48]
	.loc	6 1491 65                       ; /Applications/Xcode.app/Contents/Developer/Platforms/MacOSX.platform/Developer/SDKs/MacOSX13.1.sdk/usr/include/c++/v1/string:1491:65
	ldur	x6, [x29, #-40]
	mov	x5, #0
	.loc	6 1491 13                       ; /Applications/Xcode.app/Contents/Developer/Platforms/MacOSX.platform/Developer/SDKs/MacOSX13.1.sdk/usr/include/c++/v1/string:1491:13
	bl	__ZNSt3__112basic_stringIcNS_11char_traitsIcEENS_9allocatorIcEEE9__grow_byEmmmmmm
	ldr	x0, [sp, #8]                    ; 8-byte Folded Reload
	.loc	6 1492 37 is_stmt 1             ; /Applications/Xcode.app/Contents/Developer/Platforms/MacOSX.platform/Developer/SDKs/MacOSX13.1.sdk/usr/include/c++/v1/string:1492:37
	bl	__ZNSt3__112basic_stringIcNS_11char_traitsIcEENS_9allocatorIcEEE18__get_long_pointerEv
	.loc	6 1492 19 is_stmt 0             ; /Applications/Xcode.app/Contents/Developer/Platforms/MacOSX.platform/Developer/SDKs/MacOSX13.1.sdk/usr/include/c++/v1/string:1492:19
	bl	__ZNSt3__1L12__to_addressIcEEPT_S2_
	.loc	6 1492 17                       ; /Applications/Xcode.app/Contents/Developer/Platforms/MacOSX.platform/Developer/SDKs/MacOSX13.1.sdk/usr/include/c++/v1/string:1492:17
	str	x0, [sp, #40]
	b	LBB59_5
Ltmp244:
LBB59_5:
	.loc	6 0 17                          ; /Applications/Xcode.app/Contents/Developer/Platforms/MacOSX.platform/Developer/SDKs/MacOSX13.1.sdk/usr/include/c++/v1/string:0:17
	ldr	x0, [sp, #8]                    ; 8-byte Folded Reload
	.loc	6 1494 17 is_stmt 1             ; /Applications/Xcode.app/Contents/Developer/Platforms/MacOSX.platform/Developer/SDKs/MacOSX13.1.sdk/usr/include/c++/v1/string:1494:17
	ldur	x9, [x29, #-40]
	.loc	6 1494 14 is_stmt 0             ; /Applications/Xcode.app/Contents/Developer/Platforms/MacOSX.platform/Developer/SDKs/MacOSX13.1.sdk/usr/include/c++/v1/string:1494:14
	ldr	x8, [sp, #56]
	add	x8, x8, x9
	str	x8, [sp, #56]
	.loc	6 1495 20 is_stmt 1             ; /Applications/Xcode.app/Contents/Developer/Platforms/MacOSX.platform/Developer/SDKs/MacOSX13.1.sdk/usr/include/c++/v1/string:1495:20
	ldr	x1, [sp, #56]
	.loc	6 1495 9 is_stmt 0              ; /Applications/Xcode.app/Contents/Developer/Platforms/MacOSX.platform/Developer/SDKs/MacOSX13.1.sdk/usr/include/c++/v1/string:1495:9
	bl	__ZNSt3__112basic_stringIcNS_11char_traitsIcEENS_9allocatorIcEEE10__set_sizeEm
	.loc	6 1496 29 is_stmt 1             ; /Applications/Xcode.app/Contents/Developer/Platforms/MacOSX.platform/Developer/SDKs/MacOSX13.1.sdk/usr/include/c++/v1/string:1496:29
	ldr	x8, [sp, #40]
	.loc	6 1496 33 is_stmt 0             ; /Applications/Xcode.app/Contents/Developer/Platforms/MacOSX.platform/Developer/SDKs/MacOSX13.1.sdk/usr/include/c++/v1/string:1496:33
	ldr	x9, [sp, #56]
	.loc	6 1496 29                       ; /Applications/Xcode.app/Contents/Developer/Platforms/MacOSX.platform/Developer/SDKs/MacOSX13.1.sdk/usr/include/c++/v1/string:1496:29
	add	x0, x8, x9
	add	x1, sp, #31
	.loc	6 1496 40                       ; /Applications/Xcode.app/Contents/Developer/Platforms/MacOSX.platform/Developer/SDKs/MacOSX13.1.sdk/usr/include/c++/v1/string:1496:40
	strb	wzr, [sp, #31]
	.loc	6 1496 9                        ; /Applications/Xcode.app/Contents/Developer/Platforms/MacOSX.platform/Developer/SDKs/MacOSX13.1.sdk/usr/include/c++/v1/string:1496:9
	bl	__ZNSt3__111char_traitsIcE6assignERcRKc
Ltmp245:
	.loc	6 1497 21 is_stmt 1             ; /Applications/Xcode.app/Contents/Developer/Platforms/MacOSX.platform/Developer/SDKs/MacOSX13.1.sdk/usr/include/c++/v1/string:1497:21
	ldur	x9, [x29, #-48]
	.loc	6 1497 18 is_stmt 0             ; /Applications/Xcode.app/Contents/Developer/Platforms/MacOSX.platform/Developer/SDKs/MacOSX13.1.sdk/usr/include/c++/v1/string:1497:18
	ldr	x8, [sp, #40]
	add	x8, x8, x9
	str	x8, [sp, #40]
	.loc	6 1497 14                       ; /Applications/Xcode.app/Contents/Developer/Platforms/MacOSX.platform/Developer/SDKs/MacOSX13.1.sdk/usr/include/c++/v1/string:1497:14
	b	LBB59_6
LBB59_6:                                ; =>This Inner Loop Header: Depth=1
	.loc	6 0 14                          ; /Applications/Xcode.app/Contents/Developer/Platforms/MacOSX.platform/Developer/SDKs/MacOSX13.1.sdk/usr/include/c++/v1/string:0:14
	sub	x0, x29, #16
	sub	x1, x29, #24
Ltmp246:
	.loc	6 1497 35                       ; /Applications/Xcode.app/Contents/Developer/Platforms/MacOSX.platform/Developer/SDKs/MacOSX13.1.sdk/usr/include/c++/v1/string:1497:35
	bl	__ZNSt3__1neIPKcEEbRKNS_11__wrap_iterIT_EES7_
Ltmp247:
	.loc	6 1497 9                        ; /Applications/Xcode.app/Contents/Developer/Platforms/MacOSX.platform/Developer/SDKs/MacOSX13.1.sdk/usr/include/c++/v1/string:1497:9
	tbz	w0, #0, LBB59_9
	b	LBB59_7
LBB59_7:                                ;   in Loop: Header=BB59_6 Depth=1
Ltmp248:
	.loc	6 1498 34 is_stmt 1             ; /Applications/Xcode.app/Contents/Developer/Platforms/MacOSX.platform/Developer/SDKs/MacOSX13.1.sdk/usr/include/c++/v1/string:1498:34
	ldr	x8, [sp, #40]
	str	x8, [sp]                        ; 8-byte Folded Spill
	sub	x0, x29, #16
	.loc	6 1498 39 is_stmt 0             ; /Applications/Xcode.app/Contents/Developer/Platforms/MacOSX.platform/Developer/SDKs/MacOSX13.1.sdk/usr/include/c++/v1/string:1498:39
	bl	__ZNKSt3__111__wrap_iterIPKcEdeEv
	mov	x1, x0
	ldr	x0, [sp]                        ; 8-byte Folded Reload
	.loc	6 1498 13                       ; /Applications/Xcode.app/Contents/Developer/Platforms/MacOSX.platform/Developer/SDKs/MacOSX13.1.sdk/usr/include/c++/v1/string:1498:13
	bl	__ZNSt3__111char_traitsIcE6assignERcRKc
	b	LBB59_8
LBB59_8:                                ;   in Loop: Header=BB59_6 Depth=1
	.loc	6 1497 46 is_stmt 1             ; /Applications/Xcode.app/Contents/Developer/Platforms/MacOSX.platform/Developer/SDKs/MacOSX13.1.sdk/usr/include/c++/v1/string:1497:46
	ldr	x8, [sp, #40]
	add	x8, x8, #1
	str	x8, [sp, #40]
	sub	x0, x29, #16
	.loc	6 1497 53 is_stmt 0             ; /Applications/Xcode.app/Contents/Developer/Platforms/MacOSX.platform/Developer/SDKs/MacOSX13.1.sdk/usr/include/c++/v1/string:1497:53
	bl	__ZNSt3__111__wrap_iterIPKcEppEv
	.loc	6 1497 9                        ; /Applications/Xcode.app/Contents/Developer/Platforms/MacOSX.platform/Developer/SDKs/MacOSX13.1.sdk/usr/include/c++/v1/string:1497:9
	b	LBB59_6
Ltmp249:
LBB59_9:
	.loc	6 0 9                           ; /Applications/Xcode.app/Contents/Developer/Platforms/MacOSX.platform/Developer/SDKs/MacOSX13.1.sdk/usr/include/c++/v1/string:0:9
	ldr	x0, [sp, #8]                    ; 8-byte Folded Reload
	.loc	6 1500 16 is_stmt 1             ; /Applications/Xcode.app/Contents/Developer/Platforms/MacOSX.platform/Developer/SDKs/MacOSX13.1.sdk/usr/include/c++/v1/string:1500:16
	bl	__ZNSt3__112basic_stringIcNS_11char_traitsIcEENS_9allocatorIcEEE5beginEv
	mov	x8, x0
	add	x0, sp, #16
	str	x8, [sp, #16]
	.loc	6 1500 26 is_stmt 0             ; /Applications/Xcode.app/Contents/Developer/Platforms/MacOSX.platform/Developer/SDKs/MacOSX13.1.sdk/usr/include/c++/v1/string:1500:26
	ldur	x1, [x29, #-48]
	.loc	6 1500 24                       ; /Applications/Xcode.app/Contents/Developer/Platforms/MacOSX.platform/Developer/SDKs/MacOSX13.1.sdk/usr/include/c++/v1/string:1500:24
	bl	__ZNKSt3__111__wrap_iterIPcEplEl
	stur	x0, [x29, #-8]
	.loc	6 1500 9                        ; /Applications/Xcode.app/Contents/Developer/Platforms/MacOSX.platform/Developer/SDKs/MacOSX13.1.sdk/usr/include/c++/v1/string:1500:9
	ldur	x0, [x29, #-8]
	ldp	x29, x30, [sp, #112]            ; 16-byte Folded Reload
	add	sp, sp, #128
	ret
Ltmp250:
Lfunc_end59:
	.cfi_endproc
                                        ; -- End function
	.p2align	2                               ; -- Begin function _ZNKSt3__112basic_stringIcNS_11char_traitsIcEENS_9allocatorIcEEE5beginEv
__ZNKSt3__112basic_stringIcNS_11char_traitsIcEENS_9allocatorIcEEE5beginEv: ; @_ZNKSt3__112basic_stringIcNS_11char_traitsIcEENS_9allocatorIcEEE5beginEv
Lfunc_begin60:
	.loc	6 943 0 is_stmt 1               ; /Applications/Xcode.app/Contents/Developer/Platforms/MacOSX.platform/Developer/SDKs/MacOSX13.1.sdk/usr/include/c++/v1/string:943:0
	.cfi_startproc
; %bb.0:
	sub	sp, sp, #32
	stp	x29, x30, [sp, #16]             ; 16-byte Folded Spill
	add	x29, sp, #16
	.cfi_def_cfa w29, 16
	.cfi_offset w30, -8
	.cfi_offset w29, -16
	str	x0, [sp]
	ldr	x0, [sp]
Ltmp251:
	.loc	6 943 32 prologue_end           ; /Applications/Xcode.app/Contents/Developer/Platforms/MacOSX.platform/Developer/SDKs/MacOSX13.1.sdk/usr/include/c++/v1/string:943:32
	bl	__ZNKSt3__112basic_stringIcNS_11char_traitsIcEENS_9allocatorIcEEE13__get_pointerEv
	mov	x1, x0
	add	x0, sp, #8
	.loc	6 943 17 is_stmt 0              ; /Applications/Xcode.app/Contents/Developer/Platforms/MacOSX.platform/Developer/SDKs/MacOSX13.1.sdk/usr/include/c++/v1/string:943:17
	bl	__ZNSt3__111__wrap_iterIPKcEC1ES2_
	.loc	6 943 10                        ; /Applications/Xcode.app/Contents/Developer/Platforms/MacOSX.platform/Developer/SDKs/MacOSX13.1.sdk/usr/include/c++/v1/string:943:10
	ldr	x0, [sp, #8]
	ldp	x29, x30, [sp, #16]             ; 16-byte Folded Reload
	add	sp, sp, #32
	ret
Ltmp252:
Lfunc_end60:
	.cfi_endproc
                                        ; -- End function
	.p2align	2                               ; -- Begin function _ZNKSt3__112basic_stringIcNS_11char_traitsIcEENS_9allocatorIcEEE3endEv
__ZNKSt3__112basic_stringIcNS_11char_traitsIcEENS_9allocatorIcEEE3endEv: ; @_ZNKSt3__112basic_stringIcNS_11char_traitsIcEENS_9allocatorIcEEE3endEv
Lfunc_begin61:
	.loc	6 949 0 is_stmt 1               ; /Applications/Xcode.app/Contents/Developer/Platforms/MacOSX.platform/Developer/SDKs/MacOSX13.1.sdk/usr/include/c++/v1/string:949:0
	.cfi_startproc
; %bb.0:
	sub	sp, sp, #48
	stp	x29, x30, [sp, #32]             ; 16-byte Folded Spill
	add	x29, sp, #32
	.cfi_def_cfa w29, 16
	.cfi_offset w30, -8
	.cfi_offset w29, -16
	str	x0, [sp, #16]
	ldr	x0, [sp, #16]
	str	x0, [sp]                        ; 8-byte Folded Spill
Ltmp253:
	.loc	6 949 32 prologue_end           ; /Applications/Xcode.app/Contents/Developer/Platforms/MacOSX.platform/Developer/SDKs/MacOSX13.1.sdk/usr/include/c++/v1/string:949:32
	bl	__ZNKSt3__112basic_stringIcNS_11char_traitsIcEENS_9allocatorIcEEE13__get_pointerEv
	mov	x8, x0
	ldr	x0, [sp]                        ; 8-byte Folded Reload
	str	x8, [sp, #8]                    ; 8-byte Folded Spill
	.loc	6 949 50 is_stmt 0              ; /Applications/Xcode.app/Contents/Developer/Platforms/MacOSX.platform/Developer/SDKs/MacOSX13.1.sdk/usr/include/c++/v1/string:949:50
	bl	__ZNKSt3__112basic_stringIcNS_11char_traitsIcEENS_9allocatorIcEEE4sizeEv
	ldr	x8, [sp, #8]                    ; 8-byte Folded Reload
	mov	x9, x0
	sub	x0, x29, #8
	.loc	6 949 48                        ; /Applications/Xcode.app/Contents/Developer/Platforms/MacOSX.platform/Developer/SDKs/MacOSX13.1.sdk/usr/include/c++/v1/string:949:48
	add	x1, x8, x9
	.loc	6 949 17                        ; /Applications/Xcode.app/Contents/Developer/Platforms/MacOSX.platform/Developer/SDKs/MacOSX13.1.sdk/usr/include/c++/v1/string:949:17
	bl	__ZNSt3__111__wrap_iterIPKcEC1ES2_
	.loc	6 949 10                        ; /Applications/Xcode.app/Contents/Developer/Platforms/MacOSX.platform/Developer/SDKs/MacOSX13.1.sdk/usr/include/c++/v1/string:949:10
	ldur	x0, [x29, #-8]
	ldp	x29, x30, [sp, #32]             ; 16-byte Folded Reload
	add	sp, sp, #48
	ret
Ltmp254:
Lfunc_end61:
	.cfi_endproc
                                        ; -- End function
	.p2align	2                               ; -- Begin function _ZNKSt3__111__wrap_iterIPKcE4baseEv
__ZNKSt3__111__wrap_iterIPKcE4baseEv:   ; @_ZNKSt3__111__wrap_iterIPKcE4baseEv
Lfunc_begin62:
	.loc	11 149 0 is_stmt 1              ; /Applications/Xcode.app/Contents/Developer/Platforms/MacOSX.platform/Developer/SDKs/MacOSX13.1.sdk/usr/include/c++/v1/__iterator/wrap_iter.h:149:0
	.cfi_startproc
; %bb.0:
	sub	sp, sp, #16
	.cfi_def_cfa_offset 16
	str	x0, [sp, #8]
	ldr	x8, [sp, #8]
Ltmp256:
	.loc	11 149 137 prologue_end         ; /Applications/Xcode.app/Contents/Developer/Platforms/MacOSX.platform/Developer/SDKs/MacOSX13.1.sdk/usr/include/c++/v1/__iterator/wrap_iter.h:149:137
	ldr	x0, [x8]
	.loc	11 149 130 is_stmt 0            ; /Applications/Xcode.app/Contents/Developer/Platforms/MacOSX.platform/Developer/SDKs/MacOSX13.1.sdk/usr/include/c++/v1/__iterator/wrap_iter.h:149:130
	add	sp, sp, #16
	ret
Ltmp257:
Lfunc_end62:
	.cfi_endproc
                                        ; -- End function
	.p2align	2                               ; -- Begin function _ZNSt3__1L10__distanceIPhEENS_15iterator_traitsIT_E15difference_typeES3_S3_NS_26random_access_iterator_tagE
__ZNSt3__1L10__distanceIPhEENS_15iterator_traitsIT_E15difference_typeES3_S3_NS_26random_access_iterator_tagE: ; @_ZNSt3__1L10__distanceIPhEENS_15iterator_traitsIT_E15difference_typeES3_S3_NS_26random_access_iterator_tagE
Lfunc_begin63:
	.loc	91 40 0 is_stmt 1               ; /Applications/Xcode.app/Contents/Developer/Platforms/MacOSX.platform/Developer/SDKs/MacOSX13.1.sdk/usr/include/c++/v1/__iterator/distance.h:40:0
	.cfi_startproc
; %bb.0:
	sub	sp, sp, #32
	.cfi_def_cfa_offset 32
	str	x0, [sp, #16]
	str	x1, [sp, #8]
Ltmp259:
	.loc	91 41 12 prologue_end           ; /Applications/Xcode.app/Contents/Developer/Platforms/MacOSX.platform/Developer/SDKs/MacOSX13.1.sdk/usr/include/c++/v1/__iterator/distance.h:41:12
	ldr	x8, [sp, #8]
	.loc	91 41 21 is_stmt 0              ; /Applications/Xcode.app/Contents/Developer/Platforms/MacOSX.platform/Developer/SDKs/MacOSX13.1.sdk/usr/include/c++/v1/__iterator/distance.h:41:21
	ldr	x9, [sp, #16]
	.loc	91 41 19                        ; /Applications/Xcode.app/Contents/Developer/Platforms/MacOSX.platform/Developer/SDKs/MacOSX13.1.sdk/usr/include/c++/v1/__iterator/distance.h:41:19
	subs	x0, x8, x9
	.loc	91 41 5                         ; /Applications/Xcode.app/Contents/Developer/Platforms/MacOSX.platform/Developer/SDKs/MacOSX13.1.sdk/usr/include/c++/v1/__iterator/distance.h:41:5
	add	sp, sp, #32
	ret
Ltmp260:
Lfunc_end63:
	.cfi_endproc
                                        ; -- End function
	.p2align	2                               ; -- Begin function _ZNSt3__111__wrap_iterIPcEpLEl
__ZNSt3__111__wrap_iterIPcEpLEl:        ; @_ZNSt3__111__wrap_iterIPcEpLEl
Lfunc_begin64:
	.loc	11 128 0 is_stmt 1              ; /Applications/Xcode.app/Contents/Developer/Platforms/MacOSX.platform/Developer/SDKs/MacOSX13.1.sdk/usr/include/c++/v1/__iterator/wrap_iter.h:128:0
	.cfi_startproc
; %bb.0:
	sub	sp, sp, #16
	.cfi_def_cfa_offset 16
	str	x0, [sp, #8]
	str	x1, [sp]
	ldr	x0, [sp, #8]
Ltmp262:
	.loc	11 133 16 prologue_end          ; /Applications/Xcode.app/Contents/Developer/Platforms/MacOSX.platform/Developer/SDKs/MacOSX13.1.sdk/usr/include/c++/v1/__iterator/wrap_iter.h:133:16
	ldr	x9, [sp]
	.loc	11 133 13 is_stmt 0             ; /Applications/Xcode.app/Contents/Developer/Platforms/MacOSX.platform/Developer/SDKs/MacOSX13.1.sdk/usr/include/c++/v1/__iterator/wrap_iter.h:133:13
	ldr	x8, [x0]
	add	x8, x8, x9
	str	x8, [x0]
	.loc	11 134 9 is_stmt 1              ; /Applications/Xcode.app/Contents/Developer/Platforms/MacOSX.platform/Developer/SDKs/MacOSX13.1.sdk/usr/include/c++/v1/__iterator/wrap_iter.h:134:9
	add	sp, sp, #16
	ret
Ltmp263:
Lfunc_end64:
	.cfi_endproc
                                        ; -- End function
	.p2align	2                               ; -- Begin function _ZNSt3__1L9addressofIhEEPT_RS1_
__ZNSt3__1L9addressofIhEEPT_RS1_:       ; @_ZNSt3__1L9addressofIhEEPT_RS1_
Lfunc_begin65:
	.loc	90 31 0                         ; /Applications/Xcode.app/Contents/Developer/Platforms/MacOSX.platform/Developer/SDKs/MacOSX13.1.sdk/usr/include/c++/v1/__memory/addressof.h:31:0
	.cfi_startproc
; %bb.0:
	sub	sp, sp, #16
	.cfi_def_cfa_offset 16
	str	x0, [sp, #8]
Ltmp265:
	.loc	90 32 32 prologue_end           ; /Applications/Xcode.app/Contents/Developer/Platforms/MacOSX.platform/Developer/SDKs/MacOSX13.1.sdk/usr/include/c++/v1/__memory/addressof.h:32:32
	ldr	x0, [sp, #8]
	.loc	90 32 5 is_stmt 0               ; /Applications/Xcode.app/Contents/Developer/Platforms/MacOSX.platform/Developer/SDKs/MacOSX13.1.sdk/usr/include/c++/v1/__memory/addressof.h:32:5
	add	sp, sp, #16
	ret
Ltmp266:
Lfunc_end65:
	.cfi_endproc
                                        ; -- End function
	.p2align	2                               ; -- Begin function _ZNKSt3__112basic_stringIcNS_11char_traitsIcEENS_9allocatorIcEEE4dataEv
__ZNKSt3__112basic_stringIcNS_11char_traitsIcEENS_9allocatorIcEEE4dataEv: ; @_ZNKSt3__112basic_stringIcNS_11char_traitsIcEENS_9allocatorIcEEE4dataEv
Lfunc_begin66:
	.loc	6 1265 0 is_stmt 1              ; /Applications/Xcode.app/Contents/Developer/Platforms/MacOSX.platform/Developer/SDKs/MacOSX13.1.sdk/usr/include/c++/v1/string:1265:0
	.cfi_startproc
; %bb.0:
	sub	sp, sp, #32
	stp	x29, x30, [sp, #16]             ; 16-byte Folded Spill
	add	x29, sp, #16
	.cfi_def_cfa w29, 16
	.cfi_offset w30, -8
	.cfi_offset w29, -16
	str	x0, [sp, #8]
	ldr	x0, [sp, #8]
Ltmp267:
	.loc	6 1265 76 prologue_end          ; /Applications/Xcode.app/Contents/Developer/Platforms/MacOSX.platform/Developer/SDKs/MacOSX13.1.sdk/usr/include/c++/v1/string:1265:76
	bl	__ZNKSt3__112basic_stringIcNS_11char_traitsIcEENS_9allocatorIcEEE13__get_pointerEv
	.loc	6 1265 53 is_stmt 0             ; /Applications/Xcode.app/Contents/Developer/Platforms/MacOSX.platform/Developer/SDKs/MacOSX13.1.sdk/usr/include/c++/v1/string:1265:53
	bl	__ZNSt3__1L12__to_addressIKcEEPT_S3_
	.loc	6 1265 46                       ; /Applications/Xcode.app/Contents/Developer/Platforms/MacOSX.platform/Developer/SDKs/MacOSX13.1.sdk/usr/include/c++/v1/string:1265:46
	ldp	x29, x30, [sp, #16]             ; 16-byte Folded Reload
	add	sp, sp, #32
	ret
Ltmp268:
Lfunc_end66:
	.cfi_endproc
                                        ; -- End function
	.p2align	2                               ; -- Begin function _ZNSt3__1L12__to_addressIKcEEPT_S3_
__ZNSt3__1L12__to_addressIKcEEPT_S3_:   ; @_ZNSt3__1L12__to_addressIKcEEPT_S3_
Lfunc_begin67:
	.loc	89 173 0 is_stmt 1              ; /Applications/Xcode.app/Contents/Developer/Platforms/MacOSX.platform/Developer/SDKs/MacOSX13.1.sdk/usr/include/c++/v1/__memory/pointer_traits.h:173:0
	.cfi_startproc
; %bb.0:
	sub	sp, sp, #16
	.cfi_def_cfa_offset 16
	str	x0, [sp, #8]
Ltmp270:
	.loc	89 175 12 prologue_end          ; /Applications/Xcode.app/Contents/Developer/Platforms/MacOSX.platform/Developer/SDKs/MacOSX13.1.sdk/usr/include/c++/v1/__memory/pointer_traits.h:175:12
	ldr	x0, [sp, #8]
	.loc	89 175 5 is_stmt 0              ; /Applications/Xcode.app/Contents/Developer/Platforms/MacOSX.platform/Developer/SDKs/MacOSX13.1.sdk/usr/include/c++/v1/__memory/pointer_traits.h:175:5
	add	sp, sp, #16
	ret
Ltmp271:
Lfunc_end67:
	.cfi_endproc
                                        ; -- End function
	.p2align	2                               ; -- Begin function _ZNKSt3__112basic_stringIcNS_11char_traitsIcEENS_9allocatorIcEEE13__get_pointerEv
__ZNKSt3__112basic_stringIcNS_11char_traitsIcEENS_9allocatorIcEEE13__get_pointerEv: ; @_ZNKSt3__112basic_stringIcNS_11char_traitsIcEENS_9allocatorIcEEE13__get_pointerEv
Lfunc_begin68:
	.loc	6 1581 0 is_stmt 1              ; /Applications/Xcode.app/Contents/Developer/Platforms/MacOSX.platform/Developer/SDKs/MacOSX13.1.sdk/usr/include/c++/v1/string:1581:0
	.cfi_startproc
; %bb.0:
	sub	sp, sp, #48
	stp	x29, x30, [sp, #32]             ; 16-byte Folded Spill
	add	x29, sp, #32
	.cfi_def_cfa w29, 16
	.cfi_offset w30, -8
	.cfi_offset w29, -16
	stur	x0, [x29, #-8]
	ldur	x0, [x29, #-8]
	str	x0, [sp, #16]                   ; 8-byte Folded Spill
Ltmp272:
	.loc	6 1581 17 prologue_end          ; /Applications/Xcode.app/Contents/Developer/Platforms/MacOSX.platform/Developer/SDKs/MacOSX13.1.sdk/usr/include/c++/v1/string:1581:17
	bl	__ZNKSt3__112basic_stringIcNS_11char_traitsIcEENS_9allocatorIcEEE9__is_longEv
	tbz	w0, #0, LBB68_2
	b	LBB68_1
LBB68_1:
	.loc	6 0 17 is_stmt 0                ; /Applications/Xcode.app/Contents/Developer/Platforms/MacOSX.platform/Developer/SDKs/MacOSX13.1.sdk/usr/include/c++/v1/string:0:17
	ldr	x0, [sp, #16]                   ; 8-byte Folded Reload
	.loc	6 1581 31                       ; /Applications/Xcode.app/Contents/Developer/Platforms/MacOSX.platform/Developer/SDKs/MacOSX13.1.sdk/usr/include/c++/v1/string:1581:31
	bl	__ZNKSt3__112basic_stringIcNS_11char_traitsIcEENS_9allocatorIcEEE18__get_long_pointerEv
	str	x0, [sp, #8]                    ; 8-byte Folded Spill
	.loc	6 1581 17                       ; /Applications/Xcode.app/Contents/Developer/Platforms/MacOSX.platform/Developer/SDKs/MacOSX13.1.sdk/usr/include/c++/v1/string:1581:17
	b	LBB68_3
LBB68_2:
	.loc	6 0 17                          ; /Applications/Xcode.app/Contents/Developer/Platforms/MacOSX.platform/Developer/SDKs/MacOSX13.1.sdk/usr/include/c++/v1/string:0:17
	ldr	x0, [sp, #16]                   ; 8-byte Folded Reload
	.loc	6 1581 54                       ; /Applications/Xcode.app/Contents/Developer/Platforms/MacOSX.platform/Developer/SDKs/MacOSX13.1.sdk/usr/include/c++/v1/string:1581:54
	bl	__ZNKSt3__112basic_stringIcNS_11char_traitsIcEENS_9allocatorIcEEE19__get_short_pointerEv
	str	x0, [sp, #8]                    ; 8-byte Folded Spill
	.loc	6 1581 17                       ; /Applications/Xcode.app/Contents/Developer/Platforms/MacOSX.platform/Developer/SDKs/MacOSX13.1.sdk/usr/include/c++/v1/string:1581:17
	b	LBB68_3
LBB68_3:
	.loc	6 0 17                          ; /Applications/Xcode.app/Contents/Developer/Platforms/MacOSX.platform/Developer/SDKs/MacOSX13.1.sdk/usr/include/c++/v1/string:0:17
	ldr	x0, [sp, #8]                    ; 8-byte Folded Reload
	.loc	6 1581 10                       ; /Applications/Xcode.app/Contents/Developer/Platforms/MacOSX.platform/Developer/SDKs/MacOSX13.1.sdk/usr/include/c++/v1/string:1581:10
	ldp	x29, x30, [sp, #32]             ; 16-byte Folded Reload
	add	sp, sp, #48
	ret
Ltmp273:
Lfunc_end68:
	.cfi_endproc
                                        ; -- End function
	.p2align	2                               ; -- Begin function _ZNKSt3__112basic_stringIcNS_11char_traitsIcEENS_9allocatorIcEEE18__get_long_pointerEv
__ZNKSt3__112basic_stringIcNS_11char_traitsIcEENS_9allocatorIcEEE18__get_long_pointerEv: ; @_ZNKSt3__112basic_stringIcNS_11char_traitsIcEENS_9allocatorIcEEE18__get_long_pointerEv
Lfunc_begin69:
	.loc	6 1569 0 is_stmt 1              ; /Applications/Xcode.app/Contents/Developer/Platforms/MacOSX.platform/Developer/SDKs/MacOSX13.1.sdk/usr/include/c++/v1/string:1569:0
	.cfi_startproc
; %bb.0:
	sub	sp, sp, #32
	stp	x29, x30, [sp, #16]             ; 16-byte Folded Spill
	add	x29, sp, #16
	.cfi_def_cfa w29, 16
	.cfi_offset w30, -8
	.cfi_offset w29, -16
	str	x0, [sp, #8]
	ldr	x0, [sp, #8]
Ltmp274:
	.loc	6 1569 22 prologue_end          ; /Applications/Xcode.app/Contents/Developer/Platforms/MacOSX.platform/Developer/SDKs/MacOSX13.1.sdk/usr/include/c++/v1/string:1569:22
	bl	__ZNKSt3__117__compressed_pairINS_12basic_stringIcNS_11char_traitsIcEENS_9allocatorIcEEE5__repES5_E5firstEv
	.loc	6 1569 34 is_stmt 0             ; /Applications/Xcode.app/Contents/Developer/Platforms/MacOSX.platform/Developer/SDKs/MacOSX13.1.sdk/usr/include/c++/v1/string:1569:34
	ldr	x0, [x0]
	.loc	6 1569 10                       ; /Applications/Xcode.app/Contents/Developer/Platforms/MacOSX.platform/Developer/SDKs/MacOSX13.1.sdk/usr/include/c++/v1/string:1569:10
	ldp	x29, x30, [sp, #16]             ; 16-byte Folded Reload
	add	sp, sp, #32
	ret
Ltmp275:
Lfunc_end69:
	.cfi_endproc
                                        ; -- End function
	.p2align	2                               ; -- Begin function _ZNKSt3__112basic_stringIcNS_11char_traitsIcEENS_9allocatorIcEEE19__get_short_pointerEv
__ZNKSt3__112basic_stringIcNS_11char_traitsIcEENS_9allocatorIcEEE19__get_short_pointerEv: ; @_ZNKSt3__112basic_stringIcNS_11char_traitsIcEENS_9allocatorIcEEE19__get_short_pointerEv
Lfunc_begin70:
	.loc	6 1575 0 is_stmt 1              ; /Applications/Xcode.app/Contents/Developer/Platforms/MacOSX.platform/Developer/SDKs/MacOSX13.1.sdk/usr/include/c++/v1/string:1575:0
	.cfi_startproc
; %bb.0:
	sub	sp, sp, #32
	stp	x29, x30, [sp, #16]             ; 16-byte Folded Spill
	add	x29, sp, #16
	.cfi_def_cfa w29, 16
	.cfi_offset w30, -8
	.cfi_offset w29, -16
	str	x0, [sp, #8]
	ldr	x0, [sp, #8]
Ltmp276:
	.loc	6 1575 64 prologue_end          ; /Applications/Xcode.app/Contents/Developer/Platforms/MacOSX.platform/Developer/SDKs/MacOSX13.1.sdk/usr/include/c++/v1/string:1575:64
	bl	__ZNKSt3__117__compressed_pairINS_12basic_stringIcNS_11char_traitsIcEENS_9allocatorIcEEE5__repES5_E5firstEv
	.loc	6 1575 17 is_stmt 0             ; /Applications/Xcode.app/Contents/Developer/Platforms/MacOSX.platform/Developer/SDKs/MacOSX13.1.sdk/usr/include/c++/v1/string:1575:17
	bl	__ZNSt3__114pointer_traitsIPKcE10pointer_toERS1_
	.loc	6 1575 10                       ; /Applications/Xcode.app/Contents/Developer/Platforms/MacOSX.platform/Developer/SDKs/MacOSX13.1.sdk/usr/include/c++/v1/string:1575:10
	ldp	x29, x30, [sp, #16]             ; 16-byte Folded Reload
	add	sp, sp, #32
	ret
Ltmp277:
Lfunc_end70:
	.cfi_endproc
                                        ; -- End function
	.p2align	2                               ; -- Begin function _ZNSt3__114pointer_traitsIPKcE10pointer_toERS1_
__ZNSt3__114pointer_traitsIPKcE10pointer_toERS1_: ; @_ZNSt3__114pointer_traitsIPKcE10pointer_toERS1_
Lfunc_begin71:
	.loc	89 154 0 is_stmt 1              ; /Applications/Xcode.app/Contents/Developer/Platforms/MacOSX.platform/Developer/SDKs/MacOSX13.1.sdk/usr/include/c++/v1/__memory/pointer_traits.h:154:0
	.cfi_startproc
; %bb.0:
	sub	sp, sp, #32
	stp	x29, x30, [sp, #16]             ; 16-byte Folded Spill
	add	x29, sp, #16
	.cfi_def_cfa w29, 16
	.cfi_offset w30, -8
	.cfi_offset w29, -16
	str	x0, [sp, #8]
Ltmp278:
	.loc	89 154 37 prologue_end          ; /Applications/Xcode.app/Contents/Developer/Platforms/MacOSX.platform/Developer/SDKs/MacOSX13.1.sdk/usr/include/c++/v1/__memory/pointer_traits.h:154:37
	ldr	x0, [sp, #8]
	.loc	89 154 17 is_stmt 0             ; /Applications/Xcode.app/Contents/Developer/Platforms/MacOSX.platform/Developer/SDKs/MacOSX13.1.sdk/usr/include/c++/v1/__memory/pointer_traits.h:154:17
	bl	__ZNSt3__1L9addressofIKcEEPT_RS2_
	.loc	89 154 10                       ; /Applications/Xcode.app/Contents/Developer/Platforms/MacOSX.platform/Developer/SDKs/MacOSX13.1.sdk/usr/include/c++/v1/__memory/pointer_traits.h:154:10
	ldp	x29, x30, [sp, #16]             ; 16-byte Folded Reload
	add	sp, sp, #32
	ret
Ltmp279:
Lfunc_end71:
	.cfi_endproc
                                        ; -- End function
	.p2align	2                               ; -- Begin function _ZNSt3__1L9addressofIKcEEPT_RS2_
__ZNSt3__1L9addressofIKcEEPT_RS2_:      ; @_ZNSt3__1L9addressofIKcEEPT_RS2_
Lfunc_begin72:
	.loc	90 31 0 is_stmt 1               ; /Applications/Xcode.app/Contents/Developer/Platforms/MacOSX.platform/Developer/SDKs/MacOSX13.1.sdk/usr/include/c++/v1/__memory/addressof.h:31:0
	.cfi_startproc
; %bb.0:
	sub	sp, sp, #16
	.cfi_def_cfa_offset 16
	str	x0, [sp, #8]
Ltmp281:
	.loc	90 32 32 prologue_end           ; /Applications/Xcode.app/Contents/Developer/Platforms/MacOSX.platform/Developer/SDKs/MacOSX13.1.sdk/usr/include/c++/v1/__memory/addressof.h:32:32
	ldr	x0, [sp, #8]
	.loc	90 32 5 is_stmt 0               ; /Applications/Xcode.app/Contents/Developer/Platforms/MacOSX.platform/Developer/SDKs/MacOSX13.1.sdk/usr/include/c++/v1/__memory/addressof.h:32:5
	add	sp, sp, #16
	ret
Ltmp282:
Lfunc_end72:
	.cfi_endproc
                                        ; -- End function
	.p2align	2                               ; -- Begin function _ZNKSt3__112basic_stringIcNS_11char_traitsIcEENS_9allocatorIcEEE8capacityEv
__ZNKSt3__112basic_stringIcNS_11char_traitsIcEENS_9allocatorIcEEE8capacityEv: ; @_ZNKSt3__112basic_stringIcNS_11char_traitsIcEENS_9allocatorIcEEE8capacityEv
Lfunc_begin73:
	.loc	6 982 0 is_stmt 1               ; /Applications/Xcode.app/Contents/Developer/Platforms/MacOSX.platform/Developer/SDKs/MacOSX13.1.sdk/usr/include/c++/v1/string:982:0
	.cfi_startproc
; %bb.0:
	sub	sp, sp, #48
	stp	x29, x30, [sp, #32]             ; 16-byte Folded Spill
	add	x29, sp, #32
	.cfi_def_cfa w29, 16
	.cfi_offset w30, -8
	.cfi_offset w29, -16
	stur	x0, [x29, #-8]
	ldur	x0, [x29, #-8]
	str	x0, [sp, #16]                   ; 8-byte Folded Spill
Ltmp283:
	.loc	6 982 18 prologue_end           ; /Applications/Xcode.app/Contents/Developer/Platforms/MacOSX.platform/Developer/SDKs/MacOSX13.1.sdk/usr/include/c++/v1/string:982:18
	bl	__ZNKSt3__112basic_stringIcNS_11char_traitsIcEENS_9allocatorIcEEE9__is_longEv
	tbz	w0, #0, LBB73_2
	b	LBB73_1
LBB73_1:
	.loc	6 0 18 is_stmt 0                ; /Applications/Xcode.app/Contents/Developer/Platforms/MacOSX.platform/Developer/SDKs/MacOSX13.1.sdk/usr/include/c++/v1/string:0:18
	ldr	x0, [sp, #16]                   ; 8-byte Folded Reload
	.loc	6 982 32                        ; /Applications/Xcode.app/Contents/Developer/Platforms/MacOSX.platform/Developer/SDKs/MacOSX13.1.sdk/usr/include/c++/v1/string:982:32
	bl	__ZNKSt3__112basic_stringIcNS_11char_traitsIcEENS_9allocatorIcEEE14__get_long_capEv
	str	x0, [sp, #8]                    ; 8-byte Folded Spill
	.loc	6 982 18                        ; /Applications/Xcode.app/Contents/Developer/Platforms/MacOSX.platform/Developer/SDKs/MacOSX13.1.sdk/usr/include/c++/v1/string:982:18
	b	LBB73_3
LBB73_2:
	.loc	6 0 18                          ; /Applications/Xcode.app/Contents/Developer/Platforms/MacOSX.platform/Developer/SDKs/MacOSX13.1.sdk/usr/include/c++/v1/string:0:18
	mov	x8, #23
	str	x8, [sp, #8]                    ; 8-byte Folded Spill
	.loc	6 982 18                        ; /Applications/Xcode.app/Contents/Developer/Platforms/MacOSX.platform/Developer/SDKs/MacOSX13.1.sdk/usr/include/c++/v1/string:982:18
	b	LBB73_3
LBB73_3:
	.loc	6 0 18                          ; /Applications/Xcode.app/Contents/Developer/Platforms/MacOSX.platform/Developer/SDKs/MacOSX13.1.sdk/usr/include/c++/v1/string:0:18
	ldr	x8, [sp, #8]                    ; 8-byte Folded Reload
	.loc	6 983 67 is_stmt 1              ; /Applications/Xcode.app/Contents/Developer/Platforms/MacOSX.platform/Developer/SDKs/MacOSX13.1.sdk/usr/include/c++/v1/string:983:67
	subs	x0, x8, #1
	.loc	6 982 10                        ; /Applications/Xcode.app/Contents/Developer/Platforms/MacOSX.platform/Developer/SDKs/MacOSX13.1.sdk/usr/include/c++/v1/string:982:10
	ldp	x29, x30, [sp, #32]             ; 16-byte Folded Reload
	add	sp, sp, #48
	ret
Ltmp284:
Lfunc_end73:
	.cfi_endproc
                                        ; -- End function
	.p2align	2                               ; -- Begin function _ZNSt3__1L12__to_addressIcEEPT_S2_
__ZNSt3__1L12__to_addressIcEEPT_S2_:    ; @_ZNSt3__1L12__to_addressIcEEPT_S2_
Lfunc_begin74:
	.loc	89 173 0                        ; /Applications/Xcode.app/Contents/Developer/Platforms/MacOSX.platform/Developer/SDKs/MacOSX13.1.sdk/usr/include/c++/v1/__memory/pointer_traits.h:173:0
	.cfi_startproc
; %bb.0:
	sub	sp, sp, #16
	.cfi_def_cfa_offset 16
	str	x0, [sp, #8]
Ltmp286:
	.loc	89 175 12 prologue_end          ; /Applications/Xcode.app/Contents/Developer/Platforms/MacOSX.platform/Developer/SDKs/MacOSX13.1.sdk/usr/include/c++/v1/__memory/pointer_traits.h:175:12
	ldr	x0, [sp, #8]
	.loc	89 175 5 is_stmt 0              ; /Applications/Xcode.app/Contents/Developer/Platforms/MacOSX.platform/Developer/SDKs/MacOSX13.1.sdk/usr/include/c++/v1/__memory/pointer_traits.h:175:5
	add	sp, sp, #16
	ret
Ltmp287:
Lfunc_end74:
	.cfi_endproc
                                        ; -- End function
	.globl	__ZNSt3__111char_traitsIcE4moveEPcPKcm ; -- Begin function _ZNSt3__111char_traitsIcE4moveEPcPKcm
	.weak_definition	__ZNSt3__111char_traitsIcE4moveEPcPKcm
	.p2align	2
__ZNSt3__111char_traitsIcE4moveEPcPKcm: ; @_ZNSt3__111char_traitsIcE4moveEPcPKcm
Lfunc_begin75:
	.loc	2 347 0 is_stmt 1               ; /Applications/Xcode.app/Contents/Developer/Platforms/MacOSX.platform/Developer/SDKs/MacOSX13.1.sdk/usr/include/c++/v1/__string:347:0
	.cfi_startproc
; %bb.0:
	sub	sp, sp, #64
	stp	x29, x30, [sp, #48]             ; 16-byte Folded Spill
	add	x29, sp, #48
	.cfi_def_cfa w29, 16
	.cfi_offset w30, -8
	.cfi_offset w29, -16
	stur	x0, [x29, #-8]
	stur	x1, [x29, #-16]
	str	x2, [sp, #24]
Ltmp288:
	.loc	2 350 26 prologue_end           ; /Applications/Xcode.app/Contents/Developer/Platforms/MacOSX.platform/Developer/SDKs/MacOSX13.1.sdk/usr/include/c++/v1/__string:350:26
	ldr	x8, [sp, #24]
	cbnz	x8, LBB75_2
	b	LBB75_1
LBB75_1:
	.loc	2 350 37 is_stmt 0              ; /Applications/Xcode.app/Contents/Developer/Platforms/MacOSX.platform/Developer/SDKs/MacOSX13.1.sdk/usr/include/c++/v1/__string:350:37
	ldur	x8, [x29, #-8]
	str	x8, [sp, #16]                   ; 8-byte Folded Spill
	.loc	2 350 26                        ; /Applications/Xcode.app/Contents/Developer/Platforms/MacOSX.platform/Developer/SDKs/MacOSX13.1.sdk/usr/include/c++/v1/__string:350:26
	b	LBB75_3
LBB75_2:
	.loc	2 350 74                        ; /Applications/Xcode.app/Contents/Developer/Platforms/MacOSX.platform/Developer/SDKs/MacOSX13.1.sdk/usr/include/c++/v1/__string:350:74
	ldur	x0, [x29, #-8]
	str	x0, [sp, #8]                    ; 8-byte Folded Spill
	.loc	2 350 80                        ; /Applications/Xcode.app/Contents/Developer/Platforms/MacOSX.platform/Developer/SDKs/MacOSX13.1.sdk/usr/include/c++/v1/__string:350:80
	ldur	x1, [x29, #-16]
	.loc	2 350 86                        ; /Applications/Xcode.app/Contents/Developer/Platforms/MacOSX.platform/Developer/SDKs/MacOSX13.1.sdk/usr/include/c++/v1/__string:350:86
	ldr	x2, [sp, #24]
	.loc	2 350 56                        ; /Applications/Xcode.app/Contents/Developer/Platforms/MacOSX.platform/Developer/SDKs/MacOSX13.1.sdk/usr/include/c++/v1/__string:350:56
	bl	_memmove
	ldr	x8, [sp, #8]                    ; 8-byte Folded Reload
	str	x8, [sp, #16]                   ; 8-byte Folded Spill
	.loc	2 350 26                        ; /Applications/Xcode.app/Contents/Developer/Platforms/MacOSX.platform/Developer/SDKs/MacOSX13.1.sdk/usr/include/c++/v1/__string:350:26
	b	LBB75_3
LBB75_3:
	.loc	2 0 26                          ; /Applications/Xcode.app/Contents/Developer/Platforms/MacOSX.platform/Developer/SDKs/MacOSX13.1.sdk/usr/include/c++/v1/__string:0:26
	ldr	x0, [sp, #16]                   ; 8-byte Folded Reload
	.loc	2 348 13 is_stmt 1              ; /Applications/Xcode.app/Contents/Developer/Platforms/MacOSX.platform/Developer/SDKs/MacOSX13.1.sdk/usr/include/c++/v1/__string:348:13
	ldp	x29, x30, [sp, #48]             ; 16-byte Folded Reload
	add	sp, sp, #64
	ret
Ltmp289:
Lfunc_end75:
	.cfi_endproc
                                        ; -- End function
	.p2align	2                               ; -- Begin function _ZNSt3__112basic_stringIcNS_11char_traitsIcEENS_9allocatorIcEEE10__set_sizeEm
__ZNSt3__112basic_stringIcNS_11char_traitsIcEENS_9allocatorIcEEE10__set_sizeEm: ; @_ZNSt3__112basic_stringIcNS_11char_traitsIcEENS_9allocatorIcEEE10__set_sizeEm
Lfunc_begin76:
	.loc	6 1552 0                        ; /Applications/Xcode.app/Contents/Developer/Platforms/MacOSX.platform/Developer/SDKs/MacOSX13.1.sdk/usr/include/c++/v1/string:1552:0
	.cfi_startproc
; %bb.0:
	sub	sp, sp, #48
	stp	x29, x30, [sp, #32]             ; 16-byte Folded Spill
	add	x29, sp, #32
	.cfi_def_cfa w29, 16
	.cfi_offset w30, -8
	.cfi_offset w29, -16
	stur	x0, [x29, #-8]
	str	x1, [sp, #16]
	ldur	x0, [x29, #-8]
	str	x0, [sp, #8]                    ; 8-byte Folded Spill
Ltmp290:
	.loc	6 1552 14 prologue_end          ; /Applications/Xcode.app/Contents/Developer/Platforms/MacOSX.platform/Developer/SDKs/MacOSX13.1.sdk/usr/include/c++/v1/string:1552:14
	bl	__ZNKSt3__112basic_stringIcNS_11char_traitsIcEENS_9allocatorIcEEE9__is_longEv
Ltmp291:
	.loc	6 1552 14 is_stmt 0             ; /Applications/Xcode.app/Contents/Developer/Platforms/MacOSX.platform/Developer/SDKs/MacOSX13.1.sdk/usr/include/c++/v1/string:1552:14
	tbz	w0, #0, LBB76_2
	b	LBB76_1
LBB76_1:
	.loc	6 0 14                          ; /Applications/Xcode.app/Contents/Developer/Platforms/MacOSX.platform/Developer/SDKs/MacOSX13.1.sdk/usr/include/c++/v1/string:0:14
	ldr	x0, [sp, #8]                    ; 8-byte Folded Reload
Ltmp292:
	.loc	6 1552 43                       ; /Applications/Xcode.app/Contents/Developer/Platforms/MacOSX.platform/Developer/SDKs/MacOSX13.1.sdk/usr/include/c++/v1/string:1552:43
	ldr	x1, [sp, #16]
	.loc	6 1552 27                       ; /Applications/Xcode.app/Contents/Developer/Platforms/MacOSX.platform/Developer/SDKs/MacOSX13.1.sdk/usr/include/c++/v1/string:1552:27
	bl	__ZNSt3__112basic_stringIcNS_11char_traitsIcEENS_9allocatorIcEEE15__set_long_sizeEm
	b	LBB76_3
LBB76_2:
	.loc	6 0 27                          ; /Applications/Xcode.app/Contents/Developer/Platforms/MacOSX.platform/Developer/SDKs/MacOSX13.1.sdk/usr/include/c++/v1/string:0:27
	ldr	x0, [sp, #8]                    ; 8-byte Folded Reload
	.loc	6 1552 71                       ; /Applications/Xcode.app/Contents/Developer/Platforms/MacOSX.platform/Developer/SDKs/MacOSX13.1.sdk/usr/include/c++/v1/string:1552:71
	ldr	x1, [sp, #16]
	.loc	6 1552 54                       ; /Applications/Xcode.app/Contents/Developer/Platforms/MacOSX.platform/Developer/SDKs/MacOSX13.1.sdk/usr/include/c++/v1/string:1552:54
	bl	__ZNSt3__112basic_stringIcNS_11char_traitsIcEENS_9allocatorIcEEE16__set_short_sizeEm
	b	LBB76_3
Ltmp293:
LBB76_3:
	.loc	6 1552 76                       ; /Applications/Xcode.app/Contents/Developer/Platforms/MacOSX.platform/Developer/SDKs/MacOSX13.1.sdk/usr/include/c++/v1/string:1552:76
	ldp	x29, x30, [sp, #32]             ; 16-byte Folded Reload
	add	sp, sp, #48
	ret
Ltmp294:
Lfunc_end76:
	.cfi_endproc
                                        ; -- End function
	.globl	__ZNSt3__111char_traitsIcE6assignERcRKc ; -- Begin function _ZNSt3__111char_traitsIcE6assignERcRKc
	.weak_definition	__ZNSt3__111char_traitsIcE6assignERcRKc
	.p2align	2
__ZNSt3__111char_traitsIcE6assignERcRKc: ; @_ZNSt3__111char_traitsIcE6assignERcRKc
Lfunc_begin77:
	.loc	2 333 0 is_stmt 1               ; /Applications/Xcode.app/Contents/Developer/Platforms/MacOSX.platform/Developer/SDKs/MacOSX13.1.sdk/usr/include/c++/v1/__string:333:0
	.cfi_startproc
; %bb.0:
	sub	sp, sp, #16
	.cfi_def_cfa_offset 16
	str	x0, [sp, #8]
	str	x1, [sp]
Ltmp296:
	.loc	2 333 74 prologue_end           ; /Applications/Xcode.app/Contents/Developer/Platforms/MacOSX.platform/Developer/SDKs/MacOSX13.1.sdk/usr/include/c++/v1/__string:333:74
	ldr	x8, [sp]
	ldrb	w8, [x8]
	.loc	2 333 67 is_stmt 0              ; /Applications/Xcode.app/Contents/Developer/Platforms/MacOSX.platform/Developer/SDKs/MacOSX13.1.sdk/usr/include/c++/v1/__string:333:67
	ldr	x9, [sp, #8]
	.loc	2 333 72                        ; /Applications/Xcode.app/Contents/Developer/Platforms/MacOSX.platform/Developer/SDKs/MacOSX13.1.sdk/usr/include/c++/v1/__string:333:72
	strb	w8, [x9]
	.loc	2 333 79                        ; /Applications/Xcode.app/Contents/Developer/Platforms/MacOSX.platform/Developer/SDKs/MacOSX13.1.sdk/usr/include/c++/v1/__string:333:79
	add	sp, sp, #16
	ret
Ltmp297:
Lfunc_end77:
	.cfi_endproc
                                        ; -- End function
	.p2align	2                               ; -- Begin function _ZNKSt3__112basic_stringIcNS_11char_traitsIcEENS_9allocatorIcEEE14__get_long_capEv
__ZNKSt3__112basic_stringIcNS_11char_traitsIcEENS_9allocatorIcEEE14__get_long_capEv: ; @_ZNKSt3__112basic_stringIcNS_11char_traitsIcEENS_9allocatorIcEEE14__get_long_capEv
Lfunc_begin78:
	.loc	6 1559 0 is_stmt 1              ; /Applications/Xcode.app/Contents/Developer/Platforms/MacOSX.platform/Developer/SDKs/MacOSX13.1.sdk/usr/include/c++/v1/string:1559:0
	.cfi_startproc
; %bb.0:
	sub	sp, sp, #32
	stp	x29, x30, [sp, #16]             ; 16-byte Folded Spill
	add	x29, sp, #16
	.cfi_def_cfa w29, 16
	.cfi_offset w30, -8
	.cfi_offset w29, -16
	str	x0, [sp, #8]
	ldr	x0, [sp, #8]
Ltmp298:
	.loc	6 1559 22 prologue_end          ; /Applications/Xcode.app/Contents/Developer/Platforms/MacOSX.platform/Developer/SDKs/MacOSX13.1.sdk/usr/include/c++/v1/string:1559:22
	bl	__ZNKSt3__117__compressed_pairINS_12basic_stringIcNS_11char_traitsIcEENS_9allocatorIcEEE5__repES5_E5firstEv
	.loc	6 1559 34 is_stmt 0             ; /Applications/Xcode.app/Contents/Developer/Platforms/MacOSX.platform/Developer/SDKs/MacOSX13.1.sdk/usr/include/c++/v1/string:1559:34
	ldr	x8, [x0, #16]
	.loc	6 1559 41                       ; /Applications/Xcode.app/Contents/Developer/Platforms/MacOSX.platform/Developer/SDKs/MacOSX13.1.sdk/usr/include/c++/v1/string:1559:41
	and	x0, x8, #0x7fffffffffffffff
	.loc	6 1559 10                       ; /Applications/Xcode.app/Contents/Developer/Platforms/MacOSX.platform/Developer/SDKs/MacOSX13.1.sdk/usr/include/c++/v1/string:1559:10
	ldp	x29, x30, [sp, #16]             ; 16-byte Folded Reload
	add	sp, sp, #32
	ret
Ltmp299:
Lfunc_end78:
	.cfi_endproc
                                        ; -- End function
	.p2align	2                               ; -- Begin function _ZNSt3__112basic_stringIcNS_11char_traitsIcEENS_9allocatorIcEEE15__set_long_sizeEm
__ZNSt3__112basic_stringIcNS_11char_traitsIcEENS_9allocatorIcEEE15__set_long_sizeEm: ; @_ZNSt3__112basic_stringIcNS_11char_traitsIcEENS_9allocatorIcEEE15__set_long_sizeEm
Lfunc_begin79:
	.loc	6 1546 0 is_stmt 1              ; /Applications/Xcode.app/Contents/Developer/Platforms/MacOSX.platform/Developer/SDKs/MacOSX13.1.sdk/usr/include/c++/v1/string:1546:0
	.cfi_startproc
; %bb.0:
	sub	sp, sp, #48
	stp	x29, x30, [sp, #32]             ; 16-byte Folded Spill
	add	x29, sp, #32
	.cfi_def_cfa w29, 16
	.cfi_offset w30, -8
	.cfi_offset w29, -16
	stur	x0, [x29, #-8]
	str	x1, [sp, #16]
	ldur	x0, [x29, #-8]
Ltmp300:
	.loc	6 1546 37 prologue_end          ; /Applications/Xcode.app/Contents/Developer/Platforms/MacOSX.platform/Developer/SDKs/MacOSX13.1.sdk/usr/include/c++/v1/string:1546:37
	ldr	x8, [sp, #16]
	str	x8, [sp, #8]                    ; 8-byte Folded Spill
	.loc	6 1546 15 is_stmt 0             ; /Applications/Xcode.app/Contents/Developer/Platforms/MacOSX.platform/Developer/SDKs/MacOSX13.1.sdk/usr/include/c++/v1/string:1546:15
	bl	__ZNSt3__117__compressed_pairINS_12basic_stringIcNS_11char_traitsIcEENS_9allocatorIcEEE5__repES5_E5firstEv
	ldr	x8, [sp, #8]                    ; 8-byte Folded Reload
	.loc	6 1546 35                       ; /Applications/Xcode.app/Contents/Developer/Platforms/MacOSX.platform/Developer/SDKs/MacOSX13.1.sdk/usr/include/c++/v1/string:1546:35
	str	x8, [x0, #8]
	.loc	6 1546 41                       ; /Applications/Xcode.app/Contents/Developer/Platforms/MacOSX.platform/Developer/SDKs/MacOSX13.1.sdk/usr/include/c++/v1/string:1546:41
	ldp	x29, x30, [sp, #32]             ; 16-byte Folded Reload
	add	sp, sp, #48
	ret
Ltmp301:
Lfunc_end79:
	.cfi_endproc
                                        ; -- End function
	.p2align	2                               ; -- Begin function _ZNSt3__112basic_stringIcNS_11char_traitsIcEENS_9allocatorIcEEE16__set_short_sizeEm
__ZNSt3__112basic_stringIcNS_11char_traitsIcEENS_9allocatorIcEEE16__set_short_sizeEm: ; @_ZNSt3__112basic_stringIcNS_11char_traitsIcEENS_9allocatorIcEEE16__set_short_sizeEm
Lfunc_begin80:
	.loc	6 1513 0 is_stmt 1              ; /Applications/Xcode.app/Contents/Developer/Platforms/MacOSX.platform/Developer/SDKs/MacOSX13.1.sdk/usr/include/c++/v1/string:1513:0
	.cfi_startproc
; %bb.0:
	sub	sp, sp, #48
	stp	x29, x30, [sp, #32]             ; 16-byte Folded Spill
	add	x29, sp, #32
	.cfi_def_cfa w29, 16
	.cfi_offset w30, -8
	.cfi_offset w29, -16
	stur	x0, [x29, #-8]
	str	x1, [sp, #16]
	ldur	x0, [x29, #-8]
Ltmp302:
	.loc	6 1513 53 prologue_end          ; /Applications/Xcode.app/Contents/Developer/Platforms/MacOSX.platform/Developer/SDKs/MacOSX13.1.sdk/usr/include/c++/v1/string:1513:53
	ldr	x8, [sp, #16]
	str	x8, [sp, #8]                    ; 8-byte Folded Spill
	.loc	6 1513 15 is_stmt 0             ; /Applications/Xcode.app/Contents/Developer/Platforms/MacOSX.platform/Developer/SDKs/MacOSX13.1.sdk/usr/include/c++/v1/string:1513:15
	bl	__ZNSt3__117__compressed_pairINS_12basic_stringIcNS_11char_traitsIcEENS_9allocatorIcEEE5__repES5_E5firstEv
	ldr	x8, [sp, #8]                    ; 8-byte Folded Reload
                                        ; kill: def $w8 killed $w8 killed $x8
	.loc	6 1513 35                       ; /Applications/Xcode.app/Contents/Developer/Platforms/MacOSX.platform/Developer/SDKs/MacOSX13.1.sdk/usr/include/c++/v1/string:1513:35
	strb	w8, [x0, #23]
	.loc	6 1513 58                       ; /Applications/Xcode.app/Contents/Developer/Platforms/MacOSX.platform/Developer/SDKs/MacOSX13.1.sdk/usr/include/c++/v1/string:1513:58
	ldp	x29, x30, [sp, #32]             ; 16-byte Folded Reload
	add	sp, sp, #48
	ret
Ltmp303:
Lfunc_end80:
	.cfi_endproc
                                        ; -- End function
	.p2align	2                               ; -- Begin function _ZNSt3__117__compressed_pairINS_12basic_stringIcNS_11char_traitsIcEENS_9allocatorIcEEE5__repES5_E6secondEv
__ZNSt3__117__compressed_pairINS_12basic_stringIcNS_11char_traitsIcEENS_9allocatorIcEEE5__repES5_E6secondEv: ; @_ZNSt3__117__compressed_pairINS_12basic_stringIcNS_11char_traitsIcEENS_9allocatorIcEEE5__repES5_E6secondEv
Lfunc_begin81:
	.loc	8 160 0 is_stmt 1               ; /Applications/Xcode.app/Contents/Developer/Platforms/MacOSX.platform/Developer/SDKs/MacOSX13.1.sdk/usr/include/c++/v1/__memory/compressed_pair.h:160:0
	.cfi_startproc
; %bb.0:
	sub	sp, sp, #32
	stp	x29, x30, [sp, #16]             ; 16-byte Folded Spill
	add	x29, sp, #16
	.cfi_def_cfa w29, 16
	.cfi_offset w30, -8
	.cfi_offset w29, -16
	str	x0, [sp, #8]
	ldr	x0, [sp, #8]
Ltmp304:
	.loc	8 161 40 prologue_end           ; /Applications/Xcode.app/Contents/Developer/Platforms/MacOSX.platform/Developer/SDKs/MacOSX13.1.sdk/usr/include/c++/v1/__memory/compressed_pair.h:161:40
	bl	__ZNSt3__122__compressed_pair_elemINS_9allocatorIcEELi1ELb1EE5__getEv
	.loc	8 161 5 is_stmt 0               ; /Applications/Xcode.app/Contents/Developer/Platforms/MacOSX.platform/Developer/SDKs/MacOSX13.1.sdk/usr/include/c++/v1/__memory/compressed_pair.h:161:5
	ldp	x29, x30, [sp, #16]             ; 16-byte Folded Reload
	add	sp, sp, #32
	ret
Ltmp305:
Lfunc_end81:
	.cfi_endproc
                                        ; -- End function
	.p2align	2                               ; -- Begin function _ZNSt3__122__compressed_pair_elemINS_9allocatorIcEELi1ELb1EE5__getEv
__ZNSt3__122__compressed_pair_elemINS_9allocatorIcEELi1ELb1EE5__getEv: ; @_ZNSt3__122__compressed_pair_elemINS_9allocatorIcEELi1ELb1EE5__getEv
Lfunc_begin82:
	.loc	8 103 0 is_stmt 1               ; /Applications/Xcode.app/Contents/Developer/Platforms/MacOSX.platform/Developer/SDKs/MacOSX13.1.sdk/usr/include/c++/v1/__memory/compressed_pair.h:103:0
	.cfi_startproc
; %bb.0:
	sub	sp, sp, #16
	.cfi_def_cfa_offset 16
	str	x0, [sp, #8]
	ldr	x0, [sp, #8]
Ltmp307:
	.loc	8 103 110 prologue_end          ; /Applications/Xcode.app/Contents/Developer/Platforms/MacOSX.platform/Developer/SDKs/MacOSX13.1.sdk/usr/include/c++/v1/__memory/compressed_pair.h:103:110
	add	sp, sp, #16
	ret
Ltmp308:
Lfunc_end82:
	.cfi_endproc
                                        ; -- End function
	.p2align	2                               ; -- Begin function _ZNSt3__112basic_stringIcNS_11char_traitsIcEENS_9allocatorIcEEEC2IPhvEET_S8_RKS4_
__ZNSt3__112basic_stringIcNS_11char_traitsIcEENS_9allocatorIcEEEC2IPhvEET_S8_RKS4_: ; @_ZNSt3__112basic_stringIcNS_11char_traitsIcEENS_9allocatorIcEEEC2IPhvEET_S8_RKS4_
Lfunc_begin83:
	.loc	6 2260 0                        ; /Applications/Xcode.app/Contents/Developer/Platforms/MacOSX.platform/Developer/SDKs/MacOSX13.1.sdk/usr/include/c++/v1/string:2260:0
	.cfi_startproc
; %bb.0:
	sub	sp, sp, #64
	stp	x29, x30, [sp, #48]             ; 16-byte Folded Spill
	add	x29, sp, #48
	.cfi_def_cfa w29, 16
	.cfi_offset w30, -8
	.cfi_offset w29, -16
	stur	x0, [x29, #-8]
	stur	x1, [x29, #-16]
	str	x2, [sp, #24]
	str	x3, [sp, #16]
	ldur	x0, [x29, #-8]
	str	x0, [sp]                        ; 8-byte Folded Spill
Ltmp309:
	.loc	6 2259 34 prologue_end          ; /Applications/Xcode.app/Contents/Developer/Platforms/MacOSX.platform/Developer/SDKs/MacOSX13.1.sdk/usr/include/c++/v1/string:2259:34
	ldr	x2, [sp, #16]
	add	x1, sp, #15
	.loc	6 2259 7 is_stmt 0              ; /Applications/Xcode.app/Contents/Developer/Platforms/MacOSX.platform/Developer/SDKs/MacOSX13.1.sdk/usr/include/c++/v1/string:2259:7
	bl	__ZNSt3__117__compressed_pairINS_12basic_stringIcNS_11char_traitsIcEENS_9allocatorIcEEE5__repES5_EC1INS_18__default_init_tagERKS5_EEOT_OT0_
	ldr	x0, [sp]                        ; 8-byte Folded Reload
Ltmp310:
	.loc	6 2261 12 is_stmt 1             ; /Applications/Xcode.app/Contents/Developer/Platforms/MacOSX.platform/Developer/SDKs/MacOSX13.1.sdk/usr/include/c++/v1/string:2261:12
	ldur	x1, [x29, #-16]
	.loc	6 2261 21 is_stmt 0             ; /Applications/Xcode.app/Contents/Developer/Platforms/MacOSX.platform/Developer/SDKs/MacOSX13.1.sdk/usr/include/c++/v1/string:2261:21
	ldr	x2, [sp, #24]
	.loc	6 2261 5                        ; /Applications/Xcode.app/Contents/Developer/Platforms/MacOSX.platform/Developer/SDKs/MacOSX13.1.sdk/usr/include/c++/v1/string:2261:5
	bl	__ZNSt3__112basic_stringIcNS_11char_traitsIcEENS_9allocatorIcEEE6__initIPhEENS_9_MetaBaseIXsr27__is_cpp17_forward_iteratorIT_EE5valueEE13_EnableIfImplIvEES9_S9_
	ldr	x0, [sp]                        ; 8-byte Folded Reload
Ltmp311:
	.loc	6 2265 1 is_stmt 1              ; /Applications/Xcode.app/Contents/Developer/Platforms/MacOSX.platform/Developer/SDKs/MacOSX13.1.sdk/usr/include/c++/v1/string:2265:1
	ldp	x29, x30, [sp, #48]             ; 16-byte Folded Reload
	add	sp, sp, #64
	ret
Ltmp312:
Lfunc_end83:
	.cfi_endproc
                                        ; -- End function
	.p2align	2                               ; -- Begin function _ZNSt3__117__compressed_pairINS_12basic_stringIcNS_11char_traitsIcEENS_9allocatorIcEEE5__repES5_EC1INS_18__default_init_tagERKS5_EEOT_OT0_
__ZNSt3__117__compressed_pairINS_12basic_stringIcNS_11char_traitsIcEENS_9allocatorIcEEE5__repES5_EC1INS_18__default_init_tagERKS5_EEOT_OT0_: ; @_ZNSt3__117__compressed_pairINS_12basic_stringIcNS_11char_traitsIcEENS_9allocatorIcEEE5__repES5_EC1INS_18__default_init_tagERKS5_EEOT_OT0_
Lfunc_begin84:
	.loc	8 136 0                         ; /Applications/Xcode.app/Contents/Developer/Platforms/MacOSX.platform/Developer/SDKs/MacOSX13.1.sdk/usr/include/c++/v1/__memory/compressed_pair.h:136:0
	.cfi_startproc
; %bb.0:
	sub	sp, sp, #48
	stp	x29, x30, [sp, #32]             ; 16-byte Folded Spill
	add	x29, sp, #32
	.cfi_def_cfa w29, 16
	.cfi_offset w30, -8
	.cfi_offset w29, -16
	stur	x0, [x29, #-8]
	str	x1, [sp, #16]
	str	x2, [sp, #8]
	ldur	x0, [x29, #-8]
	str	x0, [sp]                        ; 8-byte Folded Spill
Ltmp313:
	.loc	8 136 84 prologue_end           ; /Applications/Xcode.app/Contents/Developer/Platforms/MacOSX.platform/Developer/SDKs/MacOSX13.1.sdk/usr/include/c++/v1/__memory/compressed_pair.h:136:84
	ldr	x1, [sp, #16]
	ldr	x2, [sp, #8]
	bl	__ZNSt3__117__compressed_pairINS_12basic_stringIcNS_11char_traitsIcEENS_9allocatorIcEEE5__repES5_EC2INS_18__default_init_tagERKS5_EEOT_OT0_
	ldr	x0, [sp]                        ; 8-byte Folded Reload
	.loc	8 136 85 is_stmt 0              ; /Applications/Xcode.app/Contents/Developer/Platforms/MacOSX.platform/Developer/SDKs/MacOSX13.1.sdk/usr/include/c++/v1/__memory/compressed_pair.h:136:85
	ldp	x29, x30, [sp, #32]             ; 16-byte Folded Reload
	add	sp, sp, #48
	ret
Ltmp314:
Lfunc_end84:
	.cfi_endproc
                                        ; -- End function
	.globl	__ZNSt3__112basic_stringIcNS_11char_traitsIcEENS_9allocatorIcEEE6__initIPhEENS_9_MetaBaseIXsr27__is_cpp17_forward_iteratorIT_EE5valueEE13_EnableIfImplIvEES9_S9_ ; -- Begin function _ZNSt3__112basic_stringIcNS_11char_traitsIcEENS_9allocatorIcEEE6__initIPhEENS_9_MetaBaseIXsr27__is_cpp17_forward_iteratorIT_EE5valueEE13_EnableIfImplIvEES9_S9_
	.weak_definition	__ZNSt3__112basic_stringIcNS_11char_traitsIcEENS_9allocatorIcEEE6__initIPhEENS_9_MetaBaseIXsr27__is_cpp17_forward_iteratorIT_EE5valueEE13_EnableIfImplIvEES9_S9_
	.p2align	2
__ZNSt3__112basic_stringIcNS_11char_traitsIcEENS_9allocatorIcEEE6__initIPhEENS_9_MetaBaseIXsr27__is_cpp17_forward_iteratorIT_EE5valueEE13_EnableIfImplIvEES9_S9_: ; @_ZNSt3__112basic_stringIcNS_11char_traitsIcEENS_9allocatorIcEEE6__initIPhEENS_9_MetaBaseIXsr27__is_cpp17_forward_iteratorIT_EE5valueEE13_EnableIfImplIvEES9_S9_
Lfunc_begin85:
	.loc	6 2205 0 is_stmt 1              ; /Applications/Xcode.app/Contents/Developer/Platforms/MacOSX.platform/Developer/SDKs/MacOSX13.1.sdk/usr/include/c++/v1/string:2205:0
	.cfi_startproc
; %bb.0:
	sub	sp, sp, #96
	stp	x29, x30, [sp, #80]             ; 16-byte Folded Spill
	add	x29, sp, #80
	.cfi_def_cfa w29, 16
	.cfi_offset w30, -8
	.cfi_offset w29, -16
	stur	x0, [x29, #-8]
	stur	x1, [x29, #-16]
	stur	x2, [x29, #-24]
	ldur	x8, [x29, #-8]
	str	x8, [sp, #8]                    ; 8-byte Folded Spill
Ltmp315:
	.loc	6 2206 64 prologue_end          ; /Applications/Xcode.app/Contents/Developer/Platforms/MacOSX.platform/Developer/SDKs/MacOSX13.1.sdk/usr/include/c++/v1/string:2206:64
	ldur	x0, [x29, #-16]
	.loc	6 2206 73 is_stmt 0             ; /Applications/Xcode.app/Contents/Developer/Platforms/MacOSX.platform/Developer/SDKs/MacOSX13.1.sdk/usr/include/c++/v1/string:2206:73
	ldur	x1, [x29, #-24]
	.loc	6 2206 45                       ; /Applications/Xcode.app/Contents/Developer/Platforms/MacOSX.platform/Developer/SDKs/MacOSX13.1.sdk/usr/include/c++/v1/string:2206:45
	bl	__ZNSt3__1L8distanceIPhEENS_15iterator_traitsIT_E15difference_typeES3_S3_
	mov	x8, x0
	ldr	x0, [sp, #8]                    ; 8-byte Folded Reload
	.loc	6 2206 15                       ; /Applications/Xcode.app/Contents/Developer/Platforms/MacOSX.platform/Developer/SDKs/MacOSX13.1.sdk/usr/include/c++/v1/string:2206:15
	stur	x8, [x29, #-32]
Ltmp316:
	.loc	6 2207 9 is_stmt 1              ; /Applications/Xcode.app/Contents/Developer/Platforms/MacOSX.platform/Developer/SDKs/MacOSX13.1.sdk/usr/include/c++/v1/string:2207:9
	ldur	x8, [x29, #-32]
	str	x8, [sp, #16]                   ; 8-byte Folded Spill
	.loc	6 2207 16 is_stmt 0             ; /Applications/Xcode.app/Contents/Developer/Platforms/MacOSX.platform/Developer/SDKs/MacOSX13.1.sdk/usr/include/c++/v1/string:2207:16
	bl	__ZNKSt3__112basic_stringIcNS_11char_traitsIcEENS_9allocatorIcEEE8max_sizeEv
	ldr	x8, [sp, #16]                   ; 8-byte Folded Reload
Ltmp317:
	.loc	6 2207 9                        ; /Applications/Xcode.app/Contents/Developer/Platforms/MacOSX.platform/Developer/SDKs/MacOSX13.1.sdk/usr/include/c++/v1/string:2207:9
	subs	x8, x8, x0
	b.ls	LBB85_2
	b	LBB85_1
LBB85_1:
	.loc	6 0 9                           ; /Applications/Xcode.app/Contents/Developer/Platforms/MacOSX.platform/Developer/SDKs/MacOSX13.1.sdk/usr/include/c++/v1/string:0:9
	ldr	x0, [sp, #8]                    ; 8-byte Folded Reload
Ltmp318:
	.loc	6 2208 15 is_stmt 1             ; /Applications/Xcode.app/Contents/Developer/Platforms/MacOSX.platform/Developer/SDKs/MacOSX13.1.sdk/usr/include/c++/v1/string:2208:15
	bl	__ZNKSt3__112basic_stringIcNS_11char_traitsIcEENS_9allocatorIcEEE20__throw_length_errorEv
Ltmp319:
LBB85_2:
	.loc	6 2210 9                        ; /Applications/Xcode.app/Contents/Developer/Platforms/MacOSX.platform/Developer/SDKs/MacOSX13.1.sdk/usr/include/c++/v1/string:2210:9
	ldur	x8, [x29, #-32]
Ltmp320:
	.loc	6 2210 9 is_stmt 0              ; /Applications/Xcode.app/Contents/Developer/Platforms/MacOSX.platform/Developer/SDKs/MacOSX13.1.sdk/usr/include/c++/v1/string:2210:9
	subs	x8, x8, #23
	b.hs	LBB85_4
	b	LBB85_3
LBB85_3:
	.loc	6 0 9                           ; /Applications/Xcode.app/Contents/Developer/Platforms/MacOSX.platform/Developer/SDKs/MacOSX13.1.sdk/usr/include/c++/v1/string:0:9
	ldr	x0, [sp, #8]                    ; 8-byte Folded Reload
Ltmp321:
	.loc	6 2212 26 is_stmt 1             ; /Applications/Xcode.app/Contents/Developer/Platforms/MacOSX.platform/Developer/SDKs/MacOSX13.1.sdk/usr/include/c++/v1/string:2212:26
	ldur	x1, [x29, #-32]
	.loc	6 2212 9 is_stmt 0              ; /Applications/Xcode.app/Contents/Developer/Platforms/MacOSX.platform/Developer/SDKs/MacOSX13.1.sdk/usr/include/c++/v1/string:2212:9
	bl	__ZNSt3__112basic_stringIcNS_11char_traitsIcEENS_9allocatorIcEEE16__set_short_sizeEm
	ldr	x0, [sp, #8]                    ; 8-byte Folded Reload
	.loc	6 2213 15 is_stmt 1             ; /Applications/Xcode.app/Contents/Developer/Platforms/MacOSX.platform/Developer/SDKs/MacOSX13.1.sdk/usr/include/c++/v1/string:2213:15
	bl	__ZNSt3__112basic_stringIcNS_11char_traitsIcEENS_9allocatorIcEEE19__get_short_pointerEv
	.loc	6 2213 13 is_stmt 0             ; /Applications/Xcode.app/Contents/Developer/Platforms/MacOSX.platform/Developer/SDKs/MacOSX13.1.sdk/usr/include/c++/v1/string:2213:13
	str	x0, [sp, #40]
	.loc	6 2214 5 is_stmt 1              ; /Applications/Xcode.app/Contents/Developer/Platforms/MacOSX.platform/Developer/SDKs/MacOSX13.1.sdk/usr/include/c++/v1/string:2214:5
	b	LBB85_5
Ltmp322:
LBB85_4:
	.loc	6 2217 39                       ; /Applications/Xcode.app/Contents/Developer/Platforms/MacOSX.platform/Developer/SDKs/MacOSX13.1.sdk/usr/include/c++/v1/string:2217:39
	ldur	x0, [x29, #-32]
	.loc	6 2217 27 is_stmt 0             ; /Applications/Xcode.app/Contents/Developer/Platforms/MacOSX.platform/Developer/SDKs/MacOSX13.1.sdk/usr/include/c++/v1/string:2217:27
	bl	__ZNSt3__112basic_stringIcNS_11char_traitsIcEENS_9allocatorIcEEE11__recommendEm
	mov	x8, x0
	ldr	x0, [sp, #8]                    ; 8-byte Folded Reload
	.loc	6 2217 19                       ; /Applications/Xcode.app/Contents/Developer/Platforms/MacOSX.platform/Developer/SDKs/MacOSX13.1.sdk/usr/include/c++/v1/string:2217:19
	str	x8, [sp, #32]
	.loc	6 2218 40 is_stmt 1             ; /Applications/Xcode.app/Contents/Developer/Platforms/MacOSX.platform/Developer/SDKs/MacOSX13.1.sdk/usr/include/c++/v1/string:2218:40
	bl	__ZNSt3__112basic_stringIcNS_11char_traitsIcEENS_9allocatorIcEEE7__allocEv
	.loc	6 2218 51 is_stmt 0             ; /Applications/Xcode.app/Contents/Developer/Platforms/MacOSX.platform/Developer/SDKs/MacOSX13.1.sdk/usr/include/c++/v1/string:2218:51
	ldr	x8, [sp, #32]
	.loc	6 2218 56                       ; /Applications/Xcode.app/Contents/Developer/Platforms/MacOSX.platform/Developer/SDKs/MacOSX13.1.sdk/usr/include/c++/v1/string:2218:56
	add	x1, x8, #1
	.loc	6 2218 15                       ; /Applications/Xcode.app/Contents/Developer/Platforms/MacOSX.platform/Developer/SDKs/MacOSX13.1.sdk/usr/include/c++/v1/string:2218:15
	bl	__ZNSt3__116allocator_traitsINS_9allocatorIcEEE8allocateERS2_m
	mov	x8, x0
	ldr	x0, [sp, #8]                    ; 8-byte Folded Reload
	.loc	6 2218 13                       ; /Applications/Xcode.app/Contents/Developer/Platforms/MacOSX.platform/Developer/SDKs/MacOSX13.1.sdk/usr/include/c++/v1/string:2218:13
	str	x8, [sp, #40]
	.loc	6 2219 28 is_stmt 1             ; /Applications/Xcode.app/Contents/Developer/Platforms/MacOSX.platform/Developer/SDKs/MacOSX13.1.sdk/usr/include/c++/v1/string:2219:28
	ldr	x1, [sp, #40]
	.loc	6 2219 9 is_stmt 0              ; /Applications/Xcode.app/Contents/Developer/Platforms/MacOSX.platform/Developer/SDKs/MacOSX13.1.sdk/usr/include/c++/v1/string:2219:9
	bl	__ZNSt3__112basic_stringIcNS_11char_traitsIcEENS_9allocatorIcEEE18__set_long_pointerEPc
	ldr	x0, [sp, #8]                    ; 8-byte Folded Reload
	.loc	6 2220 24 is_stmt 1             ; /Applications/Xcode.app/Contents/Developer/Platforms/MacOSX.platform/Developer/SDKs/MacOSX13.1.sdk/usr/include/c++/v1/string:2220:24
	ldr	x8, [sp, #32]
	.loc	6 2220 29 is_stmt 0             ; /Applications/Xcode.app/Contents/Developer/Platforms/MacOSX.platform/Developer/SDKs/MacOSX13.1.sdk/usr/include/c++/v1/string:2220:29
	add	x1, x8, #1
	.loc	6 2220 9                        ; /Applications/Xcode.app/Contents/Developer/Platforms/MacOSX.platform/Developer/SDKs/MacOSX13.1.sdk/usr/include/c++/v1/string:2220:9
	bl	__ZNSt3__112basic_stringIcNS_11char_traitsIcEENS_9allocatorIcEEE14__set_long_capEm
	ldr	x0, [sp, #8]                    ; 8-byte Folded Reload
	.loc	6 2221 25 is_stmt 1             ; /Applications/Xcode.app/Contents/Developer/Platforms/MacOSX.platform/Developer/SDKs/MacOSX13.1.sdk/usr/include/c++/v1/string:2221:25
	ldur	x1, [x29, #-32]
	.loc	6 2221 9 is_stmt 0              ; /Applications/Xcode.app/Contents/Developer/Platforms/MacOSX.platform/Developer/SDKs/MacOSX13.1.sdk/usr/include/c++/v1/string:2221:9
	bl	__ZNSt3__112basic_stringIcNS_11char_traitsIcEENS_9allocatorIcEEE15__set_long_sizeEm
	b	LBB85_5
Ltmp323:
LBB85_5:
	.loc	6 2228 5 is_stmt 1              ; /Applications/Xcode.app/Contents/Developer/Platforms/MacOSX.platform/Developer/SDKs/MacOSX13.1.sdk/usr/include/c++/v1/string:2228:5
	b	LBB85_6
LBB85_6:                                ; =>This Inner Loop Header: Depth=1
Ltmp324:
	.loc	6 2228 12 is_stmt 0             ; /Applications/Xcode.app/Contents/Developer/Platforms/MacOSX.platform/Developer/SDKs/MacOSX13.1.sdk/usr/include/c++/v1/string:2228:12
	ldur	x8, [x29, #-16]
	.loc	6 2228 23                       ; /Applications/Xcode.app/Contents/Developer/Platforms/MacOSX.platform/Developer/SDKs/MacOSX13.1.sdk/usr/include/c++/v1/string:2228:23
	ldur	x9, [x29, #-24]
Ltmp325:
	.loc	6 2228 5                        ; /Applications/Xcode.app/Contents/Developer/Platforms/MacOSX.platform/Developer/SDKs/MacOSX13.1.sdk/usr/include/c++/v1/string:2228:5
	subs	x8, x8, x9
	b.eq	LBB85_9
	b	LBB85_7
LBB85_7:                                ;   in Loop: Header=BB85_6 Depth=1
Ltmp326:
	.loc	6 2229 30 is_stmt 1             ; /Applications/Xcode.app/Contents/Developer/Platforms/MacOSX.platform/Developer/SDKs/MacOSX13.1.sdk/usr/include/c++/v1/string:2229:30
	ldr	x0, [sp, #40]
	.loc	6 2229 36 is_stmt 0             ; /Applications/Xcode.app/Contents/Developer/Platforms/MacOSX.platform/Developer/SDKs/MacOSX13.1.sdk/usr/include/c++/v1/string:2229:36
	ldur	x8, [x29, #-16]
	.loc	6 2229 35                       ; /Applications/Xcode.app/Contents/Developer/Platforms/MacOSX.platform/Developer/SDKs/MacOSX13.1.sdk/usr/include/c++/v1/string:2229:35
	ldrb	w8, [x8]
	add	x1, sp, #31
	strb	w8, [sp, #31]
	.loc	6 2229 9                        ; /Applications/Xcode.app/Contents/Developer/Platforms/MacOSX.platform/Developer/SDKs/MacOSX13.1.sdk/usr/include/c++/v1/string:2229:9
	bl	__ZNSt3__111char_traitsIcE6assignERcRKc
	b	LBB85_8
LBB85_8:                                ;   in Loop: Header=BB85_6 Depth=1
	.loc	6 2228 31 is_stmt 1             ; /Applications/Xcode.app/Contents/Developer/Platforms/MacOSX.platform/Developer/SDKs/MacOSX13.1.sdk/usr/include/c++/v1/string:2228:31
	ldur	x8, [x29, #-16]
	add	x8, x8, #1
	stur	x8, [x29, #-16]
	.loc	6 2228 49 is_stmt 0             ; /Applications/Xcode.app/Contents/Developer/Platforms/MacOSX.platform/Developer/SDKs/MacOSX13.1.sdk/usr/include/c++/v1/string:2228:49
	ldr	x8, [sp, #40]
	add	x8, x8, #1
	str	x8, [sp, #40]
	.loc	6 2228 5                        ; /Applications/Xcode.app/Contents/Developer/Platforms/MacOSX.platform/Developer/SDKs/MacOSX13.1.sdk/usr/include/c++/v1/string:2228:5
	b	LBB85_6
Ltmp327:
LBB85_9:
	.loc	6 2230 26 is_stmt 1             ; /Applications/Xcode.app/Contents/Developer/Platforms/MacOSX.platform/Developer/SDKs/MacOSX13.1.sdk/usr/include/c++/v1/string:2230:26
	ldr	x0, [sp, #40]
	add	x1, sp, #30
	.loc	6 2230 31 is_stmt 0             ; /Applications/Xcode.app/Contents/Developer/Platforms/MacOSX.platform/Developer/SDKs/MacOSX13.1.sdk/usr/include/c++/v1/string:2230:31
	strb	wzr, [sp, #30]
	.loc	6 2230 5                        ; /Applications/Xcode.app/Contents/Developer/Platforms/MacOSX.platform/Developer/SDKs/MacOSX13.1.sdk/usr/include/c++/v1/string:2230:5
	bl	__ZNSt3__111char_traitsIcE6assignERcRKc
Ltmp328:
	.loc	6 2240 1 is_stmt 1              ; /Applications/Xcode.app/Contents/Developer/Platforms/MacOSX.platform/Developer/SDKs/MacOSX13.1.sdk/usr/include/c++/v1/string:2240:1
	ldp	x29, x30, [sp, #80]             ; 16-byte Folded Reload
	add	sp, sp, #96
	ret
Ltmp329:
Lfunc_end85:
	.cfi_endproc
                                        ; -- End function
	.p2align	2                               ; -- Begin function _ZNSt3__117__compressed_pairINS_12basic_stringIcNS_11char_traitsIcEENS_9allocatorIcEEE5__repES5_EC2INS_18__default_init_tagERKS5_EEOT_OT0_
__ZNSt3__117__compressed_pairINS_12basic_stringIcNS_11char_traitsIcEENS_9allocatorIcEEE5__repES5_EC2INS_18__default_init_tagERKS5_EEOT_OT0_: ; @_ZNSt3__117__compressed_pairINS_12basic_stringIcNS_11char_traitsIcEENS_9allocatorIcEEE5__repES5_EC2INS_18__default_init_tagERKS5_EEOT_OT0_
Lfunc_begin86:
	.loc	8 136 0                         ; /Applications/Xcode.app/Contents/Developer/Platforms/MacOSX.platform/Developer/SDKs/MacOSX13.1.sdk/usr/include/c++/v1/__memory/compressed_pair.h:136:0
	.cfi_startproc
; %bb.0:
	sub	sp, sp, #64
	stp	x29, x30, [sp, #48]             ; 16-byte Folded Spill
	add	x29, sp, #48
	.cfi_def_cfa w29, 16
	.cfi_offset w30, -8
	.cfi_offset w29, -16
	stur	x0, [x29, #-8]
	stur	x1, [x29, #-16]
	str	x2, [sp, #24]
	ldur	x8, [x29, #-8]
	str	x8, [sp, #8]                    ; 8-byte Folded Spill
Ltmp330:
	.loc	8 136 39 prologue_end           ; /Applications/Xcode.app/Contents/Developer/Platforms/MacOSX.platform/Developer/SDKs/MacOSX13.1.sdk/usr/include/c++/v1/__memory/compressed_pair.h:136:39
	ldur	x0, [x29, #-16]
	.loc	8 136 16 is_stmt 0              ; /Applications/Xcode.app/Contents/Developer/Platforms/MacOSX.platform/Developer/SDKs/MacOSX13.1.sdk/usr/include/c++/v1/__memory/compressed_pair.h:136:16
	bl	__ZNSt3__1L7forwardINS_18__default_init_tagEEEOT_RNS_16remove_referenceIS2_E4typeE
	ldr	x0, [sp, #8]                    ; 8-byte Folded Reload
	.loc	8 136 9                         ; /Applications/Xcode.app/Contents/Developer/Platforms/MacOSX.platform/Developer/SDKs/MacOSX13.1.sdk/usr/include/c++/v1/__memory/compressed_pair.h:136:9
	bl	__ZNSt3__122__compressed_pair_elemINS_12basic_stringIcNS_11char_traitsIcEENS_9allocatorIcEEE5__repELi0ELb0EEC2ENS_18__default_init_tagE
	.loc	8 136 77                        ; /Applications/Xcode.app/Contents/Developer/Platforms/MacOSX.platform/Developer/SDKs/MacOSX13.1.sdk/usr/include/c++/v1/__memory/compressed_pair.h:136:77
	ldr	x0, [sp, #24]
	.loc	8 136 54                        ; /Applications/Xcode.app/Contents/Developer/Platforms/MacOSX.platform/Developer/SDKs/MacOSX13.1.sdk/usr/include/c++/v1/__memory/compressed_pair.h:136:54
	bl	__ZNSt3__1L7forwardIRKNS_9allocatorIcEEEEOT_RNS_16remove_referenceIS5_E4typeE
	mov	x1, x0
	ldr	x0, [sp, #8]                    ; 8-byte Folded Reload
	.loc	8 136 47                        ; /Applications/Xcode.app/Contents/Developer/Platforms/MacOSX.platform/Developer/SDKs/MacOSX13.1.sdk/usr/include/c++/v1/__memory/compressed_pair.h:136:47
	bl	__ZNSt3__122__compressed_pair_elemINS_9allocatorIcEELi1ELb1EEC2IRKS2_vEEOT_
	ldr	x0, [sp, #8]                    ; 8-byte Folded Reload
	.loc	8 136 85                        ; /Applications/Xcode.app/Contents/Developer/Platforms/MacOSX.platform/Developer/SDKs/MacOSX13.1.sdk/usr/include/c++/v1/__memory/compressed_pair.h:136:85
	ldp	x29, x30, [sp, #48]             ; 16-byte Folded Reload
	add	sp, sp, #64
	ret
Ltmp331:
Lfunc_end86:
	.cfi_endproc
                                        ; -- End function
	.p2align	2                               ; -- Begin function _ZNSt3__1L7forwardIRKNS_9allocatorIcEEEEOT_RNS_16remove_referenceIS5_E4typeE
__ZNSt3__1L7forwardIRKNS_9allocatorIcEEEEOT_RNS_16remove_referenceIS5_E4typeE: ; @_ZNSt3__1L7forwardIRKNS_9allocatorIcEEEEOT_RNS_16remove_referenceIS5_E4typeE
Lfunc_begin87:
	.loc	88 27 0 is_stmt 1               ; /Applications/Xcode.app/Contents/Developer/Platforms/MacOSX.platform/Developer/SDKs/MacOSX13.1.sdk/usr/include/c++/v1/__utility/forward.h:27:0
	.cfi_startproc
; %bb.0:
	sub	sp, sp, #16
	.cfi_def_cfa_offset 16
	str	x0, [sp, #8]
Ltmp333:
	.loc	88 28 29 prologue_end           ; /Applications/Xcode.app/Contents/Developer/Platforms/MacOSX.platform/Developer/SDKs/MacOSX13.1.sdk/usr/include/c++/v1/__utility/forward.h:28:29
	ldr	x0, [sp, #8]
	.loc	88 28 3 is_stmt 0               ; /Applications/Xcode.app/Contents/Developer/Platforms/MacOSX.platform/Developer/SDKs/MacOSX13.1.sdk/usr/include/c++/v1/__utility/forward.h:28:3
	add	sp, sp, #16
	ret
Ltmp334:
Lfunc_end87:
	.cfi_endproc
                                        ; -- End function
	.p2align	2                               ; -- Begin function _ZNSt3__122__compressed_pair_elemINS_9allocatorIcEELi1ELb1EEC2IRKS2_vEEOT_
__ZNSt3__122__compressed_pair_elemINS_9allocatorIcEELi1ELb1EEC2IRKS2_vEEOT_: ; @_ZNSt3__122__compressed_pair_elemINS_9allocatorIcEELi1ELb1EEC2IRKS2_vEEOT_
Lfunc_begin88:
	.loc	8 93 0 is_stmt 1                ; /Applications/Xcode.app/Contents/Developer/Platforms/MacOSX.platform/Developer/SDKs/MacOSX13.1.sdk/usr/include/c++/v1/__memory/compressed_pair.h:93:0
	.cfi_startproc
; %bb.0:
	sub	sp, sp, #48
	stp	x29, x30, [sp, #32]             ; 16-byte Folded Spill
	add	x29, sp, #32
	.cfi_def_cfa w29, 16
	.cfi_offset w30, -8
	.cfi_offset w29, -16
	stur	x0, [x29, #-8]
	str	x1, [sp, #16]
	ldur	x8, [x29, #-8]
	str	x8, [sp, #8]                    ; 8-byte Folded Spill
Ltmp335:
	.loc	8 92 45 prologue_end            ; /Applications/Xcode.app/Contents/Developer/Platforms/MacOSX.platform/Developer/SDKs/MacOSX13.1.sdk/usr/include/c++/v1/__memory/compressed_pair.h:92:45
	ldr	x0, [sp, #16]
	.loc	8 92 22 is_stmt 0               ; /Applications/Xcode.app/Contents/Developer/Platforms/MacOSX.platform/Developer/SDKs/MacOSX13.1.sdk/usr/include/c++/v1/__memory/compressed_pair.h:92:22
	bl	__ZNSt3__1L7forwardIRKNS_9allocatorIcEEEEOT_RNS_16remove_referenceIS5_E4typeE
	ldr	x0, [sp, #8]                    ; 8-byte Folded Reload
	.loc	8 93 4 is_stmt 1                ; /Applications/Xcode.app/Contents/Developer/Platforms/MacOSX.platform/Developer/SDKs/MacOSX13.1.sdk/usr/include/c++/v1/__memory/compressed_pair.h:93:4
	ldp	x29, x30, [sp, #32]             ; 16-byte Folded Reload
	add	sp, sp, #48
	ret
Ltmp336:
Lfunc_end88:
	.cfi_endproc
                                        ; -- End function
	.p2align	2                               ; -- Begin function _ZNKSt3__112basic_stringIcNS_11char_traitsIcEENS_9allocatorIcEEE8max_sizeEv
__ZNKSt3__112basic_stringIcNS_11char_traitsIcEENS_9allocatorIcEEE8max_sizeEv: ; @_ZNKSt3__112basic_stringIcNS_11char_traitsIcEENS_9allocatorIcEEE8max_sizeEv
Lfunc_begin89:
	.loc	6 3331 0                        ; /Applications/Xcode.app/Contents/Developer/Platforms/MacOSX.platform/Developer/SDKs/MacOSX13.1.sdk/usr/include/c++/v1/string:3331:0
	.cfi_startproc
; %bb.0:
	sub	sp, sp, #32
	stp	x29, x30, [sp, #16]             ; 16-byte Folded Spill
	add	x29, sp, #16
	.cfi_def_cfa w29, 16
	.cfi_offset w30, -8
	.cfi_offset w29, -16
	str	x0, [sp, #8]
	ldr	x0, [sp, #8]
Ltmp337:
	.loc	6 3332 46 prologue_end          ; /Applications/Xcode.app/Contents/Developer/Platforms/MacOSX.platform/Developer/SDKs/MacOSX13.1.sdk/usr/include/c++/v1/string:3332:46
	bl	__ZNKSt3__112basic_stringIcNS_11char_traitsIcEENS_9allocatorIcEEE7__allocEv
	.loc	6 3332 21 is_stmt 0             ; /Applications/Xcode.app/Contents/Developer/Platforms/MacOSX.platform/Developer/SDKs/MacOSX13.1.sdk/usr/include/c++/v1/string:3332:21
	bl	__ZNSt3__116allocator_traitsINS_9allocatorIcEEE8max_sizeIS2_vEEmRKS2_
	.loc	6 3332 15                       ; /Applications/Xcode.app/Contents/Developer/Platforms/MacOSX.platform/Developer/SDKs/MacOSX13.1.sdk/usr/include/c++/v1/string:3332:15
	str	x0, [sp]
	.loc	6 3336 12 is_stmt 1             ; /Applications/Xcode.app/Contents/Developer/Platforms/MacOSX.platform/Developer/SDKs/MacOSX13.1.sdk/usr/include/c++/v1/string:3336:12
	ldr	x8, [sp]
	.loc	6 3336 16 is_stmt 0             ; /Applications/Xcode.app/Contents/Developer/Platforms/MacOSX.platform/Developer/SDKs/MacOSX13.1.sdk/usr/include/c++/v1/string:3336:16
	subs	x0, x8, #16
	.loc	6 3336 5                        ; /Applications/Xcode.app/Contents/Developer/Platforms/MacOSX.platform/Developer/SDKs/MacOSX13.1.sdk/usr/include/c++/v1/string:3336:5
	ldp	x29, x30, [sp, #16]             ; 16-byte Folded Reload
	add	sp, sp, #32
	ret
Ltmp338:
Lfunc_end89:
	.cfi_endproc
                                        ; -- End function
	.p2align	2                               ; -- Begin function _ZNKSt3__112basic_stringIcNS_11char_traitsIcEENS_9allocatorIcEEE20__throw_length_errorEv
__ZNKSt3__112basic_stringIcNS_11char_traitsIcEENS_9allocatorIcEEE20__throw_length_errorEv: ; @_ZNKSt3__112basic_stringIcNS_11char_traitsIcEENS_9allocatorIcEEE20__throw_length_errorEv
Lfunc_begin90:
	.loc	6 1750 0 is_stmt 1              ; /Applications/Xcode.app/Contents/Developer/Platforms/MacOSX.platform/Developer/SDKs/MacOSX13.1.sdk/usr/include/c++/v1/string:1750:0
	.cfi_startproc
; %bb.0:
	sub	sp, sp, #32
	stp	x29, x30, [sp, #16]             ; 16-byte Folded Spill
	add	x29, sp, #16
	.cfi_def_cfa w29, 16
	.cfi_offset w30, -8
	.cfi_offset w29, -16
	str	x0, [sp, #8]
	ldr	x0, [sp, #8]
Ltmp339:
	.loc	6 1752 38 prologue_end          ; /Applications/Xcode.app/Contents/Developer/Platforms/MacOSX.platform/Developer/SDKs/MacOSX13.1.sdk/usr/include/c++/v1/string:1752:38
	bl	__ZNKSt3__121__basic_string_commonILb1EE20__throw_length_errorEv
Ltmp340:
Lfunc_end90:
	.cfi_endproc
                                        ; -- End function
	.p2align	2                               ; -- Begin function _ZNSt3__112basic_stringIcNS_11char_traitsIcEENS_9allocatorIcEEE11__recommendEm
__ZNSt3__112basic_stringIcNS_11char_traitsIcEENS_9allocatorIcEEE11__recommendEm: ; @_ZNSt3__112basic_stringIcNS_11char_traitsIcEENS_9allocatorIcEEE11__recommendEm
Lfunc_begin91:
	.loc	6 1598 0                        ; /Applications/Xcode.app/Contents/Developer/Platforms/MacOSX.platform/Developer/SDKs/MacOSX13.1.sdk/usr/include/c++/v1/string:1598:0
	.cfi_startproc
; %bb.0:
	sub	sp, sp, #48
	stp	x29, x30, [sp, #32]             ; 16-byte Folded Spill
	add	x29, sp, #32
	.cfi_def_cfa w29, 16
	.cfi_offset w30, -8
	.cfi_offset w29, -16
	str	x0, [sp, #16]
Ltmp341:
	.loc	6 1599 13 prologue_end          ; /Applications/Xcode.app/Contents/Developer/Platforms/MacOSX.platform/Developer/SDKs/MacOSX13.1.sdk/usr/include/c++/v1/string:1599:13
	ldr	x8, [sp, #16]
Ltmp342:
	.loc	6 1599 13 is_stmt 0             ; /Applications/Xcode.app/Contents/Developer/Platforms/MacOSX.platform/Developer/SDKs/MacOSX13.1.sdk/usr/include/c++/v1/string:1599:13
	subs	x8, x8, #23
	b.hs	LBB91_2
	b	LBB91_1
LBB91_1:
	.loc	6 0 13                          ; /Applications/Xcode.app/Contents/Developer/Platforms/MacOSX.platform/Developer/SDKs/MacOSX13.1.sdk/usr/include/c++/v1/string:0:13
	mov	x8, #22
Ltmp343:
	.loc	6 1599 30                       ; /Applications/Xcode.app/Contents/Developer/Platforms/MacOSX.platform/Developer/SDKs/MacOSX13.1.sdk/usr/include/c++/v1/string:1599:30
	stur	x8, [x29, #-8]
	b	LBB91_5
Ltmp344:
LBB91_2:
	.loc	6 1601 60 is_stmt 1             ; /Applications/Xcode.app/Contents/Developer/Platforms/MacOSX.platform/Developer/SDKs/MacOSX13.1.sdk/usr/include/c++/v1/string:1601:60
	ldr	x8, [sp, #16]
	.loc	6 1601 63 is_stmt 0             ; /Applications/Xcode.app/Contents/Developer/Platforms/MacOSX.platform/Developer/SDKs/MacOSX13.1.sdk/usr/include/c++/v1/string:1601:63
	add	x0, x8, #1
	.loc	6 1600 29 is_stmt 1             ; /Applications/Xcode.app/Contents/Developer/Platforms/MacOSX.platform/Developer/SDKs/MacOSX13.1.sdk/usr/include/c++/v1/string:1600:29
	bl	__ZNSt3__112basic_stringIcNS_11char_traitsIcEENS_9allocatorIcEEE10__align_itILm16EEEmm
	.loc	6 1601 67                       ; /Applications/Xcode.app/Contents/Developer/Platforms/MacOSX.platform/Developer/SDKs/MacOSX13.1.sdk/usr/include/c++/v1/string:1601:67
	subs	x8, x0, #1
	.loc	6 1600 19                       ; /Applications/Xcode.app/Contents/Developer/Platforms/MacOSX.platform/Developer/SDKs/MacOSX13.1.sdk/usr/include/c++/v1/string:1600:19
	str	x8, [sp, #8]
Ltmp345:
	.loc	6 1602 13                       ; /Applications/Xcode.app/Contents/Developer/Platforms/MacOSX.platform/Developer/SDKs/MacOSX13.1.sdk/usr/include/c++/v1/string:1602:13
	ldr	x8, [sp, #8]
Ltmp346:
	.loc	6 1602 13 is_stmt 0             ; /Applications/Xcode.app/Contents/Developer/Platforms/MacOSX.platform/Developer/SDKs/MacOSX13.1.sdk/usr/include/c++/v1/string:1602:13
	subs	x8, x8, #23
	b.ne	LBB91_4
	b	LBB91_3
LBB91_3:
Ltmp347:
	.loc	6 1602 35                       ; /Applications/Xcode.app/Contents/Developer/Platforms/MacOSX.platform/Developer/SDKs/MacOSX13.1.sdk/usr/include/c++/v1/string:1602:35
	ldr	x8, [sp, #8]
	add	x8, x8, #1
	str	x8, [sp, #8]
	b	LBB91_4
Ltmp348:
LBB91_4:
	.loc	6 1603 16 is_stmt 1             ; /Applications/Xcode.app/Contents/Developer/Platforms/MacOSX.platform/Developer/SDKs/MacOSX13.1.sdk/usr/include/c++/v1/string:1603:16
	ldr	x8, [sp, #8]
	.loc	6 1603 9 is_stmt 0              ; /Applications/Xcode.app/Contents/Developer/Platforms/MacOSX.platform/Developer/SDKs/MacOSX13.1.sdk/usr/include/c++/v1/string:1603:9
	stur	x8, [x29, #-8]
	b	LBB91_5
LBB91_5:
	.loc	6 1604 9 is_stmt 1              ; /Applications/Xcode.app/Contents/Developer/Platforms/MacOSX.platform/Developer/SDKs/MacOSX13.1.sdk/usr/include/c++/v1/string:1604:9
	ldur	x0, [x29, #-8]
	ldp	x29, x30, [sp, #32]             ; 16-byte Folded Reload
	add	sp, sp, #48
	ret
Ltmp349:
Lfunc_end91:
	.cfi_endproc
                                        ; -- End function
	.p2align	2                               ; -- Begin function _ZNSt3__116allocator_traitsINS_9allocatorIcEEE8allocateERS2_m
__ZNSt3__116allocator_traitsINS_9allocatorIcEEE8allocateERS2_m: ; @_ZNSt3__116allocator_traitsINS_9allocatorIcEEE8allocateERS2_m
Lfunc_begin92:
	.loc	7 261 0                         ; /Applications/Xcode.app/Contents/Developer/Platforms/MacOSX.platform/Developer/SDKs/MacOSX13.1.sdk/usr/include/c++/v1/__memory/allocator_traits.h:261:0
	.cfi_startproc
; %bb.0:
	sub	sp, sp, #32
	stp	x29, x30, [sp, #16]             ; 16-byte Folded Spill
	add	x29, sp, #16
	.cfi_def_cfa w29, 16
	.cfi_offset w30, -8
	.cfi_offset w29, -16
	str	x0, [sp, #8]
	str	x1, [sp]
Ltmp350:
	.loc	7 262 16 prologue_end           ; /Applications/Xcode.app/Contents/Developer/Platforms/MacOSX.platform/Developer/SDKs/MacOSX13.1.sdk/usr/include/c++/v1/__memory/allocator_traits.h:262:16
	ldr	x0, [sp, #8]
	.loc	7 262 29 is_stmt 0              ; /Applications/Xcode.app/Contents/Developer/Platforms/MacOSX.platform/Developer/SDKs/MacOSX13.1.sdk/usr/include/c++/v1/__memory/allocator_traits.h:262:29
	ldr	x1, [sp]
	.loc	7 262 20                        ; /Applications/Xcode.app/Contents/Developer/Platforms/MacOSX.platform/Developer/SDKs/MacOSX13.1.sdk/usr/include/c++/v1/__memory/allocator_traits.h:262:20
	bl	__ZNSt3__19allocatorIcE8allocateEm
	.loc	7 262 9                         ; /Applications/Xcode.app/Contents/Developer/Platforms/MacOSX.platform/Developer/SDKs/MacOSX13.1.sdk/usr/include/c++/v1/__memory/allocator_traits.h:262:9
	ldp	x29, x30, [sp, #16]             ; 16-byte Folded Reload
	add	sp, sp, #32
	ret
Ltmp351:
Lfunc_end92:
	.cfi_endproc
                                        ; -- End function
	.p2align	2                               ; -- Begin function _ZNSt3__112basic_stringIcNS_11char_traitsIcEENS_9allocatorIcEEE18__set_long_pointerEPc
__ZNSt3__112basic_stringIcNS_11char_traitsIcEENS_9allocatorIcEEE18__set_long_pointerEPc: ; @_ZNSt3__112basic_stringIcNS_11char_traitsIcEENS_9allocatorIcEEE18__set_long_pointerEPc
Lfunc_begin93:
	.loc	6 1563 0 is_stmt 1              ; /Applications/Xcode.app/Contents/Developer/Platforms/MacOSX.platform/Developer/SDKs/MacOSX13.1.sdk/usr/include/c++/v1/string:1563:0
	.cfi_startproc
; %bb.0:
	sub	sp, sp, #48
	stp	x29, x30, [sp, #32]             ; 16-byte Folded Spill
	add	x29, sp, #32
	.cfi_def_cfa w29, 16
	.cfi_offset w30, -8
	.cfi_offset w29, -16
	stur	x0, [x29, #-8]
	str	x1, [sp, #16]
	ldur	x0, [x29, #-8]
Ltmp352:
	.loc	6 1563 37 prologue_end          ; /Applications/Xcode.app/Contents/Developer/Platforms/MacOSX.platform/Developer/SDKs/MacOSX13.1.sdk/usr/include/c++/v1/string:1563:37
	ldr	x8, [sp, #16]
	str	x8, [sp, #8]                    ; 8-byte Folded Spill
	.loc	6 1563 15 is_stmt 0             ; /Applications/Xcode.app/Contents/Developer/Platforms/MacOSX.platform/Developer/SDKs/MacOSX13.1.sdk/usr/include/c++/v1/string:1563:15
	bl	__ZNSt3__117__compressed_pairINS_12basic_stringIcNS_11char_traitsIcEENS_9allocatorIcEEE5__repES5_E5firstEv
	ldr	x8, [sp, #8]                    ; 8-byte Folded Reload
	.loc	6 1563 35                       ; /Applications/Xcode.app/Contents/Developer/Platforms/MacOSX.platform/Developer/SDKs/MacOSX13.1.sdk/usr/include/c++/v1/string:1563:35
	str	x8, [x0]
	.loc	6 1563 41                       ; /Applications/Xcode.app/Contents/Developer/Platforms/MacOSX.platform/Developer/SDKs/MacOSX13.1.sdk/usr/include/c++/v1/string:1563:41
	ldp	x29, x30, [sp, #32]             ; 16-byte Folded Reload
	add	sp, sp, #48
	ret
Ltmp353:
Lfunc_end93:
	.cfi_endproc
                                        ; -- End function
	.p2align	2                               ; -- Begin function _ZNSt3__112basic_stringIcNS_11char_traitsIcEENS_9allocatorIcEEE14__set_long_capEm
__ZNSt3__112basic_stringIcNS_11char_traitsIcEENS_9allocatorIcEEE14__set_long_capEm: ; @_ZNSt3__112basic_stringIcNS_11char_traitsIcEENS_9allocatorIcEEE14__set_long_capEm
Lfunc_begin94:
	.loc	6 1556 0 is_stmt 1              ; /Applications/Xcode.app/Contents/Developer/Platforms/MacOSX.platform/Developer/SDKs/MacOSX13.1.sdk/usr/include/c++/v1/string:1556:0
	.cfi_startproc
; %bb.0:
	sub	sp, sp, #48
	stp	x29, x30, [sp, #32]             ; 16-byte Folded Spill
	add	x29, sp, #32
	.cfi_def_cfa w29, 16
	.cfi_offset w30, -8
	.cfi_offset w29, -16
	stur	x0, [x29, #-8]
	str	x1, [sp, #16]
	ldur	x0, [x29, #-8]
Ltmp354:
	.loc	6 1556 50 prologue_end          ; /Applications/Xcode.app/Contents/Developer/Platforms/MacOSX.platform/Developer/SDKs/MacOSX13.1.sdk/usr/include/c++/v1/string:1556:50
	ldr	x9, [sp, #16]
	mov	x8, #-9223372036854775808
	.loc	6 1556 48 is_stmt 0             ; /Applications/Xcode.app/Contents/Developer/Platforms/MacOSX.platform/Developer/SDKs/MacOSX13.1.sdk/usr/include/c++/v1/string:1556:48
	orr	x8, x8, x9
	str	x8, [sp, #8]                    ; 8-byte Folded Spill
	.loc	6 1556 15                       ; /Applications/Xcode.app/Contents/Developer/Platforms/MacOSX.platform/Developer/SDKs/MacOSX13.1.sdk/usr/include/c++/v1/string:1556:15
	bl	__ZNSt3__117__compressed_pairINS_12basic_stringIcNS_11char_traitsIcEENS_9allocatorIcEEE5__repES5_E5firstEv
	ldr	x8, [sp, #8]                    ; 8-byte Folded Reload
	.loc	6 1556 34                       ; /Applications/Xcode.app/Contents/Developer/Platforms/MacOSX.platform/Developer/SDKs/MacOSX13.1.sdk/usr/include/c++/v1/string:1556:34
	str	x8, [x0, #16]
	.loc	6 1556 54                       ; /Applications/Xcode.app/Contents/Developer/Platforms/MacOSX.platform/Developer/SDKs/MacOSX13.1.sdk/usr/include/c++/v1/string:1556:54
	ldp	x29, x30, [sp, #32]             ; 16-byte Folded Reload
	add	sp, sp, #48
	ret
Ltmp355:
Lfunc_end94:
	.cfi_endproc
                                        ; -- End function
	.p2align	2                               ; -- Begin function _ZNSt3__116allocator_traitsINS_9allocatorIcEEE8max_sizeIS2_vEEmRKS2_
__ZNSt3__116allocator_traitsINS_9allocatorIcEEE8max_sizeIS2_vEEmRKS2_: ; @_ZNSt3__116allocator_traitsINS_9allocatorIcEEE8max_sizeIS2_vEEmRKS2_
Lfunc_begin95:
	.loc	7 326 0 is_stmt 1               ; /Applications/Xcode.app/Contents/Developer/Platforms/MacOSX.platform/Developer/SDKs/MacOSX13.1.sdk/usr/include/c++/v1/__memory/allocator_traits.h:326:0
	.cfi_startproc
; %bb.0:
	sub	sp, sp, #32
	stp	x29, x30, [sp, #16]             ; 16-byte Folded Spill
	add	x29, sp, #16
	.cfi_def_cfa w29, 16
	.cfi_offset w30, -8
	.cfi_offset w29, -16
	str	x0, [sp, #8]
Ltmp356:
	.loc	7 328 16 prologue_end           ; /Applications/Xcode.app/Contents/Developer/Platforms/MacOSX.platform/Developer/SDKs/MacOSX13.1.sdk/usr/include/c++/v1/__memory/allocator_traits.h:328:16
	ldr	x0, [sp, #8]
	.loc	7 328 20 is_stmt 0              ; /Applications/Xcode.app/Contents/Developer/Platforms/MacOSX.platform/Developer/SDKs/MacOSX13.1.sdk/usr/include/c++/v1/__memory/allocator_traits.h:328:20
	bl	__ZNKSt3__19allocatorIcE8max_sizeEv
	.loc	7 328 9                         ; /Applications/Xcode.app/Contents/Developer/Platforms/MacOSX.platform/Developer/SDKs/MacOSX13.1.sdk/usr/include/c++/v1/__memory/allocator_traits.h:328:9
	ldp	x29, x30, [sp, #16]             ; 16-byte Folded Reload
	add	sp, sp, #32
	ret
Ltmp357:
Lfunc_end95:
	.cfi_endproc
                                        ; -- End function
	.p2align	2                               ; -- Begin function _ZNKSt3__112basic_stringIcNS_11char_traitsIcEENS_9allocatorIcEEE7__allocEv
__ZNKSt3__112basic_stringIcNS_11char_traitsIcEENS_9allocatorIcEEE7__allocEv: ; @_ZNKSt3__112basic_stringIcNS_11char_traitsIcEENS_9allocatorIcEEE7__allocEv
Lfunc_begin96:
	.loc	6 1504 0 is_stmt 1              ; /Applications/Xcode.app/Contents/Developer/Platforms/MacOSX.platform/Developer/SDKs/MacOSX13.1.sdk/usr/include/c++/v1/string:1504:0
	.cfi_startproc
; %bb.0:
	sub	sp, sp, #32
	stp	x29, x30, [sp, #16]             ; 16-byte Folded Spill
	add	x29, sp, #16
	.cfi_def_cfa w29, 16
	.cfi_offset w30, -8
	.cfi_offset w29, -16
	str	x0, [sp, #8]
	ldr	x0, [sp, #8]
Ltmp358:
	.loc	6 1504 144 prologue_end         ; /Applications/Xcode.app/Contents/Developer/Platforms/MacOSX.platform/Developer/SDKs/MacOSX13.1.sdk/usr/include/c++/v1/string:1504:144
	bl	__ZNKSt3__117__compressed_pairINS_12basic_stringIcNS_11char_traitsIcEENS_9allocatorIcEEE5__repES5_E6secondEv
	.loc	6 1504 132 is_stmt 0            ; /Applications/Xcode.app/Contents/Developer/Platforms/MacOSX.platform/Developer/SDKs/MacOSX13.1.sdk/usr/include/c++/v1/string:1504:132
	ldp	x29, x30, [sp, #16]             ; 16-byte Folded Reload
	add	sp, sp, #32
	ret
Ltmp359:
Lfunc_end96:
	.cfi_endproc
