	.arch armv8-a
	.file	"main.cpp"
	.text
	.local	_ZStL8__ioinit
	.comm	_ZStL8__ioinit,1,8
	.section	.text._ZNSt8__detail25__from_chars_alpha_to_numEc,"axG",@progbits,_ZNSt8__detail25__from_chars_alpha_to_numEc,comdat
	.align	2
	.weak	_ZNSt8__detail25__from_chars_alpha_to_numEc
	.type	_ZNSt8__detail25__from_chars_alpha_to_numEc, %function
_ZNSt8__detail25__from_chars_alpha_to_numEc:
.LFB1764:
	.cfi_startproc
	sub	sp, sp, #16
	.cfi_def_cfa_offset 16
	strb	w0, [sp, 15]
	ldrb	w0, [sp, 15]
	sub	w0, w0, #65
	cmp	w0, 57
	bhi	.L2
	adrp	x1, .L4
	add	x1, x1, :lo12:.L4
	ldr	w0, [x1,w0,uxtw #2]
	adr	x1, .Lrtx4
	add	x0, x1, w0, sxtw #2
	br	x0
.Lrtx4:
	.section	.rodata._ZNSt8__detail25__from_chars_alpha_to_numEc,"aG",@progbits,_ZNSt8__detail25__from_chars_alpha_to_numEc,comdat
	.align	0
	.align	2
.L4:
	.word	(.L29 - .Lrtx4) / 4
	.word	(.L28 - .Lrtx4) / 4
	.word	(.L27 - .Lrtx4) / 4
	.word	(.L26 - .Lrtx4) / 4
	.word	(.L25 - .Lrtx4) / 4
	.word	(.L24 - .Lrtx4) / 4
	.word	(.L23 - .Lrtx4) / 4
	.word	(.L22 - .Lrtx4) / 4
	.word	(.L21 - .Lrtx4) / 4
	.word	(.L20 - .Lrtx4) / 4
	.word	(.L19 - .Lrtx4) / 4
	.word	(.L18 - .Lrtx4) / 4
	.word	(.L17 - .Lrtx4) / 4
	.word	(.L16 - .Lrtx4) / 4
	.word	(.L15 - .Lrtx4) / 4
	.word	(.L14 - .Lrtx4) / 4
	.word	(.L13 - .Lrtx4) / 4
	.word	(.L12 - .Lrtx4) / 4
	.word	(.L11 - .Lrtx4) / 4
	.word	(.L10 - .Lrtx4) / 4
	.word	(.L9 - .Lrtx4) / 4
	.word	(.L8 - .Lrtx4) / 4
	.word	(.L7 - .Lrtx4) / 4
	.word	(.L6 - .Lrtx4) / 4
	.word	(.L5 - .Lrtx4) / 4
	.word	(.L3 - .Lrtx4) / 4
	.word	(.L2 - .Lrtx4) / 4
	.word	(.L2 - .Lrtx4) / 4
	.word	(.L2 - .Lrtx4) / 4
	.word	(.L2 - .Lrtx4) / 4
	.word	(.L2 - .Lrtx4) / 4
	.word	(.L2 - .Lrtx4) / 4
	.word	(.L29 - .Lrtx4) / 4
	.word	(.L28 - .Lrtx4) / 4
	.word	(.L27 - .Lrtx4) / 4
	.word	(.L26 - .Lrtx4) / 4
	.word	(.L25 - .Lrtx4) / 4
	.word	(.L24 - .Lrtx4) / 4
	.word	(.L23 - .Lrtx4) / 4
	.word	(.L22 - .Lrtx4) / 4
	.word	(.L21 - .Lrtx4) / 4
	.word	(.L20 - .Lrtx4) / 4
	.word	(.L19 - .Lrtx4) / 4
	.word	(.L18 - .Lrtx4) / 4
	.word	(.L17 - .Lrtx4) / 4
	.word	(.L16 - .Lrtx4) / 4
	.word	(.L15 - .Lrtx4) / 4
	.word	(.L14 - .Lrtx4) / 4
	.word	(.L13 - .Lrtx4) / 4
	.word	(.L12 - .Lrtx4) / 4
	.word	(.L11 - .Lrtx4) / 4
	.word	(.L10 - .Lrtx4) / 4
	.word	(.L9 - .Lrtx4) / 4
	.word	(.L8 - .Lrtx4) / 4
	.word	(.L7 - .Lrtx4) / 4
	.word	(.L6 - .Lrtx4) / 4
	.word	(.L5 - .Lrtx4) / 4
	.word	(.L3 - .Lrtx4) / 4
	.section	.text._ZNSt8__detail25__from_chars_alpha_to_numEc,"axG",@progbits,_ZNSt8__detail25__from_chars_alpha_to_numEc,comdat
.L29:
	mov	w0, 10
	b	.L30
.L28:
	mov	w0, 11
	b	.L30
.L27:
	mov	w0, 12
	b	.L30
.L26:
	mov	w0, 13
	b	.L30
.L25:
	mov	w0, 14
	b	.L30
.L24:
	mov	w0, 15
	b	.L30
.L23:
	mov	w0, 16
	b	.L30
.L22:
	mov	w0, 17
	b	.L30
.L21:
	mov	w0, 18
	b	.L30
.L20:
	mov	w0, 19
	b	.L30
.L19:
	mov	w0, 20
	b	.L30
.L18:
	mov	w0, 21
	b	.L30
.L17:
	mov	w0, 22
	b	.L30
.L16:
	mov	w0, 23
	b	.L30
.L15:
	mov	w0, 24
	b	.L30
.L14:
	mov	w0, 25
	b	.L30
.L13:
	mov	w0, 26
	b	.L30
.L12:
	mov	w0, 27
	b	.L30
.L11:
	mov	w0, 28
	b	.L30
.L10:
	mov	w0, 29
	b	.L30
.L9:
	mov	w0, 30
	b	.L30
.L8:
	mov	w0, 31
	b	.L30
.L7:
	mov	w0, 32
	b	.L30
.L6:
	mov	w0, 33
	b	.L30
.L5:
	mov	w0, 34
	b	.L30
.L3:
	mov	w0, 35
	b	.L30
.L2:
	mov	w0, 255
.L30:
	add	sp, sp, 16
	.cfi_def_cfa_offset 0
	ret
	.cfi_endproc
.LFE1764:
	.size	_ZNSt8__detail25__from_chars_alpha_to_numEc, .-_ZNSt8__detail25__from_chars_alpha_to_numEc
	.section	.text._ZNSt5arrayIcLm10EE4dataEv,"axG",@progbits,_ZNSt5arrayIcLm10EE4dataEv,comdat
	.align	2
	.weak	_ZNSt5arrayIcLm10EE4dataEv
	.type	_ZNSt5arrayIcLm10EE4dataEv, %function
_ZNSt5arrayIcLm10EE4dataEv:
.LFB1844:
	.cfi_startproc
	stp	x29, x30, [sp, -32]!
	.cfi_def_cfa_offset 32
	.cfi_offset 29, -32
	.cfi_offset 30, -24
	mov	x29, sp
	str	x0, [sp, 24]
	ldr	x0, [sp, 24]
	bl	_ZNSt14__array_traitsIcLm10EE6_S_ptrERA10_Kc
	ldp	x29, x30, [sp], 32
	.cfi_restore 30
	.cfi_restore 29
	.cfi_def_cfa_offset 0
	ret
	.cfi_endproc
.LFE1844:
	.size	_ZNSt5arrayIcLm10EE4dataEv, .-_ZNSt5arrayIcLm10EE4dataEv
	.section	.text._ZNSt14__array_traitsIcLm10EE6_S_ptrERA10_Kc,"axG",@progbits,_ZNSt14__array_traitsIcLm10EE6_S_ptrERA10_Kc,comdat
	.align	2
	.weak	_ZNSt14__array_traitsIcLm10EE6_S_ptrERA10_Kc
	.type	_ZNSt14__array_traitsIcLm10EE6_S_ptrERA10_Kc, %function
_ZNSt14__array_traitsIcLm10EE6_S_ptrERA10_Kc:
.LFB1845:
	.cfi_startproc
	sub	sp, sp, #16
	.cfi_def_cfa_offset 16
	str	x0, [sp, 8]
	ldr	x0, [sp, 8]
	add	sp, sp, 16
	.cfi_def_cfa_offset 0
	ret
	.cfi_endproc
.LFE1845:
	.size	_ZNSt14__array_traitsIcLm10EE6_S_ptrERA10_Kc, .-_ZNSt14__array_traitsIcLm10EE6_S_ptrERA10_Kc
	.section	.text._ZNKSt5arrayIcLm10EE4sizeEv,"axG",@progbits,_ZNKSt5arrayIcLm10EE4sizeEv,comdat
	.align	2
	.weak	_ZNKSt5arrayIcLm10EE4sizeEv
	.type	_ZNKSt5arrayIcLm10EE4sizeEv, %function
_ZNKSt5arrayIcLm10EE4sizeEv:
.LFB1846:
	.cfi_startproc
	sub	sp, sp, #16
	.cfi_def_cfa_offset 16
	str	x0, [sp, 8]
	mov	x0, 10
	add	sp, sp, 16
	.cfi_def_cfa_offset 0
	ret
	.cfi_endproc
.LFE1846:
	.size	_ZNKSt5arrayIcLm10EE4sizeEv, .-_ZNKSt5arrayIcLm10EE4sizeEv
	.section	.rodata
	.align	3
.LC1:
	.string	"PATH"
	.align	3
.LC2:
	.string	"Your PATH is: "
	.text
	.align	2
	.global	main
	.type	main, %function
main:
.LFB1843:
	.cfi_startproc
	stp	x29, x30, [sp, -80]!
	.cfi_def_cfa_offset 80
	.cfi_offset 29, -80
	.cfi_offset 30, -72
	mov	x29, sp
	stp	x19, x20, [sp, 16]
	.cfi_offset 19, -64
	.cfi_offset 20, -56
	adrp	x0, :got:__stack_chk_guard
	ldr	x0, [x0, #:got_lo12:__stack_chk_guard]
	ldr	x1, [x0]
	str	x1, [sp, 72]
	mov	x1, 0
	adrp	x0, .LC0
	add	x1, x0, :lo12:.LC0
	add	x0, sp, 56
	ldr	x2, [x1]
	str	x2, [x0]
	ldrh	w1, [x1, 8]
	strh	w1, [x0, 8]
	add	x0, sp, 56
	bl	_ZNSt5arrayIcLm10EE4dataEv
	mov	x20, x0
	add	x0, sp, 56
	bl	_ZNSt5arrayIcLm10EE4dataEv
	mov	x19, x0
	add	x0, sp, 56
	bl	_ZNKSt5arrayIcLm10EE4sizeEv
	add	x0, x19, x0
	add	x1, sp, 44
	mov	w3, 10
	mov	x2, x1
	mov	x1, x0
	mov	x0, x20
	bl	_ZSt10from_charsIiENSt9enable_ifIXsrSt5__or_IJS1_IJSt7is_sameINSt9remove_cvIT_E4typeEaES2_IS6_sES2_IS6_iES2_IS6_lES2_IS6_xES2_IS6_nEEES1_IJS2_IS6_hES2_IS6_tES2_IS6_jES2_IS6_mES2_IS6_yES2_IS6_oEEES2_IcS6_EEE5valueESt17from_chars_resultE4typeEPKcSR_RS4_i
	ldr	w0, [sp, 44]
	mov	w1, w0
	adrp	x0, :got:_ZSt4cout
	ldr	x0, [x0, #:got_lo12:_ZSt4cout]
	bl	_ZNSolsEi
	adrp	x0, .LC1
	add	x0, x0, :lo12:.LC1
	bl	getenv
	str	x0, [sp, 48]
	ldr	x0, [sp, 48]
	cmp	x0, 0
	beq	.L39
	adrp	x0, .LC2
	add	x1, x0, :lo12:.LC2
	adrp	x0, :got:_ZSt4cout
	ldr	x0, [x0, #:got_lo12:_ZSt4cout]
	bl	_ZStlsISt11char_traitsIcEERSt13basic_ostreamIcT_ES5_PKc
	ldr	x1, [sp, 48]
	bl	_ZStlsISt11char_traitsIcEERSt13basic_ostreamIcT_ES5_PKc
	mov	w1, 10
	bl	_ZStlsISt11char_traitsIcEERSt13basic_ostreamIcT_ES5_c
.L39:
	mov	w0, 0
	mov	w1, w0
	adrp	x0, :got:__stack_chk_guard
	ldr	x0, [x0, #:got_lo12:__stack_chk_guard]
	ldr	x3, [sp, 72]
	ldr	x2, [x0]
	subs	x3, x3, x2
	mov	x2, 0
	beq	.L41
	bl	__stack_chk_fail
.L41:
	mov	w0, w1
	ldp	x19, x20, [sp, 16]
	ldp	x29, x30, [sp], 80
	.cfi_restore 30
	.cfi_restore 29
	.cfi_restore 19
	.cfi_restore 20
	.cfi_def_cfa_offset 0
	ret
	.cfi_endproc
.LFE1843:
	.size	main, .-main
	.section	.rodata
	.align	3
.LC0:
	.string	"42 43"
	.zero	4
	.text
	.section	.text._ZSt10from_charsIiENSt9enable_ifIXsrSt5__or_IJS1_IJSt7is_sameINSt9remove_cvIT_E4typeEaES2_IS6_sES2_IS6_iES2_IS6_lES2_IS6_xES2_IS6_nEEES1_IJS2_IS6_hES2_IS6_tES2_IS6_jES2_IS6_mES2_IS6_yES2_IS6_oEEES2_IcS6_EEE5valueESt17from_chars_resultE4typeEPKcSR_RS4_i,"axG",@progbits,_ZSt10from_charsIiENSt9enable_ifIXsrSt5__or_IJS1_IJSt7is_sameINSt9remove_cvIT_E4typeEaES2_IS6_sES2_IS6_iES2_IS6_lES2_IS6_xES2_IS6_nEEES1_IJS2_IS6_hES2_IS6_tES2_IS6_jES2_IS6_mES2_IS6_yES2_IS6_oEEES2_IcS6_EEE5valueESt17from_chars_resultE4typeEPKcSR_RS4_i,comdat
	.align	2
	.weak	_ZSt10from_charsIiENSt9enable_ifIXsrSt5__or_IJS1_IJSt7is_sameINSt9remove_cvIT_E4typeEaES2_IS6_sES2_IS6_iES2_IS6_lES2_IS6_xES2_IS6_nEEES1_IJS2_IS6_hES2_IS6_tES2_IS6_jES2_IS6_mES2_IS6_yES2_IS6_oEEES2_IcS6_EEE5valueESt17from_chars_resultE4typeEPKcSR_RS4_i
	.type	_ZSt10from_charsIiENSt9enable_ifIXsrSt5__or_IJS1_IJSt7is_sameINSt9remove_cvIT_E4typeEaES2_IS6_sES2_IS6_iES2_IS6_lES2_IS6_xES2_IS6_nEEES1_IJS2_IS6_hES2_IS6_tES2_IS6_jES2_IS6_mES2_IS6_yES2_IS6_oEEES2_IcS6_EEE5valueESt17from_chars_resultE4typeEPKcSR_RS4_i, %function
_ZSt10from_charsIiENSt9enable_ifIXsrSt5__or_IJS1_IJSt7is_sameINSt9remove_cvIT_E4typeEaES2_IS6_sES2_IS6_iES2_IS6_lES2_IS6_xES2_IS6_nEEES1_IJS2_IS6_hES2_IS6_tES2_IS6_jES2_IS6_mES2_IS6_yES2_IS6_oEEES2_IcS6_EEE5valueESt17from_chars_resultE4typeEPKcSR_RS4_i:
.LFB2120:
	.cfi_startproc
	stp	x29, x30, [sp, -96]!
	.cfi_def_cfa_offset 96
	.cfi_offset 29, -96
	.cfi_offset 30, -88
	mov	x29, sp
	str	x0, [sp, 40]
	str	x1, [sp, 32]
	str	x2, [sp, 24]
	str	w3, [sp, 20]
	adrp	x0, :got:__stack_chk_guard
	ldr	x0, [x0, #:got_lo12:__stack_chk_guard]
	ldr	x1, [x0]
	str	x1, [sp, 88]
	mov	x1, 0
	stp	xzr, xzr, [sp, 72]
	ldr	x0, [sp, 40]
	str	x0, [sp, 72]
	mov	w0, 1
	str	w0, [sp, 60]
	ldr	x0, [sp, 40]
	ldr	x1, [sp, 32]
	cmp	x1, x0
	beq	.L43
	ldr	x0, [sp, 40]
	ldrb	w0, [x0]
	cmp	w0, 45
	bne	.L43
	mov	w0, -1
	str	w0, [sp, 60]
	ldr	x0, [sp, 40]
	add	x0, x0, 1
	str	x0, [sp, 40]
.L43:
	str	wzr, [sp, 52]
	ldr	x0, [sp, 40]
	str	x0, [sp, 64]
	ldr	w0, [sp, 20]
	cmp	w0, 2
	bne	.L44
	add	x1, sp, 52
	add	x0, sp, 40
	mov	x2, x1
	ldr	x1, [sp, 32]
	bl	_ZNSt8__detail19__from_chars_binaryIjEEbRPKcS2_RT_
	strb	w0, [sp, 51]
	b	.L45
.L44:
	ldr	w0, [sp, 20]
	cmp	w0, 10
	bgt	.L46
	add	x1, sp, 52
	add	x0, sp, 40
	ldr	w3, [sp, 20]
	mov	x2, x1
	ldr	x1, [sp, 32]
	bl	_ZNSt8__detail18__from_chars_digitIjEEbRPKcS2_RT_i
	and	w0, w0, 255
	strb	w0, [sp, 51]
	b	.L45
.L46:
	add	x1, sp, 52
	add	x0, sp, 40
	ldr	w3, [sp, 20]
	mov	x2, x1
	ldr	x1, [sp, 32]
	bl	_ZNSt8__detail18__from_chars_alnumIjEEbRPKcS2_RT_i
	and	w0, w0, 255
	strb	w0, [sp, 51]
.L45:
	ldr	x0, [sp, 40]
	ldr	x1, [sp, 64]
	cmp	x1, x0
	cset	w0, eq
	and	w0, w0, 255
	and	x0, x0, 255
	cmp	x0, 0
	beq	.L47
	mov	w0, 22
	str	w0, [sp, 80]
	b	.L48
.L47:
	ldr	x0, [sp, 40]
	str	x0, [sp, 72]
	ldrb	w0, [sp, 51]
	eor	w0, w0, 1
	and	w0, w0, 255
	cmp	w0, 0
	beq	.L49
	mov	w0, 34
	str	w0, [sp, 80]
	b	.L48
.L49:
	ldr	w0, [sp, 52]
	mov	w1, 0
	ldr	w2, [sp, 60]
	smull	x2, w0, w2
	asr	x3, x2, 32
	asr	w4, w2, 31
	cmp	w4, w3
	beq	.L50
	mov	w1, 1
.L50:
	cmp	w0, 0
	bge	.L52
	mov	w1, 1
	ldr	w3, [sp, 60]
	cmp	w3, 0
	beq	.L53
	ldr	w3, [sp, 60]
	cmn	w3, #1
	bne	.L52
	cmp	w0, w2
	bne	.L52
.L53:
	mov	w1, 0
.L52:
	mov	w0, w2
	str	w0, [sp, 56]
	mov	w0, w1
	and	w0, w0, 1
	and	w0, w0, 255
	cmp	w0, 0
	beq	.L54
	mov	w0, 34
	str	w0, [sp, 80]
	b	.L48
.L54:
	ldr	w1, [sp, 56]
	ldr	x0, [sp, 24]
	str	w1, [x0]
.L48:
	ldp	x0, x1, [sp, 72]
	mov	x2, x0
	mov	x3, x1
	adrp	x0, :got:__stack_chk_guard
	ldr	x0, [x0, #:got_lo12:__stack_chk_guard]
	ldr	x4, [sp, 88]
	ldr	x1, [x0]
	subs	x4, x4, x1
	mov	x1, 0
	beq	.L57
	bl	__stack_chk_fail
.L57:
	mov	x0, x2
	mov	x1, x3
	ldp	x29, x30, [sp], 96
	.cfi_restore 30
	.cfi_restore 29
	.cfi_def_cfa_offset 0
	ret
	.cfi_endproc
.LFE2120:
	.size	_ZSt10from_charsIiENSt9enable_ifIXsrSt5__or_IJS1_IJSt7is_sameINSt9remove_cvIT_E4typeEaES2_IS6_sES2_IS6_iES2_IS6_lES2_IS6_xES2_IS6_nEEES1_IJS2_IS6_hES2_IS6_tES2_IS6_jES2_IS6_mES2_IS6_yES2_IS6_oEEES2_IcS6_EEE5valueESt17from_chars_resultE4typeEPKcSR_RS4_i, .-_ZSt10from_charsIiENSt9enable_ifIXsrSt5__or_IJS1_IJSt7is_sameINSt9remove_cvIT_E4typeEaES2_IS6_sES2_IS6_iES2_IS6_lES2_IS6_xES2_IS6_nEEES1_IJS2_IS6_hES2_IS6_tES2_IS6_jES2_IS6_mES2_IS6_yES2_IS6_oEEES2_IcS6_EEE5valueESt17from_chars_resultE4typeEPKcSR_RS4_i
	.section	.text._ZNSt8__detail19__from_chars_binaryIjEEbRPKcS2_RT_,"axG",@progbits,_ZNSt8__detail19__from_chars_binaryIjEEbRPKcS2_RT_,comdat
	.align	2
	.weak	_ZNSt8__detail19__from_chars_binaryIjEEbRPKcS2_RT_
	.type	_ZNSt8__detail19__from_chars_binaryIjEEbRPKcS2_RT_, %function
_ZNSt8__detail19__from_chars_binaryIjEEbRPKcS2_RT_:
.LFB2223:
	.cfi_startproc
	sub	sp, sp, #64
	.cfi_def_cfa_offset 64
	str	x0, [sp, 24]
	str	x1, [sp, 16]
	str	x2, [sp, 8]
	ldr	x0, [sp, 24]
	ldr	x0, [x0]
	ldr	x1, [sp, 16]
	sub	x0, x1, x0
	str	x0, [sp, 48]
	str	xzr, [sp, 40]
	b	.L59
.L61:
	ldr	x0, [sp, 40]
	add	x0, x0, 1
	str	x0, [sp, 40]
.L59:
	ldr	x1, [sp, 40]
	ldr	x0, [sp, 48]
	cmp	x1, x0
	bge	.L60
	ldr	x0, [sp, 24]
	ldr	x1, [x0]
	ldr	x0, [sp, 40]
	add	x0, x1, x0
	ldrb	w0, [x0]
	cmp	w0, 48
	beq	.L61
.L60:
	ldr	x0, [sp, 40]
	str	x0, [sp, 56]
	b	.L62
.L66:
	ldr	x0, [sp, 24]
	ldr	x1, [x0]
	ldr	x0, [sp, 40]
	add	x0, x1, x0
	ldrb	w0, [x0]
	sub	w0, w0, #48
	strb	w0, [sp, 39]
	ldrb	w0, [sp, 39]
	cmp	w0, 1
	bhi	.L68
	ldr	x0, [sp, 8]
	ldr	w0, [x0]
	lsl	w1, w0, 1
	ldrb	w0, [sp, 39]
	orr	w1, w1, w0
	ldr	x0, [sp, 8]
	str	w1, [x0]
	ldr	x0, [sp, 40]
	add	x0, x0, 1
	str	x0, [sp, 40]
.L62:
	ldr	x1, [sp, 40]
	ldr	x0, [sp, 48]
	cmp	x1, x0
	blt	.L66
	b	.L65
.L68:
	nop
.L65:
	ldr	x0, [sp, 24]
	ldr	x1, [x0]
	ldr	x0, [sp, 40]
	add	x1, x1, x0
	ldr	x0, [sp, 24]
	str	x1, [x0]
	ldr	x1, [sp, 40]
	ldr	x0, [sp, 56]
	sub	x0, x1, x0
	cmp	x0, 32
	cset	w0, le
	and	w0, w0, 255
	add	sp, sp, 64
	.cfi_def_cfa_offset 0
	ret
	.cfi_endproc
.LFE2223:
	.size	_ZNSt8__detail19__from_chars_binaryIjEEbRPKcS2_RT_, .-_ZNSt8__detail19__from_chars_binaryIjEEbRPKcS2_RT_
	.section	.text._ZZNSt8__detail18__from_chars_digitIjEEbRPKcS2_RT_iENKUlcE_clEc,"axG",@progbits,_ZZNSt8__detail18__from_chars_digitIjEEbRPKcS2_RT_iENKUlcE_clEc,comdat
	.align	2
	.weak	_ZZNSt8__detail18__from_chars_digitIjEEbRPKcS2_RT_iENKUlcE_clEc
	.type	_ZZNSt8__detail18__from_chars_digitIjEEbRPKcS2_RT_iENKUlcE_clEc, %function
_ZZNSt8__detail18__from_chars_digitIjEEbRPKcS2_RT_iENKUlcE_clEc:
.LFB2225:
	.cfi_startproc
	sub	sp, sp, #16
	.cfi_def_cfa_offset 16
	str	x0, [sp, 8]
	strb	w1, [sp, 7]
	ldrb	w0, [sp, 7]
	cmp	w0, 47
	bls	.L70
	ldrb	w1, [sp, 7]
	ldr	x0, [sp, 8]
	ldr	w0, [x0]
	add	w0, w0, 47
	cmp	w1, w0
	bgt	.L70
	mov	w0, 1
	b	.L71
.L70:
	mov	w0, 0
.L71:
	add	sp, sp, 16
	.cfi_def_cfa_offset 0
	ret
	.cfi_endproc
.LFE2225:
	.size	_ZZNSt8__detail18__from_chars_digitIjEEbRPKcS2_RT_iENKUlcE_clEc, .-_ZZNSt8__detail18__from_chars_digitIjEEbRPKcS2_RT_iENKUlcE_clEc
	.section	.text._ZNSt8__detail18__from_chars_digitIjEEbRPKcS2_RT_i,"axG",@progbits,_ZNSt8__detail18__from_chars_digitIjEEbRPKcS2_RT_i,comdat
	.align	2
	.weak	_ZNSt8__detail18__from_chars_digitIjEEbRPKcS2_RT_i
	.type	_ZNSt8__detail18__from_chars_digitIjEEbRPKcS2_RT_i, %function
_ZNSt8__detail18__from_chars_digitIjEEbRPKcS2_RT_i:
.LFB2224:
	.cfi_startproc
	stp	x29, x30, [sp, -80]!
	.cfi_def_cfa_offset 80
	.cfi_offset 29, -80
	.cfi_offset 30, -72
	mov	x29, sp
	str	x0, [sp, 40]
	str	x1, [sp, 32]
	str	x2, [sp, 24]
	str	w3, [sp, 20]
	adrp	x0, :got:__stack_chk_guard
	ldr	x0, [x0, #:got_lo12:__stack_chk_guard]
	ldr	x1, [x0]
	str	x1, [sp, 72]
	mov	x1, 0
	ldr	w0, [sp, 20]
	str	w0, [sp, 64]
	b	.L74
.L81:
	ldr	x0, [sp, 40]
	ldr	x0, [x0]
	ldrb	w0, [x0]
	strb	w0, [sp, 63]
	add	x0, sp, 64
	ldrb	w1, [sp, 63]
	bl	_ZZNSt8__detail18__from_chars_digitIjEEbRPKcS2_RT_iENKUlcE_clEc
	and	w0, w0, 255
	cmp	w0, 0
	beq	.L75
	ldrb	w0, [sp, 63]
	sub	w0, w0, #48
	and	w0, w0, 255
	mov	w2, w0
	ldr	w1, [sp, 20]
	ldr	x0, [sp, 24]
	bl	_ZNSt8__detail15__raise_and_addIjEEbRT_ih
	and	w0, w0, 255
	eor	w0, w0, 1
	and	w0, w0, 255
	cmp	w0, 0
	beq	.L76
	nop
.L79:
	ldr	x0, [sp, 40]
	ldr	x0, [x0]
	add	x1, x0, 1
	ldr	x0, [sp, 40]
	str	x1, [x0]
	ldr	x0, [sp, 40]
	ldr	x0, [x0]
	ldr	x1, [sp, 32]
	cmp	x1, x0
	beq	.L77
	ldr	x0, [sp, 40]
	ldr	x0, [x0]
	ldrb	w1, [x0]
	add	x0, sp, 64
	bl	_ZZNSt8__detail18__from_chars_digitIjEEbRPKcS2_RT_iENKUlcE_clEc
	and	w0, w0, 255
	cmp	w0, 0
	beq	.L77
	mov	w0, 1
	b	.L78
.L77:
	mov	w0, 0
.L78:
	cmp	w0, 0
	bne	.L79
	mov	w0, 0
	b	.L82
.L76:
	ldr	x0, [sp, 40]
	ldr	x0, [x0]
	add	x1, x0, 1
	ldr	x0, [sp, 40]
	str	x1, [x0]
	b	.L74
.L75:
	mov	w0, 1
	b	.L82
.L74:
	ldr	x0, [sp, 40]
	ldr	x0, [x0]
	ldr	x1, [sp, 32]
	cmp	x1, x0
	bne	.L81
	mov	w0, 1
.L82:
	mov	w1, w0
	adrp	x0, :got:__stack_chk_guard
	ldr	x0, [x0, #:got_lo12:__stack_chk_guard]
	ldr	x3, [sp, 72]
	ldr	x2, [x0]
	subs	x3, x3, x2
	mov	x2, 0
	beq	.L83
	bl	__stack_chk_fail
.L83:
	mov	w0, w1
	ldp	x29, x30, [sp], 80
	.cfi_restore 30
	.cfi_restore 29
	.cfi_def_cfa_offset 0
	ret
	.cfi_endproc
.LFE2224:
	.size	_ZNSt8__detail18__from_chars_digitIjEEbRPKcS2_RT_i, .-_ZNSt8__detail18__from_chars_digitIjEEbRPKcS2_RT_i
	.section	.text._ZNSt8__detail18__from_chars_alnumIjEEbRPKcS2_RT_i,"axG",@progbits,_ZNSt8__detail18__from_chars_alnumIjEEbRPKcS2_RT_i,comdat
	.align	2
	.weak	_ZNSt8__detail18__from_chars_alnumIjEEbRPKcS2_RT_i
	.type	_ZNSt8__detail18__from_chars_alnumIjEEbRPKcS2_RT_i, %function
_ZNSt8__detail18__from_chars_alnumIjEEbRPKcS2_RT_i:
.LFB2226:
	.cfi_startproc
	stp	x29, x30, [sp, -64]!
	.cfi_def_cfa_offset 64
	.cfi_offset 29, -64
	.cfi_offset 30, -56
	mov	x29, sp
	str	x0, [sp, 40]
	str	x1, [sp, 32]
	str	x2, [sp, 24]
	str	w3, [sp, 20]
	mov	w0, 1
	strb	w0, [sp, 62]
	b	.L85
.L90:
	ldr	x0, [sp, 40]
	ldr	x0, [x0]
	ldrb	w0, [x0]
	strb	w0, [sp, 63]
	ldrb	w0, [sp, 63]
	sub	w0, w0, #48
	cmp	w0, 9
	cset	w0, ls
	and	w0, w0, 255
	cmp	w0, 0
	beq	.L86
	ldrb	w0, [sp, 63]
	sub	w0, w0, #48
	strb	w0, [sp, 63]
	b	.L87
.L86:
	ldrb	w0, [sp, 63]
	bl	_ZNSt8__detail25__from_chars_alpha_to_numEc
	strb	w0, [sp, 63]
	ldrb	w0, [sp, 63]
	ldr	w1, [sp, 20]
	cmp	w1, w0
	ble	.L92
.L87:
	ldrb	w0, [sp, 62]
	cmp	x0, 0
	beq	.L89
	ldrb	w2, [sp, 63]
	ldr	w1, [sp, 20]
	ldr	x0, [sp, 24]
	bl	_ZNSt8__detail15__raise_and_addIjEEbRT_ih
	strb	w0, [sp, 62]
.L89:
	ldr	x0, [sp, 40]
	ldr	x0, [x0]
	add	x1, x0, 1
	ldr	x0, [sp, 40]
	str	x1, [x0]
.L85:
	ldr	x0, [sp, 40]
	ldr	x0, [x0]
	ldr	x1, [sp, 32]
	cmp	x1, x0
	bne	.L90
	b	.L88
.L92:
	nop
.L88:
	ldrb	w0, [sp, 62]
	ldp	x29, x30, [sp], 64
	.cfi_restore 30
	.cfi_restore 29
	.cfi_def_cfa_offset 0
	ret
	.cfi_endproc
.LFE2226:
	.size	_ZNSt8__detail18__from_chars_alnumIjEEbRPKcS2_RT_i, .-_ZNSt8__detail18__from_chars_alnumIjEEbRPKcS2_RT_i
	.section	.text._ZNSt8__detail15__raise_and_addIjEEbRT_ih,"axG",@progbits,_ZNSt8__detail15__raise_and_addIjEEbRT_ih,comdat
	.align	2
	.weak	_ZNSt8__detail15__raise_and_addIjEEbRT_ih
	.type	_ZNSt8__detail15__raise_and_addIjEEbRT_ih, %function
_ZNSt8__detail15__raise_and_addIjEEbRT_ih:
.LFB2265:
	.cfi_startproc
	sub	sp, sp, #16
	.cfi_def_cfa_offset 16
	str	x0, [sp, 8]
	str	w1, [sp, 4]
	strb	w2, [sp, 3]
	ldr	x0, [sp, 8]
	ldr	w1, [x0]
	mov	w0, 0
	ldr	w2, [sp, 4]
	cmp	w2, 0
	bge	.L96
	cmp	w1, 0
	beq	.L96
	mov	w0, 1
.L96:
	ldr	w2, [sp, 4]
	umull	x1, w1, w2
	lsr	x2, x1, 32
	cmp	w2, 0
	beq	.L94
	mov	w0, 1
.L94:
	mov	w2, w1
	ldr	x1, [sp, 8]
	str	w2, [x1]
	and	w0, w0, 1
	and	w0, w0, 255
	cmp	w0, 0
	bne	.L97
	ldr	x0, [sp, 8]
	ldr	w0, [x0]
	ldrb	w1, [sp, 3]
	mov	w2, 0
	adds	w0, w0, w1
	bcc	.L98
	mov	w2, 1
.L98:
	mov	w1, w0
	ldr	x0, [sp, 8]
	str	w1, [x0]
	mov	w0, w2
	and	w0, w0, 1
	and	w0, w0, 255
	cmp	w0, 0
	beq	.L100
.L97:
	mov	w0, 1
	b	.L101
.L100:
	mov	w0, 0
.L101:
	cmp	w0, 0
	beq	.L102
	mov	w0, 0
	b	.L103
.L102:
	mov	w0, 1
.L103:
	add	sp, sp, 16
	.cfi_def_cfa_offset 0
	ret
	.cfi_endproc
.LFE2265:
	.size	_ZNSt8__detail15__raise_and_addIjEEbRT_ih, .-_ZNSt8__detail15__raise_and_addIjEEbRT_ih
	.text
	.align	2
	.type	_Z41__static_initialization_and_destruction_0ii, %function
_Z41__static_initialization_and_destruction_0ii:
.LFB2390:
	.cfi_startproc
	stp	x29, x30, [sp, -32]!
	.cfi_def_cfa_offset 32
	.cfi_offset 29, -32
	.cfi_offset 30, -24
	mov	x29, sp
	str	w0, [sp, 28]
	str	w1, [sp, 24]
	ldr	w0, [sp, 28]
	cmp	w0, 1
	bne	.L106
	ldr	w1, [sp, 24]
	mov	w0, 65535
	cmp	w1, w0
	bne	.L106
	adrp	x0, _ZStL8__ioinit
	add	x0, x0, :lo12:_ZStL8__ioinit
	bl	_ZNSt8ios_base4InitC1Ev
	adrp	x0, __dso_handle
	add	x2, x0, :lo12:__dso_handle
	adrp	x0, _ZStL8__ioinit
	add	x1, x0, :lo12:_ZStL8__ioinit
	adrp	x0, :got:_ZNSt8ios_base4InitD1Ev
	ldr	x0, [x0, #:got_lo12:_ZNSt8ios_base4InitD1Ev]
	bl	__cxa_atexit
.L106:
	nop
	ldp	x29, x30, [sp], 32
	.cfi_restore 30
	.cfi_restore 29
	.cfi_def_cfa_offset 0
	ret
	.cfi_endproc
.LFE2390:
	.size	_Z41__static_initialization_and_destruction_0ii, .-_Z41__static_initialization_and_destruction_0ii
	.align	2
	.type	_GLOBAL__sub_I_main, %function
_GLOBAL__sub_I_main:
.LFB2391:
	.cfi_startproc
	stp	x29, x30, [sp, -16]!
	.cfi_def_cfa_offset 16
	.cfi_offset 29, -16
	.cfi_offset 30, -8
	mov	x29, sp
	mov	w1, 65535
	mov	w0, 1
	bl	_Z41__static_initialization_and_destruction_0ii
	ldp	x29, x30, [sp], 16
	.cfi_restore 30
	.cfi_restore 29
	.cfi_def_cfa_offset 0
	ret
	.cfi_endproc
.LFE2391:
	.size	_GLOBAL__sub_I_main, .-_GLOBAL__sub_I_main
	.section	.init_array,"aw"
	.align	3
	.xword	_GLOBAL__sub_I_main
	.hidden	__dso_handle
	.ident	"GCC: (Ubuntu 11.3.0-1ubuntu1~22.04) 11.3.0"
	.section	.note.GNU-stack,"",@progbits
