	.arch armv8-a
	.file	"main.cpp"
	.text
	.section	.text._ZnwmPv,"axG",@progbits,_ZnwmPv,comdat
	.align	2
	.weak	_ZnwmPv
	.type	_ZnwmPv, %function
_ZnwmPv:
.LFB38:
	.cfi_startproc
	sub	sp, sp, #16
	.cfi_def_cfa_offset 16
	str	x0, [sp, 8]
	str	x1, [sp]
	ldr	x0, [sp]
	add	sp, sp, 16
	.cfi_def_cfa_offset 0
	ret
	.cfi_endproc
.LFE38:
	.size	_ZnwmPv, .-_ZnwmPv
	.section	.text._ZdlPvS_,"axG",@progbits,_ZdlPvS_,comdat
	.align	2
	.weak	_ZdlPvS_
	.type	_ZdlPvS_, %function
_ZdlPvS_:
.LFB40:
	.cfi_startproc
	sub	sp, sp, #16
	.cfi_def_cfa_offset 16
	str	x0, [sp, 8]
	str	x1, [sp]
	nop
	add	sp, sp, 16
	.cfi_def_cfa_offset 0
	ret
	.cfi_endproc
.LFE40:
	.size	_ZdlPvS_, .-_ZdlPvS_
	.section	.text._ZNSt11char_traitsIcE6lengthEPKc,"axG",@progbits,_ZNSt11char_traitsIcE6lengthEPKc,comdat
	.align	2
	.weak	_ZNSt11char_traitsIcE6lengthEPKc
	.type	_ZNSt11char_traitsIcE6lengthEPKc, %function
_ZNSt11char_traitsIcE6lengthEPKc:
.LFB449:
	.cfi_startproc
	stp	x29, x30, [sp, -48]!
	.cfi_def_cfa_offset 48
	.cfi_offset 29, -48
	.cfi_offset 30, -40
	mov	x29, sp
	str	x0, [sp, 24]
	ldr	x0, [sp, 24]
	str	x0, [sp, 40]
	mov	w0, 0
	cmp	w0, 0
	beq	.L6
	ldr	x0, [sp, 24]
	bl	_ZN9__gnu_cxx11char_traitsIcE6lengthEPKc
	b	.L7
.L6:
	ldr	x0, [sp, 24]
	bl	strlen
	nop
.L7:
	ldp	x29, x30, [sp], 48
	.cfi_restore 30
	.cfi_restore 29
	.cfi_def_cfa_offset 0
	ret
	.cfi_endproc
.LFE449:
	.size	_ZNSt11char_traitsIcE6lengthEPKc, .-_ZNSt11char_traitsIcE6lengthEPKc
	.local	_ZStL8__ioinit
	.comm	_ZStL8__ioinit,1,8
	.section	.text._ZNSt14_Bit_referenceC2EPmm,"axG",@progbits,_ZNSt14_Bit_referenceC5EPmm,comdat
	.align	2
	.weak	_ZNSt14_Bit_referenceC2EPmm
	.type	_ZNSt14_Bit_referenceC2EPmm, %function
_ZNSt14_Bit_referenceC2EPmm:
.LFB1898:
	.cfi_startproc
	sub	sp, sp, #32
	.cfi_def_cfa_offset 32
	str	x0, [sp, 24]
	str	x1, [sp, 16]
	str	x2, [sp, 8]
	ldr	x0, [sp, 24]
	ldr	x1, [sp, 16]
	str	x1, [x0]
	ldr	x0, [sp, 24]
	ldr	x1, [sp, 8]
	str	x1, [x0, 8]
	nop
	add	sp, sp, 32
	.cfi_def_cfa_offset 0
	ret
	.cfi_endproc
.LFE1898:
	.size	_ZNSt14_Bit_referenceC2EPmm, .-_ZNSt14_Bit_referenceC2EPmm
	.weak	_ZNSt14_Bit_referenceC1EPmm
	.set	_ZNSt14_Bit_referenceC1EPmm,_ZNSt14_Bit_referenceC2EPmm
	.section	.text._ZNKSt14_Bit_referencecvbEv,"axG",@progbits,_ZNKSt14_Bit_referencecvbEv,comdat
	.align	2
	.weak	_ZNKSt14_Bit_referencecvbEv
	.type	_ZNKSt14_Bit_referencecvbEv, %function
_ZNKSt14_Bit_referencecvbEv:
.LFB1903:
	.cfi_startproc
	sub	sp, sp, #16
	.cfi_def_cfa_offset 16
	str	x0, [sp, 8]
	ldr	x0, [sp, 8]
	ldr	x0, [x0]
	ldr	x1, [x0]
	ldr	x0, [sp, 8]
	ldr	x0, [x0, 8]
	and	x0, x1, x0
	cmp	x0, 0
	cset	w0, ne
	and	w0, w0, 255
	add	sp, sp, 16
	.cfi_def_cfa_offset 0
	ret
	.cfi_endproc
.LFE1903:
	.size	_ZNKSt14_Bit_referencecvbEv, .-_ZNKSt14_Bit_referencecvbEv
	.section	.text._ZNSt14_Bit_referenceaSEb,"axG",@progbits,_ZNSt14_Bit_referenceaSEb,comdat
	.align	2
	.weak	_ZNSt14_Bit_referenceaSEb
	.type	_ZNSt14_Bit_referenceaSEb, %function
_ZNSt14_Bit_referenceaSEb:
.LFB1904:
	.cfi_startproc
	sub	sp, sp, #16
	.cfi_def_cfa_offset 16
	str	x0, [sp, 8]
	strb	w1, [sp, 7]
	ldrb	w0, [sp, 7]
	cmp	w0, 0
	beq	.L12
	ldr	x0, [sp, 8]
	ldr	x0, [x0]
	ldr	x2, [x0]
	ldr	x0, [sp, 8]
	ldr	x1, [x0, 8]
	ldr	x0, [sp, 8]
	ldr	x0, [x0]
	orr	x1, x2, x1
	str	x1, [x0]
	b	.L13
.L12:
	ldr	x0, [sp, 8]
	ldr	x0, [x0]
	ldr	x2, [x0]
	ldr	x0, [sp, 8]
	ldr	x0, [x0, 8]
	mvn	x1, x0
	ldr	x0, [sp, 8]
	ldr	x0, [x0]
	and	x1, x2, x1
	str	x1, [x0]
.L13:
	ldr	x0, [sp, 8]
	add	sp, sp, 16
	.cfi_def_cfa_offset 0
	ret
	.cfi_endproc
.LFE1904:
	.size	_ZNSt14_Bit_referenceaSEb, .-_ZNSt14_Bit_referenceaSEb
	.section	.text._ZNSt18_Bit_iterator_baseC2EPmj,"axG",@progbits,_ZNSt18_Bit_iterator_baseC5EPmj,comdat
	.align	2
	.weak	_ZNSt18_Bit_iterator_baseC2EPmj
	.type	_ZNSt18_Bit_iterator_baseC2EPmj, %function
_ZNSt18_Bit_iterator_baseC2EPmj:
.LFB1913:
	.cfi_startproc
	sub	sp, sp, #32
	.cfi_def_cfa_offset 32
	str	x0, [sp, 24]
	str	x1, [sp, 16]
	str	w2, [sp, 12]
	ldr	x0, [sp, 24]
	ldr	x1, [sp, 16]
	str	x1, [x0]
	ldr	x0, [sp, 24]
	ldr	w1, [sp, 12]
	str	w1, [x0, 8]
	nop
	add	sp, sp, 32
	.cfi_def_cfa_offset 0
	ret
	.cfi_endproc
.LFE1913:
	.size	_ZNSt18_Bit_iterator_baseC2EPmj, .-_ZNSt18_Bit_iterator_baseC2EPmj
	.weak	_ZNSt18_Bit_iterator_baseC1EPmj
	.set	_ZNSt18_Bit_iterator_baseC1EPmj,_ZNSt18_Bit_iterator_baseC2EPmj
	.section	.text._ZNSt18_Bit_iterator_base10_M_bump_upEv,"axG",@progbits,_ZNSt18_Bit_iterator_base10_M_bump_upEv,comdat
	.align	2
	.weak	_ZNSt18_Bit_iterator_base10_M_bump_upEv
	.type	_ZNSt18_Bit_iterator_base10_M_bump_upEv, %function
_ZNSt18_Bit_iterator_base10_M_bump_upEv:
.LFB1915:
	.cfi_startproc
	sub	sp, sp, #16
	.cfi_def_cfa_offset 16
	str	x0, [sp, 8]
	ldr	x0, [sp, 8]
	ldr	w0, [x0, 8]
	add	w2, w0, 1
	ldr	x1, [sp, 8]
	str	w2, [x1, 8]
	cmp	w0, 63
	cset	w0, eq
	and	w0, w0, 255
	cmp	w0, 0
	beq	.L18
	ldr	x0, [sp, 8]
	str	wzr, [x0, 8]
	ldr	x0, [sp, 8]
	ldr	x0, [x0]
	add	x1, x0, 8
	ldr	x0, [sp, 8]
	str	x1, [x0]
.L18:
	nop
	add	sp, sp, 16
	.cfi_def_cfa_offset 0
	ret
	.cfi_endproc
.LFE1915:
	.size	_ZNSt18_Bit_iterator_base10_M_bump_upEv, .-_ZNSt18_Bit_iterator_base10_M_bump_upEv
	.section	.text._ZNSt18_Bit_iterator_base7_M_incrEl,"axG",@progbits,_ZNSt18_Bit_iterator_base7_M_incrEl,comdat
	.align	2
	.weak	_ZNSt18_Bit_iterator_base7_M_incrEl
	.type	_ZNSt18_Bit_iterator_base7_M_incrEl, %function
_ZNSt18_Bit_iterator_base7_M_incrEl:
.LFB1917:
	.cfi_startproc
	sub	sp, sp, #32
	.cfi_def_cfa_offset 32
	str	x0, [sp, 8]
	str	x1, [sp]
	ldr	x0, [sp, 8]
	ldr	w0, [x0, 8]
	uxtw	x0, w0
	ldr	x1, [sp]
	add	x0, x1, x0
	str	x0, [sp, 24]
	ldr	x0, [sp, 8]
	ldr	x1, [x0]
	ldr	x0, [sp, 24]
	add	x2, x0, 63
	cmp	x0, 0
	csel	x0, x2, x0, lt
	asr	x0, x0, 6
	lsl	x0, x0, 3
	add	x1, x1, x0
	ldr	x0, [sp, 8]
	str	x1, [x0]
	ldr	x0, [sp, 24]
	negs	x1, x0
	and	x0, x0, 63
	and	x1, x1, 63
	csneg	x0, x0, x1, mi
	str	x0, [sp, 24]
	ldr	x0, [sp, 24]
	cmp	x0, 0
	bge	.L20
	ldr	x0, [sp, 24]
	add	x0, x0, 64
	str	x0, [sp, 24]
	ldr	x0, [sp, 8]
	ldr	x0, [x0]
	sub	x1, x0, #8
	ldr	x0, [sp, 8]
	str	x1, [x0]
.L20:
	ldr	x0, [sp, 24]
	mov	w1, w0
	ldr	x0, [sp, 8]
	str	w1, [x0, 8]
	nop
	add	sp, sp, 32
	.cfi_def_cfa_offset 0
	ret
	.cfi_endproc
.LFE1917:
	.size	_ZNSt18_Bit_iterator_base7_M_incrEl, .-_ZNSt18_Bit_iterator_base7_M_incrEl
	.section	.text._ZStmiRKSt18_Bit_iterator_baseS1_,"axG",@progbits,_ZStmiRKSt18_Bit_iterator_baseS1_,comdat
	.align	2
	.weak	_ZStmiRKSt18_Bit_iterator_baseS1_
	.type	_ZStmiRKSt18_Bit_iterator_baseS1_, %function
_ZStmiRKSt18_Bit_iterator_baseS1_:
.LFB1924:
	.cfi_startproc
	sub	sp, sp, #16
	.cfi_def_cfa_offset 16
	str	x0, [sp, 8]
	str	x1, [sp]
	ldr	x0, [sp, 8]
	ldr	x1, [x0]
	ldr	x0, [sp]
	ldr	x0, [x0]
	sub	x0, x1, x0
	lsl	x1, x0, 3
	ldr	x0, [sp, 8]
	ldr	w0, [x0, 8]
	uxtw	x0, w0
	add	x1, x1, x0
	ldr	x0, [sp]
	ldr	w0, [x0, 8]
	uxtw	x0, w0
	sub	x0, x1, x0
	add	sp, sp, 16
	.cfi_def_cfa_offset 0
	ret
	.cfi_endproc
.LFE1924:
	.size	_ZStmiRKSt18_Bit_iterator_baseS1_, .-_ZStmiRKSt18_Bit_iterator_baseS1_
	.section	.text._ZNSt13_Bit_iteratorC2Ev,"axG",@progbits,_ZNSt13_Bit_iteratorC5Ev,comdat
	.align	2
	.weak	_ZNSt13_Bit_iteratorC2Ev
	.type	_ZNSt13_Bit_iteratorC2Ev, %function
_ZNSt13_Bit_iteratorC2Ev:
.LFB1926:
	.cfi_startproc
	stp	x29, x30, [sp, -32]!
	.cfi_def_cfa_offset 32
	.cfi_offset 29, -32
	.cfi_offset 30, -24
	mov	x29, sp
	str	x0, [sp, 24]
	ldr	x0, [sp, 24]
	mov	w2, 0
	mov	x1, 0
	bl	_ZNSt18_Bit_iterator_baseC2EPmj
	nop
	ldp	x29, x30, [sp], 32
	.cfi_restore 30
	.cfi_restore 29
	.cfi_def_cfa_offset 0
	ret
	.cfi_endproc
.LFE1926:
	.size	_ZNSt13_Bit_iteratorC2Ev, .-_ZNSt13_Bit_iteratorC2Ev
	.weak	_ZNSt13_Bit_iteratorC1Ev
	.set	_ZNSt13_Bit_iteratorC1Ev,_ZNSt13_Bit_iteratorC2Ev
	.section	.text._ZNSt13_Bit_iteratorC2EPmj,"axG",@progbits,_ZNSt13_Bit_iteratorC5EPmj,comdat
	.align	2
	.weak	_ZNSt13_Bit_iteratorC2EPmj
	.type	_ZNSt13_Bit_iteratorC2EPmj, %function
_ZNSt13_Bit_iteratorC2EPmj:
.LFB1929:
	.cfi_startproc
	stp	x29, x30, [sp, -48]!
	.cfi_def_cfa_offset 48
	.cfi_offset 29, -48
	.cfi_offset 30, -40
	mov	x29, sp
	str	x0, [sp, 40]
	str	x1, [sp, 32]
	str	w2, [sp, 28]
	ldr	x0, [sp, 40]
	ldr	w2, [sp, 28]
	ldr	x1, [sp, 32]
	bl	_ZNSt18_Bit_iterator_baseC2EPmj
	nop
	ldp	x29, x30, [sp], 48
	.cfi_restore 30
	.cfi_restore 29
	.cfi_def_cfa_offset 0
	ret
	.cfi_endproc
.LFE1929:
	.size	_ZNSt13_Bit_iteratorC2EPmj, .-_ZNSt13_Bit_iteratorC2EPmj
	.weak	_ZNSt13_Bit_iteratorC1EPmj
	.set	_ZNSt13_Bit_iteratorC1EPmj,_ZNSt13_Bit_iteratorC2EPmj
	.section	.text._ZNKSt13_Bit_iteratordeEv,"axG",@progbits,_ZNKSt13_Bit_iteratordeEv,comdat
	.align	2
	.weak	_ZNKSt13_Bit_iteratordeEv
	.type	_ZNKSt13_Bit_iteratordeEv, %function
_ZNKSt13_Bit_iteratordeEv:
.LFB1932:
	.cfi_startproc
	stp	x29, x30, [sp, -64]!
	.cfi_def_cfa_offset 64
	.cfi_offset 29, -64
	.cfi_offset 30, -56
	mov	x29, sp
	str	x0, [sp, 24]
	adrp	x0, :got:__stack_chk_guard
	ldr	x0, [x0, #:got_lo12:__stack_chk_guard]
	ldr	x1, [x0]
	str	x1, [sp, 56]
	mov	x1, 0
	ldr	x0, [sp, 24]
	ldr	x3, [x0]
	ldr	x0, [sp, 24]
	ldr	w0, [x0, 8]
	mov	x1, 1
	lsl	x1, x1, x0
	add	x0, sp, 40
	mov	x2, x1
	mov	x1, x3
	bl	_ZNSt14_Bit_referenceC1EPmm
	ldp	x0, x1, [sp, 40]
	mov	x2, x0
	mov	x3, x1
	adrp	x0, :got:__stack_chk_guard
	ldr	x0, [x0, #:got_lo12:__stack_chk_guard]
	ldr	x4, [sp, 56]
	ldr	x1, [x0]
	subs	x4, x4, x1
	mov	x1, 0
	beq	.L27
	bl	__stack_chk_fail
.L27:
	mov	x0, x2
	mov	x1, x3
	ldp	x29, x30, [sp], 64
	.cfi_restore 30
	.cfi_restore 29
	.cfi_def_cfa_offset 0
	ret
	.cfi_endproc
.LFE1932:
	.size	_ZNKSt13_Bit_iteratordeEv, .-_ZNKSt13_Bit_iteratordeEv
	.section	.text._ZNSt13_Bit_iteratorppEv,"axG",@progbits,_ZNSt13_Bit_iteratorppEv,comdat
	.align	2
	.weak	_ZNSt13_Bit_iteratorppEv
	.type	_ZNSt13_Bit_iteratorppEv, %function
_ZNSt13_Bit_iteratorppEv:
.LFB1933:
	.cfi_startproc
	stp	x29, x30, [sp, -32]!
	.cfi_def_cfa_offset 32
	.cfi_offset 29, -32
	.cfi_offset 30, -24
	mov	x29, sp
	str	x0, [sp, 24]
	ldr	x0, [sp, 24]
	bl	_ZNSt18_Bit_iterator_base10_M_bump_upEv
	ldr	x0, [sp, 24]
	ldp	x29, x30, [sp], 32
	.cfi_restore 30
	.cfi_restore 29
	.cfi_def_cfa_offset 0
	ret
	.cfi_endproc
.LFE1933:
	.size	_ZNSt13_Bit_iteratorppEv, .-_ZNSt13_Bit_iteratorppEv
	.section	.text._ZNSt13_Bit_iteratorpLEl,"axG",@progbits,_ZNSt13_Bit_iteratorpLEl,comdat
	.align	2
	.weak	_ZNSt13_Bit_iteratorpLEl
	.type	_ZNSt13_Bit_iteratorpLEl, %function
_ZNSt13_Bit_iteratorpLEl:
.LFB1937:
	.cfi_startproc
	stp	x29, x30, [sp, -32]!
	.cfi_def_cfa_offset 32
	.cfi_offset 29, -32
	.cfi_offset 30, -24
	mov	x29, sp
	str	x0, [sp, 24]
	str	x1, [sp, 16]
	ldr	x0, [sp, 24]
	ldr	x1, [sp, 16]
	bl	_ZNSt18_Bit_iterator_base7_M_incrEl
	ldr	x0, [sp, 24]
	ldp	x29, x30, [sp], 32
	.cfi_restore 30
	.cfi_restore 29
	.cfi_def_cfa_offset 0
	ret
	.cfi_endproc
.LFE1937:
	.size	_ZNSt13_Bit_iteratorpLEl, .-_ZNSt13_Bit_iteratorpLEl
	.section	.text._ZNKSt13_Bit_iteratorixEl,"axG",@progbits,_ZNKSt13_Bit_iteratorixEl,comdat
	.align	2
	.weak	_ZNKSt13_Bit_iteratorixEl
	.type	_ZNKSt13_Bit_iteratorixEl, %function
_ZNKSt13_Bit_iteratorixEl:
.LFB1939:
	.cfi_startproc
	stp	x29, x30, [sp, -64]!
	.cfi_def_cfa_offset 64
	.cfi_offset 29, -64
	.cfi_offset 30, -56
	mov	x29, sp
	str	x0, [sp, 24]
	str	x1, [sp, 16]
	adrp	x0, :got:__stack_chk_guard
	ldr	x0, [x0, #:got_lo12:__stack_chk_guard]
	ldr	x1, [x0]
	str	x1, [sp, 56]
	mov	x1, 0
	ldr	x1, [sp, 16]
	ldr	x0, [sp, 24]
	bl	_ZStplRKSt13_Bit_iteratorl
	stp	x0, x1, [sp, 40]
	add	x0, sp, 40
	bl	_ZNKSt13_Bit_iteratordeEv
	mov	x2, x0
	mov	x3, x1
	adrp	x0, :got:__stack_chk_guard
	ldr	x0, [x0, #:got_lo12:__stack_chk_guard]
	ldr	x4, [sp, 56]
	ldr	x1, [x0]
	subs	x4, x4, x1
	mov	x1, 0
	beq	.L34
	bl	__stack_chk_fail
.L34:
	mov	x0, x2
	mov	x1, x3
	ldp	x29, x30, [sp], 64
	.cfi_restore 30
	.cfi_restore 29
	.cfi_def_cfa_offset 0
	ret
	.cfi_endproc
.LFE1939:
	.size	_ZNKSt13_Bit_iteratorixEl, .-_ZNKSt13_Bit_iteratorixEl
	.section	.text._ZStplRKSt13_Bit_iteratorl,"axG",@progbits,_ZStplRKSt13_Bit_iteratorl,comdat
	.align	2
	.weak	_ZStplRKSt13_Bit_iteratorl
	.type	_ZStplRKSt13_Bit_iteratorl, %function
_ZStplRKSt13_Bit_iteratorl:
.LFB1940:
	.cfi_startproc
	stp	x29, x30, [sp, -96]!
	.cfi_def_cfa_offset 96
	.cfi_offset 29, -96
	.cfi_offset 30, -88
	mov	x29, sp
	stp	x20, x21, [sp, 16]
	.cfi_offset 20, -80
	.cfi_offset 21, -72
	str	x0, [sp, 40]
	str	x1, [sp, 32]
	adrp	x0, :got:__stack_chk_guard
	ldr	x0, [x0, #:got_lo12:__stack_chk_guard]
	ldr	x1, [x0]
	str	x1, [sp, 88]
	mov	x1, 0
	ldr	x0, [sp, 40]
	ldp	x0, x1, [x0]
	stp	x0, x1, [sp, 56]
	add	x0, sp, 56
	ldr	x1, [sp, 32]
	bl	_ZNSt13_Bit_iteratorpLEl
	ldp	x0, x1, [sp, 56]
	stp	x0, x1, [sp, 72]
	ldr	x1, [sp, 72]
	ldr	x0, [sp, 80]
	mov	x20, x1
	mov	x21, x0
	mov	x2, x20
	mov	x3, x21
	adrp	x0, :got:__stack_chk_guard
	ldr	x0, [x0, #:got_lo12:__stack_chk_guard]
	ldr	x4, [sp, 88]
	ldr	x1, [x0]
	subs	x4, x4, x1
	mov	x1, 0
	beq	.L37
	bl	__stack_chk_fail
.L37:
	mov	x0, x2
	mov	x1, x3
	ldp	x20, x21, [sp, 16]
	ldp	x29, x30, [sp], 96
	.cfi_restore 30
	.cfi_restore 29
	.cfi_restore 20
	.cfi_restore 21
	.cfi_def_cfa_offset 0
	ret
	.cfi_endproc
.LFE1940:
	.size	_ZStplRKSt13_Bit_iteratorl, .-_ZStplRKSt13_Bit_iteratorl
	.section	.text._ZNSt19_Bit_const_iteratorC2EPmj,"axG",@progbits,_ZNSt19_Bit_const_iteratorC5EPmj,comdat
	.align	2
	.weak	_ZNSt19_Bit_const_iteratorC2EPmj
	.type	_ZNSt19_Bit_const_iteratorC2EPmj, %function
_ZNSt19_Bit_const_iteratorC2EPmj:
.LFB1947:
	.cfi_startproc
	stp	x29, x30, [sp, -48]!
	.cfi_def_cfa_offset 48
	.cfi_offset 29, -48
	.cfi_offset 30, -40
	mov	x29, sp
	str	x0, [sp, 40]
	str	x1, [sp, 32]
	str	w2, [sp, 28]
	ldr	x0, [sp, 40]
	ldr	w2, [sp, 28]
	ldr	x1, [sp, 32]
	bl	_ZNSt18_Bit_iterator_baseC2EPmj
	nop
	ldp	x29, x30, [sp], 48
	.cfi_restore 30
	.cfi_restore 29
	.cfi_def_cfa_offset 0
	ret
	.cfi_endproc
.LFE1947:
	.size	_ZNSt19_Bit_const_iteratorC2EPmj, .-_ZNSt19_Bit_const_iteratorC2EPmj
	.weak	_ZNSt19_Bit_const_iteratorC1EPmj
	.set	_ZNSt19_Bit_const_iteratorC1EPmj,_ZNSt19_Bit_const_iteratorC2EPmj
	.section	.text._ZNSt19_Bit_const_iteratorC2ERKSt13_Bit_iterator,"axG",@progbits,_ZNSt19_Bit_const_iteratorC5ERKSt13_Bit_iterator,comdat
	.align	2
	.weak	_ZNSt19_Bit_const_iteratorC2ERKSt13_Bit_iterator
	.type	_ZNSt19_Bit_const_iteratorC2ERKSt13_Bit_iterator, %function
_ZNSt19_Bit_const_iteratorC2ERKSt13_Bit_iterator:
.LFB1950:
	.cfi_startproc
	stp	x29, x30, [sp, -32]!
	.cfi_def_cfa_offset 32
	.cfi_offset 29, -32
	.cfi_offset 30, -24
	mov	x29, sp
	str	x0, [sp, 24]
	str	x1, [sp, 16]
	ldr	x3, [sp, 24]
	ldr	x0, [sp, 16]
	ldr	x1, [x0]
	ldr	x0, [sp, 16]
	ldr	w0, [x0, 8]
	mov	w2, w0
	mov	x0, x3
	bl	_ZNSt18_Bit_iterator_baseC2EPmj
	nop
	ldp	x29, x30, [sp], 32
	.cfi_restore 30
	.cfi_restore 29
	.cfi_def_cfa_offset 0
	ret
	.cfi_endproc
.LFE1950:
	.size	_ZNSt19_Bit_const_iteratorC2ERKSt13_Bit_iterator, .-_ZNSt19_Bit_const_iteratorC2ERKSt13_Bit_iterator
	.weak	_ZNSt19_Bit_const_iteratorC1ERKSt13_Bit_iterator
	.set	_ZNSt19_Bit_const_iteratorC1ERKSt13_Bit_iterator,_ZNSt19_Bit_const_iteratorC2ERKSt13_Bit_iterator
	.section	.text._ZNKSt19_Bit_const_iteratordeEv,"axG",@progbits,_ZNKSt19_Bit_const_iteratordeEv,comdat
	.align	2
	.weak	_ZNKSt19_Bit_const_iteratordeEv
	.type	_ZNKSt19_Bit_const_iteratordeEv, %function
_ZNKSt19_Bit_const_iteratordeEv:
.LFB1953:
	.cfi_startproc
	stp	x29, x30, [sp, -64]!
	.cfi_def_cfa_offset 64
	.cfi_offset 29, -64
	.cfi_offset 30, -56
	mov	x29, sp
	str	x0, [sp, 24]
	adrp	x0, :got:__stack_chk_guard
	ldr	x0, [x0, #:got_lo12:__stack_chk_guard]
	ldr	x1, [x0]
	str	x1, [sp, 56]
	mov	x1, 0
	ldr	x0, [sp, 24]
	ldr	x3, [x0]
	ldr	x0, [sp, 24]
	ldr	w0, [x0, 8]
	mov	x1, 1
	lsl	x1, x1, x0
	add	x0, sp, 40
	mov	x2, x1
	mov	x1, x3
	bl	_ZNSt14_Bit_referenceC1EPmm
	add	x0, sp, 40
	bl	_ZNKSt14_Bit_referencecvbEv
	and	w0, w0, 255
	mov	w1, w0
	adrp	x0, :got:__stack_chk_guard
	ldr	x0, [x0, #:got_lo12:__stack_chk_guard]
	ldr	x3, [sp, 56]
	ldr	x2, [x0]
	subs	x3, x3, x2
	mov	x2, 0
	beq	.L42
	bl	__stack_chk_fail
.L42:
	mov	w0, w1
	ldp	x29, x30, [sp], 64
	.cfi_restore 30
	.cfi_restore 29
	.cfi_def_cfa_offset 0
	ret
	.cfi_endproc
.LFE1953:
	.size	_ZNKSt19_Bit_const_iteratordeEv, .-_ZNKSt19_Bit_const_iteratordeEv
	.section	.text._ZNSt19_Bit_const_iteratorppEv,"axG",@progbits,_ZNSt19_Bit_const_iteratorppEv,comdat
	.align	2
	.weak	_ZNSt19_Bit_const_iteratorppEv
	.type	_ZNSt19_Bit_const_iteratorppEv, %function
_ZNSt19_Bit_const_iteratorppEv:
.LFB1954:
	.cfi_startproc
	stp	x29, x30, [sp, -32]!
	.cfi_def_cfa_offset 32
	.cfi_offset 29, -32
	.cfi_offset 30, -24
	mov	x29, sp
	str	x0, [sp, 24]
	ldr	x0, [sp, 24]
	bl	_ZNSt18_Bit_iterator_base10_M_bump_upEv
	ldr	x0, [sp, 24]
	ldp	x29, x30, [sp], 32
	.cfi_restore 30
	.cfi_restore 29
	.cfi_def_cfa_offset 0
	ret
	.cfi_endproc
.LFE1954:
	.size	_ZNSt19_Bit_const_iteratorppEv, .-_ZNSt19_Bit_const_iteratorppEv
	.section	.text._ZSt3minImERKT_S2_S2_,"axG",@progbits,_ZSt3minImERKT_S2_S2_,comdat
	.align	2
	.weak	_ZSt3minImERKT_S2_S2_
	.type	_ZSt3minImERKT_S2_S2_, %function
_ZSt3minImERKT_S2_S2_:
.LFB2702:
	.cfi_startproc
	sub	sp, sp, #16
	.cfi_def_cfa_offset 16
	str	x0, [sp, 8]
	str	x1, [sp]
	ldr	x0, [sp]
	ldr	x1, [x0]
	ldr	x0, [sp, 8]
	ldr	x0, [x0]
	cmp	x1, x0
	bcs	.L46
	ldr	x0, [sp]
	b	.L47
.L46:
	ldr	x0, [sp, 8]
.L47:
	add	sp, sp, 16
	.cfi_def_cfa_offset 0
	ret
	.cfi_endproc
.LFE2702:
	.size	_ZSt3minImERKT_S2_S2_, .-_ZSt3minImERKT_S2_S2_
	.section	.rodata
	.align	3
	.type	_ZN6__pstl9execution2v1L3seqE, %object
	.size	_ZN6__pstl9execution2v1L3seqE, 1
_ZN6__pstl9execution2v1L3seqE:
	.zero	1
	.align	3
	.type	_ZN6__pstl9execution2v1L3parE, %object
	.size	_ZN6__pstl9execution2v1L3parE, 1
_ZN6__pstl9execution2v1L3parE:
	.zero	1
	.align	3
	.type	_ZN6__pstl9execution2v1L9par_unseqE, %object
	.size	_ZN6__pstl9execution2v1L9par_unseqE, 1
_ZN6__pstl9execution2v1L9par_unseqE:
	.zero	1
	.align	3
	.type	_ZN6__pstl9execution2v1L5unseqE, %object
	.size	_ZN6__pstl9execution2v1L5unseqE, 1
_ZN6__pstl9execution2v1L5unseqE:
	.zero	1
	.align	2
	.type	_ZN9__gnu_cxxL21__default_lock_policyE, %object
	.size	_ZN9__gnu_cxxL21__default_lock_policyE, 4
_ZN9__gnu_cxxL21__default_lock_policyE:
	.word	2
	.section	.text._ZN3dbg24isColorizedOutputEnabledEv,"axG",@progbits,_ZN3dbg24isColorizedOutputEnabledEv,comdat
	.align	2
	.weak	_ZN3dbg24isColorizedOutputEnabledEv
	.type	_ZN3dbg24isColorizedOutputEnabledEv, %function
_ZN3dbg24isColorizedOutputEnabledEv:
.LFB4518:
	.cfi_startproc
	stp	x29, x30, [sp, -16]!
	.cfi_def_cfa_offset 16
	.cfi_offset 29, -16
	.cfi_offset 30, -8
	mov	x29, sp
	adrp	x0, :got:stderr
	ldr	x0, [x0, #:got_lo12:stderr]
	ldr	x0, [x0]
	bl	fileno
	bl	isatty
	cmp	w0, 0
	cset	w0, ne
	and	w0, w0, 255
	ldp	x29, x30, [sp], 16
	.cfi_restore 30
	.cfi_restore 29
	.cfi_def_cfa_offset 0
	ret
	.cfi_endproc
.LFE4518:
	.size	_ZN3dbg24isColorizedOutputEnabledEv, .-_ZN3dbg24isColorizedOutputEnabledEv
	.section	.rodata
	.align	3
	.type	_ZN3dbg15pretty_functionL13PREFIX_LENGTHE, %object
	.size	_ZN3dbg15pretty_functionL13PREFIX_LENGTHE, 8
_ZN3dbg15pretty_functionL13PREFIX_LENGTHE:
	.xword	44
	.align	3
	.type	_ZN3dbg15pretty_functionL13SUFFIX_LENGTHE, %object
	.size	_ZN3dbg15pretty_functionL13SUFFIX_LENGTHE, 8
_ZN3dbg15pretty_functionL13SUFFIX_LENGTHE:
	.xword	1
	.align	3
.LC5:
	.string	".."
	.align	3
.LC6:
	.string	"\033[02m"
	.align	3
.LC7:
	.string	"["
	.align	3
.LC8:
	.string	":"
	.align	3
.LC9:
	.string	" ("
	.align	3
.LC10:
	.string	")] "
	.align	3
.LC11:
	.string	"\033[0m"
	.section	.text._ZN3dbg11DebugOutputC2EPKciS2_,"axG",@progbits,_ZN3dbg11DebugOutputC5EPKciS2_,comdat
	.align	2
	.weak	_ZN3dbg11DebugOutputC2EPKciS2_
	.type	_ZN3dbg11DebugOutputC2EPKciS2_, %function
_ZN3dbg11DebugOutputC2EPKciS2_:
.LFB4573:
	.cfi_startproc
	.cfi_personality 0x9b,DW.ref.__gxx_personality_v0
	.cfi_lsda 0x1b,.LLSDA4573
	sub	sp, sp, #576
	.cfi_def_cfa_offset 576
	stp	x29, x30, [sp]
	.cfi_offset 29, -576
	.cfi_offset 30, -568
	mov	x29, sp
	str	x19, [sp, 16]
	.cfi_offset 19, -560
	str	x0, [sp, 56]
	str	x1, [sp, 48]
	str	w2, [sp, 44]
	str	x3, [sp, 32]
	adrp	x0, :got:__stack_chk_guard
	ldr	x0, [x0, #:got_lo12:__stack_chk_guard]
	ldr	x1, [x0]
	str	x1, [sp, 568]
	mov	x1, 0
	bl	_ZN3dbg24isColorizedOutputEnabledEv
	and	w1, w0, 255
	ldr	x0, [sp, 56]
	strb	w1, [x0]
	ldr	x0, [sp, 56]
	add	x0, x0, 8
	bl	_ZNSt7__cxx1112basic_stringIcSt11char_traitsIcESaIcEEC1Ev
	add	x0, sp, 64
	bl	_ZNSaIcEC1Ev
	add	x1, sp, 64
	add	x0, sp, 80
	mov	x2, x1
	ldr	x1, [sp, 48]
.LEHB0:
	bl	_ZNSt7__cxx1112basic_stringIcSt11char_traitsIcESaIcEEC1IS3_EEPKcRKS3_
.LEHE0:
	add	x0, sp, 64
	bl	_ZNSaIcED1Ev
	add	x0, sp, 80
	bl	_ZNKSt7__cxx1112basic_stringIcSt11char_traitsIcESaIcEE6lengthEv
	str	x0, [sp, 72]
	ldr	x0, [sp, 72]
	cmp	x0, 20
	bls	.L51
	ldr	x0, [sp, 72]
	sub	x1, x0, #20
	add	x0, sp, 80
	add	x2, sp, 176
	mov	x8, x2
	mov	x2, 20
.LEHB1:
	bl	_ZNKSt7__cxx1112basic_stringIcSt11char_traitsIcESaIcEE6substrEmm
.LEHE1:
	add	x0, sp, 176
	add	x1, sp, 112
	mov	x8, x1
	mov	x1, x0
	adrp	x0, .LC5
	add	x0, x0, :lo12:.LC5
.LEHB2:
	bl	_ZStplIcSt11char_traitsIcESaIcEENSt7__cxx1112basic_stringIT_T0_T1_EEPKS5_OS8_
.LEHE2:
	add	x1, sp, 112
	add	x0, sp, 80
	bl	_ZNSt7__cxx1112basic_stringIcSt11char_traitsIcESaIcEEaSEOS4_
	add	x0, sp, 112
	bl	_ZNSt7__cxx1112basic_stringIcSt11char_traitsIcESaIcEED1Ev
	add	x0, sp, 176
	bl	_ZNSt7__cxx1112basic_stringIcSt11char_traitsIcESaIcEED1Ev
.L51:
	add	x0, sp, 176
.LEHB3:
	bl	_ZNSt7__cxx1118basic_stringstreamIcSt11char_traitsIcESaIcEEC1Ev
.LEHE3:
	adrp	x0, .LC6
	add	x1, x0, :lo12:.LC6
	ldr	x0, [sp, 56]
	bl	_ZNK3dbg11DebugOutput4ansiEPKc
	mov	x1, x0
	add	x0, sp, 176
	add	x0, x0, 16
.LEHB4:
	bl	_ZStlsISt11char_traitsIcEERSt13basic_ostreamIcT_ES5_PKc
	mov	x2, x0
	adrp	x0, .LC7
	add	x1, x0, :lo12:.LC7
	mov	x0, x2
	bl	_ZStlsISt11char_traitsIcEERSt13basic_ostreamIcT_ES5_PKc
	mov	x2, x0
	add	x0, sp, 80
	mov	x1, x0
	mov	x0, x2
	bl	_ZStlsIcSt11char_traitsIcESaIcEERSt13basic_ostreamIT_T0_ES7_RKNSt7__cxx1112basic_stringIS4_S5_T1_EE
	mov	x2, x0
	adrp	x0, .LC8
	add	x1, x0, :lo12:.LC8
	mov	x0, x2
	bl	_ZStlsISt11char_traitsIcEERSt13basic_ostreamIcT_ES5_PKc
	ldr	w1, [sp, 44]
	bl	_ZNSolsEi
	mov	x2, x0
	adrp	x0, .LC9
	add	x1, x0, :lo12:.LC9
	mov	x0, x2
	bl	_ZStlsISt11char_traitsIcEERSt13basic_ostreamIcT_ES5_PKc
	ldr	x1, [sp, 32]
	bl	_ZStlsISt11char_traitsIcEERSt13basic_ostreamIcT_ES5_PKc
	mov	x2, x0
	adrp	x0, .LC10
	add	x1, x0, :lo12:.LC10
	mov	x0, x2
	bl	_ZStlsISt11char_traitsIcEERSt13basic_ostreamIcT_ES5_PKc
	mov	x19, x0
	adrp	x0, .LC11
	add	x1, x0, :lo12:.LC11
	ldr	x0, [sp, 56]
	bl	_ZNK3dbg11DebugOutput4ansiEPKc
	mov	x1, x0
	mov	x0, x19
	bl	_ZStlsISt11char_traitsIcEERSt13basic_ostreamIcT_ES5_PKc
	add	x0, sp, 176
	add	x1, sp, 144
	mov	x8, x1
	bl	_ZNKSt7__cxx1118basic_stringstreamIcSt11char_traitsIcESaIcEE3strEv
.LEHE4:
	ldr	x0, [sp, 56]
	add	x0, x0, 8
	add	x1, sp, 144
	bl	_ZNSt7__cxx1112basic_stringIcSt11char_traitsIcESaIcEEaSEOS4_
	add	x0, sp, 144
	bl	_ZNSt7__cxx1112basic_stringIcSt11char_traitsIcESaIcEED1Ev
	add	x0, sp, 176
	bl	_ZNSt7__cxx1118basic_stringstreamIcSt11char_traitsIcESaIcEED1Ev
	add	x0, sp, 80
	bl	_ZNSt7__cxx1112basic_stringIcSt11char_traitsIcESaIcEED1Ev
	nop
	adrp	x0, :got:__stack_chk_guard
	ldr	x0, [x0, #:got_lo12:__stack_chk_guard]
	ldr	x2, [sp, 568]
	ldr	x1, [x0]
	subs	x2, x2, x1
	mov	x1, 0
	beq	.L57
	b	.L62
.L58:
	mov	x19, x0
	add	x0, sp, 64
	bl	_ZNSaIcED1Ev
	b	.L53
.L60:
	mov	x19, x0
	add	x0, sp, 176
	bl	_ZNSt7__cxx1112basic_stringIcSt11char_traitsIcESaIcEED1Ev
	b	.L55
.L61:
	mov	x19, x0
	add	x0, sp, 176
	bl	_ZNSt7__cxx1118basic_stringstreamIcSt11char_traitsIcESaIcEED1Ev
	b	.L55
.L59:
	mov	x19, x0
.L55:
	add	x0, sp, 80
	bl	_ZNSt7__cxx1112basic_stringIcSt11char_traitsIcESaIcEED1Ev
.L53:
	ldr	x0, [sp, 56]
	add	x0, x0, 8
	bl	_ZNSt7__cxx1112basic_stringIcSt11char_traitsIcESaIcEED1Ev
	mov	x0, x19
.LEHB5:
	bl	_Unwind_Resume
.LEHE5:
.L62:
	bl	__stack_chk_fail
.L57:
	ldr	x19, [sp, 16]
	ldp	x29, x30, [sp]
	add	sp, sp, 576
	.cfi_restore 29
	.cfi_restore 30
	.cfi_restore 19
	.cfi_def_cfa_offset 0
	ret
	.cfi_endproc
.LFE4573:
	.global	__gxx_personality_v0
	.section	.gcc_except_table._ZN3dbg11DebugOutputC2EPKciS2_,"aG",@progbits,_ZN3dbg11DebugOutputC5EPKciS2_,comdat
.LLSDA4573:
	.byte	0xff
	.byte	0xff
	.byte	0x1
	.uleb128 .LLSDACSE4573-.LLSDACSB4573
.LLSDACSB4573:
	.uleb128 .LEHB0-.LFB4573
	.uleb128 .LEHE0-.LEHB0
	.uleb128 .L58-.LFB4573
	.uleb128 0
	.uleb128 .LEHB1-.LFB4573
	.uleb128 .LEHE1-.LEHB1
	.uleb128 .L59-.LFB4573
	.uleb128 0
	.uleb128 .LEHB2-.LFB4573
	.uleb128 .LEHE2-.LEHB2
	.uleb128 .L60-.LFB4573
	.uleb128 0
	.uleb128 .LEHB3-.LFB4573
	.uleb128 .LEHE3-.LEHB3
	.uleb128 .L59-.LFB4573
	.uleb128 0
	.uleb128 .LEHB4-.LFB4573
	.uleb128 .LEHE4-.LEHB4
	.uleb128 .L61-.LFB4573
	.uleb128 0
	.uleb128 .LEHB5-.LFB4573
	.uleb128 .LEHE5-.LEHB5
	.uleb128 0
	.uleb128 0
.LLSDACSE4573:
	.section	.text._ZN3dbg11DebugOutputC2EPKciS2_,"axG",@progbits,_ZN3dbg11DebugOutputC5EPKciS2_,comdat
	.size	_ZN3dbg11DebugOutputC2EPKciS2_, .-_ZN3dbg11DebugOutputC2EPKciS2_
	.weak	_ZN3dbg11DebugOutputC1EPKciS2_
	.set	_ZN3dbg11DebugOutputC1EPKciS2_,_ZN3dbg11DebugOutputC2EPKciS2_
	.section	.rodata
	.align	3
.LC12:
	.string	""
	.section	.text._ZNK3dbg11DebugOutput4ansiEPKc,"axG",@progbits,_ZNK3dbg11DebugOutput4ansiEPKc,comdat
	.align	2
	.weak	_ZNK3dbg11DebugOutput4ansiEPKc
	.type	_ZNK3dbg11DebugOutput4ansiEPKc, %function
_ZNK3dbg11DebugOutput4ansiEPKc:
.LFB4578:
	.cfi_startproc
	sub	sp, sp, #16
	.cfi_def_cfa_offset 16
	str	x0, [sp, 8]
	str	x1, [sp]
	ldr	x0, [sp, 8]
	ldrb	w0, [x0]
	cmp	w0, 0
	beq	.L64
	ldr	x0, [sp]
	b	.L65
.L64:
	adrp	x0, .LC12
	add	x0, x0, :lo12:.LC12
.L65:
	add	sp, sp, 16
	.cfi_def_cfa_offset 0
	ret
	.cfi_endproc
.LFE4578:
	.size	_ZNK3dbg11DebugOutput4ansiEPKc, .-_ZNK3dbg11DebugOutput4ansiEPKc
	.section	.text._ZN8Solution3dfsERSt6vectorIS0_IiSaIiEESaIS2_EERS0_IS0_IbSaIbEESaIS7_EEii,"axG",@progbits,_ZN8Solution3dfsERSt6vectorIS0_IiSaIiEESaIS2_EERS0_IS0_IbSaIbEESaIS7_EEii,comdat
	.align	2
	.weak	_ZN8Solution3dfsERSt6vectorIS0_IiSaIiEESaIS2_EERS0_IS0_IbSaIbEESaIS7_EEii
	.type	_ZN8Solution3dfsERSt6vectorIS0_IiSaIiEESaIS2_EERS0_IS0_IbSaIbEESaIS7_EEii, %function
_ZN8Solution3dfsERSt6vectorIS0_IiSaIiEESaIS2_EERS0_IS0_IbSaIbEESaIS7_EEii:
.LFB5441:
	.cfi_startproc
	stp	x29, x30, [sp, -112]!
	.cfi_def_cfa_offset 112
	.cfi_offset 29, -112
	.cfi_offset 30, -104
	mov	x29, sp
	str	x19, [sp, 16]
	.cfi_offset 19, -96
	str	x0, [sp, 56]
	str	x1, [sp, 48]
	str	x2, [sp, 40]
	str	w3, [sp, 36]
	str	w4, [sp, 32]
	adrp	x0, :got:__stack_chk_guard
	ldr	x0, [x0, #:got_lo12:__stack_chk_guard]
	ldr	x1, [x0]
	str	x1, [sp, 104]
	mov	x1, 0
	ldrsw	x0, [sp, 36]
	mov	x1, x0
	ldr	x0, [sp, 40]
	bl	_ZNSt6vectorIS_IbSaIbEESaIS1_EEixEm
	mov	x2, x0
	ldrsw	x0, [sp, 32]
	mov	x1, x0
	mov	x0, x2
	bl	_ZNSt6vectorIbSaIbEEixEm
	stp	x0, x1, [sp, 88]
	add	x0, sp, 88
	bl	_ZNKSt14_Bit_referencecvbEv
	and	w0, w0, 255
	cmp	w0, 0
	bne	.L75
	ldrsw	x0, [sp, 36]
	mov	x1, x0
	ldr	x0, [sp, 40]
	bl	_ZNSt6vectorIS_IbSaIbEESaIS1_EEixEm
	mov	x2, x0
	ldrsw	x0, [sp, 32]
	mov	x1, x0
	mov	x0, x2
	bl	_ZNSt6vectorIbSaIbEEixEm
	stp	x0, x1, [sp, 88]
	add	x0, sp, 88
	mov	w1, 1
	bl	_ZNSt14_Bit_referenceaSEb
	str	wzr, [sp, 76]
	b	.L69
.L73:
	ldr	x0, [sp, 56]
	ldrsw	x1, [sp, 76]
	bl	_ZNSt6vectorIiSaIiEEixEm
	ldr	w0, [x0]
	str	w0, [sp, 80]
	ldr	x2, [sp, 56]
	ldr	w0, [sp, 76]
	add	w0, w0, 1
	uxtw	x0, w0
	and	x0, x0, 4
	mov	x1, x0
	mov	x0, x2
	bl	_ZNSt6vectorIiSaIiEEixEm
	ldr	w0, [x0]
	str	w0, [sp, 84]
	ldr	w0, [sp, 80]
	cmp	w0, 0
	blt	.L70
	ldrsw	x19, [sp, 80]
	ldr	x0, [sp, 48]
	bl	_ZNKSt6vectorIS_IiSaIiEESaIS1_EE4sizeEv
	cmp	x19, x0
	bcs	.L70
	ldr	w0, [sp, 84]
	cmp	w0, 0
	blt	.L70
	ldrsw	x19, [sp, 84]
	mov	x1, 0
	ldr	x0, [sp, 48]
	bl	_ZNSt6vectorIS_IiSaIiEESaIS1_EEixEm
	bl	_ZNKSt6vectorIiSaIiEE4sizeEv
	cmp	x19, x0
	bcs	.L70
	ldrsw	x0, [sp, 36]
	mov	x1, x0
	ldr	x0, [sp, 48]
	bl	_ZNSt6vectorIS_IiSaIiEESaIS1_EEixEm
	mov	x2, x0
	ldrsw	x0, [sp, 32]
	mov	x1, x0
	mov	x0, x2
	bl	_ZNSt6vectorIiSaIiEEixEm
	ldr	w19, [x0]
	ldrsw	x0, [sp, 80]
	mov	x1, x0
	ldr	x0, [sp, 48]
	bl	_ZNSt6vectorIS_IiSaIiEESaIS1_EEixEm
	mov	x2, x0
	ldrsw	x0, [sp, 84]
	mov	x1, x0
	mov	x0, x2
	bl	_ZNSt6vectorIiSaIiEEixEm
	ldr	w0, [x0]
	cmp	w19, w0
	bgt	.L70
	mov	w0, 1
	b	.L71
.L70:
	mov	w0, 0
.L71:
	cmp	w0, 0
	beq	.L72
	ldr	w4, [sp, 84]
	ldr	w3, [sp, 80]
	ldr	x2, [sp, 40]
	ldr	x1, [sp, 48]
	ldr	x0, [sp, 56]
	bl	_ZN8Solution3dfsERSt6vectorIS0_IiSaIiEESaIS2_EERS0_IS0_IbSaIbEESaIS7_EEii
.L72:
	ldr	w0, [sp, 76]
	add	w0, w0, 1
	str	w0, [sp, 76]
.L69:
	ldr	w0, [sp, 76]
	cmp	w0, 3
	ble	.L73
	b	.L66
.L75:
	nop
.L66:
	adrp	x0, :got:__stack_chk_guard
	ldr	x0, [x0, #:got_lo12:__stack_chk_guard]
	ldr	x2, [sp, 104]
	ldr	x1, [x0]
	subs	x2, x2, x1
	mov	x1, 0
	beq	.L74
	bl	__stack_chk_fail
.L74:
	ldr	x19, [sp, 16]
	ldp	x29, x30, [sp], 112
	.cfi_restore 30
	.cfi_restore 29
	.cfi_restore 19
	.cfi_def_cfa_offset 0
	ret
	.cfi_endproc
.LFE5441:
	.size	_ZN8Solution3dfsERSt6vectorIS0_IiSaIiEESaIS2_EERS0_IS0_IbSaIbEESaIS7_EEii, .-_ZN8Solution3dfsERSt6vectorIS0_IiSaIiEESaIS2_EERS0_IS0_IbSaIbEESaIS7_EEii
	.section	.text._ZNSt12_Vector_baseISt6vectorIiSaIiEESaIS2_EE12_Vector_implD2Ev,"axG",@progbits,_ZNSt12_Vector_baseISt6vectorIiSaIiEESaIS2_EE12_Vector_implD5Ev,comdat
	.align	2
	.weak	_ZNSt12_Vector_baseISt6vectorIiSaIiEESaIS2_EE12_Vector_implD2Ev
	.type	_ZNSt12_Vector_baseISt6vectorIiSaIiEESaIS2_EE12_Vector_implD2Ev, %function
_ZNSt12_Vector_baseISt6vectorIiSaIiEESaIS2_EE12_Vector_implD2Ev:
.LFB5447:
	.cfi_startproc
	stp	x29, x30, [sp, -32]!
	.cfi_def_cfa_offset 32
	.cfi_offset 29, -32
	.cfi_offset 30, -24
	mov	x29, sp
	str	x0, [sp, 24]
	ldr	x0, [sp, 24]
	bl	_ZNSaISt6vectorIiSaIiEEED2Ev
	nop
	ldp	x29, x30, [sp], 32
	.cfi_restore 30
	.cfi_restore 29
	.cfi_def_cfa_offset 0
	ret
	.cfi_endproc
.LFE5447:
	.size	_ZNSt12_Vector_baseISt6vectorIiSaIiEESaIS2_EE12_Vector_implD2Ev, .-_ZNSt12_Vector_baseISt6vectorIiSaIiEESaIS2_EE12_Vector_implD2Ev
	.weak	_ZNSt12_Vector_baseISt6vectorIiSaIiEESaIS2_EE12_Vector_implD1Ev
	.set	_ZNSt12_Vector_baseISt6vectorIiSaIiEESaIS2_EE12_Vector_implD1Ev,_ZNSt12_Vector_baseISt6vectorIiSaIiEESaIS2_EE12_Vector_implD2Ev
	.section	.text._ZNSt12_Vector_baseISt6vectorIiSaIiEESaIS2_EEC2Ev,"axG",@progbits,_ZNSt12_Vector_baseISt6vectorIiSaIiEESaIS2_EEC5Ev,comdat
	.align	2
	.weak	_ZNSt12_Vector_baseISt6vectorIiSaIiEESaIS2_EEC2Ev
	.type	_ZNSt12_Vector_baseISt6vectorIiSaIiEESaIS2_EEC2Ev, %function
_ZNSt12_Vector_baseISt6vectorIiSaIiEESaIS2_EEC2Ev:
.LFB5449:
	.cfi_startproc
	stp	x29, x30, [sp, -32]!
	.cfi_def_cfa_offset 32
	.cfi_offset 29, -32
	.cfi_offset 30, -24
	mov	x29, sp
	str	x0, [sp, 24]
	ldr	x0, [sp, 24]
	bl	_ZNSt12_Vector_baseISt6vectorIiSaIiEESaIS2_EE12_Vector_implC1Ev
	nop
	ldp	x29, x30, [sp], 32
	.cfi_restore 30
	.cfi_restore 29
	.cfi_def_cfa_offset 0
	ret
	.cfi_endproc
.LFE5449:
	.size	_ZNSt12_Vector_baseISt6vectorIiSaIiEESaIS2_EEC2Ev, .-_ZNSt12_Vector_baseISt6vectorIiSaIiEESaIS2_EEC2Ev
	.weak	_ZNSt12_Vector_baseISt6vectorIiSaIiEESaIS2_EEC1Ev
	.set	_ZNSt12_Vector_baseISt6vectorIiSaIiEESaIS2_EEC1Ev,_ZNSt12_Vector_baseISt6vectorIiSaIiEESaIS2_EEC2Ev
	.section	.text._ZNSt6vectorIS_IiSaIiEESaIS1_EEC2Ev,"axG",@progbits,_ZNSt6vectorIS_IiSaIiEESaIS1_EEC5Ev,comdat
	.align	2
	.weak	_ZNSt6vectorIS_IiSaIiEESaIS1_EEC2Ev
	.type	_ZNSt6vectorIS_IiSaIiEESaIS1_EEC2Ev, %function
_ZNSt6vectorIS_IiSaIiEESaIS1_EEC2Ev:
.LFB5451:
	.cfi_startproc
	stp	x29, x30, [sp, -32]!
	.cfi_def_cfa_offset 32
	.cfi_offset 29, -32
	.cfi_offset 30, -24
	mov	x29, sp
	str	x0, [sp, 24]
	ldr	x0, [sp, 24]
	bl	_ZNSt12_Vector_baseISt6vectorIiSaIiEESaIS2_EEC2Ev
	nop
	ldp	x29, x30, [sp], 32
	.cfi_restore 30
	.cfi_restore 29
	.cfi_def_cfa_offset 0
	ret
	.cfi_endproc
.LFE5451:
	.size	_ZNSt6vectorIS_IiSaIiEESaIS1_EEC2Ev, .-_ZNSt6vectorIS_IiSaIiEESaIS1_EEC2Ev
	.weak	_ZNSt6vectorIS_IiSaIiEESaIS1_EEC1Ev
	.set	_ZNSt6vectorIS_IiSaIiEESaIS1_EEC1Ev,_ZNSt6vectorIS_IiSaIiEESaIS1_EEC2Ev
	.section	.text._ZN8Solution15pacificAtlanticERSt6vectorIS0_IiSaIiEESaIS2_EE,"axG",@progbits,_ZN8Solution15pacificAtlanticERSt6vectorIS0_IiSaIiEESaIS2_EE,comdat
	.align	2
	.weak	_ZN8Solution15pacificAtlanticERSt6vectorIS0_IiSaIiEESaIS2_EE
	.type	_ZN8Solution15pacificAtlanticERSt6vectorIS0_IiSaIiEESaIS2_EE, %function
_ZN8Solution15pacificAtlanticERSt6vectorIS0_IiSaIiEESaIS2_EE:
.LFB5442:
	.cfi_startproc
	.cfi_personality 0x9b,DW.ref.__gxx_personality_v0
	.cfi_lsda 0x1b,.LLSDA5442
	stp	x29, x30, [sp, -240]!
	.cfi_def_cfa_offset 240
	.cfi_offset 29, -240
	.cfi_offset 30, -232
	mov	x29, sp
	stp	x19, x20, [sp, 16]
	stp	x21, x22, [sp, 32]
	str	x23, [sp, 48]
	.cfi_offset 19, -224
	.cfi_offset 20, -216
	.cfi_offset 21, -208
	.cfi_offset 22, -200
	.cfi_offset 23, -192
	mov	x19, x8
	str	x0, [sp, 72]
	str	x1, [sp, 64]
	adrp	x0, :got:__stack_chk_guard
	ldr	x0, [x0, #:got_lo12:__stack_chk_guard]
	ldr	x1, [x0]
	str	x1, [sp, 232]
	mov	x1, 0
	ldr	x0, [sp, 64]
	bl	_ZNKSt6vectorIS_IiSaIiEESaIS1_EE4sizeEv
	str	w0, [sp, 112]
	mov	x1, 0
	ldr	x0, [sp, 64]
	bl	_ZNSt6vectorIS_IiSaIiEESaIS1_EEixEm
	bl	_ZNKSt6vectorIiSaIiEE4sizeEv
	str	w0, [sp, 116]
	ldrsw	x22, [sp, 112]
	ldrsw	x23, [sp, 116]
	strb	wzr, [sp, 160]
	add	x0, sp, 88
	bl	_ZNSaIbEC1Ev
	add	x2, sp, 88
	add	x1, sp, 160
	add	x0, sp, 184
	mov	x3, x2
	mov	x2, x1
	mov	x1, x23
.LEHB6:
	bl	_ZNSt6vectorIbSaIbEEC1EmRKbRKS0_
.LEHE6:
	add	x0, sp, 120
	bl	_ZNSaISt6vectorIbSaIbEEEC1Ev
	add	x2, sp, 120
	add	x1, sp, 184
	add	x0, sp, 136
	mov	x3, x2
	mov	x2, x1
	mov	x1, x22
.LEHB7:
	bl	_ZNSt6vectorIS_IbSaIbEESaIS1_EEC1EmRKS1_RKS2_
.LEHE7:
	add	x0, sp, 120
	bl	_ZNSaISt6vectorIbSaIbEEED1Ev
	add	x0, sp, 184
	bl	_ZNSt6vectorIbSaIbEED1Ev
	add	x0, sp, 88
	bl	_ZNSaIbED1Ev
	ldrsw	x22, [sp, 112]
	ldrsw	x23, [sp, 116]
	strb	wzr, [sp, 120]
	add	x0, sp, 80
	bl	_ZNSaIbEC1Ev
	add	x2, sp, 80
	add	x1, sp, 120
	add	x0, sp, 184
	mov	x3, x2
	mov	x2, x1
	mov	x1, x23
.LEHB8:
	bl	_ZNSt6vectorIbSaIbEEC1EmRKbRKS0_
.LEHE8:
	add	x0, sp, 88
	bl	_ZNSaISt6vectorIbSaIbEEEC1Ev
	add	x2, sp, 88
	add	x1, sp, 184
	add	x0, sp, 160
	mov	x3, x2
	mov	x2, x1
	mov	x1, x22
.LEHB9:
	bl	_ZNSt6vectorIS_IbSaIbEESaIS1_EEC1EmRKS1_RKS2_
.LEHE9:
	add	x0, sp, 88
	bl	_ZNSaISt6vectorIbSaIbEEED1Ev
	add	x0, sp, 184
	bl	_ZNSt6vectorIbSaIbEED1Ev
	add	x0, sp, 80
	bl	_ZNSaIbED1Ev
	mov	x0, x19
	bl	_ZNSt6vectorIS_IiSaIiEESaIS1_EEC1Ev
	str	wzr, [sp, 96]
	b	.L80
.L81:
	add	x0, sp, 160
	mov	w4, 0
	ldr	w3, [sp, 96]
	mov	x2, x0
	ldr	x1, [sp, 64]
	ldr	x0, [sp, 72]
.LEHB10:
	bl	_ZN8Solution3dfsERSt6vectorIS0_IiSaIiEESaIS2_EERS0_IS0_IbSaIbEESaIS7_EEii
	ldr	w0, [sp, 116]
	sub	w1, w0, #1
	add	x0, sp, 160
	mov	w4, w1
	ldr	w3, [sp, 96]
	mov	x2, x0
	ldr	x1, [sp, 64]
	ldr	x0, [sp, 72]
	bl	_ZN8Solution3dfsERSt6vectorIS0_IiSaIiEESaIS2_EERS0_IS0_IbSaIbEESaIS7_EEii
	ldr	w0, [sp, 96]
	add	w0, w0, 1
	str	w0, [sp, 96]
.L80:
	ldr	w1, [sp, 96]
	ldr	w0, [sp, 112]
	cmp	w1, w0
	blt	.L81
	str	wzr, [sp, 100]
	b	.L82
.L83:
	add	x0, sp, 136
	ldr	w4, [sp, 100]
	mov	w3, 0
	mov	x2, x0
	ldr	x1, [sp, 64]
	ldr	x0, [sp, 72]
	bl	_ZN8Solution3dfsERSt6vectorIS0_IiSaIiEESaIS2_EERS0_IS0_IbSaIbEESaIS7_EEii
	ldr	w0, [sp, 116]
	sub	w1, w0, #1
	add	x0, sp, 136
	ldr	w4, [sp, 100]
	mov	w3, w1
	mov	x2, x0
	ldr	x1, [sp, 64]
	ldr	x0, [sp, 72]
	bl	_ZN8Solution3dfsERSt6vectorIS0_IiSaIiEESaIS2_EERS0_IS0_IbSaIbEESaIS7_EEii
	ldr	w0, [sp, 100]
	add	w0, w0, 1
	str	w0, [sp, 100]
.L82:
	ldr	w1, [sp, 100]
	ldr	w0, [sp, 116]
	cmp	w1, w0
	blt	.L83
	str	wzr, [sp, 104]
	b	.L84
.L90:
	str	wzr, [sp, 108]
	b	.L85
.L89:
	ldrsw	x1, [sp, 104]
	add	x0, sp, 160
	bl	_ZNSt6vectorIS_IbSaIbEESaIS1_EEixEm
	mov	x2, x0
	ldrsw	x0, [sp, 108]
	mov	x1, x0
	mov	x0, x2
	bl	_ZNSt6vectorIbSaIbEEixEm
	stp	x0, x1, [sp, 120]
	add	x0, sp, 120
	bl	_ZNKSt14_Bit_referencecvbEv
	and	w0, w0, 255
	cmp	w0, 0
	beq	.L86
	ldrsw	x1, [sp, 104]
	add	x0, sp, 136
	bl	_ZNSt6vectorIS_IbSaIbEESaIS1_EEixEm
	mov	x2, x0
	ldrsw	x0, [sp, 108]
	mov	x1, x0
	mov	x0, x2
	bl	_ZNSt6vectorIbSaIbEEixEm
.LEHE10:
	stp	x0, x1, [sp, 184]
	add	x0, sp, 184
	bl	_ZNKSt14_Bit_referencecvbEv
	and	w0, w0, 255
	cmp	w0, 0
	beq	.L86
	mov	w0, 1
	b	.L87
.L86:
	mov	w0, 0
.L87:
	cmp	w0, 0
	beq	.L88
	ldr	w0, [sp, 104]
	str	w0, [sp, 224]
	ldr	w0, [sp, 108]
	str	w0, [sp, 228]
	add	x0, sp, 224
	mov	x20, x0
	mov	x21, 2
	add	x0, sp, 120
	bl	_ZNSaIiEC1Ev
	add	x1, sp, 120
	add	x0, sp, 184
	mov	x3, x1
	mov	x1, x20
	mov	x2, x21
.LEHB11:
	bl	_ZNSt6vectorIiSaIiEEC1ESt16initializer_listIiERKS0_
.LEHE11:
	add	x0, sp, 184
	mov	x1, x0
	mov	x0, x19
.LEHB12:
	bl	_ZNSt6vectorIS_IiSaIiEESaIS1_EE9push_backEOS1_
.LEHE12:
	add	x0, sp, 184
	bl	_ZNSt6vectorIiSaIiEED1Ev
	add	x0, sp, 120
	bl	_ZNSaIiED1Ev
.L88:
	ldr	w0, [sp, 108]
	add	w0, w0, 1
	str	w0, [sp, 108]
.L85:
	ldr	w1, [sp, 108]
	ldr	w0, [sp, 116]
	cmp	w1, w0
	blt	.L89
	ldr	w0, [sp, 104]
	add	w0, w0, 1
	str	w0, [sp, 104]
.L84:
	ldr	w1, [sp, 104]
	ldr	w0, [sp, 112]
	cmp	w1, w0
	blt	.L90
	nop
	add	x0, sp, 160
	bl	_ZNSt6vectorIS_IbSaIbEESaIS1_EED1Ev
	add	x0, sp, 136
	bl	_ZNSt6vectorIS_IbSaIbEESaIS1_EED1Ev
	nop
	adrp	x0, :got:__stack_chk_guard
	ldr	x0, [x0, #:got_lo12:__stack_chk_guard]
	ldr	x2, [sp, 232]
	ldr	x1, [x0]
	subs	x2, x2, x1
	mov	x1, 0
	beq	.L100
	b	.L108
.L102:
	mov	x19, x0
	add	x0, sp, 120
	bl	_ZNSaISt6vectorIbSaIbEEED1Ev
	add	x0, sp, 184
	bl	_ZNSt6vectorIbSaIbEED1Ev
	b	.L93
.L101:
	mov	x19, x0
.L93:
	add	x0, sp, 88
	bl	_ZNSaIbED1Ev
	mov	x0, x19
.LEHB13:
	bl	_Unwind_Resume
.L104:
	mov	x19, x0
	add	x0, sp, 88
	bl	_ZNSaISt6vectorIbSaIbEEED1Ev
	add	x0, sp, 184
	bl	_ZNSt6vectorIbSaIbEED1Ev
	b	.L95
.L103:
	mov	x19, x0
.L95:
	add	x0, sp, 80
	bl	_ZNSaIbED1Ev
	b	.L96
.L107:
	mov	x20, x0
	add	x0, sp, 184
	bl	_ZNSt6vectorIiSaIiEED1Ev
	b	.L98
.L106:
	mov	x20, x0
.L98:
	add	x0, sp, 120
	bl	_ZNSaIiED1Ev
	b	.L99
.L105:
	mov	x20, x0
.L99:
	mov	x0, x19
	bl	_ZNSt6vectorIS_IiSaIiEESaIS1_EED1Ev
	mov	x19, x20
	add	x0, sp, 160
	bl	_ZNSt6vectorIS_IbSaIbEESaIS1_EED1Ev
.L96:
	add	x0, sp, 136
	bl	_ZNSt6vectorIS_IbSaIbEESaIS1_EED1Ev
	mov	x0, x19
	bl	_Unwind_Resume
.LEHE13:
.L108:
	bl	__stack_chk_fail
.L100:
	mov	x0, x19
	ldp	x19, x20, [sp, 16]
	ldp	x21, x22, [sp, 32]
	ldr	x23, [sp, 48]
	ldp	x29, x30, [sp], 240
	.cfi_restore 30
	.cfi_restore 29
	.cfi_restore 23
	.cfi_restore 21
	.cfi_restore 22
	.cfi_restore 19
	.cfi_restore 20
	.cfi_def_cfa_offset 0
	ret
	.cfi_endproc
.LFE5442:
	.section	.gcc_except_table._ZN8Solution15pacificAtlanticERSt6vectorIS0_IiSaIiEESaIS2_EE,"aG",@progbits,_ZN8Solution15pacificAtlanticERSt6vectorIS0_IiSaIiEESaIS2_EE,comdat
.LLSDA5442:
	.byte	0xff
	.byte	0xff
	.byte	0x1
	.uleb128 .LLSDACSE5442-.LLSDACSB5442
.LLSDACSB5442:
	.uleb128 .LEHB6-.LFB5442
	.uleb128 .LEHE6-.LEHB6
	.uleb128 .L101-.LFB5442
	.uleb128 0
	.uleb128 .LEHB7-.LFB5442
	.uleb128 .LEHE7-.LEHB7
	.uleb128 .L102-.LFB5442
	.uleb128 0
	.uleb128 .LEHB8-.LFB5442
	.uleb128 .LEHE8-.LEHB8
	.uleb128 .L103-.LFB5442
	.uleb128 0
	.uleb128 .LEHB9-.LFB5442
	.uleb128 .LEHE9-.LEHB9
	.uleb128 .L104-.LFB5442
	.uleb128 0
	.uleb128 .LEHB10-.LFB5442
	.uleb128 .LEHE10-.LEHB10
	.uleb128 .L105-.LFB5442
	.uleb128 0
	.uleb128 .LEHB11-.LFB5442
	.uleb128 .LEHE11-.LEHB11
	.uleb128 .L106-.LFB5442
	.uleb128 0
	.uleb128 .LEHB12-.LFB5442
	.uleb128 .LEHE12-.LEHB12
	.uleb128 .L107-.LFB5442
	.uleb128 0
	.uleb128 .LEHB13-.LFB5442
	.uleb128 .LEHE13-.LEHB13
	.uleb128 0
	.uleb128 0
.LLSDACSE5442:
	.section	.text._ZN8Solution15pacificAtlanticERSt6vectorIS0_IiSaIiEESaIS2_EE,"axG",@progbits,_ZN8Solution15pacificAtlanticERSt6vectorIS0_IiSaIiEESaIS2_EE,comdat
	.size	_ZN8Solution15pacificAtlanticERSt6vectorIS0_IiSaIiEESaIS2_EE, .-_ZN8Solution15pacificAtlanticERSt6vectorIS0_IiSaIiEESaIS2_EE
	.section	.text._ZN8SolutionC2Ev,"axG",@progbits,_ZN8SolutionC5Ev,comdat
	.align	2
	.weak	_ZN8SolutionC2Ev
	.type	_ZN8SolutionC2Ev, %function
_ZN8SolutionC2Ev:
.LFB5461:
	.cfi_startproc
	.cfi_personality 0x9b,DW.ref.__gxx_personality_v0
	.cfi_lsda 0x1b,.LLSDA5461
	stp	x29, x30, [sp, -80]!
	.cfi_def_cfa_offset 80
	.cfi_offset 29, -80
	.cfi_offset 30, -72
	mov	x29, sp
	stp	x19, x20, [sp, 16]
	str	x21, [sp, 32]
	.cfi_offset 19, -64
	.cfi_offset 20, -56
	.cfi_offset 21, -48
	str	x0, [sp, 56]
	adrp	x0, :got:__stack_chk_guard
	ldr	x0, [x0, #:got_lo12:__stack_chk_guard]
	ldr	x1, [x0]
	str	x1, [sp, 72]
	mov	x1, 0
	ldr	x19, [sp, 56]
	adrp	x0, C.0.0
	add	x20, x0, :lo12:C.0.0
	mov	x21, 4
	add	x0, sp, 64
	bl	_ZNSaIiEC1Ev
	add	x0, sp, 64
	mov	x3, x0
	mov	x1, x20
	mov	x2, x21
	mov	x0, x19
.LEHB14:
	bl	_ZNSt6vectorIiSaIiEEC1ESt16initializer_listIiERKS0_
.LEHE14:
	add	x0, sp, 64
	bl	_ZNSaIiED1Ev
	nop
	adrp	x0, :got:__stack_chk_guard
	ldr	x0, [x0, #:got_lo12:__stack_chk_guard]
	ldr	x2, [sp, 72]
	ldr	x1, [x0]
	subs	x2, x2, x1
	mov	x1, 0
	beq	.L111
	b	.L113
.L112:
	mov	x19, x0
	add	x0, sp, 64
	bl	_ZNSaIiED1Ev
	mov	x0, x19
.LEHB15:
	bl	_Unwind_Resume
.LEHE15:
.L113:
	bl	__stack_chk_fail
.L111:
	ldp	x19, x20, [sp, 16]
	ldr	x21, [sp, 32]
	ldp	x29, x30, [sp], 80
	.cfi_restore 30
	.cfi_restore 29
	.cfi_restore 21
	.cfi_restore 19
	.cfi_restore 20
	.cfi_def_cfa_offset 0
	ret
	.cfi_endproc
.LFE5461:
	.section	.gcc_except_table._ZN8SolutionC2Ev,"aG",@progbits,_ZN8SolutionC5Ev,comdat
.LLSDA5461:
	.byte	0xff
	.byte	0xff
	.byte	0x1
	.uleb128 .LLSDACSE5461-.LLSDACSB5461
.LLSDACSB5461:
	.uleb128 .LEHB14-.LFB5461
	.uleb128 .LEHE14-.LEHB14
	.uleb128 .L112-.LFB5461
	.uleb128 0
	.uleb128 .LEHB15-.LFB5461
	.uleb128 .LEHE15-.LEHB15
	.uleb128 0
	.uleb128 0
.LLSDACSE5461:
	.section	.text._ZN8SolutionC2Ev,"axG",@progbits,_ZN8SolutionC5Ev,comdat
	.size	_ZN8SolutionC2Ev, .-_ZN8SolutionC2Ev
	.weak	_ZN8SolutionC1Ev
	.set	_ZN8SolutionC1Ev,_ZN8SolutionC2Ev
	.section	.text._ZN8SolutionD2Ev,"axG",@progbits,_ZN8SolutionD5Ev,comdat
	.align	2
	.weak	_ZN8SolutionD2Ev
	.type	_ZN8SolutionD2Ev, %function
_ZN8SolutionD2Ev:
.LFB5464:
	.cfi_startproc
	stp	x29, x30, [sp, -32]!
	.cfi_def_cfa_offset 32
	.cfi_offset 29, -32
	.cfi_offset 30, -24
	mov	x29, sp
	str	x0, [sp, 24]
	ldr	x0, [sp, 24]
	bl	_ZNSt6vectorIiSaIiEED1Ev
	nop
	ldp	x29, x30, [sp], 32
	.cfi_restore 30
	.cfi_restore 29
	.cfi_def_cfa_offset 0
	ret
	.cfi_endproc
.LFE5464:
	.size	_ZN8SolutionD2Ev, .-_ZN8SolutionD2Ev
	.weak	_ZN8SolutionD1Ev
	.set	_ZN8SolutionD1Ev,_ZN8SolutionD2Ev
	.section	.text._ZN3dbg11DebugOutputD2Ev,"axG",@progbits,_ZN3dbg11DebugOutputD5Ev,comdat
	.align	2
	.weak	_ZN3dbg11DebugOutputD2Ev
	.type	_ZN3dbg11DebugOutputD2Ev, %function
_ZN3dbg11DebugOutputD2Ev:
.LFB5467:
	.cfi_startproc
	stp	x29, x30, [sp, -32]!
	.cfi_def_cfa_offset 32
	.cfi_offset 29, -32
	.cfi_offset 30, -24
	mov	x29, sp
	str	x0, [sp, 24]
	ldr	x0, [sp, 24]
	add	x0, x0, 8
	bl	_ZNSt7__cxx1112basic_stringIcSt11char_traitsIcESaIcEED1Ev
	nop
	ldp	x29, x30, [sp], 32
	.cfi_restore 30
	.cfi_restore 29
	.cfi_def_cfa_offset 0
	ret
	.cfi_endproc
.LFE5467:
	.size	_ZN3dbg11DebugOutputD2Ev, .-_ZN3dbg11DebugOutputD2Ev
	.weak	_ZN3dbg11DebugOutputD1Ev
	.set	_ZN3dbg11DebugOutputD1Ev,_ZN3dbg11DebugOutputD2Ev
	.section	.rodata
	.align	3
.LC13:
	.string	"main"
	.align	3
.LC14:
	.string	"/media/psf/Home/Desktop/git/C-/mac/myproject/src/DataStructure/417/src/main.cpp"
	.align	3
.LC15:
	.string	"re"
	.text
	.align	2
	.global	main
	.type	main, %function
main:
.LFB5459:
	.cfi_startproc
	.cfi_personality 0x9b,DW.ref.__gxx_personality_v0
	.cfi_lsda 0x1b,.LLSDA5459
	sub	sp, sp, #544
	.cfi_def_cfa_offset 544
	stp	x29, x30, [sp]
	.cfi_offset 29, -544
	.cfi_offset 30, -536
	mov	x29, sp
	stp	x19, x20, [sp, 16]
	stp	x21, x22, [sp, 32]
	stp	x23, x24, [sp, 48]
	stp	x25, x26, [sp, 64]
	str	x27, [sp, 80]
	.cfi_offset 19, -528
	.cfi_offset 20, -520
	.cfi_offset 21, -512
	.cfi_offset 22, -504
	.cfi_offset 23, -496
	.cfi_offset 24, -488
	.cfi_offset 25, -480
	.cfi_offset 26, -472
	.cfi_offset 27, -464
	str	w0, [sp, 172]
	str	x1, [sp, 160]
	adrp	x0, :got:__stack_chk_guard
	ldr	x0, [x0, #:got_lo12:__stack_chk_guard]
	ldr	x1, [x0]
	str	x1, [sp, 536]
	mov	x1, 0
	add	x0, sp, 216
.LEHB16:
	bl	_ZN8SolutionC1Ev
.LEHE16:
	adrp	x0, .LC0
	add	x0, x0, :lo12:.LC0
	add	x2, sp, 288
	mov	x3, x0
	ldp	x0, x1, [x3]
	stp	x0, x1, [x2]
	ldr	w0, [x3, 16]
	str	w0, [x2, 16]
	add	x0, sp, 288
	str	x0, [sp, 144]
	mov	x0, 5
	str	x0, [sp, 152]
	add	x0, sp, 176
	bl	_ZNSaIiEC1Ev
	add	x1, sp, 176
	add	x0, sp, 416
	mov	x3, x1
	ldp	x1, x2, [sp, 144]
.LEHB17:
	bl	_ZNSt6vectorIiSaIiEEC1ESt16initializer_listIiERKS0_
.LEHE17:
	adrp	x0, .LC1
	add	x0, x0, :lo12:.LC1
	add	x2, sp, 312
	mov	x3, x0
	ldp	x0, x1, [x3]
	stp	x0, x1, [x2]
	ldr	w0, [x3, 16]
	str	w0, [x2, 16]
	add	x0, sp, 312
	str	x0, [sp, 128]
	mov	x0, 5
	str	x0, [sp, 136]
	add	x0, sp, 184
	bl	_ZNSaIiEC1Ev
	add	x1, sp, 184
	add	x0, sp, 416
	add	x0, x0, 24
	mov	x3, x1
	ldp	x1, x2, [sp, 128]
.LEHB18:
	bl	_ZNSt6vectorIiSaIiEEC1ESt16initializer_listIiERKS0_
.LEHE18:
	adrp	x0, .LC2
	add	x0, x0, :lo12:.LC2
	add	x2, sp, 336
	mov	x3, x0
	ldp	x0, x1, [x3]
	stp	x0, x1, [x2]
	ldr	w0, [x3, 16]
	str	w0, [x2, 16]
	add	x0, sp, 336
	str	x0, [sp, 112]
	mov	x0, 5
	str	x0, [sp, 120]
	add	x0, sp, 192
	bl	_ZNSaIiEC1Ev
	add	x1, sp, 192
	add	x0, sp, 416
	add	x0, x0, 48
	mov	x3, x1
	ldp	x1, x2, [sp, 112]
.LEHB19:
	bl	_ZNSt6vectorIiSaIiEEC1ESt16initializer_listIiERKS0_
.LEHE19:
	adrp	x0, .LC3
	add	x0, x0, :lo12:.LC3
	add	x2, sp, 360
	mov	x3, x0
	ldp	x0, x1, [x3]
	stp	x0, x1, [x2]
	ldr	w0, [x3, 16]
	str	w0, [x2, 16]
	add	x0, sp, 360
	str	x0, [sp, 96]
	mov	x0, 5
	str	x0, [sp, 104]
	add	x0, sp, 200
	bl	_ZNSaIiEC1Ev
	add	x1, sp, 200
	add	x0, sp, 416
	add	x0, x0, 72
	mov	x3, x1
	ldp	x1, x2, [sp, 96]
.LEHB20:
	bl	_ZNSt6vectorIiSaIiEEC1ESt16initializer_listIiERKS0_
.LEHE20:
	adrp	x0, .LC4
	add	x0, x0, :lo12:.LC4
	add	x2, sp, 384
	mov	x3, x0
	ldp	x0, x1, [x3]
	stp	x0, x1, [x2]
	ldr	w0, [x3, 16]
	str	w0, [x2, 16]
	add	x0, sp, 384
	mov	x26, x0
	mov	x27, 5
	add	x0, sp, 208
	bl	_ZNSaIiEC1Ev
	add	x1, sp, 208
	add	x0, sp, 416
	add	x0, x0, 96
	mov	x3, x1
	mov	x1, x26
	mov	x2, x27
.LEHB21:
	bl	_ZNSt6vectorIiSaIiEEC1ESt16initializer_listIiERKS0_
.LEHE21:
	add	x0, sp, 416
	mov	x24, x0
	mov	x25, 5
	add	x0, sp, 264
	bl	_ZNSaISt6vectorIiSaIiEEEC1Ev
	add	x1, sp, 264
	add	x0, sp, 240
	mov	x3, x1
	mov	x1, x24
	mov	x2, x25
.LEHB22:
	bl	_ZNSt6vectorIS_IiSaIiEESaIS1_EEC1ESt16initializer_listIS1_ERKS2_
.LEHE22:
	add	x0, sp, 264
	bl	_ZNSaISt6vectorIiSaIiEEED1Ev
	add	x19, sp, 416
	add	x19, x19, 120
.L118:
	add	x0, sp, 416
	cmp	x19, x0
	beq	.L117
	sub	x19, x19, #24
	mov	x0, x19
	bl	_ZNSt6vectorIiSaIiEED1Ev
	b	.L118
.L117:
	add	x0, sp, 208
	bl	_ZNSaIiED1Ev
	add	x0, sp, 200
	bl	_ZNSaIiED1Ev
	add	x0, sp, 192
	bl	_ZNSaIiED1Ev
	add	x0, sp, 184
	bl	_ZNSaIiED1Ev
	add	x0, sp, 176
	bl	_ZNSaIiED1Ev
	add	x1, sp, 240
	add	x0, sp, 216
	add	x2, sp, 264
	mov	x8, x2
.LEHB23:
	bl	_ZN8Solution15pacificAtlanticERSt6vectorIS0_IiSaIiEESaIS2_EE
.LEHE23:
	add	x4, sp, 416
	adrp	x0, .LC13
	add	x3, x0, :lo12:.LC13
	mov	w2, 63
	adrp	x0, .LC14
	add	x1, x0, :lo12:.LC14
	mov	x0, x4
.LEHB24:
	bl	_ZN3dbg11DebugOutputC1EPKciS2_
.LEHE24:
	adrp	x0, .LC15
	add	x0, x0, :lo12:.LC15
	str	x0, [sp, 360]
	add	x0, sp, 360
	mov	x20, x0
	mov	x21, 1
	add	x0, sp, 384
	mov	x8, x0
.LEHB25:
	bl	_ZN3dbg9type_nameISt6vectorIS1_IiSaIiEESaIS3_EEEENSt7__cxx1112basic_stringIcSt11char_traitsIcESaIcEEEv
.LEHE25:
	add	x0, sp, 384
	mov	x22, x0
	mov	x23, 1
	add	x1, sp, 264
	add	x0, sp, 416
	mov	x5, x1
	mov	x3, x22
	mov	x4, x23
	mov	x1, x20
	mov	x2, x21
.LEHB26:
	bl	_ZN3dbg11DebugOutput5printIJRSt6vectorIS2_IiSaIiEESaIS4_EEEEENS_4lastIDpT_E4typeESt16initializer_listIPKcESD_INSt7__cxx1112basic_stringIcSt11char_traitsIcESaIcEEEEDpOS9_
.LEHE26:
	add	x19, sp, 384
	add	x19, x19, 32
.L120:
	add	x0, sp, 384
	cmp	x19, x0
	beq	.L119
	sub	x19, x19, #32
	mov	x0, x19
	bl	_ZNSt7__cxx1112basic_stringIcSt11char_traitsIcESaIcEED1Ev
	b	.L120
.L119:
	add	x0, sp, 416
	bl	_ZN3dbg11DebugOutputD1Ev
	mov	w19, 0
	add	x0, sp, 264
	bl	_ZNSt6vectorIS_IiSaIiEESaIS1_EED1Ev
	add	x0, sp, 240
	bl	_ZNSt6vectorIS_IiSaIiEESaIS1_EED1Ev
	add	x0, sp, 216
	bl	_ZN8SolutionD1Ev
	mov	w1, w19
	adrp	x0, :got:__stack_chk_guard
	ldr	x0, [x0, #:got_lo12:__stack_chk_guard]
	ldr	x3, [sp, 536]
	ldr	x2, [x0]
	subs	x3, x3, x2
	mov	x2, 0
	beq	.L137
	b	.L148
.L143:
	mov	x19, x0
	add	x0, sp, 264
	bl	_ZNSaISt6vectorIiSaIiEEED1Ev
	mov	x20, x19
	add	x19, sp, 416
	add	x19, x19, 120
.L124:
	add	x0, sp, 416
	cmp	x19, x0
	beq	.L123
	sub	x19, x19, #24
	mov	x0, x19
	bl	_ZNSt6vectorIiSaIiEED1Ev
	b	.L124
.L123:
	mov	x19, x20
	b	.L125
.L142:
	mov	x19, x0
.L125:
	add	x0, sp, 208
	bl	_ZNSaIiED1Ev
	b	.L126
.L141:
	mov	x19, x0
.L126:
	add	x0, sp, 200
	bl	_ZNSaIiED1Ev
	b	.L127
.L140:
	mov	x19, x0
.L127:
	add	x0, sp, 192
	bl	_ZNSaIiED1Ev
	b	.L128
.L139:
	mov	x19, x0
.L128:
	add	x0, sp, 184
	bl	_ZNSaIiED1Ev
	b	.L129
.L138:
	mov	x19, x0
.L129:
	add	x0, sp, 176
	bl	_ZNSaIiED1Ev
	b	.L130
.L147:
	mov	x20, x0
	add	x19, sp, 384
	add	x19, x19, 32
.L133:
	add	x0, sp, 384
	cmp	x19, x0
	beq	.L132
	sub	x19, x19, #32
	mov	x0, x19
	bl	_ZNSt7__cxx1112basic_stringIcSt11char_traitsIcESaIcEED1Ev
	b	.L133
.L132:
	mov	x19, x20
	b	.L134
.L146:
	mov	x19, x0
.L134:
	add	x0, sp, 416
	bl	_ZN3dbg11DebugOutputD1Ev
	b	.L135
.L145:
	mov	x19, x0
.L135:
	add	x0, sp, 264
	bl	_ZNSt6vectorIS_IiSaIiEESaIS1_EED1Ev
	b	.L136
.L144:
	mov	x19, x0
.L136:
	add	x0, sp, 240
	bl	_ZNSt6vectorIS_IiSaIiEESaIS1_EED1Ev
.L130:
	add	x0, sp, 216
	bl	_ZN8SolutionD1Ev
	mov	x0, x19
.LEHB27:
	bl	_Unwind_Resume
.LEHE27:
.L148:
	bl	__stack_chk_fail
.L137:
	mov	w0, w1
	ldp	x19, x20, [sp, 16]
	ldp	x21, x22, [sp, 32]
	ldp	x23, x24, [sp, 48]
	ldp	x25, x26, [sp, 64]
	ldr	x27, [sp, 80]
	ldp	x29, x30, [sp]
	add	sp, sp, 544
	.cfi_restore 29
	.cfi_restore 30
	.cfi_restore 27
	.cfi_restore 25
	.cfi_restore 26
	.cfi_restore 23
	.cfi_restore 24
	.cfi_restore 21
	.cfi_restore 22
	.cfi_restore 19
	.cfi_restore 20
	.cfi_def_cfa_offset 0
	ret
	.cfi_endproc
.LFE5459:
	.section	.gcc_except_table,"a",@progbits
.LLSDA5459:
	.byte	0xff
	.byte	0xff
	.byte	0x1
	.uleb128 .LLSDACSE5459-.LLSDACSB5459
.LLSDACSB5459:
	.uleb128 .LEHB16-.LFB5459
	.uleb128 .LEHE16-.LEHB16
	.uleb128 0
	.uleb128 0
	.uleb128 .LEHB17-.LFB5459
	.uleb128 .LEHE17-.LEHB17
	.uleb128 .L138-.LFB5459
	.uleb128 0
	.uleb128 .LEHB18-.LFB5459
	.uleb128 .LEHE18-.LEHB18
	.uleb128 .L139-.LFB5459
	.uleb128 0
	.uleb128 .LEHB19-.LFB5459
	.uleb128 .LEHE19-.LEHB19
	.uleb128 .L140-.LFB5459
	.uleb128 0
	.uleb128 .LEHB20-.LFB5459
	.uleb128 .LEHE20-.LEHB20
	.uleb128 .L141-.LFB5459
	.uleb128 0
	.uleb128 .LEHB21-.LFB5459
	.uleb128 .LEHE21-.LEHB21
	.uleb128 .L142-.LFB5459
	.uleb128 0
	.uleb128 .LEHB22-.LFB5459
	.uleb128 .LEHE22-.LEHB22
	.uleb128 .L143-.LFB5459
	.uleb128 0
	.uleb128 .LEHB23-.LFB5459
	.uleb128 .LEHE23-.LEHB23
	.uleb128 .L144-.LFB5459
	.uleb128 0
	.uleb128 .LEHB24-.LFB5459
	.uleb128 .LEHE24-.LEHB24
	.uleb128 .L145-.LFB5459
	.uleb128 0
	.uleb128 .LEHB25-.LFB5459
	.uleb128 .LEHE25-.LEHB25
	.uleb128 .L146-.LFB5459
	.uleb128 0
	.uleb128 .LEHB26-.LFB5459
	.uleb128 .LEHE26-.LEHB26
	.uleb128 .L147-.LFB5459
	.uleb128 0
	.uleb128 .LEHB27-.LFB5459
	.uleb128 .LEHE27-.LEHB27
	.uleb128 0
	.uleb128 0
.LLSDACSE5459:
	.text
	.size	main, .-main
	.section	.rodata
	.align	3
.LC0:
	.word	1
	.word	2
	.word	2
	.word	3
	.word	5
	.align	3
.LC1:
	.word	3
	.word	2
	.word	3
	.word	4
	.word	4
	.align	3
.LC2:
	.word	2
	.word	4
	.word	5
	.word	3
	.word	1
	.align	3
.LC3:
	.word	6
	.word	7
	.word	1
	.word	4
	.word	5
	.align	3
.LC4:
	.word	5
	.word	1
	.word	1
	.word	2
	.word	4
	.text
	.section	.text._ZN9__gnu_cxx11char_traitsIcE2eqERKcS3_,"axG",@progbits,_ZN9__gnu_cxx11char_traitsIcE2eqERKcS3_,comdat
	.align	2
	.weak	_ZN9__gnu_cxx11char_traitsIcE2eqERKcS3_
	.type	_ZN9__gnu_cxx11char_traitsIcE2eqERKcS3_, %function
_ZN9__gnu_cxx11char_traitsIcE2eqERKcS3_:
.LFB5470:
	.cfi_startproc
	sub	sp, sp, #16
	.cfi_def_cfa_offset 16
	str	x0, [sp, 8]
	str	x1, [sp]
	ldr	x0, [sp, 8]
	ldrb	w1, [x0]
	ldr	x0, [sp]
	ldrb	w0, [x0]
	cmp	w1, w0
	cset	w0, eq
	and	w0, w0, 255
	add	sp, sp, 16
	.cfi_def_cfa_offset 0
	ret
	.cfi_endproc
.LFE5470:
	.size	_ZN9__gnu_cxx11char_traitsIcE2eqERKcS3_, .-_ZN9__gnu_cxx11char_traitsIcE2eqERKcS3_
	.section	.text._ZN9__gnu_cxx11char_traitsIcE6lengthEPKc,"axG",@progbits,_ZN9__gnu_cxx11char_traitsIcE6lengthEPKc,comdat
	.align	2
	.weak	_ZN9__gnu_cxx11char_traitsIcE6lengthEPKc
	.type	_ZN9__gnu_cxx11char_traitsIcE6lengthEPKc, %function
_ZN9__gnu_cxx11char_traitsIcE6lengthEPKc:
.LFB5469:
	.cfi_startproc
	stp	x29, x30, [sp, -64]!
	.cfi_def_cfa_offset 64
	.cfi_offset 29, -64
	.cfi_offset 30, -56
	mov	x29, sp
	str	x0, [sp, 24]
	adrp	x0, :got:__stack_chk_guard
	ldr	x0, [x0, #:got_lo12:__stack_chk_guard]
	ldr	x1, [x0]
	str	x1, [sp, 56]
	mov	x1, 0
	str	xzr, [sp, 48]
	b	.L152
.L153:
	ldr	x0, [sp, 48]
	add	x0, x0, 1
	str	x0, [sp, 48]
.L152:
	ldr	x1, [sp, 24]
	ldr	x0, [sp, 48]
	add	x0, x1, x0
	strb	wzr, [sp, 47]
	add	x1, sp, 47
	bl	_ZN9__gnu_cxx11char_traitsIcE2eqERKcS3_
	and	w0, w0, 255
	eor	w0, w0, 1
	and	w0, w0, 255
	cmp	w0, 0
	bne	.L153
	ldr	x0, [sp, 48]
	mov	x1, x0
	adrp	x0, :got:__stack_chk_guard
	ldr	x0, [x0, #:got_lo12:__stack_chk_guard]
	ldr	x3, [sp, 56]
	ldr	x2, [x0]
	subs	x3, x3, x2
	mov	x2, 0
	beq	.L155
	bl	__stack_chk_fail
.L155:
	mov	x0, x1
	ldp	x29, x30, [sp], 64
	.cfi_restore 30
	.cfi_restore 29
	.cfi_def_cfa_offset 0
	ret
	.cfi_endproc
.LFE5469:
	.size	_ZN9__gnu_cxx11char_traitsIcE6lengthEPKc, .-_ZN9__gnu_cxx11char_traitsIcE6lengthEPKc
	.section	.text._ZNSt7__cxx1112basic_stringIcSt11char_traitsIcESaIcEE12_Alloc_hiderD2Ev,"axG",@progbits,_ZNSt7__cxx1112basic_stringIcSt11char_traitsIcESaIcEE12_Alloc_hiderD5Ev,comdat
	.align	2
	.weak	_ZNSt7__cxx1112basic_stringIcSt11char_traitsIcESaIcEE12_Alloc_hiderD2Ev
	.type	_ZNSt7__cxx1112basic_stringIcSt11char_traitsIcESaIcEE12_Alloc_hiderD2Ev, %function
_ZNSt7__cxx1112basic_stringIcSt11char_traitsIcESaIcEE12_Alloc_hiderD2Ev:
.LFB5577:
	.cfi_startproc
	stp	x29, x30, [sp, -32]!
	.cfi_def_cfa_offset 32
	.cfi_offset 29, -32
	.cfi_offset 30, -24
	mov	x29, sp
	str	x0, [sp, 24]
	ldr	x0, [sp, 24]
	bl	_ZNSaIcED2Ev
	nop
	ldp	x29, x30, [sp], 32
	.cfi_restore 30
	.cfi_restore 29
	.cfi_def_cfa_offset 0
	ret
	.cfi_endproc
.LFE5577:
	.size	_ZNSt7__cxx1112basic_stringIcSt11char_traitsIcESaIcEE12_Alloc_hiderD2Ev, .-_ZNSt7__cxx1112basic_stringIcSt11char_traitsIcESaIcEE12_Alloc_hiderD2Ev
	.weak	_ZNSt7__cxx1112basic_stringIcSt11char_traitsIcESaIcEE12_Alloc_hiderD1Ev
	.set	_ZNSt7__cxx1112basic_stringIcSt11char_traitsIcESaIcEE12_Alloc_hiderD1Ev,_ZNSt7__cxx1112basic_stringIcSt11char_traitsIcESaIcEE12_Alloc_hiderD2Ev
	.section	.text._ZStplIcSt11char_traitsIcESaIcEENSt7__cxx1112basic_stringIT_T0_T1_EEPKS5_OS8_,"axG",@progbits,_ZStplIcSt11char_traitsIcESaIcEENSt7__cxx1112basic_stringIT_T0_T1_EEPKS5_OS8_,comdat
	.align	2
	.weak	_ZStplIcSt11char_traitsIcESaIcEENSt7__cxx1112basic_stringIT_T0_T1_EEPKS5_OS8_
	.type	_ZStplIcSt11char_traitsIcESaIcEENSt7__cxx1112basic_stringIT_T0_T1_EEPKS5_OS8_, %function
_ZStplIcSt11char_traitsIcESaIcEENSt7__cxx1112basic_stringIT_T0_T1_EEPKS5_OS8_:
.LFB5726:
	.cfi_startproc
	stp	x29, x30, [sp, -48]!
	.cfi_def_cfa_offset 48
	.cfi_offset 29, -48
	.cfi_offset 30, -40
	mov	x29, sp
	str	x19, [sp, 16]
	.cfi_offset 19, -32
	mov	x19, x8
	str	x0, [sp, 40]
	str	x1, [sp, 32]
	ldr	x2, [sp, 40]
	mov	x1, 0
	ldr	x0, [sp, 32]
	bl	_ZNSt7__cxx1112basic_stringIcSt11char_traitsIcESaIcEE6insertEmPKc
	bl	_ZSt4moveIRNSt7__cxx1112basic_stringIcSt11char_traitsIcESaIcEEEEONSt16remove_referenceIT_E4typeEOS8_
	mov	x1, x0
	mov	x0, x19
	bl	_ZNSt7__cxx1112basic_stringIcSt11char_traitsIcESaIcEEC1EOS4_
	mov	x0, x19
	ldr	x19, [sp, 16]
	ldp	x29, x30, [sp], 48
	.cfi_restore 30
	.cfi_restore 29
	.cfi_restore 19
	.cfi_def_cfa_offset 0
	ret
	.cfi_endproc
.LFE5726:
	.size	_ZStplIcSt11char_traitsIcESaIcEENSt7__cxx1112basic_stringIT_T0_T1_EEPKS5_OS8_, .-_ZStplIcSt11char_traitsIcESaIcEENSt7__cxx1112basic_stringIT_T0_T1_EEPKS5_OS8_
	.section	.text._ZSt3maxImERKT_S2_S2_,"axG",@progbits,_ZSt3maxImERKT_S2_S2_,comdat
	.align	2
	.weak	_ZSt3maxImERKT_S2_S2_
	.type	_ZSt3maxImERKT_S2_S2_, %function
_ZSt3maxImERKT_S2_S2_:
.LFB5729:
	.cfi_startproc
	sub	sp, sp, #16
	.cfi_def_cfa_offset 16
	str	x0, [sp, 8]
	str	x1, [sp]
	ldr	x0, [sp, 8]
	ldr	x1, [x0]
	ldr	x0, [sp]
	ldr	x0, [x0]
	cmp	x1, x0
	bcs	.L160
	ldr	x0, [sp]
	b	.L161
.L160:
	ldr	x0, [sp, 8]
.L161:
	add	sp, sp, 16
	.cfi_def_cfa_offset 0
	ret
	.cfi_endproc
.LFE5729:
	.size	_ZSt3maxImERKT_S2_S2_, .-_ZSt3maxImERKT_S2_S2_
	.section	.text._ZNSt7__cxx1112basic_stringIcSt11char_traitsIcESaIcEEC2IS3_EEPKcRKS3_,"axG",@progbits,_ZNSt7__cxx1112basic_stringIcSt11char_traitsIcESaIcEEC5IS3_EEPKcRKS3_,comdat
	.align	2
	.weak	_ZNSt7__cxx1112basic_stringIcSt11char_traitsIcESaIcEEC2IS3_EEPKcRKS3_
	.type	_ZNSt7__cxx1112basic_stringIcSt11char_traitsIcESaIcEEC2IS3_EEPKcRKS3_, %function
_ZNSt7__cxx1112basic_stringIcSt11char_traitsIcESaIcEEC2IS3_EEPKcRKS3_:
.LFB5780:
	.cfi_startproc
	.cfi_personality 0x9b,DW.ref.__gxx_personality_v0
	.cfi_lsda 0x1b,.LLSDA5780
	stp	x29, x30, [sp, -96]!
	.cfi_def_cfa_offset 96
	.cfi_offset 29, -96
	.cfi_offset 30, -88
	mov	x29, sp
	stp	x19, x20, [sp, 16]
	.cfi_offset 19, -80
	.cfi_offset 20, -72
	str	x0, [sp, 56]
	str	x1, [sp, 48]
	str	x2, [sp, 40]
	adrp	x0, :got:__stack_chk_guard
	ldr	x0, [x0, #:got_lo12:__stack_chk_guard]
	ldr	x1, [x0]
	str	x1, [sp, 88]
	mov	x1, 0
	ldr	x19, [sp, 56]
	ldr	x0, [sp, 56]
.LEHB28:
	bl	_ZNSt7__cxx1112basic_stringIcSt11char_traitsIcESaIcEE13_M_local_dataEv
	ldr	x2, [sp, 40]
	mov	x1, x0
	mov	x0, x19
	bl	_ZNSt7__cxx1112basic_stringIcSt11char_traitsIcESaIcEE12_Alloc_hiderC1EPcRKS3_
.LEHE28:
	ldr	x0, [sp, 48]
	cmp	x0, 0
	beq	.L163
	ldr	x0, [sp, 48]
.LEHB29:
	bl	_ZNSt11char_traitsIcE6lengthEPKc
	mov	x1, x0
	ldr	x0, [sp, 48]
	add	x0, x0, x1
	b	.L164
.L163:
	mov	x0, 1
.L164:
	str	x0, [sp, 80]
	mov	w3, w20
	ldr	x2, [sp, 80]
	ldr	x1, [sp, 48]
	ldr	x0, [sp, 56]
	bl	_ZNSt7__cxx1112basic_stringIcSt11char_traitsIcESaIcEE12_M_constructIPKcEEvT_S8_St20forward_iterator_tag
.LEHE29:
	b	.L168
.L167:
	mov	x19, x0
	ldr	x0, [sp, 56]
	bl	_ZNSt7__cxx1112basic_stringIcSt11char_traitsIcESaIcEE12_Alloc_hiderD1Ev
	mov	x0, x19
.LEHB30:
	bl	_Unwind_Resume
.LEHE30:
.L168:
	adrp	x0, :got:__stack_chk_guard
	ldr	x0, [x0, #:got_lo12:__stack_chk_guard]
	ldr	x2, [sp, 88]
	ldr	x1, [x0]
	subs	x2, x2, x1
	mov	x1, 0
	beq	.L166
	bl	__stack_chk_fail
.L166:
	ldp	x19, x20, [sp, 16]
	ldp	x29, x30, [sp], 96
	.cfi_restore 30
	.cfi_restore 29
	.cfi_restore 19
	.cfi_restore 20
	.cfi_def_cfa_offset 0
	ret
	.cfi_endproc
.LFE5780:
	.section	.gcc_except_table
.LLSDA5780:
	.byte	0xff
	.byte	0xff
	.byte	0x1
	.uleb128 .LLSDACSE5780-.LLSDACSB5780
.LLSDACSB5780:
	.uleb128 .LEHB28-.LFB5780
	.uleb128 .LEHE28-.LEHB28
	.uleb128 0
	.uleb128 0
	.uleb128 .LEHB29-.LFB5780
	.uleb128 .LEHE29-.LEHB29
	.uleb128 .L167-.LFB5780
	.uleb128 0
	.uleb128 .LEHB30-.LFB5780
	.uleb128 .LEHE30-.LEHB30
	.uleb128 0
	.uleb128 0
.LLSDACSE5780:
	.section	.text._ZNSt7__cxx1112basic_stringIcSt11char_traitsIcESaIcEEC2IS3_EEPKcRKS3_,"axG",@progbits,_ZNSt7__cxx1112basic_stringIcSt11char_traitsIcESaIcEEC5IS3_EEPKcRKS3_,comdat
	.size	_ZNSt7__cxx1112basic_stringIcSt11char_traitsIcESaIcEEC2IS3_EEPKcRKS3_, .-_ZNSt7__cxx1112basic_stringIcSt11char_traitsIcESaIcEEC2IS3_EEPKcRKS3_
	.weak	_ZNSt7__cxx1112basic_stringIcSt11char_traitsIcESaIcEEC1IS3_EEPKcRKS3_
	.set	_ZNSt7__cxx1112basic_stringIcSt11char_traitsIcESaIcEEC1IS3_EEPKcRKS3_,_ZNSt7__cxx1112basic_stringIcSt11char_traitsIcESaIcEEC2IS3_EEPKcRKS3_
	.section	.text._ZNSaIiEC2Ev,"axG",@progbits,_ZNSaIiEC5Ev,comdat
	.align	2
	.weak	_ZNSaIiEC2Ev
	.type	_ZNSaIiEC2Ev, %function
_ZNSaIiEC2Ev:
.LFB5834:
	.cfi_startproc
	stp	x29, x30, [sp, -32]!
	.cfi_def_cfa_offset 32
	.cfi_offset 29, -32
	.cfi_offset 30, -24
	mov	x29, sp
	str	x0, [sp, 24]
	ldr	x0, [sp, 24]
	bl	_ZN9__gnu_cxx13new_allocatorIiEC2Ev
	nop
	ldp	x29, x30, [sp], 32
	.cfi_restore 30
	.cfi_restore 29
	.cfi_def_cfa_offset 0
	ret
	.cfi_endproc
.LFE5834:
	.size	_ZNSaIiEC2Ev, .-_ZNSaIiEC2Ev
	.weak	_ZNSaIiEC1Ev
	.set	_ZNSaIiEC1Ev,_ZNSaIiEC2Ev
	.section	.text._ZNSaIiED2Ev,"axG",@progbits,_ZNSaIiED5Ev,comdat
	.align	2
	.weak	_ZNSaIiED2Ev
	.type	_ZNSaIiED2Ev, %function
_ZNSaIiED2Ev:
.LFB5837:
	.cfi_startproc
	stp	x29, x30, [sp, -32]!
	.cfi_def_cfa_offset 32
	.cfi_offset 29, -32
	.cfi_offset 30, -24
	mov	x29, sp
	str	x0, [sp, 24]
	ldr	x0, [sp, 24]
	bl	_ZN9__gnu_cxx13new_allocatorIiED2Ev
	nop
	ldp	x29, x30, [sp], 32
	.cfi_restore 30
	.cfi_restore 29
	.cfi_def_cfa_offset 0
	ret
	.cfi_endproc
.LFE5837:
	.size	_ZNSaIiED2Ev, .-_ZNSaIiED2Ev
	.weak	_ZNSaIiED1Ev
	.set	_ZNSaIiED1Ev,_ZNSaIiED2Ev
	.section	.text._ZNSt6vectorIiSaIiEEC2ESt16initializer_listIiERKS0_,"axG",@progbits,_ZNSt6vectorIiSaIiEEC5ESt16initializer_listIiERKS0_,comdat
	.align	2
	.weak	_ZNSt6vectorIiSaIiEEC2ESt16initializer_listIiERKS0_
	.type	_ZNSt6vectorIiSaIiEEC2ESt16initializer_listIiERKS0_, %function
_ZNSt6vectorIiSaIiEEC2ESt16initializer_listIiERKS0_:
.LFB5840:
	.cfi_startproc
	.cfi_personality 0x9b,DW.ref.__gxx_personality_v0
	.cfi_lsda 0x1b,.LLSDA5840
	stp	x29, x30, [sp, -80]!
	.cfi_def_cfa_offset 80
	.cfi_offset 29, -80
	.cfi_offset 30, -72
	mov	x29, sp
	stp	x19, x20, [sp, 16]
	.cfi_offset 19, -64
	.cfi_offset 20, -56
	str	x0, [sp, 56]
	stp	x1, x2, [sp, 40]
	str	x3, [sp, 32]
	adrp	x0, :got:__stack_chk_guard
	ldr	x0, [x0, #:got_lo12:__stack_chk_guard]
	ldr	x1, [x0]
	str	x1, [sp, 72]
	mov	x1, 0
	ldr	x0, [sp, 56]
	ldr	x1, [sp, 32]
	bl	_ZNSt12_Vector_baseIiSaIiEEC2ERKS0_
	add	x0, sp, 40
	bl	_ZNKSt16initializer_listIiE5beginEv
	mov	x19, x0
	add	x0, sp, 40
	bl	_ZNKSt16initializer_listIiE3endEv
	mov	w3, w20
	mov	x2, x0
	mov	x1, x19
	ldr	x0, [sp, 56]
.LEHB31:
	bl	_ZNSt6vectorIiSaIiEE19_M_range_initializeIPKiEEvT_S5_St20forward_iterator_tag
.LEHE31:
	b	.L175
.L174:
	mov	x19, x0
	ldr	x0, [sp, 56]
	bl	_ZNSt12_Vector_baseIiSaIiEED2Ev
	mov	x0, x19
.LEHB32:
	bl	_Unwind_Resume
.LEHE32:
.L175:
	adrp	x0, :got:__stack_chk_guard
	ldr	x0, [x0, #:got_lo12:__stack_chk_guard]
	ldr	x2, [sp, 72]
	ldr	x1, [x0]
	subs	x2, x2, x1
	mov	x1, 0
	beq	.L173
	bl	__stack_chk_fail
.L173:
	ldp	x19, x20, [sp, 16]
	ldp	x29, x30, [sp], 80
	.cfi_restore 30
	.cfi_restore 29
	.cfi_restore 19
	.cfi_restore 20
	.cfi_def_cfa_offset 0
	ret
	.cfi_endproc
.LFE5840:
	.section	.gcc_except_table
.LLSDA5840:
	.byte	0xff
	.byte	0xff
	.byte	0x1
	.uleb128 .LLSDACSE5840-.LLSDACSB5840
.LLSDACSB5840:
	.uleb128 .LEHB31-.LFB5840
	.uleb128 .LEHE31-.LEHB31
	.uleb128 .L174-.LFB5840
	.uleb128 0
	.uleb128 .LEHB32-.LFB5840
	.uleb128 .LEHE32-.LEHB32
	.uleb128 0
	.uleb128 0
.LLSDACSE5840:
	.section	.text._ZNSt6vectorIiSaIiEEC2ESt16initializer_listIiERKS0_,"axG",@progbits,_ZNSt6vectorIiSaIiEEC5ESt16initializer_listIiERKS0_,comdat
	.size	_ZNSt6vectorIiSaIiEEC2ESt16initializer_listIiERKS0_, .-_ZNSt6vectorIiSaIiEEC2ESt16initializer_listIiERKS0_
	.weak	_ZNSt6vectorIiSaIiEEC1ESt16initializer_listIiERKS0_
	.set	_ZNSt6vectorIiSaIiEEC1ESt16initializer_listIiERKS0_,_ZNSt6vectorIiSaIiEEC2ESt16initializer_listIiERKS0_
	.section	.text._ZNSt6vectorIS_IbSaIbEESaIS1_EEixEm,"axG",@progbits,_ZNSt6vectorIS_IbSaIbEESaIS1_EEixEm,comdat
	.align	2
	.weak	_ZNSt6vectorIS_IbSaIbEESaIS1_EEixEm
	.type	_ZNSt6vectorIS_IbSaIbEESaIS1_EEixEm, %function
_ZNSt6vectorIS_IbSaIbEESaIS1_EEixEm:
.LFB5842:
	.cfi_startproc
	sub	sp, sp, #16
	.cfi_def_cfa_offset 16
	str	x0, [sp, 8]
	str	x1, [sp]
	ldr	x0, [sp, 8]
	ldr	x2, [x0]
	ldr	x1, [sp]
	mov	x0, x1
	lsl	x0, x0, 2
	add	x0, x0, x1
	lsl	x0, x0, 3
	add	x0, x2, x0
	add	sp, sp, 16
	.cfi_def_cfa_offset 0
	ret
	.cfi_endproc
.LFE5842:
	.size	_ZNSt6vectorIS_IbSaIbEESaIS1_EEixEm, .-_ZNSt6vectorIS_IbSaIbEESaIS1_EEixEm
	.section	.text._ZNSt6vectorIbSaIbEEixEm,"axG",@progbits,_ZNSt6vectorIbSaIbEEixEm,comdat
	.align	2
	.weak	_ZNSt6vectorIbSaIbEEixEm
	.type	_ZNSt6vectorIbSaIbEEixEm, %function
_ZNSt6vectorIbSaIbEEixEm:
.LFB5843:
	.cfi_startproc
	stp	x29, x30, [sp, -64]!
	.cfi_def_cfa_offset 64
	.cfi_offset 29, -64
	.cfi_offset 30, -56
	mov	x29, sp
	str	x0, [sp, 24]
	str	x1, [sp, 16]
	adrp	x0, :got:__stack_chk_guard
	ldr	x0, [x0, #:got_lo12:__stack_chk_guard]
	ldr	x1, [x0]
	str	x1, [sp, 56]
	mov	x1, 0
	ldr	x0, [sp, 24]
	bl	_ZNSt6vectorIbSaIbEE5beginEv
	stp	x0, x1, [sp, 40]
	ldr	x1, [sp, 16]
	add	x0, sp, 40
	bl	_ZNKSt13_Bit_iteratorixEl
	mov	x2, x0
	mov	x3, x1
	adrp	x0, :got:__stack_chk_guard
	ldr	x0, [x0, #:got_lo12:__stack_chk_guard]
	ldr	x4, [sp, 56]
	ldr	x1, [x0]
	subs	x4, x4, x1
	mov	x1, 0
	beq	.L180
	bl	__stack_chk_fail
.L180:
	mov	x0, x2
	mov	x1, x3
	ldp	x29, x30, [sp], 64
	.cfi_restore 30
	.cfi_restore 29
	.cfi_def_cfa_offset 0
	ret
	.cfi_endproc
.LFE5843:
	.size	_ZNSt6vectorIbSaIbEEixEm, .-_ZNSt6vectorIbSaIbEEixEm
	.section	.text._ZNSt6vectorIiSaIiEEixEm,"axG",@progbits,_ZNSt6vectorIiSaIiEEixEm,comdat
	.align	2
	.weak	_ZNSt6vectorIiSaIiEEixEm
	.type	_ZNSt6vectorIiSaIiEEixEm, %function
_ZNSt6vectorIiSaIiEEixEm:
.LFB5844:
	.cfi_startproc
	sub	sp, sp, #16
	.cfi_def_cfa_offset 16
	str	x0, [sp, 8]
	str	x1, [sp]
	ldr	x0, [sp, 8]
	ldr	x1, [x0]
	ldr	x0, [sp]
	lsl	x0, x0, 2
	add	x0, x1, x0
	add	sp, sp, 16
	.cfi_def_cfa_offset 0
	ret
	.cfi_endproc
.LFE5844:
	.size	_ZNSt6vectorIiSaIiEEixEm, .-_ZNSt6vectorIiSaIiEEixEm
	.section	.text._ZNKSt6vectorIS_IiSaIiEESaIS1_EE4sizeEv,"axG",@progbits,_ZNKSt6vectorIS_IiSaIiEESaIS1_EE4sizeEv,comdat
	.align	2
	.weak	_ZNKSt6vectorIS_IiSaIiEESaIS1_EE4sizeEv
	.type	_ZNKSt6vectorIS_IiSaIiEESaIS1_EE4sizeEv, %function
_ZNKSt6vectorIS_IiSaIiEESaIS1_EE4sizeEv:
.LFB5845:
	.cfi_startproc
	sub	sp, sp, #16
	.cfi_def_cfa_offset 16
	str	x0, [sp, 8]
	ldr	x0, [sp, 8]
	ldr	x1, [x0, 8]
	ldr	x0, [sp, 8]
	ldr	x0, [x0]
	sub	x0, x1, x0
	asr	x1, x0, 3
	mov	x0, -6148914691236517206
	movk	x0, 0xaaab, lsl 0
	mul	x0, x1, x0
	add	sp, sp, 16
	.cfi_def_cfa_offset 0
	ret
	.cfi_endproc
.LFE5845:
	.size	_ZNKSt6vectorIS_IiSaIiEESaIS1_EE4sizeEv, .-_ZNKSt6vectorIS_IiSaIiEESaIS1_EE4sizeEv
	.section	.text._ZNSt6vectorIS_IiSaIiEESaIS1_EEixEm,"axG",@progbits,_ZNSt6vectorIS_IiSaIiEESaIS1_EEixEm,comdat
	.align	2
	.weak	_ZNSt6vectorIS_IiSaIiEESaIS1_EEixEm
	.type	_ZNSt6vectorIS_IiSaIiEESaIS1_EEixEm, %function
_ZNSt6vectorIS_IiSaIiEESaIS1_EEixEm:
.LFB5846:
	.cfi_startproc
	sub	sp, sp, #16
	.cfi_def_cfa_offset 16
	str	x0, [sp, 8]
	str	x1, [sp]
	ldr	x0, [sp, 8]
	ldr	x2, [x0]
	ldr	x1, [sp]
	mov	x0, x1
	lsl	x0, x0, 1
	add	x0, x0, x1
	lsl	x0, x0, 3
	add	x0, x2, x0
	add	sp, sp, 16
	.cfi_def_cfa_offset 0
	ret
	.cfi_endproc
.LFE5846:
	.size	_ZNSt6vectorIS_IiSaIiEESaIS1_EEixEm, .-_ZNSt6vectorIS_IiSaIiEESaIS1_EEixEm
	.section	.text._ZNKSt6vectorIiSaIiEE4sizeEv,"axG",@progbits,_ZNKSt6vectorIiSaIiEE4sizeEv,comdat
	.align	2
	.weak	_ZNKSt6vectorIiSaIiEE4sizeEv
	.type	_ZNKSt6vectorIiSaIiEE4sizeEv, %function
_ZNKSt6vectorIiSaIiEE4sizeEv:
.LFB5847:
	.cfi_startproc
	sub	sp, sp, #16
	.cfi_def_cfa_offset 16
	str	x0, [sp, 8]
	ldr	x0, [sp, 8]
	ldr	x1, [x0, 8]
	ldr	x0, [sp, 8]
	ldr	x0, [x0]
	sub	x0, x1, x0
	asr	x0, x0, 2
	add	sp, sp, 16
	.cfi_def_cfa_offset 0
	ret
	.cfi_endproc
.LFE5847:
	.size	_ZNKSt6vectorIiSaIiEE4sizeEv, .-_ZNKSt6vectorIiSaIiEE4sizeEv
	.section	.text._ZNSaIbEC2Ev,"axG",@progbits,_ZNSaIbEC5Ev,comdat
	.align	2
	.weak	_ZNSaIbEC2Ev
	.type	_ZNSaIbEC2Ev, %function
_ZNSaIbEC2Ev:
.LFB5849:
	.cfi_startproc
	stp	x29, x30, [sp, -32]!
	.cfi_def_cfa_offset 32
	.cfi_offset 29, -32
	.cfi_offset 30, -24
	mov	x29, sp
	str	x0, [sp, 24]
	ldr	x0, [sp, 24]
	bl	_ZN9__gnu_cxx13new_allocatorIbEC2Ev
	nop
	ldp	x29, x30, [sp], 32
	.cfi_restore 30
	.cfi_restore 29
	.cfi_def_cfa_offset 0
	ret
	.cfi_endproc
.LFE5849:
	.size	_ZNSaIbEC2Ev, .-_ZNSaIbEC2Ev
	.weak	_ZNSaIbEC1Ev
	.set	_ZNSaIbEC1Ev,_ZNSaIbEC2Ev
	.section	.text._ZNSaIbED2Ev,"axG",@progbits,_ZNSaIbED5Ev,comdat
	.align	2
	.weak	_ZNSaIbED2Ev
	.type	_ZNSaIbED2Ev, %function
_ZNSaIbED2Ev:
.LFB5852:
	.cfi_startproc
	stp	x29, x30, [sp, -32]!
	.cfi_def_cfa_offset 32
	.cfi_offset 29, -32
	.cfi_offset 30, -24
	mov	x29, sp
	str	x0, [sp, 24]
	ldr	x0, [sp, 24]
	bl	_ZN9__gnu_cxx13new_allocatorIbED2Ev
	nop
	ldp	x29, x30, [sp], 32
	.cfi_restore 30
	.cfi_restore 29
	.cfi_def_cfa_offset 0
	ret
	.cfi_endproc
.LFE5852:
	.size	_ZNSaIbED2Ev, .-_ZNSaIbED2Ev
	.weak	_ZNSaIbED1Ev
	.set	_ZNSaIbED1Ev,_ZNSaIbED2Ev
	.section	.text._ZNSt6vectorIbSaIbEEC2EmRKbRKS0_,"axG",@progbits,_ZNSt6vectorIbSaIbEEC5EmRKbRKS0_,comdat
	.align	2
	.weak	_ZNSt6vectorIbSaIbEEC2EmRKbRKS0_
	.type	_ZNSt6vectorIbSaIbEEC2EmRKbRKS0_, %function
_ZNSt6vectorIbSaIbEEC2EmRKbRKS0_:
.LFB5855:
	.cfi_startproc
	.cfi_personality 0x9b,DW.ref.__gxx_personality_v0
	.cfi_lsda 0x1b,.LLSDA5855
	stp	x29, x30, [sp, -64]!
	.cfi_def_cfa_offset 64
	.cfi_offset 29, -64
	.cfi_offset 30, -56
	mov	x29, sp
	str	x19, [sp, 16]
	.cfi_offset 19, -48
	str	x0, [sp, 56]
	str	x1, [sp, 48]
	str	x2, [sp, 40]
	str	x3, [sp, 32]
	ldr	x0, [sp, 56]
	ldr	x1, [sp, 32]
	bl	_ZNSt13_Bvector_baseISaIbEEC2ERKS0_
	ldr	x1, [sp, 48]
	ldr	x0, [sp, 56]
.LEHB33:
	bl	_ZNSt6vectorIbSaIbEE13_M_initializeEm
.LEHE33:
	ldr	x0, [sp, 40]
	ldrb	w0, [x0]
	mov	w1, w0
	ldr	x0, [sp, 56]
	bl	_ZNSt6vectorIbSaIbEE19_M_initialize_valueEb
	b	.L194
.L193:
	mov	x19, x0
	ldr	x0, [sp, 56]
	bl	_ZNSt13_Bvector_baseISaIbEED2Ev
	mov	x0, x19
.LEHB34:
	bl	_Unwind_Resume
.LEHE34:
.L194:
	ldr	x19, [sp, 16]
	ldp	x29, x30, [sp], 64
	.cfi_restore 30
	.cfi_restore 29
	.cfi_restore 19
	.cfi_def_cfa_offset 0
	ret
	.cfi_endproc
.LFE5855:
	.section	.gcc_except_table
.LLSDA5855:
	.byte	0xff
	.byte	0xff
	.byte	0x1
	.uleb128 .LLSDACSE5855-.LLSDACSB5855
.LLSDACSB5855:
	.uleb128 .LEHB33-.LFB5855
	.uleb128 .LEHE33-.LEHB33
	.uleb128 .L193-.LFB5855
	.uleb128 0
	.uleb128 .LEHB34-.LFB5855
	.uleb128 .LEHE34-.LEHB34
	.uleb128 0
	.uleb128 0
.LLSDACSE5855:
	.section	.text._ZNSt6vectorIbSaIbEEC2EmRKbRKS0_,"axG",@progbits,_ZNSt6vectorIbSaIbEEC5EmRKbRKS0_,comdat
	.size	_ZNSt6vectorIbSaIbEEC2EmRKbRKS0_, .-_ZNSt6vectorIbSaIbEEC2EmRKbRKS0_
	.weak	_ZNSt6vectorIbSaIbEEC1EmRKbRKS0_
	.set	_ZNSt6vectorIbSaIbEEC1EmRKbRKS0_,_ZNSt6vectorIbSaIbEEC2EmRKbRKS0_
	.section	.text._ZNSt6vectorIbSaIbEED2Ev,"axG",@progbits,_ZNSt6vectorIbSaIbEED5Ev,comdat
	.align	2
	.weak	_ZNSt6vectorIbSaIbEED2Ev
	.type	_ZNSt6vectorIbSaIbEED2Ev, %function
_ZNSt6vectorIbSaIbEED2Ev:
.LFB5858:
	.cfi_startproc
	stp	x29, x30, [sp, -32]!
	.cfi_def_cfa_offset 32
	.cfi_offset 29, -32
	.cfi_offset 30, -24
	mov	x29, sp
	str	x0, [sp, 24]
	ldr	x0, [sp, 24]
	bl	_ZNSt13_Bvector_baseISaIbEED2Ev
	nop
	ldp	x29, x30, [sp], 32
	.cfi_restore 30
	.cfi_restore 29
	.cfi_def_cfa_offset 0
	ret
	.cfi_endproc
.LFE5858:
	.size	_ZNSt6vectorIbSaIbEED2Ev, .-_ZNSt6vectorIbSaIbEED2Ev
	.weak	_ZNSt6vectorIbSaIbEED1Ev
	.set	_ZNSt6vectorIbSaIbEED1Ev,_ZNSt6vectorIbSaIbEED2Ev
	.section	.text._ZNSaISt6vectorIbSaIbEEEC2Ev,"axG",@progbits,_ZNSaISt6vectorIbSaIbEEEC5Ev,comdat
	.align	2
	.weak	_ZNSaISt6vectorIbSaIbEEEC2Ev
	.type	_ZNSaISt6vectorIbSaIbEEEC2Ev, %function
_ZNSaISt6vectorIbSaIbEEEC2Ev:
.LFB5861:
	.cfi_startproc
	stp	x29, x30, [sp, -32]!
	.cfi_def_cfa_offset 32
	.cfi_offset 29, -32
	.cfi_offset 30, -24
	mov	x29, sp
	str	x0, [sp, 24]
	ldr	x0, [sp, 24]
	bl	_ZN9__gnu_cxx13new_allocatorISt6vectorIbSaIbEEEC2Ev
	nop
	ldp	x29, x30, [sp], 32
	.cfi_restore 30
	.cfi_restore 29
	.cfi_def_cfa_offset 0
	ret
	.cfi_endproc
.LFE5861:
	.size	_ZNSaISt6vectorIbSaIbEEEC2Ev, .-_ZNSaISt6vectorIbSaIbEEEC2Ev
	.weak	_ZNSaISt6vectorIbSaIbEEEC1Ev
	.set	_ZNSaISt6vectorIbSaIbEEEC1Ev,_ZNSaISt6vectorIbSaIbEEEC2Ev
	.section	.text._ZNSaISt6vectorIbSaIbEEED2Ev,"axG",@progbits,_ZNSaISt6vectorIbSaIbEEED5Ev,comdat
	.align	2
	.weak	_ZNSaISt6vectorIbSaIbEEED2Ev
	.type	_ZNSaISt6vectorIbSaIbEEED2Ev, %function
_ZNSaISt6vectorIbSaIbEEED2Ev:
.LFB5864:
	.cfi_startproc
	stp	x29, x30, [sp, -32]!
	.cfi_def_cfa_offset 32
	.cfi_offset 29, -32
	.cfi_offset 30, -24
	mov	x29, sp
	str	x0, [sp, 24]
	ldr	x0, [sp, 24]
	bl	_ZN9__gnu_cxx13new_allocatorISt6vectorIbSaIbEEED2Ev
	nop
	ldp	x29, x30, [sp], 32
	.cfi_restore 30
	.cfi_restore 29
	.cfi_def_cfa_offset 0
	ret
	.cfi_endproc
.LFE5864:
	.size	_ZNSaISt6vectorIbSaIbEEED2Ev, .-_ZNSaISt6vectorIbSaIbEEED2Ev
	.weak	_ZNSaISt6vectorIbSaIbEEED1Ev
	.set	_ZNSaISt6vectorIbSaIbEEED1Ev,_ZNSaISt6vectorIbSaIbEEED2Ev
	.section	.text._ZNSt6vectorIS_IbSaIbEESaIS1_EEC2EmRKS1_RKS2_,"axG",@progbits,_ZNSt6vectorIS_IbSaIbEESaIS1_EEC5EmRKS1_RKS2_,comdat
	.align	2
	.weak	_ZNSt6vectorIS_IbSaIbEESaIS1_EEC2EmRKS1_RKS2_
	.type	_ZNSt6vectorIS_IbSaIbEESaIS1_EEC2EmRKS1_RKS2_, %function
_ZNSt6vectorIS_IbSaIbEESaIS1_EEC2EmRKS1_RKS2_:
.LFB5867:
	.cfi_startproc
	.cfi_personality 0x9b,DW.ref.__gxx_personality_v0
	.cfi_lsda 0x1b,.LLSDA5867
	stp	x29, x30, [sp, -64]!
	.cfi_def_cfa_offset 64
	.cfi_offset 29, -64
	.cfi_offset 30, -56
	mov	x29, sp
	str	x19, [sp, 16]
	.cfi_offset 19, -48
	str	x0, [sp, 56]
	str	x1, [sp, 48]
	str	x2, [sp, 40]
	str	x3, [sp, 32]
	ldr	x19, [sp, 56]
	ldr	x1, [sp, 32]
	ldr	x0, [sp, 48]
.LEHB35:
	bl	_ZNSt6vectorIS_IbSaIbEESaIS1_EE17_S_check_init_lenEmRKS2_
	ldr	x2, [sp, 32]
	mov	x1, x0
	mov	x0, x19
	bl	_ZNSt12_Vector_baseISt6vectorIbSaIbEESaIS2_EEC2EmRKS3_
.LEHE35:
	ldr	x2, [sp, 40]
	ldr	x1, [sp, 48]
	ldr	x0, [sp, 56]
.LEHB36:
	bl	_ZNSt6vectorIS_IbSaIbEESaIS1_EE18_M_fill_initializeEmRKS1_
.LEHE36:
	b	.L201
.L200:
	mov	x19, x0
	ldr	x0, [sp, 56]
	bl	_ZNSt12_Vector_baseISt6vectorIbSaIbEESaIS2_EED2Ev
	mov	x0, x19
.LEHB37:
	bl	_Unwind_Resume
.LEHE37:
.L201:
	ldr	x19, [sp, 16]
	ldp	x29, x30, [sp], 64
	.cfi_restore 30
	.cfi_restore 29
	.cfi_restore 19
	.cfi_def_cfa_offset 0
	ret
	.cfi_endproc
.LFE5867:
	.section	.gcc_except_table
.LLSDA5867:
	.byte	0xff
	.byte	0xff
	.byte	0x1
	.uleb128 .LLSDACSE5867-.LLSDACSB5867
.LLSDACSB5867:
	.uleb128 .LEHB35-.LFB5867
	.uleb128 .LEHE35-.LEHB35
	.uleb128 0
	.uleb128 0
	.uleb128 .LEHB36-.LFB5867
	.uleb128 .LEHE36-.LEHB36
	.uleb128 .L200-.LFB5867
	.uleb128 0
	.uleb128 .LEHB37-.LFB5867
	.uleb128 .LEHE37-.LEHB37
	.uleb128 0
	.uleb128 0
.LLSDACSE5867:
	.section	.text._ZNSt6vectorIS_IbSaIbEESaIS1_EEC2EmRKS1_RKS2_,"axG",@progbits,_ZNSt6vectorIS_IbSaIbEESaIS1_EEC5EmRKS1_RKS2_,comdat
	.size	_ZNSt6vectorIS_IbSaIbEESaIS1_EEC2EmRKS1_RKS2_, .-_ZNSt6vectorIS_IbSaIbEESaIS1_EEC2EmRKS1_RKS2_
	.weak	_ZNSt6vectorIS_IbSaIbEESaIS1_EEC1EmRKS1_RKS2_
	.set	_ZNSt6vectorIS_IbSaIbEESaIS1_EEC1EmRKS1_RKS2_,_ZNSt6vectorIS_IbSaIbEESaIS1_EEC2EmRKS1_RKS2_
	.section	.text._ZNSt6vectorIS_IbSaIbEESaIS1_EED2Ev,"axG",@progbits,_ZNSt6vectorIS_IbSaIbEESaIS1_EED5Ev,comdat
	.align	2
	.weak	_ZNSt6vectorIS_IbSaIbEESaIS1_EED2Ev
	.type	_ZNSt6vectorIS_IbSaIbEESaIS1_EED2Ev, %function
_ZNSt6vectorIS_IbSaIbEESaIS1_EED2Ev:
.LFB5870:
	.cfi_startproc
	.cfi_personality 0x9b,DW.ref.__gxx_personality_v0
	.cfi_lsda 0x1b,.LLSDA5870
	stp	x29, x30, [sp, -48]!
	.cfi_def_cfa_offset 48
	.cfi_offset 29, -48
	.cfi_offset 30, -40
	mov	x29, sp
	stp	x19, x20, [sp, 16]
	.cfi_offset 19, -32
	.cfi_offset 20, -24
	str	x0, [sp, 40]
	ldr	x0, [sp, 40]
	ldr	x19, [x0]
	ldr	x0, [sp, 40]
	ldr	x20, [x0, 8]
	ldr	x0, [sp, 40]
	bl	_ZNSt12_Vector_baseISt6vectorIbSaIbEESaIS2_EE19_M_get_Tp_allocatorEv
	mov	x2, x0
	mov	x1, x20
	mov	x0, x19
	bl	_ZSt8_DestroyIPSt6vectorIbSaIbEES2_EvT_S4_RSaIT0_E
	ldr	x0, [sp, 40]
	bl	_ZNSt12_Vector_baseISt6vectorIbSaIbEESaIS2_EED2Ev
	nop
	ldp	x19, x20, [sp, 16]
	ldp	x29, x30, [sp], 48
	.cfi_restore 30
	.cfi_restore 29
	.cfi_restore 19
	.cfi_restore 20
	.cfi_def_cfa_offset 0
	ret
	.cfi_endproc
.LFE5870:
	.section	.gcc_except_table
.LLSDA5870:
	.byte	0xff
	.byte	0xff
	.byte	0x1
	.uleb128 .LLSDACSE5870-.LLSDACSB5870
.LLSDACSB5870:
.LLSDACSE5870:
	.section	.text._ZNSt6vectorIS_IbSaIbEESaIS1_EED2Ev,"axG",@progbits,_ZNSt6vectorIS_IbSaIbEESaIS1_EED5Ev,comdat
	.size	_ZNSt6vectorIS_IbSaIbEESaIS1_EED2Ev, .-_ZNSt6vectorIS_IbSaIbEESaIS1_EED2Ev
	.weak	_ZNSt6vectorIS_IbSaIbEESaIS1_EED1Ev
	.set	_ZNSt6vectorIS_IbSaIbEESaIS1_EED1Ev,_ZNSt6vectorIS_IbSaIbEESaIS1_EED2Ev
	.section	.text._ZNSt12_Vector_baseISt6vectorIiSaIiEESaIS2_EE12_Vector_implC2Ev,"axG",@progbits,_ZNSt12_Vector_baseISt6vectorIiSaIiEESaIS2_EE12_Vector_implC5Ev,comdat
	.align	2
	.weak	_ZNSt12_Vector_baseISt6vectorIiSaIiEESaIS2_EE12_Vector_implC2Ev
	.type	_ZNSt12_Vector_baseISt6vectorIiSaIiEESaIS2_EE12_Vector_implC2Ev, %function
_ZNSt12_Vector_baseISt6vectorIiSaIiEESaIS2_EE12_Vector_implC2Ev:
.LFB5873:
	.cfi_startproc
	stp	x29, x30, [sp, -32]!
	.cfi_def_cfa_offset 32
	.cfi_offset 29, -32
	.cfi_offset 30, -24
	mov	x29, sp
	str	x0, [sp, 24]
	ldr	x0, [sp, 24]
	bl	_ZNSaISt6vectorIiSaIiEEEC2Ev
	ldr	x0, [sp, 24]
	bl	_ZNSt12_Vector_baseISt6vectorIiSaIiEESaIS2_EE17_Vector_impl_dataC2Ev
	nop
	ldp	x29, x30, [sp], 32
	.cfi_restore 30
	.cfi_restore 29
	.cfi_def_cfa_offset 0
	ret
	.cfi_endproc
.LFE5873:
	.size	_ZNSt12_Vector_baseISt6vectorIiSaIiEESaIS2_EE12_Vector_implC2Ev, .-_ZNSt12_Vector_baseISt6vectorIiSaIiEESaIS2_EE12_Vector_implC2Ev
	.weak	_ZNSt12_Vector_baseISt6vectorIiSaIiEESaIS2_EE12_Vector_implC1Ev
	.set	_ZNSt12_Vector_baseISt6vectorIiSaIiEESaIS2_EE12_Vector_implC1Ev,_ZNSt12_Vector_baseISt6vectorIiSaIiEESaIS2_EE12_Vector_implC2Ev
	.section	.text._ZNSaISt6vectorIiSaIiEEED2Ev,"axG",@progbits,_ZNSaISt6vectorIiSaIiEEED5Ev,comdat
	.align	2
	.weak	_ZNSaISt6vectorIiSaIiEEED2Ev
	.type	_ZNSaISt6vectorIiSaIiEEED2Ev, %function
_ZNSaISt6vectorIiSaIiEEED2Ev:
.LFB5876:
	.cfi_startproc
	stp	x29, x30, [sp, -32]!
	.cfi_def_cfa_offset 32
	.cfi_offset 29, -32
	.cfi_offset 30, -24
	mov	x29, sp
	str	x0, [sp, 24]
	ldr	x0, [sp, 24]
	bl	_ZN9__gnu_cxx13new_allocatorISt6vectorIiSaIiEEED2Ev
	nop
	ldp	x29, x30, [sp], 32
	.cfi_restore 30
	.cfi_restore 29
	.cfi_def_cfa_offset 0
	ret
	.cfi_endproc
.LFE5876:
	.size	_ZNSaISt6vectorIiSaIiEEED2Ev, .-_ZNSaISt6vectorIiSaIiEEED2Ev
	.weak	_ZNSaISt6vectorIiSaIiEEED1Ev
	.set	_ZNSaISt6vectorIiSaIiEEED1Ev,_ZNSaISt6vectorIiSaIiEEED2Ev
	.section	.text._ZNSt12_Vector_baseISt6vectorIiSaIiEESaIS2_EED2Ev,"axG",@progbits,_ZNSt12_Vector_baseISt6vectorIiSaIiEESaIS2_EED5Ev,comdat
	.align	2
	.weak	_ZNSt12_Vector_baseISt6vectorIiSaIiEESaIS2_EED2Ev
	.type	_ZNSt12_Vector_baseISt6vectorIiSaIiEESaIS2_EED2Ev, %function
_ZNSt12_Vector_baseISt6vectorIiSaIiEESaIS2_EED2Ev:
.LFB5879:
	.cfi_startproc
	.cfi_personality 0x9b,DW.ref.__gxx_personality_v0
	.cfi_lsda 0x1b,.LLSDA5879
	stp	x29, x30, [sp, -32]!
	.cfi_def_cfa_offset 32
	.cfi_offset 29, -32
	.cfi_offset 30, -24
	mov	x29, sp
	str	x0, [sp, 24]
	ldr	x0, [sp, 24]
	ldr	x3, [x0]
	ldr	x0, [sp, 24]
	ldr	x1, [x0, 16]
	ldr	x0, [sp, 24]
	ldr	x0, [x0]
	sub	x0, x1, x0
	asr	x1, x0, 3
	mov	x0, -6148914691236517206
	movk	x0, 0xaaab, lsl 0
	mul	x0, x1, x0
	mov	x2, x0
	mov	x1, x3
	ldr	x0, [sp, 24]
	bl	_ZNSt12_Vector_baseISt6vectorIiSaIiEESaIS2_EE13_M_deallocateEPS2_m
	ldr	x0, [sp, 24]
	bl	_ZNSt12_Vector_baseISt6vectorIiSaIiEESaIS2_EE12_Vector_implD1Ev
	nop
	ldp	x29, x30, [sp], 32
	.cfi_restore 30
	.cfi_restore 29
	.cfi_def_cfa_offset 0
	ret
	.cfi_endproc
.LFE5879:
	.section	.gcc_except_table
.LLSDA5879:
	.byte	0xff
	.byte	0xff
	.byte	0x1
	.uleb128 .LLSDACSE5879-.LLSDACSB5879
.LLSDACSB5879:
.LLSDACSE5879:
	.section	.text._ZNSt12_Vector_baseISt6vectorIiSaIiEESaIS2_EED2Ev,"axG",@progbits,_ZNSt12_Vector_baseISt6vectorIiSaIiEESaIS2_EED5Ev,comdat
	.size	_ZNSt12_Vector_baseISt6vectorIiSaIiEESaIS2_EED2Ev, .-_ZNSt12_Vector_baseISt6vectorIiSaIiEESaIS2_EED2Ev
	.weak	_ZNSt12_Vector_baseISt6vectorIiSaIiEESaIS2_EED1Ev
	.set	_ZNSt12_Vector_baseISt6vectorIiSaIiEESaIS2_EED1Ev,_ZNSt12_Vector_baseISt6vectorIiSaIiEESaIS2_EED2Ev
	.section	.text._ZNSt6vectorIS_IiSaIiEESaIS1_EED2Ev,"axG",@progbits,_ZNSt6vectorIS_IiSaIiEESaIS1_EED5Ev,comdat
	.align	2
	.weak	_ZNSt6vectorIS_IiSaIiEESaIS1_EED2Ev
	.type	_ZNSt6vectorIS_IiSaIiEESaIS1_EED2Ev, %function
_ZNSt6vectorIS_IiSaIiEESaIS1_EED2Ev:
.LFB5882:
	.cfi_startproc
	.cfi_personality 0x9b,DW.ref.__gxx_personality_v0
	.cfi_lsda 0x1b,.LLSDA5882
	stp	x29, x30, [sp, -48]!
	.cfi_def_cfa_offset 48
	.cfi_offset 29, -48
	.cfi_offset 30, -40
	mov	x29, sp
	stp	x19, x20, [sp, 16]
	.cfi_offset 19, -32
	.cfi_offset 20, -24
	str	x0, [sp, 40]
	ldr	x0, [sp, 40]
	ldr	x19, [x0]
	ldr	x0, [sp, 40]
	ldr	x20, [x0, 8]
	ldr	x0, [sp, 40]
	bl	_ZNSt12_Vector_baseISt6vectorIiSaIiEESaIS2_EE19_M_get_Tp_allocatorEv
	mov	x2, x0
	mov	x1, x20
	mov	x0, x19
	bl	_ZSt8_DestroyIPSt6vectorIiSaIiEES2_EvT_S4_RSaIT0_E
	ldr	x0, [sp, 40]
	bl	_ZNSt12_Vector_baseISt6vectorIiSaIiEESaIS2_EED2Ev
	nop
	ldp	x19, x20, [sp, 16]
	ldp	x29, x30, [sp], 48
	.cfi_restore 30
	.cfi_restore 29
	.cfi_restore 19
	.cfi_restore 20
	.cfi_def_cfa_offset 0
	ret
	.cfi_endproc
.LFE5882:
	.section	.gcc_except_table
.LLSDA5882:
	.byte	0xff
	.byte	0xff
	.byte	0x1
	.uleb128 .LLSDACSE5882-.LLSDACSB5882
.LLSDACSB5882:
.LLSDACSE5882:
	.section	.text._ZNSt6vectorIS_IiSaIiEESaIS1_EED2Ev,"axG",@progbits,_ZNSt6vectorIS_IiSaIiEESaIS1_EED5Ev,comdat
	.size	_ZNSt6vectorIS_IiSaIiEESaIS1_EED2Ev, .-_ZNSt6vectorIS_IiSaIiEESaIS1_EED2Ev
	.weak	_ZNSt6vectorIS_IiSaIiEESaIS1_EED1Ev
	.set	_ZNSt6vectorIS_IiSaIiEESaIS1_EED1Ev,_ZNSt6vectorIS_IiSaIiEESaIS1_EED2Ev
	.section	.text._ZNSt6vectorIiSaIiEED2Ev,"axG",@progbits,_ZNSt6vectorIiSaIiEED5Ev,comdat
	.align	2
	.weak	_ZNSt6vectorIiSaIiEED2Ev
	.type	_ZNSt6vectorIiSaIiEED2Ev, %function
_ZNSt6vectorIiSaIiEED2Ev:
.LFB5885:
	.cfi_startproc
	.cfi_personality 0x9b,DW.ref.__gxx_personality_v0
	.cfi_lsda 0x1b,.LLSDA5885
	stp	x29, x30, [sp, -48]!
	.cfi_def_cfa_offset 48
	.cfi_offset 29, -48
	.cfi_offset 30, -40
	mov	x29, sp
	stp	x19, x20, [sp, 16]
	.cfi_offset 19, -32
	.cfi_offset 20, -24
	str	x0, [sp, 40]
	ldr	x0, [sp, 40]
	ldr	x19, [x0]
	ldr	x0, [sp, 40]
	ldr	x20, [x0, 8]
	ldr	x0, [sp, 40]
	bl	_ZNSt12_Vector_baseIiSaIiEE19_M_get_Tp_allocatorEv
	mov	x2, x0
	mov	x1, x20
	mov	x0, x19
	bl	_ZSt8_DestroyIPiiEvT_S1_RSaIT0_E
	ldr	x0, [sp, 40]
	bl	_ZNSt12_Vector_baseIiSaIiEED2Ev
	nop
	ldp	x19, x20, [sp, 16]
	ldp	x29, x30, [sp], 48
	.cfi_restore 30
	.cfi_restore 29
	.cfi_restore 19
	.cfi_restore 20
	.cfi_def_cfa_offset 0
	ret
	.cfi_endproc
.LFE5885:
	.section	.gcc_except_table
.LLSDA5885:
	.byte	0xff
	.byte	0xff
	.byte	0x1
	.uleb128 .LLSDACSE5885-.LLSDACSB5885
.LLSDACSB5885:
.LLSDACSE5885:
	.section	.text._ZNSt6vectorIiSaIiEED2Ev,"axG",@progbits,_ZNSt6vectorIiSaIiEED5Ev,comdat
	.size	_ZNSt6vectorIiSaIiEED2Ev, .-_ZNSt6vectorIiSaIiEED2Ev
	.weak	_ZNSt6vectorIiSaIiEED1Ev
	.set	_ZNSt6vectorIiSaIiEED1Ev,_ZNSt6vectorIiSaIiEED2Ev
	.section	.text._ZNSt6vectorIS_IiSaIiEESaIS1_EE9push_backEOS1_,"axG",@progbits,_ZNSt6vectorIS_IiSaIiEESaIS1_EE9push_backEOS1_,comdat
	.align	2
	.weak	_ZNSt6vectorIS_IiSaIiEESaIS1_EE9push_backEOS1_
	.type	_ZNSt6vectorIS_IiSaIiEESaIS1_EE9push_backEOS1_, %function
_ZNSt6vectorIS_IiSaIiEESaIS1_EE9push_backEOS1_:
.LFB5887:
	.cfi_startproc
	stp	x29, x30, [sp, -32]!
	.cfi_def_cfa_offset 32
	.cfi_offset 29, -32
	.cfi_offset 30, -24
	mov	x29, sp
	str	x0, [sp, 24]
	str	x1, [sp, 16]
	ldr	x0, [sp, 16]
	bl	_ZSt4moveIRSt6vectorIiSaIiEEEONSt16remove_referenceIT_E4typeEOS5_
	mov	x1, x0
	ldr	x0, [sp, 24]
	bl	_ZNSt6vectorIS_IiSaIiEESaIS1_EE12emplace_backIJS1_EEERS1_DpOT_
	nop
	ldp	x29, x30, [sp], 32
	.cfi_restore 30
	.cfi_restore 29
	.cfi_def_cfa_offset 0
	ret
	.cfi_endproc
.LFE5887:
	.size	_ZNSt6vectorIS_IiSaIiEESaIS1_EE9push_backEOS1_, .-_ZNSt6vectorIS_IiSaIiEESaIS1_EE9push_backEOS1_
	.section	.text._ZNSaISt6vectorIiSaIiEEEC2Ev,"axG",@progbits,_ZNSaISt6vectorIiSaIiEEEC5Ev,comdat
	.align	2
	.weak	_ZNSaISt6vectorIiSaIiEEEC2Ev
	.type	_ZNSaISt6vectorIiSaIiEEEC2Ev, %function
_ZNSaISt6vectorIiSaIiEEEC2Ev:
.LFB5892:
	.cfi_startproc
	stp	x29, x30, [sp, -32]!
	.cfi_def_cfa_offset 32
	.cfi_offset 29, -32
	.cfi_offset 30, -24
	mov	x29, sp
	str	x0, [sp, 24]
	ldr	x0, [sp, 24]
	bl	_ZN9__gnu_cxx13new_allocatorISt6vectorIiSaIiEEEC2Ev
	nop
	ldp	x29, x30, [sp], 32
	.cfi_restore 30
	.cfi_restore 29
	.cfi_def_cfa_offset 0
	ret
	.cfi_endproc
.LFE5892:
	.size	_ZNSaISt6vectorIiSaIiEEEC2Ev, .-_ZNSaISt6vectorIiSaIiEEEC2Ev
	.weak	_ZNSaISt6vectorIiSaIiEEEC1Ev
	.set	_ZNSaISt6vectorIiSaIiEEEC1Ev,_ZNSaISt6vectorIiSaIiEEEC2Ev
	.section	.text._ZNSt6vectorIS_IiSaIiEESaIS1_EEC2ESt16initializer_listIS1_ERKS2_,"axG",@progbits,_ZNSt6vectorIS_IiSaIiEESaIS1_EEC5ESt16initializer_listIS1_ERKS2_,comdat
	.align	2
	.weak	_ZNSt6vectorIS_IiSaIiEESaIS1_EEC2ESt16initializer_listIS1_ERKS2_
	.type	_ZNSt6vectorIS_IiSaIiEESaIS1_EEC2ESt16initializer_listIS1_ERKS2_, %function
_ZNSt6vectorIS_IiSaIiEESaIS1_EEC2ESt16initializer_listIS1_ERKS2_:
.LFB5895:
	.cfi_startproc
	.cfi_personality 0x9b,DW.ref.__gxx_personality_v0
	.cfi_lsda 0x1b,.LLSDA5895
	stp	x29, x30, [sp, -80]!
	.cfi_def_cfa_offset 80
	.cfi_offset 29, -80
	.cfi_offset 30, -72
	mov	x29, sp
	stp	x19, x20, [sp, 16]
	.cfi_offset 19, -64
	.cfi_offset 20, -56
	str	x0, [sp, 56]
	stp	x1, x2, [sp, 40]
	str	x3, [sp, 32]
	adrp	x0, :got:__stack_chk_guard
	ldr	x0, [x0, #:got_lo12:__stack_chk_guard]
	ldr	x1, [x0]
	str	x1, [sp, 72]
	mov	x1, 0
	ldr	x0, [sp, 56]
	ldr	x1, [sp, 32]
	bl	_ZNSt12_Vector_baseISt6vectorIiSaIiEESaIS2_EEC2ERKS3_
	add	x0, sp, 40
	bl	_ZNKSt16initializer_listISt6vectorIiSaIiEEE5beginEv
	mov	x19, x0
	add	x0, sp, 40
	bl	_ZNKSt16initializer_listISt6vectorIiSaIiEEE3endEv
	mov	w3, w20
	mov	x2, x0
	mov	x1, x19
	ldr	x0, [sp, 56]
.LEHB38:
	bl	_ZNSt6vectorIS_IiSaIiEESaIS1_EE19_M_range_initializeIPKS1_EEvT_S7_St20forward_iterator_tag
.LEHE38:
	b	.L214
.L213:
	mov	x19, x0
	ldr	x0, [sp, 56]
	bl	_ZNSt12_Vector_baseISt6vectorIiSaIiEESaIS2_EED2Ev
	mov	x0, x19
.LEHB39:
	bl	_Unwind_Resume
.LEHE39:
.L214:
	adrp	x0, :got:__stack_chk_guard
	ldr	x0, [x0, #:got_lo12:__stack_chk_guard]
	ldr	x2, [sp, 72]
	ldr	x1, [x0]
	subs	x2, x2, x1
	mov	x1, 0
	beq	.L212
	bl	__stack_chk_fail
.L212:
	ldp	x19, x20, [sp, 16]
	ldp	x29, x30, [sp], 80
	.cfi_restore 30
	.cfi_restore 29
	.cfi_restore 19
	.cfi_restore 20
	.cfi_def_cfa_offset 0
	ret
	.cfi_endproc
.LFE5895:
	.section	.gcc_except_table
.LLSDA5895:
	.byte	0xff
	.byte	0xff
	.byte	0x1
	.uleb128 .LLSDACSE5895-.LLSDACSB5895
.LLSDACSB5895:
	.uleb128 .LEHB38-.LFB5895
	.uleb128 .LEHE38-.LEHB38
	.uleb128 .L213-.LFB5895
	.uleb128 0
	.uleb128 .LEHB39-.LFB5895
	.uleb128 .LEHE39-.LEHB39
	.uleb128 0
	.uleb128 0
.LLSDACSE5895:
	.section	.text._ZNSt6vectorIS_IiSaIiEESaIS1_EEC2ESt16initializer_listIS1_ERKS2_,"axG",@progbits,_ZNSt6vectorIS_IiSaIiEESaIS1_EEC5ESt16initializer_listIS1_ERKS2_,comdat
	.size	_ZNSt6vectorIS_IiSaIiEESaIS1_EEC2ESt16initializer_listIS1_ERKS2_, .-_ZNSt6vectorIS_IiSaIiEESaIS1_EEC2ESt16initializer_listIS1_ERKS2_
	.weak	_ZNSt6vectorIS_IiSaIiEESaIS1_EEC1ESt16initializer_listIS1_ERKS2_
	.set	_ZNSt6vectorIS_IiSaIiEESaIS1_EEC1ESt16initializer_listIS1_ERKS2_,_ZNSt6vectorIS_IiSaIiEESaIS1_EEC2ESt16initializer_listIS1_ERKS2_
	.section	.text._ZN3dbg9type_nameISt6vectorIS1_IiSaIiEESaIS3_EEEENSt7__cxx1112basic_stringIcSt11char_traitsIcESaIcEEEv,"axG",@progbits,_ZN3dbg9type_nameISt6vectorIS1_IiSaIiEESaIS3_EEEENSt7__cxx1112basic_stringIcSt11char_traitsIcESaIcEEEv,comdat
	.align	2
	.weak	_ZN3dbg9type_nameISt6vectorIS1_IiSaIiEESaIS3_EEEENSt7__cxx1112basic_stringIcSt11char_traitsIcESaIcEEEv
	.type	_ZN3dbg9type_nameISt6vectorIS1_IiSaIiEESaIS3_EEEENSt7__cxx1112basic_stringIcSt11char_traitsIcESaIcEEEv, %function
_ZN3dbg9type_nameISt6vectorIS1_IiSaIiEESaIS3_EEEENSt7__cxx1112basic_stringIcSt11char_traitsIcESaIcEEEv:
.LFB5897:
	.cfi_startproc
	stp	x29, x30, [sp, -80]!
	.cfi_def_cfa_offset 80
	.cfi_offset 29, -80
	.cfi_offset 30, -72
	mov	x29, sp
	str	x19, [sp, 16]
	.cfi_offset 19, -64
	mov	x19, x8
	adrp	x0, :got:__stack_chk_guard
	ldr	x0, [x0, #:got_lo12:__stack_chk_guard]
	ldr	x2, [x0]
	str	x2, [sp, 72]
	mov	x2, 0
	mov	x8, x19
	mov	w0, w1
	bl	_ZN3dbg13get_type_nameISt6vectorIiSaIiEEEENSt7__cxx1112basic_stringIcSt11char_traitsIcESaIcEEENS_8type_tagIS1_IT_SaISB_EEEE
	adrp	x0, :got:__stack_chk_guard
	ldr	x0, [x0, #:got_lo12:__stack_chk_guard]
	ldr	x2, [sp, 72]
	ldr	x1, [x0]
	subs	x2, x2, x1
	mov	x1, 0
	beq	.L217
	bl	__stack_chk_fail
.L217:
	mov	x0, x19
	ldr	x19, [sp, 16]
	ldp	x29, x30, [sp], 80
	.cfi_restore 30
	.cfi_restore 29
	.cfi_restore 19
	.cfi_def_cfa_offset 0
	ret
	.cfi_endproc
.LFE5897:
	.size	_ZN3dbg9type_nameISt6vectorIS1_IiSaIiEESaIS3_EEEENSt7__cxx1112basic_stringIcSt11char_traitsIcESaIcEEEv, .-_ZN3dbg9type_nameISt6vectorIS1_IiSaIiEESaIS3_EEEENSt7__cxx1112basic_stringIcSt11char_traitsIcESaIcEEEv
	.section	.text._ZNKSt16initializer_listIPKcE4sizeEv,"axG",@progbits,_ZNKSt16initializer_listIPKcE4sizeEv,comdat
	.align	2
	.weak	_ZNKSt16initializer_listIPKcE4sizeEv
	.type	_ZNKSt16initializer_listIPKcE4sizeEv, %function
_ZNKSt16initializer_listIPKcE4sizeEv:
.LFB5899:
	.cfi_startproc
	sub	sp, sp, #16
	.cfi_def_cfa_offset 16
	str	x0, [sp, 8]
	ldr	x0, [sp, 8]
	ldr	x0, [x0, 8]
	add	sp, sp, 16
	.cfi_def_cfa_offset 0
	ret
	.cfi_endproc
.LFE5899:
	.size	_ZNKSt16initializer_listIPKcE4sizeEv, .-_ZNKSt16initializer_listIPKcE4sizeEv
	.section	.rodata
	.align	3
.LC16:
	.string	"\033[33m"
	.align	3
.LC17:
	.string	"The number of arguments mismatch, please check unprotected comma"
	.section	.text._ZN3dbg11DebugOutput5printIJRSt6vectorIS2_IiSaIiEESaIS4_EEEEENS_4lastIDpT_E4typeESt16initializer_listIPKcESD_INSt7__cxx1112basic_stringIcSt11char_traitsIcESaIcEEEEDpOS9_,"axG",@progbits,_ZN3dbg11DebugOutput5printIJRSt6vectorIS2_IiSaIiEESaIS4_EEEEENS_4lastIDpT_E4typeESt16initializer_listIPKcESD_INSt7__cxx1112basic_stringIcSt11char_traitsIcESaIcEEEEDpOS9_,comdat
	.align	2
	.weak	_ZN3dbg11DebugOutput5printIJRSt6vectorIS2_IiSaIiEESaIS4_EEEEENS_4lastIDpT_E4typeESt16initializer_listIPKcESD_INSt7__cxx1112basic_stringIcSt11char_traitsIcESaIcEEEEDpOS9_
	.type	_ZN3dbg11DebugOutput5printIJRSt6vectorIS2_IiSaIiEESaIS4_EEEEENS_4lastIDpT_E4typeESt16initializer_listIPKcESD_INSt7__cxx1112basic_stringIcSt11char_traitsIcESaIcEEEEDpOS9_, %function
_ZN3dbg11DebugOutput5printIJRSt6vectorIS2_IiSaIiEESaIS4_EEEEENS_4lastIDpT_E4typeESt16initializer_listIPKcESD_INSt7__cxx1112basic_stringIcSt11char_traitsIcESaIcEEEEDpOS9_:
.LFB5898:
	.cfi_startproc
	stp	x29, x30, [sp, -80]!
	.cfi_def_cfa_offset 80
	.cfi_offset 29, -80
	.cfi_offset 30, -72
	mov	x29, sp
	stp	x19, x20, [sp, 16]
	.cfi_offset 19, -64
	.cfi_offset 20, -56
	str	x0, [sp, 72]
	stp	x1, x2, [sp, 56]
	stp	x3, x4, [sp, 40]
	str	x5, [sp, 32]
	add	x0, sp, 56
	bl	_ZNKSt16initializer_listIPKcE4sizeEv
	cmp	x0, 1
	cset	w0, ne
	and	w0, w0, 255
	cmp	w0, 0
	beq	.L221
	ldr	x0, [sp, 72]
	add	x0, x0, 8
	mov	x1, x0
	adrp	x0, :got:_ZSt4cerr
	ldr	x0, [x0, #:got_lo12:_ZSt4cerr]
	bl	_ZStlsIcSt11char_traitsIcESaIcEERSt13basic_ostreamIT_T0_ES7_RKNSt7__cxx1112basic_stringIS4_S5_T1_EE
	mov	x19, x0
	adrp	x0, .LC16
	add	x1, x0, :lo12:.LC16
	ldr	x0, [sp, 72]
	bl	_ZNK3dbg11DebugOutput4ansiEPKc
	mov	x1, x0
	mov	x0, x19
	bl	_ZStlsISt11char_traitsIcEERSt13basic_ostreamIcT_ES5_PKc
	mov	x2, x0
	adrp	x0, .LC17
	add	x1, x0, :lo12:.LC17
	mov	x0, x2
	bl	_ZStlsISt11char_traitsIcEERSt13basic_ostreamIcT_ES5_PKc
	mov	x19, x0
	adrp	x0, .LC11
	add	x1, x0, :lo12:.LC11
	ldr	x0, [sp, 72]
	bl	_ZNK3dbg11DebugOutput4ansiEPKc
	mov	x1, x0
	mov	x0, x19
	bl	_ZStlsISt11char_traitsIcEERSt13basic_ostreamIcT_ES5_PKc
	mov	x2, x0
	adrp	x0, :got:_ZSt4endlIcSt11char_traitsIcEERSt13basic_ostreamIT_T0_ES6_
	ldr	x1, [x0, #:got_lo12:_ZSt4endlIcSt11char_traitsIcEERSt13basic_ostreamIT_T0_ES6_]
	mov	x0, x2
	bl	_ZNSolsEPFRSoS_E
.L221:
	add	x0, sp, 56
	bl	_ZNKSt16initializer_listIPKcE5beginEv
	mov	x19, x0
	add	x0, sp, 40
	bl	_ZNKSt16initializer_listINSt7__cxx1112basic_stringIcSt11char_traitsIcESaIcEEEE5beginEv
	mov	x20, x0
	ldr	x0, [sp, 32]
	bl	_ZSt7forwardIRSt6vectorIS0_IiSaIiEESaIS2_EEEOT_RNSt16remove_referenceIS6_E4typeE
	mov	x3, x0
	mov	x2, x20
	mov	x1, x19
	ldr	x0, [sp, 72]
	bl	_ZN3dbg11DebugOutput10print_implIRSt6vectorIS2_IiSaIiEESaIS4_EEEEOT_PKPKcPKNSt7__cxx1112basic_stringIcSt11char_traitsIcESaIcEEES9_
	ldp	x19, x20, [sp, 16]
	ldp	x29, x30, [sp], 80
	.cfi_restore 30
	.cfi_restore 29
	.cfi_restore 19
	.cfi_restore 20
	.cfi_def_cfa_offset 0
	ret
	.cfi_endproc
.LFE5898:
	.size	_ZN3dbg11DebugOutput5printIJRSt6vectorIS2_IiSaIiEESaIS4_EEEEENS_4lastIDpT_E4typeESt16initializer_listIPKcESD_INSt7__cxx1112basic_stringIcSt11char_traitsIcESaIcEEEEDpOS9_, .-_ZN3dbg11DebugOutput5printIJRSt6vectorIS2_IiSaIiEESaIS4_EEEEENS_4lastIDpT_E4typeESt16initializer_listIPKcESD_INSt7__cxx1112basic_stringIcSt11char_traitsIcESaIcEEEEDpOS9_
	.section	.text._ZSt4moveIRNSt7__cxx1112basic_stringIcSt11char_traitsIcESaIcEEEEONSt16remove_referenceIT_E4typeEOS8_,"axG",@progbits,_ZSt4moveIRNSt7__cxx1112basic_stringIcSt11char_traitsIcESaIcEEEEONSt16remove_referenceIT_E4typeEOS8_,comdat
	.align	2
	.weak	_ZSt4moveIRNSt7__cxx1112basic_stringIcSt11char_traitsIcESaIcEEEEONSt16remove_referenceIT_E4typeEOS8_
	.type	_ZSt4moveIRNSt7__cxx1112basic_stringIcSt11char_traitsIcESaIcEEEEONSt16remove_referenceIT_E4typeEOS8_, %function
_ZSt4moveIRNSt7__cxx1112basic_stringIcSt11char_traitsIcESaIcEEEEONSt16remove_referenceIT_E4typeEOS8_:
.LFB5974:
	.cfi_startproc
	sub	sp, sp, #16
	.cfi_def_cfa_offset 16
	str	x0, [sp, 8]
	ldr	x0, [sp, 8]
	add	sp, sp, 16
	.cfi_def_cfa_offset 0
	ret
	.cfi_endproc
.LFE5974:
	.size	_ZSt4moveIRNSt7__cxx1112basic_stringIcSt11char_traitsIcESaIcEEEEONSt16remove_referenceIT_E4typeEOS8_, .-_ZSt4moveIRNSt7__cxx1112basic_stringIcSt11char_traitsIcESaIcEEEEONSt16remove_referenceIT_E4typeEOS8_
	.section	.text._ZSt8distanceIPKcENSt15iterator_traitsIT_E15difference_typeES3_S3_,"axG",@progbits,_ZSt8distanceIPKcENSt15iterator_traitsIT_E15difference_typeES3_S3_,comdat
	.align	2
	.weak	_ZSt8distanceIPKcENSt15iterator_traitsIT_E15difference_typeES3_S3_
	.type	_ZSt8distanceIPKcENSt15iterator_traitsIT_E15difference_typeES3_S3_, %function
_ZSt8distanceIPKcENSt15iterator_traitsIT_E15difference_typeES3_S3_:
.LFB5994:
	.cfi_startproc
	stp	x29, x30, [sp, -48]!
	.cfi_def_cfa_offset 48
	.cfi_offset 29, -48
	.cfi_offset 30, -40
	mov	x29, sp
	stp	x19, x20, [sp, 16]
	.cfi_offset 19, -32
	.cfi_offset 20, -24
	str	x0, [sp, 40]
	str	x1, [sp, 32]
	ldr	x19, [sp, 40]
	add	x0, sp, 40
	bl	_ZSt19__iterator_categoryIPKcENSt15iterator_traitsIT_E17iterator_categoryERKS3_
	mov	w2, w20
	ldr	x1, [sp, 32]
	mov	x0, x19
	bl	_ZSt10__distanceIPKcENSt15iterator_traitsIT_E15difference_typeES3_S3_St26random_access_iterator_tag
	ldp	x19, x20, [sp, 16]
	ldp	x29, x30, [sp], 48
	.cfi_restore 30
	.cfi_restore 29
	.cfi_restore 19
	.cfi_restore 20
	.cfi_def_cfa_offset 0
	ret
	.cfi_endproc
.LFE5994:
	.size	_ZSt8distanceIPKcENSt15iterator_traitsIT_E15difference_typeES3_S3_, .-_ZSt8distanceIPKcENSt15iterator_traitsIT_E15difference_typeES3_S3_
	.section	.rodata
	.align	3
.LC18:
	.string	"basic_string::_M_construct null not valid"
	.section	.text._ZNSt7__cxx1112basic_stringIcSt11char_traitsIcESaIcEE12_M_constructIPKcEEvT_S8_St20forward_iterator_tag,"axG",@progbits,_ZNSt7__cxx1112basic_stringIcSt11char_traitsIcESaIcEE12_M_constructIPKcEEvT_S8_St20forward_iterator_tag,comdat
	.align	2
	.weak	_ZNSt7__cxx1112basic_stringIcSt11char_traitsIcESaIcEE12_M_constructIPKcEEvT_S8_St20forward_iterator_tag
	.type	_ZNSt7__cxx1112basic_stringIcSt11char_traitsIcESaIcEE12_M_constructIPKcEEvT_S8_St20forward_iterator_tag, %function
_ZNSt7__cxx1112basic_stringIcSt11char_traitsIcESaIcEE12_M_constructIPKcEEvT_S8_St20forward_iterator_tag:
.LFB5993:
	.cfi_startproc
	.cfi_personality 0x9b,DW.ref.__gxx_personality_v0
	.cfi_lsda 0x1b,.LLSDA5993
	stp	x29, x30, [sp, -80]!
	.cfi_def_cfa_offset 80
	.cfi_offset 29, -80
	.cfi_offset 30, -72
	mov	x29, sp
	str	x19, [sp, 16]
	.cfi_offset 19, -64
	str	x0, [sp, 56]
	str	x1, [sp, 48]
	str	x2, [sp, 40]
	strb	w3, [sp, 32]
	adrp	x0, :got:__stack_chk_guard
	ldr	x0, [x0, #:got_lo12:__stack_chk_guard]
	ldr	x1, [x0]
	str	x1, [sp, 72]
	mov	x1, 0
	ldr	x0, [sp, 48]
	bl	_ZN9__gnu_cxx17__is_null_pointerIKcEEbPT_
	and	w0, w0, 255
	cmp	w0, 0
	beq	.L228
	ldr	x1, [sp, 48]
	ldr	x0, [sp, 40]
	cmp	x1, x0
	beq	.L228
	mov	w0, 1
	b	.L229
.L228:
	mov	w0, 0
.L229:
	cmp	w0, 0
	beq	.L230
	adrp	x0, .LC18
	add	x0, x0, :lo12:.LC18
.LEHB40:
	bl	_ZSt19__throw_logic_errorPKc
.L230:
	ldr	x1, [sp, 40]
	ldr	x0, [sp, 48]
	bl	_ZSt8distanceIPKcENSt15iterator_traitsIT_E15difference_typeES3_S3_
	str	x0, [sp, 64]
	ldr	x0, [sp, 64]
	cmp	x0, 15
	bls	.L231
	add	x0, sp, 64
	mov	x2, 0
	mov	x1, x0
	ldr	x0, [sp, 56]
	bl	_ZNSt7__cxx1112basic_stringIcSt11char_traitsIcESaIcEE9_M_createERmm
	mov	x1, x0
	ldr	x0, [sp, 56]
	bl	_ZNSt7__cxx1112basic_stringIcSt11char_traitsIcESaIcEE7_M_dataEPc
	ldr	x0, [sp, 64]
	mov	x1, x0
	ldr	x0, [sp, 56]
	bl	_ZNSt7__cxx1112basic_stringIcSt11char_traitsIcESaIcEE11_M_capacityEm
.LEHE40:
.L231:
	ldr	x0, [sp, 56]
.LEHB41:
	bl	_ZNKSt7__cxx1112basic_stringIcSt11char_traitsIcESaIcEE7_M_dataEv
.LEHE41:
	ldr	x2, [sp, 40]
	ldr	x1, [sp, 48]
	bl	_ZNSt7__cxx1112basic_stringIcSt11char_traitsIcESaIcEE13_S_copy_charsEPcPKcS7_
	ldr	x0, [sp, 64]
	mov	x1, x0
	ldr	x0, [sp, 56]
.LEHB42:
	bl	_ZNSt7__cxx1112basic_stringIcSt11char_traitsIcESaIcEE13_M_set_lengthEm
.LEHE42:
	nop
	adrp	x0, :got:__stack_chk_guard
	ldr	x0, [x0, #:got_lo12:__stack_chk_guard]
	ldr	x2, [sp, 72]
	ldr	x1, [x0]
	subs	x2, x2, x1
	mov	x1, 0
	beq	.L234
	b	.L237
.L235:
	bl	__cxa_begin_catch
	ldr	x0, [sp, 56]
.LEHB43:
	bl	_ZNSt7__cxx1112basic_stringIcSt11char_traitsIcESaIcEE10_M_disposeEv
	bl	__cxa_rethrow
.LEHE43:
.L236:
	mov	x19, x0
	bl	__cxa_end_catch
	mov	x0, x19
.LEHB44:
	bl	_Unwind_Resume
.LEHE44:
.L237:
	bl	__stack_chk_fail
.L234:
	ldr	x19, [sp, 16]
	ldp	x29, x30, [sp], 80
	.cfi_restore 30
	.cfi_restore 29
	.cfi_restore 19
	.cfi_def_cfa_offset 0
	ret
	.cfi_endproc
.LFE5993:
	.section	.gcc_except_table
	.align	2
.LLSDA5993:
	.byte	0xff
	.byte	0x9b
	.uleb128 .LLSDATT5993-.LLSDATTD5993
.LLSDATTD5993:
	.byte	0x1
	.uleb128 .LLSDACSE5993-.LLSDACSB5993
.LLSDACSB5993:
	.uleb128 .LEHB40-.LFB5993
	.uleb128 .LEHE40-.LEHB40
	.uleb128 0
	.uleb128 0
	.uleb128 .LEHB41-.LFB5993
	.uleb128 .LEHE41-.LEHB41
	.uleb128 .L235-.LFB5993
	.uleb128 0x1
	.uleb128 .LEHB42-.LFB5993
	.uleb128 .LEHE42-.LEHB42
	.uleb128 0
	.uleb128 0
	.uleb128 .LEHB43-.LFB5993
	.uleb128 .LEHE43-.LEHB43
	.uleb128 .L236-.LFB5993
	.uleb128 0
	.uleb128 .LEHB44-.LFB5993
	.uleb128 .LEHE44-.LEHB44
	.uleb128 0
	.uleb128 0
.LLSDACSE5993:
	.byte	0x1
	.byte	0
	.align	2
	.4byte	0

.LLSDATT5993:
	.section	.text._ZNSt7__cxx1112basic_stringIcSt11char_traitsIcESaIcEE12_M_constructIPKcEEvT_S8_St20forward_iterator_tag,"axG",@progbits,_ZNSt7__cxx1112basic_stringIcSt11char_traitsIcESaIcEE12_M_constructIPKcEEvT_S8_St20forward_iterator_tag,comdat
	.size	_ZNSt7__cxx1112basic_stringIcSt11char_traitsIcESaIcEE12_M_constructIPKcEEvT_S8_St20forward_iterator_tag, .-_ZNSt7__cxx1112basic_stringIcSt11char_traitsIcESaIcEE12_M_constructIPKcEEvT_S8_St20forward_iterator_tag
	.section	.text._ZN9__gnu_cxx13new_allocatorIiEC2Ev,"axG",@progbits,_ZN9__gnu_cxx13new_allocatorIiEC5Ev,comdat
	.align	2
	.weak	_ZN9__gnu_cxx13new_allocatorIiEC2Ev
	.type	_ZN9__gnu_cxx13new_allocatorIiEC2Ev, %function
_ZN9__gnu_cxx13new_allocatorIiEC2Ev:
.LFB6062:
	.cfi_startproc
	sub	sp, sp, #16
	.cfi_def_cfa_offset 16
	str	x0, [sp, 8]
	nop
	add	sp, sp, 16
	.cfi_def_cfa_offset 0
	ret
	.cfi_endproc
.LFE6062:
	.size	_ZN9__gnu_cxx13new_allocatorIiEC2Ev, .-_ZN9__gnu_cxx13new_allocatorIiEC2Ev
	.weak	_ZN9__gnu_cxx13new_allocatorIiEC1Ev
	.set	_ZN9__gnu_cxx13new_allocatorIiEC1Ev,_ZN9__gnu_cxx13new_allocatorIiEC2Ev
	.section	.text._ZN9__gnu_cxx13new_allocatorIiED2Ev,"axG",@progbits,_ZN9__gnu_cxx13new_allocatorIiED5Ev,comdat
	.align	2
	.weak	_ZN9__gnu_cxx13new_allocatorIiED2Ev
	.type	_ZN9__gnu_cxx13new_allocatorIiED2Ev, %function
_ZN9__gnu_cxx13new_allocatorIiED2Ev:
.LFB6065:
	.cfi_startproc
	sub	sp, sp, #16
	.cfi_def_cfa_offset 16
	str	x0, [sp, 8]
	nop
	add	sp, sp, 16
	.cfi_def_cfa_offset 0
	ret
	.cfi_endproc
.LFE6065:
	.size	_ZN9__gnu_cxx13new_allocatorIiED2Ev, .-_ZN9__gnu_cxx13new_allocatorIiED2Ev
	.weak	_ZN9__gnu_cxx13new_allocatorIiED1Ev
	.set	_ZN9__gnu_cxx13new_allocatorIiED1Ev,_ZN9__gnu_cxx13new_allocatorIiED2Ev
	.section	.text._ZNSt12_Vector_baseIiSaIiEE12_Vector_implD2Ev,"axG",@progbits,_ZNSt12_Vector_baseIiSaIiEE12_Vector_implD5Ev,comdat
	.align	2
	.weak	_ZNSt12_Vector_baseIiSaIiEE12_Vector_implD2Ev
	.type	_ZNSt12_Vector_baseIiSaIiEE12_Vector_implD2Ev, %function
_ZNSt12_Vector_baseIiSaIiEE12_Vector_implD2Ev:
.LFB6069:
	.cfi_startproc
	stp	x29, x30, [sp, -32]!
	.cfi_def_cfa_offset 32
	.cfi_offset 29, -32
	.cfi_offset 30, -24
	mov	x29, sp
	str	x0, [sp, 24]
	ldr	x0, [sp, 24]
	bl	_ZNSaIiED2Ev
	nop
	ldp	x29, x30, [sp], 32
	.cfi_restore 30
	.cfi_restore 29
	.cfi_def_cfa_offset 0
	ret
	.cfi_endproc
.LFE6069:
	.size	_ZNSt12_Vector_baseIiSaIiEE12_Vector_implD2Ev, .-_ZNSt12_Vector_baseIiSaIiEE12_Vector_implD2Ev
	.weak	_ZNSt12_Vector_baseIiSaIiEE12_Vector_implD1Ev
	.set	_ZNSt12_Vector_baseIiSaIiEE12_Vector_implD1Ev,_ZNSt12_Vector_baseIiSaIiEE12_Vector_implD2Ev
	.section	.text._ZNSt12_Vector_baseIiSaIiEEC2ERKS0_,"axG",@progbits,_ZNSt12_Vector_baseIiSaIiEEC5ERKS0_,comdat
	.align	2
	.weak	_ZNSt12_Vector_baseIiSaIiEEC2ERKS0_
	.type	_ZNSt12_Vector_baseIiSaIiEEC2ERKS0_, %function
_ZNSt12_Vector_baseIiSaIiEEC2ERKS0_:
.LFB6071:
	.cfi_startproc
	stp	x29, x30, [sp, -32]!
	.cfi_def_cfa_offset 32
	.cfi_offset 29, -32
	.cfi_offset 30, -24
	mov	x29, sp
	str	x0, [sp, 24]
	str	x1, [sp, 16]
	ldr	x0, [sp, 24]
	ldr	x1, [sp, 16]
	bl	_ZNSt12_Vector_baseIiSaIiEE12_Vector_implC1ERKS0_
	nop
	ldp	x29, x30, [sp], 32
	.cfi_restore 30
	.cfi_restore 29
	.cfi_def_cfa_offset 0
	ret
	.cfi_endproc
.LFE6071:
	.size	_ZNSt12_Vector_baseIiSaIiEEC2ERKS0_, .-_ZNSt12_Vector_baseIiSaIiEEC2ERKS0_
	.weak	_ZNSt12_Vector_baseIiSaIiEEC1ERKS0_
	.set	_ZNSt12_Vector_baseIiSaIiEEC1ERKS0_,_ZNSt12_Vector_baseIiSaIiEEC2ERKS0_
	.section	.text._ZNSt12_Vector_baseIiSaIiEED2Ev,"axG",@progbits,_ZNSt12_Vector_baseIiSaIiEED5Ev,comdat
	.align	2
	.weak	_ZNSt12_Vector_baseIiSaIiEED2Ev
	.type	_ZNSt12_Vector_baseIiSaIiEED2Ev, %function
_ZNSt12_Vector_baseIiSaIiEED2Ev:
.LFB6074:
	.cfi_startproc
	.cfi_personality 0x9b,DW.ref.__gxx_personality_v0
	.cfi_lsda 0x1b,.LLSDA6074
	stp	x29, x30, [sp, -32]!
	.cfi_def_cfa_offset 32
	.cfi_offset 29, -32
	.cfi_offset 30, -24
	mov	x29, sp
	str	x0, [sp, 24]
	ldr	x0, [sp, 24]
	ldr	x3, [x0]
	ldr	x0, [sp, 24]
	ldr	x1, [x0, 16]
	ldr	x0, [sp, 24]
	ldr	x0, [x0]
	sub	x0, x1, x0
	asr	x0, x0, 2
	mov	x2, x0
	mov	x1, x3
	ldr	x0, [sp, 24]
	bl	_ZNSt12_Vector_baseIiSaIiEE13_M_deallocateEPim
	ldr	x0, [sp, 24]
	bl	_ZNSt12_Vector_baseIiSaIiEE12_Vector_implD1Ev
	nop
	ldp	x29, x30, [sp], 32
	.cfi_restore 30
	.cfi_restore 29
	.cfi_def_cfa_offset 0
	ret
	.cfi_endproc
.LFE6074:
	.section	.gcc_except_table
.LLSDA6074:
	.byte	0xff
	.byte	0xff
	.byte	0x1
	.uleb128 .LLSDACSE6074-.LLSDACSB6074
.LLSDACSB6074:
.LLSDACSE6074:
	.section	.text._ZNSt12_Vector_baseIiSaIiEED2Ev,"axG",@progbits,_ZNSt12_Vector_baseIiSaIiEED5Ev,comdat
	.size	_ZNSt12_Vector_baseIiSaIiEED2Ev, .-_ZNSt12_Vector_baseIiSaIiEED2Ev
	.weak	_ZNSt12_Vector_baseIiSaIiEED1Ev
	.set	_ZNSt12_Vector_baseIiSaIiEED1Ev,_ZNSt12_Vector_baseIiSaIiEED2Ev
	.section	.text._ZNKSt16initializer_listIiE5beginEv,"axG",@progbits,_ZNKSt16initializer_listIiE5beginEv,comdat
	.align	2
	.weak	_ZNKSt16initializer_listIiE5beginEv
	.type	_ZNKSt16initializer_listIiE5beginEv, %function
_ZNKSt16initializer_listIiE5beginEv:
.LFB6076:
	.cfi_startproc
	sub	sp, sp, #16
	.cfi_def_cfa_offset 16
	str	x0, [sp, 8]
	ldr	x0, [sp, 8]
	ldr	x0, [x0]
	add	sp, sp, 16
	.cfi_def_cfa_offset 0
	ret
	.cfi_endproc
.LFE6076:
	.size	_ZNKSt16initializer_listIiE5beginEv, .-_ZNKSt16initializer_listIiE5beginEv
	.section	.text._ZNKSt16initializer_listIiE3endEv,"axG",@progbits,_ZNKSt16initializer_listIiE3endEv,comdat
	.align	2
	.weak	_ZNKSt16initializer_listIiE3endEv
	.type	_ZNKSt16initializer_listIiE3endEv, %function
_ZNKSt16initializer_listIiE3endEv:
.LFB6077:
	.cfi_startproc
	stp	x29, x30, [sp, -48]!
	.cfi_def_cfa_offset 48
	.cfi_offset 29, -48
	.cfi_offset 30, -40
	mov	x29, sp
	str	x19, [sp, 16]
	.cfi_offset 19, -32
	str	x0, [sp, 40]
	ldr	x0, [sp, 40]
	bl	_ZNKSt16initializer_listIiE5beginEv
	mov	x19, x0
	ldr	x0, [sp, 40]
	bl	_ZNKSt16initializer_listIiE4sizeEv
	lsl	x0, x0, 2
	add	x0, x19, x0
	ldr	x19, [sp, 16]
	ldp	x29, x30, [sp], 48
	.cfi_restore 30
	.cfi_restore 29
	.cfi_restore 19
	.cfi_def_cfa_offset 0
	ret
	.cfi_endproc
.LFE6077:
	.size	_ZNKSt16initializer_listIiE3endEv, .-_ZNKSt16initializer_listIiE3endEv
	.section	.text._ZSt8distanceIPKiENSt15iterator_traitsIT_E15difference_typeES3_S3_,"axG",@progbits,_ZSt8distanceIPKiENSt15iterator_traitsIT_E15difference_typeES3_S3_,comdat
	.align	2
	.weak	_ZSt8distanceIPKiENSt15iterator_traitsIT_E15difference_typeES3_S3_
	.type	_ZSt8distanceIPKiENSt15iterator_traitsIT_E15difference_typeES3_S3_, %function
_ZSt8distanceIPKiENSt15iterator_traitsIT_E15difference_typeES3_S3_:
.LFB6079:
	.cfi_startproc
	stp	x29, x30, [sp, -48]!
	.cfi_def_cfa_offset 48
	.cfi_offset 29, -48
	.cfi_offset 30, -40
	mov	x29, sp
	stp	x19, x20, [sp, 16]
	.cfi_offset 19, -32
	.cfi_offset 20, -24
	str	x0, [sp, 40]
	str	x1, [sp, 32]
	ldr	x19, [sp, 40]
	add	x0, sp, 40
	bl	_ZSt19__iterator_categoryIPKiENSt15iterator_traitsIT_E17iterator_categoryERKS3_
	mov	w2, w20
	ldr	x1, [sp, 32]
	mov	x0, x19
	bl	_ZSt10__distanceIPKiENSt15iterator_traitsIT_E15difference_typeES3_S3_St26random_access_iterator_tag
	ldp	x19, x20, [sp, 16]
	ldp	x29, x30, [sp], 48
	.cfi_restore 30
	.cfi_restore 29
	.cfi_restore 19
	.cfi_restore 20
	.cfi_def_cfa_offset 0
	ret
	.cfi_endproc
.LFE6079:
	.size	_ZSt8distanceIPKiENSt15iterator_traitsIT_E15difference_typeES3_S3_, .-_ZSt8distanceIPKiENSt15iterator_traitsIT_E15difference_typeES3_S3_
	.section	.text._ZNSt6vectorIiSaIiEE19_M_range_initializeIPKiEEvT_S5_St20forward_iterator_tag,"axG",@progbits,_ZNSt6vectorIiSaIiEE19_M_range_initializeIPKiEEvT_S5_St20forward_iterator_tag,comdat
	.align	2
	.weak	_ZNSt6vectorIiSaIiEE19_M_range_initializeIPKiEEvT_S5_St20forward_iterator_tag
	.type	_ZNSt6vectorIiSaIiEE19_M_range_initializeIPKiEEvT_S5_St20forward_iterator_tag, %function
_ZNSt6vectorIiSaIiEE19_M_range_initializeIPKiEEvT_S5_St20forward_iterator_tag:
.LFB6078:
	.cfi_startproc
	stp	x29, x30, [sp, -80]!
	.cfi_def_cfa_offset 80
	.cfi_offset 29, -80
	.cfi_offset 30, -72
	mov	x29, sp
	str	x19, [sp, 16]
	.cfi_offset 19, -64
	str	x0, [sp, 56]
	str	x1, [sp, 48]
	str	x2, [sp, 40]
	strb	w3, [sp, 32]
	ldr	x1, [sp, 40]
	ldr	x0, [sp, 48]
	bl	_ZSt8distanceIPKiENSt15iterator_traitsIT_E15difference_typeES3_S3_
	str	x0, [sp, 72]
	ldr	x19, [sp, 56]
	ldr	x0, [sp, 56]
	bl	_ZNSt12_Vector_baseIiSaIiEE19_M_get_Tp_allocatorEv
	mov	x1, x0
	ldr	x0, [sp, 72]
	bl	_ZNSt6vectorIiSaIiEE17_S_check_init_lenEmRKS0_
	mov	x1, x0
	mov	x0, x19
	bl	_ZNSt12_Vector_baseIiSaIiEE11_M_allocateEm
	mov	x1, x0
	ldr	x0, [sp, 56]
	str	x1, [x0]
	ldr	x0, [sp, 56]
	ldr	x1, [x0]
	ldr	x0, [sp, 72]
	lsl	x0, x0, 2
	add	x1, x1, x0
	ldr	x0, [sp, 56]
	str	x1, [x0, 16]
	ldr	x0, [sp, 56]
	ldr	x19, [x0]
	ldr	x0, [sp, 56]
	bl	_ZNSt12_Vector_baseIiSaIiEE19_M_get_Tp_allocatorEv
	mov	x3, x0
	mov	x2, x19
	ldr	x1, [sp, 40]
	ldr	x0, [sp, 48]
	bl	_ZSt22__uninitialized_copy_aIPKiPiiET0_T_S4_S3_RSaIT1_E
	mov	x1, x0
	ldr	x0, [sp, 56]
	str	x1, [x0, 8]
	nop
	ldr	x19, [sp, 16]
	ldp	x29, x30, [sp], 80
	.cfi_restore 30
	.cfi_restore 29
	.cfi_restore 19
	.cfi_def_cfa_offset 0
	ret
	.cfi_endproc
.LFE6078:
	.size	_ZNSt6vectorIiSaIiEE19_M_range_initializeIPKiEEvT_S5_St20forward_iterator_tag, .-_ZNSt6vectorIiSaIiEE19_M_range_initializeIPKiEEvT_S5_St20forward_iterator_tag
	.section	.text._ZNSt6vectorIbSaIbEE5beginEv,"axG",@progbits,_ZNSt6vectorIbSaIbEE5beginEv,comdat
	.align	2
	.weak	_ZNSt6vectorIbSaIbEE5beginEv
	.type	_ZNSt6vectorIbSaIbEE5beginEv, %function
_ZNSt6vectorIbSaIbEE5beginEv:
.LFB6080:
	.cfi_startproc
	stp	x29, x30, [sp, -96]!
	.cfi_def_cfa_offset 96
	.cfi_offset 29, -96
	.cfi_offset 30, -88
	mov	x29, sp
	stp	x20, x21, [sp, 16]
	.cfi_offset 20, -80
	.cfi_offset 21, -72
	str	x0, [sp, 40]
	adrp	x0, :got:__stack_chk_guard
	ldr	x0, [x0, #:got_lo12:__stack_chk_guard]
	ldr	x1, [x0]
	str	x1, [sp, 88]
	mov	x1, 0
	ldr	x0, [sp, 40]
	ldr	x1, [x0]
	add	x0, sp, 56
	mov	w2, 0
	bl	_ZNSt13_Bit_iteratorC1EPmj
	ldp	x0, x1, [sp, 56]
	stp	x0, x1, [sp, 72]
	ldr	x1, [sp, 72]
	ldr	x0, [sp, 80]
	mov	x20, x1
	mov	x21, x0
	mov	x2, x20
	mov	x3, x21
	adrp	x0, :got:__stack_chk_guard
	ldr	x0, [x0, #:got_lo12:__stack_chk_guard]
	ldr	x4, [sp, 88]
	ldr	x1, [x0]
	subs	x4, x4, x1
	mov	x1, 0
	beq	.L252
	bl	__stack_chk_fail
.L252:
	mov	x0, x2
	mov	x1, x3
	ldp	x20, x21, [sp, 16]
	ldp	x29, x30, [sp], 96
	.cfi_restore 30
	.cfi_restore 29
	.cfi_restore 20
	.cfi_restore 21
	.cfi_def_cfa_offset 0
	ret
	.cfi_endproc
.LFE6080:
	.size	_ZNSt6vectorIbSaIbEE5beginEv, .-_ZNSt6vectorIbSaIbEE5beginEv
	.section	.text._ZN9__gnu_cxx13new_allocatorIbEC2Ev,"axG",@progbits,_ZN9__gnu_cxx13new_allocatorIbEC5Ev,comdat
	.align	2
	.weak	_ZN9__gnu_cxx13new_allocatorIbEC2Ev
	.type	_ZN9__gnu_cxx13new_allocatorIbEC2Ev, %function
_ZN9__gnu_cxx13new_allocatorIbEC2Ev:
.LFB6082:
	.cfi_startproc
	sub	sp, sp, #16
	.cfi_def_cfa_offset 16
	str	x0, [sp, 8]
	nop
	add	sp, sp, 16
	.cfi_def_cfa_offset 0
	ret
	.cfi_endproc
.LFE6082:
	.size	_ZN9__gnu_cxx13new_allocatorIbEC2Ev, .-_ZN9__gnu_cxx13new_allocatorIbEC2Ev
	.weak	_ZN9__gnu_cxx13new_allocatorIbEC1Ev
	.set	_ZN9__gnu_cxx13new_allocatorIbEC1Ev,_ZN9__gnu_cxx13new_allocatorIbEC2Ev
	.section	.text._ZN9__gnu_cxx13new_allocatorIbED2Ev,"axG",@progbits,_ZN9__gnu_cxx13new_allocatorIbED5Ev,comdat
	.align	2
	.weak	_ZN9__gnu_cxx13new_allocatorIbED2Ev
	.type	_ZN9__gnu_cxx13new_allocatorIbED2Ev, %function
_ZN9__gnu_cxx13new_allocatorIbED2Ev:
.LFB6085:
	.cfi_startproc
	sub	sp, sp, #16
	.cfi_def_cfa_offset 16
	str	x0, [sp, 8]
	nop
	add	sp, sp, 16
	.cfi_def_cfa_offset 0
	ret
	.cfi_endproc
.LFE6085:
	.size	_ZN9__gnu_cxx13new_allocatorIbED2Ev, .-_ZN9__gnu_cxx13new_allocatorIbED2Ev
	.weak	_ZN9__gnu_cxx13new_allocatorIbED1Ev
	.set	_ZN9__gnu_cxx13new_allocatorIbED1Ev,_ZN9__gnu_cxx13new_allocatorIbED2Ev
	.section	.text._ZNSt13_Bvector_baseISaIbEE13_Bvector_implD2Ev,"axG",@progbits,_ZNSt13_Bvector_baseISaIbEE13_Bvector_implD5Ev,comdat
	.align	2
	.weak	_ZNSt13_Bvector_baseISaIbEE13_Bvector_implD2Ev
	.type	_ZNSt13_Bvector_baseISaIbEE13_Bvector_implD2Ev, %function
_ZNSt13_Bvector_baseISaIbEE13_Bvector_implD2Ev:
.LFB6089:
	.cfi_startproc
	stp	x29, x30, [sp, -32]!
	.cfi_def_cfa_offset 32
	.cfi_offset 29, -32
	.cfi_offset 30, -24
	mov	x29, sp
	str	x0, [sp, 24]
	ldr	x0, [sp, 24]
	bl	_ZNSaImED2Ev
	nop
	ldp	x29, x30, [sp], 32
	.cfi_restore 30
	.cfi_restore 29
	.cfi_def_cfa_offset 0
	ret
	.cfi_endproc
.LFE6089:
	.size	_ZNSt13_Bvector_baseISaIbEE13_Bvector_implD2Ev, .-_ZNSt13_Bvector_baseISaIbEE13_Bvector_implD2Ev
	.weak	_ZNSt13_Bvector_baseISaIbEE13_Bvector_implD1Ev
	.set	_ZNSt13_Bvector_baseISaIbEE13_Bvector_implD1Ev,_ZNSt13_Bvector_baseISaIbEE13_Bvector_implD2Ev
	.section	.text._ZNSt13_Bvector_baseISaIbEEC2ERKS0_,"axG",@progbits,_ZNSt13_Bvector_baseISaIbEEC5ERKS0_,comdat
	.align	2
	.weak	_ZNSt13_Bvector_baseISaIbEEC2ERKS0_
	.type	_ZNSt13_Bvector_baseISaIbEEC2ERKS0_, %function
_ZNSt13_Bvector_baseISaIbEEC2ERKS0_:
.LFB6091:
	.cfi_startproc
	stp	x29, x30, [sp, -64]!
	.cfi_def_cfa_offset 64
	.cfi_offset 29, -64
	.cfi_offset 30, -56
	mov	x29, sp
	str	x19, [sp, 16]
	.cfi_offset 19, -48
	str	x0, [sp, 40]
	str	x1, [sp, 32]
	adrp	x0, :got:__stack_chk_guard
	ldr	x0, [x0, #:got_lo12:__stack_chk_guard]
	ldr	x1, [x0]
	str	x1, [sp, 56]
	mov	x1, 0
	ldr	x19, [sp, 40]
	add	x0, sp, 48
	ldr	x1, [sp, 32]
	bl	_ZNSaImEC1IbEERKSaIT_E
	add	x0, sp, 48
	mov	x1, x0
	mov	x0, x19
	bl	_ZNSt13_Bvector_baseISaIbEE13_Bvector_implC1ERKSaImE
	add	x0, sp, 48
	bl	_ZNSaImED1Ev
	nop
	adrp	x0, :got:__stack_chk_guard
	ldr	x0, [x0, #:got_lo12:__stack_chk_guard]
	ldr	x2, [sp, 56]
	ldr	x1, [x0]
	subs	x2, x2, x1
	mov	x1, 0
	beq	.L257
	bl	__stack_chk_fail
.L257:
	ldr	x19, [sp, 16]
	ldp	x29, x30, [sp], 64
	.cfi_restore 30
	.cfi_restore 29
	.cfi_restore 19
	.cfi_def_cfa_offset 0
	ret
	.cfi_endproc
.LFE6091:
	.size	_ZNSt13_Bvector_baseISaIbEEC2ERKS0_, .-_ZNSt13_Bvector_baseISaIbEEC2ERKS0_
	.weak	_ZNSt13_Bvector_baseISaIbEEC1ERKS0_
	.set	_ZNSt13_Bvector_baseISaIbEEC1ERKS0_,_ZNSt13_Bvector_baseISaIbEEC2ERKS0_
	.section	.text._ZNSt13_Bvector_baseISaIbEED2Ev,"axG",@progbits,_ZNSt13_Bvector_baseISaIbEED5Ev,comdat
	.align	2
	.weak	_ZNSt13_Bvector_baseISaIbEED2Ev
	.type	_ZNSt13_Bvector_baseISaIbEED2Ev, %function
_ZNSt13_Bvector_baseISaIbEED2Ev:
.LFB6094:
	.cfi_startproc
	.cfi_personality 0x9b,DW.ref.__gxx_personality_v0
	.cfi_lsda 0x1b,.LLSDA6094
	stp	x29, x30, [sp, -32]!
	.cfi_def_cfa_offset 32
	.cfi_offset 29, -32
	.cfi_offset 30, -24
	mov	x29, sp
	str	x0, [sp, 24]
	ldr	x0, [sp, 24]
	bl	_ZNSt13_Bvector_baseISaIbEE13_M_deallocateEv
	ldr	x0, [sp, 24]
	bl	_ZNSt13_Bvector_baseISaIbEE13_Bvector_implD1Ev
	nop
	ldp	x29, x30, [sp], 32
	.cfi_restore 30
	.cfi_restore 29
	.cfi_def_cfa_offset 0
	ret
	.cfi_endproc
.LFE6094:
	.section	.gcc_except_table
.LLSDA6094:
	.byte	0xff
	.byte	0xff
	.byte	0x1
	.uleb128 .LLSDACSE6094-.LLSDACSB6094
.LLSDACSB6094:
.LLSDACSE6094:
	.section	.text._ZNSt13_Bvector_baseISaIbEED2Ev,"axG",@progbits,_ZNSt13_Bvector_baseISaIbEED5Ev,comdat
	.size	_ZNSt13_Bvector_baseISaIbEED2Ev, .-_ZNSt13_Bvector_baseISaIbEED2Ev
	.weak	_ZNSt13_Bvector_baseISaIbEED1Ev
	.set	_ZNSt13_Bvector_baseISaIbEED1Ev,_ZNSt13_Bvector_baseISaIbEED2Ev
	.section	.text._ZNSt6vectorIbSaIbEE13_M_initializeEm,"axG",@progbits,_ZNSt6vectorIbSaIbEE13_M_initializeEm,comdat
	.align	2
	.weak	_ZNSt6vectorIbSaIbEE13_M_initializeEm
	.type	_ZNSt6vectorIbSaIbEE13_M_initializeEm, %function
_ZNSt6vectorIbSaIbEE13_M_initializeEm:
.LFB6096:
	.cfi_startproc
	stp	x29, x30, [sp, -80]!
	.cfi_def_cfa_offset 80
	.cfi_offset 29, -80
	.cfi_offset 30, -72
	mov	x29, sp
	str	x0, [sp, 24]
	str	x1, [sp, 16]
	adrp	x0, :got:__stack_chk_guard
	ldr	x0, [x0, #:got_lo12:__stack_chk_guard]
	ldr	x1, [x0]
	str	x1, [sp, 72]
	mov	x1, 0
	ldr	x0, [sp, 16]
	cmp	x0, 0
	beq	.L262
	ldr	x0, [sp, 24]
	ldr	x1, [sp, 16]
	bl	_ZNSt13_Bvector_baseISaIbEE11_M_allocateEm
	str	x0, [sp, 32]
	ldr	x0, [sp, 16]
	bl	_ZNSt13_Bvector_baseISaIbEE8_S_nwordEm
	lsl	x0, x0, 3
	ldr	x1, [sp, 32]
	add	x1, x1, x0
	ldr	x0, [sp, 24]
	str	x1, [x0, 32]
	ldr	x0, [sp, 32]
	bl	_ZSt11__addressofImEPT_RS0_
	mov	x1, x0
	add	x0, sp, 40
	mov	w2, 0
	bl	_ZNSt13_Bit_iteratorC1EPmj
	ldr	x0, [sp, 24]
	mov	x1, x0
	add	x0, sp, 40
	ldr	x2, [x0]
	str	x2, [x1]
	ldr	w0, [x0, 8]
	str	w0, [x1, 8]
	ldr	x1, [sp, 16]
	add	x0, sp, 40
	bl	_ZStplRKSt13_Bit_iteratorl
	stp	x0, x1, [sp, 56]
	ldr	x0, [sp, 24]
	add	x0, x0, 16
	mov	x1, x0
	add	x0, sp, 56
	ldr	x2, [x0]
	str	x2, [x1]
	ldr	w0, [x0, 8]
	str	w0, [x1, 8]
.L262:
	nop
	adrp	x0, :got:__stack_chk_guard
	ldr	x0, [x0, #:got_lo12:__stack_chk_guard]
	ldr	x2, [sp, 72]
	ldr	x1, [x0]
	subs	x2, x2, x1
	mov	x1, 0
	beq	.L261
	bl	__stack_chk_fail
.L261:
	ldp	x29, x30, [sp], 80
	.cfi_restore 30
	.cfi_restore 29
	.cfi_def_cfa_offset 0
	ret
	.cfi_endproc
.LFE6096:
	.size	_ZNSt6vectorIbSaIbEE13_M_initializeEm, .-_ZNSt6vectorIbSaIbEE13_M_initializeEm
	.section	.text._ZNSt6vectorIbSaIbEE19_M_initialize_valueEb,"axG",@progbits,_ZNSt6vectorIbSaIbEE19_M_initialize_valueEb,comdat
	.align	2
	.weak	_ZNSt6vectorIbSaIbEE19_M_initialize_valueEb
	.type	_ZNSt6vectorIbSaIbEE19_M_initialize_valueEb, %function
_ZNSt6vectorIbSaIbEE19_M_initialize_valueEb:
.LFB6097:
	.cfi_startproc
	stp	x29, x30, [sp, -64]!
	.cfi_def_cfa_offset 64
	.cfi_offset 29, -64
	.cfi_offset 30, -56
	mov	x29, sp
	str	x19, [sp, 16]
	.cfi_offset 19, -48
	str	x0, [sp, 40]
	strb	w1, [sp, 39]
	ldr	x0, [sp, 40]
	ldr	x0, [x0]
	str	x0, [sp, 56]
	ldr	x0, [sp, 56]
	cmp	x0, 0
	beq	.L267
	ldrb	w0, [sp, 39]
	cmp	w0, 0
	beq	.L265
	mov	w19, -1
	b	.L266
.L265:
	mov	w19, 0
.L266:
	ldr	x0, [sp, 40]
	bl	_ZNKSt13_Bvector_baseISaIbEE13_Bvector_impl11_M_end_addrEv
	mov	x1, x0
	ldr	x0, [sp, 56]
	sub	x0, x1, x0
	mov	x2, x0
	mov	w1, w19
	ldr	x0, [sp, 56]
	bl	memset
.L267:
	nop
	ldr	x19, [sp, 16]
	ldp	x29, x30, [sp], 64
	.cfi_restore 30
	.cfi_restore 29
	.cfi_restore 19
	.cfi_def_cfa_offset 0
	ret
	.cfi_endproc
.LFE6097:
	.size	_ZNSt6vectorIbSaIbEE19_M_initialize_valueEb, .-_ZNSt6vectorIbSaIbEE19_M_initialize_valueEb
	.section	.text._ZN9__gnu_cxx13new_allocatorISt6vectorIbSaIbEEEC2Ev,"axG",@progbits,_ZN9__gnu_cxx13new_allocatorISt6vectorIbSaIbEEEC5Ev,comdat
	.align	2
	.weak	_ZN9__gnu_cxx13new_allocatorISt6vectorIbSaIbEEEC2Ev
	.type	_ZN9__gnu_cxx13new_allocatorISt6vectorIbSaIbEEEC2Ev, %function
_ZN9__gnu_cxx13new_allocatorISt6vectorIbSaIbEEEC2Ev:
.LFB6099:
	.cfi_startproc
	sub	sp, sp, #16
	.cfi_def_cfa_offset 16
	str	x0, [sp, 8]
	nop
	add	sp, sp, 16
	.cfi_def_cfa_offset 0
	ret
	.cfi_endproc
.LFE6099:
	.size	_ZN9__gnu_cxx13new_allocatorISt6vectorIbSaIbEEEC2Ev, .-_ZN9__gnu_cxx13new_allocatorISt6vectorIbSaIbEEEC2Ev
	.weak	_ZN9__gnu_cxx13new_allocatorISt6vectorIbSaIbEEEC1Ev
	.set	_ZN9__gnu_cxx13new_allocatorISt6vectorIbSaIbEEEC1Ev,_ZN9__gnu_cxx13new_allocatorISt6vectorIbSaIbEEEC2Ev
	.section	.text._ZN9__gnu_cxx13new_allocatorISt6vectorIbSaIbEEED2Ev,"axG",@progbits,_ZN9__gnu_cxx13new_allocatorISt6vectorIbSaIbEEED5Ev,comdat
	.align	2
	.weak	_ZN9__gnu_cxx13new_allocatorISt6vectorIbSaIbEEED2Ev
	.type	_ZN9__gnu_cxx13new_allocatorISt6vectorIbSaIbEEED2Ev, %function
_ZN9__gnu_cxx13new_allocatorISt6vectorIbSaIbEEED2Ev:
.LFB6102:
	.cfi_startproc
	sub	sp, sp, #16
	.cfi_def_cfa_offset 16
	str	x0, [sp, 8]
	nop
	add	sp, sp, 16
	.cfi_def_cfa_offset 0
	ret
	.cfi_endproc
.LFE6102:
	.size	_ZN9__gnu_cxx13new_allocatorISt6vectorIbSaIbEEED2Ev, .-_ZN9__gnu_cxx13new_allocatorISt6vectorIbSaIbEEED2Ev
	.weak	_ZN9__gnu_cxx13new_allocatorISt6vectorIbSaIbEEED1Ev
	.set	_ZN9__gnu_cxx13new_allocatorISt6vectorIbSaIbEEED1Ev,_ZN9__gnu_cxx13new_allocatorISt6vectorIbSaIbEEED2Ev
	.section	.rodata
	.align	3
.LC19:
	.string	"cannot create std::vector larger than max_size()"
	.section	.text._ZNSt6vectorIS_IbSaIbEESaIS1_EE17_S_check_init_lenEmRKS2_,"axG",@progbits,_ZNSt6vectorIS_IbSaIbEESaIS1_EE17_S_check_init_lenEmRKS2_,comdat
	.align	2
	.weak	_ZNSt6vectorIS_IbSaIbEESaIS1_EE17_S_check_init_lenEmRKS2_
	.type	_ZNSt6vectorIS_IbSaIbEESaIS1_EE17_S_check_init_lenEmRKS2_, %function
_ZNSt6vectorIS_IbSaIbEESaIS1_EE17_S_check_init_lenEmRKS2_:
.LFB6104:
	.cfi_startproc
	stp	x29, x30, [sp, -64]!
	.cfi_def_cfa_offset 64
	.cfi_offset 29, -64
	.cfi_offset 30, -56
	mov	x29, sp
	str	x19, [sp, 16]
	.cfi_offset 19, -48
	str	x0, [sp, 40]
	str	x1, [sp, 32]
	adrp	x0, :got:__stack_chk_guard
	ldr	x0, [x0, #:got_lo12:__stack_chk_guard]
	ldr	x1, [x0]
	str	x1, [sp, 56]
	mov	x1, 0
	add	x0, sp, 48
	ldr	x1, [sp, 32]
	bl	_ZNSaISt6vectorIbSaIbEEEC1ERKS2_
	add	x0, sp, 48
	bl	_ZNSt6vectorIS_IbSaIbEESaIS1_EE11_S_max_sizeERKS2_
	mov	x1, x0
	ldr	x0, [sp, 40]
	cmp	x0, x1
	cset	w0, hi
	and	w19, w0, 255
	add	x0, sp, 48
	bl	_ZNSaISt6vectorIbSaIbEEED1Ev
	cmp	w19, 0
	beq	.L271
	adrp	x0, .LC19
	add	x0, x0, :lo12:.LC19
	bl	_ZSt20__throw_length_errorPKc
.L271:
	ldr	x0, [sp, 40]
	mov	x1, x0
	adrp	x0, :got:__stack_chk_guard
	ldr	x0, [x0, #:got_lo12:__stack_chk_guard]
	ldr	x3, [sp, 56]
	ldr	x2, [x0]
	subs	x3, x3, x2
	mov	x2, 0
	beq	.L273
	bl	__stack_chk_fail
.L273:
	mov	x0, x1
	ldr	x19, [sp, 16]
	ldp	x29, x30, [sp], 64
	.cfi_restore 30
	.cfi_restore 29
	.cfi_restore 19
	.cfi_def_cfa_offset 0
	ret
	.cfi_endproc
.LFE6104:
	.size	_ZNSt6vectorIS_IbSaIbEESaIS1_EE17_S_check_init_lenEmRKS2_, .-_ZNSt6vectorIS_IbSaIbEESaIS1_EE17_S_check_init_lenEmRKS2_
	.section	.text._ZNSt12_Vector_baseISt6vectorIbSaIbEESaIS2_EE12_Vector_implD2Ev,"axG",@progbits,_ZNSt12_Vector_baseISt6vectorIbSaIbEESaIS2_EE12_Vector_implD5Ev,comdat
	.align	2
	.weak	_ZNSt12_Vector_baseISt6vectorIbSaIbEESaIS2_EE12_Vector_implD2Ev
	.type	_ZNSt12_Vector_baseISt6vectorIbSaIbEESaIS2_EE12_Vector_implD2Ev, %function
_ZNSt12_Vector_baseISt6vectorIbSaIbEESaIS2_EE12_Vector_implD2Ev:
.LFB6107:
	.cfi_startproc
	stp	x29, x30, [sp, -32]!
	.cfi_def_cfa_offset 32
	.cfi_offset 29, -32
	.cfi_offset 30, -24
	mov	x29, sp
	str	x0, [sp, 24]
	ldr	x0, [sp, 24]
	bl	_ZNSaISt6vectorIbSaIbEEED2Ev
	nop
	ldp	x29, x30, [sp], 32
	.cfi_restore 30
	.cfi_restore 29
	.cfi_def_cfa_offset 0
	ret
	.cfi_endproc
.LFE6107:
	.size	_ZNSt12_Vector_baseISt6vectorIbSaIbEESaIS2_EE12_Vector_implD2Ev, .-_ZNSt12_Vector_baseISt6vectorIbSaIbEESaIS2_EE12_Vector_implD2Ev
	.weak	_ZNSt12_Vector_baseISt6vectorIbSaIbEESaIS2_EE12_Vector_implD1Ev
	.set	_ZNSt12_Vector_baseISt6vectorIbSaIbEESaIS2_EE12_Vector_implD1Ev,_ZNSt12_Vector_baseISt6vectorIbSaIbEESaIS2_EE12_Vector_implD2Ev
	.section	.text._ZNSt12_Vector_baseISt6vectorIbSaIbEESaIS2_EEC2EmRKS3_,"axG",@progbits,_ZNSt12_Vector_baseISt6vectorIbSaIbEESaIS2_EEC5EmRKS3_,comdat
	.align	2
	.weak	_ZNSt12_Vector_baseISt6vectorIbSaIbEESaIS2_EEC2EmRKS3_
	.type	_ZNSt12_Vector_baseISt6vectorIbSaIbEESaIS2_EEC2EmRKS3_, %function
_ZNSt12_Vector_baseISt6vectorIbSaIbEESaIS2_EEC2EmRKS3_:
.LFB6109:
	.cfi_startproc
	.cfi_personality 0x9b,DW.ref.__gxx_personality_v0
	.cfi_lsda 0x1b,.LLSDA6109
	stp	x29, x30, [sp, -64]!
	.cfi_def_cfa_offset 64
	.cfi_offset 29, -64
	.cfi_offset 30, -56
	mov	x29, sp
	str	x19, [sp, 16]
	.cfi_offset 19, -48
	str	x0, [sp, 56]
	str	x1, [sp, 48]
	str	x2, [sp, 40]
	ldr	x0, [sp, 56]
	ldr	x1, [sp, 40]
	bl	_ZNSt12_Vector_baseISt6vectorIbSaIbEESaIS2_EE12_Vector_implC1ERKS3_
	ldr	x1, [sp, 48]
	ldr	x0, [sp, 56]
.LEHB45:
	bl	_ZNSt12_Vector_baseISt6vectorIbSaIbEESaIS2_EE17_M_create_storageEm
.LEHE45:
	b	.L278
.L277:
	mov	x19, x0
	ldr	x0, [sp, 56]
	bl	_ZNSt12_Vector_baseISt6vectorIbSaIbEESaIS2_EE12_Vector_implD1Ev
	mov	x0, x19
.LEHB46:
	bl	_Unwind_Resume
.LEHE46:
.L278:
	ldr	x19, [sp, 16]
	ldp	x29, x30, [sp], 64
	.cfi_restore 30
	.cfi_restore 29
	.cfi_restore 19
	.cfi_def_cfa_offset 0
	ret
	.cfi_endproc
.LFE6109:
	.section	.gcc_except_table
.LLSDA6109:
	.byte	0xff
	.byte	0xff
	.byte	0x1
	.uleb128 .LLSDACSE6109-.LLSDACSB6109
.LLSDACSB6109:
	.uleb128 .LEHB45-.LFB6109
	.uleb128 .LEHE45-.LEHB45
	.uleb128 .L277-.LFB6109
	.uleb128 0
	.uleb128 .LEHB46-.LFB6109
	.uleb128 .LEHE46-.LEHB46
	.uleb128 0
	.uleb128 0
.LLSDACSE6109:
	.section	.text._ZNSt12_Vector_baseISt6vectorIbSaIbEESaIS2_EEC2EmRKS3_,"axG",@progbits,_ZNSt12_Vector_baseISt6vectorIbSaIbEESaIS2_EEC5EmRKS3_,comdat
	.size	_ZNSt12_Vector_baseISt6vectorIbSaIbEESaIS2_EEC2EmRKS3_, .-_ZNSt12_Vector_baseISt6vectorIbSaIbEESaIS2_EEC2EmRKS3_
	.weak	_ZNSt12_Vector_baseISt6vectorIbSaIbEESaIS2_EEC1EmRKS3_
	.set	_ZNSt12_Vector_baseISt6vectorIbSaIbEESaIS2_EEC1EmRKS3_,_ZNSt12_Vector_baseISt6vectorIbSaIbEESaIS2_EEC2EmRKS3_
	.section	.text._ZNSt12_Vector_baseISt6vectorIbSaIbEESaIS2_EED2Ev,"axG",@progbits,_ZNSt12_Vector_baseISt6vectorIbSaIbEESaIS2_EED5Ev,comdat
	.align	2
	.weak	_ZNSt12_Vector_baseISt6vectorIbSaIbEESaIS2_EED2Ev
	.type	_ZNSt12_Vector_baseISt6vectorIbSaIbEESaIS2_EED2Ev, %function
_ZNSt12_Vector_baseISt6vectorIbSaIbEESaIS2_EED2Ev:
.LFB6112:
	.cfi_startproc
	.cfi_personality 0x9b,DW.ref.__gxx_personality_v0
	.cfi_lsda 0x1b,.LLSDA6112
	stp	x29, x30, [sp, -32]!
	.cfi_def_cfa_offset 32
	.cfi_offset 29, -32
	.cfi_offset 30, -24
	mov	x29, sp
	str	x0, [sp, 24]
	ldr	x0, [sp, 24]
	ldr	x3, [x0]
	ldr	x0, [sp, 24]
	ldr	x1, [x0, 16]
	ldr	x0, [sp, 24]
	ldr	x0, [x0]
	sub	x0, x1, x0
	asr	x1, x0, 3
	mov	x0, -3689348814741910324
	movk	x0, 0xcccd, lsl 0
	mul	x0, x1, x0
	mov	x2, x0
	mov	x1, x3
	ldr	x0, [sp, 24]
	bl	_ZNSt12_Vector_baseISt6vectorIbSaIbEESaIS2_EE13_M_deallocateEPS2_m
	ldr	x0, [sp, 24]
	bl	_ZNSt12_Vector_baseISt6vectorIbSaIbEESaIS2_EE12_Vector_implD1Ev
	nop
	ldp	x29, x30, [sp], 32
	.cfi_restore 30
	.cfi_restore 29
	.cfi_def_cfa_offset 0
	ret
	.cfi_endproc
.LFE6112:
	.section	.gcc_except_table
.LLSDA6112:
	.byte	0xff
	.byte	0xff
	.byte	0x1
	.uleb128 .LLSDACSE6112-.LLSDACSB6112
.LLSDACSB6112:
.LLSDACSE6112:
	.section	.text._ZNSt12_Vector_baseISt6vectorIbSaIbEESaIS2_EED2Ev,"axG",@progbits,_ZNSt12_Vector_baseISt6vectorIbSaIbEESaIS2_EED5Ev,comdat
	.size	_ZNSt12_Vector_baseISt6vectorIbSaIbEESaIS2_EED2Ev, .-_ZNSt12_Vector_baseISt6vectorIbSaIbEESaIS2_EED2Ev
	.weak	_ZNSt12_Vector_baseISt6vectorIbSaIbEESaIS2_EED1Ev
	.set	_ZNSt12_Vector_baseISt6vectorIbSaIbEESaIS2_EED1Ev,_ZNSt12_Vector_baseISt6vectorIbSaIbEESaIS2_EED2Ev
	.section	.text._ZNSt6vectorIS_IbSaIbEESaIS1_EE18_M_fill_initializeEmRKS1_,"axG",@progbits,_ZNSt6vectorIS_IbSaIbEESaIS1_EE18_M_fill_initializeEmRKS1_,comdat
	.align	2
	.weak	_ZNSt6vectorIS_IbSaIbEESaIS1_EE18_M_fill_initializeEmRKS1_
	.type	_ZNSt6vectorIS_IbSaIbEESaIS1_EE18_M_fill_initializeEmRKS1_, %function
_ZNSt6vectorIS_IbSaIbEESaIS1_EE18_M_fill_initializeEmRKS1_:
.LFB6114:
	.cfi_startproc
	stp	x29, x30, [sp, -64]!
	.cfi_def_cfa_offset 64
	.cfi_offset 29, -64
	.cfi_offset 30, -56
	mov	x29, sp
	str	x19, [sp, 16]
	.cfi_offset 19, -48
	str	x0, [sp, 56]
	str	x1, [sp, 48]
	str	x2, [sp, 40]
	ldr	x0, [sp, 56]
	ldr	x19, [x0]
	ldr	x0, [sp, 56]
	bl	_ZNSt12_Vector_baseISt6vectorIbSaIbEESaIS2_EE19_M_get_Tp_allocatorEv
	mov	x3, x0
	ldr	x2, [sp, 40]
	ldr	x1, [sp, 48]
	mov	x0, x19
	bl	_ZSt24__uninitialized_fill_n_aIPSt6vectorIbSaIbEEmS2_S2_ET_S4_T0_RKT1_RSaIT2_E
	mov	x1, x0
	ldr	x0, [sp, 56]
	str	x1, [x0, 8]
	nop
	ldr	x19, [sp, 16]
	ldp	x29, x30, [sp], 64
	.cfi_restore 30
	.cfi_restore 29
	.cfi_restore 19
	.cfi_def_cfa_offset 0
	ret
	.cfi_endproc
.LFE6114:
	.size	_ZNSt6vectorIS_IbSaIbEESaIS1_EE18_M_fill_initializeEmRKS1_, .-_ZNSt6vectorIS_IbSaIbEESaIS1_EE18_M_fill_initializeEmRKS1_
	.section	.text._ZNSt12_Vector_baseISt6vectorIbSaIbEESaIS2_EE19_M_get_Tp_allocatorEv,"axG",@progbits,_ZNSt12_Vector_baseISt6vectorIbSaIbEESaIS2_EE19_M_get_Tp_allocatorEv,comdat
	.align	2
	.weak	_ZNSt12_Vector_baseISt6vectorIbSaIbEESaIS2_EE19_M_get_Tp_allocatorEv
	.type	_ZNSt12_Vector_baseISt6vectorIbSaIbEESaIS2_EE19_M_get_Tp_allocatorEv, %function
_ZNSt12_Vector_baseISt6vectorIbSaIbEESaIS2_EE19_M_get_Tp_allocatorEv:
.LFB6115:
	.cfi_startproc
	sub	sp, sp, #16
	.cfi_def_cfa_offset 16
	str	x0, [sp, 8]
	ldr	x0, [sp, 8]
	add	sp, sp, 16
	.cfi_def_cfa_offset 0
	ret
	.cfi_endproc
.LFE6115:
	.size	_ZNSt12_Vector_baseISt6vectorIbSaIbEESaIS2_EE19_M_get_Tp_allocatorEv, .-_ZNSt12_Vector_baseISt6vectorIbSaIbEESaIS2_EE19_M_get_Tp_allocatorEv
	.section	.text._ZSt8_DestroyIPSt6vectorIbSaIbEES2_EvT_S4_RSaIT0_E,"axG",@progbits,_ZSt8_DestroyIPSt6vectorIbSaIbEES2_EvT_S4_RSaIT0_E,comdat
	.align	2
	.weak	_ZSt8_DestroyIPSt6vectorIbSaIbEES2_EvT_S4_RSaIT0_E
	.type	_ZSt8_DestroyIPSt6vectorIbSaIbEES2_EvT_S4_RSaIT0_E, %function
_ZSt8_DestroyIPSt6vectorIbSaIbEES2_EvT_S4_RSaIT0_E:
.LFB6116:
	.cfi_startproc
	stp	x29, x30, [sp, -48]!
	.cfi_def_cfa_offset 48
	.cfi_offset 29, -48
	.cfi_offset 30, -40
	mov	x29, sp
	str	x0, [sp, 40]
	str	x1, [sp, 32]
	str	x2, [sp, 24]
	ldr	x1, [sp, 32]
	ldr	x0, [sp, 40]
	bl	_ZSt8_DestroyIPSt6vectorIbSaIbEEEvT_S4_
	nop
	ldp	x29, x30, [sp], 48
	.cfi_restore 30
	.cfi_restore 29
	.cfi_def_cfa_offset 0
	ret
	.cfi_endproc
.LFE6116:
	.size	_ZSt8_DestroyIPSt6vectorIbSaIbEES2_EvT_S4_RSaIT0_E, .-_ZSt8_DestroyIPSt6vectorIbSaIbEES2_EvT_S4_RSaIT0_E
	.section	.text._ZNSt12_Vector_baseISt6vectorIiSaIiEESaIS2_EE17_Vector_impl_dataC2Ev,"axG",@progbits,_ZNSt12_Vector_baseISt6vectorIiSaIiEESaIS2_EE17_Vector_impl_dataC5Ev,comdat
	.align	2
	.weak	_ZNSt12_Vector_baseISt6vectorIiSaIiEESaIS2_EE17_Vector_impl_dataC2Ev
	.type	_ZNSt12_Vector_baseISt6vectorIiSaIiEESaIS2_EE17_Vector_impl_dataC2Ev, %function
_ZNSt12_Vector_baseISt6vectorIiSaIiEESaIS2_EE17_Vector_impl_dataC2Ev:
.LFB6118:
	.cfi_startproc
	sub	sp, sp, #16
	.cfi_def_cfa_offset 16
	str	x0, [sp, 8]
	ldr	x0, [sp, 8]
	str	xzr, [x0]
	ldr	x0, [sp, 8]
	str	xzr, [x0, 8]
	ldr	x0, [sp, 8]
	str	xzr, [x0, 16]
	nop
	add	sp, sp, 16
	.cfi_def_cfa_offset 0
	ret
	.cfi_endproc
.LFE6118:
	.size	_ZNSt12_Vector_baseISt6vectorIiSaIiEESaIS2_EE17_Vector_impl_dataC2Ev, .-_ZNSt12_Vector_baseISt6vectorIiSaIiEESaIS2_EE17_Vector_impl_dataC2Ev
	.weak	_ZNSt12_Vector_baseISt6vectorIiSaIiEESaIS2_EE17_Vector_impl_dataC1Ev
	.set	_ZNSt12_Vector_baseISt6vectorIiSaIiEESaIS2_EE17_Vector_impl_dataC1Ev,_ZNSt12_Vector_baseISt6vectorIiSaIiEESaIS2_EE17_Vector_impl_dataC2Ev
	.section	.text._ZN9__gnu_cxx13new_allocatorISt6vectorIiSaIiEEED2Ev,"axG",@progbits,_ZN9__gnu_cxx13new_allocatorISt6vectorIiSaIiEEED5Ev,comdat
	.align	2
	.weak	_ZN9__gnu_cxx13new_allocatorISt6vectorIiSaIiEEED2Ev
	.type	_ZN9__gnu_cxx13new_allocatorISt6vectorIiSaIiEEED2Ev, %function
_ZN9__gnu_cxx13new_allocatorISt6vectorIiSaIiEEED2Ev:
.LFB6121:
	.cfi_startproc
	sub	sp, sp, #16
	.cfi_def_cfa_offset 16
	str	x0, [sp, 8]
	nop
	add	sp, sp, 16
	.cfi_def_cfa_offset 0
	ret
	.cfi_endproc
.LFE6121:
	.size	_ZN9__gnu_cxx13new_allocatorISt6vectorIiSaIiEEED2Ev, .-_ZN9__gnu_cxx13new_allocatorISt6vectorIiSaIiEEED2Ev
	.weak	_ZN9__gnu_cxx13new_allocatorISt6vectorIiSaIiEEED1Ev
	.set	_ZN9__gnu_cxx13new_allocatorISt6vectorIiSaIiEEED1Ev,_ZN9__gnu_cxx13new_allocatorISt6vectorIiSaIiEEED2Ev
	.section	.text._ZNSt12_Vector_baseISt6vectorIiSaIiEESaIS2_EE13_M_deallocateEPS2_m,"axG",@progbits,_ZNSt12_Vector_baseISt6vectorIiSaIiEESaIS2_EE13_M_deallocateEPS2_m,comdat
	.align	2
	.weak	_ZNSt12_Vector_baseISt6vectorIiSaIiEESaIS2_EE13_M_deallocateEPS2_m
	.type	_ZNSt12_Vector_baseISt6vectorIiSaIiEESaIS2_EE13_M_deallocateEPS2_m, %function
_ZNSt12_Vector_baseISt6vectorIiSaIiEESaIS2_EE13_M_deallocateEPS2_m:
.LFB6123:
	.cfi_startproc
	stp	x29, x30, [sp, -48]!
	.cfi_def_cfa_offset 48
	.cfi_offset 29, -48
	.cfi_offset 30, -40
	mov	x29, sp
	str	x0, [sp, 40]
	str	x1, [sp, 32]
	str	x2, [sp, 24]
	ldr	x0, [sp, 32]
	cmp	x0, 0
	beq	.L288
	ldr	x0, [sp, 40]
	ldr	x2, [sp, 24]
	ldr	x1, [sp, 32]
	bl	_ZNSt16allocator_traitsISaISt6vectorIiSaIiEEEE10deallocateERS3_PS2_m
.L288:
	nop
	ldp	x29, x30, [sp], 48
	.cfi_restore 30
	.cfi_restore 29
	.cfi_def_cfa_offset 0
	ret
	.cfi_endproc
.LFE6123:
	.size	_ZNSt12_Vector_baseISt6vectorIiSaIiEESaIS2_EE13_M_deallocateEPS2_m, .-_ZNSt12_Vector_baseISt6vectorIiSaIiEESaIS2_EE13_M_deallocateEPS2_m
	.section	.text._ZNSt12_Vector_baseISt6vectorIiSaIiEESaIS2_EE19_M_get_Tp_allocatorEv,"axG",@progbits,_ZNSt12_Vector_baseISt6vectorIiSaIiEESaIS2_EE19_M_get_Tp_allocatorEv,comdat
	.align	2
	.weak	_ZNSt12_Vector_baseISt6vectorIiSaIiEESaIS2_EE19_M_get_Tp_allocatorEv
	.type	_ZNSt12_Vector_baseISt6vectorIiSaIiEESaIS2_EE19_M_get_Tp_allocatorEv, %function
_ZNSt12_Vector_baseISt6vectorIiSaIiEESaIS2_EE19_M_get_Tp_allocatorEv:
.LFB6124:
	.cfi_startproc
	sub	sp, sp, #16
	.cfi_def_cfa_offset 16
	str	x0, [sp, 8]
	ldr	x0, [sp, 8]
	add	sp, sp, 16
	.cfi_def_cfa_offset 0
	ret
	.cfi_endproc
.LFE6124:
	.size	_ZNSt12_Vector_baseISt6vectorIiSaIiEESaIS2_EE19_M_get_Tp_allocatorEv, .-_ZNSt12_Vector_baseISt6vectorIiSaIiEESaIS2_EE19_M_get_Tp_allocatorEv
	.section	.text._ZSt8_DestroyIPSt6vectorIiSaIiEES2_EvT_S4_RSaIT0_E,"axG",@progbits,_ZSt8_DestroyIPSt6vectorIiSaIiEES2_EvT_S4_RSaIT0_E,comdat
	.align	2
	.weak	_ZSt8_DestroyIPSt6vectorIiSaIiEES2_EvT_S4_RSaIT0_E
	.type	_ZSt8_DestroyIPSt6vectorIiSaIiEES2_EvT_S4_RSaIT0_E, %function
_ZSt8_DestroyIPSt6vectorIiSaIiEES2_EvT_S4_RSaIT0_E:
.LFB6125:
	.cfi_startproc
	stp	x29, x30, [sp, -48]!
	.cfi_def_cfa_offset 48
	.cfi_offset 29, -48
	.cfi_offset 30, -40
	mov	x29, sp
	str	x0, [sp, 40]
	str	x1, [sp, 32]
	str	x2, [sp, 24]
	ldr	x1, [sp, 32]
	ldr	x0, [sp, 40]
	bl	_ZSt8_DestroyIPSt6vectorIiSaIiEEEvT_S4_
	nop
	ldp	x29, x30, [sp], 48
	.cfi_restore 30
	.cfi_restore 29
	.cfi_def_cfa_offset 0
	ret
	.cfi_endproc
.LFE6125:
	.size	_ZSt8_DestroyIPSt6vectorIiSaIiEES2_EvT_S4_RSaIT0_E, .-_ZSt8_DestroyIPSt6vectorIiSaIiEES2_EvT_S4_RSaIT0_E
	.section	.text._ZNSt12_Vector_baseIiSaIiEE19_M_get_Tp_allocatorEv,"axG",@progbits,_ZNSt12_Vector_baseIiSaIiEE19_M_get_Tp_allocatorEv,comdat
	.align	2
	.weak	_ZNSt12_Vector_baseIiSaIiEE19_M_get_Tp_allocatorEv
	.type	_ZNSt12_Vector_baseIiSaIiEE19_M_get_Tp_allocatorEv, %function
_ZNSt12_Vector_baseIiSaIiEE19_M_get_Tp_allocatorEv:
.LFB6126:
	.cfi_startproc
	sub	sp, sp, #16
	.cfi_def_cfa_offset 16
	str	x0, [sp, 8]
	ldr	x0, [sp, 8]
	add	sp, sp, 16
	.cfi_def_cfa_offset 0
	ret
	.cfi_endproc
.LFE6126:
	.size	_ZNSt12_Vector_baseIiSaIiEE19_M_get_Tp_allocatorEv, .-_ZNSt12_Vector_baseIiSaIiEE19_M_get_Tp_allocatorEv
	.section	.text._ZSt8_DestroyIPiiEvT_S1_RSaIT0_E,"axG",@progbits,_ZSt8_DestroyIPiiEvT_S1_RSaIT0_E,comdat
	.align	2
	.weak	_ZSt8_DestroyIPiiEvT_S1_RSaIT0_E
	.type	_ZSt8_DestroyIPiiEvT_S1_RSaIT0_E, %function
_ZSt8_DestroyIPiiEvT_S1_RSaIT0_E:
.LFB6127:
	.cfi_startproc
	stp	x29, x30, [sp, -48]!
	.cfi_def_cfa_offset 48
	.cfi_offset 29, -48
	.cfi_offset 30, -40
	mov	x29, sp
	str	x0, [sp, 40]
	str	x1, [sp, 32]
	str	x2, [sp, 24]
	ldr	x1, [sp, 32]
	ldr	x0, [sp, 40]
	bl	_ZSt8_DestroyIPiEvT_S1_
	nop
	ldp	x29, x30, [sp], 48
	.cfi_restore 30
	.cfi_restore 29
	.cfi_def_cfa_offset 0
	ret
	.cfi_endproc
.LFE6127:
	.size	_ZSt8_DestroyIPiiEvT_S1_RSaIT0_E, .-_ZSt8_DestroyIPiiEvT_S1_RSaIT0_E
	.section	.text._ZSt4moveIRSt6vectorIiSaIiEEEONSt16remove_referenceIT_E4typeEOS5_,"axG",@progbits,_ZSt4moveIRSt6vectorIiSaIiEEEONSt16remove_referenceIT_E4typeEOS5_,comdat
	.align	2
	.weak	_ZSt4moveIRSt6vectorIiSaIiEEEONSt16remove_referenceIT_E4typeEOS5_
	.type	_ZSt4moveIRSt6vectorIiSaIiEEEONSt16remove_referenceIT_E4typeEOS5_, %function
_ZSt4moveIRSt6vectorIiSaIiEEEONSt16remove_referenceIT_E4typeEOS5_:
.LFB6128:
	.cfi_startproc
	sub	sp, sp, #16
	.cfi_def_cfa_offset 16
	str	x0, [sp, 8]
	ldr	x0, [sp, 8]
	add	sp, sp, 16
	.cfi_def_cfa_offset 0
	ret
	.cfi_endproc
.LFE6128:
	.size	_ZSt4moveIRSt6vectorIiSaIiEEEONSt16remove_referenceIT_E4typeEOS5_, .-_ZSt4moveIRSt6vectorIiSaIiEEEONSt16remove_referenceIT_E4typeEOS5_
	.section	.text._ZNSt6vectorIS_IiSaIiEESaIS1_EE12emplace_backIJS1_EEERS1_DpOT_,"axG",@progbits,_ZNSt6vectorIS_IiSaIiEESaIS1_EE12emplace_backIJS1_EEERS1_DpOT_,comdat
	.align	2
	.weak	_ZNSt6vectorIS_IiSaIiEESaIS1_EE12emplace_backIJS1_EEERS1_DpOT_
	.type	_ZNSt6vectorIS_IiSaIiEESaIS1_EE12emplace_backIJS1_EEERS1_DpOT_, %function
_ZNSt6vectorIS_IiSaIiEESaIS1_EE12emplace_backIJS1_EEERS1_DpOT_:
.LFB6129:
	.cfi_startproc
	stp	x29, x30, [sp, -48]!
	.cfi_def_cfa_offset 48
	.cfi_offset 29, -48
	.cfi_offset 30, -40
	mov	x29, sp
	stp	x19, x20, [sp, 16]
	.cfi_offset 19, -32
	.cfi_offset 20, -24
	str	x0, [sp, 40]
	str	x1, [sp, 32]
	ldr	x0, [sp, 40]
	ldr	x1, [x0, 8]
	ldr	x0, [sp, 40]
	ldr	x0, [x0, 16]
	cmp	x1, x0
	beq	.L298
	ldr	x19, [sp, 40]
	ldr	x0, [sp, 40]
	ldr	x20, [x0, 8]
	ldr	x0, [sp, 32]
	bl	_ZSt7forwardISt6vectorIiSaIiEEEOT_RNSt16remove_referenceIS3_E4typeE
	mov	x2, x0
	mov	x1, x20
	mov	x0, x19
	bl	_ZNSt16allocator_traitsISaISt6vectorIiSaIiEEEE9constructIS2_JS2_EEEvRS3_PT_DpOT0_
	ldr	x0, [sp, 40]
	ldr	x0, [x0, 8]
	add	x1, x0, 24
	ldr	x0, [sp, 40]
	str	x1, [x0, 8]
	b	.L299
.L298:
	ldr	x0, [sp, 40]
	bl	_ZNSt6vectorIS_IiSaIiEESaIS1_EE3endEv
	mov	x19, x0
	ldr	x0, [sp, 32]
	bl	_ZSt7forwardISt6vectorIiSaIiEEEOT_RNSt16remove_referenceIS3_E4typeE
	mov	x2, x0
	mov	x1, x19
	ldr	x0, [sp, 40]
	bl	_ZNSt6vectorIS_IiSaIiEESaIS1_EE17_M_realloc_insertIJS1_EEEvN9__gnu_cxx17__normal_iteratorIPS1_S3_EEDpOT_
.L299:
	ldr	x0, [sp, 40]
	bl	_ZNSt6vectorIS_IiSaIiEESaIS1_EE4backEv
	ldp	x19, x20, [sp, 16]
	ldp	x29, x30, [sp], 48
	.cfi_restore 30
	.cfi_restore 29
	.cfi_restore 19
	.cfi_restore 20
	.cfi_def_cfa_offset 0
	ret
	.cfi_endproc
.LFE6129:
	.size	_ZNSt6vectorIS_IiSaIiEESaIS1_EE12emplace_backIJS1_EEERS1_DpOT_, .-_ZNSt6vectorIS_IiSaIiEESaIS1_EE12emplace_backIJS1_EEERS1_DpOT_
	.section	.text._ZNSaISt6vectorIiSaIiEEEC2ERKS2_,"axG",@progbits,_ZNSaISt6vectorIiSaIiEEEC5ERKS2_,comdat
	.align	2
	.weak	_ZNSaISt6vectorIiSaIiEEEC2ERKS2_
	.type	_ZNSaISt6vectorIiSaIiEEEC2ERKS2_, %function
_ZNSaISt6vectorIiSaIiEEEC2ERKS2_:
.LFB6133:
	.cfi_startproc
	stp	x29, x30, [sp, -32]!
	.cfi_def_cfa_offset 32
	.cfi_offset 29, -32
	.cfi_offset 30, -24
	mov	x29, sp
	str	x0, [sp, 24]
	str	x1, [sp, 16]
	ldr	x1, [sp, 16]
	ldr	x0, [sp, 24]
	bl	_ZN9__gnu_cxx13new_allocatorISt6vectorIiSaIiEEEC2ERKS4_
	nop
	ldp	x29, x30, [sp], 32
	.cfi_restore 30
	.cfi_restore 29
	.cfi_def_cfa_offset 0
	ret
	.cfi_endproc
.LFE6133:
	.size	_ZNSaISt6vectorIiSaIiEEEC2ERKS2_, .-_ZNSaISt6vectorIiSaIiEEEC2ERKS2_
	.weak	_ZNSaISt6vectorIiSaIiEEEC1ERKS2_
	.set	_ZNSaISt6vectorIiSaIiEEEC1ERKS2_,_ZNSaISt6vectorIiSaIiEEEC2ERKS2_
	.section	.text._ZN9__gnu_cxx13new_allocatorISt6vectorIiSaIiEEEC2Ev,"axG",@progbits,_ZN9__gnu_cxx13new_allocatorISt6vectorIiSaIiEEEC5Ev,comdat
	.align	2
	.weak	_ZN9__gnu_cxx13new_allocatorISt6vectorIiSaIiEEEC2Ev
	.type	_ZN9__gnu_cxx13new_allocatorISt6vectorIiSaIiEEEC2Ev, %function
_ZN9__gnu_cxx13new_allocatorISt6vectorIiSaIiEEEC2Ev:
.LFB6139:
	.cfi_startproc
	sub	sp, sp, #16
	.cfi_def_cfa_offset 16
	str	x0, [sp, 8]
	nop
	add	sp, sp, 16
	.cfi_def_cfa_offset 0
	ret
	.cfi_endproc
.LFE6139:
	.size	_ZN9__gnu_cxx13new_allocatorISt6vectorIiSaIiEEEC2Ev, .-_ZN9__gnu_cxx13new_allocatorISt6vectorIiSaIiEEEC2Ev
	.weak	_ZN9__gnu_cxx13new_allocatorISt6vectorIiSaIiEEEC1Ev
	.set	_ZN9__gnu_cxx13new_allocatorISt6vectorIiSaIiEEEC1Ev,_ZN9__gnu_cxx13new_allocatorISt6vectorIiSaIiEEEC2Ev
	.section	.text._ZNSt12_Vector_baseISt6vectorIiSaIiEESaIS2_EEC2ERKS3_,"axG",@progbits,_ZNSt12_Vector_baseISt6vectorIiSaIiEESaIS2_EEC5ERKS3_,comdat
	.align	2
	.weak	_ZNSt12_Vector_baseISt6vectorIiSaIiEESaIS2_EEC2ERKS3_
	.type	_ZNSt12_Vector_baseISt6vectorIiSaIiEESaIS2_EEC2ERKS3_, %function
_ZNSt12_Vector_baseISt6vectorIiSaIiEESaIS2_EEC2ERKS3_:
.LFB6142:
	.cfi_startproc
	stp	x29, x30, [sp, -32]!
	.cfi_def_cfa_offset 32
	.cfi_offset 29, -32
	.cfi_offset 30, -24
	mov	x29, sp
	str	x0, [sp, 24]
	str	x1, [sp, 16]
	ldr	x0, [sp, 24]
	ldr	x1, [sp, 16]
	bl	_ZNSt12_Vector_baseISt6vectorIiSaIiEESaIS2_EE12_Vector_implC1ERKS3_
	nop
	ldp	x29, x30, [sp], 32
	.cfi_restore 30
	.cfi_restore 29
	.cfi_def_cfa_offset 0
	ret
	.cfi_endproc
.LFE6142:
	.size	_ZNSt12_Vector_baseISt6vectorIiSaIiEESaIS2_EEC2ERKS3_, .-_ZNSt12_Vector_baseISt6vectorIiSaIiEESaIS2_EEC2ERKS3_
	.weak	_ZNSt12_Vector_baseISt6vectorIiSaIiEESaIS2_EEC1ERKS3_
	.set	_ZNSt12_Vector_baseISt6vectorIiSaIiEESaIS2_EEC1ERKS3_,_ZNSt12_Vector_baseISt6vectorIiSaIiEESaIS2_EEC2ERKS3_
	.section	.text._ZNKSt16initializer_listISt6vectorIiSaIiEEE5beginEv,"axG",@progbits,_ZNKSt16initializer_listISt6vectorIiSaIiEEE5beginEv,comdat
	.align	2
	.weak	_ZNKSt16initializer_listISt6vectorIiSaIiEEE5beginEv
	.type	_ZNKSt16initializer_listISt6vectorIiSaIiEEE5beginEv, %function
_ZNKSt16initializer_listISt6vectorIiSaIiEEE5beginEv:
.LFB6144:
	.cfi_startproc
	sub	sp, sp, #16
	.cfi_def_cfa_offset 16
	str	x0, [sp, 8]
	ldr	x0, [sp, 8]
	ldr	x0, [x0]
	add	sp, sp, 16
	.cfi_def_cfa_offset 0
	ret
	.cfi_endproc
.LFE6144:
	.size	_ZNKSt16initializer_listISt6vectorIiSaIiEEE5beginEv, .-_ZNKSt16initializer_listISt6vectorIiSaIiEEE5beginEv
	.section	.text._ZNKSt16initializer_listISt6vectorIiSaIiEEE3endEv,"axG",@progbits,_ZNKSt16initializer_listISt6vectorIiSaIiEEE3endEv,comdat
	.align	2
	.weak	_ZNKSt16initializer_listISt6vectorIiSaIiEEE3endEv
	.type	_ZNKSt16initializer_listISt6vectorIiSaIiEEE3endEv, %function
_ZNKSt16initializer_listISt6vectorIiSaIiEEE3endEv:
.LFB6145:
	.cfi_startproc
	stp	x29, x30, [sp, -48]!
	.cfi_def_cfa_offset 48
	.cfi_offset 29, -48
	.cfi_offset 30, -40
	mov	x29, sp
	str	x19, [sp, 16]
	.cfi_offset 19, -32
	str	x0, [sp, 40]
	ldr	x0, [sp, 40]
	bl	_ZNKSt16initializer_listISt6vectorIiSaIiEEE5beginEv
	mov	x19, x0
	ldr	x0, [sp, 40]
	bl	_ZNKSt16initializer_listISt6vectorIiSaIiEEE4sizeEv
	mov	x1, x0
	mov	x0, x1
	lsl	x0, x0, 1
	add	x0, x0, x1
	lsl	x0, x0, 3
	add	x0, x19, x0
	ldr	x19, [sp, 16]
	ldp	x29, x30, [sp], 48
	.cfi_restore 30
	.cfi_restore 29
	.cfi_restore 19
	.cfi_def_cfa_offset 0
	ret
	.cfi_endproc
.LFE6145:
	.size	_ZNKSt16initializer_listISt6vectorIiSaIiEEE3endEv, .-_ZNKSt16initializer_listISt6vectorIiSaIiEEE3endEv
	.section	.text._ZSt8distanceIPKSt6vectorIiSaIiEEENSt15iterator_traitsIT_E15difference_typeES6_S6_,"axG",@progbits,_ZSt8distanceIPKSt6vectorIiSaIiEEENSt15iterator_traitsIT_E15difference_typeES6_S6_,comdat
	.align	2
	.weak	_ZSt8distanceIPKSt6vectorIiSaIiEEENSt15iterator_traitsIT_E15difference_typeES6_S6_
	.type	_ZSt8distanceIPKSt6vectorIiSaIiEEENSt15iterator_traitsIT_E15difference_typeES6_S6_, %function
_ZSt8distanceIPKSt6vectorIiSaIiEEENSt15iterator_traitsIT_E15difference_typeES6_S6_:
.LFB6147:
	.cfi_startproc
	stp	x29, x30, [sp, -48]!
	.cfi_def_cfa_offset 48
	.cfi_offset 29, -48
	.cfi_offset 30, -40
	mov	x29, sp
	stp	x19, x20, [sp, 16]
	.cfi_offset 19, -32
	.cfi_offset 20, -24
	str	x0, [sp, 40]
	str	x1, [sp, 32]
	ldr	x19, [sp, 40]
	add	x0, sp, 40
	bl	_ZSt19__iterator_categoryIPKSt6vectorIiSaIiEEENSt15iterator_traitsIT_E17iterator_categoryERKS6_
	mov	w2, w20
	ldr	x1, [sp, 32]
	mov	x0, x19
	bl	_ZSt10__distanceIPKSt6vectorIiSaIiEEENSt15iterator_traitsIT_E15difference_typeES6_S6_St26random_access_iterator_tag
	ldp	x19, x20, [sp, 16]
	ldp	x29, x30, [sp], 48
	.cfi_restore 30
	.cfi_restore 29
	.cfi_restore 19
	.cfi_restore 20
	.cfi_def_cfa_offset 0
	ret
	.cfi_endproc
.LFE6147:
	.size	_ZSt8distanceIPKSt6vectorIiSaIiEEENSt15iterator_traitsIT_E15difference_typeES6_S6_, .-_ZSt8distanceIPKSt6vectorIiSaIiEEENSt15iterator_traitsIT_E15difference_typeES6_S6_
	.section	.text._ZNSt6vectorIS_IiSaIiEESaIS1_EE19_M_range_initializeIPKS1_EEvT_S7_St20forward_iterator_tag,"axG",@progbits,_ZNSt6vectorIS_IiSaIiEESaIS1_EE19_M_range_initializeIPKS1_EEvT_S7_St20forward_iterator_tag,comdat
	.align	2
	.weak	_ZNSt6vectorIS_IiSaIiEESaIS1_EE19_M_range_initializeIPKS1_EEvT_S7_St20forward_iterator_tag
	.type	_ZNSt6vectorIS_IiSaIiEESaIS1_EE19_M_range_initializeIPKS1_EEvT_S7_St20forward_iterator_tag, %function
_ZNSt6vectorIS_IiSaIiEESaIS1_EE19_M_range_initializeIPKS1_EEvT_S7_St20forward_iterator_tag:
.LFB6146:
	.cfi_startproc
	stp	x29, x30, [sp, -80]!
	.cfi_def_cfa_offset 80
	.cfi_offset 29, -80
	.cfi_offset 30, -72
	mov	x29, sp
	str	x19, [sp, 16]
	.cfi_offset 19, -64
	str	x0, [sp, 56]
	str	x1, [sp, 48]
	str	x2, [sp, 40]
	strb	w3, [sp, 32]
	ldr	x1, [sp, 40]
	ldr	x0, [sp, 48]
	bl	_ZSt8distanceIPKSt6vectorIiSaIiEEENSt15iterator_traitsIT_E15difference_typeES6_S6_
	str	x0, [sp, 72]
	ldr	x19, [sp, 56]
	ldr	x0, [sp, 56]
	bl	_ZNSt12_Vector_baseISt6vectorIiSaIiEESaIS2_EE19_M_get_Tp_allocatorEv
	mov	x1, x0
	ldr	x0, [sp, 72]
	bl	_ZNSt6vectorIS_IiSaIiEESaIS1_EE17_S_check_init_lenEmRKS2_
	mov	x1, x0
	mov	x0, x19
	bl	_ZNSt12_Vector_baseISt6vectorIiSaIiEESaIS2_EE11_M_allocateEm
	mov	x1, x0
	ldr	x0, [sp, 56]
	str	x1, [x0]
	ldr	x0, [sp, 56]
	ldr	x2, [x0]
	ldr	x1, [sp, 72]
	mov	x0, x1
	lsl	x0, x0, 1
	add	x0, x0, x1
	lsl	x0, x0, 3
	add	x1, x2, x0
	ldr	x0, [sp, 56]
	str	x1, [x0, 16]
	ldr	x0, [sp, 56]
	ldr	x19, [x0]
	ldr	x0, [sp, 56]
	bl	_ZNSt12_Vector_baseISt6vectorIiSaIiEESaIS2_EE19_M_get_Tp_allocatorEv
	mov	x3, x0
	mov	x2, x19
	ldr	x1, [sp, 40]
	ldr	x0, [sp, 48]
	bl	_ZSt22__uninitialized_copy_aIPKSt6vectorIiSaIiEEPS2_S2_ET0_T_S7_S6_RSaIT1_E
	mov	x1, x0
	ldr	x0, [sp, 56]
	str	x1, [x0, 8]
	nop
	ldr	x19, [sp, 16]
	ldp	x29, x30, [sp], 80
	.cfi_restore 30
	.cfi_restore 29
	.cfi_restore 19
	.cfi_def_cfa_offset 0
	ret
	.cfi_endproc
.LFE6146:
	.size	_ZNSt6vectorIS_IiSaIiEESaIS1_EE19_M_range_initializeIPKS1_EEvT_S7_St20forward_iterator_tag, .-_ZNSt6vectorIS_IiSaIiEESaIS1_EE19_M_range_initializeIPKS1_EEvT_S7_St20forward_iterator_tag
	.section	.text._ZStplIcSt11char_traitsIcESaIcEENSt7__cxx1112basic_stringIT_T0_T1_EEOS8_PKS5_,"axG",@progbits,_ZStplIcSt11char_traitsIcESaIcEENSt7__cxx1112basic_stringIT_T0_T1_EEOS8_PKS5_,comdat
	.align	2
	.weak	_ZStplIcSt11char_traitsIcESaIcEENSt7__cxx1112basic_stringIT_T0_T1_EEOS8_PKS5_
	.type	_ZStplIcSt11char_traitsIcESaIcEENSt7__cxx1112basic_stringIT_T0_T1_EEOS8_PKS5_, %function
_ZStplIcSt11char_traitsIcESaIcEENSt7__cxx1112basic_stringIT_T0_T1_EEOS8_PKS5_:
.LFB6150:
	.cfi_startproc
	stp	x29, x30, [sp, -48]!
	.cfi_def_cfa_offset 48
	.cfi_offset 29, -48
	.cfi_offset 30, -40
	mov	x29, sp
	str	x19, [sp, 16]
	.cfi_offset 19, -32
	mov	x19, x8
	str	x0, [sp, 40]
	str	x1, [sp, 32]
	ldr	x1, [sp, 32]
	ldr	x0, [sp, 40]
	bl	_ZNSt7__cxx1112basic_stringIcSt11char_traitsIcESaIcEE6appendEPKc
	bl	_ZSt4moveIRNSt7__cxx1112basic_stringIcSt11char_traitsIcESaIcEEEEONSt16remove_referenceIT_E4typeEOS8_
	mov	x1, x0
	mov	x0, x19
	bl	_ZNSt7__cxx1112basic_stringIcSt11char_traitsIcESaIcEEC1EOS4_
	mov	x0, x19
	ldr	x19, [sp, 16]
	ldp	x29, x30, [sp], 48
	.cfi_restore 30
	.cfi_restore 29
	.cfi_restore 19
	.cfi_def_cfa_offset 0
	ret
	.cfi_endproc
.LFE6150:
	.size	_ZStplIcSt11char_traitsIcESaIcEENSt7__cxx1112basic_stringIT_T0_T1_EEOS8_PKS5_, .-_ZStplIcSt11char_traitsIcESaIcEENSt7__cxx1112basic_stringIT_T0_T1_EEOS8_PKS5_
	.section	.rodata
	.align	3
.LC20:
	.string	"std::vector<"
	.align	3
.LC21:
	.string	">"
	.section	.text._ZN3dbg13get_type_nameISt6vectorIiSaIiEEEENSt7__cxx1112basic_stringIcSt11char_traitsIcESaIcEEENS_8type_tagIS1_IT_SaISB_EEEE,"axG",@progbits,_ZN3dbg13get_type_nameISt6vectorIiSaIiEEEENSt7__cxx1112basic_stringIcSt11char_traitsIcESaIcEEENS_8type_tagIS1_IT_SaISB_EEEE,comdat
	.align	2
	.weak	_ZN3dbg13get_type_nameISt6vectorIiSaIiEEEENSt7__cxx1112basic_stringIcSt11char_traitsIcESaIcEEENS_8type_tagIS1_IT_SaISB_EEEE
	.type	_ZN3dbg13get_type_nameISt6vectorIiSaIiEEEENSt7__cxx1112basic_stringIcSt11char_traitsIcESaIcEEENS_8type_tagIS1_IT_SaISB_EEEE, %function
_ZN3dbg13get_type_nameISt6vectorIiSaIiEEEENSt7__cxx1112basic_stringIcSt11char_traitsIcESaIcEEENS_8type_tagIS1_IT_SaISB_EEEE:
.LFB6151:
	.cfi_startproc
	.cfi_personality 0x9b,DW.ref.__gxx_personality_v0
	.cfi_lsda 0x1b,.LLSDA6151
	stp	x29, x30, [sp, -128]!
	.cfi_def_cfa_offset 128
	.cfi_offset 29, -128
	.cfi_offset 30, -120
	mov	x29, sp
	str	x19, [sp, 16]
	.cfi_offset 19, -112
	mov	x19, x8
	strb	w0, [sp, 40]
	adrp	x0, :got:__stack_chk_guard
	ldr	x0, [x0, #:got_lo12:__stack_chk_guard]
	ldr	x1, [x0]
	str	x1, [sp, 120]
	mov	x1, 0
	add	x0, sp, 56
	mov	x8, x0
.LEHB47:
	bl	_ZN3dbg9type_nameISt6vectorIiSaIiEEEENSt7__cxx1112basic_stringIcSt11char_traitsIcESaIcEEEv
.LEHE47:
	add	x0, sp, 56
	add	x1, sp, 88
	mov	x8, x1
	mov	x1, x0
	adrp	x0, .LC20
	add	x0, x0, :lo12:.LC20
.LEHB48:
	bl	_ZStplIcSt11char_traitsIcESaIcEENSt7__cxx1112basic_stringIT_T0_T1_EEPKS5_OS8_
.LEHE48:
	add	x2, sp, 88
	mov	x8, x19
	adrp	x0, .LC21
	add	x1, x0, :lo12:.LC21
	mov	x0, x2
.LEHB49:
	bl	_ZStplIcSt11char_traitsIcESaIcEENSt7__cxx1112basic_stringIT_T0_T1_EEOS8_PKS5_
.LEHE49:
	add	x0, sp, 88
	bl	_ZNSt7__cxx1112basic_stringIcSt11char_traitsIcESaIcEED1Ev
	add	x0, sp, 56
	bl	_ZNSt7__cxx1112basic_stringIcSt11char_traitsIcESaIcEED1Ev
	adrp	x0, :got:__stack_chk_guard
	ldr	x0, [x0, #:got_lo12:__stack_chk_guard]
	ldr	x2, [sp, 120]
	ldr	x1, [x0]
	subs	x2, x2, x1
	mov	x1, 0
	beq	.L317
	b	.L320
.L319:
	mov	x19, x0
	add	x0, sp, 88
	bl	_ZNSt7__cxx1112basic_stringIcSt11char_traitsIcESaIcEED1Ev
	b	.L316
.L318:
	mov	x19, x0
.L316:
	add	x0, sp, 56
	bl	_ZNSt7__cxx1112basic_stringIcSt11char_traitsIcESaIcEED1Ev
	mov	x0, x19
.LEHB50:
	bl	_Unwind_Resume
.LEHE50:
.L320:
	bl	__stack_chk_fail
.L317:
	mov	x0, x19
	ldr	x19, [sp, 16]
	ldp	x29, x30, [sp], 128
	.cfi_restore 30
	.cfi_restore 29
	.cfi_restore 19
	.cfi_def_cfa_offset 0
	ret
	.cfi_endproc
.LFE6151:
	.section	.gcc_except_table
.LLSDA6151:
	.byte	0xff
	.byte	0xff
	.byte	0x1
	.uleb128 .LLSDACSE6151-.LLSDACSB6151
.LLSDACSB6151:
	.uleb128 .LEHB47-.LFB6151
	.uleb128 .LEHE47-.LEHB47
	.uleb128 0
	.uleb128 0
	.uleb128 .LEHB48-.LFB6151
	.uleb128 .LEHE48-.LEHB48
	.uleb128 .L318-.LFB6151
	.uleb128 0
	.uleb128 .LEHB49-.LFB6151
	.uleb128 .LEHE49-.LEHB49
	.uleb128 .L319-.LFB6151
	.uleb128 0
	.uleb128 .LEHB50-.LFB6151
	.uleb128 .LEHE50-.LEHB50
	.uleb128 0
	.uleb128 0
.LLSDACSE6151:
	.section	.text._ZN3dbg13get_type_nameISt6vectorIiSaIiEEEENSt7__cxx1112basic_stringIcSt11char_traitsIcESaIcEEENS_8type_tagIS1_IT_SaISB_EEEE,"axG",@progbits,_ZN3dbg13get_type_nameISt6vectorIiSaIiEEEENSt7__cxx1112basic_stringIcSt11char_traitsIcESaIcEEENS_8type_tagIS1_IT_SaISB_EEEE,comdat
	.size	_ZN3dbg13get_type_nameISt6vectorIiSaIiEEEENSt7__cxx1112basic_stringIcSt11char_traitsIcESaIcEEENS_8type_tagIS1_IT_SaISB_EEEE, .-_ZN3dbg13get_type_nameISt6vectorIiSaIiEEEENSt7__cxx1112basic_stringIcSt11char_traitsIcESaIcEEENS_8type_tagIS1_IT_SaISB_EEEE
	.section	.text._ZNKSt16initializer_listIPKcE5beginEv,"axG",@progbits,_ZNKSt16initializer_listIPKcE5beginEv,comdat
	.align	2
	.weak	_ZNKSt16initializer_listIPKcE5beginEv
	.type	_ZNKSt16initializer_listIPKcE5beginEv, %function
_ZNKSt16initializer_listIPKcE5beginEv:
.LFB6152:
	.cfi_startproc
	sub	sp, sp, #16
	.cfi_def_cfa_offset 16
	str	x0, [sp, 8]
	ldr	x0, [sp, 8]
	ldr	x0, [x0]
	add	sp, sp, 16
	.cfi_def_cfa_offset 0
	ret
	.cfi_endproc
.LFE6152:
	.size	_ZNKSt16initializer_listIPKcE5beginEv, .-_ZNKSt16initializer_listIPKcE5beginEv
	.section	.text._ZNKSt16initializer_listINSt7__cxx1112basic_stringIcSt11char_traitsIcESaIcEEEE5beginEv,"axG",@progbits,_ZNKSt16initializer_listINSt7__cxx1112basic_stringIcSt11char_traitsIcESaIcEEEE5beginEv,comdat
	.align	2
	.weak	_ZNKSt16initializer_listINSt7__cxx1112basic_stringIcSt11char_traitsIcESaIcEEEE5beginEv
	.type	_ZNKSt16initializer_listINSt7__cxx1112basic_stringIcSt11char_traitsIcESaIcEEEE5beginEv, %function
_ZNKSt16initializer_listINSt7__cxx1112basic_stringIcSt11char_traitsIcESaIcEEEE5beginEv:
.LFB6153:
	.cfi_startproc
	sub	sp, sp, #16
	.cfi_def_cfa_offset 16
	str	x0, [sp, 8]
	ldr	x0, [sp, 8]
	ldr	x0, [x0]
	add	sp, sp, 16
	.cfi_def_cfa_offset 0
	ret
	.cfi_endproc
.LFE6153:
	.size	_ZNKSt16initializer_listINSt7__cxx1112basic_stringIcSt11char_traitsIcESaIcEEEE5beginEv, .-_ZNKSt16initializer_listINSt7__cxx1112basic_stringIcSt11char_traitsIcESaIcEEEE5beginEv
	.section	.text._ZSt7forwardIRSt6vectorIS0_IiSaIiEESaIS2_EEEOT_RNSt16remove_referenceIS6_E4typeE,"axG",@progbits,_ZSt7forwardIRSt6vectorIS0_IiSaIiEESaIS2_EEEOT_RNSt16remove_referenceIS6_E4typeE,comdat
	.align	2
	.weak	_ZSt7forwardIRSt6vectorIS0_IiSaIiEESaIS2_EEEOT_RNSt16remove_referenceIS6_E4typeE
	.type	_ZSt7forwardIRSt6vectorIS0_IiSaIiEESaIS2_EEEOT_RNSt16remove_referenceIS6_E4typeE, %function
_ZSt7forwardIRSt6vectorIS0_IiSaIiEESaIS2_EEEOT_RNSt16remove_referenceIS6_E4typeE:
.LFB6154:
	.cfi_startproc
	sub	sp, sp, #16
	.cfi_def_cfa_offset 16
	str	x0, [sp, 8]
	ldr	x0, [sp, 8]
	add	sp, sp, 16
	.cfi_def_cfa_offset 0
	ret
	.cfi_endproc
.LFE6154:
	.size	_ZSt7forwardIRSt6vectorIS0_IiSaIiEESaIS2_EEEOT_RNSt16remove_referenceIS6_E4typeE, .-_ZSt7forwardIRSt6vectorIS0_IiSaIiEESaIS2_EEEOT_RNSt16remove_referenceIS6_E4typeE
	.section	.rodata
	.align	3
.LC22:
	.string	"\033[36m"
	.align	3
.LC23:
	.string	" = "
	.align	3
.LC24:
	.string	"\033[01m"
	.align	3
.LC25:
	.string	"\033[32m"
	.align	3
.LC26:
	.string	")"
	.section	.text._ZN3dbg11DebugOutput10print_implIRSt6vectorIS2_IiSaIiEESaIS4_EEEEOT_PKPKcPKNSt7__cxx1112basic_stringIcSt11char_traitsIcESaIcEEES9_,"axG",@progbits,_ZN3dbg11DebugOutput10print_implIRSt6vectorIS2_IiSaIiEESaIS4_EEEEOT_PKPKcPKNSt7__cxx1112basic_stringIcSt11char_traitsIcESaIcEEES9_,comdat
	.align	2
	.weak	_ZN3dbg11DebugOutput10print_implIRSt6vectorIS2_IiSaIiEESaIS4_EEEEOT_PKPKcPKNSt7__cxx1112basic_stringIcSt11char_traitsIcESaIcEEES9_
	.type	_ZN3dbg11DebugOutput10print_implIRSt6vectorIS2_IiSaIiEESaIS4_EEEEOT_PKPKcPKNSt7__cxx1112basic_stringIcSt11char_traitsIcESaIcEEES9_, %function
_ZN3dbg11DebugOutput10print_implIRSt6vectorIS2_IiSaIiEESaIS4_EEEEOT_PKPKcPKNSt7__cxx1112basic_stringIcSt11char_traitsIcESaIcEEES9_:
.LFB6155:
	.cfi_startproc
	.cfi_personality 0x9b,DW.ref.__gxx_personality_v0
	.cfi_lsda 0x1b,.LLSDA6155
	sub	sp, sp, #912
	.cfi_def_cfa_offset 912
	stp	x29, x30, [sp]
	.cfi_offset 29, -912
	.cfi_offset 30, -904
	mov	x29, sp
	str	x19, [sp, 16]
	.cfi_offset 19, -896
	str	x0, [sp, 56]
	str	x1, [sp, 48]
	str	x2, [sp, 40]
	str	x3, [sp, 32]
	adrp	x0, :got:__stack_chk_guard
	ldr	x0, [x0, #:got_lo12:__stack_chk_guard]
	ldr	x1, [x0]
	str	x1, [sp, 904]
	mov	x1, 0
	ldr	x0, [sp, 32]
	str	x0, [sp, 80]
	add	x0, sp, 120
.LEHB51:
	bl	_ZNSt7__cxx1118basic_stringstreamIcSt11char_traitsIcESaIcEEC1Ev
.LEHE51:
	add	x0, sp, 120
	add	x0, x0, 16
	ldr	x1, [sp, 80]
.LEHB52:
	bl	_ZN3dbg12pretty_printISt6vectorIS1_IiSaIiEESaIS3_EEEENSt9enable_ifIXsrNS_6detail12is_containerIRKT_EE5valueEbE4typeERSoSB_
	and	w0, w0, 255
	strb	w0, [sp, 79]
	add	x0, sp, 512
	bl	_ZNSt7__cxx1118basic_stringstreamIcSt11char_traitsIcESaIcEEC1Ev
.LEHE52:
	ldr	x0, [sp, 56]
	add	x1, x0, 8
	add	x0, sp, 512
	add	x0, x0, 16
.LEHB53:
	bl	_ZStlsIcSt11char_traitsIcESaIcEERSt13basic_ostreamIT_T0_ES7_RKNSt7__cxx1112basic_stringIS4_S5_T1_EE
	ldrb	w0, [sp, 79]
	cmp	w0, 0
	beq	.L328
	adrp	x0, .LC22
	add	x1, x0, :lo12:.LC22
	ldr	x0, [sp, 56]
	bl	_ZNK3dbg11DebugOutput4ansiEPKc
	mov	x1, x0
	add	x0, sp, 512
	add	x0, x0, 16
	bl	_ZStlsISt11char_traitsIcEERSt13basic_ostreamIcT_ES5_PKc
	mov	x2, x0
	ldr	x0, [sp, 48]
	ldr	x0, [x0]
	mov	x1, x0
	mov	x0, x2
	bl	_ZStlsISt11char_traitsIcEERSt13basic_ostreamIcT_ES5_PKc
	mov	x19, x0
	adrp	x0, .LC11
	add	x1, x0, :lo12:.LC11
	ldr	x0, [sp, 56]
	bl	_ZNK3dbg11DebugOutput4ansiEPKc
	mov	x1, x0
	mov	x0, x19
	bl	_ZStlsISt11char_traitsIcEERSt13basic_ostreamIcT_ES5_PKc
	mov	x2, x0
	adrp	x0, .LC23
	add	x1, x0, :lo12:.LC23
	mov	x0, x2
	bl	_ZStlsISt11char_traitsIcEERSt13basic_ostreamIcT_ES5_PKc
.L328:
	adrp	x0, .LC24
	add	x1, x0, :lo12:.LC24
	ldr	x0, [sp, 56]
	bl	_ZNK3dbg11DebugOutput4ansiEPKc
	mov	x1, x0
	add	x0, sp, 512
	add	x0, x0, 16
	bl	_ZStlsISt11char_traitsIcEERSt13basic_ostreamIcT_ES5_PKc
	mov	x19, x0
	add	x0, sp, 120
	add	x1, sp, 88
	mov	x8, x1
	bl	_ZNKSt7__cxx1118basic_stringstreamIcSt11char_traitsIcESaIcEE3strEv
.LEHE53:
	add	x0, sp, 88
	mov	x1, x0
	mov	x0, x19
.LEHB54:
	bl	_ZStlsIcSt11char_traitsIcESaIcEERSt13basic_ostreamIT_T0_ES7_RKNSt7__cxx1112basic_stringIS4_S5_T1_EE
	mov	x19, x0
	adrp	x0, .LC11
	add	x1, x0, :lo12:.LC11
	ldr	x0, [sp, 56]
	bl	_ZNK3dbg11DebugOutput4ansiEPKc
	mov	x1, x0
	mov	x0, x19
	bl	_ZStlsISt11char_traitsIcEERSt13basic_ostreamIcT_ES5_PKc
.LEHE54:
	add	x0, sp, 88
	bl	_ZNSt7__cxx1112basic_stringIcSt11char_traitsIcESaIcEED1Ev
	ldrb	w0, [sp, 79]
	cmp	w0, 0
	beq	.L329
	add	x0, sp, 512
	add	x2, x0, 16
	adrp	x0, .LC9
	add	x1, x0, :lo12:.LC9
	mov	x0, x2
.LEHB55:
	bl	_ZStlsISt11char_traitsIcEERSt13basic_ostreamIcT_ES5_PKc
	mov	x19, x0
	adrp	x0, .LC25
	add	x1, x0, :lo12:.LC25
	ldr	x0, [sp, 56]
	bl	_ZNK3dbg11DebugOutput4ansiEPKc
	mov	x1, x0
	mov	x0, x19
	bl	_ZStlsISt11char_traitsIcEERSt13basic_ostreamIcT_ES5_PKc
	ldr	x1, [sp, 40]
	bl	_ZStlsIcSt11char_traitsIcESaIcEERSt13basic_ostreamIT_T0_ES7_RKNSt7__cxx1112basic_stringIS4_S5_T1_EE
	mov	x19, x0
	adrp	x0, .LC11
	add	x1, x0, :lo12:.LC11
	ldr	x0, [sp, 56]
	bl	_ZNK3dbg11DebugOutput4ansiEPKc
	mov	x1, x0
	mov	x0, x19
	bl	_ZStlsISt11char_traitsIcEERSt13basic_ostreamIcT_ES5_PKc
	mov	x2, x0
	adrp	x0, .LC26
	add	x1, x0, :lo12:.LC26
	mov	x0, x2
	bl	_ZStlsISt11char_traitsIcEERSt13basic_ostreamIcT_ES5_PKc
.L329:
	add	x0, sp, 512
	add	x2, x0, 16
	adrp	x0, :got:_ZSt4endlIcSt11char_traitsIcEERSt13basic_ostreamIT_T0_ES6_
	ldr	x1, [x0, #:got_lo12:_ZSt4endlIcSt11char_traitsIcEERSt13basic_ostreamIT_T0_ES6_]
	mov	x0, x2
	bl	_ZNSolsEPFRSoS_E
	add	x0, sp, 512
	add	x1, sp, 88
	mov	x8, x1
	bl	_ZNKSt7__cxx1118basic_stringstreamIcSt11char_traitsIcESaIcEE3strEv
.LEHE55:
	add	x0, sp, 88
	mov	x1, x0
	adrp	x0, :got:_ZSt4cerr
	ldr	x0, [x0, #:got_lo12:_ZSt4cerr]
.LEHB56:
	bl	_ZStlsIcSt11char_traitsIcESaIcEERSt13basic_ostreamIT_T0_ES7_RKNSt7__cxx1112basic_stringIS4_S5_T1_EE
.LEHE56:
	add	x0, sp, 88
	bl	_ZNSt7__cxx1112basic_stringIcSt11char_traitsIcESaIcEED1Ev
	ldr	x0, [sp, 32]
	bl	_ZSt7forwardIRSt6vectorIS0_IiSaIiEESaIS2_EEEOT_RNSt16remove_referenceIS6_E4typeE
	mov	x19, x0
	nop
	add	x0, sp, 512
	bl	_ZNSt7__cxx1118basic_stringstreamIcSt11char_traitsIcESaIcEED1Ev
	add	x0, sp, 120
	bl	_ZNSt7__cxx1118basic_stringstreamIcSt11char_traitsIcESaIcEED1Ev
	mov	x1, x19
	adrp	x0, :got:__stack_chk_guard
	ldr	x0, [x0, #:got_lo12:__stack_chk_guard]
	ldr	x3, [sp, 904]
	ldr	x2, [x0]
	subs	x3, x3, x2
	mov	x2, 0
	beq	.L335
	b	.L340
.L338:
	mov	x19, x0
	add	x0, sp, 88
	bl	_ZNSt7__cxx1112basic_stringIcSt11char_traitsIcESaIcEED1Ev
	b	.L332
.L339:
	mov	x19, x0
	add	x0, sp, 88
	bl	_ZNSt7__cxx1112basic_stringIcSt11char_traitsIcESaIcEED1Ev
	b	.L332
.L337:
	mov	x19, x0
.L332:
	add	x0, sp, 512
	bl	_ZNSt7__cxx1118basic_stringstreamIcSt11char_traitsIcESaIcEED1Ev
	b	.L334
.L336:
	mov	x19, x0
.L334:
	add	x0, sp, 120
	bl	_ZNSt7__cxx1118basic_stringstreamIcSt11char_traitsIcESaIcEED1Ev
	mov	x0, x19
.LEHB57:
	bl	_Unwind_Resume
.LEHE57:
.L340:
	bl	__stack_chk_fail
.L335:
	mov	x0, x1
	ldr	x19, [sp, 16]
	ldp	x29, x30, [sp]
	add	sp, sp, 912
	.cfi_restore 29
	.cfi_restore 30
	.cfi_restore 19
	.cfi_def_cfa_offset 0
	ret
	.cfi_endproc
.LFE6155:
	.section	.gcc_except_table
.LLSDA6155:
	.byte	0xff
	.byte	0xff
	.byte	0x1
	.uleb128 .LLSDACSE6155-.LLSDACSB6155
.LLSDACSB6155:
	.uleb128 .LEHB51-.LFB6155
	.uleb128 .LEHE51-.LEHB51
	.uleb128 0
	.uleb128 0
	.uleb128 .LEHB52-.LFB6155
	.uleb128 .LEHE52-.LEHB52
	.uleb128 .L336-.LFB6155
	.uleb128 0
	.uleb128 .LEHB53-.LFB6155
	.uleb128 .LEHE53-.LEHB53
	.uleb128 .L337-.LFB6155
	.uleb128 0
	.uleb128 .LEHB54-.LFB6155
	.uleb128 .LEHE54-.LEHB54
	.uleb128 .L338-.LFB6155
	.uleb128 0
	.uleb128 .LEHB55-.LFB6155
	.uleb128 .LEHE55-.LEHB55
	.uleb128 .L337-.LFB6155
	.uleb128 0
	.uleb128 .LEHB56-.LFB6155
	.uleb128 .LEHE56-.LEHB56
	.uleb128 .L339-.LFB6155
	.uleb128 0
	.uleb128 .LEHB57-.LFB6155
	.uleb128 .LEHE57-.LEHB57
	.uleb128 0
	.uleb128 0
.LLSDACSE6155:
	.section	.text._ZN3dbg11DebugOutput10print_implIRSt6vectorIS2_IiSaIiEESaIS4_EEEEOT_PKPKcPKNSt7__cxx1112basic_stringIcSt11char_traitsIcESaIcEEES9_,"axG",@progbits,_ZN3dbg11DebugOutput10print_implIRSt6vectorIS2_IiSaIiEESaIS4_EEEEOT_PKPKcPKNSt7__cxx1112basic_stringIcSt11char_traitsIcESaIcEEES9_,comdat
	.size	_ZN3dbg11DebugOutput10print_implIRSt6vectorIS2_IiSaIiEESaIS4_EEEEOT_PKPKcPKNSt7__cxx1112basic_stringIcSt11char_traitsIcESaIcEEES9_, .-_ZN3dbg11DebugOutput10print_implIRSt6vectorIS2_IiSaIiEESaIS4_EEEEOT_PKPKcPKNSt7__cxx1112basic_stringIcSt11char_traitsIcESaIcEEES9_
	.section	.text._ZN9__gnu_cxx17__is_null_pointerIKcEEbPT_,"axG",@progbits,_ZN9__gnu_cxx17__is_null_pointerIKcEEbPT_,comdat
	.align	2
	.weak	_ZN9__gnu_cxx17__is_null_pointerIKcEEbPT_
	.type	_ZN9__gnu_cxx17__is_null_pointerIKcEEbPT_, %function
_ZN9__gnu_cxx17__is_null_pointerIKcEEbPT_:
.LFB6192:
	.cfi_startproc
	sub	sp, sp, #16
	.cfi_def_cfa_offset 16
	str	x0, [sp, 8]
	ldr	x0, [sp, 8]
	cmp	x0, 0
	cset	w0, eq
	and	w0, w0, 255
	add	sp, sp, 16
	.cfi_def_cfa_offset 0
	ret
	.cfi_endproc
.LFE6192:
	.size	_ZN9__gnu_cxx17__is_null_pointerIKcEEbPT_, .-_ZN9__gnu_cxx17__is_null_pointerIKcEEbPT_
	.section	.text._ZSt19__iterator_categoryIPKcENSt15iterator_traitsIT_E17iterator_categoryERKS3_,"axG",@progbits,_ZSt19__iterator_categoryIPKcENSt15iterator_traitsIT_E17iterator_categoryERKS3_,comdat
	.align	2
	.weak	_ZSt19__iterator_categoryIPKcENSt15iterator_traitsIT_E17iterator_categoryERKS3_
	.type	_ZSt19__iterator_categoryIPKcENSt15iterator_traitsIT_E17iterator_categoryERKS3_, %function
_ZSt19__iterator_categoryIPKcENSt15iterator_traitsIT_E17iterator_categoryERKS3_:
.LFB6193:
	.cfi_startproc
	sub	sp, sp, #16
	.cfi_def_cfa_offset 16
	str	x0, [sp, 8]
	mov	w0, w1
	add	sp, sp, 16
	.cfi_def_cfa_offset 0
	ret
	.cfi_endproc
.LFE6193:
	.size	_ZSt19__iterator_categoryIPKcENSt15iterator_traitsIT_E17iterator_categoryERKS3_, .-_ZSt19__iterator_categoryIPKcENSt15iterator_traitsIT_E17iterator_categoryERKS3_
	.section	.text._ZSt10__distanceIPKcENSt15iterator_traitsIT_E15difference_typeES3_S3_St26random_access_iterator_tag,"axG",@progbits,_ZSt10__distanceIPKcENSt15iterator_traitsIT_E15difference_typeES3_S3_St26random_access_iterator_tag,comdat
	.align	2
	.weak	_ZSt10__distanceIPKcENSt15iterator_traitsIT_E15difference_typeES3_S3_St26random_access_iterator_tag
	.type	_ZSt10__distanceIPKcENSt15iterator_traitsIT_E15difference_typeES3_S3_St26random_access_iterator_tag, %function
_ZSt10__distanceIPKcENSt15iterator_traitsIT_E15difference_typeES3_S3_St26random_access_iterator_tag:
.LFB6194:
	.cfi_startproc
	sub	sp, sp, #32
	.cfi_def_cfa_offset 32
	str	x0, [sp, 24]
	str	x1, [sp, 16]
	strb	w2, [sp, 8]
	ldr	x1, [sp, 16]
	ldr	x0, [sp, 24]
	sub	x0, x1, x0
	add	sp, sp, 32
	.cfi_def_cfa_offset 0
	ret
	.cfi_endproc
.LFE6194:
	.size	_ZSt10__distanceIPKcENSt15iterator_traitsIT_E15difference_typeES3_S3_St26random_access_iterator_tag, .-_ZSt10__distanceIPKcENSt15iterator_traitsIT_E15difference_typeES3_S3_St26random_access_iterator_tag
	.section	.text._ZNSt12_Vector_baseIiSaIiEE12_Vector_implC2ERKS0_,"axG",@progbits,_ZNSt12_Vector_baseIiSaIiEE12_Vector_implC5ERKS0_,comdat
	.align	2
	.weak	_ZNSt12_Vector_baseIiSaIiEE12_Vector_implC2ERKS0_
	.type	_ZNSt12_Vector_baseIiSaIiEE12_Vector_implC2ERKS0_, %function
_ZNSt12_Vector_baseIiSaIiEE12_Vector_implC2ERKS0_:
.LFB6233:
	.cfi_startproc
	stp	x29, x30, [sp, -32]!
	.cfi_def_cfa_offset 32
	.cfi_offset 29, -32
	.cfi_offset 30, -24
	mov	x29, sp
	str	x0, [sp, 24]
	str	x1, [sp, 16]
	ldr	x1, [sp, 16]
	ldr	x0, [sp, 24]
	bl	_ZNSaIiEC2ERKS_
	ldr	x0, [sp, 24]
	bl	_ZNSt12_Vector_baseIiSaIiEE17_Vector_impl_dataC2Ev
	nop
	ldp	x29, x30, [sp], 32
	.cfi_restore 30
	.cfi_restore 29
	.cfi_def_cfa_offset 0
	ret
	.cfi_endproc
.LFE6233:
	.size	_ZNSt12_Vector_baseIiSaIiEE12_Vector_implC2ERKS0_, .-_ZNSt12_Vector_baseIiSaIiEE12_Vector_implC2ERKS0_
	.weak	_ZNSt12_Vector_baseIiSaIiEE12_Vector_implC1ERKS0_
	.set	_ZNSt12_Vector_baseIiSaIiEE12_Vector_implC1ERKS0_,_ZNSt12_Vector_baseIiSaIiEE12_Vector_implC2ERKS0_
	.section	.text._ZNSt12_Vector_baseIiSaIiEE13_M_deallocateEPim,"axG",@progbits,_ZNSt12_Vector_baseIiSaIiEE13_M_deallocateEPim,comdat
	.align	2
	.weak	_ZNSt12_Vector_baseIiSaIiEE13_M_deallocateEPim
	.type	_ZNSt12_Vector_baseIiSaIiEE13_M_deallocateEPim, %function
_ZNSt12_Vector_baseIiSaIiEE13_M_deallocateEPim:
.LFB6235:
	.cfi_startproc
	stp	x29, x30, [sp, -48]!
	.cfi_def_cfa_offset 48
	.cfi_offset 29, -48
	.cfi_offset 30, -40
	mov	x29, sp
	str	x0, [sp, 40]
	str	x1, [sp, 32]
	str	x2, [sp, 24]
	ldr	x0, [sp, 32]
	cmp	x0, 0
	beq	.L350
	ldr	x0, [sp, 40]
	ldr	x2, [sp, 24]
	ldr	x1, [sp, 32]
	bl	_ZNSt16allocator_traitsISaIiEE10deallocateERS0_Pim
.L350:
	nop
	ldp	x29, x30, [sp], 48
	.cfi_restore 30
	.cfi_restore 29
	.cfi_def_cfa_offset 0
	ret
	.cfi_endproc
.LFE6235:
	.size	_ZNSt12_Vector_baseIiSaIiEE13_M_deallocateEPim, .-_ZNSt12_Vector_baseIiSaIiEE13_M_deallocateEPim
	.section	.text._ZNKSt16initializer_listIiE4sizeEv,"axG",@progbits,_ZNKSt16initializer_listIiE4sizeEv,comdat
	.align	2
	.weak	_ZNKSt16initializer_listIiE4sizeEv
	.type	_ZNKSt16initializer_listIiE4sizeEv, %function
_ZNKSt16initializer_listIiE4sizeEv:
.LFB6236:
	.cfi_startproc
	sub	sp, sp, #16
	.cfi_def_cfa_offset 16
	str	x0, [sp, 8]
	ldr	x0, [sp, 8]
	ldr	x0, [x0, 8]
	add	sp, sp, 16
	.cfi_def_cfa_offset 0
	ret
	.cfi_endproc
.LFE6236:
	.size	_ZNKSt16initializer_listIiE4sizeEv, .-_ZNKSt16initializer_listIiE4sizeEv
	.section	.text._ZSt19__iterator_categoryIPKiENSt15iterator_traitsIT_E17iterator_categoryERKS3_,"axG",@progbits,_ZSt19__iterator_categoryIPKiENSt15iterator_traitsIT_E17iterator_categoryERKS3_,comdat
	.align	2
	.weak	_ZSt19__iterator_categoryIPKiENSt15iterator_traitsIT_E17iterator_categoryERKS3_
	.type	_ZSt19__iterator_categoryIPKiENSt15iterator_traitsIT_E17iterator_categoryERKS3_, %function
_ZSt19__iterator_categoryIPKiENSt15iterator_traitsIT_E17iterator_categoryERKS3_:
.LFB6237:
	.cfi_startproc
	sub	sp, sp, #16
	.cfi_def_cfa_offset 16
	str	x0, [sp, 8]
	mov	w0, w1
	add	sp, sp, 16
	.cfi_def_cfa_offset 0
	ret
	.cfi_endproc
.LFE6237:
	.size	_ZSt19__iterator_categoryIPKiENSt15iterator_traitsIT_E17iterator_categoryERKS3_, .-_ZSt19__iterator_categoryIPKiENSt15iterator_traitsIT_E17iterator_categoryERKS3_
	.section	.text._ZSt10__distanceIPKiENSt15iterator_traitsIT_E15difference_typeES3_S3_St26random_access_iterator_tag,"axG",@progbits,_ZSt10__distanceIPKiENSt15iterator_traitsIT_E15difference_typeES3_S3_St26random_access_iterator_tag,comdat
	.align	2
	.weak	_ZSt10__distanceIPKiENSt15iterator_traitsIT_E15difference_typeES3_S3_St26random_access_iterator_tag
	.type	_ZSt10__distanceIPKiENSt15iterator_traitsIT_E15difference_typeES3_S3_St26random_access_iterator_tag, %function
_ZSt10__distanceIPKiENSt15iterator_traitsIT_E15difference_typeES3_S3_St26random_access_iterator_tag:
.LFB6238:
	.cfi_startproc
	sub	sp, sp, #32
	.cfi_def_cfa_offset 32
	str	x0, [sp, 24]
	str	x1, [sp, 16]
	strb	w2, [sp, 8]
	ldr	x1, [sp, 16]
	ldr	x0, [sp, 24]
	sub	x0, x1, x0
	asr	x0, x0, 2
	add	sp, sp, 32
	.cfi_def_cfa_offset 0
	ret
	.cfi_endproc
.LFE6238:
	.size	_ZSt10__distanceIPKiENSt15iterator_traitsIT_E15difference_typeES3_S3_St26random_access_iterator_tag, .-_ZSt10__distanceIPKiENSt15iterator_traitsIT_E15difference_typeES3_S3_St26random_access_iterator_tag
	.section	.text._ZNSt6vectorIiSaIiEE17_S_check_init_lenEmRKS0_,"axG",@progbits,_ZNSt6vectorIiSaIiEE17_S_check_init_lenEmRKS0_,comdat
	.align	2
	.weak	_ZNSt6vectorIiSaIiEE17_S_check_init_lenEmRKS0_
	.type	_ZNSt6vectorIiSaIiEE17_S_check_init_lenEmRKS0_, %function
_ZNSt6vectorIiSaIiEE17_S_check_init_lenEmRKS0_:
.LFB6239:
	.cfi_startproc
	stp	x29, x30, [sp, -64]!
	.cfi_def_cfa_offset 64
	.cfi_offset 29, -64
	.cfi_offset 30, -56
	mov	x29, sp
	str	x19, [sp, 16]
	.cfi_offset 19, -48
	str	x0, [sp, 40]
	str	x1, [sp, 32]
	adrp	x0, :got:__stack_chk_guard
	ldr	x0, [x0, #:got_lo12:__stack_chk_guard]
	ldr	x1, [x0]
	str	x1, [sp, 56]
	mov	x1, 0
	add	x0, sp, 48
	ldr	x1, [sp, 32]
	bl	_ZNSaIiEC1ERKS_
	add	x0, sp, 48
	bl	_ZNSt6vectorIiSaIiEE11_S_max_sizeERKS0_
	mov	x1, x0
	ldr	x0, [sp, 40]
	cmp	x0, x1
	cset	w0, hi
	and	w19, w0, 255
	add	x0, sp, 48
	bl	_ZNSaIiED1Ev
	cmp	w19, 0
	beq	.L358
	adrp	x0, .LC19
	add	x0, x0, :lo12:.LC19
	bl	_ZSt20__throw_length_errorPKc
.L358:
	ldr	x0, [sp, 40]
	mov	x1, x0
	adrp	x0, :got:__stack_chk_guard
	ldr	x0, [x0, #:got_lo12:__stack_chk_guard]
	ldr	x3, [sp, 56]
	ldr	x2, [x0]
	subs	x3, x3, x2
	mov	x2, 0
	beq	.L360
	bl	__stack_chk_fail
.L360:
	mov	x0, x1
	ldr	x19, [sp, 16]
	ldp	x29, x30, [sp], 64
	.cfi_restore 30
	.cfi_restore 29
	.cfi_restore 19
	.cfi_def_cfa_offset 0
	ret
	.cfi_endproc
.LFE6239:
	.size	_ZNSt6vectorIiSaIiEE17_S_check_init_lenEmRKS0_, .-_ZNSt6vectorIiSaIiEE17_S_check_init_lenEmRKS0_
	.section	.text._ZNSt12_Vector_baseIiSaIiEE11_M_allocateEm,"axG",@progbits,_ZNSt12_Vector_baseIiSaIiEE11_M_allocateEm,comdat
	.align	2
	.weak	_ZNSt12_Vector_baseIiSaIiEE11_M_allocateEm
	.type	_ZNSt12_Vector_baseIiSaIiEE11_M_allocateEm, %function
_ZNSt12_Vector_baseIiSaIiEE11_M_allocateEm:
.LFB6240:
	.cfi_startproc
	stp	x29, x30, [sp, -32]!
	.cfi_def_cfa_offset 32
	.cfi_offset 29, -32
	.cfi_offset 30, -24
	mov	x29, sp
	str	x0, [sp, 24]
	str	x1, [sp, 16]
	ldr	x0, [sp, 16]
	cmp	x0, 0
	beq	.L362
	ldr	x0, [sp, 24]
	ldr	x1, [sp, 16]
	bl	_ZNSt16allocator_traitsISaIiEE8allocateERS0_m
	b	.L364
.L362:
	mov	x0, 0
.L364:
	ldp	x29, x30, [sp], 32
	.cfi_restore 30
	.cfi_restore 29
	.cfi_def_cfa_offset 0
	ret
	.cfi_endproc
.LFE6240:
	.size	_ZNSt12_Vector_baseIiSaIiEE11_M_allocateEm, .-_ZNSt12_Vector_baseIiSaIiEE11_M_allocateEm
	.section	.text._ZSt22__uninitialized_copy_aIPKiPiiET0_T_S4_S3_RSaIT1_E,"axG",@progbits,_ZSt22__uninitialized_copy_aIPKiPiiET0_T_S4_S3_RSaIT1_E,comdat
	.align	2
	.weak	_ZSt22__uninitialized_copy_aIPKiPiiET0_T_S4_S3_RSaIT1_E
	.type	_ZSt22__uninitialized_copy_aIPKiPiiET0_T_S4_S3_RSaIT1_E, %function
_ZSt22__uninitialized_copy_aIPKiPiiET0_T_S4_S3_RSaIT1_E:
.LFB6241:
	.cfi_startproc
	stp	x29, x30, [sp, -48]!
	.cfi_def_cfa_offset 48
	.cfi_offset 29, -48
	.cfi_offset 30, -40
	mov	x29, sp
	str	x0, [sp, 40]
	str	x1, [sp, 32]
	str	x2, [sp, 24]
	str	x3, [sp, 16]
	ldr	x2, [sp, 24]
	ldr	x1, [sp, 32]
	ldr	x0, [sp, 40]
	bl	_ZSt18uninitialized_copyIPKiPiET0_T_S4_S3_
	ldp	x29, x30, [sp], 48
	.cfi_restore 30
	.cfi_restore 29
	.cfi_def_cfa_offset 0
	ret
	.cfi_endproc
.LFE6241:
	.size	_ZSt22__uninitialized_copy_aIPKiPiiET0_T_S4_S3_RSaIT1_E, .-_ZSt22__uninitialized_copy_aIPKiPiiET0_T_S4_S3_RSaIT1_E
	.section	.text._ZNSaImEC2IbEERKSaIT_E,"axG",@progbits,_ZNSaImEC5IbEERKSaIT_E,comdat
	.align	2
	.weak	_ZNSaImEC2IbEERKSaIT_E
	.type	_ZNSaImEC2IbEERKSaIT_E, %function
_ZNSaImEC2IbEERKSaIT_E:
.LFB6243:
	.cfi_startproc
	stp	x29, x30, [sp, -32]!
	.cfi_def_cfa_offset 32
	.cfi_offset 29, -32
	.cfi_offset 30, -24
	mov	x29, sp
	str	x0, [sp, 24]
	str	x1, [sp, 16]
	ldr	x0, [sp, 24]
	bl	_ZN9__gnu_cxx13new_allocatorImEC2Ev
	nop
	ldp	x29, x30, [sp], 32
	.cfi_restore 30
	.cfi_restore 29
	.cfi_def_cfa_offset 0
	ret
	.cfi_endproc
.LFE6243:
	.size	_ZNSaImEC2IbEERKSaIT_E, .-_ZNSaImEC2IbEERKSaIT_E
	.weak	_ZNSaImEC1IbEERKSaIT_E
	.set	_ZNSaImEC1IbEERKSaIT_E,_ZNSaImEC2IbEERKSaIT_E
	.section	.text._ZNSaImED2Ev,"axG",@progbits,_ZNSaImED5Ev,comdat
	.align	2
	.weak	_ZNSaImED2Ev
	.type	_ZNSaImED2Ev, %function
_ZNSaImED2Ev:
.LFB6246:
	.cfi_startproc
	stp	x29, x30, [sp, -32]!
	.cfi_def_cfa_offset 32
	.cfi_offset 29, -32
	.cfi_offset 30, -24
	mov	x29, sp
	str	x0, [sp, 24]
	ldr	x0, [sp, 24]
	bl	_ZN9__gnu_cxx13new_allocatorImED2Ev
	nop
	ldp	x29, x30, [sp], 32
	.cfi_restore 30
	.cfi_restore 29
	.cfi_def_cfa_offset 0
	ret
	.cfi_endproc
.LFE6246:
	.size	_ZNSaImED2Ev, .-_ZNSaImED2Ev
	.weak	_ZNSaImED1Ev
	.set	_ZNSaImED1Ev,_ZNSaImED2Ev
	.section	.text._ZNSt13_Bvector_baseISaIbEE13_Bvector_implC2ERKSaImE,"axG",@progbits,_ZNSt13_Bvector_baseISaIbEE13_Bvector_implC5ERKSaImE,comdat
	.align	2
	.weak	_ZNSt13_Bvector_baseISaIbEE13_Bvector_implC2ERKSaImE
	.type	_ZNSt13_Bvector_baseISaIbEE13_Bvector_implC2ERKSaImE, %function
_ZNSt13_Bvector_baseISaIbEE13_Bvector_implC2ERKSaImE:
.LFB6249:
	.cfi_startproc
	stp	x29, x30, [sp, -32]!
	.cfi_def_cfa_offset 32
	.cfi_offset 29, -32
	.cfi_offset 30, -24
	mov	x29, sp
	str	x0, [sp, 24]
	str	x1, [sp, 16]
	ldr	x1, [sp, 16]
	ldr	x0, [sp, 24]
	bl	_ZNSaImEC2ERKS_
	ldr	x0, [sp, 24]
	bl	_ZNSt13_Bvector_baseISaIbEE18_Bvector_impl_dataC2Ev
	nop
	ldp	x29, x30, [sp], 32
	.cfi_restore 30
	.cfi_restore 29
	.cfi_def_cfa_offset 0
	ret
	.cfi_endproc
.LFE6249:
	.size	_ZNSt13_Bvector_baseISaIbEE13_Bvector_implC2ERKSaImE, .-_ZNSt13_Bvector_baseISaIbEE13_Bvector_implC2ERKSaImE
	.weak	_ZNSt13_Bvector_baseISaIbEE13_Bvector_implC1ERKSaImE
	.set	_ZNSt13_Bvector_baseISaIbEE13_Bvector_implC1ERKSaImE,_ZNSt13_Bvector_baseISaIbEE13_Bvector_implC2ERKSaImE
	.section	.text._ZNSt13_Bvector_baseISaIbEE13_M_deallocateEv,"axG",@progbits,_ZNSt13_Bvector_baseISaIbEE13_M_deallocateEv,comdat
	.align	2
	.weak	_ZNSt13_Bvector_baseISaIbEE13_M_deallocateEv
	.type	_ZNSt13_Bvector_baseISaIbEE13_M_deallocateEv, %function
_ZNSt13_Bvector_baseISaIbEE13_M_deallocateEv:
.LFB6251:
	.cfi_startproc
	stp	x29, x30, [sp, -48]!
	.cfi_def_cfa_offset 48
	.cfi_offset 29, -48
	.cfi_offset 30, -40
	mov	x29, sp
	str	x0, [sp, 24]
	ldr	x0, [sp, 24]
	ldr	x0, [x0]
	cmp	x0, 0
	beq	.L372
	ldr	x0, [sp, 24]
	bl	_ZNKSt13_Bvector_baseISaIbEE13_Bvector_impl11_M_end_addrEv
	mov	x1, x0
	ldr	x0, [sp, 24]
	ldr	x0, [x0]
	sub	x0, x1, x0
	asr	x0, x0, 3
	str	x0, [sp, 40]
	ldr	x3, [sp, 24]
	ldr	x0, [sp, 24]
	ldr	x1, [x0, 32]
	ldr	x0, [sp, 40]
	lsl	x0, x0, 3
	neg	x0, x0
	add	x0, x1, x0
	ldr	x2, [sp, 40]
	mov	x1, x0
	mov	x0, x3
	bl	_ZNSt16allocator_traitsISaImEE10deallocateERS0_Pmm
	ldr	x0, [sp, 24]
	bl	_ZNSt13_Bvector_baseISaIbEE18_Bvector_impl_data8_M_resetEv
.L372:
	nop
	ldp	x29, x30, [sp], 48
	.cfi_restore 30
	.cfi_restore 29
	.cfi_def_cfa_offset 0
	ret
	.cfi_endproc
.LFE6251:
	.size	_ZNSt13_Bvector_baseISaIbEE13_M_deallocateEv, .-_ZNSt13_Bvector_baseISaIbEE13_M_deallocateEv
	.section	.text._ZNSt13_Bvector_baseISaIbEE11_M_allocateEm,"axG",@progbits,_ZNSt13_Bvector_baseISaIbEE11_M_allocateEm,comdat
	.align	2
	.weak	_ZNSt13_Bvector_baseISaIbEE11_M_allocateEm
	.type	_ZNSt13_Bvector_baseISaIbEE11_M_allocateEm, %function
_ZNSt13_Bvector_baseISaIbEE11_M_allocateEm:
.LFB6252:
	.cfi_startproc
	stp	x29, x30, [sp, -48]!
	.cfi_def_cfa_offset 48
	.cfi_offset 29, -48
	.cfi_offset 30, -40
	mov	x29, sp
	str	x19, [sp, 16]
	.cfi_offset 19, -32
	str	x0, [sp, 40]
	str	x1, [sp, 32]
	ldr	x19, [sp, 40]
	ldr	x0, [sp, 32]
	bl	_ZNSt13_Bvector_baseISaIbEE8_S_nwordEm
	mov	x1, x0
	mov	x0, x19
	bl	_ZNSt16allocator_traitsISaImEE8allocateERS0_m
	ldr	x19, [sp, 16]
	ldp	x29, x30, [sp], 48
	.cfi_restore 30
	.cfi_restore 29
	.cfi_restore 19
	.cfi_def_cfa_offset 0
	ret
	.cfi_endproc
.LFE6252:
	.size	_ZNSt13_Bvector_baseISaIbEE11_M_allocateEm, .-_ZNSt13_Bvector_baseISaIbEE11_M_allocateEm
	.section	.text._ZNSt13_Bvector_baseISaIbEE8_S_nwordEm,"axG",@progbits,_ZNSt13_Bvector_baseISaIbEE8_S_nwordEm,comdat
	.align	2
	.weak	_ZNSt13_Bvector_baseISaIbEE8_S_nwordEm
	.type	_ZNSt13_Bvector_baseISaIbEE8_S_nwordEm, %function
_ZNSt13_Bvector_baseISaIbEE8_S_nwordEm:
.LFB6253:
	.cfi_startproc
	sub	sp, sp, #16
	.cfi_def_cfa_offset 16
	str	x0, [sp, 8]
	ldr	x0, [sp, 8]
	add	x0, x0, 63
	lsr	x0, x0, 6
	add	sp, sp, 16
	.cfi_def_cfa_offset 0
	ret
	.cfi_endproc
.LFE6253:
	.size	_ZNSt13_Bvector_baseISaIbEE8_S_nwordEm, .-_ZNSt13_Bvector_baseISaIbEE8_S_nwordEm
	.section	.text._ZSt11__addressofImEPT_RS0_,"axG",@progbits,_ZSt11__addressofImEPT_RS0_,comdat
	.align	2
	.weak	_ZSt11__addressofImEPT_RS0_
	.type	_ZSt11__addressofImEPT_RS0_, %function
_ZSt11__addressofImEPT_RS0_:
.LFB6254:
	.cfi_startproc
	sub	sp, sp, #16
	.cfi_def_cfa_offset 16
	str	x0, [sp, 8]
	ldr	x0, [sp, 8]
	add	sp, sp, 16
	.cfi_def_cfa_offset 0
	ret
	.cfi_endproc
.LFE6254:
	.size	_ZSt11__addressofImEPT_RS0_, .-_ZSt11__addressofImEPT_RS0_
	.section	.text._ZNKSt13_Bvector_baseISaIbEE13_Bvector_impl11_M_end_addrEv,"axG",@progbits,_ZNKSt13_Bvector_baseISaIbEE13_Bvector_impl11_M_end_addrEv,comdat
	.align	2
	.weak	_ZNKSt13_Bvector_baseISaIbEE13_Bvector_impl11_M_end_addrEv
	.type	_ZNKSt13_Bvector_baseISaIbEE13_Bvector_impl11_M_end_addrEv, %function
_ZNKSt13_Bvector_baseISaIbEE13_Bvector_impl11_M_end_addrEv:
.LFB6255:
	.cfi_startproc
	stp	x29, x30, [sp, -32]!
	.cfi_def_cfa_offset 32
	.cfi_offset 29, -32
	.cfi_offset 30, -24
	mov	x29, sp
	str	x0, [sp, 24]
	ldr	x0, [sp, 24]
	ldr	x0, [x0, 32]
	cmp	x0, 0
	beq	.L380
	ldr	x0, [sp, 24]
	ldr	x0, [x0, 32]
	sub	x0, x0, #8
	bl	_ZSt11__addressofImEPT_RS0_
	add	x0, x0, 8
	b	.L381
.L380:
	mov	x0, 0
.L381:
	ldp	x29, x30, [sp], 32
	.cfi_restore 30
	.cfi_restore 29
	.cfi_def_cfa_offset 0
	ret
	.cfi_endproc
.LFE6255:
	.size	_ZNKSt13_Bvector_baseISaIbEE13_Bvector_impl11_M_end_addrEv, .-_ZNKSt13_Bvector_baseISaIbEE13_Bvector_impl11_M_end_addrEv
	.section	.text._ZNSt6vectorIS_IbSaIbEESaIS1_EE11_S_max_sizeERKS2_,"axG",@progbits,_ZNSt6vectorIS_IbSaIbEESaIS1_EE11_S_max_sizeERKS2_,comdat
	.align	2
	.weak	_ZNSt6vectorIS_IbSaIbEESaIS1_EE11_S_max_sizeERKS2_
	.type	_ZNSt6vectorIS_IbSaIbEESaIS1_EE11_S_max_sizeERKS2_, %function
_ZNSt6vectorIS_IbSaIbEESaIS1_EE11_S_max_sizeERKS2_:
.LFB6256:
	.cfi_startproc
	stp	x29, x30, [sp, -64]!
	.cfi_def_cfa_offset 64
	.cfi_offset 29, -64
	.cfi_offset 30, -56
	mov	x29, sp
	str	x0, [sp, 24]
	adrp	x0, :got:__stack_chk_guard
	ldr	x0, [x0, #:got_lo12:__stack_chk_guard]
	ldr	x1, [x0]
	str	x1, [sp, 56]
	mov	x1, 0
	mov	x0, 3689348814741910323
	movk	x0, 0x333, lsl 48
	str	x0, [sp, 40]
	ldr	x0, [sp, 24]
	bl	_ZNSt16allocator_traitsISaISt6vectorIbSaIbEEEE8max_sizeERKS3_
	str	x0, [sp, 48]
	add	x1, sp, 48
	add	x0, sp, 40
	bl	_ZSt3minImERKT_S2_S2_
	ldr	x0, [x0]
	mov	x1, x0
	adrp	x0, :got:__stack_chk_guard
	ldr	x0, [x0, #:got_lo12:__stack_chk_guard]
	ldr	x3, [sp, 56]
	ldr	x2, [x0]
	subs	x3, x3, x2
	mov	x2, 0
	beq	.L384
	bl	__stack_chk_fail
.L384:
	mov	x0, x1
	ldp	x29, x30, [sp], 64
	.cfi_restore 30
	.cfi_restore 29
	.cfi_def_cfa_offset 0
	ret
	.cfi_endproc
.LFE6256:
	.size	_ZNSt6vectorIS_IbSaIbEESaIS1_EE11_S_max_sizeERKS2_, .-_ZNSt6vectorIS_IbSaIbEESaIS1_EE11_S_max_sizeERKS2_
	.section	.text._ZNSaISt6vectorIbSaIbEEEC2ERKS2_,"axG",@progbits,_ZNSaISt6vectorIbSaIbEEEC5ERKS2_,comdat
	.align	2
	.weak	_ZNSaISt6vectorIbSaIbEEEC2ERKS2_
	.type	_ZNSaISt6vectorIbSaIbEEEC2ERKS2_, %function
_ZNSaISt6vectorIbSaIbEEEC2ERKS2_:
.LFB6258:
	.cfi_startproc
	stp	x29, x30, [sp, -32]!
	.cfi_def_cfa_offset 32
	.cfi_offset 29, -32
	.cfi_offset 30, -24
	mov	x29, sp
	str	x0, [sp, 24]
	str	x1, [sp, 16]
	ldr	x1, [sp, 16]
	ldr	x0, [sp, 24]
	bl	_ZN9__gnu_cxx13new_allocatorISt6vectorIbSaIbEEEC2ERKS4_
	nop
	ldp	x29, x30, [sp], 32
	.cfi_restore 30
	.cfi_restore 29
	.cfi_def_cfa_offset 0
	ret
	.cfi_endproc
.LFE6258:
	.size	_ZNSaISt6vectorIbSaIbEEEC2ERKS2_, .-_ZNSaISt6vectorIbSaIbEEEC2ERKS2_
	.weak	_ZNSaISt6vectorIbSaIbEEEC1ERKS2_
	.set	_ZNSaISt6vectorIbSaIbEEEC1ERKS2_,_ZNSaISt6vectorIbSaIbEEEC2ERKS2_
	.section	.text._ZNSt12_Vector_baseISt6vectorIbSaIbEESaIS2_EE12_Vector_implC2ERKS3_,"axG",@progbits,_ZNSt12_Vector_baseISt6vectorIbSaIbEESaIS2_EE12_Vector_implC5ERKS3_,comdat
	.align	2
	.weak	_ZNSt12_Vector_baseISt6vectorIbSaIbEESaIS2_EE12_Vector_implC2ERKS3_
	.type	_ZNSt12_Vector_baseISt6vectorIbSaIbEESaIS2_EE12_Vector_implC2ERKS3_, %function
_ZNSt12_Vector_baseISt6vectorIbSaIbEESaIS2_EE12_Vector_implC2ERKS3_:
.LFB6261:
	.cfi_startproc
	stp	x29, x30, [sp, -32]!
	.cfi_def_cfa_offset 32
	.cfi_offset 29, -32
	.cfi_offset 30, -24
	mov	x29, sp
	str	x0, [sp, 24]
	str	x1, [sp, 16]
	ldr	x1, [sp, 16]
	ldr	x0, [sp, 24]
	bl	_ZNSaISt6vectorIbSaIbEEEC2ERKS2_
	ldr	x0, [sp, 24]
	bl	_ZNSt12_Vector_baseISt6vectorIbSaIbEESaIS2_EE17_Vector_impl_dataC2Ev
	nop
	ldp	x29, x30, [sp], 32
	.cfi_restore 30
	.cfi_restore 29
	.cfi_def_cfa_offset 0
	ret
	.cfi_endproc
.LFE6261:
	.size	_ZNSt12_Vector_baseISt6vectorIbSaIbEESaIS2_EE12_Vector_implC2ERKS3_, .-_ZNSt12_Vector_baseISt6vectorIbSaIbEESaIS2_EE12_Vector_implC2ERKS3_
	.weak	_ZNSt12_Vector_baseISt6vectorIbSaIbEESaIS2_EE12_Vector_implC1ERKS3_
	.set	_ZNSt12_Vector_baseISt6vectorIbSaIbEESaIS2_EE12_Vector_implC1ERKS3_,_ZNSt12_Vector_baseISt6vectorIbSaIbEESaIS2_EE12_Vector_implC2ERKS3_
	.section	.text._ZNSt12_Vector_baseISt6vectorIbSaIbEESaIS2_EE17_M_create_storageEm,"axG",@progbits,_ZNSt12_Vector_baseISt6vectorIbSaIbEESaIS2_EE17_M_create_storageEm,comdat
	.align	2
	.weak	_ZNSt12_Vector_baseISt6vectorIbSaIbEESaIS2_EE17_M_create_storageEm
	.type	_ZNSt12_Vector_baseISt6vectorIbSaIbEESaIS2_EE17_M_create_storageEm, %function
_ZNSt12_Vector_baseISt6vectorIbSaIbEESaIS2_EE17_M_create_storageEm:
.LFB6263:
	.cfi_startproc
	stp	x29, x30, [sp, -32]!
	.cfi_def_cfa_offset 32
	.cfi_offset 29, -32
	.cfi_offset 30, -24
	mov	x29, sp
	str	x0, [sp, 24]
	str	x1, [sp, 16]
	ldr	x1, [sp, 16]
	ldr	x0, [sp, 24]
	bl	_ZNSt12_Vector_baseISt6vectorIbSaIbEESaIS2_EE11_M_allocateEm
	mov	x1, x0
	ldr	x0, [sp, 24]
	str	x1, [x0]
	ldr	x0, [sp, 24]
	ldr	x1, [x0]
	ldr	x0, [sp, 24]
	str	x1, [x0, 8]
	ldr	x0, [sp, 24]
	ldr	x2, [x0]
	ldr	x1, [sp, 16]
	mov	x0, x1
	lsl	x0, x0, 2
	add	x0, x0, x1
	lsl	x0, x0, 3
	add	x1, x2, x0
	ldr	x0, [sp, 24]
	str	x1, [x0, 16]
	nop
	ldp	x29, x30, [sp], 32
	.cfi_restore 30
	.cfi_restore 29
	.cfi_def_cfa_offset 0
	ret
	.cfi_endproc
.LFE6263:
	.size	_ZNSt12_Vector_baseISt6vectorIbSaIbEESaIS2_EE17_M_create_storageEm, .-_ZNSt12_Vector_baseISt6vectorIbSaIbEESaIS2_EE17_M_create_storageEm
	.section	.text._ZNSt12_Vector_baseISt6vectorIbSaIbEESaIS2_EE13_M_deallocateEPS2_m,"axG",@progbits,_ZNSt12_Vector_baseISt6vectorIbSaIbEESaIS2_EE13_M_deallocateEPS2_m,comdat
	.align	2
	.weak	_ZNSt12_Vector_baseISt6vectorIbSaIbEESaIS2_EE13_M_deallocateEPS2_m
	.type	_ZNSt12_Vector_baseISt6vectorIbSaIbEESaIS2_EE13_M_deallocateEPS2_m, %function
_ZNSt12_Vector_baseISt6vectorIbSaIbEESaIS2_EE13_M_deallocateEPS2_m:
.LFB6264:
	.cfi_startproc
	stp	x29, x30, [sp, -48]!
	.cfi_def_cfa_offset 48
	.cfi_offset 29, -48
	.cfi_offset 30, -40
	mov	x29, sp
	str	x0, [sp, 40]
	str	x1, [sp, 32]
	str	x2, [sp, 24]
	ldr	x0, [sp, 32]
	cmp	x0, 0
	beq	.L390
	ldr	x0, [sp, 40]
	ldr	x2, [sp, 24]
	ldr	x1, [sp, 32]
	bl	_ZNSt16allocator_traitsISaISt6vectorIbSaIbEEEE10deallocateERS3_PS2_m
.L390:
	nop
	ldp	x29, x30, [sp], 48
	.cfi_restore 30
	.cfi_restore 29
	.cfi_def_cfa_offset 0
	ret
	.cfi_endproc
.LFE6264:
	.size	_ZNSt12_Vector_baseISt6vectorIbSaIbEESaIS2_EE13_M_deallocateEPS2_m, .-_ZNSt12_Vector_baseISt6vectorIbSaIbEESaIS2_EE13_M_deallocateEPS2_m
	.section	.text._ZSt24__uninitialized_fill_n_aIPSt6vectorIbSaIbEEmS2_S2_ET_S4_T0_RKT1_RSaIT2_E,"axG",@progbits,_ZSt24__uninitialized_fill_n_aIPSt6vectorIbSaIbEEmS2_S2_ET_S4_T0_RKT1_RSaIT2_E,comdat
	.align	2
	.weak	_ZSt24__uninitialized_fill_n_aIPSt6vectorIbSaIbEEmS2_S2_ET_S4_T0_RKT1_RSaIT2_E
	.type	_ZSt24__uninitialized_fill_n_aIPSt6vectorIbSaIbEEmS2_S2_ET_S4_T0_RKT1_RSaIT2_E, %function
_ZSt24__uninitialized_fill_n_aIPSt6vectorIbSaIbEEmS2_S2_ET_S4_T0_RKT1_RSaIT2_E:
.LFB6265:
	.cfi_startproc
	stp	x29, x30, [sp, -48]!
	.cfi_def_cfa_offset 48
	.cfi_offset 29, -48
	.cfi_offset 30, -40
	mov	x29, sp
	str	x0, [sp, 40]
	str	x1, [sp, 32]
	str	x2, [sp, 24]
	str	x3, [sp, 16]
	ldr	x2, [sp, 24]
	ldr	x1, [sp, 32]
	ldr	x0, [sp, 40]
	bl	_ZSt20uninitialized_fill_nIPSt6vectorIbSaIbEEmS2_ET_S4_T0_RKT1_
	ldp	x29, x30, [sp], 48
	.cfi_restore 30
	.cfi_restore 29
	.cfi_def_cfa_offset 0
	ret
	.cfi_endproc
.LFE6265:
	.size	_ZSt24__uninitialized_fill_n_aIPSt6vectorIbSaIbEEmS2_S2_ET_S4_T0_RKT1_RSaIT2_E, .-_ZSt24__uninitialized_fill_n_aIPSt6vectorIbSaIbEEmS2_S2_ET_S4_T0_RKT1_RSaIT2_E
	.section	.text._ZSt8_DestroyIPSt6vectorIbSaIbEEEvT_S4_,"axG",@progbits,_ZSt8_DestroyIPSt6vectorIbSaIbEEEvT_S4_,comdat
	.align	2
	.weak	_ZSt8_DestroyIPSt6vectorIbSaIbEEEvT_S4_
	.type	_ZSt8_DestroyIPSt6vectorIbSaIbEEEvT_S4_, %function
_ZSt8_DestroyIPSt6vectorIbSaIbEEEvT_S4_:
.LFB6266:
	.cfi_startproc
	stp	x29, x30, [sp, -32]!
	.cfi_def_cfa_offset 32
	.cfi_offset 29, -32
	.cfi_offset 30, -24
	mov	x29, sp
	str	x0, [sp, 24]
	str	x1, [sp, 16]
	ldr	x1, [sp, 16]
	ldr	x0, [sp, 24]
	bl	_ZNSt12_Destroy_auxILb0EE9__destroyIPSt6vectorIbSaIbEEEEvT_S6_
	nop
	ldp	x29, x30, [sp], 32
	.cfi_restore 30
	.cfi_restore 29
	.cfi_def_cfa_offset 0
	ret
	.cfi_endproc
.LFE6266:
	.size	_ZSt8_DestroyIPSt6vectorIbSaIbEEEvT_S4_, .-_ZSt8_DestroyIPSt6vectorIbSaIbEEEvT_S4_
	.section	.text._ZNSt16allocator_traitsISaISt6vectorIiSaIiEEEE10deallocateERS3_PS2_m,"axG",@progbits,_ZNSt16allocator_traitsISaISt6vectorIiSaIiEEEE10deallocateERS3_PS2_m,comdat
	.align	2
	.weak	_ZNSt16allocator_traitsISaISt6vectorIiSaIiEEEE10deallocateERS3_PS2_m
	.type	_ZNSt16allocator_traitsISaISt6vectorIiSaIiEEEE10deallocateERS3_PS2_m, %function
_ZNSt16allocator_traitsISaISt6vectorIiSaIiEEEE10deallocateERS3_PS2_m:
.LFB6268:
	.cfi_startproc
	stp	x29, x30, [sp, -48]!
	.cfi_def_cfa_offset 48
	.cfi_offset 29, -48
	.cfi_offset 30, -40
	mov	x29, sp
	str	x0, [sp, 40]
	str	x1, [sp, 32]
	str	x2, [sp, 24]
	ldr	x2, [sp, 24]
	ldr	x1, [sp, 32]
	ldr	x0, [sp, 40]
	bl	_ZN9__gnu_cxx13new_allocatorISt6vectorIiSaIiEEE10deallocateEPS3_m
	nop
	ldp	x29, x30, [sp], 48
	.cfi_restore 30
	.cfi_restore 29
	.cfi_def_cfa_offset 0
	ret
	.cfi_endproc
.LFE6268:
	.size	_ZNSt16allocator_traitsISaISt6vectorIiSaIiEEEE10deallocateERS3_PS2_m, .-_ZNSt16allocator_traitsISaISt6vectorIiSaIiEEEE10deallocateERS3_PS2_m
	.section	.text._ZSt8_DestroyIPSt6vectorIiSaIiEEEvT_S4_,"axG",@progbits,_ZSt8_DestroyIPSt6vectorIiSaIiEEEvT_S4_,comdat
	.align	2
	.weak	_ZSt8_DestroyIPSt6vectorIiSaIiEEEvT_S4_
	.type	_ZSt8_DestroyIPSt6vectorIiSaIiEEEvT_S4_, %function
_ZSt8_DestroyIPSt6vectorIiSaIiEEEvT_S4_:
.LFB6269:
	.cfi_startproc
	stp	x29, x30, [sp, -32]!
	.cfi_def_cfa_offset 32
	.cfi_offset 29, -32
	.cfi_offset 30, -24
	mov	x29, sp
	str	x0, [sp, 24]
	str	x1, [sp, 16]
	ldr	x1, [sp, 16]
	ldr	x0, [sp, 24]
	bl	_ZNSt12_Destroy_auxILb0EE9__destroyIPSt6vectorIiSaIiEEEEvT_S6_
	nop
	ldp	x29, x30, [sp], 32
	.cfi_restore 30
	.cfi_restore 29
	.cfi_def_cfa_offset 0
	ret
	.cfi_endproc
.LFE6269:
	.size	_ZSt8_DestroyIPSt6vectorIiSaIiEEEvT_S4_, .-_ZSt8_DestroyIPSt6vectorIiSaIiEEEvT_S4_
	.section	.text._ZSt8_DestroyIPiEvT_S1_,"axG",@progbits,_ZSt8_DestroyIPiEvT_S1_,comdat
	.align	2
	.weak	_ZSt8_DestroyIPiEvT_S1_
	.type	_ZSt8_DestroyIPiEvT_S1_, %function
_ZSt8_DestroyIPiEvT_S1_:
.LFB6270:
	.cfi_startproc
	stp	x29, x30, [sp, -32]!
	.cfi_def_cfa_offset 32
	.cfi_offset 29, -32
	.cfi_offset 30, -24
	mov	x29, sp
	str	x0, [sp, 24]
	str	x1, [sp, 16]
	ldr	x1, [sp, 16]
	ldr	x0, [sp, 24]
	bl	_ZNSt12_Destroy_auxILb1EE9__destroyIPiEEvT_S3_
	nop
	ldp	x29, x30, [sp], 32
	.cfi_restore 30
	.cfi_restore 29
	.cfi_def_cfa_offset 0
	ret
	.cfi_endproc
.LFE6270:
	.size	_ZSt8_DestroyIPiEvT_S1_, .-_ZSt8_DestroyIPiEvT_S1_
	.section	.text._ZSt7forwardISt6vectorIiSaIiEEEOT_RNSt16remove_referenceIS3_E4typeE,"axG",@progbits,_ZSt7forwardISt6vectorIiSaIiEEEOT_RNSt16remove_referenceIS3_E4typeE,comdat
	.align	2
	.weak	_ZSt7forwardISt6vectorIiSaIiEEEOT_RNSt16remove_referenceIS3_E4typeE
	.type	_ZSt7forwardISt6vectorIiSaIiEEEOT_RNSt16remove_referenceIS3_E4typeE, %function
_ZSt7forwardISt6vectorIiSaIiEEEOT_RNSt16remove_referenceIS3_E4typeE:
.LFB6272:
	.cfi_startproc
	sub	sp, sp, #16
	.cfi_def_cfa_offset 16
	str	x0, [sp, 8]
	ldr	x0, [sp, 8]
	add	sp, sp, 16
	.cfi_def_cfa_offset 0
	ret
	.cfi_endproc
.LFE6272:
	.size	_ZSt7forwardISt6vectorIiSaIiEEEOT_RNSt16remove_referenceIS3_E4typeE, .-_ZSt7forwardISt6vectorIiSaIiEEEOT_RNSt16remove_referenceIS3_E4typeE
	.section	.text._ZNSt16allocator_traitsISaISt6vectorIiSaIiEEEE9constructIS2_JS2_EEEvRS3_PT_DpOT0_,"axG",@progbits,_ZNSt16allocator_traitsISaISt6vectorIiSaIiEEEE9constructIS2_JS2_EEEvRS3_PT_DpOT0_,comdat
	.align	2
	.weak	_ZNSt16allocator_traitsISaISt6vectorIiSaIiEEEE9constructIS2_JS2_EEEvRS3_PT_DpOT0_
	.type	_ZNSt16allocator_traitsISaISt6vectorIiSaIiEEEE9constructIS2_JS2_EEEvRS3_PT_DpOT0_, %function
_ZNSt16allocator_traitsISaISt6vectorIiSaIiEEEE9constructIS2_JS2_EEEvRS3_PT_DpOT0_:
.LFB6273:
	.cfi_startproc
	stp	x29, x30, [sp, -48]!
	.cfi_def_cfa_offset 48
	.cfi_offset 29, -48
	.cfi_offset 30, -40
	mov	x29, sp
	str	x0, [sp, 40]
	str	x1, [sp, 32]
	str	x2, [sp, 24]
	ldr	x0, [sp, 24]
	bl	_ZSt7forwardISt6vectorIiSaIiEEEOT_RNSt16remove_referenceIS3_E4typeE
	mov	x2, x0
	ldr	x1, [sp, 32]
	ldr	x0, [sp, 40]
	bl	_ZN9__gnu_cxx13new_allocatorISt6vectorIiSaIiEEE9constructIS3_JS3_EEEvPT_DpOT0_
	nop
	ldp	x29, x30, [sp], 48
	.cfi_restore 30
	.cfi_restore 29
	.cfi_def_cfa_offset 0
	ret
	.cfi_endproc
.LFE6273:
	.size	_ZNSt16allocator_traitsISaISt6vectorIiSaIiEEEE9constructIS2_JS2_EEEvRS3_PT_DpOT0_, .-_ZNSt16allocator_traitsISaISt6vectorIiSaIiEEEE9constructIS2_JS2_EEEvRS3_PT_DpOT0_
	.section	.text._ZNSt6vectorIS_IiSaIiEESaIS1_EE3endEv,"axG",@progbits,_ZNSt6vectorIS_IiSaIiEESaIS1_EE3endEv,comdat
	.align	2
	.weak	_ZNSt6vectorIS_IiSaIiEESaIS1_EE3endEv
	.type	_ZNSt6vectorIS_IiSaIiEESaIS1_EE3endEv, %function
_ZNSt6vectorIS_IiSaIiEESaIS1_EE3endEv:
.LFB6274:
	.cfi_startproc
	stp	x29, x30, [sp, -48]!
	.cfi_def_cfa_offset 48
	.cfi_offset 29, -48
	.cfi_offset 30, -40
	mov	x29, sp
	str	x0, [sp, 24]
	adrp	x0, :got:__stack_chk_guard
	ldr	x0, [x0, #:got_lo12:__stack_chk_guard]
	ldr	x1, [x0]
	str	x1, [sp, 40]
	mov	x1, 0
	ldr	x0, [sp, 24]
	add	x1, x0, 8
	add	x0, sp, 32
	bl	_ZN9__gnu_cxx17__normal_iteratorIPSt6vectorIiSaIiEES1_IS3_SaIS3_EEEC1ERKS4_
	ldr	x0, [sp, 32]
	mov	x1, x0
	adrp	x0, :got:__stack_chk_guard
	ldr	x0, [x0, #:got_lo12:__stack_chk_guard]
	ldr	x3, [sp, 40]
	ldr	x2, [x0]
	subs	x3, x3, x2
	mov	x2, 0
	beq	.L402
	bl	__stack_chk_fail
.L402:
	mov	x0, x1
	ldp	x29, x30, [sp], 48
	.cfi_restore 30
	.cfi_restore 29
	.cfi_def_cfa_offset 0
	ret
	.cfi_endproc
.LFE6274:
	.size	_ZNSt6vectorIS_IiSaIiEESaIS1_EE3endEv, .-_ZNSt6vectorIS_IiSaIiEESaIS1_EE3endEv
	.section	.rodata
	.align	3
.LC27:
	.string	"vector::_M_realloc_insert"
	.section	.text._ZNSt6vectorIS_IiSaIiEESaIS1_EE17_M_realloc_insertIJS1_EEEvN9__gnu_cxx17__normal_iteratorIPS1_S3_EEDpOT_,"axG",@progbits,_ZNSt6vectorIS_IiSaIiEESaIS1_EE17_M_realloc_insertIJS1_EEEvN9__gnu_cxx17__normal_iteratorIPS1_S3_EEDpOT_,comdat
	.align	2
	.weak	_ZNSt6vectorIS_IiSaIiEESaIS1_EE17_M_realloc_insertIJS1_EEEvN9__gnu_cxx17__normal_iteratorIPS1_S3_EEDpOT_
	.type	_ZNSt6vectorIS_IiSaIiEESaIS1_EE17_M_realloc_insertIJS1_EEEvN9__gnu_cxx17__normal_iteratorIPS1_S3_EEDpOT_, %function
_ZNSt6vectorIS_IiSaIiEESaIS1_EE17_M_realloc_insertIJS1_EEEvN9__gnu_cxx17__normal_iteratorIPS1_S3_EEDpOT_:
.LFB6275:
	.cfi_startproc
	stp	x29, x30, [sp, -128]!
	.cfi_def_cfa_offset 128
	.cfi_offset 29, -128
	.cfi_offset 30, -120
	mov	x29, sp
	stp	x19, x20, [sp, 16]
	.cfi_offset 19, -112
	.cfi_offset 20, -104
	str	x0, [sp, 56]
	str	x1, [sp, 48]
	str	x2, [sp, 40]
	adrp	x0, :got:__stack_chk_guard
	ldr	x0, [x0, #:got_lo12:__stack_chk_guard]
	ldr	x1, [x0]
	str	x1, [sp, 120]
	mov	x1, 0
	adrp	x0, .LC27
	add	x2, x0, :lo12:.LC27
	mov	x1, 1
	ldr	x0, [sp, 56]
	bl	_ZNKSt6vectorIS_IiSaIiEESaIS1_EE12_M_check_lenEmPKc
	str	x0, [sp, 72]
	ldr	x0, [sp, 56]
	ldr	x0, [x0]
	str	x0, [sp, 80]
	ldr	x0, [sp, 56]
	ldr	x0, [x0, 8]
	str	x0, [sp, 88]
	ldr	x0, [sp, 56]
	bl	_ZNSt6vectorIS_IiSaIiEESaIS1_EE5beginEv
	str	x0, [sp, 64]
	add	x1, sp, 64
	add	x0, sp, 48
	bl	_ZN9__gnu_cxxmiIPSt6vectorIiSaIiEES1_IS3_SaIS3_EEEENS_17__normal_iteratorIT_T0_E15difference_typeERKSA_SD_
	str	x0, [sp, 96]
	ldr	x0, [sp, 56]
	ldr	x1, [sp, 72]
	bl	_ZNSt12_Vector_baseISt6vectorIiSaIiEESaIS2_EE11_M_allocateEm
	str	x0, [sp, 104]
	ldr	x0, [sp, 104]
	str	x0, [sp, 112]
	ldr	x19, [sp, 56]
	ldr	x1, [sp, 96]
	mov	x0, x1
	lsl	x0, x0, 1
	add	x0, x0, x1
	lsl	x0, x0, 3
	mov	x1, x0
	ldr	x0, [sp, 104]
	add	x20, x0, x1
	ldr	x0, [sp, 40]
	bl	_ZSt7forwardISt6vectorIiSaIiEEEOT_RNSt16remove_referenceIS3_E4typeE
	mov	x2, x0
	mov	x1, x20
	mov	x0, x19
	bl	_ZNSt16allocator_traitsISaISt6vectorIiSaIiEEEE9constructIS2_JS2_EEEvRS3_PT_DpOT0_
	str	xzr, [sp, 112]
	add	x0, sp, 48
	bl	_ZNK9__gnu_cxx17__normal_iteratorIPSt6vectorIiSaIiEES1_IS3_SaIS3_EEE4baseEv
	ldr	x19, [x0]
	ldr	x0, [sp, 56]
	bl	_ZNSt12_Vector_baseISt6vectorIiSaIiEESaIS2_EE19_M_get_Tp_allocatorEv
	mov	x3, x0
	ldr	x2, [sp, 104]
	mov	x1, x19
	ldr	x0, [sp, 80]
	bl	_ZNSt6vectorIS_IiSaIiEESaIS1_EE11_S_relocateEPS1_S4_S4_RS2_
	str	x0, [sp, 112]
	ldr	x0, [sp, 112]
	add	x0, x0, 24
	str	x0, [sp, 112]
	add	x0, sp, 48
	bl	_ZNK9__gnu_cxx17__normal_iteratorIPSt6vectorIiSaIiEES1_IS3_SaIS3_EEE4baseEv
	ldr	x19, [x0]
	ldr	x0, [sp, 56]
	bl	_ZNSt12_Vector_baseISt6vectorIiSaIiEESaIS2_EE19_M_get_Tp_allocatorEv
	mov	x3, x0
	ldr	x2, [sp, 112]
	ldr	x1, [sp, 88]
	mov	x0, x19
	bl	_ZNSt6vectorIS_IiSaIiEESaIS1_EE11_S_relocateEPS1_S4_S4_RS2_
	str	x0, [sp, 112]
	ldr	x3, [sp, 56]
	ldr	x0, [sp, 56]
	ldr	x1, [x0, 16]
	ldr	x0, [sp, 80]
	sub	x0, x1, x0
	asr	x1, x0, 3
	mov	x0, -6148914691236517206
	movk	x0, 0xaaab, lsl 0
	mul	x0, x1, x0
	mov	x2, x0
	ldr	x1, [sp, 80]
	mov	x0, x3
	bl	_ZNSt12_Vector_baseISt6vectorIiSaIiEESaIS2_EE13_M_deallocateEPS2_m
	ldr	x0, [sp, 56]
	ldr	x1, [sp, 104]
	str	x1, [x0]
	ldr	x0, [sp, 56]
	ldr	x1, [sp, 112]
	str	x1, [x0, 8]
	ldr	x1, [sp, 72]
	mov	x0, x1
	lsl	x0, x0, 1
	add	x0, x0, x1
	lsl	x0, x0, 3
	mov	x1, x0
	ldr	x0, [sp, 104]
	add	x1, x0, x1
	ldr	x0, [sp, 56]
	str	x1, [x0, 16]
	nop
	adrp	x0, :got:__stack_chk_guard
	ldr	x0, [x0, #:got_lo12:__stack_chk_guard]
	ldr	x2, [sp, 120]
	ldr	x1, [x0]
	subs	x2, x2, x1
	mov	x1, 0
	beq	.L404
	bl	__stack_chk_fail
.L404:
	ldp	x19, x20, [sp, 16]
	ldp	x29, x30, [sp], 128
	.cfi_restore 30
	.cfi_restore 29
	.cfi_restore 19
	.cfi_restore 20
	.cfi_def_cfa_offset 0
	ret
	.cfi_endproc
.LFE6275:
	.size	_ZNSt6vectorIS_IiSaIiEESaIS1_EE17_M_realloc_insertIJS1_EEEvN9__gnu_cxx17__normal_iteratorIPS1_S3_EEDpOT_, .-_ZNSt6vectorIS_IiSaIiEESaIS1_EE17_M_realloc_insertIJS1_EEEvN9__gnu_cxx17__normal_iteratorIPS1_S3_EEDpOT_
	.section	.text._ZNSt6vectorIS_IiSaIiEESaIS1_EE4backEv,"axG",@progbits,_ZNSt6vectorIS_IiSaIiEESaIS1_EE4backEv,comdat
	.align	2
	.weak	_ZNSt6vectorIS_IiSaIiEESaIS1_EE4backEv
	.type	_ZNSt6vectorIS_IiSaIiEESaIS1_EE4backEv, %function
_ZNSt6vectorIS_IiSaIiEESaIS1_EE4backEv:
.LFB6279:
	.cfi_startproc
	stp	x29, x30, [sp, -64]!
	.cfi_def_cfa_offset 64
	.cfi_offset 29, -64
	.cfi_offset 30, -56
	mov	x29, sp
	str	x0, [sp, 24]
	adrp	x0, :got:__stack_chk_guard
	ldr	x0, [x0, #:got_lo12:__stack_chk_guard]
	ldr	x1, [x0]
	str	x1, [sp, 56]
	mov	x1, 0
	ldr	x0, [sp, 24]
	bl	_ZNSt6vectorIS_IiSaIiEESaIS1_EE3endEv
	str	x0, [sp, 40]
	add	x0, sp, 40
	mov	x1, 1
	bl	_ZNK9__gnu_cxx17__normal_iteratorIPSt6vectorIiSaIiEES1_IS3_SaIS3_EEEmiEl
	str	x0, [sp, 48]
	add	x0, sp, 48
	bl	_ZNK9__gnu_cxx17__normal_iteratorIPSt6vectorIiSaIiEES1_IS3_SaIS3_EEEdeEv
	mov	x1, x0
	adrp	x0, :got:__stack_chk_guard
	ldr	x0, [x0, #:got_lo12:__stack_chk_guard]
	ldr	x3, [sp, 56]
	ldr	x2, [x0]
	subs	x3, x3, x2
	mov	x2, 0
	beq	.L407
	bl	__stack_chk_fail
.L407:
	mov	x0, x1
	ldp	x29, x30, [sp], 64
	.cfi_restore 30
	.cfi_restore 29
	.cfi_def_cfa_offset 0
	ret
	.cfi_endproc
.LFE6279:
	.size	_ZNSt6vectorIS_IiSaIiEESaIS1_EE4backEv, .-_ZNSt6vectorIS_IiSaIiEESaIS1_EE4backEv
	.section	.text._ZN9__gnu_cxx13new_allocatorISt6vectorIiSaIiEEEC2ERKS4_,"axG",@progbits,_ZN9__gnu_cxx13new_allocatorISt6vectorIiSaIiEEEC5ERKS4_,comdat
	.align	2
	.weak	_ZN9__gnu_cxx13new_allocatorISt6vectorIiSaIiEEEC2ERKS4_
	.type	_ZN9__gnu_cxx13new_allocatorISt6vectorIiSaIiEEEC2ERKS4_, %function
_ZN9__gnu_cxx13new_allocatorISt6vectorIiSaIiEEEC2ERKS4_:
.LFB6281:
	.cfi_startproc
	sub	sp, sp, #16
	.cfi_def_cfa_offset 16
	str	x0, [sp, 8]
	str	x1, [sp]
	nop
	add	sp, sp, 16
	.cfi_def_cfa_offset 0
	ret
	.cfi_endproc
.LFE6281:
	.size	_ZN9__gnu_cxx13new_allocatorISt6vectorIiSaIiEEEC2ERKS4_, .-_ZN9__gnu_cxx13new_allocatorISt6vectorIiSaIiEEEC2ERKS4_
	.weak	_ZN9__gnu_cxx13new_allocatorISt6vectorIiSaIiEEEC1ERKS4_
	.set	_ZN9__gnu_cxx13new_allocatorISt6vectorIiSaIiEEEC1ERKS4_,_ZN9__gnu_cxx13new_allocatorISt6vectorIiSaIiEEEC2ERKS4_
	.section	.text._ZNSt12_Vector_baseISt6vectorIiSaIiEESaIS2_EE12_Vector_implC2ERKS3_,"axG",@progbits,_ZNSt12_Vector_baseISt6vectorIiSaIiEESaIS2_EE12_Vector_implC5ERKS3_,comdat
	.align	2
	.weak	_ZNSt12_Vector_baseISt6vectorIiSaIiEESaIS2_EE12_Vector_implC2ERKS3_
	.type	_ZNSt12_Vector_baseISt6vectorIiSaIiEESaIS2_EE12_Vector_implC2ERKS3_, %function
_ZNSt12_Vector_baseISt6vectorIiSaIiEESaIS2_EE12_Vector_implC2ERKS3_:
.LFB6284:
	.cfi_startproc
	stp	x29, x30, [sp, -32]!
	.cfi_def_cfa_offset 32
	.cfi_offset 29, -32
	.cfi_offset 30, -24
	mov	x29, sp
	str	x0, [sp, 24]
	str	x1, [sp, 16]
	ldr	x1, [sp, 16]
	ldr	x0, [sp, 24]
	bl	_ZNSaISt6vectorIiSaIiEEEC2ERKS2_
	ldr	x0, [sp, 24]
	bl	_ZNSt12_Vector_baseISt6vectorIiSaIiEESaIS2_EE17_Vector_impl_dataC2Ev
	nop
	ldp	x29, x30, [sp], 32
	.cfi_restore 30
	.cfi_restore 29
	.cfi_def_cfa_offset 0
	ret
	.cfi_endproc
.LFE6284:
	.size	_ZNSt12_Vector_baseISt6vectorIiSaIiEESaIS2_EE12_Vector_implC2ERKS3_, .-_ZNSt12_Vector_baseISt6vectorIiSaIiEESaIS2_EE12_Vector_implC2ERKS3_
	.weak	_ZNSt12_Vector_baseISt6vectorIiSaIiEESaIS2_EE12_Vector_implC1ERKS3_
	.set	_ZNSt12_Vector_baseISt6vectorIiSaIiEESaIS2_EE12_Vector_implC1ERKS3_,_ZNSt12_Vector_baseISt6vectorIiSaIiEESaIS2_EE12_Vector_implC2ERKS3_
	.section	.text._ZNKSt16initializer_listISt6vectorIiSaIiEEE4sizeEv,"axG",@progbits,_ZNKSt16initializer_listISt6vectorIiSaIiEEE4sizeEv,comdat
	.align	2
	.weak	_ZNKSt16initializer_listISt6vectorIiSaIiEEE4sizeEv
	.type	_ZNKSt16initializer_listISt6vectorIiSaIiEEE4sizeEv, %function
_ZNKSt16initializer_listISt6vectorIiSaIiEEE4sizeEv:
.LFB6286:
	.cfi_startproc
	sub	sp, sp, #16
	.cfi_def_cfa_offset 16
	str	x0, [sp, 8]
	ldr	x0, [sp, 8]
	ldr	x0, [x0, 8]
	add	sp, sp, 16
	.cfi_def_cfa_offset 0
	ret
	.cfi_endproc
.LFE6286:
	.size	_ZNKSt16initializer_listISt6vectorIiSaIiEEE4sizeEv, .-_ZNKSt16initializer_listISt6vectorIiSaIiEEE4sizeEv
	.section	.text._ZSt19__iterator_categoryIPKSt6vectorIiSaIiEEENSt15iterator_traitsIT_E17iterator_categoryERKS6_,"axG",@progbits,_ZSt19__iterator_categoryIPKSt6vectorIiSaIiEEENSt15iterator_traitsIT_E17iterator_categoryERKS6_,comdat
	.align	2
	.weak	_ZSt19__iterator_categoryIPKSt6vectorIiSaIiEEENSt15iterator_traitsIT_E17iterator_categoryERKS6_
	.type	_ZSt19__iterator_categoryIPKSt6vectorIiSaIiEEENSt15iterator_traitsIT_E17iterator_categoryERKS6_, %function
_ZSt19__iterator_categoryIPKSt6vectorIiSaIiEEENSt15iterator_traitsIT_E17iterator_categoryERKS6_:
.LFB6287:
	.cfi_startproc
	sub	sp, sp, #16
	.cfi_def_cfa_offset 16
	str	x0, [sp, 8]
	mov	w0, w1
	add	sp, sp, 16
	.cfi_def_cfa_offset 0
	ret
	.cfi_endproc
.LFE6287:
	.size	_ZSt19__iterator_categoryIPKSt6vectorIiSaIiEEENSt15iterator_traitsIT_E17iterator_categoryERKS6_, .-_ZSt19__iterator_categoryIPKSt6vectorIiSaIiEEENSt15iterator_traitsIT_E17iterator_categoryERKS6_
	.section	.text._ZSt10__distanceIPKSt6vectorIiSaIiEEENSt15iterator_traitsIT_E15difference_typeES6_S6_St26random_access_iterator_tag,"axG",@progbits,_ZSt10__distanceIPKSt6vectorIiSaIiEEENSt15iterator_traitsIT_E15difference_typeES6_S6_St26random_access_iterator_tag,comdat
	.align	2
	.weak	_ZSt10__distanceIPKSt6vectorIiSaIiEEENSt15iterator_traitsIT_E15difference_typeES6_S6_St26random_access_iterator_tag
	.type	_ZSt10__distanceIPKSt6vectorIiSaIiEEENSt15iterator_traitsIT_E15difference_typeES6_S6_St26random_access_iterator_tag, %function
_ZSt10__distanceIPKSt6vectorIiSaIiEEENSt15iterator_traitsIT_E15difference_typeES6_S6_St26random_access_iterator_tag:
.LFB6288:
	.cfi_startproc
	sub	sp, sp, #32
	.cfi_def_cfa_offset 32
	str	x0, [sp, 24]
	str	x1, [sp, 16]
	strb	w2, [sp, 8]
	ldr	x1, [sp, 16]
	ldr	x0, [sp, 24]
	sub	x0, x1, x0
	asr	x1, x0, 3
	mov	x0, -6148914691236517206
	movk	x0, 0xaaab, lsl 0
	mul	x0, x1, x0
	add	sp, sp, 32
	.cfi_def_cfa_offset 0
	ret
	.cfi_endproc
.LFE6288:
	.size	_ZSt10__distanceIPKSt6vectorIiSaIiEEENSt15iterator_traitsIT_E15difference_typeES6_S6_St26random_access_iterator_tag, .-_ZSt10__distanceIPKSt6vectorIiSaIiEEENSt15iterator_traitsIT_E15difference_typeES6_S6_St26random_access_iterator_tag
	.section	.text._ZNSt6vectorIS_IiSaIiEESaIS1_EE17_S_check_init_lenEmRKS2_,"axG",@progbits,_ZNSt6vectorIS_IiSaIiEESaIS1_EE17_S_check_init_lenEmRKS2_,comdat
	.align	2
	.weak	_ZNSt6vectorIS_IiSaIiEESaIS1_EE17_S_check_init_lenEmRKS2_
	.type	_ZNSt6vectorIS_IiSaIiEESaIS1_EE17_S_check_init_lenEmRKS2_, %function
_ZNSt6vectorIS_IiSaIiEESaIS1_EE17_S_check_init_lenEmRKS2_:
.LFB6289:
	.cfi_startproc
	stp	x29, x30, [sp, -64]!
	.cfi_def_cfa_offset 64
	.cfi_offset 29, -64
	.cfi_offset 30, -56
	mov	x29, sp
	str	x19, [sp, 16]
	.cfi_offset 19, -48
	str	x0, [sp, 40]
	str	x1, [sp, 32]
	adrp	x0, :got:__stack_chk_guard
	ldr	x0, [x0, #:got_lo12:__stack_chk_guard]
	ldr	x1, [x0]
	str	x1, [sp, 56]
	mov	x1, 0
	add	x0, sp, 48
	ldr	x1, [sp, 32]
	bl	_ZNSaISt6vectorIiSaIiEEEC1ERKS2_
	add	x0, sp, 48
	bl	_ZNSt6vectorIS_IiSaIiEESaIS1_EE11_S_max_sizeERKS2_
	mov	x1, x0
	ldr	x0, [sp, 40]
	cmp	x0, x1
	cset	w0, hi
	and	w19, w0, 255
	add	x0, sp, 48
	bl	_ZNSaISt6vectorIiSaIiEEED1Ev
	cmp	w19, 0
	beq	.L417
	adrp	x0, .LC19
	add	x0, x0, :lo12:.LC19
	bl	_ZSt20__throw_length_errorPKc
.L417:
	ldr	x0, [sp, 40]
	mov	x1, x0
	adrp	x0, :got:__stack_chk_guard
	ldr	x0, [x0, #:got_lo12:__stack_chk_guard]
	ldr	x3, [sp, 56]
	ldr	x2, [x0]
	subs	x3, x3, x2
	mov	x2, 0
	beq	.L419
	bl	__stack_chk_fail
.L419:
	mov	x0, x1
	ldr	x19, [sp, 16]
	ldp	x29, x30, [sp], 64
	.cfi_restore 30
	.cfi_restore 29
	.cfi_restore 19
	.cfi_def_cfa_offset 0
	ret
	.cfi_endproc
.LFE6289:
	.size	_ZNSt6vectorIS_IiSaIiEESaIS1_EE17_S_check_init_lenEmRKS2_, .-_ZNSt6vectorIS_IiSaIiEESaIS1_EE17_S_check_init_lenEmRKS2_
	.section	.text._ZNSt12_Vector_baseISt6vectorIiSaIiEESaIS2_EE11_M_allocateEm,"axG",@progbits,_ZNSt12_Vector_baseISt6vectorIiSaIiEESaIS2_EE11_M_allocateEm,comdat
	.align	2
	.weak	_ZNSt12_Vector_baseISt6vectorIiSaIiEESaIS2_EE11_M_allocateEm
	.type	_ZNSt12_Vector_baseISt6vectorIiSaIiEESaIS2_EE11_M_allocateEm, %function
_ZNSt12_Vector_baseISt6vectorIiSaIiEESaIS2_EE11_M_allocateEm:
.LFB6290:
	.cfi_startproc
	stp	x29, x30, [sp, -32]!
	.cfi_def_cfa_offset 32
	.cfi_offset 29, -32
	.cfi_offset 30, -24
	mov	x29, sp
	str	x0, [sp, 24]
	str	x1, [sp, 16]
	ldr	x0, [sp, 16]
	cmp	x0, 0
	beq	.L421
	ldr	x0, [sp, 24]
	ldr	x1, [sp, 16]
	bl	_ZNSt16allocator_traitsISaISt6vectorIiSaIiEEEE8allocateERS3_m
	b	.L423
.L421:
	mov	x0, 0
.L423:
	ldp	x29, x30, [sp], 32
	.cfi_restore 30
	.cfi_restore 29
	.cfi_def_cfa_offset 0
	ret
	.cfi_endproc
.LFE6290:
	.size	_ZNSt12_Vector_baseISt6vectorIiSaIiEESaIS2_EE11_M_allocateEm, .-_ZNSt12_Vector_baseISt6vectorIiSaIiEESaIS2_EE11_M_allocateEm
	.section	.text._ZSt22__uninitialized_copy_aIPKSt6vectorIiSaIiEEPS2_S2_ET0_T_S7_S6_RSaIT1_E,"axG",@progbits,_ZSt22__uninitialized_copy_aIPKSt6vectorIiSaIiEEPS2_S2_ET0_T_S7_S6_RSaIT1_E,comdat
	.align	2
	.weak	_ZSt22__uninitialized_copy_aIPKSt6vectorIiSaIiEEPS2_S2_ET0_T_S7_S6_RSaIT1_E
	.type	_ZSt22__uninitialized_copy_aIPKSt6vectorIiSaIiEEPS2_S2_ET0_T_S7_S6_RSaIT1_E, %function
_ZSt22__uninitialized_copy_aIPKSt6vectorIiSaIiEEPS2_S2_ET0_T_S7_S6_RSaIT1_E:
.LFB6291:
	.cfi_startproc
	stp	x29, x30, [sp, -48]!
	.cfi_def_cfa_offset 48
	.cfi_offset 29, -48
	.cfi_offset 30, -40
	mov	x29, sp
	str	x0, [sp, 40]
	str	x1, [sp, 32]
	str	x2, [sp, 24]
	str	x3, [sp, 16]
	ldr	x2, [sp, 24]
	ldr	x1, [sp, 32]
	ldr	x0, [sp, 40]
	bl	_ZSt18uninitialized_copyIPKSt6vectorIiSaIiEEPS2_ET0_T_S7_S6_
	ldp	x29, x30, [sp], 48
	.cfi_restore 30
	.cfi_restore 29
	.cfi_def_cfa_offset 0
	ret
	.cfi_endproc
.LFE6291:
	.size	_ZSt22__uninitialized_copy_aIPKSt6vectorIiSaIiEEPS2_S2_ET0_T_S7_S6_RSaIT1_E, .-_ZSt22__uninitialized_copy_aIPKSt6vectorIiSaIiEEPS2_S2_ET0_T_S7_S6_RSaIT1_E
	.section	.text._ZN3dbg9type_nameISt6vectorIiSaIiEEEENSt7__cxx1112basic_stringIcSt11char_traitsIcESaIcEEEv,"axG",@progbits,_ZN3dbg9type_nameISt6vectorIiSaIiEEEENSt7__cxx1112basic_stringIcSt11char_traitsIcESaIcEEEv,comdat
	.align	2
	.weak	_ZN3dbg9type_nameISt6vectorIiSaIiEEEENSt7__cxx1112basic_stringIcSt11char_traitsIcESaIcEEEv
	.type	_ZN3dbg9type_nameISt6vectorIiSaIiEEEENSt7__cxx1112basic_stringIcSt11char_traitsIcESaIcEEEv, %function
_ZN3dbg9type_nameISt6vectorIiSaIiEEEENSt7__cxx1112basic_stringIcSt11char_traitsIcESaIcEEEv:
.LFB6293:
	.cfi_startproc
	stp	x29, x30, [sp, -80]!
	.cfi_def_cfa_offset 80
	.cfi_offset 29, -80
	.cfi_offset 30, -72
	mov	x29, sp
	str	x19, [sp, 16]
	.cfi_offset 19, -64
	mov	x19, x8
	adrp	x0, :got:__stack_chk_guard
	ldr	x0, [x0, #:got_lo12:__stack_chk_guard]
	ldr	x2, [x0]
	str	x2, [sp, 72]
	mov	x2, 0
	mov	x8, x19
	mov	w0, w1
	bl	_ZN3dbg13get_type_nameIiEENSt7__cxx1112basic_stringIcSt11char_traitsIcESaIcEEENS_8type_tagISt6vectorIT_SaIS9_EEEE
	adrp	x0, :got:__stack_chk_guard
	ldr	x0, [x0, #:got_lo12:__stack_chk_guard]
	ldr	x2, [sp, 72]
	ldr	x1, [x0]
	subs	x2, x2, x1
	mov	x1, 0
	beq	.L428
	bl	__stack_chk_fail
.L428:
	mov	x0, x19
	ldr	x19, [sp, 16]
	ldp	x29, x30, [sp], 80
	.cfi_restore 30
	.cfi_restore 29
	.cfi_restore 19
	.cfi_def_cfa_offset 0
	ret
	.cfi_endproc
.LFE6293:
	.size	_ZN3dbg9type_nameISt6vectorIiSaIiEEEENSt7__cxx1112basic_stringIcSt11char_traitsIcESaIcEEEv, .-_ZN3dbg9type_nameISt6vectorIiSaIiEEEENSt7__cxx1112basic_stringIcSt11char_traitsIcESaIcEEEv
	.section	.text._ZSt4sizeISt6vectorIS0_IiSaIiEESaIS2_EEEDTcldtfp_4sizeEERKT_,"axG",@progbits,_ZSt4sizeISt6vectorIS0_IiSaIiEESaIS2_EEEDTcldtfp_4sizeEERKT_,comdat
	.align	2
	.weak	_ZSt4sizeISt6vectorIS0_IiSaIiEESaIS2_EEEDTcldtfp_4sizeEERKT_
	.type	_ZSt4sizeISt6vectorIS0_IiSaIiEESaIS2_EEEDTcldtfp_4sizeEERKT_, %function
_ZSt4sizeISt6vectorIS0_IiSaIiEESaIS2_EEEDTcldtfp_4sizeEERKT_:
.LFB6295:
	.cfi_startproc
	stp	x29, x30, [sp, -32]!
	.cfi_def_cfa_offset 32
	.cfi_offset 29, -32
	.cfi_offset 30, -24
	mov	x29, sp
	str	x0, [sp, 24]
	ldr	x0, [sp, 24]
	bl	_ZNKSt6vectorIS_IiSaIiEESaIS1_EE4sizeEv
	ldp	x29, x30, [sp], 32
	.cfi_restore 30
	.cfi_restore 29
	.cfi_def_cfa_offset 0
	ret
	.cfi_endproc
.LFE6295:
	.size	_ZSt4sizeISt6vectorIS0_IiSaIiEESaIS2_EEEDTcldtfp_4sizeEERKT_, .-_ZSt4sizeISt6vectorIS0_IiSaIiEESaIS2_EEEDTcldtfp_4sizeEERKT_
	.section	.text._ZSt5beginISt6vectorIS0_IiSaIiEESaIS2_EEEDTcldtfp_5beginEERKT_,"axG",@progbits,_ZSt5beginISt6vectorIS0_IiSaIiEESaIS2_EEEDTcldtfp_5beginEERKT_,comdat
	.align	2
	.weak	_ZSt5beginISt6vectorIS0_IiSaIiEESaIS2_EEEDTcldtfp_5beginEERKT_
	.type	_ZSt5beginISt6vectorIS0_IiSaIiEESaIS2_EEEDTcldtfp_5beginEERKT_, %function
_ZSt5beginISt6vectorIS0_IiSaIiEESaIS2_EEEDTcldtfp_5beginEERKT_:
.LFB6296:
	.cfi_startproc
	stp	x29, x30, [sp, -32]!
	.cfi_def_cfa_offset 32
	.cfi_offset 29, -32
	.cfi_offset 30, -24
	mov	x29, sp
	str	x0, [sp, 24]
	ldr	x0, [sp, 24]
	bl	_ZNKSt6vectorIS_IiSaIiEESaIS1_EE5beginEv
	ldp	x29, x30, [sp], 32
	.cfi_restore 30
	.cfi_restore 29
	.cfi_def_cfa_offset 0
	ret
	.cfi_endproc
.LFE6296:
	.size	_ZSt5beginISt6vectorIS0_IiSaIiEESaIS2_EEEDTcldtfp_5beginEERKT_, .-_ZSt5beginISt6vectorIS0_IiSaIiEESaIS2_EEEDTcldtfp_5beginEERKT_
	.section	.rodata
	.align	3
.LC28:
	.string	"{"
	.align	3
.LC29:
	.string	", "
	.align	3
.LC30:
	.string	", ..."
	.align	3
.LC31:
	.string	" size:"
	.align	3
.LC32:
	.string	"}"
	.section	.text._ZN3dbg12pretty_printISt6vectorIS1_IiSaIiEESaIS3_EEEENSt9enable_ifIXsrNS_6detail12is_containerIRKT_EE5valueEbE4typeERSoSB_,"axG",@progbits,_ZN3dbg12pretty_printISt6vectorIS1_IiSaIiEESaIS3_EEEENSt9enable_ifIXsrNS_6detail12is_containerIRKT_EE5valueEbE4typeERSoSB_,comdat
	.align	2
	.weak	_ZN3dbg12pretty_printISt6vectorIS1_IiSaIiEESaIS3_EEEENSt9enable_ifIXsrNS_6detail12is_containerIRKT_EE5valueEbE4typeERSoSB_
	.type	_ZN3dbg12pretty_printISt6vectorIS1_IiSaIiEESaIS3_EEEENSt9enable_ifIXsrNS_6detail12is_containerIRKT_EE5valueEbE4typeERSoSB_, %function
_ZN3dbg12pretty_printISt6vectorIS1_IiSaIiEESaIS3_EEEENSt9enable_ifIXsrNS_6detail12is_containerIRKT_EE5valueEbE4typeERSoSB_:
.LFB6294:
	.cfi_startproc
	stp	x29, x30, [sp, -80]!
	.cfi_def_cfa_offset 80
	.cfi_offset 29, -80
	.cfi_offset 30, -72
	mov	x29, sp
	str	x0, [sp, 24]
	str	x1, [sp, 16]
	adrp	x0, :got:__stack_chk_guard
	ldr	x0, [x0, #:got_lo12:__stack_chk_guard]
	ldr	x1, [x0]
	str	x1, [sp, 72]
	mov	x1, 0
	adrp	x0, .LC28
	add	x1, x0, :lo12:.LC28
	ldr	x0, [sp, 24]
	bl	_ZStlsISt11char_traitsIcEERSt13basic_ostreamIcT_ES5_PKc
	ldr	x0, [sp, 16]
	bl	_ZSt4sizeISt6vectorIS0_IiSaIiEESaIS2_EEEDTcldtfp_4sizeEERKT_
	str	x0, [sp, 32]
	mov	x0, 10
	str	x0, [sp, 48]
	add	x1, sp, 32
	add	x0, sp, 48
	bl	_ZSt3minImERKT_S2_S2_
	ldr	x0, [x0]
	str	x0, [sp, 64]
	str	xzr, [sp, 56]
	ldr	x0, [sp, 16]
	bl	_ZSt5beginISt6vectorIS0_IiSaIiEESaIS2_EEEDTcldtfp_5beginEERKT_
	str	x0, [sp, 40]
	b	.L434
.L438:
	add	x0, sp, 40
	bl	_ZNK9__gnu_cxx17__normal_iteratorIPKSt6vectorIiSaIiEES1_IS3_SaIS3_EEEdeEv
	mov	x1, x0
	ldr	x0, [sp, 24]
	bl	_ZN3dbg12pretty_printISt6vectorIiSaIiEEEENSt9enable_ifIXsrNS_6detail12is_containerIRKT_EE5valueEbE4typeERSoS9_
	ldr	x0, [sp, 64]
	sub	x0, x0, #1
	ldr	x1, [sp, 56]
	cmp	x1, x0
	beq	.L435
	adrp	x0, .LC29
	add	x1, x0, :lo12:.LC29
	ldr	x0, [sp, 24]
	bl	_ZStlsISt11char_traitsIcEERSt13basic_ostreamIcT_ES5_PKc
.L435:
	add	x0, sp, 40
	bl	_ZN9__gnu_cxx17__normal_iteratorIPKSt6vectorIiSaIiEES1_IS3_SaIS3_EEEppEv
	ldr	x0, [sp, 56]
	add	x0, x0, 1
	str	x0, [sp, 56]
.L434:
	ldr	x0, [sp, 16]
	bl	_ZSt3endISt6vectorIS0_IiSaIiEESaIS2_EEEDTcldtfp_3endEERKT_
	str	x0, [sp, 48]
	add	x1, sp, 48
	add	x0, sp, 40
	bl	_ZN9__gnu_cxxneIPKSt6vectorIiSaIiEES1_IS3_SaIS3_EEEEbRKNS_17__normal_iteratorIT_T0_EESD_
	and	w0, w0, 255
	cmp	w0, 0
	beq	.L436
	ldr	x1, [sp, 56]
	ldr	x0, [sp, 64]
	cmp	x1, x0
	bcs	.L436
	mov	w0, 1
	b	.L437
.L436:
	mov	w0, 0
.L437:
	cmp	w0, 0
	bne	.L438
	ldr	x0, [sp, 32]
	ldr	x1, [sp, 64]
	cmp	x1, x0
	bcs	.L439
	adrp	x0, .LC30
	add	x1, x0, :lo12:.LC30
	ldr	x0, [sp, 24]
	bl	_ZStlsISt11char_traitsIcEERSt13basic_ostreamIcT_ES5_PKc
	adrp	x0, .LC31
	add	x1, x0, :lo12:.LC31
	ldr	x0, [sp, 24]
	bl	_ZStlsISt11char_traitsIcEERSt13basic_ostreamIcT_ES5_PKc
	mov	x2, x0
	ldr	x0, [sp, 32]
	mov	x1, x0
	mov	x0, x2
	bl	_ZNSolsEm
.L439:
	adrp	x0, .LC32
	add	x1, x0, :lo12:.LC32
	ldr	x0, [sp, 24]
	bl	_ZStlsISt11char_traitsIcEERSt13basic_ostreamIcT_ES5_PKc
	mov	w0, 1
	mov	w1, w0
	adrp	x0, :got:__stack_chk_guard
	ldr	x0, [x0, #:got_lo12:__stack_chk_guard]
	ldr	x3, [sp, 72]
	ldr	x2, [x0]
	subs	x3, x3, x2
	mov	x2, 0
	beq	.L441
	bl	__stack_chk_fail
.L441:
	mov	w0, w1
	ldp	x29, x30, [sp], 80
	.cfi_restore 30
	.cfi_restore 29
	.cfi_def_cfa_offset 0
	ret
	.cfi_endproc
.LFE6294:
	.size	_ZN3dbg12pretty_printISt6vectorIS1_IiSaIiEESaIS3_EEEENSt9enable_ifIXsrNS_6detail12is_containerIRKT_EE5valueEbE4typeERSoSB_, .-_ZN3dbg12pretty_printISt6vectorIS1_IiSaIiEESaIS3_EEEENSt9enable_ifIXsrNS_6detail12is_containerIRKT_EE5valueEbE4typeERSoSB_
	.section	.text._ZNSaIiEC2ERKS_,"axG",@progbits,_ZNSaIiEC5ERKS_,comdat
	.align	2
	.weak	_ZNSaIiEC2ERKS_
	.type	_ZNSaIiEC2ERKS_, %function
_ZNSaIiEC2ERKS_:
.LFB6350:
	.cfi_startproc
	stp	x29, x30, [sp, -32]!
	.cfi_def_cfa_offset 32
	.cfi_offset 29, -32
	.cfi_offset 30, -24
	mov	x29, sp
	str	x0, [sp, 24]
	str	x1, [sp, 16]
	ldr	x1, [sp, 16]
	ldr	x0, [sp, 24]
	bl	_ZN9__gnu_cxx13new_allocatorIiEC2ERKS1_
	nop
	ldp	x29, x30, [sp], 32
	.cfi_restore 30
	.cfi_restore 29
	.cfi_def_cfa_offset 0
	ret
	.cfi_endproc
.LFE6350:
	.size	_ZNSaIiEC2ERKS_, .-_ZNSaIiEC2ERKS_
	.weak	_ZNSaIiEC1ERKS_
	.set	_ZNSaIiEC1ERKS_,_ZNSaIiEC2ERKS_
	.section	.text._ZNSt12_Vector_baseIiSaIiEE17_Vector_impl_dataC2Ev,"axG",@progbits,_ZNSt12_Vector_baseIiSaIiEE17_Vector_impl_dataC5Ev,comdat
	.align	2
	.weak	_ZNSt12_Vector_baseIiSaIiEE17_Vector_impl_dataC2Ev
	.type	_ZNSt12_Vector_baseIiSaIiEE17_Vector_impl_dataC2Ev, %function
_ZNSt12_Vector_baseIiSaIiEE17_Vector_impl_dataC2Ev:
.LFB6353:
	.cfi_startproc
	sub	sp, sp, #16
	.cfi_def_cfa_offset 16
	str	x0, [sp, 8]
	ldr	x0, [sp, 8]
	str	xzr, [x0]
	ldr	x0, [sp, 8]
	str	xzr, [x0, 8]
	ldr	x0, [sp, 8]
	str	xzr, [x0, 16]
	nop
	add	sp, sp, 16
	.cfi_def_cfa_offset 0
	ret
	.cfi_endproc
.LFE6353:
	.size	_ZNSt12_Vector_baseIiSaIiEE17_Vector_impl_dataC2Ev, .-_ZNSt12_Vector_baseIiSaIiEE17_Vector_impl_dataC2Ev
	.weak	_ZNSt12_Vector_baseIiSaIiEE17_Vector_impl_dataC1Ev
	.set	_ZNSt12_Vector_baseIiSaIiEE17_Vector_impl_dataC1Ev,_ZNSt12_Vector_baseIiSaIiEE17_Vector_impl_dataC2Ev
	.section	.text._ZNSt16allocator_traitsISaIiEE10deallocateERS0_Pim,"axG",@progbits,_ZNSt16allocator_traitsISaIiEE10deallocateERS0_Pim,comdat
	.align	2
	.weak	_ZNSt16allocator_traitsISaIiEE10deallocateERS0_Pim
	.type	_ZNSt16allocator_traitsISaIiEE10deallocateERS0_Pim, %function
_ZNSt16allocator_traitsISaIiEE10deallocateERS0_Pim:
.LFB6355:
	.cfi_startproc
	stp	x29, x30, [sp, -48]!
	.cfi_def_cfa_offset 48
	.cfi_offset 29, -48
	.cfi_offset 30, -40
	mov	x29, sp
	str	x0, [sp, 40]
	str	x1, [sp, 32]
	str	x2, [sp, 24]
	ldr	x2, [sp, 24]
	ldr	x1, [sp, 32]
	ldr	x0, [sp, 40]
	bl	_ZN9__gnu_cxx13new_allocatorIiE10deallocateEPim
	nop
	ldp	x29, x30, [sp], 48
	.cfi_restore 30
	.cfi_restore 29
	.cfi_def_cfa_offset 0
	ret
	.cfi_endproc
.LFE6355:
	.size	_ZNSt16allocator_traitsISaIiEE10deallocateERS0_Pim, .-_ZNSt16allocator_traitsISaIiEE10deallocateERS0_Pim
	.section	.text._ZNSt6vectorIiSaIiEE11_S_max_sizeERKS0_,"axG",@progbits,_ZNSt6vectorIiSaIiEE11_S_max_sizeERKS0_,comdat
	.align	2
	.weak	_ZNSt6vectorIiSaIiEE11_S_max_sizeERKS0_
	.type	_ZNSt6vectorIiSaIiEE11_S_max_sizeERKS0_, %function
_ZNSt6vectorIiSaIiEE11_S_max_sizeERKS0_:
.LFB6356:
	.cfi_startproc
	stp	x29, x30, [sp, -64]!
	.cfi_def_cfa_offset 64
	.cfi_offset 29, -64
	.cfi_offset 30, -56
	mov	x29, sp
	str	x0, [sp, 24]
	adrp	x0, :got:__stack_chk_guard
	ldr	x0, [x0, #:got_lo12:__stack_chk_guard]
	ldr	x1, [x0]
	str	x1, [sp, 56]
	mov	x1, 0
	mov	x0, 2305843009213693951
	str	x0, [sp, 40]
	ldr	x0, [sp, 24]
	bl	_ZNSt16allocator_traitsISaIiEE8max_sizeERKS0_
	str	x0, [sp, 48]
	add	x1, sp, 48
	add	x0, sp, 40
	bl	_ZSt3minImERKT_S2_S2_
	ldr	x0, [x0]
	mov	x1, x0
	adrp	x0, :got:__stack_chk_guard
	ldr	x0, [x0, #:got_lo12:__stack_chk_guard]
	ldr	x3, [sp, 56]
	ldr	x2, [x0]
	subs	x3, x3, x2
	mov	x2, 0
	beq	.L447
	bl	__stack_chk_fail
.L447:
	mov	x0, x1
	ldp	x29, x30, [sp], 64
	.cfi_restore 30
	.cfi_restore 29
	.cfi_def_cfa_offset 0
	ret
	.cfi_endproc
.LFE6356:
	.size	_ZNSt6vectorIiSaIiEE11_S_max_sizeERKS0_, .-_ZNSt6vectorIiSaIiEE11_S_max_sizeERKS0_
	.section	.text._ZNSt16allocator_traitsISaIiEE8allocateERS0_m,"axG",@progbits,_ZNSt16allocator_traitsISaIiEE8allocateERS0_m,comdat
	.align	2
	.weak	_ZNSt16allocator_traitsISaIiEE8allocateERS0_m
	.type	_ZNSt16allocator_traitsISaIiEE8allocateERS0_m, %function
_ZNSt16allocator_traitsISaIiEE8allocateERS0_m:
.LFB6357:
	.cfi_startproc
	stp	x29, x30, [sp, -32]!
	.cfi_def_cfa_offset 32
	.cfi_offset 29, -32
	.cfi_offset 30, -24
	mov	x29, sp
	str	x0, [sp, 24]
	str	x1, [sp, 16]
	mov	x2, 0
	ldr	x1, [sp, 16]
	ldr	x0, [sp, 24]
	bl	_ZN9__gnu_cxx13new_allocatorIiE8allocateEmPKv
	ldp	x29, x30, [sp], 32
	.cfi_restore 30
	.cfi_restore 29
	.cfi_def_cfa_offset 0
	ret
	.cfi_endproc
.LFE6357:
	.size	_ZNSt16allocator_traitsISaIiEE8allocateERS0_m, .-_ZNSt16allocator_traitsISaIiEE8allocateERS0_m
	.section	.text._ZSt18uninitialized_copyIPKiPiET0_T_S4_S3_,"axG",@progbits,_ZSt18uninitialized_copyIPKiPiET0_T_S4_S3_,comdat
	.align	2
	.weak	_ZSt18uninitialized_copyIPKiPiET0_T_S4_S3_
	.type	_ZSt18uninitialized_copyIPKiPiET0_T_S4_S3_, %function
_ZSt18uninitialized_copyIPKiPiET0_T_S4_S3_:
.LFB6358:
	.cfi_startproc
	stp	x29, x30, [sp, -64]!
	.cfi_def_cfa_offset 64
	.cfi_offset 29, -64
	.cfi_offset 30, -56
	mov	x29, sp
	str	x0, [sp, 40]
	str	x1, [sp, 32]
	str	x2, [sp, 24]
	mov	w0, 1
	strb	w0, [sp, 63]
	ldr	x2, [sp, 24]
	ldr	x1, [sp, 32]
	ldr	x0, [sp, 40]
	bl	_ZNSt20__uninitialized_copyILb1EE13__uninit_copyIPKiPiEET0_T_S6_S5_
	ldp	x29, x30, [sp], 64
	.cfi_restore 30
	.cfi_restore 29
	.cfi_def_cfa_offset 0
	ret
	.cfi_endproc
.LFE6358:
	.size	_ZSt18uninitialized_copyIPKiPiET0_T_S4_S3_, .-_ZSt18uninitialized_copyIPKiPiET0_T_S4_S3_
	.section	.text._ZN9__gnu_cxx13new_allocatorImEC2Ev,"axG",@progbits,_ZN9__gnu_cxx13new_allocatorImEC5Ev,comdat
	.align	2
	.weak	_ZN9__gnu_cxx13new_allocatorImEC2Ev
	.type	_ZN9__gnu_cxx13new_allocatorImEC2Ev, %function
_ZN9__gnu_cxx13new_allocatorImEC2Ev:
.LFB6361:
	.cfi_startproc
	sub	sp, sp, #16
	.cfi_def_cfa_offset 16
	str	x0, [sp, 8]
	nop
	add	sp, sp, 16
	.cfi_def_cfa_offset 0
	ret
	.cfi_endproc
.LFE6361:
	.size	_ZN9__gnu_cxx13new_allocatorImEC2Ev, .-_ZN9__gnu_cxx13new_allocatorImEC2Ev
	.weak	_ZN9__gnu_cxx13new_allocatorImEC1Ev
	.set	_ZN9__gnu_cxx13new_allocatorImEC1Ev,_ZN9__gnu_cxx13new_allocatorImEC2Ev
	.section	.text._ZN9__gnu_cxx13new_allocatorImED2Ev,"axG",@progbits,_ZN9__gnu_cxx13new_allocatorImED5Ev,comdat
	.align	2
	.weak	_ZN9__gnu_cxx13new_allocatorImED2Ev
	.type	_ZN9__gnu_cxx13new_allocatorImED2Ev, %function
_ZN9__gnu_cxx13new_allocatorImED2Ev:
.LFB6364:
	.cfi_startproc
	sub	sp, sp, #16
	.cfi_def_cfa_offset 16
	str	x0, [sp, 8]
	nop
	add	sp, sp, 16
	.cfi_def_cfa_offset 0
	ret
	.cfi_endproc
.LFE6364:
	.size	_ZN9__gnu_cxx13new_allocatorImED2Ev, .-_ZN9__gnu_cxx13new_allocatorImED2Ev
	.weak	_ZN9__gnu_cxx13new_allocatorImED1Ev
	.set	_ZN9__gnu_cxx13new_allocatorImED1Ev,_ZN9__gnu_cxx13new_allocatorImED2Ev
	.section	.text._ZNSaImEC2ERKS_,"axG",@progbits,_ZNSaImEC5ERKS_,comdat
	.align	2
	.weak	_ZNSaImEC2ERKS_
	.type	_ZNSaImEC2ERKS_, %function
_ZNSaImEC2ERKS_:
.LFB6367:
	.cfi_startproc
	stp	x29, x30, [sp, -32]!
	.cfi_def_cfa_offset 32
	.cfi_offset 29, -32
	.cfi_offset 30, -24
	mov	x29, sp
	str	x0, [sp, 24]
	str	x1, [sp, 16]
	ldr	x1, [sp, 16]
	ldr	x0, [sp, 24]
	bl	_ZN9__gnu_cxx13new_allocatorImEC2ERKS1_
	nop
	ldp	x29, x30, [sp], 32
	.cfi_restore 30
	.cfi_restore 29
	.cfi_def_cfa_offset 0
	ret
	.cfi_endproc
.LFE6367:
	.size	_ZNSaImEC2ERKS_, .-_ZNSaImEC2ERKS_
	.weak	_ZNSaImEC1ERKS_
	.set	_ZNSaImEC1ERKS_,_ZNSaImEC2ERKS_
	.section	.text._ZNSt13_Bvector_baseISaIbEE18_Bvector_impl_dataC2Ev,"axG",@progbits,_ZNSt13_Bvector_baseISaIbEE18_Bvector_impl_dataC5Ev,comdat
	.align	2
	.weak	_ZNSt13_Bvector_baseISaIbEE18_Bvector_impl_dataC2Ev
	.type	_ZNSt13_Bvector_baseISaIbEE18_Bvector_impl_dataC2Ev, %function
_ZNSt13_Bvector_baseISaIbEE18_Bvector_impl_dataC2Ev:
.LFB6370:
	.cfi_startproc
	stp	x29, x30, [sp, -32]!
	.cfi_def_cfa_offset 32
	.cfi_offset 29, -32
	.cfi_offset 30, -24
	mov	x29, sp
	str	x0, [sp, 24]
	ldr	x0, [sp, 24]
	bl	_ZNSt13_Bit_iteratorC1Ev
	ldr	x0, [sp, 24]
	add	x0, x0, 16
	bl	_ZNSt13_Bit_iteratorC1Ev
	ldr	x0, [sp, 24]
	str	xzr, [x0, 32]
	nop
	ldp	x29, x30, [sp], 32
	.cfi_restore 30
	.cfi_restore 29
	.cfi_def_cfa_offset 0
	ret
	.cfi_endproc
.LFE6370:
	.size	_ZNSt13_Bvector_baseISaIbEE18_Bvector_impl_dataC2Ev, .-_ZNSt13_Bvector_baseISaIbEE18_Bvector_impl_dataC2Ev
	.weak	_ZNSt13_Bvector_baseISaIbEE18_Bvector_impl_dataC1Ev
	.set	_ZNSt13_Bvector_baseISaIbEE18_Bvector_impl_dataC1Ev,_ZNSt13_Bvector_baseISaIbEE18_Bvector_impl_dataC2Ev
	.section	.text._ZNSt16allocator_traitsISaImEE10deallocateERS0_Pmm,"axG",@progbits,_ZNSt16allocator_traitsISaImEE10deallocateERS0_Pmm,comdat
	.align	2
	.weak	_ZNSt16allocator_traitsISaImEE10deallocateERS0_Pmm
	.type	_ZNSt16allocator_traitsISaImEE10deallocateERS0_Pmm, %function
_ZNSt16allocator_traitsISaImEE10deallocateERS0_Pmm:
.LFB6372:
	.cfi_startproc
	stp	x29, x30, [sp, -48]!
	.cfi_def_cfa_offset 48
	.cfi_offset 29, -48
	.cfi_offset 30, -40
	mov	x29, sp
	str	x0, [sp, 40]
	str	x1, [sp, 32]
	str	x2, [sp, 24]
	ldr	x2, [sp, 24]
	ldr	x1, [sp, 32]
	ldr	x0, [sp, 40]
	bl	_ZN9__gnu_cxx13new_allocatorImE10deallocateEPmm
	nop
	ldp	x29, x30, [sp], 48
	.cfi_restore 30
	.cfi_restore 29
	.cfi_def_cfa_offset 0
	ret
	.cfi_endproc
.LFE6372:
	.size	_ZNSt16allocator_traitsISaImEE10deallocateERS0_Pmm, .-_ZNSt16allocator_traitsISaImEE10deallocateERS0_Pmm
	.section	.text._ZNSt13_Bvector_baseISaIbEE18_Bvector_impl_data8_M_resetEv,"axG",@progbits,_ZNSt13_Bvector_baseISaIbEE18_Bvector_impl_data8_M_resetEv,comdat
	.align	2
	.weak	_ZNSt13_Bvector_baseISaIbEE18_Bvector_impl_data8_M_resetEv
	.type	_ZNSt13_Bvector_baseISaIbEE18_Bvector_impl_data8_M_resetEv, %function
_ZNSt13_Bvector_baseISaIbEE18_Bvector_impl_data8_M_resetEv:
.LFB6373:
	.cfi_startproc
	stp	x29, x30, [sp, -80]!
	.cfi_def_cfa_offset 80
	.cfi_offset 29, -80
	.cfi_offset 30, -72
	mov	x29, sp
	str	x0, [sp, 24]
	adrp	x0, :got:__stack_chk_guard
	ldr	x0, [x0, #:got_lo12:__stack_chk_guard]
	ldr	x1, [x0]
	str	x1, [sp, 72]
	mov	x1, 0
	add	x0, sp, 32
	bl	_ZNSt13_Bvector_baseISaIbEE18_Bvector_impl_dataC1Ev
	ldr	x0, [sp, 24]
	mov	x1, x0
	add	x0, sp, 32
	ldp	q0, q1, [x0]
	stp	q0, q1, [x1]
	ldr	x0, [x0, 32]
	str	x0, [x1, 32]
	nop
	adrp	x0, :got:__stack_chk_guard
	ldr	x0, [x0, #:got_lo12:__stack_chk_guard]
	ldr	x2, [sp, 72]
	ldr	x1, [x0]
	subs	x2, x2, x1
	mov	x1, 0
	beq	.L458
	bl	__stack_chk_fail
.L458:
	ldp	x29, x30, [sp], 80
	.cfi_restore 30
	.cfi_restore 29
	.cfi_def_cfa_offset 0
	ret
	.cfi_endproc
.LFE6373:
	.size	_ZNSt13_Bvector_baseISaIbEE18_Bvector_impl_data8_M_resetEv, .-_ZNSt13_Bvector_baseISaIbEE18_Bvector_impl_data8_M_resetEv
	.section	.text._ZNSt16allocator_traitsISaImEE8allocateERS0_m,"axG",@progbits,_ZNSt16allocator_traitsISaImEE8allocateERS0_m,comdat
	.align	2
	.weak	_ZNSt16allocator_traitsISaImEE8allocateERS0_m
	.type	_ZNSt16allocator_traitsISaImEE8allocateERS0_m, %function
_ZNSt16allocator_traitsISaImEE8allocateERS0_m:
.LFB6374:
	.cfi_startproc
	stp	x29, x30, [sp, -32]!
	.cfi_def_cfa_offset 32
	.cfi_offset 29, -32
	.cfi_offset 30, -24
	mov	x29, sp
	str	x0, [sp, 24]
	str	x1, [sp, 16]
	mov	x2, 0
	ldr	x1, [sp, 16]
	ldr	x0, [sp, 24]
	bl	_ZN9__gnu_cxx13new_allocatorImE8allocateEmPKv
	ldp	x29, x30, [sp], 32
	.cfi_restore 30
	.cfi_restore 29
	.cfi_def_cfa_offset 0
	ret
	.cfi_endproc
.LFE6374:
	.size	_ZNSt16allocator_traitsISaImEE8allocateERS0_m, .-_ZNSt16allocator_traitsISaImEE8allocateERS0_m
	.section	.text._ZNSt16allocator_traitsISaISt6vectorIbSaIbEEEE8max_sizeERKS3_,"axG",@progbits,_ZNSt16allocator_traitsISaISt6vectorIbSaIbEEEE8max_sizeERKS3_,comdat
	.align	2
	.weak	_ZNSt16allocator_traitsISaISt6vectorIbSaIbEEEE8max_sizeERKS3_
	.type	_ZNSt16allocator_traitsISaISt6vectorIbSaIbEEEE8max_sizeERKS3_, %function
_ZNSt16allocator_traitsISaISt6vectorIbSaIbEEEE8max_sizeERKS3_:
.LFB6375:
	.cfi_startproc
	stp	x29, x30, [sp, -32]!
	.cfi_def_cfa_offset 32
	.cfi_offset 29, -32
	.cfi_offset 30, -24
	mov	x29, sp
	str	x0, [sp, 24]
	ldr	x0, [sp, 24]
	bl	_ZNK9__gnu_cxx13new_allocatorISt6vectorIbSaIbEEE8max_sizeEv
	ldp	x29, x30, [sp], 32
	.cfi_restore 30
	.cfi_restore 29
	.cfi_def_cfa_offset 0
	ret
	.cfi_endproc
.LFE6375:
	.size	_ZNSt16allocator_traitsISaISt6vectorIbSaIbEEEE8max_sizeERKS3_, .-_ZNSt16allocator_traitsISaISt6vectorIbSaIbEEEE8max_sizeERKS3_
	.section	.text._ZN9__gnu_cxx13new_allocatorISt6vectorIbSaIbEEEC2ERKS4_,"axG",@progbits,_ZN9__gnu_cxx13new_allocatorISt6vectorIbSaIbEEEC5ERKS4_,comdat
	.align	2
	.weak	_ZN9__gnu_cxx13new_allocatorISt6vectorIbSaIbEEEC2ERKS4_
	.type	_ZN9__gnu_cxx13new_allocatorISt6vectorIbSaIbEEEC2ERKS4_, %function
_ZN9__gnu_cxx13new_allocatorISt6vectorIbSaIbEEEC2ERKS4_:
.LFB6377:
	.cfi_startproc
	sub	sp, sp, #16
	.cfi_def_cfa_offset 16
	str	x0, [sp, 8]
	str	x1, [sp]
	nop
	add	sp, sp, 16
	.cfi_def_cfa_offset 0
	ret
	.cfi_endproc
.LFE6377:
	.size	_ZN9__gnu_cxx13new_allocatorISt6vectorIbSaIbEEEC2ERKS4_, .-_ZN9__gnu_cxx13new_allocatorISt6vectorIbSaIbEEEC2ERKS4_
	.weak	_ZN9__gnu_cxx13new_allocatorISt6vectorIbSaIbEEEC1ERKS4_
	.set	_ZN9__gnu_cxx13new_allocatorISt6vectorIbSaIbEEEC1ERKS4_,_ZN9__gnu_cxx13new_allocatorISt6vectorIbSaIbEEEC2ERKS4_
	.section	.text._ZNSt12_Vector_baseISt6vectorIbSaIbEESaIS2_EE17_Vector_impl_dataC2Ev,"axG",@progbits,_ZNSt12_Vector_baseISt6vectorIbSaIbEESaIS2_EE17_Vector_impl_dataC5Ev,comdat
	.align	2
	.weak	_ZNSt12_Vector_baseISt6vectorIbSaIbEESaIS2_EE17_Vector_impl_dataC2Ev
	.type	_ZNSt12_Vector_baseISt6vectorIbSaIbEESaIS2_EE17_Vector_impl_dataC2Ev, %function
_ZNSt12_Vector_baseISt6vectorIbSaIbEESaIS2_EE17_Vector_impl_dataC2Ev:
.LFB6380:
	.cfi_startproc
	sub	sp, sp, #16
	.cfi_def_cfa_offset 16
	str	x0, [sp, 8]
	ldr	x0, [sp, 8]
	str	xzr, [x0]
	ldr	x0, [sp, 8]
	str	xzr, [x0, 8]
	ldr	x0, [sp, 8]
	str	xzr, [x0, 16]
	nop
	add	sp, sp, 16
	.cfi_def_cfa_offset 0
	ret
	.cfi_endproc
.LFE6380:
	.size	_ZNSt12_Vector_baseISt6vectorIbSaIbEESaIS2_EE17_Vector_impl_dataC2Ev, .-_ZNSt12_Vector_baseISt6vectorIbSaIbEESaIS2_EE17_Vector_impl_dataC2Ev
	.weak	_ZNSt12_Vector_baseISt6vectorIbSaIbEESaIS2_EE17_Vector_impl_dataC1Ev
	.set	_ZNSt12_Vector_baseISt6vectorIbSaIbEESaIS2_EE17_Vector_impl_dataC1Ev,_ZNSt12_Vector_baseISt6vectorIbSaIbEESaIS2_EE17_Vector_impl_dataC2Ev
	.section	.text._ZNSt12_Vector_baseISt6vectorIbSaIbEESaIS2_EE11_M_allocateEm,"axG",@progbits,_ZNSt12_Vector_baseISt6vectorIbSaIbEESaIS2_EE11_M_allocateEm,comdat
	.align	2
	.weak	_ZNSt12_Vector_baseISt6vectorIbSaIbEESaIS2_EE11_M_allocateEm
	.type	_ZNSt12_Vector_baseISt6vectorIbSaIbEESaIS2_EE11_M_allocateEm, %function
_ZNSt12_Vector_baseISt6vectorIbSaIbEESaIS2_EE11_M_allocateEm:
.LFB6382:
	.cfi_startproc
	stp	x29, x30, [sp, -32]!
	.cfi_def_cfa_offset 32
	.cfi_offset 29, -32
	.cfi_offset 30, -24
	mov	x29, sp
	str	x0, [sp, 24]
	str	x1, [sp, 16]
	ldr	x0, [sp, 16]
	cmp	x0, 0
	beq	.L466
	ldr	x0, [sp, 24]
	ldr	x1, [sp, 16]
	bl	_ZNSt16allocator_traitsISaISt6vectorIbSaIbEEEE8allocateERS3_m
	b	.L468
.L466:
	mov	x0, 0
.L468:
	ldp	x29, x30, [sp], 32
	.cfi_restore 30
	.cfi_restore 29
	.cfi_def_cfa_offset 0
	ret
	.cfi_endproc
.LFE6382:
	.size	_ZNSt12_Vector_baseISt6vectorIbSaIbEESaIS2_EE11_M_allocateEm, .-_ZNSt12_Vector_baseISt6vectorIbSaIbEESaIS2_EE11_M_allocateEm
	.section	.text._ZNSt16allocator_traitsISaISt6vectorIbSaIbEEEE10deallocateERS3_PS2_m,"axG",@progbits,_ZNSt16allocator_traitsISaISt6vectorIbSaIbEEEE10deallocateERS3_PS2_m,comdat
	.align	2
	.weak	_ZNSt16allocator_traitsISaISt6vectorIbSaIbEEEE10deallocateERS3_PS2_m
	.type	_ZNSt16allocator_traitsISaISt6vectorIbSaIbEEEE10deallocateERS3_PS2_m, %function
_ZNSt16allocator_traitsISaISt6vectorIbSaIbEEEE10deallocateERS3_PS2_m:
.LFB6383:
	.cfi_startproc
	stp	x29, x30, [sp, -48]!
	.cfi_def_cfa_offset 48
	.cfi_offset 29, -48
	.cfi_offset 30, -40
	mov	x29, sp
	str	x0, [sp, 40]
	str	x1, [sp, 32]
	str	x2, [sp, 24]
	ldr	x2, [sp, 24]
	ldr	x1, [sp, 32]
	ldr	x0, [sp, 40]
	bl	_ZN9__gnu_cxx13new_allocatorISt6vectorIbSaIbEEE10deallocateEPS3_m
	nop
	ldp	x29, x30, [sp], 48
	.cfi_restore 30
	.cfi_restore 29
	.cfi_def_cfa_offset 0
	ret
	.cfi_endproc
.LFE6383:
	.size	_ZNSt16allocator_traitsISaISt6vectorIbSaIbEEEE10deallocateERS3_PS2_m, .-_ZNSt16allocator_traitsISaISt6vectorIbSaIbEEEE10deallocateERS3_PS2_m
	.section	.text._ZSt20uninitialized_fill_nIPSt6vectorIbSaIbEEmS2_ET_S4_T0_RKT1_,"axG",@progbits,_ZSt20uninitialized_fill_nIPSt6vectorIbSaIbEEmS2_ET_S4_T0_RKT1_,comdat
	.align	2
	.weak	_ZSt20uninitialized_fill_nIPSt6vectorIbSaIbEEmS2_ET_S4_T0_RKT1_
	.type	_ZSt20uninitialized_fill_nIPSt6vectorIbSaIbEEmS2_ET_S4_T0_RKT1_, %function
_ZSt20uninitialized_fill_nIPSt6vectorIbSaIbEEmS2_ET_S4_T0_RKT1_:
.LFB6384:
	.cfi_startproc
	stp	x29, x30, [sp, -64]!
	.cfi_def_cfa_offset 64
	.cfi_offset 29, -64
	.cfi_offset 30, -56
	mov	x29, sp
	str	x0, [sp, 40]
	str	x1, [sp, 32]
	str	x2, [sp, 24]
	mov	w0, 1
	strb	w0, [sp, 63]
	ldr	x2, [sp, 24]
	ldr	x1, [sp, 32]
	ldr	x0, [sp, 40]
	bl	_ZNSt22__uninitialized_fill_nILb0EE15__uninit_fill_nIPSt6vectorIbSaIbEEmS4_EET_S6_T0_RKT1_
	ldp	x29, x30, [sp], 64
	.cfi_restore 30
	.cfi_restore 29
	.cfi_def_cfa_offset 0
	ret
	.cfi_endproc
.LFE6384:
	.size	_ZSt20uninitialized_fill_nIPSt6vectorIbSaIbEEmS2_ET_S4_T0_RKT1_, .-_ZSt20uninitialized_fill_nIPSt6vectorIbSaIbEEmS2_ET_S4_T0_RKT1_
	.section	.text._ZNSt12_Destroy_auxILb0EE9__destroyIPSt6vectorIbSaIbEEEEvT_S6_,"axG",@progbits,_ZNSt12_Destroy_auxILb0EE9__destroyIPSt6vectorIbSaIbEEEEvT_S6_,comdat
	.align	2
	.weak	_ZNSt12_Destroy_auxILb0EE9__destroyIPSt6vectorIbSaIbEEEEvT_S6_
	.type	_ZNSt12_Destroy_auxILb0EE9__destroyIPSt6vectorIbSaIbEEEEvT_S6_, %function
_ZNSt12_Destroy_auxILb0EE9__destroyIPSt6vectorIbSaIbEEEEvT_S6_:
.LFB6385:
	.cfi_startproc
	stp	x29, x30, [sp, -32]!
	.cfi_def_cfa_offset 32
	.cfi_offset 29, -32
	.cfi_offset 30, -24
	mov	x29, sp
	str	x0, [sp, 24]
	str	x1, [sp, 16]
	b	.L473
.L474:
	ldr	x0, [sp, 24]
	bl	_ZSt11__addressofISt6vectorIbSaIbEEEPT_RS3_
	bl	_ZSt8_DestroyISt6vectorIbSaIbEEEvPT_
	ldr	x0, [sp, 24]
	add	x0, x0, 40
	str	x0, [sp, 24]
.L473:
	ldr	x1, [sp, 24]
	ldr	x0, [sp, 16]
	cmp	x1, x0
	bne	.L474
	nop
	nop
	ldp	x29, x30, [sp], 32
	.cfi_restore 30
	.cfi_restore 29
	.cfi_def_cfa_offset 0
	ret
	.cfi_endproc
.LFE6385:
	.size	_ZNSt12_Destroy_auxILb0EE9__destroyIPSt6vectorIbSaIbEEEEvT_S6_, .-_ZNSt12_Destroy_auxILb0EE9__destroyIPSt6vectorIbSaIbEEEEvT_S6_
	.section	.text._ZN9__gnu_cxx13new_allocatorISt6vectorIiSaIiEEE10deallocateEPS3_m,"axG",@progbits,_ZN9__gnu_cxx13new_allocatorISt6vectorIiSaIiEEE10deallocateEPS3_m,comdat
	.align	2
	.weak	_ZN9__gnu_cxx13new_allocatorISt6vectorIiSaIiEEE10deallocateEPS3_m
	.type	_ZN9__gnu_cxx13new_allocatorISt6vectorIiSaIiEEE10deallocateEPS3_m, %function
_ZN9__gnu_cxx13new_allocatorISt6vectorIiSaIiEEE10deallocateEPS3_m:
.LFB6386:
	.cfi_startproc
	stp	x29, x30, [sp, -48]!
	.cfi_def_cfa_offset 48
	.cfi_offset 29, -48
	.cfi_offset 30, -40
	mov	x29, sp
	str	x0, [sp, 40]
	str	x1, [sp, 32]
	str	x2, [sp, 24]
	ldr	x1, [sp, 24]
	mov	x0, x1
	lsl	x0, x0, 1
	add	x0, x0, x1
	lsl	x0, x0, 3
	mov	x1, x0
	ldr	x0, [sp, 32]
	bl	_ZdlPvm
	ldp	x29, x30, [sp], 48
	.cfi_restore 30
	.cfi_restore 29
	.cfi_def_cfa_offset 0
	ret
	.cfi_endproc
.LFE6386:
	.size	_ZN9__gnu_cxx13new_allocatorISt6vectorIiSaIiEEE10deallocateEPS3_m, .-_ZN9__gnu_cxx13new_allocatorISt6vectorIiSaIiEEE10deallocateEPS3_m
	.section	.text._ZNSt12_Destroy_auxILb0EE9__destroyIPSt6vectorIiSaIiEEEEvT_S6_,"axG",@progbits,_ZNSt12_Destroy_auxILb0EE9__destroyIPSt6vectorIiSaIiEEEEvT_S6_,comdat
	.align	2
	.weak	_ZNSt12_Destroy_auxILb0EE9__destroyIPSt6vectorIiSaIiEEEEvT_S6_
	.type	_ZNSt12_Destroy_auxILb0EE9__destroyIPSt6vectorIiSaIiEEEEvT_S6_, %function
_ZNSt12_Destroy_auxILb0EE9__destroyIPSt6vectorIiSaIiEEEEvT_S6_:
.LFB6387:
	.cfi_startproc
	stp	x29, x30, [sp, -32]!
	.cfi_def_cfa_offset 32
	.cfi_offset 29, -32
	.cfi_offset 30, -24
	mov	x29, sp
	str	x0, [sp, 24]
	str	x1, [sp, 16]
	b	.L478
.L479:
	ldr	x0, [sp, 24]
	bl	_ZSt11__addressofISt6vectorIiSaIiEEEPT_RS3_
	bl	_ZSt8_DestroyISt6vectorIiSaIiEEEvPT_
	ldr	x0, [sp, 24]
	add	x0, x0, 24
	str	x0, [sp, 24]
.L478:
	ldr	x1, [sp, 24]
	ldr	x0, [sp, 16]
	cmp	x1, x0
	bne	.L479
	nop
	nop
	ldp	x29, x30, [sp], 32
	.cfi_restore 30
	.cfi_restore 29
	.cfi_def_cfa_offset 0
	ret
	.cfi_endproc
.LFE6387:
	.size	_ZNSt12_Destroy_auxILb0EE9__destroyIPSt6vectorIiSaIiEEEEvT_S6_, .-_ZNSt12_Destroy_auxILb0EE9__destroyIPSt6vectorIiSaIiEEEEvT_S6_
	.section	.text._ZNSt12_Destroy_auxILb1EE9__destroyIPiEEvT_S3_,"axG",@progbits,_ZNSt12_Destroy_auxILb1EE9__destroyIPiEEvT_S3_,comdat
	.align	2
	.weak	_ZNSt12_Destroy_auxILb1EE9__destroyIPiEEvT_S3_
	.type	_ZNSt12_Destroy_auxILb1EE9__destroyIPiEEvT_S3_, %function
_ZNSt12_Destroy_auxILb1EE9__destroyIPiEEvT_S3_:
.LFB6388:
	.cfi_startproc
	sub	sp, sp, #16
	.cfi_def_cfa_offset 16
	str	x0, [sp, 8]
	str	x1, [sp]
	nop
	add	sp, sp, 16
	.cfi_def_cfa_offset 0
	ret
	.cfi_endproc
.LFE6388:
	.size	_ZNSt12_Destroy_auxILb1EE9__destroyIPiEEvT_S3_, .-_ZNSt12_Destroy_auxILb1EE9__destroyIPiEEvT_S3_
	.section	.text._ZNSt12_Vector_baseIiSaIiEEC2EOS1_,"axG",@progbits,_ZNSt12_Vector_baseIiSaIiEEC5EOS1_,comdat
	.align	2
	.weak	_ZNSt12_Vector_baseIiSaIiEEC2EOS1_
	.type	_ZNSt12_Vector_baseIiSaIiEEC2EOS1_, %function
_ZNSt12_Vector_baseIiSaIiEEC2EOS1_:
.LFB6392:
	.cfi_startproc
	stp	x29, x30, [sp, -32]!
	.cfi_def_cfa_offset 32
	.cfi_offset 29, -32
	.cfi_offset 30, -24
	mov	x29, sp
	str	x0, [sp, 24]
	str	x1, [sp, 16]
	ldr	x0, [sp, 24]
	ldr	x1, [sp, 16]
	bl	_ZNSt12_Vector_baseIiSaIiEE12_Vector_implC1EOS2_
	nop
	ldp	x29, x30, [sp], 32
	.cfi_restore 30
	.cfi_restore 29
	.cfi_def_cfa_offset 0
	ret
	.cfi_endproc
.LFE6392:
	.size	_ZNSt12_Vector_baseIiSaIiEEC2EOS1_, .-_ZNSt12_Vector_baseIiSaIiEEC2EOS1_
	.weak	_ZNSt12_Vector_baseIiSaIiEEC1EOS1_
	.set	_ZNSt12_Vector_baseIiSaIiEEC1EOS1_,_ZNSt12_Vector_baseIiSaIiEEC2EOS1_
	.section	.text._ZNSt6vectorIiSaIiEEC2EOS1_,"axG",@progbits,_ZNSt6vectorIiSaIiEEC5EOS1_,comdat
	.align	2
	.weak	_ZNSt6vectorIiSaIiEEC2EOS1_
	.type	_ZNSt6vectorIiSaIiEEC2EOS1_, %function
_ZNSt6vectorIiSaIiEEC2EOS1_:
.LFB6394:
	.cfi_startproc
	stp	x29, x30, [sp, -32]!
	.cfi_def_cfa_offset 32
	.cfi_offset 29, -32
	.cfi_offset 30, -24
	mov	x29, sp
	str	x0, [sp, 24]
	str	x1, [sp, 16]
	ldr	x0, [sp, 24]
	ldr	x1, [sp, 16]
	bl	_ZNSt12_Vector_baseIiSaIiEEC2EOS1_
	nop
	ldp	x29, x30, [sp], 32
	.cfi_restore 30
	.cfi_restore 29
	.cfi_def_cfa_offset 0
	ret
	.cfi_endproc
.LFE6394:
	.size	_ZNSt6vectorIiSaIiEEC2EOS1_, .-_ZNSt6vectorIiSaIiEEC2EOS1_
	.weak	_ZNSt6vectorIiSaIiEEC1EOS1_
	.set	_ZNSt6vectorIiSaIiEEC1EOS1_,_ZNSt6vectorIiSaIiEEC2EOS1_
	.section	.text._ZN9__gnu_cxx13new_allocatorISt6vectorIiSaIiEEE9constructIS3_JS3_EEEvPT_DpOT0_,"axG",@progbits,_ZN9__gnu_cxx13new_allocatorISt6vectorIiSaIiEEE9constructIS3_JS3_EEEvPT_DpOT0_,comdat
	.align	2
	.weak	_ZN9__gnu_cxx13new_allocatorISt6vectorIiSaIiEEE9constructIS3_JS3_EEEvPT_DpOT0_
	.type	_ZN9__gnu_cxx13new_allocatorISt6vectorIiSaIiEEE9constructIS3_JS3_EEEvPT_DpOT0_, %function
_ZN9__gnu_cxx13new_allocatorISt6vectorIiSaIiEEE9constructIS3_JS3_EEEvPT_DpOT0_:
.LFB6389:
	.cfi_startproc
	stp	x29, x30, [sp, -64]!
	.cfi_def_cfa_offset 64
	.cfi_offset 29, -64
	.cfi_offset 30, -56
	mov	x29, sp
	str	x19, [sp, 16]
	.cfi_offset 19, -48
	str	x0, [sp, 56]
	str	x1, [sp, 48]
	str	x2, [sp, 40]
	ldr	x0, [sp, 40]
	bl	_ZSt7forwardISt6vectorIiSaIiEEEOT_RNSt16remove_referenceIS3_E4typeE
	mov	x19, x0
	ldr	x0, [sp, 48]
	mov	x1, x0
	mov	x0, 24
	bl	_ZnwmPv
	mov	x1, x19
	bl	_ZNSt6vectorIiSaIiEEC1EOS1_
	nop
	ldr	x19, [sp, 16]
	ldp	x29, x30, [sp], 64
	.cfi_restore 30
	.cfi_restore 29
	.cfi_restore 19
	.cfi_def_cfa_offset 0
	ret
	.cfi_endproc
.LFE6389:
	.size	_ZN9__gnu_cxx13new_allocatorISt6vectorIiSaIiEEE9constructIS3_JS3_EEEvPT_DpOT0_, .-_ZN9__gnu_cxx13new_allocatorISt6vectorIiSaIiEEE9constructIS3_JS3_EEEvPT_DpOT0_
	.section	.text._ZN9__gnu_cxx17__normal_iteratorIPSt6vectorIiSaIiEES1_IS3_SaIS3_EEEC2ERKS4_,"axG",@progbits,_ZN9__gnu_cxx17__normal_iteratorIPSt6vectorIiSaIiEES1_IS3_SaIS3_EEEC5ERKS4_,comdat
	.align	2
	.weak	_ZN9__gnu_cxx17__normal_iteratorIPSt6vectorIiSaIiEES1_IS3_SaIS3_EEEC2ERKS4_
	.type	_ZN9__gnu_cxx17__normal_iteratorIPSt6vectorIiSaIiEES1_IS3_SaIS3_EEEC2ERKS4_, %function
_ZN9__gnu_cxx17__normal_iteratorIPSt6vectorIiSaIiEES1_IS3_SaIS3_EEEC2ERKS4_:
.LFB6397:
	.cfi_startproc
	sub	sp, sp, #16
	.cfi_def_cfa_offset 16
	str	x0, [sp, 8]
	str	x1, [sp]
	ldr	x0, [sp]
	ldr	x1, [x0]
	ldr	x0, [sp, 8]
	str	x1, [x0]
	nop
	add	sp, sp, 16
	.cfi_def_cfa_offset 0
	ret
	.cfi_endproc
.LFE6397:
	.size	_ZN9__gnu_cxx17__normal_iteratorIPSt6vectorIiSaIiEES1_IS3_SaIS3_EEEC2ERKS4_, .-_ZN9__gnu_cxx17__normal_iteratorIPSt6vectorIiSaIiEES1_IS3_SaIS3_EEEC2ERKS4_
	.weak	_ZN9__gnu_cxx17__normal_iteratorIPSt6vectorIiSaIiEES1_IS3_SaIS3_EEEC1ERKS4_
	.set	_ZN9__gnu_cxx17__normal_iteratorIPSt6vectorIiSaIiEES1_IS3_SaIS3_EEEC1ERKS4_,_ZN9__gnu_cxx17__normal_iteratorIPSt6vectorIiSaIiEES1_IS3_SaIS3_EEEC2ERKS4_
	.section	.text._ZNKSt6vectorIS_IiSaIiEESaIS1_EE12_M_check_lenEmPKc,"axG",@progbits,_ZNKSt6vectorIS_IiSaIiEESaIS1_EE12_M_check_lenEmPKc,comdat
	.align	2
	.weak	_ZNKSt6vectorIS_IiSaIiEESaIS1_EE12_M_check_lenEmPKc
	.type	_ZNKSt6vectorIS_IiSaIiEESaIS1_EE12_M_check_lenEmPKc, %function
_ZNKSt6vectorIS_IiSaIiEESaIS1_EE12_M_check_lenEmPKc:
.LFB6399:
	.cfi_startproc
	stp	x29, x30, [sp, -96]!
	.cfi_def_cfa_offset 96
	.cfi_offset 29, -96
	.cfi_offset 30, -88
	mov	x29, sp
	str	x19, [sp, 16]
	.cfi_offset 19, -80
	str	x0, [sp, 56]
	str	x1, [sp, 48]
	str	x2, [sp, 40]
	adrp	x0, :got:__stack_chk_guard
	ldr	x0, [x0, #:got_lo12:__stack_chk_guard]
	ldr	x1, [x0]
	str	x1, [sp, 88]
	mov	x1, 0
	ldr	x0, [sp, 56]
	bl	_ZNKSt6vectorIS_IiSaIiEESaIS1_EE8max_sizeEv
	mov	x19, x0
	ldr	x0, [sp, 56]
	bl	_ZNKSt6vectorIS_IiSaIiEESaIS1_EE4sizeEv
	sub	x1, x19, x0
	ldr	x0, [sp, 48]
	cmp	x1, x0
	cset	w0, cc
	and	w0, w0, 255
	cmp	w0, 0
	beq	.L486
	ldr	x0, [sp, 40]
	bl	_ZSt20__throw_length_errorPKc
.L486:
	ldr	x0, [sp, 56]
	bl	_ZNKSt6vectorIS_IiSaIiEESaIS1_EE4sizeEv
	mov	x19, x0
	ldr	x0, [sp, 56]
	bl	_ZNKSt6vectorIS_IiSaIiEESaIS1_EE4sizeEv
	str	x0, [sp, 72]
	add	x1, sp, 48
	add	x0, sp, 72
	bl	_ZSt3maxImERKT_S2_S2_
	ldr	x0, [x0]
	add	x0, x19, x0
	str	x0, [sp, 80]
	ldr	x0, [sp, 56]
	bl	_ZNKSt6vectorIS_IiSaIiEESaIS1_EE4sizeEv
	mov	x1, x0
	ldr	x0, [sp, 80]
	cmp	x0, x1
	bcc	.L487
	ldr	x0, [sp, 56]
	bl	_ZNKSt6vectorIS_IiSaIiEESaIS1_EE8max_sizeEv
	mov	x1, x0
	ldr	x0, [sp, 80]
	cmp	x0, x1
	bls	.L488
.L487:
	ldr	x0, [sp, 56]
	bl	_ZNKSt6vectorIS_IiSaIiEESaIS1_EE8max_sizeEv
	b	.L489
.L488:
	ldr	x0, [sp, 80]
.L489:
	mov	x1, x0
	adrp	x0, :got:__stack_chk_guard
	ldr	x0, [x0, #:got_lo12:__stack_chk_guard]
	ldr	x3, [sp, 88]
	ldr	x2, [x0]
	subs	x3, x3, x2
	mov	x2, 0
	beq	.L491
	bl	__stack_chk_fail
.L491:
	mov	x0, x1
	ldr	x19, [sp, 16]
	ldp	x29, x30, [sp], 96
	.cfi_restore 30
	.cfi_restore 29
	.cfi_restore 19
	.cfi_def_cfa_offset 0
	ret
	.cfi_endproc
.LFE6399:
	.size	_ZNKSt6vectorIS_IiSaIiEESaIS1_EE12_M_check_lenEmPKc, .-_ZNKSt6vectorIS_IiSaIiEESaIS1_EE12_M_check_lenEmPKc
	.section	.text._ZNSt6vectorIS_IiSaIiEESaIS1_EE5beginEv,"axG",@progbits,_ZNSt6vectorIS_IiSaIiEESaIS1_EE5beginEv,comdat
	.align	2
	.weak	_ZNSt6vectorIS_IiSaIiEESaIS1_EE5beginEv
	.type	_ZNSt6vectorIS_IiSaIiEESaIS1_EE5beginEv, %function
_ZNSt6vectorIS_IiSaIiEESaIS1_EE5beginEv:
.LFB6400:
	.cfi_startproc
	stp	x29, x30, [sp, -48]!
	.cfi_def_cfa_offset 48
	.cfi_offset 29, -48
	.cfi_offset 30, -40
	mov	x29, sp
	str	x0, [sp, 24]
	adrp	x0, :got:__stack_chk_guard
	ldr	x0, [x0, #:got_lo12:__stack_chk_guard]
	ldr	x1, [x0]
	str	x1, [sp, 40]
	mov	x1, 0
	ldr	x1, [sp, 24]
	add	x0, sp, 32
	bl	_ZN9__gnu_cxx17__normal_iteratorIPSt6vectorIiSaIiEES1_IS3_SaIS3_EEEC1ERKS4_
	ldr	x0, [sp, 32]
	mov	x1, x0
	adrp	x0, :got:__stack_chk_guard
	ldr	x0, [x0, #:got_lo12:__stack_chk_guard]
	ldr	x3, [sp, 40]
	ldr	x2, [x0]
	subs	x3, x3, x2
	mov	x2, 0
	beq	.L494
	bl	__stack_chk_fail
.L494:
	mov	x0, x1
	ldp	x29, x30, [sp], 48
	.cfi_restore 30
	.cfi_restore 29
	.cfi_def_cfa_offset 0
	ret
	.cfi_endproc
.LFE6400:
	.size	_ZNSt6vectorIS_IiSaIiEESaIS1_EE5beginEv, .-_ZNSt6vectorIS_IiSaIiEESaIS1_EE5beginEv
	.section	.text._ZN9__gnu_cxxmiIPSt6vectorIiSaIiEES1_IS3_SaIS3_EEEENS_17__normal_iteratorIT_T0_E15difference_typeERKSA_SD_,"axG",@progbits,_ZN9__gnu_cxxmiIPSt6vectorIiSaIiEES1_IS3_SaIS3_EEEENS_17__normal_iteratorIT_T0_E15difference_typeERKSA_SD_,comdat
	.align	2
	.weak	_ZN9__gnu_cxxmiIPSt6vectorIiSaIiEES1_IS3_SaIS3_EEEENS_17__normal_iteratorIT_T0_E15difference_typeERKSA_SD_
	.type	_ZN9__gnu_cxxmiIPSt6vectorIiSaIiEES1_IS3_SaIS3_EEEENS_17__normal_iteratorIT_T0_E15difference_typeERKSA_SD_, %function
_ZN9__gnu_cxxmiIPSt6vectorIiSaIiEES1_IS3_SaIS3_EEEENS_17__normal_iteratorIT_T0_E15difference_typeERKSA_SD_:
.LFB6401:
	.cfi_startproc
	stp	x29, x30, [sp, -48]!
	.cfi_def_cfa_offset 48
	.cfi_offset 29, -48
	.cfi_offset 30, -40
	mov	x29, sp
	str	x19, [sp, 16]
	.cfi_offset 19, -32
	str	x0, [sp, 40]
	str	x1, [sp, 32]
	ldr	x0, [sp, 40]
	bl	_ZNK9__gnu_cxx17__normal_iteratorIPSt6vectorIiSaIiEES1_IS3_SaIS3_EEE4baseEv
	ldr	x19, [x0]
	ldr	x0, [sp, 32]
	bl	_ZNK9__gnu_cxx17__normal_iteratorIPSt6vectorIiSaIiEES1_IS3_SaIS3_EEE4baseEv
	ldr	x0, [x0]
	sub	x0, x19, x0
	asr	x1, x0, 3
	mov	x0, -6148914691236517206
	movk	x0, 0xaaab, lsl 0
	mul	x0, x1, x0
	ldr	x19, [sp, 16]
	ldp	x29, x30, [sp], 48
	.cfi_restore 30
	.cfi_restore 29
	.cfi_restore 19
	.cfi_def_cfa_offset 0
	ret
	.cfi_endproc
.LFE6401:
	.size	_ZN9__gnu_cxxmiIPSt6vectorIiSaIiEES1_IS3_SaIS3_EEEENS_17__normal_iteratorIT_T0_E15difference_typeERKSA_SD_, .-_ZN9__gnu_cxxmiIPSt6vectorIiSaIiEES1_IS3_SaIS3_EEEENS_17__normal_iteratorIT_T0_E15difference_typeERKSA_SD_
	.section	.text._ZNSt6vectorIS_IiSaIiEESaIS1_EE11_S_relocateEPS1_S4_S4_RS2_,"axG",@progbits,_ZNSt6vectorIS_IiSaIiEESaIS1_EE11_S_relocateEPS1_S4_S4_RS2_,comdat
	.align	2
	.weak	_ZNSt6vectorIS_IiSaIiEESaIS1_EE11_S_relocateEPS1_S4_S4_RS2_
	.type	_ZNSt6vectorIS_IiSaIiEESaIS1_EE11_S_relocateEPS1_S4_S4_RS2_, %function
_ZNSt6vectorIS_IiSaIiEESaIS1_EE11_S_relocateEPS1_S4_S4_RS2_:
.LFB6402:
	.cfi_startproc
	stp	x29, x30, [sp, -48]!
	.cfi_def_cfa_offset 48
	.cfi_offset 29, -48
	.cfi_offset 30, -40
	mov	x29, sp
	str	x0, [sp, 40]
	str	x1, [sp, 32]
	str	x2, [sp, 24]
	str	x3, [sp, 16]
	ldr	x3, [sp, 16]
	ldr	x2, [sp, 24]
	ldr	x1, [sp, 32]
	ldr	x0, [sp, 40]
	bl	_ZNSt6vectorIS_IiSaIiEESaIS1_EE14_S_do_relocateEPS1_S4_S4_RS2_St17integral_constantIbLb1EE
	ldp	x29, x30, [sp], 48
	.cfi_restore 30
	.cfi_restore 29
	.cfi_def_cfa_offset 0
	ret
	.cfi_endproc
.LFE6402:
	.size	_ZNSt6vectorIS_IiSaIiEESaIS1_EE11_S_relocateEPS1_S4_S4_RS2_, .-_ZNSt6vectorIS_IiSaIiEESaIS1_EE11_S_relocateEPS1_S4_S4_RS2_
	.section	.text._ZNK9__gnu_cxx17__normal_iteratorIPSt6vectorIiSaIiEES1_IS3_SaIS3_EEE4baseEv,"axG",@progbits,_ZNK9__gnu_cxx17__normal_iteratorIPSt6vectorIiSaIiEES1_IS3_SaIS3_EEE4baseEv,comdat
	.align	2
	.weak	_ZNK9__gnu_cxx17__normal_iteratorIPSt6vectorIiSaIiEES1_IS3_SaIS3_EEE4baseEv
	.type	_ZNK9__gnu_cxx17__normal_iteratorIPSt6vectorIiSaIiEES1_IS3_SaIS3_EEE4baseEv, %function
_ZNK9__gnu_cxx17__normal_iteratorIPSt6vectorIiSaIiEES1_IS3_SaIS3_EEE4baseEv:
.LFB6403:
	.cfi_startproc
	sub	sp, sp, #16
	.cfi_def_cfa_offset 16
	str	x0, [sp, 8]
	ldr	x0, [sp, 8]
	add	sp, sp, 16
	.cfi_def_cfa_offset 0
	ret
	.cfi_endproc
.LFE6403:
	.size	_ZNK9__gnu_cxx17__normal_iteratorIPSt6vectorIiSaIiEES1_IS3_SaIS3_EEE4baseEv, .-_ZNK9__gnu_cxx17__normal_iteratorIPSt6vectorIiSaIiEES1_IS3_SaIS3_EEE4baseEv
	.section	.text._ZNSt16allocator_traitsISaISt6vectorIiSaIiEEEE7destroyIS2_EEvRS3_PT_,"axG",@progbits,_ZNSt16allocator_traitsISaISt6vectorIiSaIiEEEE7destroyIS2_EEvRS3_PT_,comdat
	.align	2
	.weak	_ZNSt16allocator_traitsISaISt6vectorIiSaIiEEEE7destroyIS2_EEvRS3_PT_
	.type	_ZNSt16allocator_traitsISaISt6vectorIiSaIiEEEE7destroyIS2_EEvRS3_PT_, %function
_ZNSt16allocator_traitsISaISt6vectorIiSaIiEEEE7destroyIS2_EEvRS3_PT_:
.LFB6404:
	.cfi_startproc
	stp	x29, x30, [sp, -32]!
	.cfi_def_cfa_offset 32
	.cfi_offset 29, -32
	.cfi_offset 30, -24
	mov	x29, sp
	str	x0, [sp, 24]
	str	x1, [sp, 16]
	ldr	x1, [sp, 16]
	ldr	x0, [sp, 24]
	bl	_ZN9__gnu_cxx13new_allocatorISt6vectorIiSaIiEEE7destroyIS3_EEvPT_
	nop
	ldp	x29, x30, [sp], 32
	.cfi_restore 30
	.cfi_restore 29
	.cfi_def_cfa_offset 0
	ret
	.cfi_endproc
.LFE6404:
	.size	_ZNSt16allocator_traitsISaISt6vectorIiSaIiEEEE7destroyIS2_EEvRS3_PT_, .-_ZNSt16allocator_traitsISaISt6vectorIiSaIiEEEE7destroyIS2_EEvRS3_PT_
	.section	.text._ZNK9__gnu_cxx17__normal_iteratorIPSt6vectorIiSaIiEES1_IS3_SaIS3_EEEmiEl,"axG",@progbits,_ZNK9__gnu_cxx17__normal_iteratorIPSt6vectorIiSaIiEES1_IS3_SaIS3_EEEmiEl,comdat
	.align	2
	.weak	_ZNK9__gnu_cxx17__normal_iteratorIPSt6vectorIiSaIiEES1_IS3_SaIS3_EEEmiEl
	.type	_ZNK9__gnu_cxx17__normal_iteratorIPSt6vectorIiSaIiEES1_IS3_SaIS3_EEEmiEl, %function
_ZNK9__gnu_cxx17__normal_iteratorIPSt6vectorIiSaIiEES1_IS3_SaIS3_EEEmiEl:
.LFB6405:
	.cfi_startproc
	stp	x29, x30, [sp, -64]!
	.cfi_def_cfa_offset 64
	.cfi_offset 29, -64
	.cfi_offset 30, -56
	mov	x29, sp
	str	x0, [sp, 24]
	str	x1, [sp, 16]
	adrp	x0, :got:__stack_chk_guard
	ldr	x0, [x0, #:got_lo12:__stack_chk_guard]
	ldr	x1, [x0]
	str	x1, [sp, 56]
	mov	x1, 0
	ldr	x0, [sp, 24]
	ldr	x2, [x0]
	ldr	x1, [sp, 16]
	mov	x0, x1
	lsl	x0, x0, 1
	add	x0, x0, x1
	lsl	x0, x0, 3
	neg	x0, x0
	add	x0, x2, x0
	str	x0, [sp, 40]
	add	x1, sp, 40
	add	x0, sp, 48
	bl	_ZN9__gnu_cxx17__normal_iteratorIPSt6vectorIiSaIiEES1_IS3_SaIS3_EEEC1ERKS4_
	ldr	x0, [sp, 48]
	mov	x1, x0
	adrp	x0, :got:__stack_chk_guard
	ldr	x0, [x0, #:got_lo12:__stack_chk_guard]
	ldr	x3, [sp, 56]
	ldr	x2, [x0]
	subs	x3, x3, x2
	mov	x2, 0
	beq	.L504
	bl	__stack_chk_fail
.L504:
	mov	x0, x1
	ldp	x29, x30, [sp], 64
	.cfi_restore 30
	.cfi_restore 29
	.cfi_def_cfa_offset 0
	ret
	.cfi_endproc
.LFE6405:
	.size	_ZNK9__gnu_cxx17__normal_iteratorIPSt6vectorIiSaIiEES1_IS3_SaIS3_EEEmiEl, .-_ZNK9__gnu_cxx17__normal_iteratorIPSt6vectorIiSaIiEES1_IS3_SaIS3_EEEmiEl
	.section	.text._ZNK9__gnu_cxx17__normal_iteratorIPSt6vectorIiSaIiEES1_IS3_SaIS3_EEEdeEv,"axG",@progbits,_ZNK9__gnu_cxx17__normal_iteratorIPSt6vectorIiSaIiEES1_IS3_SaIS3_EEEdeEv,comdat
	.align	2
	.weak	_ZNK9__gnu_cxx17__normal_iteratorIPSt6vectorIiSaIiEES1_IS3_SaIS3_EEEdeEv
	.type	_ZNK9__gnu_cxx17__normal_iteratorIPSt6vectorIiSaIiEES1_IS3_SaIS3_EEEdeEv, %function
_ZNK9__gnu_cxx17__normal_iteratorIPSt6vectorIiSaIiEES1_IS3_SaIS3_EEEdeEv:
.LFB6406:
	.cfi_startproc
	sub	sp, sp, #16
	.cfi_def_cfa_offset 16
	str	x0, [sp, 8]
	ldr	x0, [sp, 8]
	ldr	x0, [x0]
	add	sp, sp, 16
	.cfi_def_cfa_offset 0
	ret
	.cfi_endproc
.LFE6406:
	.size	_ZNK9__gnu_cxx17__normal_iteratorIPSt6vectorIiSaIiEES1_IS3_SaIS3_EEEdeEv, .-_ZNK9__gnu_cxx17__normal_iteratorIPSt6vectorIiSaIiEES1_IS3_SaIS3_EEEdeEv
	.section	.text._ZNSt6vectorIS_IiSaIiEESaIS1_EE11_S_max_sizeERKS2_,"axG",@progbits,_ZNSt6vectorIS_IiSaIiEESaIS1_EE11_S_max_sizeERKS2_,comdat
	.align	2
	.weak	_ZNSt6vectorIS_IiSaIiEESaIS1_EE11_S_max_sizeERKS2_
	.type	_ZNSt6vectorIS_IiSaIiEESaIS1_EE11_S_max_sizeERKS2_, %function
_ZNSt6vectorIS_IiSaIiEESaIS1_EE11_S_max_sizeERKS2_:
.LFB6407:
	.cfi_startproc
	stp	x29, x30, [sp, -64]!
	.cfi_def_cfa_offset 64
	.cfi_offset 29, -64
	.cfi_offset 30, -56
	mov	x29, sp
	str	x0, [sp, 24]
	adrp	x0, :got:__stack_chk_guard
	ldr	x0, [x0, #:got_lo12:__stack_chk_guard]
	ldr	x1, [x0]
	str	x1, [sp, 56]
	mov	x1, 0
	mov	x0, 6148914691236517205
	movk	x0, 0x555, lsl 48
	str	x0, [sp, 40]
	ldr	x0, [sp, 24]
	bl	_ZNSt16allocator_traitsISaISt6vectorIiSaIiEEEE8max_sizeERKS3_
	str	x0, [sp, 48]
	add	x1, sp, 48
	add	x0, sp, 40
	bl	_ZSt3minImERKT_S2_S2_
	ldr	x0, [x0]
	mov	x1, x0
	adrp	x0, :got:__stack_chk_guard
	ldr	x0, [x0, #:got_lo12:__stack_chk_guard]
	ldr	x3, [sp, 56]
	ldr	x2, [x0]
	subs	x3, x3, x2
	mov	x2, 0
	beq	.L509
	bl	__stack_chk_fail
.L509:
	mov	x0, x1
	ldp	x29, x30, [sp], 64
	.cfi_restore 30
	.cfi_restore 29
	.cfi_def_cfa_offset 0
	ret
	.cfi_endproc
.LFE6407:
	.size	_ZNSt6vectorIS_IiSaIiEESaIS1_EE11_S_max_sizeERKS2_, .-_ZNSt6vectorIS_IiSaIiEESaIS1_EE11_S_max_sizeERKS2_
	.section	.text._ZNSt16allocator_traitsISaISt6vectorIiSaIiEEEE8allocateERS3_m,"axG",@progbits,_ZNSt16allocator_traitsISaISt6vectorIiSaIiEEEE8allocateERS3_m,comdat
	.align	2
	.weak	_ZNSt16allocator_traitsISaISt6vectorIiSaIiEEEE8allocateERS3_m
	.type	_ZNSt16allocator_traitsISaISt6vectorIiSaIiEEEE8allocateERS3_m, %function
_ZNSt16allocator_traitsISaISt6vectorIiSaIiEEEE8allocateERS3_m:
.LFB6408:
	.cfi_startproc
	stp	x29, x30, [sp, -32]!
	.cfi_def_cfa_offset 32
	.cfi_offset 29, -32
	.cfi_offset 30, -24
	mov	x29, sp
	str	x0, [sp, 24]
	str	x1, [sp, 16]
	mov	x2, 0
	ldr	x1, [sp, 16]
	ldr	x0, [sp, 24]
	bl	_ZN9__gnu_cxx13new_allocatorISt6vectorIiSaIiEEE8allocateEmPKv
	ldp	x29, x30, [sp], 32
	.cfi_restore 30
	.cfi_restore 29
	.cfi_def_cfa_offset 0
	ret
	.cfi_endproc
.LFE6408:
	.size	_ZNSt16allocator_traitsISaISt6vectorIiSaIiEEEE8allocateERS3_m, .-_ZNSt16allocator_traitsISaISt6vectorIiSaIiEEEE8allocateERS3_m
	.section	.text._ZSt18uninitialized_copyIPKSt6vectorIiSaIiEEPS2_ET0_T_S7_S6_,"axG",@progbits,_ZSt18uninitialized_copyIPKSt6vectorIiSaIiEEPS2_ET0_T_S7_S6_,comdat
	.align	2
	.weak	_ZSt18uninitialized_copyIPKSt6vectorIiSaIiEEPS2_ET0_T_S7_S6_
	.type	_ZSt18uninitialized_copyIPKSt6vectorIiSaIiEEPS2_ET0_T_S7_S6_, %function
_ZSt18uninitialized_copyIPKSt6vectorIiSaIiEEPS2_ET0_T_S7_S6_:
.LFB6409:
	.cfi_startproc
	stp	x29, x30, [sp, -64]!
	.cfi_def_cfa_offset 64
	.cfi_offset 29, -64
	.cfi_offset 30, -56
	mov	x29, sp
	str	x0, [sp, 40]
	str	x1, [sp, 32]
	str	x2, [sp, 24]
	mov	w0, 1
	strb	w0, [sp, 63]
	ldr	x2, [sp, 24]
	ldr	x1, [sp, 32]
	ldr	x0, [sp, 40]
	bl	_ZNSt20__uninitialized_copyILb0EE13__uninit_copyIPKSt6vectorIiSaIiEEPS4_EET0_T_S9_S8_
	ldp	x29, x30, [sp], 64
	.cfi_restore 30
	.cfi_restore 29
	.cfi_def_cfa_offset 0
	ret
	.cfi_endproc
.LFE6409:
	.size	_ZSt18uninitialized_copyIPKSt6vectorIiSaIiEEPS2_ET0_T_S7_S6_, .-_ZSt18uninitialized_copyIPKSt6vectorIiSaIiEEPS2_ET0_T_S7_S6_
	.section	.text._ZN3dbg13get_type_nameIiEENSt7__cxx1112basic_stringIcSt11char_traitsIcESaIcEEENS_8type_tagISt6vectorIT_SaIS9_EEEE,"axG",@progbits,_ZN3dbg13get_type_nameIiEENSt7__cxx1112basic_stringIcSt11char_traitsIcESaIcEEENS_8type_tagISt6vectorIT_SaIS9_EEEE,comdat
	.align	2
	.weak	_ZN3dbg13get_type_nameIiEENSt7__cxx1112basic_stringIcSt11char_traitsIcESaIcEEENS_8type_tagISt6vectorIT_SaIS9_EEEE
	.type	_ZN3dbg13get_type_nameIiEENSt7__cxx1112basic_stringIcSt11char_traitsIcESaIcEEENS_8type_tagISt6vectorIT_SaIS9_EEEE, %function
_ZN3dbg13get_type_nameIiEENSt7__cxx1112basic_stringIcSt11char_traitsIcESaIcEEENS_8type_tagISt6vectorIT_SaIS9_EEEE:
.LFB6411:
	.cfi_startproc
	.cfi_personality 0x9b,DW.ref.__gxx_personality_v0
	.cfi_lsda 0x1b,.LLSDA6411
	stp	x29, x30, [sp, -128]!
	.cfi_def_cfa_offset 128
	.cfi_offset 29, -128
	.cfi_offset 30, -120
	mov	x29, sp
	str	x19, [sp, 16]
	.cfi_offset 19, -112
	mov	x19, x8
	strb	w0, [sp, 40]
	adrp	x0, :got:__stack_chk_guard
	ldr	x0, [x0, #:got_lo12:__stack_chk_guard]
	ldr	x1, [x0]
	str	x1, [sp, 120]
	mov	x1, 0
	add	x0, sp, 56
	mov	x8, x0
.LEHB58:
	bl	_ZN3dbg9type_nameIiEENSt7__cxx1112basic_stringIcSt11char_traitsIcESaIcEEEv
.LEHE58:
	add	x0, sp, 56
	add	x1, sp, 88
	mov	x8, x1
	mov	x1, x0
	adrp	x0, .LC20
	add	x0, x0, :lo12:.LC20
.LEHB59:
	bl	_ZStplIcSt11char_traitsIcESaIcEENSt7__cxx1112basic_stringIT_T0_T1_EEPKS5_OS8_
.LEHE59:
	add	x2, sp, 88
	mov	x8, x19
	adrp	x0, .LC21
	add	x1, x0, :lo12:.LC21
	mov	x0, x2
.LEHB60:
	bl	_ZStplIcSt11char_traitsIcESaIcEENSt7__cxx1112basic_stringIT_T0_T1_EEOS8_PKS5_
.LEHE60:
	add	x0, sp, 88
	bl	_ZNSt7__cxx1112basic_stringIcSt11char_traitsIcESaIcEED1Ev
	add	x0, sp, 56
	bl	_ZNSt7__cxx1112basic_stringIcSt11char_traitsIcESaIcEED1Ev
	adrp	x0, :got:__stack_chk_guard
	ldr	x0, [x0, #:got_lo12:__stack_chk_guard]
	ldr	x2, [sp, 120]
	ldr	x1, [x0]
	subs	x2, x2, x1
	mov	x1, 0
	beq	.L518
	b	.L521
.L520:
	mov	x19, x0
	add	x0, sp, 88
	bl	_ZNSt7__cxx1112basic_stringIcSt11char_traitsIcESaIcEED1Ev
	b	.L517
.L519:
	mov	x19, x0
.L517:
	add	x0, sp, 56
	bl	_ZNSt7__cxx1112basic_stringIcSt11char_traitsIcESaIcEED1Ev
	mov	x0, x19
.LEHB61:
	bl	_Unwind_Resume
.LEHE61:
.L521:
	bl	__stack_chk_fail
.L518:
	mov	x0, x19
	ldr	x19, [sp, 16]
	ldp	x29, x30, [sp], 128
	.cfi_restore 30
	.cfi_restore 29
	.cfi_restore 19
	.cfi_def_cfa_offset 0
	ret
	.cfi_endproc
.LFE6411:
	.section	.gcc_except_table
.LLSDA6411:
	.byte	0xff
	.byte	0xff
	.byte	0x1
	.uleb128 .LLSDACSE6411-.LLSDACSB6411
.LLSDACSB6411:
	.uleb128 .LEHB58-.LFB6411
	.uleb128 .LEHE58-.LEHB58
	.uleb128 0
	.uleb128 0
	.uleb128 .LEHB59-.LFB6411
	.uleb128 .LEHE59-.LEHB59
	.uleb128 .L519-.LFB6411
	.uleb128 0
	.uleb128 .LEHB60-.LFB6411
	.uleb128 .LEHE60-.LEHB60
	.uleb128 .L520-.LFB6411
	.uleb128 0
	.uleb128 .LEHB61-.LFB6411
	.uleb128 .LEHE61-.LEHB61
	.uleb128 0
	.uleb128 0
.LLSDACSE6411:
	.section	.text._ZN3dbg13get_type_nameIiEENSt7__cxx1112basic_stringIcSt11char_traitsIcESaIcEEENS_8type_tagISt6vectorIT_SaIS9_EEEE,"axG",@progbits,_ZN3dbg13get_type_nameIiEENSt7__cxx1112basic_stringIcSt11char_traitsIcESaIcEEENS_8type_tagISt6vectorIT_SaIS9_EEEE,comdat
	.size	_ZN3dbg13get_type_nameIiEENSt7__cxx1112basic_stringIcSt11char_traitsIcESaIcEEENS_8type_tagISt6vectorIT_SaIS9_EEEE, .-_ZN3dbg13get_type_nameIiEENSt7__cxx1112basic_stringIcSt11char_traitsIcESaIcEEENS_8type_tagISt6vectorIT_SaIS9_EEEE
	.section	.text._ZNKSt6vectorIS_IiSaIiEESaIS1_EE5beginEv,"axG",@progbits,_ZNKSt6vectorIS_IiSaIiEESaIS1_EE5beginEv,comdat
	.align	2
	.weak	_ZNKSt6vectorIS_IiSaIiEESaIS1_EE5beginEv
	.type	_ZNKSt6vectorIS_IiSaIiEESaIS1_EE5beginEv, %function
_ZNKSt6vectorIS_IiSaIiEESaIS1_EE5beginEv:
.LFB6412:
	.cfi_startproc
	stp	x29, x30, [sp, -48]!
	.cfi_def_cfa_offset 48
	.cfi_offset 29, -48
	.cfi_offset 30, -40
	mov	x29, sp
	str	x0, [sp, 24]
	adrp	x0, :got:__stack_chk_guard
	ldr	x0, [x0, #:got_lo12:__stack_chk_guard]
	ldr	x1, [x0]
	str	x1, [sp, 40]
	mov	x1, 0
	ldr	x1, [sp, 24]
	add	x0, sp, 32
	bl	_ZN9__gnu_cxx17__normal_iteratorIPKSt6vectorIiSaIiEES1_IS3_SaIS3_EEEC1ERKS5_
	ldr	x0, [sp, 32]
	mov	x1, x0
	adrp	x0, :got:__stack_chk_guard
	ldr	x0, [x0, #:got_lo12:__stack_chk_guard]
	ldr	x3, [sp, 40]
	ldr	x2, [x0]
	subs	x3, x3, x2
	mov	x2, 0
	beq	.L524
	bl	__stack_chk_fail
.L524:
	mov	x0, x1
	ldp	x29, x30, [sp], 48
	.cfi_restore 30
	.cfi_restore 29
	.cfi_def_cfa_offset 0
	ret
	.cfi_endproc
.LFE6412:
	.size	_ZNKSt6vectorIS_IiSaIiEESaIS1_EE5beginEv, .-_ZNKSt6vectorIS_IiSaIiEESaIS1_EE5beginEv
	.section	.text._ZSt3endISt6vectorIS0_IiSaIiEESaIS2_EEEDTcldtfp_3endEERKT_,"axG",@progbits,_ZSt3endISt6vectorIS0_IiSaIiEESaIS2_EEEDTcldtfp_3endEERKT_,comdat
	.align	2
	.weak	_ZSt3endISt6vectorIS0_IiSaIiEESaIS2_EEEDTcldtfp_3endEERKT_
	.type	_ZSt3endISt6vectorIS0_IiSaIiEESaIS2_EEEDTcldtfp_3endEERKT_, %function
_ZSt3endISt6vectorIS0_IiSaIiEESaIS2_EEEDTcldtfp_3endEERKT_:
.LFB6413:
	.cfi_startproc
	stp	x29, x30, [sp, -32]!
	.cfi_def_cfa_offset 32
	.cfi_offset 29, -32
	.cfi_offset 30, -24
	mov	x29, sp
	str	x0, [sp, 24]
	ldr	x0, [sp, 24]
	bl	_ZNKSt6vectorIS_IiSaIiEESaIS1_EE3endEv
	ldp	x29, x30, [sp], 32
	.cfi_restore 30
	.cfi_restore 29
	.cfi_def_cfa_offset 0
	ret
	.cfi_endproc
.LFE6413:
	.size	_ZSt3endISt6vectorIS0_IiSaIiEESaIS2_EEEDTcldtfp_3endEERKT_, .-_ZSt3endISt6vectorIS0_IiSaIiEESaIS2_EEEDTcldtfp_3endEERKT_
	.section	.text._ZN9__gnu_cxxneIPKSt6vectorIiSaIiEES1_IS3_SaIS3_EEEEbRKNS_17__normal_iteratorIT_T0_EESD_,"axG",@progbits,_ZN9__gnu_cxxneIPKSt6vectorIiSaIiEES1_IS3_SaIS3_EEEEbRKNS_17__normal_iteratorIT_T0_EESD_,comdat
	.align	2
	.weak	_ZN9__gnu_cxxneIPKSt6vectorIiSaIiEES1_IS3_SaIS3_EEEEbRKNS_17__normal_iteratorIT_T0_EESD_
	.type	_ZN9__gnu_cxxneIPKSt6vectorIiSaIiEES1_IS3_SaIS3_EEEEbRKNS_17__normal_iteratorIT_T0_EESD_, %function
_ZN9__gnu_cxxneIPKSt6vectorIiSaIiEES1_IS3_SaIS3_EEEEbRKNS_17__normal_iteratorIT_T0_EESD_:
.LFB6414:
	.cfi_startproc
	stp	x29, x30, [sp, -48]!
	.cfi_def_cfa_offset 48
	.cfi_offset 29, -48
	.cfi_offset 30, -40
	mov	x29, sp
	str	x19, [sp, 16]
	.cfi_offset 19, -32
	str	x0, [sp, 40]
	str	x1, [sp, 32]
	ldr	x0, [sp, 40]
	bl	_ZNK9__gnu_cxx17__normal_iteratorIPKSt6vectorIiSaIiEES1_IS3_SaIS3_EEE4baseEv
	ldr	x19, [x0]
	ldr	x0, [sp, 32]
	bl	_ZNK9__gnu_cxx17__normal_iteratorIPKSt6vectorIiSaIiEES1_IS3_SaIS3_EEE4baseEv
	ldr	x0, [x0]
	cmp	x19, x0
	cset	w0, ne
	and	w0, w0, 255
	ldr	x19, [sp, 16]
	ldp	x29, x30, [sp], 48
	.cfi_restore 30
	.cfi_restore 29
	.cfi_restore 19
	.cfi_def_cfa_offset 0
	ret
	.cfi_endproc
.LFE6414:
	.size	_ZN9__gnu_cxxneIPKSt6vectorIiSaIiEES1_IS3_SaIS3_EEEEbRKNS_17__normal_iteratorIT_T0_EESD_, .-_ZN9__gnu_cxxneIPKSt6vectorIiSaIiEES1_IS3_SaIS3_EEEEbRKNS_17__normal_iteratorIT_T0_EESD_
	.section	.text._ZN9__gnu_cxx17__normal_iteratorIPKSt6vectorIiSaIiEES1_IS3_SaIS3_EEEppEv,"axG",@progbits,_ZN9__gnu_cxx17__normal_iteratorIPKSt6vectorIiSaIiEES1_IS3_SaIS3_EEEppEv,comdat
	.align	2
	.weak	_ZN9__gnu_cxx17__normal_iteratorIPKSt6vectorIiSaIiEES1_IS3_SaIS3_EEEppEv
	.type	_ZN9__gnu_cxx17__normal_iteratorIPKSt6vectorIiSaIiEES1_IS3_SaIS3_EEEppEv, %function
_ZN9__gnu_cxx17__normal_iteratorIPKSt6vectorIiSaIiEES1_IS3_SaIS3_EEEppEv:
.LFB6415:
	.cfi_startproc
	sub	sp, sp, #16
	.cfi_def_cfa_offset 16
	str	x0, [sp, 8]
	ldr	x0, [sp, 8]
	ldr	x0, [x0]
	add	x1, x0, 24
	ldr	x0, [sp, 8]
	str	x1, [x0]
	ldr	x0, [sp, 8]
	add	sp, sp, 16
	.cfi_def_cfa_offset 0
	ret
	.cfi_endproc
.LFE6415:
	.size	_ZN9__gnu_cxx17__normal_iteratorIPKSt6vectorIiSaIiEES1_IS3_SaIS3_EEEppEv, .-_ZN9__gnu_cxx17__normal_iteratorIPKSt6vectorIiSaIiEES1_IS3_SaIS3_EEEppEv
	.section	.text._ZNK9__gnu_cxx17__normal_iteratorIPKSt6vectorIiSaIiEES1_IS3_SaIS3_EEEdeEv,"axG",@progbits,_ZNK9__gnu_cxx17__normal_iteratorIPKSt6vectorIiSaIiEES1_IS3_SaIS3_EEEdeEv,comdat
	.align	2
	.weak	_ZNK9__gnu_cxx17__normal_iteratorIPKSt6vectorIiSaIiEES1_IS3_SaIS3_EEEdeEv
	.type	_ZNK9__gnu_cxx17__normal_iteratorIPKSt6vectorIiSaIiEES1_IS3_SaIS3_EEEdeEv, %function
_ZNK9__gnu_cxx17__normal_iteratorIPKSt6vectorIiSaIiEES1_IS3_SaIS3_EEEdeEv:
.LFB6416:
	.cfi_startproc
	sub	sp, sp, #16
	.cfi_def_cfa_offset 16
	str	x0, [sp, 8]
	ldr	x0, [sp, 8]
	ldr	x0, [x0]
	add	sp, sp, 16
	.cfi_def_cfa_offset 0
	ret
	.cfi_endproc
.LFE6416:
	.size	_ZNK9__gnu_cxx17__normal_iteratorIPKSt6vectorIiSaIiEES1_IS3_SaIS3_EEEdeEv, .-_ZNK9__gnu_cxx17__normal_iteratorIPKSt6vectorIiSaIiEES1_IS3_SaIS3_EEEdeEv
	.section	.text._ZSt4sizeISt6vectorIiSaIiEEEDTcldtfp_4sizeEERKT_,"axG",@progbits,_ZSt4sizeISt6vectorIiSaIiEEEDTcldtfp_4sizeEERKT_,comdat
	.align	2
	.weak	_ZSt4sizeISt6vectorIiSaIiEEEDTcldtfp_4sizeEERKT_
	.type	_ZSt4sizeISt6vectorIiSaIiEEEDTcldtfp_4sizeEERKT_, %function
_ZSt4sizeISt6vectorIiSaIiEEEDTcldtfp_4sizeEERKT_:
.LFB6418:
	.cfi_startproc
	stp	x29, x30, [sp, -32]!
	.cfi_def_cfa_offset 32
	.cfi_offset 29, -32
	.cfi_offset 30, -24
	mov	x29, sp
	str	x0, [sp, 24]
	ldr	x0, [sp, 24]
	bl	_ZNKSt6vectorIiSaIiEE4sizeEv
	ldp	x29, x30, [sp], 32
	.cfi_restore 30
	.cfi_restore 29
	.cfi_def_cfa_offset 0
	ret
	.cfi_endproc
.LFE6418:
	.size	_ZSt4sizeISt6vectorIiSaIiEEEDTcldtfp_4sizeEERKT_, .-_ZSt4sizeISt6vectorIiSaIiEEEDTcldtfp_4sizeEERKT_
	.section	.text._ZSt5beginISt6vectorIiSaIiEEEDTcldtfp_5beginEERKT_,"axG",@progbits,_ZSt5beginISt6vectorIiSaIiEEEDTcldtfp_5beginEERKT_,comdat
	.align	2
	.weak	_ZSt5beginISt6vectorIiSaIiEEEDTcldtfp_5beginEERKT_
	.type	_ZSt5beginISt6vectorIiSaIiEEEDTcldtfp_5beginEERKT_, %function
_ZSt5beginISt6vectorIiSaIiEEEDTcldtfp_5beginEERKT_:
.LFB6419:
	.cfi_startproc
	stp	x29, x30, [sp, -32]!
	.cfi_def_cfa_offset 32
	.cfi_offset 29, -32
	.cfi_offset 30, -24
	mov	x29, sp
	str	x0, [sp, 24]
	ldr	x0, [sp, 24]
