	.arch armv8-a
	.file	"main.cpp"
	.text
	.section	.text._ZNKSt9type_infoeqERKS_,"axG",@progbits,_ZNKSt9type_infoeqERKS_,comdat
	.align	2
	.weak	_ZNKSt9type_infoeqERKS_
	.type	_ZNKSt9type_infoeqERKS_, %function
_ZNKSt9type_infoeqERKS_:
.LFB20:
	.cfi_startproc
	stp	x29, x30, [sp, -32]!
	.cfi_def_cfa_offset 32
	.cfi_offset 29, -32
	.cfi_offset 30, -24
	mov	x29, sp
	str	x0, [sp, 24]
	str	x1, [sp, 16]
	ldr	x0, [sp, 24]
	ldr	x1, [x0, 8]
	ldr	x0, [sp, 16]
	ldr	x0, [x0, 8]
	cmp	x1, x0
	beq	.L2
	ldr	x0, [sp, 24]
	ldr	x0, [x0, 8]
	ldrb	w0, [x0]
	cmp	w0, 42
	beq	.L3
	ldr	x0, [sp, 24]
	ldr	x2, [x0, 8]
	ldr	x0, [sp, 16]
	ldr	x0, [x0, 8]
	mov	x1, x0
	mov	x0, x2
	bl	strcmp
	cmp	w0, 0
	bne	.L3
.L2:
	mov	w0, 1
	b	.L4
.L3:
	mov	w0, 0
.L4:
	ldp	x29, x30, [sp], 32
	.cfi_restore 30
	.cfi_restore 29
	.cfi_def_cfa_offset 0
	ret
	.cfi_endproc
.LFE20:
	.size	_ZNKSt9type_infoeqERKS_, .-_ZNKSt9type_infoeqERKS_
	.section	.text._ZnwmPv,"axG",@progbits,_ZnwmPv,comdat
	.align	2
	.weak	_ZnwmPv
	.type	_ZnwmPv, %function
_ZnwmPv:
.LFB38:
	.cfi_startproc
	sub	sp, sp, #16
	.cfi_def_cfa_offset 16
	str	x0, [sp, 8]
	str	x1, [sp]
	ldr	x0, [sp]
	add	sp, sp, 16
	.cfi_def_cfa_offset 0
	ret
	.cfi_endproc
.LFE38:
	.size	_ZnwmPv, .-_ZnwmPv
	.section	.text._ZdlPvS_,"axG",@progbits,_ZdlPvS_,comdat
	.align	2
	.weak	_ZdlPvS_
	.type	_ZdlPvS_, %function
_ZdlPvS_:
.LFB40:
	.cfi_startproc
	sub	sp, sp, #16
	.cfi_def_cfa_offset 16
	str	x0, [sp, 8]
	str	x1, [sp]
	nop
	add	sp, sp, 16
	.cfi_def_cfa_offset 0
	ret
	.cfi_endproc
.LFE40:
	.size	_ZdlPvS_, .-_ZdlPvS_
	.section	.text._ZNSt15__exception_ptr13exception_ptrC2EDn,"axG",@progbits,_ZNSt15__exception_ptr13exception_ptrC5EDn,comdat
	.align	2
	.weak	_ZNSt15__exception_ptr13exception_ptrC2EDn
	.type	_ZNSt15__exception_ptr13exception_ptrC2EDn, %function
_ZNSt15__exception_ptr13exception_ptrC2EDn:
.LFB63:
	.cfi_startproc
	sub	sp, sp, #16
	.cfi_def_cfa_offset 16
	str	x0, [sp, 8]
	str	x1, [sp]
	ldr	x0, [sp, 8]
	str	xzr, [x0]
	nop
	add	sp, sp, 16
	.cfi_def_cfa_offset 0
	ret
	.cfi_endproc
.LFE63:
	.size	_ZNSt15__exception_ptr13exception_ptrC2EDn, .-_ZNSt15__exception_ptr13exception_ptrC2EDn
	.weak	_ZNSt15__exception_ptr13exception_ptrC1EDn
	.set	_ZNSt15__exception_ptr13exception_ptrC1EDn,_ZNSt15__exception_ptr13exception_ptrC2EDn
	.section	.text._ZNSt15__exception_ptr13exception_ptrC2EOS0_,"axG",@progbits,_ZNSt15__exception_ptr13exception_ptrC5EOS0_,comdat
	.align	2
	.weak	_ZNSt15__exception_ptr13exception_ptrC2EOS0_
	.type	_ZNSt15__exception_ptr13exception_ptrC2EOS0_, %function
_ZNSt15__exception_ptr13exception_ptrC2EOS0_:
.LFB66:
	.cfi_startproc
	sub	sp, sp, #16
	.cfi_def_cfa_offset 16
	str	x0, [sp, 8]
	str	x1, [sp]
	ldr	x0, [sp]
	ldr	x1, [x0]
	ldr	x0, [sp, 8]
	str	x1, [x0]
	ldr	x0, [sp]
	str	xzr, [x0]
	nop
	add	sp, sp, 16
	.cfi_def_cfa_offset 0
	ret
	.cfi_endproc
.LFE66:
	.size	_ZNSt15__exception_ptr13exception_ptrC2EOS0_, .-_ZNSt15__exception_ptr13exception_ptrC2EOS0_
	.weak	_ZNSt15__exception_ptr13exception_ptrC1EOS0_
	.set	_ZNSt15__exception_ptr13exception_ptrC1EOS0_,_ZNSt15__exception_ptr13exception_ptrC2EOS0_
	.section	.text._ZNSt15__exception_ptr13exception_ptraSEOS0_,"axG",@progbits,_ZNSt15__exception_ptr13exception_ptraSEOS0_,comdat
	.align	2
	.weak	_ZNSt15__exception_ptr13exception_ptraSEOS0_
	.type	_ZNSt15__exception_ptr13exception_ptraSEOS0_, %function
_ZNSt15__exception_ptr13exception_ptraSEOS0_:
.LFB68:
	.cfi_startproc
	stp	x29, x30, [sp, -48]!
	.cfi_def_cfa_offset 48
	.cfi_offset 29, -48
	.cfi_offset 30, -40
	mov	x29, sp
	str	x0, [sp, 24]
	str	x1, [sp, 16]
	adrp	x0, :got:__stack_chk_guard
	ldr	x0, [x0, #:got_lo12:__stack_chk_guard]
	ldr	x1, [x0]
	str	x1, [sp, 40]
	mov	x1, 0
	add	x0, sp, 32
	ldr	x1, [sp, 16]
	bl	_ZNSt15__exception_ptr13exception_ptrC1EOS0_
	add	x0, sp, 32
	ldr	x1, [sp, 24]
	bl	_ZNSt15__exception_ptr13exception_ptr4swapERS0_
	add	x0, sp, 32
	bl	_ZNSt15__exception_ptr13exception_ptrD1Ev
	ldr	x0, [sp, 24]
	mov	x1, x0
	adrp	x0, :got:__stack_chk_guard
	ldr	x0, [x0, #:got_lo12:__stack_chk_guard]
	ldr	x3, [sp, 40]
	ldr	x2, [x0]
	subs	x3, x3, x2
	mov	x2, 0
	beq	.L13
	bl	__stack_chk_fail
.L13:
	mov	x0, x1
	ldp	x29, x30, [sp], 48
	.cfi_restore 30
	.cfi_restore 29
	.cfi_def_cfa_offset 0
	ret
	.cfi_endproc
.LFE68:
	.size	_ZNSt15__exception_ptr13exception_ptraSEOS0_, .-_ZNSt15__exception_ptr13exception_ptraSEOS0_
	.section	.text._ZNSt15__exception_ptreqERKNS_13exception_ptrES2_,"axG",@progbits,_ZNSt15__exception_ptreqERKNS_13exception_ptrES2_,comdat
	.align	2
	.weak	_ZNSt15__exception_ptreqERKNS_13exception_ptrES2_
	.type	_ZNSt15__exception_ptreqERKNS_13exception_ptrES2_, %function
_ZNSt15__exception_ptreqERKNS_13exception_ptrES2_:
.LFB70:
	.cfi_startproc
	sub	sp, sp, #16
	.cfi_def_cfa_offset 16
	str	x0, [sp, 8]
	str	x1, [sp]
	ldr	x0, [sp, 8]
	ldr	x1, [x0]
	ldr	x0, [sp]
	ldr	x0, [x0]
	cmp	x1, x0
	cset	w0, eq
	and	w0, w0, 255
	add	sp, sp, 16
	.cfi_def_cfa_offset 0
	ret
	.cfi_endproc
.LFE70:
	.size	_ZNSt15__exception_ptreqERKNS_13exception_ptrES2_, .-_ZNSt15__exception_ptreqERKNS_13exception_ptrES2_
	.section	.text._ZNSt15__exception_ptr13exception_ptrC2ERKS0_,"axG",@progbits,_ZNSt15__exception_ptr13exception_ptrC5ERKS0_,comdat
	.align	2
	.weak	_ZNSt15__exception_ptr13exception_ptrC2ERKS0_
	.type	_ZNSt15__exception_ptr13exception_ptrC2ERKS0_, %function
_ZNSt15__exception_ptr13exception_ptrC2ERKS0_:
.LFB76:
	.cfi_startproc
	stp	x29, x30, [sp, -32]!
	.cfi_def_cfa_offset 32
	.cfi_offset 29, -32
	.cfi_offset 30, -24
	mov	x29, sp
	str	x0, [sp, 24]
	str	x1, [sp, 16]
	ldr	x0, [sp, 16]
	ldr	x1, [x0]
	ldr	x0, [sp, 24]
	str	x1, [x0]
	ldr	x0, [sp, 24]
	ldr	x0, [x0]
	cmp	x0, 0
	beq	.L18
	ldr	x0, [sp, 24]
	bl	_ZNSt15__exception_ptr13exception_ptr9_M_addrefEv
.L18:
	nop
	ldp	x29, x30, [sp], 32
	.cfi_restore 30
	.cfi_restore 29
	.cfi_def_cfa_offset 0
	ret
	.cfi_endproc
.LFE76:
	.size	_ZNSt15__exception_ptr13exception_ptrC2ERKS0_, .-_ZNSt15__exception_ptr13exception_ptrC2ERKS0_
	.weak	_ZNSt15__exception_ptr13exception_ptrC1ERKS0_
	.set	_ZNSt15__exception_ptr13exception_ptrC1ERKS0_,_ZNSt15__exception_ptr13exception_ptrC2ERKS0_
	.section	.text._ZNSt15__exception_ptr13exception_ptrD2Ev,"axG",@progbits,_ZNSt15__exception_ptr13exception_ptrD5Ev,comdat
	.align	2
	.weak	_ZNSt15__exception_ptr13exception_ptrD2Ev
	.type	_ZNSt15__exception_ptr13exception_ptrD2Ev, %function
_ZNSt15__exception_ptr13exception_ptrD2Ev:
.LFB79:
	.cfi_startproc
	stp	x29, x30, [sp, -32]!
	.cfi_def_cfa_offset 32
	.cfi_offset 29, -32
	.cfi_offset 30, -24
	mov	x29, sp
	str	x0, [sp, 24]
	ldr	x0, [sp, 24]
	ldr	x0, [x0]
	cmp	x0, 0
	beq	.L21
	ldr	x0, [sp, 24]
	bl	_ZNSt15__exception_ptr13exception_ptr10_M_releaseEv
.L21:
	nop
	ldp	x29, x30, [sp], 32
	.cfi_restore 30
	.cfi_restore 29
	.cfi_def_cfa_offset 0
	ret
	.cfi_endproc
.LFE79:
	.size	_ZNSt15__exception_ptr13exception_ptrD2Ev, .-_ZNSt15__exception_ptr13exception_ptrD2Ev
	.weak	_ZNSt15__exception_ptr13exception_ptrD1Ev
	.set	_ZNSt15__exception_ptr13exception_ptrD1Ev,_ZNSt15__exception_ptr13exception_ptrD2Ev
	.section	.text._ZNSt15__exception_ptr13exception_ptr4swapERS0_,"axG",@progbits,_ZNSt15__exception_ptr13exception_ptr4swapERS0_,comdat
	.align	2
	.weak	_ZNSt15__exception_ptr13exception_ptr4swapERS0_
	.type	_ZNSt15__exception_ptr13exception_ptr4swapERS0_, %function
_ZNSt15__exception_ptr13exception_ptr4swapERS0_:
.LFB82:
	.cfi_startproc
	sub	sp, sp, #32
	.cfi_def_cfa_offset 32
	str	x0, [sp, 8]
	str	x1, [sp]
	ldr	x0, [sp, 8]
	ldr	x0, [x0]
	str	x0, [sp, 24]
	ldr	x0, [sp]
	ldr	x1, [x0]
	ldr	x0, [sp, 8]
	str	x1, [x0]
	ldr	x0, [sp]
	ldr	x1, [sp, 24]
	str	x1, [x0]
	nop
	add	sp, sp, 32
	.cfi_def_cfa_offset 0
	ret
	.cfi_endproc
.LFE82:
	.size	_ZNSt15__exception_ptr13exception_ptr4swapERS0_, .-_ZNSt15__exception_ptr13exception_ptr4swapERS0_
	.text
	.align	2
	.type	_ZL18__gthread_active_pv, %function
_ZL18__gthread_active_pv:
.LFB514:
	.cfi_startproc
	mov	w0, 1
	ret
	.cfi_endproc
.LFE514:
	.size	_ZL18__gthread_active_pv, .-_ZL18__gthread_active_pv
	.align	2
	.type	_ZL14__gthread_oncePiPFvvE, %function
_ZL14__gthread_oncePiPFvvE:
.LFB521:
	.cfi_startproc
	stp	x29, x30, [sp, -32]!
	.cfi_def_cfa_offset 32
	.cfi_offset 29, -32
	.cfi_offset 30, -24
	mov	x29, sp
	str	x0, [sp, 24]
	str	x1, [sp, 16]
	bl	_ZL18__gthread_active_pv
	cmp	w0, 0
	cset	w0, ne
	and	w0, w0, 255
	cmp	w0, 0
	beq	.L26
	ldr	x1, [sp, 16]
	ldr	x0, [sp, 24]
	bl	pthread_once
	b	.L27
.L26:
	mov	w0, -1
.L27:
	ldp	x29, x30, [sp], 32
	.cfi_restore 30
	.cfi_restore 29
	.cfi_def_cfa_offset 0
	ret
	.cfi_endproc
.LFE521:
	.size	_ZL14__gthread_oncePiPFvvE, .-_ZL14__gthread_oncePiPFvvE
	.section	.text._ZNSt10error_codeC2EiRKNSt3_V214error_categoryE,"axG",@progbits,_ZNSt10error_codeC5EiRKNSt3_V214error_categoryE,comdat
	.align	2
	.weak	_ZNSt10error_codeC2EiRKNSt3_V214error_categoryE
	.type	_ZNSt10error_codeC2EiRKNSt3_V214error_categoryE, %function
_ZNSt10error_codeC2EiRKNSt3_V214error_categoryE:
.LFB1258:
	.cfi_startproc
	sub	sp, sp, #32
	.cfi_def_cfa_offset 32
	str	x0, [sp, 24]
	str	w1, [sp, 20]
	str	x2, [sp, 8]
	ldr	x0, [sp, 24]
	ldr	w1, [sp, 20]
	str	w1, [x0]
	ldr	x0, [sp, 24]
	ldr	x1, [sp, 8]
	str	x1, [x0, 8]
	nop
	add	sp, sp, 32
	.cfi_def_cfa_offset 0
	ret
	.cfi_endproc
.LFE1258:
	.size	_ZNSt10error_codeC2EiRKNSt3_V214error_categoryE, .-_ZNSt10error_codeC2EiRKNSt3_V214error_categoryE
	.weak	_ZNSt10error_codeC1EiRKNSt3_V214error_categoryE
	.set	_ZNSt10error_codeC1EiRKNSt3_V214error_categoryE,_ZNSt10error_codeC2EiRKNSt3_V214error_categoryE
	.section	.text._ZNKSt10error_code5valueEv,"axG",@progbits,_ZNKSt10error_code5valueEv,comdat
	.align	2
	.weak	_ZNKSt10error_code5valueEv
	.type	_ZNKSt10error_code5valueEv, %function
_ZNKSt10error_code5valueEv:
.LFB1264:
	.cfi_startproc
	sub	sp, sp, #16
	.cfi_def_cfa_offset 16
	str	x0, [sp, 8]
	ldr	x0, [sp, 8]
	ldr	w0, [x0]
	add	sp, sp, 16
	.cfi_def_cfa_offset 0
	ret
	.cfi_endproc
.LFE1264:
	.size	_ZNKSt10error_code5valueEv, .-_ZNKSt10error_code5valueEv
	.section	.text._ZNKSt10error_code8categoryEv,"axG",@progbits,_ZNKSt10error_code8categoryEv,comdat
	.align	2
	.weak	_ZNKSt10error_code8categoryEv
	.type	_ZNKSt10error_code8categoryEv, %function
_ZNKSt10error_code8categoryEv:
.LFB1265:
	.cfi_startproc
	sub	sp, sp, #16
	.cfi_def_cfa_offset 16
	str	x0, [sp, 8]
	ldr	x0, [sp, 8]
	ldr	x0, [x0, 8]
	add	sp, sp, 16
	.cfi_def_cfa_offset 0
	ret
	.cfi_endproc
.LFE1265:
	.size	_ZNKSt10error_code8categoryEv, .-_ZNKSt10error_code8categoryEv
	.section	.text._ZNKSt10error_code7messageB5cxx11Ev,"axG",@progbits,_ZNKSt10error_code7messageB5cxx11Ev,comdat
	.align	2
	.weak	_ZNKSt10error_code7messageB5cxx11Ev
	.type	_ZNKSt10error_code7messageB5cxx11Ev, %function
_ZNKSt10error_code7messageB5cxx11Ev:
.LFB1266:
	.cfi_startproc
	stp	x29, x30, [sp, -80]!
	.cfi_def_cfa_offset 80
	.cfi_offset 29, -80
	.cfi_offset 30, -72
	mov	x29, sp
	stp	x19, x20, [sp, 16]
	str	x21, [sp, 32]
	.cfi_offset 19, -64
	.cfi_offset 20, -56
	.cfi_offset 21, -48
	mov	x20, x8
	str	x0, [sp, 56]
	adrp	x0, :got:__stack_chk_guard
	ldr	x0, [x0, #:got_lo12:__stack_chk_guard]
	ldr	x1, [x0]
	str	x1, [sp, 72]
	mov	x1, 0
	ldr	x0, [sp, 56]
	bl	_ZNKSt10error_code8categoryEv
	mov	x19, x0
	ldr	x0, [x19]
	add	x0, x0, 32
	ldr	x21, [x0]
	ldr	x0, [sp, 56]
	bl	_ZNKSt10error_code5valueEv
	mov	x8, x20
	mov	w1, w0
	mov	x0, x19
	blr	x21
	adrp	x0, :got:__stack_chk_guard
	ldr	x0, [x0, #:got_lo12:__stack_chk_guard]
	ldr	x2, [sp, 72]
	ldr	x1, [x0]
	subs	x2, x2, x1
	mov	x1, 0
	beq	.L35
	bl	__stack_chk_fail
.L35:
	mov	x0, x20
	ldp	x19, x20, [sp, 16]
	ldr	x21, [sp, 32]
	ldp	x29, x30, [sp], 80
	.cfi_restore 30
	.cfi_restore 29
	.cfi_restore 21
	.cfi_restore 19
	.cfi_restore 20
	.cfi_def_cfa_offset 0
	ret
	.cfi_endproc
.LFE1266:
	.size	_ZNKSt10error_code7messageB5cxx11Ev, .-_ZNKSt10error_code7messageB5cxx11Ev
	.section	.text._ZNSt15error_conditionC2EiRKNSt3_V214error_categoryE,"axG",@progbits,_ZNSt15error_conditionC5EiRKNSt3_V214error_categoryE,comdat
	.align	2
	.weak	_ZNSt15error_conditionC2EiRKNSt3_V214error_categoryE
	.type	_ZNSt15error_conditionC2EiRKNSt3_V214error_categoryE, %function
_ZNSt15error_conditionC2EiRKNSt3_V214error_categoryE:
.LFB1275:
	.cfi_startproc
	sub	sp, sp, #32
	.cfi_def_cfa_offset 32
	str	x0, [sp, 24]
	str	w1, [sp, 20]
	str	x2, [sp, 8]
	ldr	x0, [sp, 24]
	ldr	w1, [sp, 20]
	str	w1, [x0]
	ldr	x0, [sp, 24]
	ldr	x1, [sp, 8]
	str	x1, [x0, 8]
	nop
	add	sp, sp, 32
	.cfi_def_cfa_offset 0
	ret
	.cfi_endproc
.LFE1275:
	.size	_ZNSt15error_conditionC2EiRKNSt3_V214error_categoryE, .-_ZNSt15error_conditionC2EiRKNSt3_V214error_categoryE
	.weak	_ZNSt15error_conditionC1EiRKNSt3_V214error_categoryE
	.set	_ZNSt15error_conditionC1EiRKNSt3_V214error_categoryE,_ZNSt15error_conditionC2EiRKNSt3_V214error_categoryE
	.section	.text._ZNKSt15error_condition5valueEv,"axG",@progbits,_ZNKSt15error_condition5valueEv,comdat
	.align	2
	.weak	_ZNKSt15error_condition5valueEv
	.type	_ZNKSt15error_condition5valueEv, %function
_ZNKSt15error_condition5valueEv:
.LFB1281:
	.cfi_startproc
	sub	sp, sp, #16
	.cfi_def_cfa_offset 16
	str	x0, [sp, 8]
	ldr	x0, [sp, 8]
	ldr	w0, [x0]
	add	sp, sp, 16
	.cfi_def_cfa_offset 0
	ret
	.cfi_endproc
.LFE1281:
	.size	_ZNKSt15error_condition5valueEv, .-_ZNKSt15error_condition5valueEv
	.section	.text._ZNKSt15error_condition8categoryEv,"axG",@progbits,_ZNKSt15error_condition8categoryEv,comdat
	.align	2
	.weak	_ZNKSt15error_condition8categoryEv
	.type	_ZNKSt15error_condition8categoryEv, %function
_ZNKSt15error_condition8categoryEv:
.LFB1282:
	.cfi_startproc
	sub	sp, sp, #16
	.cfi_def_cfa_offset 16
	str	x0, [sp, 8]
	ldr	x0, [sp, 8]
	ldr	x0, [x0, 8]
	add	sp, sp, 16
	.cfi_def_cfa_offset 0
	ret
	.cfi_endproc
.LFE1282:
	.size	_ZNKSt15error_condition8categoryEv, .-_ZNKSt15error_condition8categoryEv
	.section	.text._ZSt20make_error_conditionSt4errc,"axG",@progbits,_ZSt20make_error_conditionSt4errc,comdat
	.align	2
	.weak	_ZSt20make_error_conditionSt4errc
	.type	_ZSt20make_error_conditionSt4errc, %function
_ZSt20make_error_conditionSt4errc:
.LFB1285:
	.cfi_startproc
	stp	x29, x30, [sp, -64]!
	.cfi_def_cfa_offset 64
	.cfi_offset 29, -64
	.cfi_offset 30, -56
	mov	x29, sp
	str	w0, [sp, 28]
	adrp	x0, :got:__stack_chk_guard
	ldr	x0, [x0, #:got_lo12:__stack_chk_guard]
	ldr	x1, [x0]
	str	x1, [sp, 56]
	mov	x1, 0
	bl	_ZNSt3_V216generic_categoryEv
	mov	x1, x0
	add	x0, sp, 40
	mov	x2, x1
	ldr	w1, [sp, 28]
	bl	_ZNSt15error_conditionC1EiRKNSt3_V214error_categoryE
	ldp	x0, x1, [sp, 40]
	mov	x2, x0
	mov	x3, x1
	adrp	x0, :got:__stack_chk_guard
	ldr	x0, [x0, #:got_lo12:__stack_chk_guard]
	ldr	x4, [sp, 56]
	ldr	x1, [x0]
	subs	x4, x4, x1
	mov	x1, 0
	beq	.L43
	bl	__stack_chk_fail
.L43:
	mov	x0, x2
	mov	x1, x3
	ldp	x29, x30, [sp], 64
	.cfi_restore 30
	.cfi_restore 29
	.cfi_def_cfa_offset 0
	ret
	.cfi_endproc
.LFE1285:
	.size	_ZSt20make_error_conditionSt4errc, .-_ZSt20make_error_conditionSt4errc
	.section	.text._ZSteqRKSt10error_codeRKSt15error_condition,"axG",@progbits,_ZSteqRKSt10error_codeRKSt15error_condition,comdat
	.align	2
	.weak	_ZSteqRKSt10error_codeRKSt15error_condition
	.type	_ZSteqRKSt10error_codeRKSt15error_condition, %function
_ZSteqRKSt10error_codeRKSt15error_condition:
.LFB1287:
	.cfi_startproc
	stp	x29, x30, [sp, -48]!
	.cfi_def_cfa_offset 48
	.cfi_offset 29, -48
	.cfi_offset 30, -40
	mov	x29, sp
	stp	x19, x20, [sp, 16]
	.cfi_offset 19, -32
	.cfi_offset 20, -24
	str	x0, [sp, 40]
	str	x1, [sp, 32]
	ldr	x0, [sp, 40]
	bl	_ZNKSt10error_code8categoryEv
	mov	x19, x0
	ldr	x0, [x19]
	add	x0, x0, 48
	ldr	x20, [x0]
	ldr	x0, [sp, 40]
	bl	_ZNKSt10error_code5valueEv
	ldr	x2, [sp, 32]
	mov	w1, w0
	mov	x0, x19
	blr	x20
	and	w0, w0, 255
	cmp	w0, 0
	bne	.L45
	ldr	x0, [sp, 32]
	bl	_ZNKSt15error_condition8categoryEv
	mov	x19, x0
	ldr	x0, [x19]
	add	x0, x0, 56
	ldr	x20, [x0]
	ldr	x0, [sp, 32]
	bl	_ZNKSt15error_condition5valueEv
	mov	w2, w0
	ldr	x1, [sp, 40]
	mov	x0, x19
	blr	x20
	and	w0, w0, 255
	cmp	w0, 0
	beq	.L46
.L45:
	mov	w0, 1
	b	.L47
.L46:
	mov	w0, 0
.L47:
	ldp	x19, x20, [sp, 16]
	ldp	x29, x30, [sp], 48
	.cfi_restore 30
	.cfi_restore 29
	.cfi_restore 19
	.cfi_restore 20
	.cfi_def_cfa_offset 0
	ret
	.cfi_endproc
.LFE1287:
	.size	_ZSteqRKSt10error_codeRKSt15error_condition, .-_ZSteqRKSt10error_codeRKSt15error_condition
	.section	.text._ZStneRKSt10error_codeRKSt15error_condition,"axG",@progbits,_ZStneRKSt10error_codeRKSt15error_condition,comdat
	.align	2
	.weak	_ZStneRKSt10error_codeRKSt15error_condition
	.type	_ZStneRKSt10error_codeRKSt15error_condition, %function
_ZStneRKSt10error_codeRKSt15error_condition:
.LFB1292:
	.cfi_startproc
	stp	x29, x30, [sp, -32]!
	.cfi_def_cfa_offset 32
	.cfi_offset 29, -32
	.cfi_offset 30, -24
	mov	x29, sp
	str	x0, [sp, 24]
	str	x1, [sp, 16]
	ldr	x1, [sp, 16]
	ldr	x0, [sp, 24]
	bl	_ZSteqRKSt10error_codeRKSt15error_condition
	and	w0, w0, 255
	eor	w0, w0, 1
	and	w0, w0, 255
	ldp	x29, x30, [sp], 32
	.cfi_restore 30
	.cfi_restore 29
	.cfi_def_cfa_offset 0
	ret
	.cfi_endproc
.LFE1292:
	.size	_ZStneRKSt10error_codeRKSt15error_condition, .-_ZStneRKSt10error_codeRKSt15error_condition
	.section	.text._ZNKSt12system_error4codeEv,"axG",@progbits,_ZNKSt12system_error4codeEv,comdat
	.align	2
	.weak	_ZNKSt12system_error4codeEv
	.type	_ZNKSt12system_error4codeEv, %function
_ZNKSt12system_error4codeEv:
.LFB1313:
	.cfi_startproc
	sub	sp, sp, #16
	.cfi_def_cfa_offset 16
	str	x0, [sp, 8]
	ldr	x0, [sp, 8]
	add	x0, x0, 16
	add	sp, sp, 16
	.cfi_def_cfa_offset 0
	ret
	.cfi_endproc
.LFE1313:
	.size	_ZNKSt12system_error4codeEv, .-_ZNKSt12system_error4codeEv
	.local	_ZStL8__ioinit
	.comm	_ZStL8__ioinit,1,8
	.section	.text._ZNKSt6chrono8durationIlSt5ratioILl1ELl1000000000EEE5countEv,"axG",@progbits,_ZNKSt6chrono8durationIlSt5ratioILl1ELl1000000000EEE5countEv,comdat
	.align	2
	.weak	_ZNKSt6chrono8durationIlSt5ratioILl1ELl1000000000EEE5countEv
	.type	_ZNKSt6chrono8durationIlSt5ratioILl1ELl1000000000EEE5countEv, %function
_ZNKSt6chrono8durationIlSt5ratioILl1ELl1000000000EEE5countEv:
.LFB2245:
	.cfi_startproc
	sub	sp, sp, #16
	.cfi_def_cfa_offset 16
	str	x0, [sp, 8]
	ldr	x0, [sp, 8]
	ldr	x0, [x0]
	add	sp, sp, 16
	.cfi_def_cfa_offset 0
	ret
	.cfi_endproc
.LFE2245:
	.size	_ZNKSt6chrono8durationIlSt5ratioILl1ELl1000000000EEE5countEv, .-_ZNKSt6chrono8durationIlSt5ratioILl1ELl1000000000EEE5countEv
	.section	.text._ZNSt6chrono8durationIlSt5ratioILl1ELl1000000000EEEC1IlvEERKT_,"axG",@progbits,_ZNSt6chrono8durationIlSt5ratioILl1ELl1000000000EEEC1IlvEERKT_,comdat
	.align	2
	.weak	_ZNSt6chrono8durationIlSt5ratioILl1ELl1000000000EEEC1IlvEERKT_
	.type	_ZNSt6chrono8durationIlSt5ratioILl1ELl1000000000EEEC1IlvEERKT_, %function
_ZNSt6chrono8durationIlSt5ratioILl1ELl1000000000EEEC1IlvEERKT_:
.LFB2250:
	.cfi_startproc
	sub	sp, sp, #16
	.cfi_def_cfa_offset 16
	str	x0, [sp, 8]
	str	x1, [sp]
	ldr	x0, [sp]
	ldr	x1, [x0]
	ldr	x0, [sp, 8]
	str	x1, [x0]
	nop
	add	sp, sp, 16
	.cfi_def_cfa_offset 0
	ret
	.cfi_endproc
.LFE2250:
	.size	_ZNSt6chrono8durationIlSt5ratioILl1ELl1000000000EEEC1IlvEERKT_, .-_ZNSt6chrono8durationIlSt5ratioILl1ELl1000000000EEEC1IlvEERKT_
	.section	.text._ZNSt6chrono15duration_valuesIlE4zeroEv,"axG",@progbits,_ZNSt6chrono15duration_valuesIlE4zeroEv,comdat
	.align	2
	.weak	_ZNSt6chrono15duration_valuesIlE4zeroEv
	.type	_ZNSt6chrono15duration_valuesIlE4zeroEv, %function
_ZNSt6chrono15duration_valuesIlE4zeroEv:
.LFB2252:
	.cfi_startproc
	mov	x0, 0
	ret
	.cfi_endproc
.LFE2252:
	.size	_ZNSt6chrono15duration_valuesIlE4zeroEv, .-_ZNSt6chrono15duration_valuesIlE4zeroEv
	.section	.text._ZNSt6chrono8durationIlSt5ratioILl1ELl1EEEC1IlvEERKT_,"axG",@progbits,_ZNSt6chrono8durationIlSt5ratioILl1ELl1EEEC1IlvEERKT_,comdat
	.align	2
	.weak	_ZNSt6chrono8durationIlSt5ratioILl1ELl1EEEC1IlvEERKT_
	.type	_ZNSt6chrono8durationIlSt5ratioILl1ELl1EEEC1IlvEERKT_, %function
_ZNSt6chrono8durationIlSt5ratioILl1ELl1EEEC1IlvEERKT_:
.LFB2271:
	.cfi_startproc
	sub	sp, sp, #16
	.cfi_def_cfa_offset 16
	str	x0, [sp, 8]
	str	x1, [sp]
	ldr	x0, [sp]
	ldr	x1, [x0]
	ldr	x0, [sp, 8]
	str	x1, [x0]
	nop
	add	sp, sp, 16
	.cfi_def_cfa_offset 0
	ret
	.cfi_endproc
.LFE2271:
	.size	_ZNSt6chrono8durationIlSt5ratioILl1ELl1EEEC1IlvEERKT_, .-_ZNSt6chrono8durationIlSt5ratioILl1ELl1EEEC1IlvEERKT_
	.section	.text._ZNSt9once_flag18_Prepare_executionD2Ev,"axG",@progbits,_ZNSt9once_flag18_Prepare_executionD5Ev,comdat
	.align	2
	.weak	_ZNSt9once_flag18_Prepare_executionD2Ev
	.type	_ZNSt9once_flag18_Prepare_executionD2Ev, %function
_ZNSt9once_flag18_Prepare_executionD2Ev:
.LFB2357:
	.cfi_startproc
	sub	sp, sp, #16
	.cfi_def_cfa_offset 16
	str	x0, [sp, 8]
	mrs	x1, tpidr_el0
	adrp	x0, :gottprel:_ZSt15__once_callable
	ldr	x0, [x0, #:gottprel_lo12:_ZSt15__once_callable]
	add	x0, x1, x0
	str	xzr, [x0]
	mrs	x1, tpidr_el0
	adrp	x0, :gottprel:_ZSt11__once_call
	ldr	x0, [x0, #:gottprel_lo12:_ZSt11__once_call]
	add	x0, x1, x0
	str	xzr, [x0]
	nop
	add	sp, sp, 16
	.cfi_def_cfa_offset 0
	ret
	.cfi_endproc
.LFE2357:
	.size	_ZNSt9once_flag18_Prepare_executionD2Ev, .-_ZNSt9once_flag18_Prepare_executionD2Ev
	.weak	_ZNSt9once_flag18_Prepare_executionD1Ev
	.set	_ZNSt9once_flag18_Prepare_executionD1Ev,_ZNSt9once_flag18_Prepare_executionD2Ev
	.section	.rodata
	.align	2
	.type	_ZN9__gnu_cxxL21__default_lock_policyE, %object
	.size	_ZN9__gnu_cxxL21__default_lock_policyE, 4
_ZN9__gnu_cxxL21__default_lock_policyE:
	.word	2
	.weak	_ZZNSt19_Sp_make_shared_tag5_S_tiEvE5__tag
	.section	.rodata._ZZNSt19_Sp_make_shared_tag5_S_tiEvE5__tag,"aG",@progbits,_ZZNSt19_Sp_make_shared_tag5_S_tiEvE5__tag,comdat
	.align	3
	.type	_ZZNSt19_Sp_make_shared_tag5_S_tiEvE5__tag, %gnu_unique_object
	.size	_ZZNSt19_Sp_make_shared_tag5_S_tiEvE5__tag, 16
_ZZNSt19_Sp_make_shared_tag5_S_tiEvE5__tag:
	.zero	16
	.section	.text._ZNSt19_Sp_make_shared_tag5_S_tiEv,"axG",@progbits,_ZNSt19_Sp_make_shared_tag5_S_tiEv,comdat
	.align	2
	.weak	_ZNSt19_Sp_make_shared_tag5_S_tiEv
	.type	_ZNSt19_Sp_make_shared_tag5_S_tiEv, %function
_ZNSt19_Sp_make_shared_tag5_S_tiEv:
.LFB2547:
	.cfi_startproc
	adrp	x0, _ZZNSt19_Sp_make_shared_tag5_S_tiEvE5__tag
	add	x0, x0, :lo12:_ZZNSt19_Sp_make_shared_tag5_S_tiEvE5__tag
	ret
	.cfi_endproc
.LFE2547:
	.size	_ZNSt19_Sp_make_shared_tag5_S_tiEv, .-_ZNSt19_Sp_make_shared_tag5_S_tiEv
	.section	.text._ZStanSt12memory_orderSt23__memory_order_modifier,"axG",@progbits,_ZStanSt12memory_orderSt23__memory_order_modifier,comdat
	.align	2
	.weak	_ZStanSt12memory_orderSt23__memory_order_modifier
	.type	_ZStanSt12memory_orderSt23__memory_order_modifier, %function
_ZStanSt12memory_orderSt23__memory_order_modifier:
.LFB2786:
	.cfi_startproc
	sub	sp, sp, #16
	.cfi_def_cfa_offset 16
	str	w0, [sp, 12]
	str	w1, [sp, 8]
	ldr	w1, [sp, 12]
	ldr	w0, [sp, 8]
	and	w0, w1, w0
	add	sp, sp, 16
	.cfi_def_cfa_offset 0
	ret
	.cfi_endproc
.LFE2786:
	.size	_ZStanSt12memory_orderSt23__memory_order_modifier, .-_ZStanSt12memory_orderSt23__memory_order_modifier
	.section	.text._ZNSt11atomic_flagC2Eb,"axG",@progbits,_ZNSt11atomic_flagC5Eb,comdat
	.align	2
	.weak	_ZNSt11atomic_flagC2Eb
	.type	_ZNSt11atomic_flagC2Eb, %function
_ZNSt11atomic_flagC2Eb:
.LFB2793:
	.cfi_startproc
	stp	x29, x30, [sp, -32]!
	.cfi_def_cfa_offset 32
	.cfi_offset 29, -32
	.cfi_offset 30, -24
	mov	x29, sp
	str	x0, [sp, 24]
	strb	w1, [sp, 23]
	ldrb	w0, [sp, 23]
	bl	_ZNSt11atomic_flag7_S_initEb
	and	w1, w0, 255
	ldr	x0, [sp, 24]
	strb	w1, [x0]
	nop
	ldp	x29, x30, [sp], 32
	.cfi_restore 30
	.cfi_restore 29
	.cfi_def_cfa_offset 0
	ret
	.cfi_endproc
.LFE2793:
	.size	_ZNSt11atomic_flagC2Eb, .-_ZNSt11atomic_flagC2Eb
	.weak	_ZNSt11atomic_flagC1Eb
	.set	_ZNSt11atomic_flagC1Eb,_ZNSt11atomic_flagC2Eb
	.section	.text._ZNSt11atomic_flag7_S_initEb,"axG",@progbits,_ZNSt11atomic_flag7_S_initEb,comdat
	.align	2
	.weak	_ZNSt11atomic_flag7_S_initEb
	.type	_ZNSt11atomic_flag7_S_initEb, %function
_ZNSt11atomic_flag7_S_initEb:
.LFB2799:
	.cfi_startproc
	sub	sp, sp, #16
	.cfi_def_cfa_offset 16
	strb	w0, [sp, 15]
	ldrb	w0, [sp, 15]
	cmp	w0, 0
	beq	.L66
	mov	w0, 1
	b	.L67
.L66:
	mov	w0, 0
.L67:
	cmp	w0, 0
	cset	w0, ne
	and	w0, w0, 255
	add	sp, sp, 16
	.cfi_def_cfa_offset 0
	ret
	.cfi_endproc
.LFE2799:
	.size	_ZNSt11atomic_flag7_S_initEb, .-_ZNSt11atomic_flag7_S_initEb
	.section	.text._ZNSt6atomicIjEC2Ej,"axG",@progbits,_ZNSt6atomicIjEC5Ej,comdat
	.align	2
	.weak	_ZNSt6atomicIjEC2Ej
	.type	_ZNSt6atomicIjEC2Ej, %function
_ZNSt6atomicIjEC2Ej:
.LFB2985:
	.cfi_startproc
	stp	x29, x30, [sp, -32]!
	.cfi_def_cfa_offset 32
	.cfi_offset 29, -32
	.cfi_offset 30, -24
	mov	x29, sp
	str	x0, [sp, 24]
	str	w1, [sp, 20]
	ldr	x0, [sp, 24]
	ldr	w1, [sp, 20]
	bl	_ZNSt13__atomic_baseIjEC2Ej
	nop
	ldp	x29, x30, [sp], 32
	.cfi_restore 30
	.cfi_restore 29
	.cfi_def_cfa_offset 0
	ret
	.cfi_endproc
.LFE2985:
	.size	_ZNSt6atomicIjEC2Ej, .-_ZNSt6atomicIjEC2Ej
	.weak	_ZNSt6atomicIjEC1Ej
	.set	_ZNSt6atomicIjEC1Ej,_ZNSt6atomicIjEC2Ej
	.section	.text._ZNSt9_Any_data9_M_accessEv,"axG",@progbits,_ZNSt9_Any_data9_M_accessEv,comdat
	.align	2
	.weak	_ZNSt9_Any_data9_M_accessEv
	.type	_ZNSt9_Any_data9_M_accessEv, %function
_ZNSt9_Any_data9_M_accessEv:
.LFB3074:
	.cfi_startproc
	sub	sp, sp, #16
	.cfi_def_cfa_offset 16
	str	x0, [sp, 8]
	ldr	x0, [sp, 8]
	add	sp, sp, 16
	.cfi_def_cfa_offset 0
	ret
	.cfi_endproc
.LFE3074:
	.size	_ZNSt9_Any_data9_M_accessEv, .-_ZNSt9_Any_data9_M_accessEv
	.section	.text._ZNKSt9_Any_data9_M_accessEv,"axG",@progbits,_ZNKSt9_Any_data9_M_accessEv,comdat
	.align	2
	.weak	_ZNKSt9_Any_data9_M_accessEv
	.type	_ZNKSt9_Any_data9_M_accessEv, %function
_ZNKSt9_Any_data9_M_accessEv:
.LFB3075:
	.cfi_startproc
	sub	sp, sp, #16
	.cfi_def_cfa_offset 16
	str	x0, [sp, 8]
	ldr	x0, [sp, 8]
	add	sp, sp, 16
	.cfi_def_cfa_offset 0
	ret
	.cfi_endproc
.LFE3075:
	.size	_ZNKSt9_Any_data9_M_accessEv, .-_ZNKSt9_Any_data9_M_accessEv
	.section	.text._ZNSt14_Function_baseD2Ev,"axG",@progbits,_ZNSt14_Function_baseD5Ev,comdat
	.align	2
	.weak	_ZNSt14_Function_baseD2Ev
	.type	_ZNSt14_Function_baseD2Ev, %function
_ZNSt14_Function_baseD2Ev:
.LFB3090:
	.cfi_startproc
	.cfi_personality 0x9b,DW.ref.__gxx_personality_v0
	.cfi_lsda 0x1b,.LLSDA3090
	stp	x29, x30, [sp, -32]!
	.cfi_def_cfa_offset 32
	.cfi_offset 29, -32
	.cfi_offset 30, -24
	mov	x29, sp
	str	x0, [sp, 24]
	ldr	x0, [sp, 24]
	ldr	x0, [x0, 16]
	cmp	x0, 0
	beq	.L76
	ldr	x0, [sp, 24]
	ldr	x3, [x0, 16]
	ldr	x0, [sp, 24]
	ldr	x1, [sp, 24]
	mov	w2, 3
	blr	x3
.L76:
	nop
	ldp	x29, x30, [sp], 32
	.cfi_restore 30
	.cfi_restore 29
	.cfi_def_cfa_offset 0
	ret
	.cfi_endproc
.LFE3090:
	.global	__gxx_personality_v0
	.section	.gcc_except_table._ZNSt14_Function_baseD2Ev,"aG",@progbits,_ZNSt14_Function_baseD5Ev,comdat
.LLSDA3090:
	.byte	0xff
	.byte	0xff
	.byte	0x1
	.uleb128 .LLSDACSE3090-.LLSDACSB3090
.LLSDACSB3090:
.LLSDACSE3090:
	.section	.text._ZNSt14_Function_baseD2Ev,"axG",@progbits,_ZNSt14_Function_baseD5Ev,comdat
	.size	_ZNSt14_Function_baseD2Ev, .-_ZNSt14_Function_baseD2Ev
	.weak	_ZNSt14_Function_baseD1Ev
	.set	_ZNSt14_Function_baseD1Ev,_ZNSt14_Function_baseD2Ev
	.section	.text._ZNKSt14_Function_base8_M_emptyEv,"axG",@progbits,_ZNKSt14_Function_base8_M_emptyEv,comdat
	.align	2
	.weak	_ZNKSt14_Function_base8_M_emptyEv
	.type	_ZNKSt14_Function_base8_M_emptyEv, %function
_ZNKSt14_Function_base8_M_emptyEv:
.LFB3092:
	.cfi_startproc
	sub	sp, sp, #16
	.cfi_def_cfa_offset 16
	str	x0, [sp, 8]
	ldr	x0, [sp, 8]
	ldr	x0, [x0, 16]
	cmp	x0, 0
	cset	w0, eq
	and	w0, w0, 255
	add	sp, sp, 16
	.cfi_def_cfa_offset 0
	ret
	.cfi_endproc
.LFE3092:
	.size	_ZNKSt14_Function_base8_M_emptyEv, .-_ZNKSt14_Function_base8_M_emptyEv
	.section	.text._ZNSt6thread2idC2Ev,"axG",@progbits,_ZNSt6thread2idC5Ev,comdat
	.align	2
	.weak	_ZNSt6thread2idC2Ev
	.type	_ZNSt6thread2idC2Ev, %function
_ZNSt6thread2idC2Ev:
.LFB3121:
	.cfi_startproc
	sub	sp, sp, #16
	.cfi_def_cfa_offset 16
	str	x0, [sp, 8]
	ldr	x0, [sp, 8]
	str	xzr, [x0]
	nop
	add	sp, sp, 16
	.cfi_def_cfa_offset 0
	ret
	.cfi_endproc
.LFE3121:
	.size	_ZNSt6thread2idC2Ev, .-_ZNSt6thread2idC2Ev
	.weak	_ZNSt6thread2idC1Ev
	.set	_ZNSt6thread2idC1Ev,_ZNSt6thread2idC2Ev
	.section	.text._ZNSt6threadD2Ev,"axG",@progbits,_ZNSt6threadD5Ev,comdat
	.align	2
	.weak	_ZNSt6threadD2Ev
	.type	_ZNSt6threadD2Ev, %function
_ZNSt6threadD2Ev:
.LFB3128:
	.cfi_startproc
	stp	x29, x30, [sp, -32]!
	.cfi_def_cfa_offset 32
	.cfi_offset 29, -32
	.cfi_offset 30, -24
	mov	x29, sp
	str	x0, [sp, 24]
	ldr	x0, [sp, 24]
	bl	_ZNKSt6thread8joinableEv
	and	w0, w0, 255
	cmp	w0, 0
	beq	.L82
	bl	_ZSt9terminatev
.L82:
	nop
	ldp	x29, x30, [sp], 32
	.cfi_restore 30
	.cfi_restore 29
	.cfi_def_cfa_offset 0
	ret
	.cfi_endproc
.LFE3128:
	.size	_ZNSt6threadD2Ev, .-_ZNSt6threadD2Ev
	.weak	_ZNSt6threadD1Ev
	.set	_ZNSt6threadD1Ev,_ZNSt6threadD2Ev
	.section	.text._ZNSt6threadaSEOS_,"axG",@progbits,_ZNSt6threadaSEOS_,comdat
	.align	2
	.weak	_ZNSt6threadaSEOS_
	.type	_ZNSt6threadaSEOS_, %function
_ZNSt6threadaSEOS_:
.LFB3133:
	.cfi_startproc
	stp	x29, x30, [sp, -32]!
	.cfi_def_cfa_offset 32
	.cfi_offset 29, -32
	.cfi_offset 30, -24
	mov	x29, sp
	str	x0, [sp, 24]
	str	x1, [sp, 16]
	ldr	x0, [sp, 24]
	bl	_ZNKSt6thread8joinableEv
	and	w0, w0, 255
	cmp	w0, 0
	beq	.L84
	bl	_ZSt9terminatev
.L84:
	ldr	x1, [sp, 16]
	ldr	x0, [sp, 24]
	bl	_ZNSt6thread4swapERS_
	ldr	x0, [sp, 24]
	ldp	x29, x30, [sp], 32
	.cfi_restore 30
	.cfi_restore 29
	.cfi_def_cfa_offset 0
	ret
	.cfi_endproc
.LFE3133:
	.size	_ZNSt6threadaSEOS_, .-_ZNSt6threadaSEOS_
	.section	.text._ZNSt6thread4swapERS_,"axG",@progbits,_ZNSt6thread4swapERS_,comdat
	.align	2
	.weak	_ZNSt6thread4swapERS_
	.type	_ZNSt6thread4swapERS_, %function
_ZNSt6thread4swapERS_:
.LFB3134:
	.cfi_startproc
	stp	x29, x30, [sp, -32]!
	.cfi_def_cfa_offset 32
	.cfi_offset 29, -32
	.cfi_offset 30, -24
	mov	x29, sp
	str	x0, [sp, 24]
	str	x1, [sp, 16]
	ldr	x0, [sp, 24]
	ldr	x1, [sp, 16]
	bl	_ZSt4swapINSt6thread2idEENSt9enable_ifIXsrSt6__and_IJSt6__not_ISt15__is_tuple_likeIT_EESt21is_move_constructibleIS6_ESt18is_move_assignableIS6_EEE5valueEvE4typeERS6_SG_
	nop
	ldp	x29, x30, [sp], 32
	.cfi_restore 30
	.cfi_restore 29
	.cfi_def_cfa_offset 0
	ret
	.cfi_endproc
.LFE3134:
	.size	_ZNSt6thread4swapERS_, .-_ZNSt6thread4swapERS_
	.section	.text._ZNKSt6thread8joinableEv,"axG",@progbits,_ZNKSt6thread8joinableEv,comdat
	.align	2
	.weak	_ZNKSt6thread8joinableEv
	.type	_ZNKSt6thread8joinableEv, %function
_ZNKSt6thread8joinableEv:
.LFB3136:
	.cfi_startproc
	stp	x29, x30, [sp, -48]!
	.cfi_def_cfa_offset 48
	.cfi_offset 29, -48
	.cfi_offset 30, -40
	mov	x29, sp
	str	x0, [sp, 24]
	adrp	x0, :got:__stack_chk_guard
	ldr	x0, [x0, #:got_lo12:__stack_chk_guard]
	ldr	x1, [x0]
	str	x1, [sp, 40]
	mov	x1, 0
	add	x0, sp, 32
	bl	_ZNSt6thread2idC1Ev
	ldr	x0, [sp, 24]
	ldr	x1, [sp, 32]
	ldr	x0, [x0]
	bl	_ZSteqNSt6thread2idES0_
	and	w0, w0, 255
	eor	w0, w0, 1
	and	w0, w0, 255
	mov	w1, w0
	adrp	x0, :got:__stack_chk_guard
	ldr	x0, [x0, #:got_lo12:__stack_chk_guard]
	ldr	x3, [sp, 40]
	ldr	x2, [x0]
	subs	x3, x3, x2
	mov	x2, 0
	beq	.L89
	bl	__stack_chk_fail
.L89:
	mov	w0, w1
	ldp	x29, x30, [sp], 48
	.cfi_restore 30
	.cfi_restore 29
	.cfi_def_cfa_offset 0
	ret
	.cfi_endproc
.LFE3136:
	.size	_ZNKSt6thread8joinableEv, .-_ZNKSt6thread8joinableEv
	.section	.text._ZSteqNSt6thread2idES0_,"axG",@progbits,_ZSteqNSt6thread2idES0_,comdat
	.align	2
	.weak	_ZSteqNSt6thread2idES0_
	.type	_ZSteqNSt6thread2idES0_, %function
_ZSteqNSt6thread2idES0_:
.LFB3144:
	.cfi_startproc
	sub	sp, sp, #16
	.cfi_def_cfa_offset 16
	str	x0, [sp, 8]
	str	x1, [sp]
	ldr	x1, [sp, 8]
	ldr	x0, [sp]
	cmp	x1, x0
	cset	w0, eq
	and	w0, w0, 255
	add	sp, sp, 16
	.cfi_def_cfa_offset 0
	ret
	.cfi_endproc
.LFE3144:
	.size	_ZSteqNSt6thread2idES0_, .-_ZSteqNSt6thread2idES0_
	.section	.text._ZSt15make_error_codeSt11future_errc,"axG",@progbits,_ZSt15make_error_codeSt11future_errc,comdat
	.align	2
	.weak	_ZSt15make_error_codeSt11future_errc
	.type	_ZSt15make_error_codeSt11future_errc, %function
_ZSt15make_error_codeSt11future_errc:
.LFB3148:
	.cfi_startproc
	stp	x29, x30, [sp, -64]!
	.cfi_def_cfa_offset 64
	.cfi_offset 29, -64
	.cfi_offset 30, -56
	mov	x29, sp
	str	w0, [sp, 28]
	adrp	x0, :got:__stack_chk_guard
	ldr	x0, [x0, #:got_lo12:__stack_chk_guard]
	ldr	x1, [x0]
	str	x1, [sp, 56]
	mov	x1, 0
	bl	_ZSt15future_categoryv
	mov	x1, x0
	add	x0, sp, 40
	mov	x2, x1
	ldr	w1, [sp, 28]
	bl	_ZNSt10error_codeC1EiRKNSt3_V214error_categoryE
	ldp	x0, x1, [sp, 40]
	mov	x2, x0
	mov	x3, x1
	adrp	x0, :got:__stack_chk_guard
	ldr	x0, [x0, #:got_lo12:__stack_chk_guard]
	ldr	x4, [sp, 56]
	ldr	x1, [x0]
	subs	x4, x4, x1
	mov	x1, 0
	beq	.L94
	bl	__stack_chk_fail
.L94:
	mov	x0, x2
	mov	x1, x3
	ldp	x29, x30, [sp], 64
	.cfi_restore 30
	.cfi_restore 29
	.cfi_def_cfa_offset 0
	ret
	.cfi_endproc
.LFE3148:
	.size	_ZSt15make_error_codeSt11future_errc, .-_ZSt15make_error_codeSt11future_errc
	.section	.text._ZNSt12future_errorC2ESt11future_errc,"axG",@progbits,_ZNSt12future_errorC5ESt11future_errc,comdat
	.align	2
	.weak	_ZNSt12future_errorC2ESt11future_errc
	.type	_ZNSt12future_errorC2ESt11future_errc, %function
_ZNSt12future_errorC2ESt11future_errc:
.LFB3151:
	.cfi_startproc
	stp	x29, x30, [sp, -32]!
	.cfi_def_cfa_offset 32
	.cfi_offset 29, -32
	.cfi_offset 30, -24
	mov	x29, sp
	str	x0, [sp, 24]
	str	w1, [sp, 20]
	ldr	w0, [sp, 20]
	bl	_ZSt15make_error_codeSt11future_errc
	mov	x2, x1
	mov	x1, x0
	ldr	x0, [sp, 24]
	bl	_ZNSt12future_errorC1ESt10error_code
	nop
	ldp	x29, x30, [sp], 32
	.cfi_restore 30
	.cfi_restore 29
	.cfi_def_cfa_offset 0
	ret
	.cfi_endproc
.LFE3151:
	.size	_ZNSt12future_errorC2ESt11future_errc, .-_ZNSt12future_errorC2ESt11future_errc
	.weak	_ZNSt12future_errorC1ESt11future_errc
	.set	_ZNSt12future_errorC1ESt11future_errc,_ZNSt12future_errorC2ESt11future_errc
	.section	.rodata
	.align	3
.LC0:
	.string	"std::future_error: "
	.section	.text._ZNSt12future_errorC2ESt10error_code,"axG",@progbits,_ZNSt12future_errorC5ESt10error_code,comdat
	.align	2
	.weak	_ZNSt12future_errorC2ESt10error_code
	.type	_ZNSt12future_errorC2ESt10error_code, %function
_ZNSt12future_errorC2ESt10error_code:
.LFB3155:
	.cfi_startproc
	.cfi_personality 0x9b,DW.ref.__gxx_personality_v0
	.cfi_lsda 0x1b,.LLSDA3155
	stp	x29, x30, [sp, -144]!
	.cfi_def_cfa_offset 144
	.cfi_offset 29, -144
	.cfi_offset 30, -136
	mov	x29, sp
	str	x19, [sp, 16]
	.cfi_offset 19, -128
	str	x0, [sp, 56]
	stp	x1, x2, [sp, 40]
	adrp	x0, :got:__stack_chk_guard
	ldr	x0, [x0, #:got_lo12:__stack_chk_guard]
	ldr	x1, [x0]
	str	x1, [sp, 136]
	mov	x1, 0
	ldr	x19, [sp, 56]
	add	x0, sp, 40
	add	x1, sp, 104
	mov	x8, x1
.LEHB0:
	bl	_ZNKSt10error_code7messageB5cxx11Ev
.LEHE0:
	add	x0, sp, 104
	add	x1, sp, 72
	mov	x8, x1
	mov	x1, x0
	adrp	x0, .LC0
	add	x0, x0, :lo12:.LC0
.LEHB1:
	bl	_ZStplIcSt11char_traitsIcESaIcEENSt7__cxx1112basic_stringIT_T0_T1_EEPKS5_OS8_
.LEHE1:
	add	x0, sp, 72
	mov	x1, x0
	mov	x0, x19
.LEHB2:
	bl	_ZNSt11logic_errorC2ERKNSt7__cxx1112basic_stringIcSt11char_traitsIcESaIcEEE
.LEHE2:
	add	x0, sp, 72
	bl	_ZNSt7__cxx1112basic_stringIcSt11char_traitsIcESaIcEED1Ev
	add	x0, sp, 104
	bl	_ZNSt7__cxx1112basic_stringIcSt11char_traitsIcESaIcEED1Ev
	adrp	x0, :got:_ZTVSt12future_error
	ldr	x0, [x0, #:got_lo12:_ZTVSt12future_error]
	add	x1, x0, 16
	ldr	x0, [sp, 56]
	str	x1, [x0]
	ldr	x2, [sp, 56]
	ldp	x0, x1, [sp, 40]
	stp	x0, x1, [x2, 16]
	nop
	adrp	x0, :got:__stack_chk_guard
	ldr	x0, [x0, #:got_lo12:__stack_chk_guard]
	ldr	x2, [sp, 136]
	ldr	x1, [x0]
	subs	x2, x2, x1
	mov	x1, 0
	beq	.L99
	b	.L102
.L101:
	mov	x19, x0
	add	x0, sp, 72
	bl	_ZNSt7__cxx1112basic_stringIcSt11char_traitsIcESaIcEED1Ev
	b	.L98
.L100:
	mov	x19, x0
.L98:
	add	x0, sp, 104
	bl	_ZNSt7__cxx1112basic_stringIcSt11char_traitsIcESaIcEED1Ev
	mov	x0, x19
.LEHB3:
	bl	_Unwind_Resume
.LEHE3:
.L102:
	bl	__stack_chk_fail
.L99:
	ldr	x19, [sp, 16]
	ldp	x29, x30, [sp], 144
	.cfi_restore 30
	.cfi_restore 29
	.cfi_restore 19
	.cfi_def_cfa_offset 0
	ret
	.cfi_endproc
.LFE3155:
	.section	.gcc_except_table._ZNSt12future_errorC2ESt10error_code,"aG",@progbits,_ZNSt12future_errorC5ESt10error_code,comdat
.LLSDA3155:
	.byte	0xff
	.byte	0xff
	.byte	0x1
	.uleb128 .LLSDACSE3155-.LLSDACSB3155
.LLSDACSB3155:
	.uleb128 .LEHB0-.LFB3155
	.uleb128 .LEHE0-.LEHB0
	.uleb128 0
	.uleb128 0
	.uleb128 .LEHB1-.LFB3155
	.uleb128 .LEHE1-.LEHB1
	.uleb128 .L100-.LFB3155
	.uleb128 0
	.uleb128 .LEHB2-.LFB3155
	.uleb128 .LEHE2-.LEHB2
	.uleb128 .L101-.LFB3155
	.uleb128 0
	.uleb128 .LEHB3-.LFB3155
	.uleb128 .LEHE3-.LEHB3
	.uleb128 0
	.uleb128 0
.LLSDACSE3155:
	.section	.text._ZNSt12future_errorC2ESt10error_code,"axG",@progbits,_ZNSt12future_errorC5ESt10error_code,comdat
	.size	_ZNSt12future_errorC2ESt10error_code, .-_ZNSt12future_errorC2ESt10error_code
	.weak	_ZNSt12future_errorC1ESt10error_code
	.set	_ZNSt12future_errorC1ESt10error_code,_ZNSt12future_errorC2ESt10error_code
	.section	.text._ZStanSt6launchS_,"axG",@progbits,_ZStanSt6launchS_,comdat
	.align	2
	.weak	_ZStanSt6launchS_
	.type	_ZStanSt6launchS_, %function
_ZStanSt6launchS_:
.LFB3157:
	.cfi_startproc
	sub	sp, sp, #16
	.cfi_def_cfa_offset 16
	str	w0, [sp, 12]
	str	w1, [sp, 8]
	ldr	w1, [sp, 12]
	ldr	w0, [sp, 8]
	and	w0, w1, w0
	add	sp, sp, 16
	.cfi_def_cfa_offset 0
	ret
	.cfi_endproc
.LFE3157:
	.size	_ZStanSt6launchS_, .-_ZStanSt6launchS_
	.section	.text._ZStorSt6launchS_,"axG",@progbits,_ZStorSt6launchS_,comdat
	.align	2
	.weak	_ZStorSt6launchS_
	.type	_ZStorSt6launchS_, %function
_ZStorSt6launchS_:
.LFB3158:
	.cfi_startproc
	sub	sp, sp, #16
	.cfi_def_cfa_offset 16
	str	w0, [sp, 12]
	str	w1, [sp, 8]
	ldr	w1, [sp, 12]
	ldr	w0, [sp, 8]
	orr	w0, w1, w0
	add	sp, sp, 16
	.cfi_def_cfa_offset 0
	ret
	.cfi_endproc
.LFE3158:
	.size	_ZStorSt6launchS_, .-_ZStorSt6launchS_
	.section	.text._ZNKSt13__future_base12_Result_base8_DeleterclEPS0_,"axG",@progbits,_ZNKSt13__future_base12_Result_base8_DeleterclEPS0_,comdat
	.align	2
	.weak	_ZNKSt13__future_base12_Result_base8_DeleterclEPS0_
	.type	_ZNKSt13__future_base12_Result_base8_DeleterclEPS0_, %function
_ZNKSt13__future_base12_Result_base8_DeleterclEPS0_:
.LFB3172:
	.cfi_startproc
	stp	x29, x30, [sp, -32]!
	.cfi_def_cfa_offset 32
	.cfi_offset 29, -32
	.cfi_offset 30, -24
	mov	x29, sp
	str	x0, [sp, 24]
	str	x1, [sp, 16]
	ldr	x0, [sp, 16]
	ldr	x0, [x0]
	ldr	x1, [x0]
	ldr	x0, [sp, 16]
	blr	x1
	nop
	ldp	x29, x30, [sp], 32
	.cfi_restore 30
	.cfi_restore 29
	.cfi_def_cfa_offset 0
	ret
	.cfi_endproc
.LFE3172:
	.size	_ZNKSt13__future_base12_Result_base8_DeleterclEPS0_, .-_ZNKSt13__future_base12_Result_base8_DeleterclEPS0_
	.section	.text._ZNSt9once_flagC2Ev,"axG",@progbits,_ZNSt9once_flagC5Ev,comdat
	.align	2
	.weak	_ZNSt9once_flagC2Ev
	.type	_ZNSt9once_flagC2Ev, %function
_ZNSt9once_flagC2Ev:
.LFB3185:
	.cfi_startproc
	sub	sp, sp, #16
	.cfi_def_cfa_offset 16
	str	x0, [sp, 8]
	ldr	x0, [sp, 8]
	str	wzr, [x0]
	nop
	add	sp, sp, 16
	.cfi_def_cfa_offset 0
	ret
	.cfi_endproc
.LFE3185:
	.size	_ZNSt9once_flagC2Ev, .-_ZNSt9once_flagC2Ev
	.weak	_ZNSt9once_flagC1Ev
	.set	_ZNSt9once_flagC1Ev,_ZNSt9once_flagC2Ev
	.section	.text._ZNSt13__future_base13_State_baseV2C2Ev,"axG",@progbits,_ZNSt13__future_base13_State_baseV2C5Ev,comdat
	.align	2
	.weak	_ZNSt13__future_base13_State_baseV2C2Ev
	.type	_ZNSt13__future_base13_State_baseV2C2Ev, %function
_ZNSt13__future_base13_State_baseV2C2Ev:
.LFB3187:
	.cfi_startproc
	stp	x29, x30, [sp, -32]!
	.cfi_def_cfa_offset 32
	.cfi_offset 29, -32
	.cfi_offset 30, -24
	mov	x29, sp
	str	x0, [sp, 24]
	adrp	x0, _ZTVNSt13__future_base13_State_baseV2E+16
	add	x1, x0, :lo12:_ZTVNSt13__future_base13_State_baseV2E+16
	ldr	x0, [sp, 24]
	str	x1, [x0]
	ldr	x0, [sp, 24]
	add	x0, x0, 8
	bl	_ZNSt10unique_ptrINSt13__future_base12_Result_baseENS1_8_DeleterEEC1IS2_vEEv
	ldr	x0, [sp, 24]
	add	x0, x0, 16
	mov	w1, 0
	bl	_ZNSt23__atomic_futex_unsignedILj2147483648EEC1Ej
	ldr	x0, [sp, 24]
	add	x0, x0, 20
	mov	w1, 0
	bl	_ZNSt11atomic_flagC1Eb
	ldr	x0, [sp, 24]
	add	x0, x0, 24
	bl	_ZNSt9once_flagC1Ev
	nop
	ldp	x29, x30, [sp], 32
	.cfi_restore 30
	.cfi_restore 29
	.cfi_def_cfa_offset 0
	ret
	.cfi_endproc
.LFE3187:
	.size	_ZNSt13__future_base13_State_baseV2C2Ev, .-_ZNSt13__future_base13_State_baseV2C2Ev
	.weak	_ZNSt13__future_base13_State_baseV2C1Ev
	.set	_ZNSt13__future_base13_State_baseV2C1Ev,_ZNSt13__future_base13_State_baseV2C2Ev
	.section	.text._ZNSt13__future_base13_State_baseV24waitEv,"axG",@progbits,_ZNSt13__future_base13_State_baseV24waitEv,comdat
	.align	2
	.weak	_ZNSt13__future_base13_State_baseV24waitEv
	.type	_ZNSt13__future_base13_State_baseV24waitEv, %function
_ZNSt13__future_base13_State_baseV24waitEv:
.LFB3189:
	.cfi_startproc
	stp	x29, x30, [sp, -80]!
	.cfi_def_cfa_offset 80
	.cfi_offset 29, -80
	.cfi_offset 30, -72
	mov	x29, sp
	str	x0, [sp, 24]
	ldr	x0, [sp, 24]
	ldr	x0, [x0]
	add	x0, x0, 16
	ldr	x1, [x0]
	ldr	x0, [sp, 24]
	blr	x1
	ldr	x0, [sp, 24]
	add	x0, x0, 16
	str	x0, [sp, 56]
	mov	w0, 1
	str	w0, [sp, 32]
	mov	w0, 2
	str	w0, [sp, 36]
	ldr	x0, [sp, 56]
	str	x0, [sp, 64]
	ldr	w0, [sp, 36]
	str	w0, [sp, 40]
	ldr	x0, [sp, 64]
	str	x0, [sp, 72]
	ldr	w0, [sp, 40]
	str	w0, [sp, 44]
	mov	w1, 65535
	ldr	w0, [sp, 44]
	bl	_ZStanSt12memory_orderSt23__memory_order_modifier
	str	w0, [sp, 48]
	ldr	x0, [sp, 72]
	ldar	w0, [x0]
	nop
	and	w0, w0, 2147483647
	str	w0, [sp, 52]
	ldr	w0, [sp, 52]
	and	w0, w0, 2147483647
	ldr	w1, [sp, 32]
	cmp	w1, w0
	beq	.L116
	ldr	w4, [sp, 36]
	mov	w3, 1
	ldr	w2, [sp, 32]
	ldr	w1, [sp, 52]
	ldr	x0, [sp, 56]
	bl	_ZNSt23__atomic_futex_unsignedILj2147483648EE16_M_load_and_testEjjbSt12memory_order
	b	.L114
.L116:
	nop
.L114:
	ldr	x0, [sp, 24]
	add	x0, x0, 8
	bl	_ZNKSt10unique_ptrINSt13__future_base12_Result_baseENS1_8_DeleterEEdeEv
	ldp	x29, x30, [sp], 80
	.cfi_restore 30
	.cfi_restore 29
	.cfi_def_cfa_offset 0
	ret
	.cfi_endproc
.LFE3189:
	.size	_ZNSt13__future_base13_State_baseV24waitEv, .-_ZNSt13__future_base13_State_baseV24waitEv
	.global	__aarch64_swp4_acq_rel
	.section	.text._ZNSt13__future_base13_State_baseV213_M_set_resultESt8functionIFSt10unique_ptrINS_12_Result_baseENS3_8_DeleterEEvEEb,"axG",@progbits,_ZNSt13__future_base13_State_baseV213_M_set_resultESt8functionIFSt10unique_ptrINS_12_Result_baseENS3_8_DeleterEEvEEb,comdat
	.align	2
	.weak	_ZNSt13__future_base13_State_baseV213_M_set_resultESt8functionIFSt10unique_ptrINS_12_Result_baseENS3_8_DeleterEEvEEb
	.type	_ZNSt13__future_base13_State_baseV213_M_set_resultESt8functionIFSt10unique_ptrINS_12_Result_baseENS3_8_DeleterEEvEEb, %function
_ZNSt13__future_base13_State_baseV213_M_set_resultESt8functionIFSt10unique_ptrINS_12_Result_baseENS3_8_DeleterEEvEEb:
.LFB3192:
	.cfi_startproc
	stp	x29, x30, [sp, -160]!
	.cfi_def_cfa_offset 160
	.cfi_offset 29, -160
	.cfi_offset 30, -152
	mov	x29, sp
	str	x19, [sp, 16]
	.cfi_offset 19, -144
	str	x0, [sp, 56]
	str	x1, [sp, 48]
	strb	w2, [sp, 47]
	adrp	x0, :got:__stack_chk_guard
	ldr	x0, [x0, #:got_lo12:__stack_chk_guard]
	ldr	x1, [x0]
	str	x1, [sp, 152]
	mov	x1, 0
	strb	wzr, [sp, 71]
	ldr	x0, [sp, 56]
	add	x19, x0, 24
	adrp	x0, _ZNSt13__future_base13_State_baseV29_M_do_setEPSt8functionIFSt10unique_ptrINS_12_Result_baseENS3_8_DeleterEEvEEPb
	add	x4, x0, :lo12:_ZNSt13__future_base13_State_baseV29_M_do_setEPSt8functionIFSt10unique_ptrINS_12_Result_baseENS3_8_DeleterEEvEEPb
	mov	x5, 0
	stp	x4, x5, [sp, 136]
	ldr	x0, [sp, 56]
	str	x0, [sp, 88]
	ldr	x0, [sp, 48]
	bl	_ZSt11__addressofISt8functionIFSt10unique_ptrINSt13__future_base12_Result_baseENS3_8_DeleterEEvEEEPT_RS8_
	str	x0, [sp, 96]
	add	x0, sp, 71
	bl	_ZSt11__addressofIbEPT_RS0_
	str	x0, [sp, 104]
	add	x3, sp, 104
	add	x2, sp, 96
	add	x1, sp, 88
	add	x0, sp, 136
	mov	x4, x3
	mov	x3, x2
	mov	x2, x1
	mov	x1, x0
	mov	x0, x19
	bl	_ZSt9call_onceIMNSt13__future_base13_State_baseV2EFvPSt8functionIFSt10unique_ptrINS0_12_Result_baseENS4_8_DeleterEEvEEPbEJPS1_S9_SA_EEvRSt9once_flagOT_DpOT0_
	ldrb	w0, [sp, 71]
	cmp	w0, 0
	beq	.L118
	ldr	x0, [sp, 56]
	add	x0, x0, 16
	str	x0, [sp, 112]
	mov	w0, 1
	str	w0, [sp, 72]
	mov	w0, 3
	str	w0, [sp, 76]
	ldr	x0, [sp, 112]
	str	x0, [sp, 120]
	ldr	x0, [sp, 112]
	str	x0, [sp, 128]
	ldr	w0, [sp, 72]
	str	w0, [sp, 80]
	ldr	w0, [sp, 76]
	str	w0, [sp, 84]
	ldr	x1, [sp, 128]
	ldr	w0, [sp, 80]
	bl	__aarch64_swp4_acq_rel
	nop
	lsr	w0, w0, 31
	and	w0, w0, 255
	cmp	w0, 0
	beq	.L123
	ldr	x0, [sp, 120]
	bl	_ZNSt28__atomic_futex_unsigned_base19_M_futex_notify_allEPj
	b	.L123
.L118:
	ldrb	w0, [sp, 47]
	eor	w0, w0, 1
	and	w0, w0, 255
	cmp	w0, 0
	beq	.L124
	mov	w0, 2
	bl	_ZSt20__throw_future_errori
.L123:
	nop
.L124:
	nop
	adrp	x0, :got:__stack_chk_guard
	ldr	x0, [x0, #:got_lo12:__stack_chk_guard]
	ldr	x2, [sp, 152]
	ldr	x1, [x0]
	subs	x2, x2, x1
	mov	x1, 0
	beq	.L122
	bl	__stack_chk_fail
.L122:
	ldr	x19, [sp, 16]
	ldp	x29, x30, [sp], 160
	.cfi_restore 30
	.cfi_restore 29
	.cfi_restore 19
	.cfi_def_cfa_offset 0
	ret
	.cfi_endproc
.LFE3192:
	.size	_ZNSt13__future_base13_State_baseV213_M_set_resultESt8functionIFSt10unique_ptrINS_12_Result_baseENS3_8_DeleterEEvEEb, .-_ZNSt13__future_base13_State_baseV213_M_set_resultESt8functionIFSt10unique_ptrINS_12_Result_baseENS3_8_DeleterEEvEEb
	.section	.text._ZNSt13__future_base13_State_baseV216_M_break_promiseESt10unique_ptrINS_12_Result_baseENS2_8_DeleterEE,"axG",@progbits,_ZNSt13__future_base13_State_baseV216_M_break_promiseESt10unique_ptrINS_12_Result_baseENS2_8_DeleterEE,comdat
	.align	2
	.weak	_ZNSt13__future_base13_State_baseV216_M_break_promiseESt10unique_ptrINS_12_Result_baseENS2_8_DeleterEE
	.type	_ZNSt13__future_base13_State_baseV216_M_break_promiseESt10unique_ptrINS_12_Result_baseENS2_8_DeleterEE, %function
_ZNSt13__future_base13_State_baseV216_M_break_promiseESt10unique_ptrINS_12_Result_baseENS2_8_DeleterEE:
.LFB3215:
	.cfi_startproc
	stp	x29, x30, [sp, -128]!
	.cfi_def_cfa_offset 128
	.cfi_offset 29, -128
	.cfi_offset 30, -120
	mov	x29, sp
	str	x0, [sp, 24]
	str	x1, [sp, 16]
	adrp	x0, :got:__stack_chk_guard
	ldr	x0, [x0, #:got_lo12:__stack_chk_guard]
	ldr	x1, [x0]
	str	x1, [sp, 120]
	mov	x1, 0
	ldr	x0, [sp, 16]
	bl	_ZNKSt10unique_ptrINSt13__future_base12_Result_baseENS1_8_DeleterEEcvbEv
	and	w0, w0, 255
	cmp	w0, 0
	beq	.L130
	add	x0, sp, 88
	mov	w1, 4
	bl	_ZNSt12future_errorC1ESt11future_errc
	add	x0, sp, 88
	add	x1, sp, 56
	mov	x8, x1
	bl	_ZSt18make_exception_ptrISt12future_errorENSt15__exception_ptr13exception_ptrET_
	ldr	x0, [sp, 16]
	bl	_ZNKSt10unique_ptrINSt13__future_base12_Result_baseENS1_8_DeleterEEptEv
	add	x0, x0, 8
	add	x1, sp, 56
	bl	_ZNSt15__exception_ptr13exception_ptraSEOS0_
	add	x0, sp, 56
	bl	_ZNSt15__exception_ptr13exception_ptrD1Ev
	add	x0, sp, 88
	bl	_ZNSt12future_errorD1Ev
	ldr	x0, [sp, 24]
	add	x0, x0, 8
	ldr	x1, [sp, 16]
	bl	_ZNSt10unique_ptrINSt13__future_base12_Result_baseENS1_8_DeleterEE4swapERS3_
	ldr	x0, [sp, 24]
	add	x0, x0, 16
	str	x0, [sp, 64]
	mov	w0, 1
	str	w0, [sp, 40]
	mov	w0, 3
	str	w0, [sp, 44]
	ldr	x0, [sp, 64]
	str	x0, [sp, 72]
	ldr	x0, [sp, 64]
	str	x0, [sp, 80]
	ldr	w0, [sp, 40]
	str	w0, [sp, 48]
	ldr	w0, [sp, 44]
	str	w0, [sp, 52]
	ldr	x1, [sp, 80]
	ldr	w0, [sp, 48]
	bl	__aarch64_swp4_acq_rel
	nop
	lsr	w0, w0, 31
	and	w0, w0, 255
	cmp	w0, 0
	beq	.L131
	ldr	x0, [sp, 72]
	bl	_ZNSt28__atomic_futex_unsigned_base19_M_futex_notify_allEPj
.L131:
	nop
.L130:
	nop
	adrp	x0, :got:__stack_chk_guard
	ldr	x0, [x0, #:got_lo12:__stack_chk_guard]
	ldr	x2, [sp, 120]
	ldr	x1, [x0]
	subs	x2, x2, x1
	mov	x1, 0
	beq	.L129
	bl	__stack_chk_fail
.L129:
	ldp	x29, x30, [sp], 128
	.cfi_restore 30
	.cfi_restore 29
	.cfi_def_cfa_offset 0
	ret
	.cfi_endproc
.LFE3215:
	.size	_ZNSt13__future_base13_State_baseV216_M_break_promiseESt10unique_ptrINS_12_Result_baseENS2_8_DeleterEE, .-_ZNSt13__future_base13_State_baseV216_M_break_promiseESt10unique_ptrINS_12_Result_baseENS2_8_DeleterEE
	.global	__aarch64_swp1_acq_rel
	.section	.text._ZNSt13__future_base13_State_baseV221_M_set_retrieved_flagEv,"axG",@progbits,_ZNSt13__future_base13_State_baseV221_M_set_retrieved_flagEv,comdat
	.align	2
	.weak	_ZNSt13__future_base13_State_baseV221_M_set_retrieved_flagEv
	.type	_ZNSt13__future_base13_State_baseV221_M_set_retrieved_flagEv, %function
_ZNSt13__future_base13_State_baseV221_M_set_retrieved_flagEv:
.LFB3216:
	.cfi_startproc
	stp	x29, x30, [sp, -48]!
	.cfi_def_cfa_offset 48
	.cfi_offset 29, -48
	.cfi_offset 30, -40
	mov	x29, sp
	str	x0, [sp, 24]
	ldr	x0, [sp, 24]
	add	x0, x0, 20
	str	x0, [sp, 40]
	mov	w0, 5
	str	w0, [sp, 36]
	ldr	x1, [sp, 40]
	mov	w0, 1
	bl	__aarch64_swp1_acq_rel
	and	w0, w0, 255
	nop
	cmp	w0, 0
	beq	.L135
	mov	w0, 1
	bl	_ZSt20__throw_future_errori
.L135:
	nop
	ldp	x29, x30, [sp], 48
	.cfi_restore 30
	.cfi_restore 29
	.cfi_def_cfa_offset 0
	ret
	.cfi_endproc
.LFE3216:
	.size	_ZNSt13__future_base13_State_baseV221_M_set_retrieved_flagEv, .-_ZNSt13__future_base13_State_baseV221_M_set_retrieved_flagEv
	.section	.text._ZNSt13__future_base13_State_baseV29_M_do_setEPSt8functionIFSt10unique_ptrINS_12_Result_baseENS3_8_DeleterEEvEEPb,"axG",@progbits,_ZNSt13__future_base13_State_baseV29_M_do_setEPSt8functionIFSt10unique_ptrINS_12_Result_baseENS3_8_DeleterEEvEEPb,comdat
	.align	2
	.weak	_ZNSt13__future_base13_State_baseV29_M_do_setEPSt8functionIFSt10unique_ptrINS_12_Result_baseENS3_8_DeleterEEvEEPb
	.type	_ZNSt13__future_base13_State_baseV29_M_do_setEPSt8functionIFSt10unique_ptrINS_12_Result_baseENS3_8_DeleterEEvEEPb, %function
_ZNSt13__future_base13_State_baseV29_M_do_setEPSt8functionIFSt10unique_ptrINS_12_Result_baseENS3_8_DeleterEEvEEPb:
.LFB3225:
	.cfi_startproc
	stp	x29, x30, [sp, -64]!
	.cfi_def_cfa_offset 64
	.cfi_offset 29, -64
	.cfi_offset 30, -56
	mov	x29, sp
	str	x0, [sp, 40]
	str	x1, [sp, 32]
	str	x2, [sp, 24]
	adrp	x0, :got:__stack_chk_guard
	ldr	x0, [x0, #:got_lo12:__stack_chk_guard]
	ldr	x1, [x0]
	str	x1, [sp, 56]
	mov	x1, 0
	add	x0, sp, 48
	mov	x8, x0
	ldr	x0, [sp, 32]
	bl	_ZNKSt8functionIFSt10unique_ptrINSt13__future_base12_Result_baseENS2_8_DeleterEEvEEclEv
	ldr	x0, [sp, 24]
	mov	w1, 1
	strb	w1, [x0]
	ldr	x0, [sp, 40]
	add	x0, x0, 8
	add	x1, sp, 48
	bl	_ZNSt10unique_ptrINSt13__future_base12_Result_baseENS1_8_DeleterEE4swapERS3_
	add	x0, sp, 48
	bl	_ZNSt10unique_ptrINSt13__future_base12_Result_baseENS1_8_DeleterEED1Ev
	adrp	x0, :got:__stack_chk_guard
	ldr	x0, [x0, #:got_lo12:__stack_chk_guard]
	ldr	x2, [sp, 56]
	ldr	x1, [x0]
	subs	x2, x2, x1
	mov	x1, 0
	beq	.L137
	bl	__stack_chk_fail
.L137:
	ldp	x29, x30, [sp], 64
	.cfi_restore 30
	.cfi_restore 29
	.cfi_def_cfa_offset 0
	ret
	.cfi_endproc
.LFE3225:
	.size	_ZNSt13__future_base13_State_baseV29_M_do_setEPSt8functionIFSt10unique_ptrINS_12_Result_baseENS3_8_DeleterEEvEEPb, .-_ZNSt13__future_base13_State_baseV29_M_do_setEPSt8functionIFSt10unique_ptrINS_12_Result_baseENS3_8_DeleterEEvEEPb
	.section	.text._ZNSt13__future_base13_State_baseV217_M_complete_asyncEv,"axG",@progbits,_ZNSt13__future_base13_State_baseV217_M_complete_asyncEv,comdat
	.align	2
	.weak	_ZNSt13__future_base13_State_baseV217_M_complete_asyncEv
	.type	_ZNSt13__future_base13_State_baseV217_M_complete_asyncEv, %function
_ZNSt13__future_base13_State_baseV217_M_complete_asyncEv:
.LFB3226:
	.cfi_startproc
	sub	sp, sp, #16
	.cfi_def_cfa_offset 16
	str	x0, [sp, 8]
	nop
	add	sp, sp, 16
	.cfi_def_cfa_offset 0
	ret
	.cfi_endproc
.LFE3226:
	.size	_ZNSt13__future_base13_State_baseV217_M_complete_asyncEv, .-_ZNSt13__future_base13_State_baseV217_M_complete_asyncEv
	.section	.text._ZNKSt13__future_base13_State_baseV221_M_is_deferred_futureEv,"axG",@progbits,_ZNKSt13__future_base13_State_baseV221_M_is_deferred_futureEv,comdat
	.align	2
	.weak	_ZNKSt13__future_base13_State_baseV221_M_is_deferred_futureEv
	.type	_ZNKSt13__future_base13_State_baseV221_M_is_deferred_futureEv, %function
_ZNKSt13__future_base13_State_baseV221_M_is_deferred_futureEv:
.LFB3227:
	.cfi_startproc
	sub	sp, sp, #16
	.cfi_def_cfa_offset 16
	str	x0, [sp, 8]
	mov	w0, 0
	add	sp, sp, 16
	.cfi_def_cfa_offset 0
	ret
	.cfi_endproc
.LFE3227:
	.size	_ZNKSt13__future_base13_State_baseV221_M_is_deferred_futureEv, .-_ZNKSt13__future_base13_State_baseV221_M_is_deferred_futureEv
	.section	.text._ZNSt13__future_base7_ResultIvE10_M_destroyEv,"axG",@progbits,_ZNSt13__future_base7_ResultIvE10_M_destroyEv,comdat
	.align	2
	.weak	_ZNSt13__future_base7_ResultIvE10_M_destroyEv
	.type	_ZNSt13__future_base7_ResultIvE10_M_destroyEv, %function
_ZNSt13__future_base7_ResultIvE10_M_destroyEv:
.LFB3233:
	.cfi_startproc
	stp	x29, x30, [sp, -32]!
	.cfi_def_cfa_offset 32
	.cfi_offset 29, -32
	.cfi_offset 30, -24
	mov	x29, sp
	str	x0, [sp, 24]
	ldr	x0, [sp, 24]
	cmp	x0, 0
	beq	.L143
	ldr	x0, [sp, 24]
	ldr	x0, [x0]
	add	x0, x0, 16
	ldr	x1, [x0]
	ldr	x0, [sp, 24]
	blr	x1
.L143:
	nop
	ldp	x29, x30, [sp], 32
	.cfi_restore 30
	.cfi_restore 29
	.cfi_def_cfa_offset 0
	ret
	.cfi_endproc
.LFE3233:
	.size	_ZNSt13__future_base7_ResultIvE10_M_destroyEv, .-_ZNSt13__future_base7_ResultIvE10_M_destroyEv
	.section	.text._ZNSt12__shared_ptrINSt13__future_base13_State_baseV2ELN9__gnu_cxx12_Lock_policyE2EED2Ev,"axG",@progbits,_ZNSt12__shared_ptrINSt13__future_base13_State_baseV2ELN9__gnu_cxx12_Lock_policyE2EED5Ev,comdat
	.align	2
	.weak	_ZNSt12__shared_ptrINSt13__future_base13_State_baseV2ELN9__gnu_cxx12_Lock_policyE2EED2Ev
	.type	_ZNSt12__shared_ptrINSt13__future_base13_State_baseV2ELN9__gnu_cxx12_Lock_policyE2EED2Ev, %function
_ZNSt12__shared_ptrINSt13__future_base13_State_baseV2ELN9__gnu_cxx12_Lock_policyE2EED2Ev:
.LFB3258:
	.cfi_startproc
	stp	x29, x30, [sp, -32]!
	.cfi_def_cfa_offset 32
	.cfi_offset 29, -32
	.cfi_offset 30, -24
	mov	x29, sp
	str	x0, [sp, 24]
	ldr	x0, [sp, 24]
	add	x0, x0, 8
	bl	_ZNSt14__shared_countILN9__gnu_cxx12_Lock_policyE2EED1Ev
	nop
	ldp	x29, x30, [sp], 32
	.cfi_restore 30
	.cfi_restore 29
	.cfi_def_cfa_offset 0
	ret
	.cfi_endproc
.LFE3258:
	.size	_ZNSt12__shared_ptrINSt13__future_base13_State_baseV2ELN9__gnu_cxx12_Lock_policyE2EED2Ev, .-_ZNSt12__shared_ptrINSt13__future_base13_State_baseV2ELN9__gnu_cxx12_Lock_policyE2EED2Ev
	.weak	_ZNSt12__shared_ptrINSt13__future_base13_State_baseV2ELN9__gnu_cxx12_Lock_policyE2EED1Ev
	.set	_ZNSt12__shared_ptrINSt13__future_base13_State_baseV2ELN9__gnu_cxx12_Lock_policyE2EED1Ev,_ZNSt12__shared_ptrINSt13__future_base13_State_baseV2ELN9__gnu_cxx12_Lock_policyE2EED2Ev
	.section	.text._ZNSt10shared_ptrINSt13__future_base13_State_baseV2EED2Ev,"axG",@progbits,_ZNSt10shared_ptrINSt13__future_base13_State_baseV2EED5Ev,comdat
	.align	2
	.weak	_ZNSt10shared_ptrINSt13__future_base13_State_baseV2EED2Ev
	.type	_ZNSt10shared_ptrINSt13__future_base13_State_baseV2EED2Ev, %function
_ZNSt10shared_ptrINSt13__future_base13_State_baseV2EED2Ev:
.LFB3260:
	.cfi_startproc
	stp	x29, x30, [sp, -32]!
	.cfi_def_cfa_offset 32
	.cfi_offset 29, -32
	.cfi_offset 30, -24
	mov	x29, sp
	str	x0, [sp, 24]
	ldr	x0, [sp, 24]
	bl	_ZNSt12__shared_ptrINSt13__future_base13_State_baseV2ELN9__gnu_cxx12_Lock_policyE2EED2Ev
	nop
	ldp	x29, x30, [sp], 32
	.cfi_restore 30
	.cfi_restore 29
	.cfi_def_cfa_offset 0
	ret
	.cfi_endproc
.LFE3260:
	.size	_ZNSt10shared_ptrINSt13__future_base13_State_baseV2EED2Ev, .-_ZNSt10shared_ptrINSt13__future_base13_State_baseV2EED2Ev
	.weak	_ZNSt10shared_ptrINSt13__future_base13_State_baseV2EED1Ev
	.set	_ZNSt10shared_ptrINSt13__future_base13_State_baseV2EED1Ev,_ZNSt10shared_ptrINSt13__future_base13_State_baseV2EED2Ev
	.section	.text._ZNSt14__basic_futureIvED2Ev,"axG",@progbits,_ZNSt14__basic_futureIvED5Ev,comdat
	.align	2
	.weak	_ZNSt14__basic_futureIvED2Ev
	.type	_ZNSt14__basic_futureIvED2Ev, %function
_ZNSt14__basic_futureIvED2Ev:
.LFB3262:
	.cfi_startproc
	stp	x29, x30, [sp, -32]!
	.cfi_def_cfa_offset 32
	.cfi_offset 29, -32
	.cfi_offset 30, -24
	mov	x29, sp
	str	x0, [sp, 24]
	ldr	x0, [sp, 24]
	bl	_ZNSt10shared_ptrINSt13__future_base13_State_baseV2EED1Ev
	nop
	ldp	x29, x30, [sp], 32
	.cfi_restore 30
	.cfi_restore 29
	.cfi_def_cfa_offset 0
	ret
	.cfi_endproc
.LFE3262:
	.size	_ZNSt14__basic_futureIvED2Ev, .-_ZNSt14__basic_futureIvED2Ev
	.weak	_ZNSt14__basic_futureIvED1Ev
	.set	_ZNSt14__basic_futureIvED1Ev,_ZNSt14__basic_futureIvED2Ev
	.section	.text._ZNSt6futureIvEC2ERKSt10shared_ptrINSt13__future_base13_State_baseV2EE,"axG",@progbits,_ZNSt6futureIvEC5ERKSt10shared_ptrINSt13__future_base13_State_baseV2EE,comdat
	.align	2
	.weak	_ZNSt6futureIvEC2ERKSt10shared_ptrINSt13__future_base13_State_baseV2EE
	.type	_ZNSt6futureIvEC2ERKSt10shared_ptrINSt13__future_base13_State_baseV2EE, %function
_ZNSt6futureIvEC2ERKSt10shared_ptrINSt13__future_base13_State_baseV2EE:
.LFB3264:
	.cfi_startproc
	stp	x29, x30, [sp, -32]!
	.cfi_def_cfa_offset 32
	.cfi_offset 29, -32
	.cfi_offset 30, -24
	mov	x29, sp
	str	x0, [sp, 24]
	str	x1, [sp, 16]
	ldr	x0, [sp, 24]
	ldr	x1, [sp, 16]
	bl	_ZNSt14__basic_futureIvEC2ERKSt10shared_ptrINSt13__future_base13_State_baseV2EE
	nop
	ldp	x29, x30, [sp], 32
	.cfi_restore 30
	.cfi_restore 29
	.cfi_def_cfa_offset 0
	ret
	.cfi_endproc
.LFE3264:
	.size	_ZNSt6futureIvEC2ERKSt10shared_ptrINSt13__future_base13_State_baseV2EE, .-_ZNSt6futureIvEC2ERKSt10shared_ptrINSt13__future_base13_State_baseV2EE
	.weak	_ZNSt6futureIvEC1ERKSt10shared_ptrINSt13__future_base13_State_baseV2EE
	.set	_ZNSt6futureIvEC1ERKSt10shared_ptrINSt13__future_base13_State_baseV2EE,_ZNSt6futureIvEC2ERKSt10shared_ptrINSt13__future_base13_State_baseV2EE
	.section	.text._ZNSt6futureIvED2Ev,"axG",@progbits,_ZNSt6futureIvED5Ev,comdat
	.align	2
	.weak	_ZNSt6futureIvED2Ev
	.type	_ZNSt6futureIvED2Ev, %function
_ZNSt6futureIvED2Ev:
.LFB3274:
	.cfi_startproc
	stp	x29, x30, [sp, -32]!
	.cfi_def_cfa_offset 32
	.cfi_offset 29, -32
	.cfi_offset 30, -24
	mov	x29, sp
	str	x0, [sp, 24]
	ldr	x0, [sp, 24]
	bl	_ZNSt14__basic_futureIvED2Ev
	nop
	ldp	x29, x30, [sp], 32
	.cfi_restore 30
	.cfi_restore 29
	.cfi_def_cfa_offset 0
	ret
	.cfi_endproc
.LFE3274:
	.size	_ZNSt6futureIvED2Ev, .-_ZNSt6futureIvED2Ev
	.weak	_ZNSt6futureIvED1Ev
	.set	_ZNSt6futureIvED1Ev,_ZNSt6futureIvED2Ev
	.section	.text._ZNSt6futureIvE3getEv,"axG",@progbits,_ZNSt6futureIvE3getEv,comdat
	.align	2
	.weak	_ZNSt6futureIvE3getEv
	.type	_ZNSt6futureIvE3getEv, %function
_ZNSt6futureIvE3getEv:
.LFB3276:
	.cfi_startproc
	.cfi_personality 0x9b,DW.ref.__gxx_personality_v0
	.cfi_lsda 0x1b,.LLSDA3276
	stp	x29, x30, [sp, -64]!
	.cfi_def_cfa_offset 64
	.cfi_offset 29, -64
	.cfi_offset 30, -56
	mov	x29, sp
	str	x19, [sp, 16]
	.cfi_offset 19, -48
	str	x0, [sp, 40]
	adrp	x0, :got:__stack_chk_guard
	ldr	x0, [x0, #:got_lo12:__stack_chk_guard]
	ldr	x1, [x0]
	str	x1, [sp, 56]
	mov	x1, 0
	ldr	x1, [sp, 40]
	add	x0, sp, 48
	bl	_ZNSt14__basic_futureIvE6_ResetC1ERS0_
	ldr	x0, [sp, 40]
.LEHB4:
	bl	_ZNKSt14__basic_futureIvE13_M_get_resultEv
.LEHE4:
	add	x0, sp, 48
	bl	_ZNSt14__basic_futureIvE6_ResetD1Ev
	adrp	x0, :got:__stack_chk_guard
	ldr	x0, [x0, #:got_lo12:__stack_chk_guard]
	ldr	x2, [sp, 56]
	ldr	x1, [x0]
	subs	x2, x2, x1
	mov	x1, 0
	beq	.L151
	b	.L153
.L152:
	mov	x19, x0
	add	x0, sp, 48
	bl	_ZNSt14__basic_futureIvE6_ResetD1Ev
	mov	x0, x19
.LEHB5:
	bl	_Unwind_Resume
.LEHE5:
.L153:
	bl	__stack_chk_fail
.L151:
	ldr	x19, [sp, 16]
	ldp	x29, x30, [sp], 64
	.cfi_restore 30
	.cfi_restore 29
	.cfi_restore 19
	.cfi_def_cfa_offset 0
	ret
	.cfi_endproc
.LFE3276:
	.section	.gcc_except_table._ZNSt6futureIvE3getEv,"aG",@progbits,_ZNSt6futureIvE3getEv,comdat
.LLSDA3276:
	.byte	0xff
	.byte	0xff
	.byte	0x1
	.uleb128 .LLSDACSE3276-.LLSDACSB3276
.LLSDACSB3276:
	.uleb128 .LEHB4-.LFB3276
	.uleb128 .LEHE4-.LEHB4
	.uleb128 .L152-.LFB3276
	.uleb128 0
	.uleb128 .LEHB5-.LFB3276
	.uleb128 .LEHE5-.LEHB5
	.uleb128 0
	.uleb128 0
.LLSDACSE3276:
	.section	.text._ZNSt6futureIvE3getEv,"axG",@progbits,_ZNSt6futureIvE3getEv,comdat
	.size	_ZNSt6futureIvE3getEv, .-_ZNSt6futureIvE3getEv
	.section	.text._ZNSt13__future_base7_ResultIvEC2Ev,"axG",@progbits,_ZNSt13__future_base7_ResultIvEC5Ev,comdat
	.align	2
	.weak	_ZNSt13__future_base7_ResultIvEC2Ev
	.type	_ZNSt13__future_base7_ResultIvEC2Ev, %function
_ZNSt13__future_base7_ResultIvEC2Ev:
.LFB3352:
	.cfi_startproc
	stp	x29, x30, [sp, -32]!
	.cfi_def_cfa_offset 32
	.cfi_offset 29, -32
	.cfi_offset 30, -24
	mov	x29, sp
	str	x0, [sp, 24]
	ldr	x0, [sp, 24]
	bl	_ZNSt13__future_base12_Result_baseC2Ev
	adrp	x0, _ZTVNSt13__future_base7_ResultIvEE+16
	add	x1, x0, :lo12:_ZTVNSt13__future_base7_ResultIvEE+16
	ldr	x0, [sp, 24]
	str	x1, [x0]
	nop
	ldp	x29, x30, [sp], 32
	.cfi_restore 30
	.cfi_restore 29
	.cfi_def_cfa_offset 0
	ret
	.cfi_endproc
.LFE3352:
	.size	_ZNSt13__future_base7_ResultIvEC2Ev, .-_ZNSt13__future_base7_ResultIvEC2Ev
	.weak	_ZNSt13__future_base7_ResultIvEC1Ev
	.set	_ZNSt13__future_base7_ResultIvEC1Ev,_ZNSt13__future_base7_ResultIvEC2Ev
	.section	.text._ZNSt15__uniq_ptr_dataINSt13__future_base7_ResultIvEENS0_12_Result_base8_DeleterELb1ELb1EEC2EOS5_,"axG",@progbits,_ZNSt15__uniq_ptr_dataINSt13__future_base7_ResultIvEENS0_12_Result_base8_DeleterELb1ELb1EEC5EOS5_,comdat
	.align	2
	.weak	_ZNSt15__uniq_ptr_dataINSt13__future_base7_ResultIvEENS0_12_Result_base8_DeleterELb1ELb1EEC2EOS5_
	.type	_ZNSt15__uniq_ptr_dataINSt13__future_base7_ResultIvEENS0_12_Result_base8_DeleterELb1ELb1EEC2EOS5_, %function
_ZNSt15__uniq_ptr_dataINSt13__future_base7_ResultIvEENS0_12_Result_base8_DeleterELb1ELb1EEC2EOS5_:
.LFB3359:
	.cfi_startproc
	stp	x29, x30, [sp, -32]!
	.cfi_def_cfa_offset 32
	.cfi_offset 29, -32
	.cfi_offset 30, -24
	mov	x29, sp
	str	x0, [sp, 24]
	str	x1, [sp, 16]
	ldr	x0, [sp, 24]
	ldr	x1, [sp, 16]
	bl	_ZNSt15__uniq_ptr_implINSt13__future_base7_ResultIvEENS0_12_Result_base8_DeleterEEC2EOS5_
	nop
	ldp	x29, x30, [sp], 32
	.cfi_restore 30
	.cfi_restore 29
	.cfi_def_cfa_offset 0
	ret
	.cfi_endproc
.LFE3359:
	.size	_ZNSt15__uniq_ptr_dataINSt13__future_base7_ResultIvEENS0_12_Result_base8_DeleterELb1ELb1EEC2EOS5_, .-_ZNSt15__uniq_ptr_dataINSt13__future_base7_ResultIvEENS0_12_Result_base8_DeleterELb1ELb1EEC2EOS5_
	.weak	_ZNSt15__uniq_ptr_dataINSt13__future_base7_ResultIvEENS0_12_Result_base8_DeleterELb1ELb1EEC1EOS5_
	.set	_ZNSt15__uniq_ptr_dataINSt13__future_base7_ResultIvEENS0_12_Result_base8_DeleterELb1ELb1EEC1EOS5_,_ZNSt15__uniq_ptr_dataINSt13__future_base7_ResultIvEENS0_12_Result_base8_DeleterELb1ELb1EEC2EOS5_
	.section	.text._ZNSt10unique_ptrINSt13__future_base7_ResultIvEENS0_12_Result_base8_DeleterEEC2EOS5_,"axG",@progbits,_ZNSt10unique_ptrINSt13__future_base7_ResultIvEENS0_12_Result_base8_DeleterEEC5EOS5_,comdat
	.align	2
	.weak	_ZNSt10unique_ptrINSt13__future_base7_ResultIvEENS0_12_Result_base8_DeleterEEC2EOS5_
	.type	_ZNSt10unique_ptrINSt13__future_base7_ResultIvEENS0_12_Result_base8_DeleterEEC2EOS5_, %function
_ZNSt10unique_ptrINSt13__future_base7_ResultIvEENS0_12_Result_base8_DeleterEEC2EOS5_:
.LFB3361:
	.cfi_startproc
	stp	x29, x30, [sp, -32]!
	.cfi_def_cfa_offset 32
	.cfi_offset 29, -32
	.cfi_offset 30, -24
	mov	x29, sp
	str	x0, [sp, 24]
	str	x1, [sp, 16]
	ldr	x0, [sp, 24]
	ldr	x1, [sp, 16]
	bl	_ZNSt15__uniq_ptr_dataINSt13__future_base7_ResultIvEENS0_12_Result_base8_DeleterELb1ELb1EEC1EOS5_
	nop
	ldp	x29, x30, [sp], 32
	.cfi_restore 30
	.cfi_restore 29
	.cfi_def_cfa_offset 0
	ret
	.cfi_endproc
.LFE3361:
	.size	_ZNSt10unique_ptrINSt13__future_base7_ResultIvEENS0_12_Result_base8_DeleterEEC2EOS5_, .-_ZNSt10unique_ptrINSt13__future_base7_ResultIvEENS0_12_Result_base8_DeleterEEC2EOS5_
	.weak	_ZNSt10unique_ptrINSt13__future_base7_ResultIvEENS0_12_Result_base8_DeleterEEC1EOS5_
	.set	_ZNSt10unique_ptrINSt13__future_base7_ResultIvEENS0_12_Result_base8_DeleterEEC1EOS5_,_ZNSt10unique_ptrINSt13__future_base7_ResultIvEENS0_12_Result_base8_DeleterEEC2EOS5_
	.section	.text._ZNSt8functionIFSt10unique_ptrINSt13__future_base12_Result_baseENS2_8_DeleterEEvEED2Ev,"axG",@progbits,_ZNSt8functionIFSt10unique_ptrINSt13__future_base12_Result_baseENS2_8_DeleterEEvEED5Ev,comdat
	.align	2
	.weak	_ZNSt8functionIFSt10unique_ptrINSt13__future_base12_Result_baseENS2_8_DeleterEEvEED2Ev
	.type	_ZNSt8functionIFSt10unique_ptrINSt13__future_base12_Result_baseENS2_8_DeleterEEvEED2Ev, %function
_ZNSt8functionIFSt10unique_ptrINSt13__future_base12_Result_baseENS2_8_DeleterEEvEED2Ev:
.LFB3377:
	.cfi_startproc
	stp	x29, x30, [sp, -32]!
	.cfi_def_cfa_offset 32
	.cfi_offset 29, -32
	.cfi_offset 30, -24
	mov	x29, sp
	str	x0, [sp, 24]
	ldr	x0, [sp, 24]
	bl	_ZNSt14_Function_baseD2Ev
	nop
	ldp	x29, x30, [sp], 32
	.cfi_restore 30
	.cfi_restore 29
	.cfi_def_cfa_offset 0
	ret
	.cfi_endproc
.LFE3377:
	.size	_ZNSt8functionIFSt10unique_ptrINSt13__future_base12_Result_baseENS2_8_DeleterEEvEED2Ev, .-_ZNSt8functionIFSt10unique_ptrINSt13__future_base12_Result_baseENS2_8_DeleterEEvEED2Ev
	.weak	_ZNSt8functionIFSt10unique_ptrINSt13__future_base12_Result_baseENS2_8_DeleterEEvEED1Ev
	.set	_ZNSt8functionIFSt10unique_ptrINSt13__future_base12_Result_baseENS2_8_DeleterEEvEED1Ev,_ZNSt8functionIFSt10unique_ptrINSt13__future_base12_Result_baseENS2_8_DeleterEEvEED2Ev
	.section	.text._ZNSt13__future_base21_Async_state_commonV217_M_complete_asyncEv,"axG",@progbits,_ZNSt13__future_base21_Async_state_commonV217_M_complete_asyncEv,comdat
	.align	2
	.weak	_ZNSt13__future_base21_Async_state_commonV217_M_complete_asyncEv
	.type	_ZNSt13__future_base21_Async_state_commonV217_M_complete_asyncEv, %function
_ZNSt13__future_base21_Async_state_commonV217_M_complete_asyncEv:
.LFB3412:
	.cfi_startproc
	stp	x29, x30, [sp, -32]!
	.cfi_def_cfa_offset 32
	.cfi_offset 29, -32
	.cfi_offset 30, -24
	mov	x29, sp
	str	x0, [sp, 24]
	ldr	x0, [sp, 24]
	bl	_ZNSt13__future_base21_Async_state_commonV27_M_joinEv
	nop
	ldp	x29, x30, [sp], 32
	.cfi_restore 30
	.cfi_restore 29
	.cfi_def_cfa_offset 0
	ret
	.cfi_endproc
.LFE3412:
	.size	_ZNSt13__future_base21_Async_state_commonV217_M_complete_asyncEv, .-_ZNSt13__future_base21_Async_state_commonV217_M_complete_asyncEv
	.section	.text._ZNSt13__future_base21_Async_state_commonV27_M_joinEv,"axG",@progbits,_ZNSt13__future_base21_Async_state_commonV27_M_joinEv,comdat
	.align	2
	.weak	_ZNSt13__future_base21_Async_state_commonV27_M_joinEv
	.type	_ZNSt13__future_base21_Async_state_commonV27_M_joinEv, %function
_ZNSt13__future_base21_Async_state_commonV27_M_joinEv:
.LFB3413:
	.cfi_startproc
	stp	x29, x30, [sp, -64]!
	.cfi_def_cfa_offset 64
	.cfi_offset 29, -64
	.cfi_offset 30, -56
	mov	x29, sp
	str	x0, [sp, 24]
	adrp	x0, :got:__stack_chk_guard
	ldr	x0, [x0, #:got_lo12:__stack_chk_guard]
	ldr	x1, [x0]
	str	x1, [sp, 56]
	mov	x1, 0
	ldr	x0, [sp, 24]
	add	x4, x0, 40
	adrp	x0, :got:_ZNSt6thread4joinEv
	ldr	x2, [x0, #:got_lo12:_ZNSt6thread4joinEv]
	mov	x3, 0
	stp	x2, x3, [sp, 40]
	ldr	x0, [sp, 24]
	add	x0, x0, 32
	str	x0, [sp, 32]
	add	x1, sp, 32
	add	x0, sp, 40
	mov	x2, x1
	mov	x1, x0
	mov	x0, x4
	bl	_ZSt9call_onceIMSt6threadFvvEJPS0_EEvRSt9once_flagOT_DpOT0_
	nop
	adrp	x0, :got:__stack_chk_guard
	ldr	x0, [x0, #:got_lo12:__stack_chk_guard]
	ldr	x2, [sp, 56]
	ldr	x1, [x0]
	subs	x2, x2, x1
	mov	x1, 0
	beq	.L160
	bl	__stack_chk_fail
.L160:
	ldp	x29, x30, [sp], 64
	.cfi_restore 30
	.cfi_restore 29
	.cfi_def_cfa_offset 0
	ret
	.cfi_endproc
.LFE3413:
	.size	_ZNSt13__future_base21_Async_state_commonV27_M_joinEv, .-_ZNSt13__future_base21_Async_state_commonV27_M_joinEv
	.section	.rodata
	.align	3
.LC1:
	.string	"2"
	.text
	.align	2
	.type	_ZZ4testvENKUlvE_clEv, %function
_ZZ4testvENKUlvE_clEv:
.LFB3428:
	.cfi_startproc
	stp	x29, x30, [sp, -32]!
	.cfi_def_cfa_offset 32
	.cfi_offset 29, -32
	.cfi_offset 30, -24
	mov	x29, sp
	str	x0, [sp, 24]
	adrp	x0, .LC1
	add	x1, x0, :lo12:.LC1
	adrp	x0, :got:_ZSt4cout
	ldr	x0, [x0, #:got_lo12:_ZSt4cout]
	bl	_ZStlsISt11char_traitsIcEERSt13basic_ostreamIcT_ES5_PKc
	mov	x2, x0
	adrp	x0, :got:_ZSt4endlIcSt11char_traitsIcEERSt13basic_ostreamIT_T0_ES6_
	ldr	x1, [x0, #:got_lo12:_ZSt4endlIcSt11char_traitsIcEERSt13basic_ostreamIT_T0_ES6_]
	mov	x0, x2
	bl	_ZNSolsEPFRSoS_E
	nop
	ldp	x29, x30, [sp], 32
	.cfi_restore 30
	.cfi_restore 29
	.cfi_def_cfa_offset 0
	ret
	.cfi_endproc
.LFE3428:
	.size	_ZZ4testvENKUlvE_clEv, .-_ZZ4testvENKUlvE_clEv
	.section	.rodata
	.align	3
.LC2:
	.string	"start"
	.text
	.align	2
	.global	_Z4testv
	.type	_Z4testv, %function
_Z4testv:
.LFB3427:
	.cfi_startproc
	.cfi_personality 0x9b,DW.ref.__gxx_personality_v0
	.cfi_lsda 0x1b,.LLSDA3427
	stp	x29, x30, [sp, -80]!
	.cfi_def_cfa_offset 80
	.cfi_offset 29, -80
	.cfi_offset 30, -72
	mov	x29, sp
	str	x19, [sp, 16]
	.cfi_offset 19, -64
	adrp	x0, :got:__stack_chk_guard
	ldr	x0, [x0, #:got_lo12:__stack_chk_guard]
	ldr	x1, [x0]
	str	x1, [sp, 72]
	mov	x1, 0
	add	x0, sp, 48
	add	x1, sp, 56
	mov	x8, x1
.LEHB6:
	bl	_ZSt5asyncIZ4testvEUlvE_JEESt6futureINSt15__invoke_resultINSt5decayIT_E4typeEJDpNS3_IT0_E4typeEEE4typeEEOS4_DpOS7_
.LEHE6:
	mov	w0, 1
	str	w0, [sp, 44]
	add	x1, sp, 44
	add	x0, sp, 48
	bl	_ZNSt6chrono8durationIlSt5ratioILl1ELl1EEEC1IivEERKT_
	add	x0, sp, 48
.LEHB7:
	bl	_ZNSt11this_thread9sleep_forIlSt5ratioILl1ELl1EEEEvRKNSt6chrono8durationIT_T0_EE
	adrp	x0, .LC2
	add	x1, x0, :lo12:.LC2
	adrp	x0, :got:_ZSt4cout
	ldr	x0, [x0, #:got_lo12:_ZSt4cout]
	bl	_ZStlsISt11char_traitsIcEERSt13basic_ostreamIcT_ES5_PKc
	mov	x2, x0
	adrp	x0, :got:_ZSt4endlIcSt11char_traitsIcEERSt13basic_ostreamIT_T0_ES6_
	ldr	x1, [x0, #:got_lo12:_ZSt4endlIcSt11char_traitsIcEERSt13basic_ostreamIT_T0_ES6_]
	mov	x0, x2
	bl	_ZNSolsEPFRSoS_E
	add	x0, sp, 56
	bl	_ZNSt6futureIvE3getEv
.LEHE7:
	add	x0, sp, 56
	bl	_ZNSt6futureIvED1Ev
	adrp	x0, :got:__stack_chk_guard
	ldr	x0, [x0, #:got_lo12:__stack_chk_guard]
	ldr	x2, [sp, 72]
	ldr	x1, [x0]
	subs	x2, x2, x1
	mov	x1, 0
	beq	.L164
	b	.L166
.L165:
	mov	x19, x0
	add	x0, sp, 56
	bl	_ZNSt6futureIvED1Ev
	mov	x0, x19
.LEHB8:
	bl	_Unwind_Resume
.LEHE8:
.L166:
	bl	__stack_chk_fail
.L164:
	ldr	x19, [sp, 16]
	ldp	x29, x30, [sp], 80
	.cfi_restore 30
	.cfi_restore 29
	.cfi_restore 19
	.cfi_def_cfa_offset 0
	ret
	.cfi_endproc
.LFE3427:
	.section	.gcc_except_table,"a",@progbits
.LLSDA3427:
	.byte	0xff
	.byte	0xff
	.byte	0x1
	.uleb128 .LLSDACSE3427-.LLSDACSB3427
.LLSDACSB3427:
	.uleb128 .LEHB6-.LFB3427
	.uleb128 .LEHE6-.LEHB6
	.uleb128 0
	.uleb128 0
	.uleb128 .LEHB7-.LFB3427
	.uleb128 .LEHE7-.LEHB7
	.uleb128 .L165-.LFB3427
	.uleb128 0
	.uleb128 .LEHB8-.LFB3427
	.uleb128 .LEHE8-.LEHB8
	.uleb128 0
	.uleb128 0
.LLSDACSE3427:
	.text
	.size	_Z4testv, .-_Z4testv
	.align	2
	.type	_ZZ6test01vENKUlvE_clEv, %function
_ZZ6test01vENKUlvE_clEv:
.LFB3432:
	.cfi_startproc
	stp	x29, x30, [sp, -48]!
	.cfi_def_cfa_offset 48
	.cfi_offset 29, -48
	.cfi_offset 30, -40
	mov	x29, sp
	str	x0, [sp, 24]
	adrp	x0, :got:__stack_chk_guard
	ldr	x0, [x0, #:got_lo12:__stack_chk_guard]
	ldr	x1, [x0]
	str	x1, [sp, 40]
	mov	x1, 0
	bl	_ZNSt8literals15chrono_literalsli1sIJLc49ELc48EEEENSt6chrono8durationIlSt5ratioILl1ELl1EEEEv
	str	x0, [sp, 32]
	add	x0, sp, 32
	bl	_ZNSt11this_thread9sleep_forIlSt5ratioILl1ELl1EEEEvRKNSt6chrono8durationIT_T0_EE
	nop
	adrp	x0, :got:__stack_chk_guard
	ldr	x0, [x0, #:got_lo12:__stack_chk_guard]
	ldr	x2, [sp, 40]
	ldr	x1, [x0]
	subs	x2, x2, x1
	mov	x1, 0
	beq	.L168
	bl	__stack_chk_fail
.L168:
	ldp	x29, x30, [sp], 48
	.cfi_restore 30
	.cfi_restore 29
	.cfi_def_cfa_offset 0
	ret
	.cfi_endproc
.LFE3432:
	.size	_ZZ6test01vENKUlvE_clEv, .-_ZZ6test01vENKUlvE_clEv
	.align	2
	.global	_Z6test01v
	.type	_Z6test01v, %function
_Z6test01v:
.LFB3431:
	.cfi_startproc
	stp	x29, x30, [sp, -48]!
	.cfi_def_cfa_offset 48
	.cfi_offset 29, -48
	.cfi_offset 30, -40
	mov	x29, sp
	adrp	x0, :got:__stack_chk_guard
	ldr	x0, [x0, #:got_lo12:__stack_chk_guard]
	ldr	x1, [x0]
	str	x1, [sp, 40]
	mov	x1, 0
	add	x0, sp, 16
	add	x1, sp, 24
	mov	x8, x1
	mov	x1, x0
	mov	w0, 1
	bl	_ZSt5asyncIZ6test01vEUlvE_JEESt6futureINSt15__invoke_resultINSt5decayIT_E4typeEJDpNS3_IT0_E4typeEEE4typeEESt6launchOS4_DpOS7_
	add	x0, sp, 24
	bl	_ZNSt6futureIvED1Ev
	adrp	x0, :got:__stack_chk_guard
	ldr	x0, [x0, #:got_lo12:__stack_chk_guard]
	ldr	x2, [sp, 40]
	ldr	x1, [x0]
	subs	x2, x2, x1
	mov	x1, 0
	beq	.L170
	bl	__stack_chk_fail
.L170:
	ldp	x29, x30, [sp], 48
	.cfi_restore 30
	.cfi_restore 29
	.cfi_def_cfa_offset 0
	ret
	.cfi_endproc
.LFE3431:
	.size	_Z6test01v, .-_Z6test01v
	.align	2
	.type	_ZZ6test02vENKUlvE_clEv, %function
_ZZ6test02vENKUlvE_clEv:
.LFB3436:
	.cfi_startproc
	stp	x29, x30, [sp, -48]!
	.cfi_def_cfa_offset 48
	.cfi_offset 29, -48
	.cfi_offset 30, -40
	mov	x29, sp
	str	x0, [sp, 24]
	adrp	x0, :got:__stack_chk_guard
	ldr	x0, [x0, #:got_lo12:__stack_chk_guard]
	ldr	x1, [x0]
	str	x1, [sp, 40]
	mov	x1, 0
	bl	_ZNSt8literals15chrono_literalsli1sIJLc49ELc48EEEENSt6chrono8durationIlSt5ratioILl1ELl1EEEEv
	str	x0, [sp, 32]
	add	x0, sp, 32
	bl	_ZNSt11this_thread9sleep_forIlSt5ratioILl1ELl1EEEEvRKNSt6chrono8durationIT_T0_EE
	nop
	adrp	x0, :got:__stack_chk_guard
	ldr	x0, [x0, #:got_lo12:__stack_chk_guard]
	ldr	x2, [sp, 40]
	ldr	x1, [x0]
	subs	x2, x2, x1
	mov	x1, 0
	beq	.L172
	bl	__stack_chk_fail
.L172:
	ldp	x29, x30, [sp], 48
	.cfi_restore 30
	.cfi_restore 29
	.cfi_def_cfa_offset 0
	ret
	.cfi_endproc
.LFE3436:
	.size	_ZZ6test02vENKUlvE_clEv, .-_ZZ6test02vENKUlvE_clEv
	.align	2
	.global	_Z6test02v
	.type	_Z6test02v, %function
_Z6test02v:
.LFB3435:
	.cfi_startproc
	stp	x29, x30, [sp, -48]!
	.cfi_def_cfa_offset 48
	.cfi_offset 29, -48
	.cfi_offset 30, -40
	mov	x29, sp
	adrp	x0, :got:__stack_chk_guard
	ldr	x0, [x0, #:got_lo12:__stack_chk_guard]
	ldr	x1, [x0]
	str	x1, [sp, 40]
	mov	x1, 0
	add	x0, sp, 16
	add	x1, sp, 24
	mov	x8, x1
	mov	x1, x0
	mov	w0, 2
	bl	_ZSt5asyncIZ6test02vEUlvE_JEESt6futureINSt15__invoke_resultINSt5decayIT_E4typeEJDpNS3_IT0_E4typeEEE4typeEESt6launchOS4_DpOS7_
	add	x0, sp, 24
	bl	_ZNSt6futureIvED1Ev
	adrp	x0, :got:__stack_chk_guard
	ldr	x0, [x0, #:got_lo12:__stack_chk_guard]
	ldr	x2, [sp, 40]
	ldr	x1, [x0]
	subs	x2, x2, x1
	mov	x1, 0
	beq	.L174
	bl	__stack_chk_fail
.L174:
	ldp	x29, x30, [sp], 48
	.cfi_restore 30
	.cfi_restore 29
	.cfi_def_cfa_offset 0
	ret
	.cfi_endproc
.LFE3435:
	.size	_Z6test02v, .-_Z6test02v
	.align	2
	.type	_ZZ6test03vENKUlvE_clEv, %function
_ZZ6test03vENKUlvE_clEv:
.LFB3440:
	.cfi_startproc
	sub	sp, sp, #16
	.cfi_def_cfa_offset 16
	str	x0, [sp, 8]
	nop
	add	sp, sp, 16
	.cfi_def_cfa_offset 0
	ret
	.cfi_endproc
.LFE3440:
	.size	_ZZ6test03vENKUlvE_clEv, .-_ZZ6test03vENKUlvE_clEv
	.align	2
	.global	_Z6test03v
	.type	_Z6test03v, %function
_Z6test03v:
.LFB3439:
	.cfi_startproc
	stp	x29, x30, [sp, -48]!
	.cfi_def_cfa_offset 48
	.cfi_offset 29, -48
	.cfi_offset 30, -40
	mov	x29, sp
	adrp	x0, :got:__stack_chk_guard
	ldr	x0, [x0, #:got_lo12:__stack_chk_guard]
	ldr	x1, [x0]
	str	x1, [sp, 40]
	mov	x1, 0
	add	x1, sp, 24
	add	x0, sp, 32
	bl	_ZNSt6threadC1IZ6test03vEUlvE_JEvEEOT_DpOT0_
	add	x0, sp, 32
	bl	_ZNSt6threadD1Ev
	adrp	x0, :got:__stack_chk_guard
	ldr	x0, [x0, #:got_lo12:__stack_chk_guard]
	ldr	x2, [sp, 40]
	ldr	x1, [x0]
	subs	x2, x2, x1
	mov	x1, 0
	beq	.L177
	bl	__stack_chk_fail
.L177:
	ldp	x29, x30, [sp], 48
	.cfi_restore 30
	.cfi_restore 29
	.cfi_def_cfa_offset 0
	ret
	.cfi_endproc
.LFE3439:
	.size	_Z6test03v, .-_Z6test03v
	.align	2
	.global	main
	.type	main, %function
main:
.LFB3443:
	.cfi_startproc
	stp	x29, x30, [sp, -32]!
	.cfi_def_cfa_offset 32
	.cfi_offset 29, -32
	.cfi_offset 30, -24
	mov	x29, sp
	str	w0, [sp, 28]
	str	x1, [sp, 16]
	bl	_Z6test03v
	mov	w0, 0
	ldp	x29, x30, [sp], 32
	.cfi_restore 30
	.cfi_restore 29
	.cfi_def_cfa_offset 0
	ret
	.cfi_endproc
.LFE3443:
	.size	main, .-main
	.section	.text._ZStplIcSt11char_traitsIcESaIcEENSt7__cxx1112basic_stringIT_T0_T1_EEPKS5_OS8_,"axG",@progbits,_ZStplIcSt11char_traitsIcESaIcEENSt7__cxx1112basic_stringIT_T0_T1_EEPKS5_OS8_,comdat
	.align	2
	.weak	_ZStplIcSt11char_traitsIcESaIcEENSt7__cxx1112basic_stringIT_T0_T1_EEPKS5_OS8_
	.type	_ZStplIcSt11char_traitsIcESaIcEENSt7__cxx1112basic_stringIT_T0_T1_EEPKS5_OS8_, %function
_ZStplIcSt11char_traitsIcESaIcEENSt7__cxx1112basic_stringIT_T0_T1_EEPKS5_OS8_:
.LFB3701:
	.cfi_startproc
	stp	x29, x30, [sp, -48]!
	.cfi_def_cfa_offset 48
	.cfi_offset 29, -48
	.cfi_offset 30, -40
	mov	x29, sp
	str	x19, [sp, 16]
	.cfi_offset 19, -32
	mov	x19, x8
	str	x0, [sp, 40]
	str	x1, [sp, 32]
	ldr	x2, [sp, 40]
	mov	x1, 0
	ldr	x0, [sp, 32]
	bl	_ZNSt7__cxx1112basic_stringIcSt11char_traitsIcESaIcEE6insertEmPKc
	bl	_ZSt4moveIRNSt7__cxx1112basic_stringIcSt11char_traitsIcESaIcEEEEONSt16remove_referenceIT_E4typeEOS8_
	mov	x1, x0
	mov	x0, x19
	bl	_ZNSt7__cxx1112basic_stringIcSt11char_traitsIcESaIcEEC1EOS4_
	mov	x0, x19
	ldr	x19, [sp, 16]
	ldp	x29, x30, [sp], 48
	.cfi_restore 30
	.cfi_restore 29
	.cfi_restore 19
	.cfi_def_cfa_offset 0
	ret
	.cfi_endproc
.LFE3701:
	.size	_ZStplIcSt11char_traitsIcESaIcEENSt7__cxx1112basic_stringIT_T0_T1_EEPKS5_OS8_, .-_ZStplIcSt11char_traitsIcESaIcEENSt7__cxx1112basic_stringIT_T0_T1_EEPKS5_OS8_
	.section	.text._ZNKSt6chrono8durationIlSt5ratioILl1ELl1EEE5countEv,"axG",@progbits,_ZNKSt6chrono8durationIlSt5ratioILl1ELl1EEE5countEv,comdat
	.align	2
	.weak	_ZNKSt6chrono8durationIlSt5ratioILl1ELl1EEE5countEv
	.type	_ZNKSt6chrono8durationIlSt5ratioILl1ELl1EEE5countEv, %function
_ZNKSt6chrono8durationIlSt5ratioILl1ELl1EEE5countEv:
.LFB3706:
	.cfi_startproc
	sub	sp, sp, #16
	.cfi_def_cfa_offset 16
	str	x0, [sp, 8]
	ldr	x0, [sp, 8]
	ldr	x0, [x0]
	add	sp, sp, 16
	.cfi_def_cfa_offset 0
	ret
	.cfi_endproc
.LFE3706:
	.size	_ZNKSt6chrono8durationIlSt5ratioILl1ELl1EEE5countEv, .-_ZNKSt6chrono8durationIlSt5ratioILl1ELl1EEE5countEv
	.section	.text._ZNSt14__shared_countILN9__gnu_cxx12_Lock_policyE2EED2Ev,"axG",@progbits,_ZNSt14__shared_countILN9__gnu_cxx12_Lock_policyE2EED5Ev,comdat
	.align	2
	.weak	_ZNSt14__shared_countILN9__gnu_cxx12_Lock_policyE2EED2Ev
	.type	_ZNSt14__shared_countILN9__gnu_cxx12_Lock_policyE2EED2Ev, %function
_ZNSt14__shared_countILN9__gnu_cxx12_Lock_policyE2EED2Ev:
.LFB3735:
	.cfi_startproc
	stp	x29, x30, [sp, -32]!
	.cfi_def_cfa_offset 32
	.cfi_offset 29, -32
	.cfi_offset 30, -24
	mov	x29, sp
	str	x0, [sp, 24]
	ldr	x0, [sp, 24]
	ldr	x0, [x0]
	cmp	x0, 0
	beq	.L186
	ldr	x0, [sp, 24]
	ldr	x0, [x0]
	bl	_ZNSt16_Sp_counted_baseILN9__gnu_cxx12_Lock_policyE2EE10_M_releaseEv
.L186:
	nop
	ldp	x29, x30, [sp], 32
	.cfi_restore 30
	.cfi_restore 29
	.cfi_def_cfa_offset 0
	ret
	.cfi_endproc
.LFE3735:
	.size	_ZNSt14__shared_countILN9__gnu_cxx12_Lock_policyE2EED2Ev, .-_ZNSt14__shared_countILN9__gnu_cxx12_Lock_policyE2EED2Ev
	.weak	_ZNSt14__shared_countILN9__gnu_cxx12_Lock_policyE2EED1Ev
	.set	_ZNSt14__shared_countILN9__gnu_cxx12_Lock_policyE2EED1Ev,_ZNSt14__shared_countILN9__gnu_cxx12_Lock_policyE2EED2Ev
	.section	.text._ZNSt13__atomic_baseIjEC2Ej,"axG",@progbits,_ZNSt13__atomic_baseIjEC5Ej,comdat
	.align	2
	.weak	_ZNSt13__atomic_baseIjEC2Ej
	.type	_ZNSt13__atomic_baseIjEC2Ej, %function
_ZNSt13__atomic_baseIjEC2Ej:
.LFB3781:
	.cfi_startproc
	sub	sp, sp, #16
	.cfi_def_cfa_offset 16
	str	x0, [sp, 8]
	str	w1, [sp, 4]
	ldr	x0, [sp, 8]
	ldr	w1, [sp, 4]
	str	w1, [x0]
	nop
	add	sp, sp, 16
	.cfi_def_cfa_offset 0
	ret
	.cfi_endproc
.LFE3781:
	.size	_ZNSt13__atomic_baseIjEC2Ej, .-_ZNSt13__atomic_baseIjEC2Ej
	.weak	_ZNSt13__atomic_baseIjEC1Ej
	.set	_ZNSt13__atomic_baseIjEC1Ej,_ZNSt13__atomic_baseIjEC2Ej
	.section	.text._ZSt4swapINSt6thread2idEENSt9enable_ifIXsrSt6__and_IJSt6__not_ISt15__is_tuple_likeIT_EESt21is_move_constructibleIS6_ESt18is_move_assignableIS6_EEE5valueEvE4typeERS6_SG_,"axG",@progbits,_ZSt4swapINSt6thread2idEENSt9enable_ifIXsrSt6__and_IJSt6__not_ISt15__is_tuple_likeIT_EESt21is_move_constructibleIS6_ESt18is_move_assignableIS6_EEE5valueEvE4typeERS6_SG_,comdat
	.align	2
	.weak	_ZSt4swapINSt6thread2idEENSt9enable_ifIXsrSt6__and_IJSt6__not_ISt15__is_tuple_likeIT_EESt21is_move_constructibleIS6_ESt18is_move_assignableIS6_EEE5valueEvE4typeERS6_SG_
	.type	_ZSt4swapINSt6thread2idEENSt9enable_ifIXsrSt6__and_IJSt6__not_ISt15__is_tuple_likeIT_EESt21is_move_constructibleIS6_ESt18is_move_assignableIS6_EEE5valueEvE4typeERS6_SG_, %function
_ZSt4swapINSt6thread2idEENSt9enable_ifIXsrSt6__and_IJSt6__not_ISt15__is_tuple_likeIT_EESt21is_move_constructibleIS6_ESt18is_move_assignableIS6_EEE5valueEvE4typeERS6_SG_:
.LFB3804:
	.cfi_startproc
	stp	x29, x30, [sp, -48]!
	.cfi_def_cfa_offset 48
	.cfi_offset 29, -48
	.cfi_offset 30, -40
	mov	x29, sp
	str	x0, [sp, 24]
	str	x1, [sp, 16]
	adrp	x0, :got:__stack_chk_guard
	ldr	x0, [x0, #:got_lo12:__stack_chk_guard]
	ldr	x1, [x0]
	str	x1, [sp, 40]
	mov	x1, 0
	ldr	x0, [sp, 24]
	bl	_ZSt4moveIRNSt6thread2idEEONSt16remove_referenceIT_E4typeEOS4_
	ldr	x0, [x0]
	str	x0, [sp, 32]
	ldr	x0, [sp, 16]
	bl	_ZSt4moveIRNSt6thread2idEEONSt16remove_referenceIT_E4typeEOS4_
	mov	x1, x0
	ldr	x0, [sp, 24]
	ldr	x1, [x1]
	str	x1, [x0]
	add	x0, sp, 32
	bl	_ZSt4moveIRNSt6thread2idEEONSt16remove_referenceIT_E4typeEOS4_
	mov	x1, x0
	ldr	x0, [sp, 16]
	ldr	x1, [x1]
	str	x1, [x0]
	nop
	adrp	x0, :got:__stack_chk_guard
	ldr	x0, [x0, #:got_lo12:__stack_chk_guard]
	ldr	x2, [sp, 40]
	ldr	x1, [x0]
	subs	x2, x2, x1
	mov	x1, 0
	beq	.L189
	bl	__stack_chk_fail
.L189:
	ldp	x29, x30, [sp], 48
	.cfi_restore 30
	.cfi_restore 29
	.cfi_def_cfa_offset 0
	ret
	.cfi_endproc
.LFE3804:
	.size	_ZSt4swapINSt6thread2idEENSt9enable_ifIXsrSt6__and_IJSt6__not_ISt15__is_tuple_likeIT_EESt21is_move_constructibleIS6_ESt18is_move_assignableIS6_EEE5valueEvE4typeERS6_SG_, .-_ZSt4swapINSt6thread2idEENSt9enable_ifIXsrSt6__and_IJSt6__not_ISt15__is_tuple_likeIT_EESt21is_move_constructibleIS6_ESt18is_move_assignableIS6_EEE5valueEvE4typeERS6_SG_
	.section	.text._ZNSt5tupleIJPNSt13__future_base12_Result_baseENS1_8_DeleterEEEC2ILb1ELb1EEEv,"axG",@progbits,_ZNSt5tupleIJPNSt13__future_base12_Result_baseENS1_8_DeleterEEEC5ILb1ELb1EEEv,comdat
	.align	2
	.weak	_ZNSt5tupleIJPNSt13__future_base12_Result_baseENS1_8_DeleterEEEC2ILb1ELb1EEEv
	.type	_ZNSt5tupleIJPNSt13__future_base12_Result_baseENS1_8_DeleterEEEC2ILb1ELb1EEEv, %function
_ZNSt5tupleIJPNSt13__future_base12_Result_baseENS1_8_DeleterEEEC2ILb1ELb1EEEv:
.LFB3811:
	.cfi_startproc
	.cfi_personality 0x9b,DW.ref.__gxx_personality_v0
	.cfi_lsda 0x1b,.LLSDA3811
	stp	x29, x30, [sp, -32]!
	.cfi_def_cfa_offset 32
	.cfi_offset 29, -32
	.cfi_offset 30, -24
	mov	x29, sp
	str	x0, [sp, 24]
	ldr	x0, [sp, 24]
	bl	_ZNSt11_Tuple_implILm0EJPNSt13__future_base12_Result_baseENS1_8_DeleterEEEC2Ev
	nop
	ldp	x29, x30, [sp], 32
	.cfi_restore 30
	.cfi_restore 29
	.cfi_def_cfa_offset 0
	ret
	.cfi_endproc
.LFE3811:
	.section	.gcc_except_table
.LLSDA3811:
	.byte	0xff
	.byte	0xff
	.byte	0x1
	.uleb128 .LLSDACSE3811-.LLSDACSB3811
.LLSDACSB3811:
.LLSDACSE3811:
	.section	.text._ZNSt5tupleIJPNSt13__future_base12_Result_baseENS1_8_DeleterEEEC2ILb1ELb1EEEv,"axG",@progbits,_ZNSt5tupleIJPNSt13__future_base12_Result_baseENS1_8_DeleterEEEC5ILb1ELb1EEEv,comdat
	.size	_ZNSt5tupleIJPNSt13__future_base12_Result_baseENS1_8_DeleterEEEC2ILb1ELb1EEEv, .-_ZNSt5tupleIJPNSt13__future_base12_Result_baseENS1_8_DeleterEEEC2ILb1ELb1EEEv
	.weak	_ZNSt5tupleIJPNSt13__future_base12_Result_baseENS1_8_DeleterEEEC1ILb1ELb1EEEv
	.set	_ZNSt5tupleIJPNSt13__future_base12_Result_baseENS1_8_DeleterEEEC1ILb1ELb1EEEv,_ZNSt5tupleIJPNSt13__future_base12_Result_baseENS1_8_DeleterEEEC2ILb1ELb1EEEv
	.section	.text._ZNSt15__uniq_ptr_implINSt13__future_base12_Result_baseENS1_8_DeleterEEC2Ev,"axG",@progbits,_ZNSt15__uniq_ptr_implINSt13__future_base12_Result_baseENS1_8_DeleterEEC5Ev,comdat
	.align	2
	.weak	_ZNSt15__uniq_ptr_implINSt13__future_base12_Result_baseENS1_8_DeleterEEC2Ev
	.type	_ZNSt15__uniq_ptr_implINSt13__future_base12_Result_baseENS1_8_DeleterEEC2Ev, %function
_ZNSt15__uniq_ptr_implINSt13__future_base12_Result_baseENS1_8_DeleterEEC2Ev:
.LFB3813:
	.cfi_startproc
	stp	x29, x30, [sp, -32]!
	.cfi_def_cfa_offset 32
	.cfi_offset 29, -32
	.cfi_offset 30, -24
	mov	x29, sp
	str	x0, [sp, 24]
	ldr	x0, [sp, 24]
	bl	_ZNSt5tupleIJPNSt13__future_base12_Result_baseENS1_8_DeleterEEEC1ILb1ELb1EEEv
	nop
	ldp	x29, x30, [sp], 32
	.cfi_restore 30
	.cfi_restore 29
	.cfi_def_cfa_offset 0
	ret
	.cfi_endproc
.LFE3813:
	.size	_ZNSt15__uniq_ptr_implINSt13__future_base12_Result_baseENS1_8_DeleterEEC2Ev, .-_ZNSt15__uniq_ptr_implINSt13__future_base12_Result_baseENS1_8_DeleterEEC2Ev
	.weak	_ZNSt15__uniq_ptr_implINSt13__future_base12_Result_baseENS1_8_DeleterEEC1Ev
	.set	_ZNSt15__uniq_ptr_implINSt13__future_base12_Result_baseENS1_8_DeleterEEC1Ev,_ZNSt15__uniq_ptr_implINSt13__future_base12_Result_baseENS1_8_DeleterEEC2Ev
	.section	.text._ZNSt15__uniq_ptr_dataINSt13__future_base12_Result_baseENS1_8_DeleterELb1ELb1EECI2St15__uniq_ptr_implIS1_S2_EEv,"axG",@progbits,_ZNSt15__uniq_ptr_dataINSt13__future_base12_Result_baseENS1_8_DeleterELb1ELb1EECI5St15__uniq_ptr_implIS1_S2_EEv,comdat
	.align	2
	.weak	_ZNSt15__uniq_ptr_dataINSt13__future_base12_Result_baseENS1_8_DeleterELb1ELb1EECI2St15__uniq_ptr_implIS1_S2_EEv
	.type	_ZNSt15__uniq_ptr_dataINSt13__future_base12_Result_baseENS1_8_DeleterELb1ELb1EECI2St15__uniq_ptr_implIS1_S2_EEv, %function
_ZNSt15__uniq_ptr_dataINSt13__future_base12_Result_baseENS1_8_DeleterELb1ELb1EECI2St15__uniq_ptr_implIS1_S2_EEv:
.LFB3815:
	.cfi_startproc
	stp	x29, x30, [sp, -32]!
	.cfi_def_cfa_offset 32
	.cfi_offset 29, -32
	.cfi_offset 30, -24
	mov	x29, sp
	str	x0, [sp, 24]
	ldr	x0, [sp, 24]
	bl	_ZNSt15__uniq_ptr_implINSt13__future_base12_Result_baseENS1_8_DeleterEEC2Ev
	nop
	ldp	x29, x30, [sp], 32
	.cfi_restore 30
	.cfi_restore 29
	.cfi_def_cfa_offset 0
	ret
	.cfi_endproc
.LFE3815:
	.size	_ZNSt15__uniq_ptr_dataINSt13__future_base12_Result_baseENS1_8_DeleterELb1ELb1EECI2St15__uniq_ptr_implIS1_S2_EEv, .-_ZNSt15__uniq_ptr_dataINSt13__future_base12_Result_baseENS1_8_DeleterELb1ELb1EECI2St15__uniq_ptr_implIS1_S2_EEv
	.weak	_ZNSt15__uniq_ptr_dataINSt13__future_base12_Result_baseENS1_8_DeleterELb1ELb1EECI1St15__uniq_ptr_implIS1_S2_EEv
	.set	_ZNSt15__uniq_ptr_dataINSt13__future_base12_Result_baseENS1_8_DeleterELb1ELb1EECI1St15__uniq_ptr_implIS1_S2_EEv,_ZNSt15__uniq_ptr_dataINSt13__future_base12_Result_baseENS1_8_DeleterELb1ELb1EECI2St15__uniq_ptr_implIS1_S2_EEv
	.section	.text._ZNSt10unique_ptrINSt13__future_base12_Result_baseENS1_8_DeleterEEC2IS2_vEEv,"axG",@progbits,_ZNSt10unique_ptrINSt13__future_base12_Result_baseENS1_8_DeleterEEC5IS2_vEEv,comdat
	.align	2
	.weak	_ZNSt10unique_ptrINSt13__future_base12_Result_baseENS1_8_DeleterEEC2IS2_vEEv
	.type	_ZNSt10unique_ptrINSt13__future_base12_Result_baseENS1_8_DeleterEEC2IS2_vEEv, %function
_ZNSt10unique_ptrINSt13__future_base12_Result_baseENS1_8_DeleterEEC2IS2_vEEv:
.LFB3817:
	.cfi_startproc
	stp	x29, x30, [sp, -32]!
	.cfi_def_cfa_offset 32
	.cfi_offset 29, -32
	.cfi_offset 30, -24
	mov	x29, sp
	str	x0, [sp, 24]
	ldr	x0, [sp, 24]
	str	xzr, [x0]
	ldr	x0, [sp, 24]
	bl	_ZNSt15__uniq_ptr_dataINSt13__future_base12_Result_baseENS1_8_DeleterELb1ELb1EECI1St15__uniq_ptr_implIS1_S2_EEv
	nop
	ldp	x29, x30, [sp], 32
	.cfi_restore 30
	.cfi_restore 29
	.cfi_def_cfa_offset 0
	ret
	.cfi_endproc
.LFE3817:
	.size	_ZNSt10unique_ptrINSt13__future_base12_Result_baseENS1_8_DeleterEEC2IS2_vEEv, .-_ZNSt10unique_ptrINSt13__future_base12_Result_baseENS1_8_DeleterEEC2IS2_vEEv
	.weak	_ZNSt10unique_ptrINSt13__future_base12_Result_baseENS1_8_DeleterEEC1IS2_vEEv
	.set	_ZNSt10unique_ptrINSt13__future_base12_Result_baseENS1_8_DeleterEEC1IS2_vEEv,_ZNSt10unique_ptrINSt13__future_base12_Result_baseENS1_8_DeleterEEC2IS2_vEEv
	.section	.text._ZNSt10unique_ptrINSt13__future_base12_Result_baseENS1_8_DeleterEED2Ev,"axG",@progbits,_ZNSt10unique_ptrINSt13__future_base12_Result_baseENS1_8_DeleterEED5Ev,comdat
	.align	2
	.weak	_ZNSt10unique_ptrINSt13__future_base12_Result_baseENS1_8_DeleterEED2Ev
	.type	_ZNSt10unique_ptrINSt13__future_base12_Result_baseENS1_8_DeleterEED2Ev, %function
_ZNSt10unique_ptrINSt13__future_base12_Result_baseENS1_8_DeleterEED2Ev:
.LFB3820:
	.cfi_startproc
	.cfi_personality 0x9b,DW.ref.__gxx_personality_v0
	.cfi_lsda 0x1b,.LLSDA3820
	stp	x29, x30, [sp, -64]!
	.cfi_def_cfa_offset 64
	.cfi_offset 29, -64
	.cfi_offset 30, -56
	mov	x29, sp
	str	x19, [sp, 16]
	.cfi_offset 19, -48
	str	x0, [sp, 40]
	ldr	x0, [sp, 40]
	bl	_ZNSt15__uniq_ptr_implINSt13__future_base12_Result_baseENS1_8_DeleterEE6_M_ptrEv
	str	x0, [sp, 56]
	ldr	x0, [sp, 56]
	ldr	x0, [x0]
	cmp	x0, 0
	beq	.L195
	ldr	x0, [sp, 40]
	bl	_ZNSt10unique_ptrINSt13__future_base12_Result_baseENS1_8_DeleterEE11get_deleterEv
	mov	x19, x0
	ldr	x0, [sp, 56]
	bl	_ZSt4moveIRPNSt13__future_base12_Result_baseEEONSt16remove_referenceIT_E4typeEOS5_
	ldr	x0, [x0]
	mov	x1, x0
	mov	x0, x19
	bl	_ZNKSt13__future_base12_Result_base8_DeleterclEPS0_
.L195:
	ldr	x0, [sp, 56]
	str	xzr, [x0]
	nop
	ldr	x19, [sp, 16]
	ldp	x29, x30, [sp], 64
	.cfi_restore 30
	.cfi_restore 29
	.cfi_restore 19
	.cfi_def_cfa_offset 0
	ret
	.cfi_endproc
.LFE3820:
	.section	.gcc_except_table
.LLSDA3820:
	.byte	0xff
	.byte	0xff
	.byte	0x1
	.uleb128 .LLSDACSE3820-.LLSDACSB3820
.LLSDACSB3820:
.LLSDACSE3820:
	.section	.text._ZNSt10unique_ptrINSt13__future_base12_Result_baseENS1_8_DeleterEED2Ev,"axG",@progbits,_ZNSt10unique_ptrINSt13__future_base12_Result_baseENS1_8_DeleterEED5Ev,comdat
	.size	_ZNSt10unique_ptrINSt13__future_base12_Result_baseENS1_8_DeleterEED2Ev, .-_ZNSt10unique_ptrINSt13__future_base12_Result_baseENS1_8_DeleterEED2Ev
	.weak	_ZNSt10unique_ptrINSt13__future_base12_Result_baseENS1_8_DeleterEED1Ev
	.set	_ZNSt10unique_ptrINSt13__future_base12_Result_baseENS1_8_DeleterEED1Ev,_ZNSt10unique_ptrINSt13__future_base12_Result_baseENS1_8_DeleterEED2Ev
	.section	.text._ZNSt23__atomic_futex_unsignedILj2147483648EEC2Ej,"axG",@progbits,_ZNSt23__atomic_futex_unsignedILj2147483648EEC5Ej,comdat
	.align	2
	.weak	_ZNSt23__atomic_futex_unsignedILj2147483648EEC2Ej
	.type	_ZNSt23__atomic_futex_unsignedILj2147483648EEC2Ej, %function
_ZNSt23__atomic_futex_unsignedILj2147483648EEC2Ej:
.LFB3823:
	.cfi_startproc
	stp	x29, x30, [sp, -32]!
	.cfi_def_cfa_offset 32
	.cfi_offset 29, -32
	.cfi_offset 30, -24
	mov	x29, sp
	str	x0, [sp, 24]
	str	w1, [sp, 20]
	ldr	x0, [sp, 24]
	ldr	w1, [sp, 20]
	bl	_ZNSt6atomicIjEC1Ej
	nop
	ldp	x29, x30, [sp], 32
	.cfi_restore 30
	.cfi_restore 29
	.cfi_def_cfa_offset 0
	ret
	.cfi_endproc
.LFE3823:
	.size	_ZNSt23__atomic_futex_unsignedILj2147483648EEC2Ej, .-_ZNSt23__atomic_futex_unsignedILj2147483648EEC2Ej
	.weak	_ZNSt23__atomic_futex_unsignedILj2147483648EEC1Ej
	.set	_ZNSt23__atomic_futex_unsignedILj2147483648EEC1Ej,_ZNSt23__atomic_futex_unsignedILj2147483648EEC2Ej
	.section	.text._ZNKSt10unique_ptrINSt13__future_base12_Result_baseENS1_8_DeleterEEdeEv,"axG",@progbits,_ZNKSt10unique_ptrINSt13__future_base12_Result_baseENS1_8_DeleterEEdeEv,comdat
	.align	2
	.weak	_ZNKSt10unique_ptrINSt13__future_base12_Result_baseENS1_8_DeleterEEdeEv
	.type	_ZNKSt10unique_ptrINSt13__future_base12_Result_baseENS1_8_DeleterEEdeEv, %function
_ZNKSt10unique_ptrINSt13__future_base12_Result_baseENS1_8_DeleterEEdeEv:
.LFB3826:
	.cfi_startproc
	stp	x29, x30, [sp, -32]!
	.cfi_def_cfa_offset 32
	.cfi_offset 29, -32
	.cfi_offset 30, -24
	mov	x29, sp
	str	x0, [sp, 24]
	mov	w0, 0
	cmp	w0, 0
	ldr	x0, [sp, 24]
	bl	_ZNKSt10unique_ptrINSt13__future_base12_Result_baseENS1_8_DeleterEE3getEv
	ldp	x29, x30, [sp], 32
	.cfi_restore 30
	.cfi_restore 29
	.cfi_def_cfa_offset 0
	ret
	.cfi_endproc
.LFE3826:
	.size	_ZNKSt10unique_ptrINSt13__future_base12_Result_baseENS1_8_DeleterEEdeEv, .-_ZNKSt10unique_ptrINSt13__future_base12_Result_baseENS1_8_DeleterEEdeEv
	.section	.text._ZSt11__addressofISt8functionIFSt10unique_ptrINSt13__future_base12_Result_baseENS3_8_DeleterEEvEEEPT_RS8_,"axG",@progbits,_ZSt11__addressofISt8functionIFSt10unique_ptrINSt13__future_base12_Result_baseENS3_8_DeleterEEvEEEPT_RS8_,comdat
	.align	2
	.weak	_ZSt11__addressofISt8functionIFSt10unique_ptrINSt13__future_base12_Result_baseENS3_8_DeleterEEvEEEPT_RS8_
	.type	_ZSt11__addressofISt8functionIFSt10unique_ptrINSt13__future_base12_Result_baseENS3_8_DeleterEEvEEEPT_RS8_, %function
_ZSt11__addressofISt8functionIFSt10unique_ptrINSt13__future_base12_Result_baseENS3_8_DeleterEEvEEEPT_RS8_:
.LFB3827:
	.cfi_startproc
	sub	sp, sp, #16
	.cfi_def_cfa_offset 16
	str	x0, [sp, 8]
	ldr	x0, [sp, 8]
	add	sp, sp, 16
	.cfi_def_cfa_offset 0
	ret
	.cfi_endproc
.LFE3827:
	.size	_ZSt11__addressofISt8functionIFSt10unique_ptrINSt13__future_base12_Result_baseENS3_8_DeleterEEvEEEPT_RS8_, .-_ZSt11__addressofISt8functionIFSt10unique_ptrINSt13__future_base12_Result_baseENS3_8_DeleterEEvEEEPT_RS8_
	.section	.text._ZSt11__addressofIbEPT_RS0_,"axG",@progbits,_ZSt11__addressofIbEPT_RS0_,comdat
	.align	2
	.weak	_ZSt11__addressofIbEPT_RS0_
	.type	_ZSt11__addressofIbEPT_RS0_, %function
_ZSt11__addressofIbEPT_RS0_:
.LFB3828:
	.cfi_startproc
	sub	sp, sp, #16
	.cfi_def_cfa_offset 16
	str	x0, [sp, 8]
	ldr	x0, [sp, 8]
	add	sp, sp, 16
	.cfi_def_cfa_offset 0
	ret
	.cfi_endproc
.LFE3828:
	.size	_ZSt11__addressofIbEPT_RS0_, .-_ZSt11__addressofIbEPT_RS0_
	.section	.text._ZZSt9call_onceIMNSt13__future_base13_State_baseV2EFvPSt8functionIFSt10unique_ptrINS0_12_Result_baseENS4_8_DeleterEEvEEPbEJPS1_S9_SA_EEvRSt9once_flagOT_DpOT0_ENKUlvE_clEv,"axG",@progbits,_ZZSt9call_onceIMNSt13__future_base13_State_baseV2EFvPSt8functionIFSt10unique_ptrINS0_12_Result_baseENS4_8_DeleterEEvEEPbEJPS1_S9_SA_EEvRSt9once_flagOT_DpOT0_ENKUlvE_clEv,comdat
	.align	2
	.weak	_ZZSt9call_onceIMNSt13__future_base13_State_baseV2EFvPSt8functionIFSt10unique_ptrINS0_12_Result_baseENS4_8_DeleterEEvEEPbEJPS1_S9_SA_EEvRSt9once_flagOT_DpOT0_ENKUlvE_clEv
	.type	_ZZSt9call_onceIMNSt13__future_base13_State_baseV2EFvPSt8functionIFSt10unique_ptrINS0_12_Result_baseENS4_8_DeleterEEvEEPbEJPS1_S9_SA_EEvRSt9once_flagOT_DpOT0_ENKUlvE_clEv, %function
_ZZSt9call_onceIMNSt13__future_base13_State_baseV2EFvPSt8functionIFSt10unique_ptrINS0_12_Result_baseENS4_8_DeleterEEvEEPbEJPS1_S9_SA_EEvRSt9once_flagOT_DpOT0_ENKUlvE_clEv:
.LFB3830:
	.cfi_startproc
	stp	x29, x30, [sp, -64]!
	.cfi_def_cfa_offset 64
	.cfi_offset 29, -64
	.cfi_offset 30, -56
	mov	x29, sp
	stp	x19, x20, [sp, 16]
	str	x21, [sp, 32]
	.cfi_offset 19, -48
	.cfi_offset 20, -40
	.cfi_offset 21, -32
	str	x0, [sp, 56]
	ldr	x0, [sp, 56]
	ldr	x0, [x0]
	bl	_ZSt7forwardIMNSt13__future_base13_State_baseV2EFvPSt8functionIFSt10unique_ptrINS0_12_Result_baseENS4_8_DeleterEEvEEPbEEOT_RNSt16remove_referenceISD_E4typeE
	mov	x19, x0
	ldr	x0, [sp, 56]
	ldr	x0, [x0, 8]
	bl	_ZSt7forwardIPNSt13__future_base13_State_baseV2EEOT_RNSt16remove_referenceIS3_E4typeE
	mov	x20, x0
	ldr	x0, [sp, 56]
	ldr	x0, [x0, 16]
	bl	_ZSt7forwardIPSt8functionIFSt10unique_ptrINSt13__future_base12_Result_baseENS3_8_DeleterEEvEEEOT_RNSt16remove_referenceIS9_E4typeE
	mov	x21, x0
	ldr	x0, [sp, 56]
	ldr	x0, [x0, 24]
	bl	_ZSt7forwardIPbEOT_RNSt16remove_referenceIS1_E4typeE
	mov	x3, x0
	mov	x2, x21
	mov	x1, x20
	mov	x0, x19
	bl	_ZSt8__invokeIMNSt13__future_base13_State_baseV2EFvPSt8functionIFSt10unique_ptrINS0_12_Result_baseENS4_8_DeleterEEvEEPbEJPS1_S9_SA_EENSt15__invoke_resultIT_JDpT0_EE4typeEOSF_DpOSG_
	nop
	ldp	x19, x20, [sp, 16]
	ldr	x21, [sp, 32]
	ldp	x29, x30, [sp], 64
	.cfi_restore 30
	.cfi_restore 29
	.cfi_restore 21
	.cfi_restore 19
	.cfi_restore 20
	.cfi_def_cfa_offset 0
	ret
	.cfi_endproc
.LFE3830:
	.size	_ZZSt9call_onceIMNSt13__future_base13_State_baseV2EFvPSt8functionIFSt10unique_ptrINS0_12_Result_baseENS4_8_DeleterEEvEEPbEJPS1_S9_SA_EEvRSt9once_flagOT_DpOT0_ENKUlvE_clEv, .-_ZZSt9call_onceIMNSt13__future_base13_State_baseV2EFvPSt8functionIFSt10unique_ptrINS0_12_Result_baseENS4_8_DeleterEEvEEPbEJPS1_S9_SA_EEvRSt9once_flagOT_DpOT0_ENKUlvE_clEv
	.section	.text._ZSt9call_onceIMNSt13__future_base13_State_baseV2EFvPSt8functionIFSt10unique_ptrINS0_12_Result_baseENS4_8_DeleterEEvEEPbEJPS1_S9_SA_EEvRSt9once_flagOT_DpOT0_,"axG",@progbits,_ZSt9call_onceIMNSt13__future_base13_State_baseV2EFvPSt8functionIFSt10unique_ptrINS0_12_Result_baseENS4_8_DeleterEEvEEPbEJPS1_S9_SA_EEvRSt9once_flagOT_DpOT0_,comdat
	.align	2
	.weak	_ZSt9call_onceIMNSt13__future_base13_State_baseV2EFvPSt8functionIFSt10unique_ptrINS0_12_Result_baseENS4_8_DeleterEEvEEPbEJPS1_S9_SA_EEvRSt9once_flagOT_DpOT0_
	.type	_ZSt9call_onceIMNSt13__future_base13_State_baseV2EFvPSt8functionIFSt10unique_ptrINS0_12_Result_baseENS4_8_DeleterEEvEEPbEJPS1_S9_SA_EEvRSt9once_flagOT_DpOT0_, %function
_ZSt9call_onceIMNSt13__future_base13_State_baseV2EFvPSt8functionIFSt10unique_ptrINS0_12_Result_baseENS4_8_DeleterEEvEEPbEJPS1_S9_SA_EEvRSt9once_flagOT_DpOT0_:
.LFB3829:
	.cfi_startproc
	.cfi_personality 0x9b,DW.ref.__gxx_personality_v0
	.cfi_lsda 0x1b,.LLSDA3829
	stp	x29, x30, [sp, -128]!
	.cfi_def_cfa_offset 128
	.cfi_offset 29, -128
	.cfi_offset 30, -120
	mov	x29, sp
	str	x19, [sp, 16]
	.cfi_offset 19, -112
	str	x0, [sp, 72]
	str	x1, [sp, 64]
	str	x2, [sp, 56]
	str	x3, [sp, 48]
	str	x4, [sp, 40]
	adrp	x0, :got:__stack_chk_guard
	ldr	x0, [x0, #:got_lo12:__stack_chk_guard]
	ldr	x1, [x0]
	str	x1, [sp, 120]
	mov	x1, 0
	ldr	x0, [sp, 64]
	str	x0, [sp, 88]
	ldr	x0, [sp, 56]
	str	x0, [sp, 96]
	ldr	x0, [sp, 48]
	str	x0, [sp, 104]
	ldr	x0, [sp, 40]
	str	x0, [sp, 112]
	add	x1, sp, 88
	add	x0, sp, 80
	bl	_ZNSt9once_flag18_Prepare_executionC1IZSt9call_onceIMNSt13__future_base13_State_baseV2EFvPSt8functionIFSt10unique_ptrINS3_12_Result_baseENS7_8_DeleterEEvEEPbEJPS4_SC_SD_EEvRS_OT_DpOT0_EUlvE_EERSI_
	ldr	x2, [sp, 72]
	adrp	x0, :got:__once_proxy
	ldr	x1, [x0, #:got_lo12:__once_proxy]
	mov	x0, x2
.LEHB9:
	bl	_ZL14__gthread_oncePiPFvvE
	str	w0, [sp, 84]
	ldr	w0, [sp, 84]
	cmp	w0, 0
	beq	.L206
	ldr	w0, [sp, 84]
	bl	_ZSt20__throw_system_errori
.LEHE9:
.L206:
	add	x0, sp, 80
	bl	_ZNSt9once_flag18_Prepare_executionD1Ev
	adrp	x0, :got:__stack_chk_guard
	ldr	x0, [x0, #:got_lo12:__stack_chk_guard]
	ldr	x2, [sp, 120]
	ldr	x1, [x0]
	subs	x2, x2, x1
	mov	x1, 0
	beq	.L208
	b	.L210
.L209:
	mov	x19, x0
	add	x0, sp, 80
	bl	_ZNSt9once_flag18_Prepare_executionD1Ev
	mov	x0, x19
.LEHB10:
	bl	_Unwind_Resume
.LEHE10:
.L210:
	bl	__stack_chk_fail
.L208:
	ldr	x19, [sp, 16]
	ldp	x29, x30, [sp], 128
	.cfi_restore 30
	.cfi_restore 29
	.cfi_restore 19
	.cfi_def_cfa_offset 0
	ret
	.cfi_endproc
.LFE3829:
	.section	.gcc_except_table
.LLSDA3829:
	.byte	0xff
	.byte	0xff
	.byte	0x1
	.uleb128 .LLSDACSE3829-.LLSDACSB3829
.LLSDACSB3829:
	.uleb128 .LEHB9-.LFB3829
	.uleb128 .LEHE9-.LEHB9
	.uleb128 .L209-.LFB3829
	.uleb128 0
	.uleb128 .LEHB10-.LFB3829
	.uleb128 .LEHE10-.LEHB10
	.uleb128 0
	.uleb128 0
.LLSDACSE3829:
	.section	.text._ZSt9call_onceIMNSt13__future_base13_State_baseV2EFvPSt8functionIFSt10unique_ptrINS0_12_Result_baseENS4_8_DeleterEEvEEPbEJPS1_S9_SA_EEvRSt9once_flagOT_DpOT0_,"axG",@progbits,_ZSt9call_onceIMNSt13__future_base13_State_baseV2EFvPSt8functionIFSt10unique_ptrINS0_12_Result_baseENS4_8_DeleterEEvEEPbEJPS1_S9_SA_EEvRSt9once_flagOT_DpOT0_,comdat
	.size	_ZSt9call_onceIMNSt13__future_base13_State_baseV2EFvPSt8functionIFSt10unique_ptrINS0_12_Result_baseENS4_8_DeleterEEvEEPbEJPS1_S9_SA_EEvRSt9once_flagOT_DpOT0_, .-_ZSt9call_onceIMNSt13__future_base13_State_baseV2EFvPSt8functionIFSt10unique_ptrINS0_12_Result_baseENS4_8_DeleterEEvEEPbEJPS1_S9_SA_EEvRSt9once_flagOT_DpOT0_
	.section	.text._ZNKSt10unique_ptrINSt13__future_base12_Result_baseENS1_8_DeleterEEcvbEv,"axG",@progbits,_ZNKSt10unique_ptrINSt13__future_base12_Result_baseENS1_8_DeleterEEcvbEv,comdat
	.align	2
	.weak	_ZNKSt10unique_ptrINSt13__future_base12_Result_baseENS1_8_DeleterEEcvbEv
	.type	_ZNKSt10unique_ptrINSt13__future_base12_Result_baseENS1_8_DeleterEEcvbEv, %function
_ZNKSt10unique_ptrINSt13__future_base12_Result_baseENS1_8_DeleterEEcvbEv:
.LFB3852:
	.cfi_startproc
	stp	x29, x30, [sp, -32]!
	.cfi_def_cfa_offset 32
	.cfi_offset 29, -32
	.cfi_offset 30, -24
	mov	x29, sp
	str	x0, [sp, 24]
	ldr	x0, [sp, 24]
	bl	_ZNKSt10unique_ptrINSt13__future_base12_Result_baseENS1_8_DeleterEE3getEv
	cmp	x0, 0
	cset	w0, ne
	and	w0, w0, 255
	ldp	x29, x30, [sp], 32
	.cfi_restore 30
	.cfi_restore 29
	.cfi_def_cfa_offset 0
	ret
	.cfi_endproc
.LFE3852:
	.size	_ZNKSt10unique_ptrINSt13__future_base12_Result_baseENS1_8_DeleterEEcvbEv, .-_ZNKSt10unique_ptrINSt13__future_base12_Result_baseENS1_8_DeleterEEcvbEv
	.section	.text._ZNKSt10unique_ptrINSt13__future_base12_Result_baseENS1_8_DeleterEEptEv,"axG",@progbits,_ZNKSt10unique_ptrINSt13__future_base12_Result_baseENS1_8_DeleterEEptEv,comdat
	.align	2
	.weak	_ZNKSt10unique_ptrINSt13__future_base12_Result_baseENS1_8_DeleterEEptEv
	.type	_ZNKSt10unique_ptrINSt13__future_base12_Result_baseENS1_8_DeleterEEptEv, %function
_ZNKSt10unique_ptrINSt13__future_base12_Result_baseENS1_8_DeleterEEptEv:
.LFB3853:
	.cfi_startproc
	stp	x29, x30, [sp, -32]!
	.cfi_def_cfa_offset 32
	.cfi_offset 29, -32
	.cfi_offset 30, -24
	mov	x29, sp
	str	x0, [sp, 24]
	ldr	x0, [sp, 24]
	bl	_ZNKSt10unique_ptrINSt13__future_base12_Result_baseENS1_8_DeleterEE3getEv
	ldp	x29, x30, [sp], 32
	.cfi_restore 30
	.cfi_restore 29
	.cfi_def_cfa_offset 0
	ret
	.cfi_endproc
.LFE3853:
	.size	_ZNKSt10unique_ptrINSt13__future_base12_Result_baseENS1_8_DeleterEEptEv, .-_ZNKSt10unique_ptrINSt13__future_base12_Result_baseENS1_8_DeleterEEptEv
	.section	.text._ZNSt12future_errorC2ERKS_,"axG",@progbits,_ZNSt12future_errorC5ERKS_,comdat
	.align	2
	.weak	_ZNSt12future_errorC2ERKS_
	.type	_ZNSt12future_errorC2ERKS_, %function
_ZNSt12future_errorC2ERKS_:
.LFB3856:
	.cfi_startproc
	stp	x29, x30, [sp, -32]!
	.cfi_def_cfa_offset 32
	.cfi_offset 29, -32
	.cfi_offset 30, -24
	mov	x29, sp
	str	x0, [sp, 24]
	str	x1, [sp, 16]
	ldr	x0, [sp, 24]
	ldr	x1, [sp, 16]
	bl	_ZNSt11logic_errorC2ERKS_
	adrp	x0, :got:_ZTVSt12future_error
	ldr	x0, [x0, #:got_lo12:_ZTVSt12future_error]
	add	x1, x0, 16
	ldr	x0, [sp, 24]
	str	x1, [x0]
	ldr	x2, [sp, 24]
	ldr	x0, [sp, 16]
	ldp	x0, x1, [x0, 16]
	stp	x0, x1, [x2, 16]
	nop
	ldp	x29, x30, [sp], 32
	.cfi_restore 30
	.cfi_restore 29
	.cfi_def_cfa_offset 0
	ret
	.cfi_endproc
.LFE3856:
	.size	_ZNSt12future_errorC2ERKS_, .-_ZNSt12future_errorC2ERKS_
	.weak	_ZNSt12future_errorC1ERKS_
	.set	_ZNSt12future_errorC1ERKS_,_ZNSt12future_errorC2ERKS_
	.section	.text._ZSt18make_exception_ptrISt12future_errorENSt15__exception_ptr13exception_ptrET_,"axG",@progbits,_ZSt18make_exception_ptrISt12future_errorENSt15__exception_ptr13exception_ptrET_,comdat
	.align	2
	.weak	_ZSt18make_exception_ptrISt12future_errorENSt15__exception_ptr13exception_ptrET_
	.type	_ZSt18make_exception_ptrISt12future_errorENSt15__exception_ptr13exception_ptrET_, %function
_ZSt18make_exception_ptrISt12future_errorENSt15__exception_ptr13exception_ptrET_:
.LFB3854:
	.cfi_startproc
	stp	x29, x30, [sp, -64]!
	.cfi_def_cfa_offset 64
	.cfi_offset 29, -64
	.cfi_offset 30, -56
	mov	x29, sp
	stp	x19, x20, [sp, 16]
	.cfi_offset 19, -48
	.cfi_offset 20, -40
	mov	x19, x8
	str	x0, [sp, 40]
	mov	x0, 32
	bl	__cxa_allocate_exception
	str	x0, [sp, 56]
	adrp	x0, _ZNSt15__exception_ptr12__dest_thunkISt12future_errorEEvPv
	add	x2, x0, :lo12:_ZNSt15__exception_ptr12__dest_thunkISt12future_errorEEvPv
	adrp	x0, :got:_ZTISt12future_error
	ldr	x1, [x0, #:got_lo12:_ZTISt12future_error]
	ldr	x0, [sp, 56]
	bl	__cxa_init_primary_exception
	ldr	x0, [sp, 40]
	bl	_ZSt7forwardISt12future_errorEOT_RNSt16remove_referenceIS1_E4typeE
	mov	x20, x0
	ldr	x0, [sp, 56]
	mov	x1, x0
	mov	x0, 32
	bl	_ZnwmPv
	mov	x1, x20
	bl	_ZNSt12future_errorC1ERKS_
	ldr	x1, [sp, 56]
	mov	x0, x19
	bl	_ZNSt15__exception_ptr13exception_ptrC1EPv
	mov	x0, x19
	ldp	x19, x20, [sp, 16]
	ldp	x29, x30, [sp], 64
	.cfi_restore 30
	.cfi_restore 29
	.cfi_restore 19
	.cfi_restore 20
	.cfi_def_cfa_offset 0
	ret
	.cfi_endproc
.LFE3854:
	.size	_ZSt18make_exception_ptrISt12future_errorENSt15__exception_ptr13exception_ptrET_, .-_ZSt18make_exception_ptrISt12future_errorENSt15__exception_ptr13exception_ptrET_
	.section	.text._ZNSt10unique_ptrINSt13__future_base12_Result_baseENS1_8_DeleterEE4swapERS3_,"axG",@progbits,_ZNSt10unique_ptrINSt13__future_base12_Result_baseENS1_8_DeleterEE4swapERS3_,comdat
	.align	2
	.weak	_ZNSt10unique_ptrINSt13__future_base12_Result_baseENS1_8_DeleterEE4swapERS3_
	.type	_ZNSt10unique_ptrINSt13__future_base12_Result_baseENS1_8_DeleterEE4swapERS3_, %function
_ZNSt10unique_ptrINSt13__future_base12_Result_baseENS1_8_DeleterEE4swapERS3_:
.LFB3858:
	.cfi_startproc
	stp	x29, x30, [sp, -32]!
	.cfi_def_cfa_offset 32
	.cfi_offset 29, -32
	.cfi_offset 30, -24
	mov	x29, sp
	str	x0, [sp, 24]
	str	x1, [sp, 16]
	ldr	x0, [sp, 24]
	ldr	x1, [sp, 16]
	bl	_ZNSt15__uniq_ptr_implINSt13__future_base12_Result_baseENS1_8_DeleterEE4swapERS3_
	nop
	ldp	x29, x30, [sp], 32
	.cfi_restore 30
	.cfi_restore 29
	.cfi_def_cfa_offset 0
	ret
	.cfi_endproc
.LFE3858:
	.size	_ZNSt10unique_ptrINSt13__future_base12_Result_baseENS1_8_DeleterEE4swapERS3_, .-_ZNSt10unique_ptrINSt13__future_base12_Result_baseENS1_8_DeleterEE4swapERS3_
	.section	.text._ZNKSt8functionIFSt10unique_ptrINSt13__future_base12_Result_baseENS2_8_DeleterEEvEEclEv,"axG",@progbits,_ZNKSt8functionIFSt10unique_ptrINSt13__future_base12_Result_baseENS2_8_DeleterEEvEEclEv,comdat
	.align	2
	.weak	_ZNKSt8functionIFSt10unique_ptrINSt13__future_base12_Result_baseENS2_8_DeleterEEvEEclEv
	.type	_ZNKSt8functionIFSt10unique_ptrINSt13__future_base12_Result_baseENS2_8_DeleterEEvEEclEv, %function
_ZNKSt8functionIFSt10unique_ptrINSt13__future_base12_Result_baseENS2_8_DeleterEEvEEclEv:
.LFB3859:
	.cfi_startproc
	stp	x29, x30, [sp, -64]!
	.cfi_def_cfa_offset 64
	.cfi_offset 29, -64
	.cfi_offset 30, -56
	mov	x29, sp
	str	x19, [sp, 16]
	.cfi_offset 19, -48
	mov	x19, x8
	str	x0, [sp, 40]
	adrp	x0, :got:__stack_chk_guard
	ldr	x0, [x0, #:got_lo12:__stack_chk_guard]
	ldr	x1, [x0]
	str	x1, [sp, 56]
	mov	x1, 0
	ldr	x0, [sp, 40]
	bl	_ZNKSt14_Function_base8_M_emptyEv
	and	w0, w0, 255
	cmp	w0, 0
	beq	.L220
	bl	_ZSt25__throw_bad_function_callv
.L220:
	ldr	x0, [sp, 40]
	ldr	x1, [x0, 24]
	ldr	x0, [sp, 40]
	mov	x8, x19
	blr	x1
	adrp	x0, :got:__stack_chk_guard
	ldr	x0, [x0, #:got_lo12:__stack_chk_guard]
	ldr	x2, [sp, 56]
	ldr	x1, [x0]
	subs	x2, x2, x1
	mov	x1, 0
	beq	.L222
	bl	__stack_chk_fail
.L222:
	mov	x0, x19
	ldr	x19, [sp, 16]
	ldp	x29, x30, [sp], 64
	.cfi_restore 30
	.cfi_restore 29
	.cfi_restore 19
	.cfi_def_cfa_offset 0
	ret
	.cfi_endproc
.LFE3859:
	.size	_ZNKSt8functionIFSt10unique_ptrINSt13__future_base12_Result_baseENS2_8_DeleterEEvEEclEv, .-_ZNKSt8functionIFSt10unique_ptrINSt13__future_base12_Result_baseENS2_8_DeleterEEvEEclEv
	.section	.text._ZNSt12__shared_ptrINSt13__future_base13_State_baseV2ELN9__gnu_cxx12_Lock_policyE2EEC2ERKS4_,"axG",@progbits,_ZNSt12__shared_ptrINSt13__future_base13_State_baseV2ELN9__gnu_cxx12_Lock_policyE2EEC5ERKS4_,comdat
	.align	2
	.weak	_ZNSt12__shared_ptrINSt13__future_base13_State_baseV2ELN9__gnu_cxx12_Lock_policyE2EEC2ERKS4_
	.type	_ZNSt12__shared_ptrINSt13__future_base13_State_baseV2ELN9__gnu_cxx12_Lock_policyE2EEC2ERKS4_, %function
_ZNSt12__shared_ptrINSt13__future_base13_State_baseV2ELN9__gnu_cxx12_Lock_policyE2EEC2ERKS4_:
.LFB3863:
	.cfi_startproc
	stp	x29, x30, [sp, -32]!
	.cfi_def_cfa_offset 32
	.cfi_offset 29, -32
	.cfi_offset 30, -24
	mov	x29, sp
	str	x0, [sp, 24]
	str	x1, [sp, 16]
	ldr	x0, [sp, 16]
	ldr	x1, [x0]
	ldr	x0, [sp, 24]
	str	x1, [x0]
	ldr	x0, [sp, 24]
	add	x2, x0, 8
	ldr	x0, [sp, 16]
	add	x0, x0, 8
	mov	x1, x0
	mov	x0, x2
	bl	_ZNSt14__shared_countILN9__gnu_cxx12_Lock_policyE2EEC1ERKS2_
	nop
	ldp	x29, x30, [sp], 32
	.cfi_restore 30
	.cfi_restore 29
	.cfi_def_cfa_offset 0
	ret
	.cfi_endproc
.LFE3863:
	.size	_ZNSt12__shared_ptrINSt13__future_base13_State_baseV2ELN9__gnu_cxx12_Lock_policyE2EEC2ERKS4_, .-_ZNSt12__shared_ptrINSt13__future_base13_State_baseV2ELN9__gnu_cxx12_Lock_policyE2EEC2ERKS4_
	.weak	_ZNSt12__shared_ptrINSt13__future_base13_State_baseV2ELN9__gnu_cxx12_Lock_policyE2EEC1ERKS4_
	.set	_ZNSt12__shared_ptrINSt13__future_base13_State_baseV2ELN9__gnu_cxx12_Lock_policyE2EEC1ERKS4_,_ZNSt12__shared_ptrINSt13__future_base13_State_baseV2ELN9__gnu_cxx12_Lock_policyE2EEC2ERKS4_
	.section	.text._ZNSt10shared_ptrINSt13__future_base13_State_baseV2EEC2ERKS2_,"axG",@progbits,_ZNSt10shared_ptrINSt13__future_base13_State_baseV2EEC5ERKS2_,comdat
	.align	2
	.weak	_ZNSt10shared_ptrINSt13__future_base13_State_baseV2EEC2ERKS2_
	.type	_ZNSt10shared_ptrINSt13__future_base13_State_baseV2EEC2ERKS2_, %function
_ZNSt10shared_ptrINSt13__future_base13_State_baseV2EEC2ERKS2_:
.LFB3865:
	.cfi_startproc
	stp	x29, x30, [sp, -32]!
	.cfi_def_cfa_offset 32
	.cfi_offset 29, -32
	.cfi_offset 30, -24
	mov	x29, sp
	str	x0, [sp, 24]
	str	x1, [sp, 16]
	ldr	x0, [sp, 24]
	ldr	x1, [sp, 16]
	bl	_ZNSt12__shared_ptrINSt13__future_base13_State_baseV2ELN9__gnu_cxx12_Lock_policyE2EEC2ERKS4_
	nop
	ldp	x29, x30, [sp], 32
	.cfi_restore 30
	.cfi_restore 29
	.cfi_def_cfa_offset 0
	ret
	.cfi_endproc
.LFE3865:
	.size	_ZNSt10shared_ptrINSt13__future_base13_State_baseV2EEC2ERKS2_, .-_ZNSt10shared_ptrINSt13__future_base13_State_baseV2EEC2ERKS2_
	.weak	_ZNSt10shared_ptrINSt13__future_base13_State_baseV2EEC1ERKS2_
	.set	_ZNSt10shared_ptrINSt13__future_base13_State_baseV2EEC1ERKS2_,_ZNSt10shared_ptrINSt13__future_base13_State_baseV2EEC2ERKS2_
	.section	.text._ZNSt14__basic_futureIvEC2ERKSt10shared_ptrINSt13__future_base13_State_baseV2EE,"axG",@progbits,_ZNSt14__basic_futureIvEC5ERKSt10shared_ptrINSt13__future_base13_State_baseV2EE,comdat
	.align	2
	.weak	_ZNSt14__basic_futureIvEC2ERKSt10shared_ptrINSt13__future_base13_State_baseV2EE
	.type	_ZNSt14__basic_futureIvEC2ERKSt10shared_ptrINSt13__future_base13_State_baseV2EE, %function
_ZNSt14__basic_futureIvEC2ERKSt10shared_ptrINSt13__future_base13_State_baseV2EE:
.LFB3867:
	.cfi_startproc
	.cfi_personality 0x9b,DW.ref.__gxx_personality_v0
	.cfi_lsda 0x1b,.LLSDA3867
	stp	x29, x30, [sp, -48]!
	.cfi_def_cfa_offset 48
	.cfi_offset 29, -48
	.cfi_offset 30, -40
	mov	x29, sp
	str	x19, [sp, 16]
	.cfi_offset 19, -32
	str	x0, [sp, 40]
	str	x1, [sp, 32]
	ldr	x0, [sp, 40]
	ldr	x1, [sp, 32]
	bl	_ZNSt10shared_ptrINSt13__future_base13_State_baseV2EEC1ERKS2_
	ldr	x0, [sp, 40]
.LEHB11:
	bl	_ZNSt13__future_base13_State_baseV28_S_checkIS0_EEvRKSt10shared_ptrIT_E
	ldr	x0, [sp, 40]
	bl	_ZNKSt19__shared_ptr_accessINSt13__future_base13_State_baseV2ELN9__gnu_cxx12_Lock_policyE2ELb0ELb0EEptEv
	bl	_ZNSt13__future_base13_State_baseV221_M_set_retrieved_flagEv
.LEHE11:
	b	.L228
.L227:
	mov	x19, x0
	ldr	x0, [sp, 40]
	bl	_ZNSt10shared_ptrINSt13__future_base13_State_baseV2EED1Ev
	mov	x0, x19
.LEHB12:
	bl	_Unwind_Resume
.LEHE12:
.L228:
	ldr	x19, [sp, 16]
	ldp	x29, x30, [sp], 48
	.cfi_restore 30
	.cfi_restore 29
	.cfi_restore 19
	.cfi_def_cfa_offset 0
	ret
	.cfi_endproc
.LFE3867:
	.section	.gcc_except_table
.LLSDA3867:
	.byte	0xff
	.byte	0xff
	.byte	0x1
	.uleb128 .LLSDACSE3867-.LLSDACSB3867
.LLSDACSB3867:
	.uleb128 .LEHB11-.LFB3867
	.uleb128 .LEHE11-.LEHB11
	.uleb128 .L227-.LFB3867
	.uleb128 0
	.uleb128 .LEHB12-.LFB3867
	.uleb128 .LEHE12-.LEHB12
	.uleb128 0
	.uleb128 0
.LLSDACSE3867:
	.section	.text._ZNSt14__basic_futureIvEC2ERKSt10shared_ptrINSt13__future_base13_State_baseV2EE,"axG",@progbits,_ZNSt14__basic_futureIvEC5ERKSt10shared_ptrINSt13__future_base13_State_baseV2EE,comdat
	.size	_ZNSt14__basic_futureIvEC2ERKSt10shared_ptrINSt13__future_base13_State_baseV2EE, .-_ZNSt14__basic_futureIvEC2ERKSt10shared_ptrINSt13__future_base13_State_baseV2EE
	.weak	_ZNSt14__basic_futureIvEC1ERKSt10shared_ptrINSt13__future_base13_State_baseV2EE
	.set	_ZNSt14__basic_futureIvEC1ERKSt10shared_ptrINSt13__future_base13_State_baseV2EE,_ZNSt14__basic_futureIvEC2ERKSt10shared_ptrINSt13__future_base13_State_baseV2EE
	.section	.text._ZNSt14__basic_futureIvE6_ResetC2ERS0_,"axG",@progbits,_ZNSt14__basic_futureIvE6_ResetC5ERS0_,comdat
	.align	2
	.weak	_ZNSt14__basic_futureIvE6_ResetC2ERS0_
	.type	_ZNSt14__basic_futureIvE6_ResetC2ERS0_, %function
_ZNSt14__basic_futureIvE6_ResetC2ERS0_:
.LFB3878:
	.cfi_startproc
	sub	sp, sp, #16
	.cfi_def_cfa_offset 16
	str	x0, [sp, 8]
	str	x1, [sp]
	ldr	x0, [sp, 8]
	ldr	x1, [sp]
	str	x1, [x0]
	nop
	add	sp, sp, 16
	.cfi_def_cfa_offset 0
	ret
	.cfi_endproc
.LFE3878:
	.size	_ZNSt14__basic_futureIvE6_ResetC2ERS0_, .-_ZNSt14__basic_futureIvE6_ResetC2ERS0_
	.weak	_ZNSt14__basic_futureIvE6_ResetC1ERS0_
	.set	_ZNSt14__basic_futureIvE6_ResetC1ERS0_,_ZNSt14__basic_futureIvE6_ResetC2ERS0_
	.section	.text._ZNSt14__basic_futureIvE6_ResetD2Ev,"axG",@progbits,_ZNSt14__basic_futureIvE6_ResetD5Ev,comdat
	.align	2
	.weak	_ZNSt14__basic_futureIvE6_ResetD2Ev
	.type	_ZNSt14__basic_futureIvE6_ResetD2Ev, %function
_ZNSt14__basic_futureIvE6_ResetD2Ev:
.LFB3881:
	.cfi_startproc
	stp	x29, x30, [sp, -32]!
	.cfi_def_cfa_offset 32
	.cfi_offset 29, -32
	.cfi_offset 30, -24
	mov	x29, sp
	str	x0, [sp, 24]
	ldr	x0, [sp, 24]
	ldr	x0, [x0]
	bl	_ZNSt12__shared_ptrINSt13__future_base13_State_baseV2ELN9__gnu_cxx12_Lock_policyE2EE5resetEv
	nop
	ldp	x29, x30, [sp], 32
	.cfi_restore 30
	.cfi_restore 29
	.cfi_def_cfa_offset 0
	ret
	.cfi_endproc
.LFE3881:
	.size	_ZNSt14__basic_futureIvE6_ResetD2Ev, .-_ZNSt14__basic_futureIvE6_ResetD2Ev
	.weak	_ZNSt14__basic_futureIvE6_ResetD1Ev
	.set	_ZNSt14__basic_futureIvE6_ResetD1Ev,_ZNSt14__basic_futureIvE6_ResetD2Ev
	.section	.text._ZNKSt14__basic_futureIvE13_M_get_resultEv,"axG",@progbits,_ZNKSt14__basic_futureIvE13_M_get_resultEv,comdat
	.align	2
	.weak	_ZNKSt14__basic_futureIvE13_M_get_resultEv
	.type	_ZNKSt14__basic_futureIvE13_M_get_resultEv, %function
_ZNKSt14__basic_futureIvE13_M_get_resultEv:
.LFB3883:
	.cfi_startproc
	.cfi_personality 0x9b,DW.ref.__gxx_personality_v0
	.cfi_lsda 0x1b,.LLSDA3883
	stp	x29, x30, [sp, -80]!
	.cfi_def_cfa_offset 80
	.cfi_offset 29, -80
	.cfi_offset 30, -72
	mov	x29, sp
	str	x19, [sp, 16]
	.cfi_offset 19, -64
	str	x0, [sp, 40]
	adrp	x0, :got:__stack_chk_guard
	ldr	x0, [x0, #:got_lo12:__stack_chk_guard]
	ldr	x1, [x0]
	str	x1, [sp, 72]
	mov	x1, 0
	ldr	x0, [sp, 40]
.LEHB13:
	bl	_ZNSt13__future_base13_State_baseV28_S_checkIS0_EEvRKSt10shared_ptrIT_E
	ldr	x0, [sp, 40]
	bl	_ZNKSt19__shared_ptr_accessINSt13__future_base13_State_baseV2ELN9__gnu_cxx12_Lock_policyE2ELb0ELb0EEptEv
	bl	_ZNSt13__future_base13_State_baseV24waitEv
.LEHE13:
	str	x0, [sp, 64]
	ldr	x0, [sp, 64]
	add	x19, x0, 8
	add	x0, sp, 56
	mov	x1, 0
	bl	_ZNSt15__exception_ptr13exception_ptrC1EDn
	add	x0, sp, 56
	mov	x1, x0
	mov	x0, x19
	bl	_ZNSt15__exception_ptreqERKNS_13exception_ptrES2_
	and	w0, w0, 255
	eor	w0, w0, 1
	and	w19, w0, 255
	add	x0, sp, 56
	bl	_ZNSt15__exception_ptr13exception_ptrD1Ev
	cmp	w19, 0
	beq	.L232
	ldr	x0, [sp, 64]
	add	x1, x0, 8
	add	x0, sp, 56
	bl	_ZNSt15__exception_ptr13exception_ptrC1ERKS0_
	add	x0, sp, 56
.LEHB14:
	bl	_ZSt17rethrow_exceptionNSt15__exception_ptr13exception_ptrE
.LEHE14:
.L232:
	ldr	x0, [sp, 64]
	mov	x1, x0
	adrp	x0, :got:__stack_chk_guard
	ldr	x0, [x0, #:got_lo12:__stack_chk_guard]
	ldr	x3, [sp, 72]
	ldr	x2, [x0]
	subs	x3, x3, x2
	mov	x2, 0
	beq	.L235
	b	.L237
.L236:
	mov	x19, x0
	add	x0, sp, 56
	bl	_ZNSt15__exception_ptr13exception_ptrD1Ev
	mov	x0, x19
.LEHB15:
	bl	_Unwind_Resume
.LEHE15:
.L237:
	bl	__stack_chk_fail
.L235:
	mov	x0, x1
	ldr	x19, [sp, 16]
	ldp	x29, x30, [sp], 80
	.cfi_restore 30
	.cfi_restore 29
	.cfi_restore 19
	.cfi_def_cfa_offset 0
	ret
	.cfi_endproc
.LFE3883:
	.section	.gcc_except_table
.LLSDA3883:
	.byte	0xff
	.byte	0xff
	.byte	0x1
	.uleb128 .LLSDACSE3883-.LLSDACSB3883
.LLSDACSB3883:
	.uleb128 .LEHB13-.LFB3883
	.uleb128 .LEHE13-.LEHB13
	.uleb128 0
	.uleb128 0
	.uleb128 .LEHB14-.LFB3883
	.uleb128 .LEHE14-.LEHB14
	.uleb128 .L236-.LFB3883
	.uleb128 0
	.uleb128 .LEHB15-.LFB3883
	.uleb128 .LEHE15-.LEHB15
	.uleb128 0
	.uleb128 0
.LLSDACSE3883:
	.section	.text._ZNKSt14__basic_futureIvE13_M_get_resultEv,"axG",@progbits,_ZNKSt14__basic_futureIvE13_M_get_resultEv,comdat
	.size	_ZNKSt14__basic_futureIvE13_M_get_resultEv, .-_ZNKSt14__basic_futureIvE13_M_get_resultEv
	.section	.text._ZNSt15__uniq_ptr_dataINSt13__future_base7_ResultIvEENS0_12_Result_base8_DeleterELb1ELb1EECI2St15__uniq_ptr_implIS2_S4_EEPS2_,"axG",@progbits,_ZNSt15__uniq_ptr_dataINSt13__future_base7_ResultIvEENS0_12_Result_base8_DeleterELb1ELb1EECI5St15__uniq_ptr_implIS2_S4_EEPS2_,comdat
	.align	2
	.weak	_ZNSt15__uniq_ptr_dataINSt13__future_base7_ResultIvEENS0_12_Result_base8_DeleterELb1ELb1EECI2St15__uniq_ptr_implIS2_S4_EEPS2_
	.type	_ZNSt15__uniq_ptr_dataINSt13__future_base7_ResultIvEENS0_12_Result_base8_DeleterELb1ELb1EECI2St15__uniq_ptr_implIS2_S4_EEPS2_, %function
_ZNSt15__uniq_ptr_dataINSt13__future_base7_ResultIvEENS0_12_Result_base8_DeleterELb1ELb1EECI2St15__uniq_ptr_implIS2_S4_EEPS2_:
.LFB3894:
	.cfi_startproc
	stp	x29, x30, [sp, -32]!
	.cfi_def_cfa_offset 32
	.cfi_offset 29, -32
	.cfi_offset 30, -24
	mov	x29, sp
	str	x0, [sp, 24]
	str	x1, [sp, 16]
	ldr	x0, [sp, 24]
	ldr	x1, [sp, 16]
	bl	_ZNSt15__uniq_ptr_implINSt13__future_base7_ResultIvEENS0_12_Result_base8_DeleterEEC2EPS2_
	nop
	ldp	x29, x30, [sp], 32
	.cfi_restore 30
	.cfi_restore 29
	.cfi_def_cfa_offset 0
	ret
	.cfi_endproc
.LFE3894:
	.size	_ZNSt15__uniq_ptr_dataINSt13__future_base7_ResultIvEENS0_12_Result_base8_DeleterELb1ELb1EECI2St15__uniq_ptr_implIS2_S4_EEPS2_, .-_ZNSt15__uniq_ptr_dataINSt13__future_base7_ResultIvEENS0_12_Result_base8_DeleterELb1ELb1EECI2St15__uniq_ptr_implIS2_S4_EEPS2_
	.weak	_ZNSt15__uniq_ptr_dataINSt13__future_base7_ResultIvEENS0_12_Result_base8_DeleterELb1ELb1EECI1St15__uniq_ptr_implIS2_S4_EEPS2_
	.set	_ZNSt15__uniq_ptr_dataINSt13__future_base7_ResultIvEENS0_12_Result_base8_DeleterELb1ELb1EECI1St15__uniq_ptr_implIS2_S4_EEPS2_,_ZNSt15__uniq_ptr_dataINSt13__future_base7_ResultIvEENS0_12_Result_base8_DeleterELb1ELb1EECI2St15__uniq_ptr_implIS2_S4_EEPS2_
	.section	.text._ZNSt10unique_ptrINSt13__future_base7_ResultIvEENS0_12_Result_base8_DeleterEEC2IS4_vEEPS2_,"axG",@progbits,_ZNSt10unique_ptrINSt13__future_base7_ResultIvEENS0_12_Result_base8_DeleterEEC5IS4_vEEPS2_,comdat
	.align	2
	.weak	_ZNSt10unique_ptrINSt13__future_base7_ResultIvEENS0_12_Result_base8_DeleterEEC2IS4_vEEPS2_
	.type	_ZNSt10unique_ptrINSt13__future_base7_ResultIvEENS0_12_Result_base8_DeleterEEC2IS4_vEEPS2_, %function
_ZNSt10unique_ptrINSt13__future_base7_ResultIvEENS0_12_Result_base8_DeleterEEC2IS4_vEEPS2_:
.LFB3896:
	.cfi_startproc
	.cfi_personality 0x9b,DW.ref.__gxx_personality_v0
	.cfi_lsda 0x1b,.LLSDA3896
	stp	x29, x30, [sp, -32]!
	.cfi_def_cfa_offset 32
	.cfi_offset 29, -32
	.cfi_offset 30, -24
	mov	x29, sp
	str	x0, [sp, 24]
	str	x1, [sp, 16]
	ldr	x0, [sp, 24]
	ldr	x1, [sp, 16]
	bl	_ZNSt15__uniq_ptr_dataINSt13__future_base7_ResultIvEENS0_12_Result_base8_DeleterELb1ELb1EECI1St15__uniq_ptr_implIS2_S4_EEPS2_
	nop
	ldp	x29, x30, [sp], 32
	.cfi_restore 30
	.cfi_restore 29
	.cfi_def_cfa_offset 0
	ret
	.cfi_endproc
.LFE3896:
	.section	.gcc_except_table
.LLSDA3896:
	.byte	0xff
	.byte	0xff
	.byte	0x1
	.uleb128 .LLSDACSE3896-.LLSDACSB3896
.LLSDACSB3896:
.LLSDACSE3896:
	.section	.text._ZNSt10unique_ptrINSt13__future_base7_ResultIvEENS0_12_Result_base8_DeleterEEC2IS4_vEEPS2_,"axG",@progbits,_ZNSt10unique_ptrINSt13__future_base7_ResultIvEENS0_12_Result_base8_DeleterEEC5IS4_vEEPS2_,comdat
	.size	_ZNSt10unique_ptrINSt13__future_base7_ResultIvEENS0_12_Result_base8_DeleterEEC2IS4_vEEPS2_, .-_ZNSt10unique_ptrINSt13__future_base7_ResultIvEENS0_12_Result_base8_DeleterEEC2IS4_vEEPS2_
	.weak	_ZNSt10unique_ptrINSt13__future_base7_ResultIvEENS0_12_Result_base8_DeleterEEC1IS4_vEEPS2_
	.set	_ZNSt10unique_ptrINSt13__future_base7_ResultIvEENS0_12_Result_base8_DeleterEEC1IS4_vEEPS2_,_ZNSt10unique_ptrINSt13__future_base7_ResultIvEENS0_12_Result_base8_DeleterEEC2IS4_vEEPS2_
	.section	.text._ZNSt10unique_ptrINSt13__future_base7_ResultIvEENS0_12_Result_base8_DeleterEED2Ev,"axG",@progbits,_ZNSt10unique_ptrINSt13__future_base7_ResultIvEENS0_12_Result_base8_DeleterEED5Ev,comdat
	.align	2
	.weak	_ZNSt10unique_ptrINSt13__future_base7_ResultIvEENS0_12_Result_base8_DeleterEED2Ev
	.type	_ZNSt10unique_ptrINSt13__future_base7_ResultIvEENS0_12_Result_base8_DeleterEED2Ev, %function
_ZNSt10unique_ptrINSt13__future_base7_ResultIvEENS0_12_Result_base8_DeleterEED2Ev:
.LFB3899:
	.cfi_startproc
	.cfi_personality 0x9b,DW.ref.__gxx_personality_v0
	.cfi_lsda 0x1b,.LLSDA3899
	stp	x29, x30, [sp, -64]!
	.cfi_def_cfa_offset 64
	.cfi_offset 29, -64
	.cfi_offset 30, -56
	mov	x29, sp
	str	x19, [sp, 16]
	.cfi_offset 19, -48
	str	x0, [sp, 40]
	ldr	x0, [sp, 40]
	bl	_ZNSt15__uniq_ptr_implINSt13__future_base7_ResultIvEENS0_12_Result_base8_DeleterEE6_M_ptrEv
	str	x0, [sp, 56]
	ldr	x0, [sp, 56]
	ldr	x0, [x0]
	cmp	x0, 0
	beq	.L241
	ldr	x0, [sp, 40]
	bl	_ZNSt10unique_ptrINSt13__future_base7_ResultIvEENS0_12_Result_base8_DeleterEE11get_deleterEv
	mov	x19, x0
	ldr	x0, [sp, 56]
	bl	_ZSt4moveIRPNSt13__future_base7_ResultIvEEEONSt16remove_referenceIT_E4typeEOS6_
	ldr	x0, [x0]
	mov	x1, x0
	mov	x0, x19
	bl	_ZNKSt13__future_base12_Result_base8_DeleterclEPS0_
.L241:
	ldr	x0, [sp, 56]
	str	xzr, [x0]
	nop
	ldr	x19, [sp, 16]
	ldp	x29, x30, [sp], 64
	.cfi_restore 30
	.cfi_restore 29
	.cfi_restore 19
	.cfi_def_cfa_offset 0
	ret
	.cfi_endproc
.LFE3899:
	.section	.gcc_except_table
.LLSDA3899:
	.byte	0xff
	.byte	0xff
	.byte	0x1
	.uleb128 .LLSDACSE3899-.LLSDACSB3899
.LLSDACSB3899:
.LLSDACSE3899:
	.section	.text._ZNSt10unique_ptrINSt13__future_base7_ResultIvEENS0_12_Result_base8_DeleterEED2Ev,"axG",@progbits,_ZNSt10unique_ptrINSt13__future_base7_ResultIvEENS0_12_Result_base8_DeleterEED5Ev,comdat
	.size	_ZNSt10unique_ptrINSt13__future_base7_ResultIvEENS0_12_Result_base8_DeleterEED2Ev, .-_ZNSt10unique_ptrINSt13__future_base7_ResultIvEENS0_12_Result_base8_DeleterEED2Ev
	.weak	_ZNSt10unique_ptrINSt13__future_base7_ResultIvEENS0_12_Result_base8_DeleterEED1Ev
	.set	_ZNSt10unique_ptrINSt13__future_base7_ResultIvEENS0_12_Result_base8_DeleterEED1Ev,_ZNSt10unique_ptrINSt13__future_base7_ResultIvEENS0_12_Result_base8_DeleterEED2Ev
	.section	.text._ZSt4moveIRSt10shared_ptrINSt13__future_base13_State_baseV2EEEONSt16remove_referenceIT_E4typeEOS6_,"axG",@progbits,_ZSt4moveIRSt10shared_ptrINSt13__future_base13_State_baseV2EEEONSt16remove_referenceIT_E4typeEOS6_,comdat
	.align	2
	.weak	_ZSt4moveIRSt10shared_ptrINSt13__future_base13_State_baseV2EEEONSt16remove_referenceIT_E4typeEOS6_
	.type	_ZSt4moveIRSt10shared_ptrINSt13__future_base13_State_baseV2EEEONSt16remove_referenceIT_E4typeEOS6_, %function
_ZSt4moveIRSt10shared_ptrINSt13__future_base13_State_baseV2EEEONSt16remove_referenceIT_E4typeEOS6_:
.LFB3901:
	.cfi_startproc
	sub	sp, sp, #16
	.cfi_def_cfa_offset 16
	str	x0, [sp, 8]
	ldr	x0, [sp, 8]
	add	sp, sp, 16
	.cfi_def_cfa_offset 0
	ret
	.cfi_endproc
.LFE3901:
	.size	_ZSt4moveIRSt10shared_ptrINSt13__future_base13_State_baseV2EEEONSt16remove_referenceIT_E4typeEOS6_, .-_ZSt4moveIRSt10shared_ptrINSt13__future_base13_State_baseV2EEEONSt16remove_referenceIT_E4typeEOS6_
	.section	.text._ZSt4moveIRSt10unique_ptrINSt13__future_base7_ResultIvEENS1_12_Result_base8_DeleterEEEONSt16remove_referenceIT_E4typeEOS9_,"axG",@progbits,_ZSt4moveIRSt10unique_ptrINSt13__future_base7_ResultIvEENS1_12_Result_base8_DeleterEEEONSt16remove_referenceIT_E4typeEOS9_,comdat
	.align	2
	.weak	_ZSt4moveIRSt10unique_ptrINSt13__future_base7_ResultIvEENS1_12_Result_base8_DeleterEEEONSt16remove_referenceIT_E4typeEOS9_
	.type	_ZSt4moveIRSt10unique_ptrINSt13__future_base7_ResultIvEENS1_12_Result_base8_DeleterEEEONSt16remove_referenceIT_E4typeEOS9_, %function
_ZSt4moveIRSt10unique_ptrINSt13__future_base7_ResultIvEENS1_12_Result_base8_DeleterEEEONSt16remove_referenceIT_E4typeEOS9_:
.LFB3902:
	.cfi_startproc
	sub	sp, sp, #16
	.cfi_def_cfa_offset 16
	str	x0, [sp, 8]
	ldr	x0, [sp, 8]
	add	sp, sp, 16
	.cfi_def_cfa_offset 0
	ret
	.cfi_endproc
.LFE3902:
	.size	_ZSt4moveIRSt10unique_ptrINSt13__future_base7_ResultIvEENS1_12_Result_base8_DeleterEEEONSt16remove_referenceIT_E4typeEOS9_, .-_ZSt4moveIRSt10unique_ptrINSt13__future_base7_ResultIvEENS1_12_Result_base8_DeleterEEEONSt16remove_referenceIT_E4typeEOS9_
	.section	.text._ZNSt11_Tuple_implILm0EJPNSt13__future_base7_ResultIvEENS0_12_Result_base8_DeleterEEEC2EOS6_,"axG",@progbits,_ZNSt11_Tuple_implILm0EJPNSt13__future_base7_ResultIvEENS0_12_Result_base8_DeleterEEEC5EOS6_,comdat
	.align	2
	.weak	_ZNSt11_Tuple_implILm0EJPNSt13__future_base7_ResultIvEENS0_12_Result_base8_DeleterEEEC2EOS6_
	.type	_ZNSt11_Tuple_implILm0EJPNSt13__future_base7_ResultIvEENS0_12_Result_base8_DeleterEEEC2EOS6_, %function
_ZNSt11_Tuple_implILm0EJPNSt13__future_base7_ResultIvEENS0_12_Result_base8_DeleterEEEC2EOS6_:
.LFB3909:
	.cfi_startproc
	stp	x29, x30, [sp, -32]!
	.cfi_def_cfa_offset 32
	.cfi_offset 29, -32
	.cfi_offset 30, -24
	mov	x29, sp
	str	x0, [sp, 24]
	str	x1, [sp, 16]
	ldr	x1, [sp, 16]
	ldr	x0, [sp, 24]
	bl	_ZNSt11_Tuple_implILm1EJNSt13__future_base12_Result_base8_DeleterEEEC2EOS3_
	ldr	x0, [sp, 24]
	ldr	x1, [sp, 16]
	ldr	x1, [x1]
	str	x1, [x0]
	nop
	ldp	x29, x30, [sp], 32
	.cfi_restore 30
	.cfi_restore 29
	.cfi_def_cfa_offset 0
	ret
	.cfi_endproc
.LFE3909:
	.size	_ZNSt11_Tuple_implILm0EJPNSt13__future_base7_ResultIvEENS0_12_Result_base8_DeleterEEEC2EOS6_, .-_ZNSt11_Tuple_implILm0EJPNSt13__future_base7_ResultIvEENS0_12_Result_base8_DeleterEEEC2EOS6_
	.weak	_ZNSt11_Tuple_implILm0EJPNSt13__future_base7_ResultIvEENS0_12_Result_base8_DeleterEEEC1EOS6_
	.set	_ZNSt11_Tuple_implILm0EJPNSt13__future_base7_ResultIvEENS0_12_Result_base8_DeleterEEEC1EOS6_,_ZNSt11_Tuple_implILm0EJPNSt13__future_base7_ResultIvEENS0_12_Result_base8_DeleterEEEC2EOS6_
	.section	.text._ZNSt5tupleIJPNSt13__future_base7_ResultIvEENS0_12_Result_base8_DeleterEEEC2EOS6_,"axG",@progbits,_ZNSt5tupleIJPNSt13__future_base7_ResultIvEENS0_12_Result_base8_DeleterEEEC5EOS6_,comdat
	.align	2
	.weak	_ZNSt5tupleIJPNSt13__future_base7_ResultIvEENS0_12_Result_base8_DeleterEEEC2EOS6_
	.type	_ZNSt5tupleIJPNSt13__future_base7_ResultIvEENS0_12_Result_base8_DeleterEEEC2EOS6_, %function
_ZNSt5tupleIJPNSt13__future_base7_ResultIvEENS0_12_Result_base8_DeleterEEEC2EOS6_:
.LFB3911:
	.cfi_startproc
	stp	x29, x30, [sp, -32]!
	.cfi_def_cfa_offset 32
	.cfi_offset 29, -32
	.cfi_offset 30, -24
	mov	x29, sp
	str	x0, [sp, 24]
	str	x1, [sp, 16]
	ldr	x0, [sp, 24]
	ldr	x1, [sp, 16]
	bl	_ZNSt11_Tuple_implILm0EJPNSt13__future_base7_ResultIvEENS0_12_Result_base8_DeleterEEEC2EOS6_
	nop
	ldp	x29, x30, [sp], 32
	.cfi_restore 30
	.cfi_restore 29
	.cfi_def_cfa_offset 0
	ret
	.cfi_endproc
.LFE3911:
	.size	_ZNSt5tupleIJPNSt13__future_base7_ResultIvEENS0_12_Result_base8_DeleterEEEC2EOS6_, .-_ZNSt5tupleIJPNSt13__future_base7_ResultIvEENS0_12_Result_base8_DeleterEEEC2EOS6_
	.weak	_ZNSt5tupleIJPNSt13__future_base7_ResultIvEENS0_12_Result_base8_DeleterEEEC1EOS6_
	.set	_ZNSt5tupleIJPNSt13__future_base7_ResultIvEENS0_12_Result_base8_DeleterEEEC1EOS6_,_ZNSt5tupleIJPNSt13__future_base7_ResultIvEENS0_12_Result_base8_DeleterEEEC2EOS6_
	.section	.text._ZNSt15__uniq_ptr_implINSt13__future_base7_ResultIvEENS0_12_Result_base8_DeleterEEC2EOS5_,"axG",@progbits,_ZNSt15__uniq_ptr_implINSt13__future_base7_ResultIvEENS0_12_Result_base8_DeleterEEC5EOS5_,comdat
	.align	2
	.weak	_ZNSt15__uniq_ptr_implINSt13__future_base7_ResultIvEENS0_12_Result_base8_DeleterEEC2EOS5_
	.type	_ZNSt15__uniq_ptr_implINSt13__future_base7_ResultIvEENS0_12_Result_base8_DeleterEEC2EOS5_, %function
_ZNSt15__uniq_ptr_implINSt13__future_base7_ResultIvEENS0_12_Result_base8_DeleterEEC2EOS5_:
.LFB3913:
	.cfi_startproc
	stp	x29, x30, [sp, -48]!
	.cfi_def_cfa_offset 48
	.cfi_offset 29, -48
	.cfi_offset 30, -40
	mov	x29, sp
	str	x19, [sp, 16]
	.cfi_offset 19, -32
	str	x0, [sp, 40]
	str	x1, [sp, 32]
	ldr	x19, [sp, 40]
	ldr	x0, [sp, 32]
	bl	_ZSt4moveIRSt5tupleIJPNSt13__future_base7_ResultIvEENS1_12_Result_base8_DeleterEEEEONSt16remove_referenceIT_E4typeEOSA_
	mov	x1, x0
	mov	x0, x19
	bl	_ZNSt5tupleIJPNSt13__future_base7_ResultIvEENS0_12_Result_base8_DeleterEEEC1EOS6_
	ldr	x0, [sp, 32]
	bl	_ZNSt15__uniq_ptr_implINSt13__future_base7_ResultIvEENS0_12_Result_base8_DeleterEE6_M_ptrEv
	str	xzr, [x0]
	nop
	ldr	x19, [sp, 16]
	ldp	x29, x30, [sp], 48
	.cfi_restore 30
	.cfi_restore 29
	.cfi_restore 19
	.cfi_def_cfa_offset 0
	ret
	.cfi_endproc
.LFE3913:
	.size	_ZNSt15__uniq_ptr_implINSt13__future_base7_ResultIvEENS0_12_Result_base8_DeleterEEC2EOS5_, .-_ZNSt15__uniq_ptr_implINSt13__future_base7_ResultIvEENS0_12_Result_base8_DeleterEEC2EOS5_
	.weak	_ZNSt15__uniq_ptr_implINSt13__future_base7_ResultIvEENS0_12_Result_base8_DeleterEEC1EOS5_
	.set	_ZNSt15__uniq_ptr_implINSt13__future_base7_ResultIvEENS0_12_Result_base8_DeleterEEC1EOS5_,_ZNSt15__uniq_ptr_implINSt13__future_base7_ResultIvEENS0_12_Result_base8_DeleterEEC2EOS5_
	.section	.text._ZNKSt12__shared_ptrINSt13__future_base13_State_baseV2ELN9__gnu_cxx12_Lock_policyE2EEcvbEv,"axG",@progbits,_ZNKSt12__shared_ptrINSt13__future_base13_State_baseV2ELN9__gnu_cxx12_Lock_policyE2EEcvbEv,comdat
	.align	2
	.weak	_ZNKSt12__shared_ptrINSt13__future_base13_State_baseV2ELN9__gnu_cxx12_Lock_policyE2EEcvbEv
	.type	_ZNKSt12__shared_ptrINSt13__future_base13_State_baseV2ELN9__gnu_cxx12_Lock_policyE2EEcvbEv, %function
_ZNKSt12__shared_ptrINSt13__future_base13_State_baseV2ELN9__gnu_cxx12_Lock_policyE2EEcvbEv:
.LFB3915:
	.cfi_startproc
	sub	sp, sp, #16
	.cfi_def_cfa_offset 16
	str	x0, [sp, 8]
	ldr	x0, [sp, 8]
	ldr	x0, [x0]
	cmp	x0, 0
	cset	w0, ne
	and	w0, w0, 255
	add	sp, sp, 16
	.cfi_def_cfa_offset 0
	ret
	.cfi_endproc
.LFE3915:
	.size	_ZNKSt12__shared_ptrINSt13__future_base13_State_baseV2ELN9__gnu_cxx12_Lock_policyE2EEcvbEv, .-_ZNKSt12__shared_ptrINSt13__future_base13_State_baseV2ELN9__gnu_cxx12_Lock_policyE2EEcvbEv
	.section	.text._ZNKSt19__shared_ptr_accessINSt13__future_base13_State_baseV2ELN9__gnu_cxx12_Lock_policyE2ELb0ELb0EEptEv,"axG",@progbits,_ZNKSt19__shared_ptr_accessINSt13__future_base13_State_baseV2ELN9__gnu_cxx12_Lock_policyE2ELb0ELb0EEptEv,comdat
	.align	2
	.weak	_ZNKSt19__shared_ptr_accessINSt13__future_base13_State_baseV2ELN9__gnu_cxx12_Lock_policyE2ELb0ELb0EEptEv
	.type	_ZNKSt19__shared_ptr_accessINSt13__future_base13_State_baseV2ELN9__gnu_cxx12_Lock_policyE2ELb0ELb0EEptEv, %function
_ZNKSt19__shared_ptr_accessINSt13__future_base13_State_baseV2ELN9__gnu_cxx12_Lock_policyE2ELb0ELb0EEptEv:
.LFB3917:
	.cfi_startproc
	stp	x29, x30, [sp, -32]!
	.cfi_def_cfa_offset 32
	.cfi_offset 29, -32
	.cfi_offset 30, -24
	mov	x29, sp
	str	x0, [sp, 24]
	ldr	x0, [sp, 24]
	bl	_ZNKSt19__shared_ptr_accessINSt13__future_base13_State_baseV2ELN9__gnu_cxx12_Lock_policyE2ELb0ELb0EE6_M_getEv
	ldp	x29, x30, [sp], 32
	.cfi_restore 30
	.cfi_restore 29
	.cfi_def_cfa_offset 0
	ret
	.cfi_endproc
.LFE3917:
	.size	_ZNKSt19__shared_ptr_accessINSt13__future_base13_State_baseV2ELN9__gnu_cxx12_Lock_policyE2ELb0ELb0EEptEv, .-_ZNKSt19__shared_ptr_accessINSt13__future_base13_State_baseV2ELN9__gnu_cxx12_Lock_policyE2ELb0ELb0EEptEv
	.section	.text._ZNSt15__uniq_ptr_dataINSt13__future_base12_Result_baseENS1_8_DeleterELb1ELb1EECI2St15__uniq_ptr_implIS1_S2_EIS2_EEPS1_OT_,"axG",@progbits,_ZNSt15__uniq_ptr_dataINSt13__future_base12_Result_baseENS1_8_DeleterELb1ELb1EECI5St15__uniq_ptr_implIS1_S2_EIS2_EEPS1_OT_,comdat
	.align	2
	.weak	_ZNSt15__uniq_ptr_dataINSt13__future_base12_Result_baseENS1_8_DeleterELb1ELb1EECI2St15__uniq_ptr_implIS1_S2_EIS2_EEPS1_OT_
	.type	_ZNSt15__uniq_ptr_dataINSt13__future_base12_Result_baseENS1_8_DeleterELb1ELb1EECI2St15__uniq_ptr_implIS1_S2_EIS2_EEPS1_OT_, %function
_ZNSt15__uniq_ptr_dataINSt13__future_base12_Result_baseENS1_8_DeleterELb1ELb1EECI2St15__uniq_ptr_implIS1_S2_EIS2_EEPS1_OT_:
.LFB3920:
	.cfi_startproc
	stp	x29, x30, [sp, -48]!
	.cfi_def_cfa_offset 48
	.cfi_offset 29, -48
	.cfi_offset 30, -40
	mov	x29, sp
	str	x0, [sp, 40]
	str	x1, [sp, 32]
	str	x2, [sp, 24]
	ldr	x0, [sp, 40]
	ldr	x1, [sp, 32]
	ldr	x2, [sp, 24]
	bl	_ZNSt15__uniq_ptr_implINSt13__future_base12_Result_baseENS1_8_DeleterEEC2IS2_EEPS1_OT_
	nop
	ldp	x29, x30, [sp], 48
	.cfi_restore 30
	.cfi_restore 29
	.cfi_def_cfa_offset 0
	ret
	.cfi_endproc
.LFE3920:
	.size	_ZNSt15__uniq_ptr_dataINSt13__future_base12_Result_baseENS1_8_DeleterELb1ELb1EECI2St15__uniq_ptr_implIS1_S2_EIS2_EEPS1_OT_, .-_ZNSt15__uniq_ptr_dataINSt13__future_base12_Result_baseENS1_8_DeleterELb1ELb1EECI2St15__uniq_ptr_implIS1_S2_EIS2_EEPS1_OT_
	.weak	_ZNSt15__uniq_ptr_dataINSt13__future_base12_Result_baseENS1_8_DeleterELb1ELb1EECI1St15__uniq_ptr_implIS1_S2_EIS2_EEPS1_OT_
	.set	_ZNSt15__uniq_ptr_dataINSt13__future_base12_Result_baseENS1_8_DeleterELb1ELb1EECI1St15__uniq_ptr_implIS1_S2_EIS2_EEPS1_OT_,_ZNSt15__uniq_ptr_dataINSt13__future_base12_Result_baseENS1_8_DeleterELb1ELb1EECI2St15__uniq_ptr_implIS1_S2_EIS2_EEPS1_OT_
	.section	.text._ZNSt10unique_ptrINSt13__future_base12_Result_baseENS1_8_DeleterEEC2INS0_7_ResultIvEES2_vEEOS_IT_T0_E,"axG",@progbits,_ZNSt10unique_ptrINSt13__future_base12_Result_baseENS1_8_DeleterEEC5INS0_7_ResultIvEES2_vEEOS_IT_T0_E,comdat
	.align	2
	.weak	_ZNSt10unique_ptrINSt13__future_base12_Result_baseENS1_8_DeleterEEC2INS0_7_ResultIvEES2_vEEOS_IT_T0_E
	.type	_ZNSt10unique_ptrINSt13__future_base12_Result_baseENS1_8_DeleterEEC2INS0_7_ResultIvEES2_vEEOS_IT_T0_E, %function
_ZNSt10unique_ptrINSt13__future_base12_Result_baseENS1_8_DeleterEEC2INS0_7_ResultIvEES2_vEEOS_IT_T0_E:
.LFB3922:
	.cfi_startproc
	.cfi_personality 0x9b,DW.ref.__gxx_personality_v0
	.cfi_lsda 0x1b,.LLSDA3922
	stp	x29, x30, [sp, -48]!
	.cfi_def_cfa_offset 48
	.cfi_offset 29, -48
	.cfi_offset 30, -40
	mov	x29, sp
	stp	x19, x20, [sp, 16]
	.cfi_offset 19, -32
	.cfi_offset 20, -24
	str	x0, [sp, 40]
	str	x1, [sp, 32]
	ldr	x19, [sp, 40]
	ldr	x0, [sp, 32]
	bl	_ZNSt10unique_ptrINSt13__future_base7_ResultIvEENS0_12_Result_base8_DeleterEE7releaseEv
	mov	x20, x0
	ldr	x0, [sp, 32]
	bl	_ZNSt10unique_ptrINSt13__future_base7_ResultIvEENS0_12_Result_base8_DeleterEE11get_deleterEv
	bl	_ZSt7forwardINSt13__future_base12_Result_base8_DeleterEEOT_RNSt16remove_referenceIS3_E4typeE
	mov	x2, x0
	mov	x1, x20
	mov	x0, x19
	bl	_ZNSt15__uniq_ptr_dataINSt13__future_base12_Result_baseENS1_8_DeleterELb1ELb1EECI1St15__uniq_ptr_implIS1_S2_EIS2_EEPS1_OT_
	nop
	ldp	x19, x20, [sp, 16]
	ldp	x29, x30, [sp], 48
	.cfi_restore 30
	.cfi_restore 29
	.cfi_restore 19
	.cfi_restore 20
	.cfi_def_cfa_offset 0
	ret
	.cfi_endproc
.LFE3922:
	.section	.gcc_except_table
.LLSDA3922:
	.byte	0xff
	.byte	0xff
	.byte	0x1
	.uleb128 .LLSDACSE3922-.LLSDACSB3922
.LLSDACSB3922:
.LLSDACSE3922:
	.section	.text._ZNSt10unique_ptrINSt13__future_base12_Result_baseENS1_8_DeleterEEC2INS0_7_ResultIvEES2_vEEOS_IT_T0_E,"axG",@progbits,_ZNSt10unique_ptrINSt13__future_base12_Result_baseENS1_8_DeleterEEC5INS0_7_ResultIvEES2_vEEOS_IT_T0_E,comdat
	.size	_ZNSt10unique_ptrINSt13__future_base12_Result_baseENS1_8_DeleterEEC2INS0_7_ResultIvEES2_vEEOS_IT_T0_E, .-_ZNSt10unique_ptrINSt13__future_base12_Result_baseENS1_8_DeleterEEC2INS0_7_ResultIvEES2_vEEOS_IT_T0_E
	.weak	_ZNSt10unique_ptrINSt13__future_base12_Result_baseENS1_8_DeleterEEC1INS0_7_ResultIvEES2_vEEOS_IT_T0_E
	.set	_ZNSt10unique_ptrINSt13__future_base12_Result_baseENS1_8_DeleterEEC1INS0_7_ResultIvEES2_vEEOS_IT_T0_E,_ZNSt10unique_ptrINSt13__future_base12_Result_baseENS1_8_DeleterEEC2INS0_7_ResultIvEES2_vEEOS_IT_T0_E
	.section	.text._ZNSt12__shared_ptrINSt13__future_base13_State_baseV2ELN9__gnu_cxx12_Lock_policyE2EE4swapERS4_,"axG",@progbits,_ZNSt12__shared_ptrINSt13__future_base13_State_baseV2ELN9__gnu_cxx12_Lock_policyE2EE4swapERS4_,comdat
	.align	2
	.weak	_ZNSt12__shared_ptrINSt13__future_base13_State_baseV2ELN9__gnu_cxx12_Lock_policyE2EE4swapERS4_
	.type	_ZNSt12__shared_ptrINSt13__future_base13_State_baseV2ELN9__gnu_cxx12_Lock_policyE2EE4swapERS4_, %function
_ZNSt12__shared_ptrINSt13__future_base13_State_baseV2ELN9__gnu_cxx12_Lock_policyE2EE4swapERS4_:
.LFB3925:
	.cfi_startproc
	stp	x29, x30, [sp, -32]!
	.cfi_def_cfa_offset 32
	.cfi_offset 29, -32
	.cfi_offset 30, -24
	mov	x29, sp
	str	x0, [sp, 24]
	str	x1, [sp, 16]
	ldr	x0, [sp, 24]
	ldr	x1, [sp, 16]
	bl	_ZSt4swapIPNSt13__future_base13_State_baseV2EENSt9enable_ifIXsrSt6__and_IJSt6__not_ISt15__is_tuple_likeIT_EESt21is_move_constructibleIS7_ESt18is_move_assignableIS7_EEE5valueEvE4typeERS7_SH_
	ldr	x0, [sp, 24]
	add	x2, x0, 8
	ldr	x0, [sp, 16]
	add	x0, x0, 8
	mov	x1, x0
	mov	x0, x2
	bl	_ZNSt14__shared_countILN9__gnu_cxx12_Lock_policyE2EE7_M_swapERS2_
	nop
	ldp	x29, x30, [sp], 32
	.cfi_restore 30
	.cfi_restore 29
	.cfi_def_cfa_offset 0
	ret
	.cfi_endproc
.LFE3925:
	.size	_ZNSt12__shared_ptrINSt13__future_base13_State_baseV2ELN9__gnu_cxx12_Lock_policyE2EE4swapERS4_, .-_ZNSt12__shared_ptrINSt13__future_base13_State_baseV2ELN9__gnu_cxx12_Lock_policyE2EE4swapERS4_
	.section	.text._ZNSt14_Function_baseC2Ev,"axG",@progbits,_ZNSt14_Function_baseC5Ev,comdat
	.align	2
	.weak	_ZNSt14_Function_baseC2Ev
	.type	_ZNSt14_Function_baseC2Ev, %function
_ZNSt14_Function_baseC2Ev:
.LFB3931:
	.cfi_startproc
	sub	sp, sp, #16
	.cfi_def_cfa_offset 16
	str	x0, [sp, 8]
	ldr	x0, [sp, 8]
	stp	xzr, xzr, [x0]
	ldr	x0, [sp, 8]
	str	xzr, [x0, 16]
	nop
	add	sp, sp, 16
	.cfi_def_cfa_offset 0
	ret
	.cfi_endproc
.LFE3931:
	.size	_ZNSt14_Function_baseC2Ev, .-_ZNSt14_Function_baseC2Ev
	.weak	_ZNSt14_Function_baseC1Ev
	.set	_ZNSt14_Function_baseC1Ev,_ZNSt14_Function_baseC2Ev
	.section	.text._ZNSt13__future_base13_State_baseV28_S_checkIS0_EEvRKSt10shared_ptrIT_E,"axG",@progbits,_ZNSt13__future_base13_State_baseV28_S_checkIS0_EEvRKSt10shared_ptrIT_E,comdat
	.align	2
	.weak	_ZNSt13__future_base13_State_baseV28_S_checkIS0_EEvRKSt10shared_ptrIT_E
	.type	_ZNSt13__future_base13_State_baseV28_S_checkIS0_EEvRKSt10shared_ptrIT_E, %function
_ZNSt13__future_base13_State_baseV28_S_checkIS0_EEvRKSt10shared_ptrIT_E:
.LFB3942:
	.cfi_startproc
	stp	x29, x30, [sp, -32]!
	.cfi_def_cfa_offset 32
	.cfi_offset 29, -32
	.cfi_offset 30, -24
	mov	x29, sp
	str	x0, [sp, 24]
	ldr	x0, [sp, 24]
	bl	_ZNKSt12__shared_ptrINSt13__future_base13_State_baseV2ELN9__gnu_cxx12_Lock_policyE2EEcvbEv
	and	w0, w0, 255
	eor	w0, w0, 1
	and	w0, w0, 255
	cmp	w0, 0
	beq	.L259
	mov	w0, 3
	bl	_ZSt20__throw_future_errori
.L259:
	nop
	ldp	x29, x30, [sp], 32
	.cfi_restore 30
	.cfi_restore 29
	.cfi_def_cfa_offset 0
	ret
	.cfi_endproc
.LFE3942:
	.size	_ZNSt13__future_base13_State_baseV28_S_checkIS0_EEvRKSt10shared_ptrIT_E, .-_ZNSt13__future_base13_State_baseV28_S_checkIS0_EEvRKSt10shared_ptrIT_E
	.section	.text._ZZSt9call_onceIMSt6threadFvvEJPS0_EEvRSt9once_flagOT_DpOT0_ENKUlvE_clEv,"axG",@progbits,_ZZSt9call_onceIMSt6threadFvvEJPS0_EEvRSt9once_flagOT_DpOT0_ENKUlvE_clEv,comdat
	.align	2
	.weak	_ZZSt9call_onceIMSt6threadFvvEJPS0_EEvRSt9once_flagOT_DpOT0_ENKUlvE_clEv
	.type	_ZZSt9call_onceIMSt6threadFvvEJPS0_EEvRSt9once_flagOT_DpOT0_ENKUlvE_clEv, %function
_ZZSt9call_onceIMSt6threadFvvEJPS0_EEvRSt9once_flagOT_DpOT0_ENKUlvE_clEv:
.LFB3945:
	.cfi_startproc
	stp	x29, x30, [sp, -48]!
	.cfi_def_cfa_offset 48
	.cfi_offset 29, -48
	.cfi_offset 30, -40
	mov	x29, sp
	str	x19, [sp, 16]
	.cfi_offset 19, -32
	str	x0, [sp, 40]
	ldr	x0, [sp, 40]
	ldr	x0, [x0]
	bl	_ZSt7forwardIMSt6threadFvvEEOT_RNSt16remove_referenceIS3_E4typeE
	mov	x19, x0
	ldr	x0, [sp, 40]
	ldr	x0, [x0, 8]
	bl	_ZSt7forwardIPSt6threadEOT_RNSt16remove_referenceIS2_E4typeE
	mov	x1, x0
	mov	x0, x19
	bl	_ZSt8__invokeIMSt6threadFvvEJPS0_EENSt15__invoke_resultIT_JDpT0_EE4typeEOS5_DpOS6_
	nop
	ldr	x19, [sp, 16]
	ldp	x29, x30, [sp], 48
	.cfi_restore 30
	.cfi_restore 29
	.cfi_restore 19
	.cfi_def_cfa_offset 0
	ret
	.cfi_endproc
.LFE3945:
	.size	_ZZSt9call_onceIMSt6threadFvvEJPS0_EEvRSt9once_flagOT_DpOT0_ENKUlvE_clEv, .-_ZZSt9call_onceIMSt6threadFvvEJPS0_EEvRSt9once_flagOT_DpOT0_ENKUlvE_clEv
	.section	.text._ZSt9call_onceIMSt6threadFvvEJPS0_EEvRSt9once_flagOT_DpOT0_,"axG",@progbits,_ZSt9call_onceIMSt6threadFvvEJPS0_EEvRSt9once_flagOT_DpOT0_,comdat
	.align	2
	.weak	_ZSt9call_onceIMSt6threadFvvEJPS0_EEvRSt9once_flagOT_DpOT0_
	.type	_ZSt9call_onceIMSt6threadFvvEJPS0_EEvRSt9once_flagOT_DpOT0_, %function
_ZSt9call_onceIMSt6threadFvvEJPS0_EEvRSt9once_flagOT_DpOT0_:
.LFB3944:
	.cfi_startproc
	.cfi_personality 0x9b,DW.ref.__gxx_personality_v0
	.cfi_lsda 0x1b,.LLSDA3944
	stp	x29, x30, [sp, -96]!
	.cfi_def_cfa_offset 96
	.cfi_offset 29, -96
	.cfi_offset 30, -88
	mov	x29, sp
	str	x19, [sp, 16]
	.cfi_offset 19, -80
	str	x0, [sp, 56]
	str	x1, [sp, 48]
	str	x2, [sp, 40]
	adrp	x0, :got:__stack_chk_guard
	ldr	x0, [x0, #:got_lo12:__stack_chk_guard]
	ldr	x1, [x0]
	str	x1, [sp, 88]
	mov	x1, 0
	ldr	x0, [sp, 48]
	str	x0, [sp, 72]
	ldr	x0, [sp, 40]
	str	x0, [sp, 80]
	add	x1, sp, 72
	add	x0, sp, 64
	bl	_ZNSt9once_flag18_Prepare_executionC1IZSt9call_onceIMSt6threadFvvEJPS3_EEvRS_OT_DpOT0_EUlvE_EERS8_
	ldr	x2, [sp, 56]
	adrp	x0, :got:__once_proxy
	ldr	x1, [x0, #:got_lo12:__once_proxy]
	mov	x0, x2
.LEHB16:
	bl	_ZL14__gthread_oncePiPFvvE
	str	w0, [sp, 68]
	ldr	w0, [sp, 68]
	cmp	w0, 0
	beq	.L262
	ldr	w0, [sp, 68]
	bl	_ZSt20__throw_system_errori
.LEHE16:
.L262:
	add	x0, sp, 64
	bl	_ZNSt9once_flag18_Prepare_executionD1Ev
	adrp	x0, :got:__stack_chk_guard
	ldr	x0, [x0, #:got_lo12:__stack_chk_guard]
	ldr	x2, [sp, 88]
	ldr	x1, [x0]
	subs	x2, x2, x1
	mov	x1, 0
	beq	.L264
	b	.L266
.L265:
	mov	x19, x0
	add	x0, sp, 64
	bl	_ZNSt9once_flag18_Prepare_executionD1Ev
	mov	x0, x19
.LEHB17:
	bl	_Unwind_Resume
.LEHE17:
.L266:
	bl	__stack_chk_fail
.L264:
	ldr	x19, [sp, 16]
	ldp	x29, x30, [sp], 96
	.cfi_restore 30
	.cfi_restore 29
	.cfi_restore 19
	.cfi_def_cfa_offset 0
	ret
	.cfi_endproc
.LFE3944:
	.section	.gcc_except_table
.LLSDA3944:
	.byte	0xff
	.byte	0xff
	.byte	0x1
	.uleb128 .LLSDACSE3944-.LLSDACSB3944
.LLSDACSB3944:
	.uleb128 .LEHB16-.LFB3944
	.uleb128 .LEHE16-.LEHB16
	.uleb128 .L265-.LFB3944
	.uleb128 0
	.uleb128 .LEHB17-.LFB3944
	.uleb128 .LEHE17-.LEHB17
	.uleb128 0
	.uleb128 0
.LLSDACSE3944:
	.section	.text._ZSt9call_onceIMSt6threadFvvEJPS0_EEvRSt9once_flagOT_DpOT0_,"axG",@progbits,_ZSt9call_onceIMSt6threadFvvEJPS0_EEvRSt9once_flagOT_DpOT0_,comdat
	.size	_ZSt9call_onceIMSt6threadFvvEJPS0_EEvRSt9once_flagOT_DpOT0_, .-_ZSt9call_onceIMSt6threadFvvEJPS0_EEvRSt9once_flagOT_DpOT0_
	.text
	.align	2
	.type	_ZSt5asyncIZ4testvEUlvE_JEESt6futureINSt15__invoke_resultINSt5decayIT_E4typeEJDpNS3_IT0_E4typeEEE4typeEEOS4_DpOS7_, %function
_ZSt5asyncIZ4testvEUlvE_JEESt6futureINSt15__invoke_resultINSt5decayIT_E4typeEJDpNS3_IT0_E4typeEEE4typeEEOS4_DpOS7_:
.LFB3950:
	.cfi_startproc
	stp	x29, x30, [sp, -64]!
	.cfi_def_cfa_offset 64
	.cfi_offset 29, -64
	.cfi_offset 30, -56
	mov	x29, sp
	stp	x19, x20, [sp, 16]
	.cfi_offset 19, -48
	.cfi_offset 20, -40
	mov	x19, x8
	str	x0, [sp, 40]
	adrp	x0, :got:__stack_chk_guard
	ldr	x0, [x0, #:got_lo12:__stack_chk_guard]
	ldr	x1, [x0]
	str	x1, [sp, 56]
	mov	x1, 0
	mov	w1, 2
	mov	w0, 1
	bl	_ZStorSt6launchS_
	mov	w20, w0
	ldr	x0, [sp, 40]
	bl	_ZSt7forwardIZ4testvEUlvE_EOT_RNSt16remove_referenceIS1_E4typeE
	mov	x8, x19
	mov	x1, x0
	mov	w0, w20
	bl	_ZSt5asyncIZ4testvEUlvE_JEESt6futureINSt15__invoke_resultINSt5decayIT_E4typeEJDpNS3_IT0_E4typeEEE4typeEESt6launchOS4_DpOS7_
	adrp	x0, :got:__stack_chk_guard
	ldr	x0, [x0, #:got_lo12:__stack_chk_guard]
	ldr	x2, [sp, 56]
	ldr	x1, [x0]
	subs	x2, x2, x1
	mov	x1, 0
	beq	.L269
	bl	__stack_chk_fail
.L269:
	mov	x0, x19
	ldp	x19, x20, [sp, 16]
	ldp	x29, x30, [sp], 64
	.cfi_restore 30
	.cfi_restore 29
	.cfi_restore 19
	.cfi_restore 20
	.cfi_def_cfa_offset 0
	ret
	.cfi_endproc
.LFE3950:
	.size	_ZSt5asyncIZ4testvEUlvE_JEESt6futureINSt15__invoke_resultINSt5decayIT_E4typeEJDpNS3_IT0_E4typeEEE4typeEEOS4_DpOS7_, .-_ZSt5asyncIZ4testvEUlvE_JEESt6futureINSt15__invoke_resultINSt5decayIT_E4typeEJDpNS3_IT0_E4typeEEE4typeEEOS4_DpOS7_
	.section	.text._ZNSt6chrono8durationIlSt5ratioILl1ELl1EEEC2IivEERKT_,"axG",@progbits,_ZNSt6chrono8durationIlSt5ratioILl1ELl1EEEC5IivEERKT_,comdat
	.align	2
	.weak	_ZNSt6chrono8durationIlSt5ratioILl1ELl1EEEC2IivEERKT_
	.type	_ZNSt6chrono8durationIlSt5ratioILl1ELl1EEEC2IivEERKT_, %function
_ZNSt6chrono8durationIlSt5ratioILl1ELl1EEEC2IivEERKT_:
.LFB3952:
	.cfi_startproc
	sub	sp, sp, #16
	.cfi_def_cfa_offset 16
	str	x0, [sp, 8]
	str	x1, [sp]
	ldr	x0, [sp]
	ldr	w0, [x0]
	sxtw	x1, w0
	ldr	x0, [sp, 8]
	str	x1, [x0]
	nop
	add	sp, sp, 16
	.cfi_def_cfa_offset 0
	ret
	.cfi_endproc
.LFE3952:
	.size	_ZNSt6chrono8durationIlSt5ratioILl1ELl1EEEC2IivEERKT_, .-_ZNSt6chrono8durationIlSt5ratioILl1ELl1EEEC2IivEERKT_
	.weak	_ZNSt6chrono8durationIlSt5ratioILl1ELl1EEEC1IivEERKT_
	.set	_ZNSt6chrono8durationIlSt5ratioILl1ELl1EEEC1IivEERKT_,_ZNSt6chrono8durationIlSt5ratioILl1ELl1EEEC2IivEERKT_
	.section	.text._ZNSt6chronoleIlSt5ratioILl1ELl1EElS2_EEbRKNS_8durationIT_T0_EERKNS3_IT1_T2_EE,"axG",@progbits,_ZNSt6chronoleIlSt5ratioILl1ELl1EElS2_EEbRKNS_8durationIT_T0_EERKNS3_IT1_T2_EE,comdat
	.align	2
	.weak	_ZNSt6chronoleIlSt5ratioILl1ELl1EElS2_EEbRKNS_8durationIT_T0_EERKNS3_IT1_T2_EE
	.type	_ZNSt6chronoleIlSt5ratioILl1ELl1EElS2_EEbRKNS_8durationIT_T0_EERKNS3_IT1_T2_EE, %function
_ZNSt6chronoleIlSt5ratioILl1ELl1EElS2_EEbRKNS_8durationIT_T0_EERKNS3_IT1_T2_EE:
.LFB3955:
	.cfi_startproc
	stp	x29, x30, [sp, -32]!
	.cfi_def_cfa_offset 32
	.cfi_offset 29, -32
	.cfi_offset 30, -24
	mov	x29, sp
	str	x0, [sp, 24]
	str	x1, [sp, 16]
	ldr	x1, [sp, 24]
	ldr	x0, [sp, 16]
	bl	_ZNSt6chronoltIlSt5ratioILl1ELl1EElS2_EEbRKNS_8durationIT_T0_EERKNS3_IT1_T2_EE
	and	w0, w0, 255
	eor	w0, w0, 1
	and	w0, w0, 255
	ldp	x29, x30, [sp], 32
	.cfi_restore 30
	.cfi_restore 29
	.cfi_def_cfa_offset 0
	ret
	.cfi_endproc
.LFE3955:
	.size	_ZNSt6chronoleIlSt5ratioILl1ELl1EElS2_EEbRKNS_8durationIT_T0_EERKNS3_IT1_T2_EE, .-_ZNSt6chronoleIlSt5ratioILl1ELl1EElS2_EEbRKNS_8durationIT_T0_EERKNS3_IT1_T2_EE
	.section	.text._ZNSt6chrono8durationIlSt5ratioILl1ELl1EEE4zeroEv,"axG",@progbits,_ZNSt6chrono8durationIlSt5ratioILl1ELl1EEE4zeroEv,comdat
	.align	2
	.weak	_ZNSt6chrono8durationIlSt5ratioILl1ELl1EEE4zeroEv
	.type	_ZNSt6chrono8durationIlSt5ratioILl1ELl1EEE4zeroEv, %function
_ZNSt6chrono8durationIlSt5ratioILl1ELl1EEE4zeroEv:
.LFB3956:
	.cfi_startproc
	stp	x29, x30, [sp, -48]!
	.cfi_def_cfa_offset 48
	.cfi_offset 29, -48
	.cfi_offset 30, -40
	mov	x29, sp
	adrp	x0, :got:__stack_chk_guard
	ldr	x0, [x0, #:got_lo12:__stack_chk_guard]
	ldr	x1, [x0]
	str	x1, [sp, 40]
	mov	x1, 0
	bl	_ZNSt6chrono15duration_valuesIlE4zeroEv
	str	x0, [sp, 24]
	add	x1, sp, 24
	add	x0, sp, 32
	bl	_ZNSt6chrono8durationIlSt5ratioILl1ELl1EEEC1IlvEERKT_
	ldr	x0, [sp, 32]
	mov	x1, x0
	adrp	x0, :got:__stack_chk_guard
	ldr	x0, [x0, #:got_lo12:__stack_chk_guard]
	ldr	x3, [sp, 40]
	ldr	x2, [x0]
	subs	x3, x3, x2
	mov	x2, 0
	beq	.L275
	bl	__stack_chk_fail
.L275:
	mov	x0, x1
	ldp	x29, x30, [sp], 48
	.cfi_restore 30
	.cfi_restore 29
	.cfi_def_cfa_offset 0
	ret
	.cfi_endproc
.LFE3956:
	.size	_ZNSt6chrono8durationIlSt5ratioILl1ELl1EEE4zeroEv, .-_ZNSt6chrono8durationIlSt5ratioILl1ELl1EEE4zeroEv
	.section	.text._ZNSt6chrono13duration_castINS_8durationIlSt5ratioILl1ELl1EEEElS3_EENSt9enable_ifIXsrNS_13__is_durationIT_EE5valueES7_E4typeERKNS1_IT0_T1_EE,"axG",@progbits,_ZNSt6chrono13duration_castINS_8durationIlSt5ratioILl1ELl1EEEElS3_EENSt9enable_ifIXsrNS_13__is_durationIT_EE5valueES7_E4typeERKNS1_IT0_T1_EE,comdat
	.align	2
	.weak	_ZNSt6chrono13duration_castINS_8durationIlSt5ratioILl1ELl1EEEElS3_EENSt9enable_ifIXsrNS_13__is_durationIT_EE5valueES7_E4typeERKNS1_IT0_T1_EE
	.type	_ZNSt6chrono13duration_castINS_8durationIlSt5ratioILl1ELl1EEEElS3_EENSt9enable_ifIXsrNS_13__is_durationIT_EE5valueES7_E4typeERKNS1_IT0_T1_EE, %function
_ZNSt6chrono13duration_castINS_8durationIlSt5ratioILl1ELl1EEEElS3_EENSt9enable_ifIXsrNS_13__is_durationIT_EE5valueES7_E4typeERKNS1_IT0_T1_EE:
.LFB3957:
	.cfi_startproc
	stp	x29, x30, [sp, -32]!
	.cfi_def_cfa_offset 32
	.cfi_offset 29, -32
	.cfi_offset 30, -24
	mov	x29, sp
	str	x0, [sp, 24]
	ldr	x0, [sp, 24]
	bl	_ZNSt6chrono20__duration_cast_implINS_8durationIlSt5ratioILl1ELl1EEEES3_lLb1ELb1EE6__castIlS3_EES4_RKNS1_IT_T0_EE
	ldp	x29, x30, [sp], 32
	.cfi_restore 30
	.cfi_restore 29
	.cfi_def_cfa_offset 0
	ret
	.cfi_endproc
.LFE3957:
	.size	_ZNSt6chrono13duration_castINS_8durationIlSt5ratioILl1ELl1EEEElS3_EENSt9enable_ifIXsrNS_13__is_durationIT_EE5valueES7_E4typeERKNS1_IT0_T1_EE, .-_ZNSt6chrono13duration_castINS_8durationIlSt5ratioILl1ELl1EEEElS3_EENSt9enable_ifIXsrNS_13__is_durationIT_EE5valueES7_E4typeERKNS1_IT0_T1_EE
	.section	.text._ZNSt6chrono13duration_castINS_8durationIlSt5ratioILl1ELl1000000000EEEElS2_ILl1ELl1EEEENSt9enable_ifIXsrNS_13__is_durationIT_EE5valueES8_E4typeERKNS1_IT0_T1_EE,"axG",@progbits,_ZNSt6chrono13duration_castINS_8durationIlSt5ratioILl1ELl1000000000EEEElS2_ILl1ELl1EEEENSt9enable_ifIXsrNS_13__is_durationIT_EE5valueES8_E4typeERKNS1_IT0_T1_EE,comdat
	.align	2
	.weak	_ZNSt6chrono13duration_castINS_8durationIlSt5ratioILl1ELl1000000000EEEElS2_ILl1ELl1EEEENSt9enable_ifIXsrNS_13__is_durationIT_EE5valueES8_E4typeERKNS1_IT0_T1_EE
	.type	_ZNSt6chrono13duration_castINS_8durationIlSt5ratioILl1ELl1000000000EEEElS2_ILl1ELl1EEEENSt9enable_ifIXsrNS_13__is_durationIT_EE5valueES8_E4typeERKNS1_IT0_T1_EE, %function
_ZNSt6chrono13duration_castINS_8durationIlSt5ratioILl1ELl1000000000EEEElS2_ILl1ELl1EEEENSt9enable_ifIXsrNS_13__is_durationIT_EE5valueES8_E4typeERKNS1_IT0_T1_EE:
.LFB3958:
	.cfi_startproc
	stp	x29, x30, [sp, -32]!
	.cfi_def_cfa_offset 32
	.cfi_offset 29, -32
	.cfi_offset 30, -24
	mov	x29, sp
	str	x0, [sp, 24]
	ldr	x0, [sp, 24]
	bl	_ZNSt6chrono20__duration_cast_implINS_8durationIlSt5ratioILl1ELl1000000000EEEES2_ILl1000000000ELl1EElLb0ELb1EE6__castIlS2_ILl1ELl1EEEES4_RKNS1_IT_T0_EE
	ldp	x29, x30, [sp], 32
	.cfi_restore 30
	.cfi_restore 29
	.cfi_def_cfa_offset 0
	ret
	.cfi_endproc
.LFE3958:
	.size	_ZNSt6chrono13duration_castINS_8durationIlSt5ratioILl1ELl1000000000EEEElS2_ILl1ELl1EEEENSt9enable_ifIXsrNS_13__is_durationIT_EE5valueES8_E4typeERKNS1_IT0_T1_EE, .-_ZNSt6chrono13duration_castINS_8durationIlSt5ratioILl1ELl1000000000EEEElS2_ILl1ELl1EEEENSt9enable_ifIXsrNS_13__is_durationIT_EE5valueES8_E4typeERKNS1_IT0_T1_EE
	.section	.text._ZNSt6chronomiIlSt5ratioILl1ELl1EElS2_EENSt11common_typeIJNS_8durationIT_T0_EENS4_IT1_T2_EEEE4typeERKS7_RKSA_,"axG",@progbits,_ZNSt6chronomiIlSt5ratioILl1ELl1EElS2_EENSt11common_typeIJNS_8durationIT_T0_EENS4_IT1_T2_EEEE4typeERKS7_RKSA_,comdat
	.align	2
	.weak	_ZNSt6chronomiIlSt5ratioILl1ELl1EElS2_EENSt11common_typeIJNS_8durationIT_T0_EENS4_IT1_T2_EEEE4typeERKS7_RKSA_
	.type	_ZNSt6chronomiIlSt5ratioILl1ELl1EElS2_EENSt11common_typeIJNS_8durationIT_T0_EENS4_IT1_T2_EEEE4typeERKS7_RKSA_, %function
_ZNSt6chronomiIlSt5ratioILl1ELl1EElS2_EENSt11common_typeIJNS_8durationIT_T0_EENS4_IT1_T2_EEEE4typeERKS7_RKSA_:
.LFB3959:
	.cfi_startproc
	stp	x29, x30, [sp, -96]!
	.cfi_def_cfa_offset 96
	.cfi_offset 29, -96
	.cfi_offset 30, -88
	mov	x29, sp
	str	x19, [sp, 16]
	.cfi_offset 19, -80
	str	x0, [sp, 40]
	str	x1, [sp, 32]
	adrp	x0, :got:__stack_chk_guard
	ldr	x0, [x0, #:got_lo12:__stack_chk_guard]
	ldr	x1, [x0]
	str	x1, [sp, 88]
	mov	x1, 0
	ldr	x0, [sp, 40]
	ldr	x0, [x0]
	str	x0, [sp, 56]
	add	x0, sp, 56
	bl	_ZNKSt6chrono8durationIlSt5ratioILl1ELl1EEE5countEv
	mov	x19, x0
	ldr	x0, [sp, 32]
	ldr	x0, [x0]
	str	x0, [sp, 64]
	add	x0, sp, 64
	bl	_ZNKSt6chrono8durationIlSt5ratioILl1ELl1EEE5countEv
	sub	x0, x19, x0
	str	x0, [sp, 72]
	add	x1, sp, 72
	add	x0, sp, 80
	bl	_ZNSt6chrono8durationIlSt5ratioILl1ELl1EEEC1IlvEERKT_
	ldr	x0, [sp, 80]
	mov	x1, x0
	adrp	x0, :got:__stack_chk_guard
	ldr	x0, [x0, #:got_lo12:__stack_chk_guard]
	ldr	x3, [sp, 88]
	ldr	x2, [x0]
	subs	x3, x3, x2
	mov	x2, 0
	beq	.L282
	bl	__stack_chk_fail
.L282:
	mov	x0, x1
	ldr	x19, [sp, 16]
	ldp	x29, x30, [sp], 96
	.cfi_restore 30
	.cfi_restore 29
	.cfi_restore 19
	.cfi_def_cfa_offset 0
	ret
	.cfi_endproc
.LFE3959:
	.size	_ZNSt6chronomiIlSt5ratioILl1ELl1EElS2_EENSt11common_typeIJNS_8durationIT_T0_EENS4_IT1_T2_EEEE4typeERKS7_RKSA_, .-_ZNSt6chronomiIlSt5ratioILl1ELl1EElS2_EENSt11common_typeIJNS_8durationIT_T0_EENS4_IT1_T2_EEEE4typeERKS7_RKSA_
	.section	.text._ZNSt11this_thread9sleep_forIlSt5ratioILl1ELl1EEEEvRKNSt6chrono8durationIT_T0_EE,"axG",@progbits,_ZNSt11this_thread9sleep_forIlSt5ratioILl1ELl1EEEEvRKNSt6chrono8durationIT_T0_EE,comdat
	.align	2
	.weak	_ZNSt11this_thread9sleep_forIlSt5ratioILl1ELl1EEEEvRKNSt6chrono8durationIT_T0_EE
	.type	_ZNSt11this_thread9sleep_forIlSt5ratioILl1ELl1EEEEvRKNSt6chrono8durationIT_T0_EE, %function
_ZNSt11this_thread9sleep_forIlSt5ratioILl1ELl1EEEEvRKNSt6chrono8durationIT_T0_EE:
.LFB3954:
	.cfi_startproc
	stp	x29, x30, [sp, -80]!
	.cfi_def_cfa_offset 80
	.cfi_offset 29, -80
	.cfi_offset 30, -72
	mov	x29, sp
	str	x0, [sp, 24]
	adrp	x0, :got:__stack_chk_guard
	ldr	x0, [x0, #:got_lo12:__stack_chk_guard]
	ldr	x1, [x0]
	str	x1, [sp, 72]
	mov	x1, 0
	bl	_ZNSt6chrono8durationIlSt5ratioILl1ELl1EEE4zeroEv
	str	x0, [sp, 56]
	add	x0, sp, 56
	mov	x1, x0
	ldr	x0, [sp, 24]
	bl	_ZNSt6chronoleIlSt5ratioILl1ELl1EElS2_EEbRKNS_8durationIT_T0_EERKNS3_IT1_T2_EE
	and	w0, w0, 255
	cmp	w0, 0
	bne	.L290
	ldr	x0, [sp, 24]
	bl	_ZNSt6chrono13duration_castINS_8durationIlSt5ratioILl1ELl1EEEElS3_EENSt9enable_ifIXsrNS_13__is_durationIT_EE5valueES7_E4typeERKNS1_IT0_T1_EE
	str	x0, [sp, 40]
	add	x0, sp, 40
	mov	x1, x0
	ldr	x0, [sp, 24]
	bl	_ZNSt6chronomiIlSt5ratioILl1ELl1EElS2_EENSt11common_typeIJNS_8durationIT_T0_EENS4_IT1_T2_EEEE4typeERKS7_RKSA_
	str	x0, [sp, 56]
	add	x0, sp, 56
	bl	_ZNSt6chrono13duration_castINS_8durationIlSt5ratioILl1ELl1000000000EEEElS2_ILl1ELl1EEEENSt9enable_ifIXsrNS_13__is_durationIT_EE5valueES8_E4typeERKNS1_IT0_T1_EE
	str	x0, [sp, 48]
	add	x0, sp, 40
	bl	_ZNKSt6chrono8durationIlSt5ratioILl1ELl1EEE5countEv
	str	x0, [sp, 56]
	add	x0, sp, 48
	bl	_ZNKSt6chrono8durationIlSt5ratioILl1ELl1000000000EEE5countEv
	str	x0, [sp, 64]
	nop
.L288:
	add	x1, sp, 56
	add	x0, sp, 56
	bl	nanosleep
	cmn	w0, #1
	bne	.L286
	bl	__errno_location
	ldr	w0, [x0]
	cmp	w0, 4
	bne	.L286
	mov	w0, 1
	b	.L287
.L286:
	mov	w0, 0
.L287:
	cmp	w0, 0
	bne	.L288
	b	.L283
.L290:
	nop
.L283:
	adrp	x0, :got:__stack_chk_guard
	ldr	x0, [x0, #:got_lo12:__stack_chk_guard]
	ldr	x2, [sp, 72]
	ldr	x1, [x0]
	subs	x2, x2, x1
	mov	x1, 0
	beq	.L289
	bl	__stack_chk_fail
.L289:
	ldp	x29, x30, [sp], 80
	.cfi_restore 30
	.cfi_restore 29
	.cfi_def_cfa_offset 0
	ret
	.cfi_endproc
.LFE3954:
	.size	_ZNSt11this_thread9sleep_forIlSt5ratioILl1ELl1EEEEvRKNSt6chrono8durationIT_T0_EE, .-_ZNSt11this_thread9sleep_forIlSt5ratioILl1ELl1EEEEvRKNSt6chrono8durationIT_T0_EE
	.section	.text._ZNSt8literals15chrono_literalsli1sIJLc49ELc48EEEENSt6chrono8durationIlSt5ratioILl1ELl1EEEEv,"axG",@progbits,_ZNSt8literals15chrono_literalsli1sIJLc49ELc48EEEENSt6chrono8durationIlSt5ratioILl1ELl1EEEEv,comdat
	.align	2
	.weak	_ZNSt8literals15chrono_literalsli1sIJLc49ELc48EEEENSt6chrono8durationIlSt5ratioILl1ELl1EEEEv
	.type	_ZNSt8literals15chrono_literalsli1sIJLc49ELc48EEEENSt6chrono8durationIlSt5ratioILl1ELl1EEEEv, %function
_ZNSt8literals15chrono_literalsli1sIJLc49ELc48EEEENSt6chrono8durationIlSt5ratioILl1ELl1EEEEv:
.LFB3960:
	.cfi_startproc
	stp	x29, x30, [sp, -16]!
	.cfi_def_cfa_offset 16
	.cfi_offset 29, -16
	.cfi_offset 30, -8
	mov	x29, sp
	bl	_ZNSt8literals15chrono_literals16__check_overflowINSt6chrono8durationIlSt5ratioILl1ELl1EEEEJLc49ELc48EEEET_v
	ldp	x29, x30, [sp], 16
	.cfi_restore 30
	.cfi_restore 29
	.cfi_def_cfa_offset 0
	ret
	.cfi_endproc
.LFE3960:
	.size	_ZNSt8literals15chrono_literalsli1sIJLc49ELc48EEEENSt6chrono8durationIlSt5ratioILl1ELl1EEEEv, .-_ZNSt8literals15chrono_literalsli1sIJLc49ELc48EEEENSt6chrono8durationIlSt5ratioILl1ELl1EEEEv
	.section	.text._ZNSt12__shared_ptrINSt13__future_base13_State_baseV2ELN9__gnu_cxx12_Lock_policyE2EEC2Ev,"axG",@progbits,_ZNSt12__shared_ptrINSt13__future_base13_State_baseV2ELN9__gnu_cxx12_Lock_policyE2EEC5Ev,comdat
	.align	2
	.weak	_ZNSt12__shared_ptrINSt13__future_base13_State_baseV2ELN9__gnu_cxx12_Lock_policyE2EEC2Ev
	.type	_ZNSt12__shared_ptrINSt13__future_base13_State_baseV2ELN9__gnu_cxx12_Lock_policyE2EEC2Ev, %function
_ZNSt12__shared_ptrINSt13__future_base13_State_baseV2ELN9__gnu_cxx12_Lock_policyE2EEC2Ev:
.LFB3969:
	.cfi_startproc
	stp	x29, x30, [sp, -32]!
	.cfi_def_cfa_offset 32
	.cfi_offset 29, -32
	.cfi_offset 30, -24
	mov	x29, sp
	str	x0, [sp, 24]
	ldr	x0, [sp, 24]
	str	xzr, [x0]
	ldr	x0, [sp, 24]
	add	x0, x0, 8
	bl	_ZNSt14__shared_countILN9__gnu_cxx12_Lock_policyE2EEC1Ev
	nop
	ldp	x29, x30, [sp], 32
	.cfi_restore 30
	.cfi_restore 29
	.cfi_def_cfa_offset 0
	ret
	.cfi_endproc
.LFE3969:
	.size	_ZNSt12__shared_ptrINSt13__future_base13_State_baseV2ELN9__gnu_cxx12_Lock_policyE2EEC2Ev, .-_ZNSt12__shared_ptrINSt13__future_base13_State_baseV2ELN9__gnu_cxx12_Lock_policyE2EEC2Ev
	.weak	_ZNSt12__shared_ptrINSt13__future_base13_State_baseV2ELN9__gnu_cxx12_Lock_policyE2EEC1Ev
	.set	_ZNSt12__shared_ptrINSt13__future_base13_State_baseV2ELN9__gnu_cxx12_Lock_policyE2EEC1Ev,_ZNSt12__shared_ptrINSt13__future_base13_State_baseV2ELN9__gnu_cxx12_Lock_policyE2EEC2Ev
	.section	.text._ZNSt14__shared_countILN9__gnu_cxx12_Lock_policyE2EEC2Ev,"axG",@progbits,_ZNSt14__shared_countILN9__gnu_cxx12_Lock_policyE2EEC5Ev,comdat
	.align	2
	.weak	_ZNSt14__shared_countILN9__gnu_cxx12_Lock_policyE2EEC2Ev
	.type	_ZNSt14__shared_countILN9__gnu_cxx12_Lock_policyE2EEC2Ev, %function
_ZNSt14__shared_countILN9__gnu_cxx12_Lock_policyE2EEC2Ev:
.LFB3972:
	.cfi_startproc
	sub	sp, sp, #16
	.cfi_def_cfa_offset 16
	str	x0, [sp, 8]
	ldr	x0, [sp, 8]
	str	xzr, [x0]
	nop
	add	sp, sp, 16
	.cfi_def_cfa_offset 0
	ret
	.cfi_endproc
.LFE3972:
	.size	_ZNSt14__shared_countILN9__gnu_cxx12_Lock_policyE2EEC2Ev, .-_ZNSt14__shared_countILN9__gnu_cxx12_Lock_policyE2EEC2Ev
	.weak	_ZNSt14__shared_countILN9__gnu_cxx12_Lock_policyE2EEC1Ev
	.set	_ZNSt14__shared_countILN9__gnu_cxx12_Lock_policyE2EEC1Ev,_ZNSt14__shared_countILN9__gnu_cxx12_Lock_policyE2EEC2Ev
	.text
	.align	2
	.type	_ZNSt12__shared_ptrINSt13__future_base17_Async_state_implINSt6thread8_InvokerISt5tupleIJZ6test01vEUlvE_EEEEvEELN9__gnu_cxx12_Lock_policyE2EED2Ev, %function
_ZNSt12__shared_ptrINSt13__future_base17_Async_state_implINSt6thread8_InvokerISt5tupleIJZ6test01vEUlvE_EEEEvEELN9__gnu_cxx12_Lock_policyE2EED2Ev:
.LFB3976:
	.cfi_startproc
	stp	x29, x30, [sp, -32]!
	.cfi_def_cfa_offset 32
	.cfi_offset 29, -32
	.cfi_offset 30, -24
	mov	x29, sp
	str	x0, [sp, 24]
	ldr	x0, [sp, 24]
	add	x0, x0, 8
	bl	_ZNSt14__shared_countILN9__gnu_cxx12_Lock_policyE2EED1Ev
	nop
	ldp	x29, x30, [sp], 32
	.cfi_restore 30
	.cfi_restore 29
	.cfi_def_cfa_offset 0
	ret
	.cfi_endproc
.LFE3976:
	.size	_ZNSt12__shared_ptrINSt13__future_base17_Async_state_implINSt6thread8_InvokerISt5tupleIJZ6test01vEUlvE_EEEEvEELN9__gnu_cxx12_Lock_policyE2EED2Ev, .-_ZNSt12__shared_ptrINSt13__future_base17_Async_state_implINSt6thread8_InvokerISt5tupleIJZ6test01vEUlvE_EEEEvEELN9__gnu_cxx12_Lock_policyE2EED2Ev
	.align	2
	.type	_ZNSt10shared_ptrINSt13__future_base17_Async_state_implINSt6thread8_InvokerISt5tupleIJZ6test01vEUlvE_EEEEvEEED2Ev, %function
_ZNSt10shared_ptrINSt13__future_base17_Async_state_implINSt6thread8_InvokerISt5tupleIJZ6test01vEUlvE_EEEEvEEED2Ev:
.LFB3978:
	.cfi_startproc
	stp	x29, x30, [sp, -32]!
	.cfi_def_cfa_offset 32
	.cfi_offset 29, -32
	.cfi_offset 30, -24
	mov	x29, sp
	str	x0, [sp, 24]
	ldr	x0, [sp, 24]
	bl	_ZNSt12__shared_ptrINSt13__future_base17_Async_state_implINSt6thread8_InvokerISt5tupleIJZ6test01vEUlvE_EEEEvEELN9__gnu_cxx12_Lock_policyE2EED2Ev
	nop
	ldp	x29, x30, [sp], 32
	.cfi_restore 30
	.cfi_restore 29
	.cfi_def_cfa_offset 0
	ret
	.cfi_endproc
.LFE3978:
	.size	_ZNSt10shared_ptrINSt13__future_base17_Async_state_implINSt6thread8_InvokerISt5tupleIJZ6test01vEUlvE_EEEEvEEED2Ev, .-_ZNSt10shared_ptrINSt13__future_base17_Async_state_implINSt6thread8_InvokerISt5tupleIJZ6test01vEUlvE_EEEEvEEED2Ev
	.set	_ZNSt10shared_ptrINSt13__future_base17_Async_state_implINSt6thread8_InvokerISt5tupleIJZ6test01vEUlvE_EEEEvEEED1Ev,_ZNSt10shared_ptrINSt13__future_base17_Async_state_implINSt6thread8_InvokerISt5tupleIJZ6test01vEUlvE_EEEEvEEED2Ev
	.align	2
	.type	_ZNSt12__shared_ptrINSt13__future_base15_Deferred_stateINSt6thread8_InvokerISt5tupleIJZ6test01vEUlvE_EEEEvEELN9__gnu_cxx12_Lock_policyE2EED2Ev, %function
_ZNSt12__shared_ptrINSt13__future_base15_Deferred_stateINSt6thread8_InvokerISt5tupleIJZ6test01vEUlvE_EEEEvEELN9__gnu_cxx12_Lock_policyE2EED2Ev:
.LFB3984:
	.cfi_startproc
	stp	x29, x30, [sp, -32]!
	.cfi_def_cfa_offset 32
	.cfi_offset 29, -32
	.cfi_offset 30, -24
	mov	x29, sp
	str	x0, [sp, 24]
	ldr	x0, [sp, 24]
	add	x0, x0, 8
	bl	_ZNSt14__shared_countILN9__gnu_cxx12_Lock_policyE2EED1Ev
	nop
	ldp	x29, x30, [sp], 32
	.cfi_restore 30
	.cfi_restore 29
	.cfi_def_cfa_offset 0
	ret
	.cfi_endproc
.LFE3984:
	.size	_ZNSt12__shared_ptrINSt13__future_base15_Deferred_stateINSt6thread8_InvokerISt5tupleIJZ6test01vEUlvE_EEEEvEELN9__gnu_cxx12_Lock_policyE2EED2Ev, .-_ZNSt12__shared_ptrINSt13__future_base15_Deferred_stateINSt6thread8_InvokerISt5tupleIJZ6test01vEUlvE_EEEEvEELN9__gnu_cxx12_Lock_policyE2EED2Ev
	.align	2
	.type	_ZNSt10shared_ptrINSt13__future_base15_Deferred_stateINSt6thread8_InvokerISt5tupleIJZ6test01vEUlvE_EEEEvEEED2Ev, %function
_ZNSt10shared_ptrINSt13__future_base15_Deferred_stateINSt6thread8_InvokerISt5tupleIJZ6test01vEUlvE_EEEEvEEED2Ev:
.LFB3986:
	.cfi_startproc
	stp	x29, x30, [sp, -32]!
	.cfi_def_cfa_offset 32
	.cfi_offset 29, -32
	.cfi_offset 30, -24
	mov	x29, sp
	str	x0, [sp, 24]
	ldr	x0, [sp, 24]
	bl	_ZNSt12__shared_ptrINSt13__future_base15_Deferred_stateINSt6thread8_InvokerISt5tupleIJZ6test01vEUlvE_EEEEvEELN9__gnu_cxx12_Lock_policyE2EED2Ev
	nop
	ldp	x29, x30, [sp], 32
	.cfi_restore 30
	.cfi_restore 29
	.cfi_def_cfa_offset 0
	ret
	.cfi_endproc
.LFE3986:
	.size	_ZNSt10shared_ptrINSt13__future_base15_Deferred_stateINSt6thread8_InvokerISt5tupleIJZ6test01vEUlvE_EEEEvEEED2Ev, .-_ZNSt10shared_ptrINSt13__future_base15_Deferred_stateINSt6thread8_InvokerISt5tupleIJZ6test01vEUlvE_EEEEvEEED2Ev
	.set	_ZNSt10shared_ptrINSt13__future_base15_Deferred_stateINSt6thread8_InvokerISt5tupleIJZ6test01vEUlvE_EEEEvEEED1Ev,_ZNSt10shared_ptrINSt13__future_base15_Deferred_stateINSt6thread8_InvokerISt5tupleIJZ6test01vEUlvE_EEEEvEEED2Ev
	.align	2
	.type	_ZSt5asyncIZ6test01vEUlvE_JEESt6futureINSt15__invoke_resultINSt5decayIT_E4typeEJDpNS3_IT0_E4typeEEE4typeEESt6launchOS4_DpOS7_, %function
_ZSt5asyncIZ6test01vEUlvE_JEESt6futureINSt15__invoke_resultINSt5decayIT_E4typeEJDpNS3_IT0_E4typeEEE4typeEESt6launchOS4_DpOS7_:
.LFB3961:
	.cfi_startproc
	.cfi_personality 0x9b,DW.ref.__gxx_personality_v0
	.cfi_lsda 0x1b,.LLSDA3961
	stp	x29, x30, [sp, -112]!
	.cfi_def_cfa_offset 112
	.cfi_offset 29, -112
	.cfi_offset 30, -104
	mov	x29, sp
	stp	x19, x20, [sp, 16]
	.cfi_offset 19, -96
	.cfi_offset 20, -88
	mov	x19, x8
	str	w0, [sp, 44]
	str	x1, [sp, 32]
	adrp	x0, :got:__stack_chk_guard
	ldr	x0, [x0, #:got_lo12:__stack_chk_guard]
	ldr	x1, [x0]
	str	x1, [sp, 104]
	mov	x1, 0
	stp	xzr, xzr, [sp, 56]
	mov	w1, 1
	ldr	w0, [sp, 44]
	bl	_ZStanSt6launchS_
	cmp	w0, 1
	cset	w0, eq
	and	w0, w0, 255
	cmp	w0, 0
	beq	.L300
	ldr	x0, [sp, 32]
	bl	_ZSt7forwardIZ6test01vEUlvE_EOT_RNSt16remove_referenceIS1_E4typeE
	mov	x1, x0
	add	x0, sp, 72
	mov	x8, x0
	mov	x0, x1
.LEHB18:
	bl	_ZSt11make_sharedINSt13__future_base17_Async_state_implINSt6thread8_InvokerISt5tupleIJZ6test01vEUlvE_EEEEvEEJS5_EESt10shared_ptrIT_EDpOT0_
.LEHE18:
	add	x1, sp, 72
	add	x0, sp, 56
	bl	_ZNSt10shared_ptrINSt13__future_base13_State_baseV2EEaSINS0_17_Async_state_implINSt6thread8_InvokerISt5tupleIJZ6test01vEUlvE_EEEEvEEEENSt9enable_ifIXsrSt13is_assignableIRSt12__shared_ptrIS1_LN9__gnu_cxx12_Lock_policyE2EES_IT_EE5valueERS2_E4typeEOSK_
	add	x0, sp, 72
	bl	_ZNSt10shared_ptrINSt13__future_base17_Async_state_implINSt6thread8_InvokerISt5tupleIJZ6test01vEUlvE_EEEEvEEED1Ev
.L300:
	add	x0, sp, 56
	bl	_ZNKSt12__shared_ptrINSt13__future_base13_State_baseV2ELN9__gnu_cxx12_Lock_policyE2EEcvbEv
	and	w0, w0, 255
	eor	w0, w0, 1
	and	w0, w0, 255
	cmp	w0, 0
	beq	.L301
	ldr	x0, [sp, 32]
	bl	_ZSt7forwardIZ6test01vEUlvE_EOT_RNSt16remove_referenceIS1_E4typeE
	mov	x1, x0
	add	x0, sp, 88
	mov	x8, x0
	mov	x0, x1
.LEHB19:
	bl	_ZSt11make_sharedINSt13__future_base15_Deferred_stateINSt6thread8_InvokerISt5tupleIJZ6test01vEUlvE_EEEEvEEJS5_EESt10shared_ptrIT_EDpOT0_
	add	x1, sp, 88
	add	x0, sp, 56
	bl	_ZNSt10shared_ptrINSt13__future_base13_State_baseV2EEaSINS0_15_Deferred_stateINSt6thread8_InvokerISt5tupleIJZ6test01vEUlvE_EEEEvEEEENSt9enable_ifIXsrSt13is_assignableIRSt12__shared_ptrIS1_LN9__gnu_cxx12_Lock_policyE2EES_IT_EE5valueERS2_E4typeEOSK_
	add	x0, sp, 88
	bl	_ZNSt10shared_ptrINSt13__future_base15_Deferred_stateINSt6thread8_InvokerISt5tupleIJZ6test01vEUlvE_EEEEvEEED1Ev
.L301:
	add	x0, sp, 56
	bl	_ZSt4moveIRSt10shared_ptrINSt13__future_base13_State_baseV2EEEONSt16remove_referenceIT_E4typeEOS6_
	mov	x1, x0
	mov	x0, x19
	bl	_ZNSt6futureIvEC1ERKSt10shared_ptrINSt13__future_base13_State_baseV2EE
.LEHE19:
	nop
	add	x0, sp, 56
	bl	_ZNSt10shared_ptrINSt13__future_base13_State_baseV2EED1Ev
	nop
	adrp	x0, :got:__stack_chk_guard
	ldr	x0, [x0, #:got_lo12:__stack_chk_guard]
	ldr	x2, [sp, 104]
	ldr	x1, [x0]
	subs	x2, x2, x1
	mov	x1, 0
	beq	.L311
	b	.L315
.L312:
	cmp	x1, 1
	beq	.L304
	mov	x19, x0
	b	.L305
.L304:
	bl	__cxa_begin_catch
	str	x0, [sp, 48]
	ldr	x0, [sp, 48]
	bl	_ZNKSt12system_error4codeEv
	mov	x20, x0
	add	x0, sp, 88
	mov	w1, 11
	bl	_ZNSt15error_conditionC1ISt4errcvEET_
	add	x0, sp, 88
	mov	x1, x0
	mov	x0, x20
	bl	_ZStneRKSt10error_codeRKSt15error_condition
	and	w0, w0, 255
	cmp	w0, 0
	bne	.L306
	mov	w1, 2
	ldr	w0, [sp, 44]
	bl	_ZStanSt6launchS_
	cmp	w0, 2
	beq	.L307
.L306:
	mov	w0, 1
	b	.L308
.L307:
	mov	w0, 0
.L308:
	cmp	w0, 0
	beq	.L309
.LEHB20:
	bl	__cxa_rethrow
.LEHE20:
.L309:
	bl	__cxa_end_catch
	b	.L300
.L314:
	mov	x19, x0
	bl	__cxa_end_catch
	b	.L305
.L313:
	mov	x19, x0
.L305:
	add	x0, sp, 56
	bl	_ZNSt10shared_ptrINSt13__future_base13_State_baseV2EED1Ev
	mov	x0, x19
.LEHB21:
	bl	_Unwind_Resume
.LEHE21:
.L315:
	bl	__stack_chk_fail
.L311:
	mov	x0, x19
	ldp	x19, x20, [sp, 16]
	ldp	x29, x30, [sp], 112
	.cfi_restore 30
	.cfi_restore 29
	.cfi_restore 19
	.cfi_restore 20
	.cfi_def_cfa_offset 0
	ret
	.cfi_endproc
.LFE3961:
	.section	.gcc_except_table
	.align	2
.LLSDA3961:
	.byte	0xff
	.byte	0x9b
	.uleb128 .LLSDATT3961-.LLSDATTD3961
.LLSDATTD3961:
	.byte	0x1
	.uleb128 .LLSDACSE3961-.LLSDACSB3961
.LLSDACSB3961:
	.uleb128 .LEHB18-.LFB3961
	.uleb128 .LEHE18-.LEHB18
	.uleb128 .L312-.LFB3961
	.uleb128 0x3
	.uleb128 .LEHB19-.LFB3961
	.uleb128 .LEHE19-.LEHB19
	.uleb128 .L313-.LFB3961
	.uleb128 0
	.uleb128 .LEHB20-.LFB3961
	.uleb128 .LEHE20-.LEHB20
	.uleb128 .L314-.LFB3961
	.uleb128 0
	.uleb128 .LEHB21-.LFB3961
	.uleb128 .LEHE21-.LEHB21
	.uleb128 0
	.uleb128 0
.LLSDACSE3961:
	.byte	0
	.byte	0
	.byte	0x1
	.byte	0x7d
	.align	2
	.4byte	DW.ref._ZTISt12system_error-.
.LLSDATT3961:
	.text
	.size	_ZSt5asyncIZ6test01vEUlvE_JEESt6futureINSt15__invoke_resultINSt5decayIT_E4typeEJDpNS3_IT0_E4typeEEE4typeEESt6launchOS4_DpOS7_, .-_ZSt5asyncIZ6test01vEUlvE_JEESt6futureINSt15__invoke_resultINSt5decayIT_E4typeEJDpNS3_IT0_E4typeEEE4typeEESt6launchOS4_DpOS7_
	.align	2
	.type	_ZNSt12__shared_ptrINSt13__future_base17_Async_state_implINSt6thread8_InvokerISt5tupleIJZ6test02vEUlvE_EEEEvEELN9__gnu_cxx12_Lock_policyE2EED2Ev, %function
_ZNSt12__shared_ptrINSt13__future_base17_Async_state_implINSt6thread8_InvokerISt5tupleIJZ6test02vEUlvE_EEEEvEELN9__gnu_cxx12_Lock_policyE2EED2Ev:
.LFB3994:
	.cfi_startproc
	stp	x29, x30, [sp, -32]!
	.cfi_def_cfa_offset 32
	.cfi_offset 29, -32
	.cfi_offset 30, -24
	mov	x29, sp
	str	x0, [sp, 24]
	ldr	x0, [sp, 24]
	add	x0, x0, 8
	bl	_ZNSt14__shared_countILN9__gnu_cxx12_Lock_policyE2EED1Ev
	nop
	ldp	x29, x30, [sp], 32
	.cfi_restore 30
	.cfi_restore 29
	.cfi_def_cfa_offset 0
	ret
	.cfi_endproc
.LFE3994:
	.size	_ZNSt12__shared_ptrINSt13__future_base17_Async_state_implINSt6thread8_InvokerISt5tupleIJZ6test02vEUlvE_EEEEvEELN9__gnu_cxx12_Lock_policyE2EED2Ev, .-_ZNSt12__shared_ptrINSt13__future_base17_Async_state_implINSt6thread8_InvokerISt5tupleIJZ6test02vEUlvE_EEEEvEELN9__gnu_cxx12_Lock_policyE2EED2Ev
	.align	2
	.type	_ZNSt10shared_ptrINSt13__future_base17_Async_state_implINSt6thread8_InvokerISt5tupleIJZ6test02vEUlvE_EEEEvEEED2Ev, %function
_ZNSt10shared_ptrINSt13__future_base17_Async_state_implINSt6thread8_InvokerISt5tupleIJZ6test02vEUlvE_EEEEvEEED2Ev:
.LFB3996:
	.cfi_startproc
	stp	x29, x30, [sp, -32]!
	.cfi_def_cfa_offset 32
	.cfi_offset 29, -32
	.cfi_offset 30, -24
	mov	x29, sp
	str	x0, [sp, 24]
	ldr	x0, [sp, 24]
	bl	_ZNSt12__shared_ptrINSt13__future_base17_Async_state_implINSt6thread8_InvokerISt5tupleIJZ6test02vEUlvE_EEEEvEELN9__gnu_cxx12_Lock_policyE2EED2Ev
	nop
	ldp	x29, x30, [sp], 32
	.cfi_restore 30
	.cfi_restore 29
	.cfi_def_cfa_offset 0
	ret
	.cfi_endproc
.LFE3996:
	.size	_ZNSt10shared_ptrINSt13__future_base17_Async_state_implINSt6thread8_InvokerISt5tupleIJZ6test02vEUlvE_EEEEvEEED2Ev, .-_ZNSt10shared_ptrINSt13__future_base17_Async_state_implINSt6thread8_InvokerISt5tupleIJZ6test02vEUlvE_EEEEvEEED2Ev
	.set	_ZNSt10shared_ptrINSt13__future_base17_Async_state_implINSt6thread8_InvokerISt5tupleIJZ6test02vEUlvE_EEEEvEEED1Ev,_ZNSt10shared_ptrINSt13__future_base17_Async_state_implINSt6thread8_InvokerISt5tupleIJZ6test02vEUlvE_EEEEvEEED2Ev
	.align	2
	.type	_ZNSt12__shared_ptrINSt13__future_base15_Deferred_stateINSt6thread8_InvokerISt5tupleIJZ6test02vEUlvE_EEEEvEELN9__gnu_cxx12_Lock_policyE2EED2Ev, %function
_ZNSt12__shared_ptrINSt13__future_base15_Deferred_stateINSt6thread8_InvokerISt5tupleIJZ6test02vEUlvE_EEEEvEELN9__gnu_cxx12_Lock_policyE2EED2Ev:
.LFB4000:
	.cfi_startproc
	stp	x29, x30, [sp, -32]!
	.cfi_def_cfa_offset 32
	.cfi_offset 29, -32
	.cfi_offset 30, -24
	mov	x29, sp
	str	x0, [sp, 24]
	ldr	x0, [sp, 24]
	add	x0, x0, 8
	bl	_ZNSt14__shared_countILN9__gnu_cxx12_Lock_policyE2EED1Ev
	nop
	ldp	x29, x30, [sp], 32
	.cfi_restore 30
	.cfi_restore 29
	.cfi_def_cfa_offset 0
	ret
	.cfi_endproc
.LFE4000:
	.size	_ZNSt12__shared_ptrINSt13__future_base15_Deferred_stateINSt6thread8_InvokerISt5tupleIJZ6test02vEUlvE_EEEEvEELN9__gnu_cxx12_Lock_policyE2EED2Ev, .-_ZNSt12__shared_ptrINSt13__future_base15_Deferred_stateINSt6thread8_InvokerISt5tupleIJZ6test02vEUlvE_EEEEvEELN9__gnu_cxx12_Lock_policyE2EED2Ev
	.align	2
	.type	_ZNSt10shared_ptrINSt13__future_base15_Deferred_stateINSt6thread8_InvokerISt5tupleIJZ6test02vEUlvE_EEEEvEEED2Ev, %function
_ZNSt10shared_ptrINSt13__future_base15_Deferred_stateINSt6thread8_InvokerISt5tupleIJZ6test02vEUlvE_EEEEvEEED2Ev:
.LFB4002:
	.cfi_startproc
	stp	x29, x30, [sp, -32]!
	.cfi_def_cfa_offset 32
	.cfi_offset 29, -32
	.cfi_offset 30, -24
	mov	x29, sp
	str	x0, [sp, 24]
	ldr	x0, [sp, 24]
	bl	_ZNSt12__shared_ptrINSt13__future_base15_Deferred_stateINSt6thread8_InvokerISt5tupleIJZ6test02vEUlvE_EEEEvEELN9__gnu_cxx12_Lock_policyE2EED2Ev
	nop
	ldp	x29, x30, [sp], 32
	.cfi_restore 30
	.cfi_restore 29
	.cfi_def_cfa_offset 0
	ret
	.cfi_endproc
.LFE4002:
	.size	_ZNSt10shared_ptrINSt13__future_base15_Deferred_stateINSt6thread8_InvokerISt5tupleIJZ6test02vEUlvE_EEEEvEEED2Ev, .-_ZNSt10shared_ptrINSt13__future_base15_Deferred_stateINSt6thread8_InvokerISt5tupleIJZ6test02vEUlvE_EEEEvEEED2Ev
	.set	_ZNSt10shared_ptrINSt13__future_base15_Deferred_stateINSt6thread8_InvokerISt5tupleIJZ6test02vEUlvE_EEEEvEEED1Ev,_ZNSt10shared_ptrINSt13__future_base15_Deferred_stateINSt6thread8_InvokerISt5tupleIJZ6test02vEUlvE_EEEEvEEED2Ev
	.align	2
	.type	_ZSt5asyncIZ6test02vEUlvE_JEESt6futureINSt15__invoke_resultINSt5decayIT_E4typeEJDpNS3_IT0_E4typeEEE4typeEESt6launchOS4_DpOS7_, %function
_ZSt5asyncIZ6test02vEUlvE_JEESt6futureINSt15__invoke_resultINSt5decayIT_E4typeEJDpNS3_IT0_E4typeEEE4typeEESt6launchOS4_DpOS7_:
.LFB3988:
	.cfi_startproc
	.cfi_personality 0x9b,DW.ref.__gxx_personality_v0
	.cfi_lsda 0x1b,.LLSDA3988
	stp	x29, x30, [sp, -112]!
	.cfi_def_cfa_offset 112
	.cfi_offset 29, -112
	.cfi_offset 30, -104
	mov	x29, sp
	stp	x19, x20, [sp, 16]
	.cfi_offset 19, -96
	.cfi_offset 20, -88
	mov	x19, x8
	str	w0, [sp, 44]
	str	x1, [sp, 32]
	adrp	x0, :got:__stack_chk_guard
	ldr	x0, [x0, #:got_lo12:__stack_chk_guard]
	ldr	x1, [x0]
	str	x1, [sp, 104]
	mov	x1, 0
	stp	xzr, xzr, [sp, 56]
	mov	w1, 1
	ldr	w0, [sp, 44]
	bl	_ZStanSt6launchS_
	cmp	w0, 1
	cset	w0, eq
	and	w0, w0, 255
	cmp	w0, 0
	beq	.L321
	ldr	x0, [sp, 32]
	bl	_ZSt7forwardIZ6test02vEUlvE_EOT_RNSt16remove_referenceIS1_E4typeE
	mov	x1, x0
	add	x0, sp, 72
	mov	x8, x0
	mov	x0, x1
.LEHB22:
	bl	_ZSt11make_sharedINSt13__future_base17_Async_state_implINSt6thread8_InvokerISt5tupleIJZ6test02vEUlvE_EEEEvEEJS5_EESt10shared_ptrIT_EDpOT0_
.LEHE22:
	add	x1, sp, 72
	add	x0, sp, 56
	bl	_ZNSt10shared_ptrINSt13__future_base13_State_baseV2EEaSINS0_17_Async_state_implINSt6thread8_InvokerISt5tupleIJZ6test02vEUlvE_EEEEvEEEENSt9enable_ifIXsrSt13is_assignableIRSt12__shared_ptrIS1_LN9__gnu_cxx12_Lock_policyE2EES_IT_EE5valueERS2_E4typeEOSK_
	add	x0, sp, 72
	bl	_ZNSt10shared_ptrINSt13__future_base17_Async_state_implINSt6thread8_InvokerISt5tupleIJZ6test02vEUlvE_EEEEvEEED1Ev
.L321:
	add	x0, sp, 56
	bl	_ZNKSt12__shared_ptrINSt13__future_base13_State_baseV2ELN9__gnu_cxx12_Lock_policyE2EEcvbEv
	and	w0, w0, 255
	eor	w0, w0, 1
	and	w0, w0, 255
	cmp	w0, 0
	beq	.L322
	ldr	x0, [sp, 32]
	bl	_ZSt7forwardIZ6test02vEUlvE_EOT_RNSt16remove_referenceIS1_E4typeE
	mov	x1, x0
	add	x0, sp, 88
	mov	x8, x0
	mov	x0, x1
.LEHB23:
	bl	_ZSt11make_sharedINSt13__future_base15_Deferred_stateINSt6thread8_InvokerISt5tupleIJZ6test02vEUlvE_EEEEvEEJS5_EESt10shared_ptrIT_EDpOT0_
	add	x1, sp, 88
	add	x0, sp, 56
	bl	_ZNSt10shared_ptrINSt13__future_base13_State_baseV2EEaSINS0_15_Deferred_stateINSt6thread8_InvokerISt5tupleIJZ6test02vEUlvE_EEEEvEEEENSt9enable_ifIXsrSt13is_assignableIRSt12__shared_ptrIS1_LN9__gnu_cxx12_Lock_policyE2EES_IT_EE5valueERS2_E4typeEOSK_
	add	x0, sp, 88
	bl	_ZNSt10shared_ptrINSt13__future_base15_Deferred_stateINSt6thread8_InvokerISt5tupleIJZ6test02vEUlvE_EEEEvEEED1Ev
.L322:
	add	x0, sp, 56
	bl	_ZSt4moveIRSt10shared_ptrINSt13__future_base13_State_baseV2EEEONSt16remove_referenceIT_E4typeEOS6_
	mov	x1, x0
	mov	x0, x19
	bl	_ZNSt6futureIvEC1ERKSt10shared_ptrINSt13__future_base13_State_baseV2EE
.LEHE23:
	nop
	add	x0, sp, 56
	bl	_ZNSt10shared_ptrINSt13__future_base13_State_baseV2EED1Ev
	nop
	adrp	x0, :got:__stack_chk_guard
	ldr	x0, [x0, #:got_lo12:__stack_chk_guard]
	ldr	x2, [sp, 104]
	ldr	x1, [x0]
	subs	x2, x2, x1
	mov	x1, 0
	beq	.L332
	b	.L336
.L333:
	cmp	x1, 1
	beq	.L325
	mov	x19, x0
	b	.L326
.L325:
	bl	__cxa_begin_catch
	str	x0, [sp, 48]
	ldr	x0, [sp, 48]
	bl	_ZNKSt12system_error4codeEv
	mov	x20, x0
	add	x0, sp, 88
	mov	w1, 11
	bl	_ZNSt15error_conditionC1ISt4errcvEET_
	add	x0, sp, 88
	mov	x1, x0
	mov	x0, x20
	bl	_ZStneRKSt10error_codeRKSt15error_condition
	and	w0, w0, 255
	cmp	w0, 0
	bne	.L327
	mov	w1, 2
	ldr	w0, [sp, 44]
	bl	_ZStanSt6launchS_
	cmp	w0, 2
	beq	.L328
.L327:
	mov	w0, 1
	b	.L329
.L328:
	mov	w0, 0
.L329:
	cmp	w0, 0
	beq	.L330
.LEHB24:
	bl	__cxa_rethrow
.LEHE24:
.L330:
	bl	__cxa_end_catch
	b	.L321
.L335:
	mov	x19, x0
	bl	__cxa_end_catch
	b	.L326
.L334:
	mov	x19, x0
.L326:
	add	x0, sp, 56
	bl	_ZNSt10shared_ptrINSt13__future_base13_State_baseV2EED1Ev
	mov	x0, x19
.LEHB25:
	bl	_Unwind_Resume
.LEHE25:
.L336:
	bl	__stack_chk_fail
.L332:
	mov	x0, x19
	ldp	x19, x20, [sp, 16]
	ldp	x29, x30, [sp], 112
	.cfi_restore 30
	.cfi_restore 29
	.cfi_restore 19
	.cfi_restore 20
	.cfi_def_cfa_offset 0
	ret
	.cfi_endproc
.LFE3988:
	.section	.gcc_except_table
	.align	2
.LLSDA3988:
	.byte	0xff
	.byte	0x9b
	.uleb128 .LLSDATT3988-.LLSDATTD3988
.LLSDATTD3988:
	.byte	0x1
	.uleb128 .LLSDACSE3988-.LLSDACSB3988
.LLSDACSB3988:
	.uleb128 .LEHB22-.LFB3988
	.uleb128 .LEHE22-.LEHB22
	.uleb128 .L333-.LFB3988
	.uleb128 0x3
	.uleb128 .LEHB23-.LFB3988
	.uleb128 .LEHE23-.LEHB23
	.uleb128 .L334-.LFB3988
	.uleb128 0
	.uleb128 .LEHB24-.LFB3988
	.uleb128 .LEHE24-.LEHB24
	.uleb128 .L335-.LFB3988
	.uleb128 0
	.uleb128 .LEHB25-.LFB3988
	.uleb128 .LEHE25-.LEHB25
	.uleb128 0
	.uleb128 0
.LLSDACSE3988:
	.byte	0
	.byte	0
	.byte	0x1
	.byte	0x7d
	.align	2
	.4byte	DW.ref._ZTISt12system_error-.
.LLSDATT3988:
	.text
	.size	_ZSt5asyncIZ6test02vEUlvE_JEESt6futureINSt15__invoke_resultINSt5decayIT_E4typeEJDpNS3_IT0_E4typeEEE4typeEESt6launchOS4_DpOS7_, .-_ZSt5asyncIZ6test02vEUlvE_JEESt6futureINSt15__invoke_resultINSt5decayIT_E4typeEJDpNS3_IT0_E4typeEEE4typeEESt6launchOS4_DpOS7_
	.align	2
	.type	_ZNSt6threadC2IZ6test03vEUlvE_JEvEEOT_DpOT0_, %function
_ZNSt6threadC2IZ6test03vEUlvE_JEvEEOT_DpOT0_:
.LFB4019:
	.cfi_startproc
	.cfi_personality 0x9b,DW.ref.__gxx_personality_v0
	.cfi_lsda 0x1b,.LLSDA4019
	stp	x29, x30, [sp, -80]!
	.cfi_def_cfa_offset 80
	.cfi_offset 29, -80
	.cfi_offset 30, -72
	mov	x29, sp
	stp	x19, x20, [sp, 16]
	.cfi_offset 19, -64
	.cfi_offset 20, -56
	str	x0, [sp, 40]
	str	x1, [sp, 32]
	adrp	x0, :got:__stack_chk_guard
	ldr	x0, [x0, #:got_lo12:__stack_chk_guard]
	ldr	x1, [x0]
	str	x1, [sp, 72]
	mov	x1, 0
	ldr	x0, [sp, 40]
	bl	_ZNSt6thread2idC1Ev
	str	xzr, [sp, 64]
	ldr	x0, [sp, 32]
	bl	_ZSt7forwardIZ6test03vEUlvE_EOT_RNSt16remove_referenceIS1_E4typeE
	mov	x20, x0
	mov	x0, 16
.LEHB26:
	bl	_Znwm
.LEHE26:
	mov	x19, x0
	mov	x1, x20
	mov	x0, x19
.LEHB27:
	bl	_ZNSt6thread11_State_implINS_8_InvokerISt5tupleIJZ6test03vEUlvE_EEEEEC1IJS3_EEEDpOT_
.LEHE27:
	add	x0, sp, 56
	mov	x1, x19
	bl	_ZNSt10unique_ptrINSt6thread6_StateESt14default_deleteIS1_EEC1IS3_vEEPS1_
	add	x0, sp, 56
	mov	x2, 0
	mov	x1, x0
	ldr	x0, [sp, 40]
.LEHB28:
	bl	_ZNSt6thread15_M_start_threadESt10unique_ptrINS_6_StateESt14default_deleteIS1_EEPFvvE
.LEHE28:
	add	x0, sp, 56
	bl	_ZNSt10unique_ptrINSt6thread6_StateESt14default_deleteIS1_EED1Ev
	nop
	adrp	x0, :got:__stack_chk_guard
	ldr	x0, [x0, #:got_lo12:__stack_chk_guard]
	ldr	x2, [sp, 72]
	ldr	x1, [x0]
	subs	x2, x2, x1
	mov	x1, 0
	beq	.L340
	b	.L343
.L341:
	mov	x20, x0
	mov	x1, 16
	mov	x0, x19
	bl	_ZdlPvm
	mov	x0, x20
.LEHB29:
	bl	_Unwind_Resume
.L342:
	mov	x19, x0
	add	x0, sp, 56
	bl	_ZNSt10unique_ptrINSt6thread6_StateESt14default_deleteIS1_EED1Ev
	mov	x0, x19
	bl	_Unwind_Resume
.LEHE29:
.L343:
	bl	__stack_chk_fail
.L340:
	ldp	x19, x20, [sp, 16]
	ldp	x29, x30, [sp], 80
	.cfi_restore 30
	.cfi_restore 29
	.cfi_restore 19
	.cfi_restore 20
	.cfi_def_cfa_offset 0
	ret
	.cfi_endproc
.LFE4019:
	.section	.gcc_except_table
.LLSDA4019:
	.byte	0xff
	.byte	0xff
	.byte	0x1
	.uleb128 .LLSDACSE4019-.LLSDACSB4019
.LLSDACSB4019:
	.uleb128 .LEHB26-.LFB4019
	.uleb128 .LEHE26-.LEHB26
	.uleb128 0
	.uleb128 0
	.uleb128 .LEHB27-.LFB4019
	.uleb128 .LEHE27-.LEHB27
	.uleb128 .L341-.LFB4019
	.uleb128 0
	.uleb128 .LEHB28-.LFB4019
	.uleb128 .LEHE28-.LEHB28
	.uleb128 .L342-.LFB4019
	.uleb128 0
	.uleb128 .LEHB29-.LFB4019
	.uleb128 .LEHE29-.LEHB29
	.uleb128 0
	.uleb128 0
.LLSDACSE4019:
	.text
	.size	_ZNSt6threadC2IZ6test03vEUlvE_JEvEEOT_DpOT0_, .-_ZNSt6threadC2IZ6test03vEUlvE_JEvEEOT_DpOT0_
	.set	_ZNSt6threadC1IZ6test03vEUlvE_JEvEEOT_DpOT0_,_ZNSt6threadC2IZ6test03vEUlvE_JEvEEOT_DpOT0_
	.section	.text._ZSt4moveIRNSt7__cxx1112basic_stringIcSt11char_traitsIcESaIcEEEEONSt16remove_referenceIT_E4typeEOS8_,"axG",@progbits,_ZSt4moveIRNSt7__cxx1112basic_stringIcSt11char_traitsIcESaIcEEEEONSt16remove_referenceIT_E4typeEOS8_,comdat
	.align	2
	.weak	_ZSt4moveIRNSt7__cxx1112basic_stringIcSt11char_traitsIcESaIcEEEEONSt16remove_referenceIT_E4typeEOS8_
	.type	_ZSt4moveIRNSt7__cxx1112basic_stringIcSt11char_traitsIcESaIcEEEEONSt16remove_referenceIT_E4typeEOS8_, %function
_ZSt4moveIRNSt7__cxx1112basic_stringIcSt11char_traitsIcESaIcEEEEONSt16remove_referenceIT_E4typeEOS8_:
.LFB4095:
	.cfi_startproc
	sub	sp, sp, #16
	.cfi_def_cfa_offset 16
	str	x0, [sp, 8]
	ldr	x0, [sp, 8]
	add	sp, sp, 16
	.cfi_def_cfa_offset 0
	ret
	.cfi_endproc
.LFE4095:
	.size	_ZSt4moveIRNSt7__cxx1112basic_stringIcSt11char_traitsIcESaIcEEEEONSt16remove_referenceIT_E4typeEOS8_, .-_ZSt4moveIRNSt7__cxx1112basic_stringIcSt11char_traitsIcESaIcEEEEONSt16remove_referenceIT_E4typeEOS8_
	.global	__aarch64_ldadd4_acq_rel
	.section	.text._ZNSt16_Sp_counted_baseILN9__gnu_cxx12_Lock_policyE2EE10_M_releaseEv,"axG",@progbits,_ZNSt16_Sp_counted_baseILN9__gnu_cxx12_Lock_policyE2EE10_M_releaseEv,comdat
	.align	2
	.weak	_ZNSt16_Sp_counted_baseILN9__gnu_cxx12_Lock_policyE2EE10_M_releaseEv
	.type	_ZNSt16_Sp_counted_baseILN9__gnu_cxx12_Lock_policyE2EE10_M_releaseEv, %function
_ZNSt16_Sp_counted_baseILN9__gnu_cxx12_Lock_policyE2EE10_M_releaseEv:
.LFB4118:
	.cfi_startproc
	stp	x29, x30, [sp, -112]!
	.cfi_def_cfa_offset 112
	.cfi_offset 29, -112
	.cfi_offset 30, -104
	mov	x29, sp
	str	x0, [sp, 24]
	ldr	x0, [sp, 24]
	add	x0, x0, 8
	str	x0, [sp, 64]
	mov	w0, -1
	str	w0, [sp, 32]
	adrp	x0, :got:__libc_single_threaded
	ldr	x0, [x0, #:got_lo12:__libc_single_threaded]
	ldrb	w0, [x0]
	cmp	w0, 0
	cset	w0, ne
	and	w0, w0, 255
	cmp	w0, 0
	beq	.L348
	ldr	x0, [sp, 64]
	str	x0, [sp, 72]
	ldr	w0, [sp, 32]
	str	w0, [sp, 36]
	ldr	x0, [sp, 72]
	ldr	w0, [x0]
	str	w0, [sp, 40]
	ldr	x0, [sp, 72]
	ldr	w1, [x0]
	ldr	w0, [sp, 36]
	add	w1, w1, w0
	ldr	x0, [sp, 72]
	str	w1, [x0]
	ldr	w0, [sp, 40]
	b	.L350
.L348:
	ldr	x0, [sp, 64]
	str	x0, [sp, 80]
	ldr	w0, [sp, 32]
	str	w0, [sp, 44]
	ldr	w0, [sp, 44]
	ldr	x1, [sp, 80]
	bl	__aarch64_ldadd4_acq_rel
	nop
.L350:
	cmp	w0, 1
	cset	w0, eq
	and	w0, w0, 255
	cmp	w0, 0
	beq	.L358
	ldr	x0, [sp, 24]
	ldr	x0, [x0]
	add	x0, x0, 16
	ldr	x1, [x0]
	ldr	x0, [sp, 24]
	blr	x1
	ldr	x0, [sp, 24]
	add	x0, x0, 12
	str	x0, [sp, 88]
	mov	w0, -1
	str	w0, [sp, 48]
	adrp	x0, :got:__libc_single_threaded
	ldr	x0, [x0, #:got_lo12:__libc_single_threaded]
	ldrb	w0, [x0]
	cmp	w0, 0
	cset	w0, ne
	and	w0, w0, 255
	cmp	w0, 0
	beq	.L354
	ldr	x0, [sp, 88]
	str	x0, [sp, 96]
	ldr	w0, [sp, 48]
	str	w0, [sp, 52]
	ldr	x0, [sp, 96]
	ldr	w0, [x0]
	str	w0, [sp, 56]
	ldr	x0, [sp, 96]
	ldr	w1, [x0]
	ldr	w0, [sp, 52]
	add	w1, w1, w0
	ldr	x0, [sp, 96]
	str	w1, [x0]
	ldr	w0, [sp, 56]
	b	.L356
.L354:
	ldr	x0, [sp, 88]
	str	x0, [sp, 104]
	ldr	w0, [sp, 48]
	str	w0, [sp, 60]
	ldr	w0, [sp, 60]
	ldr	x1, [sp, 104]
	bl	__aarch64_ldadd4_acq_rel
	nop
.L356:
	cmp	w0, 1
	cset	w0, eq
	and	w0, w0, 255
	cmp	w0, 0
	beq	.L358
	ldr	x0, [sp, 24]
	ldr	x0, [x0]
	add	x0, x0, 24
	ldr	x1, [x0]
	ldr	x0, [sp, 24]
	blr	x1
.L358:
	nop
	ldp	x29, x30, [sp], 112
	.cfi_restore 30
	.cfi_restore 29
	.cfi_def_cfa_offset 0
	ret
	.cfi_endproc
.LFE4118:
	.size	_ZNSt16_Sp_counted_baseILN9__gnu_cxx12_Lock_policyE2EE10_M_releaseEv, .-_ZNSt16_Sp_counted_baseILN9__gnu_cxx12_Lock_policyE2EE10_M_releaseEv
	.section	.text._ZSt4moveIRNSt6thread2idEEONSt16remove_referenceIT_E4typeEOS4_,"axG",@progbits,_ZSt4moveIRNSt6thread2idEEONSt16remove_referenceIT_E4typeEOS4_,comdat
	.align	2
	.weak	_ZSt4moveIRNSt6thread2idEEONSt16remove_referenceIT_E4typeEOS4_
	.type	_ZSt4moveIRNSt6thread2idEEONSt16remove_referenceIT_E4typeEOS4_, %function
_ZSt4moveIRNSt6thread2idEEONSt16remove_referenceIT_E4typeEOS4_:
.LFB4120:
	.cfi_startproc
	sub	sp, sp, #16
	.cfi_def_cfa_offset 16
	str	x0, [sp, 8]
	ldr	x0, [sp, 8]
	add	sp, sp, 16
	.cfi_def_cfa_offset 0
	ret
	.cfi_endproc
.LFE4120:
	.size	_ZSt4moveIRNSt6thread2idEEONSt16remove_referenceIT_E4typeEOS4_, .-_ZSt4moveIRNSt6thread2idEEONSt16remove_referenceIT_E4typeEOS4_
	.section	.text._ZNSt11_Tuple_implILm0EJPNSt13__future_base12_Result_baseENS1_8_DeleterEEEC2Ev,"axG",@progbits,_ZNSt11_Tuple_implILm0EJPNSt13__future_base12_Result_baseENS1_8_DeleterEEEC5Ev,comdat
	.align	2
	.weak	_ZNSt11_Tuple_implILm0EJPNSt13__future_base12_Result_baseENS1_8_DeleterEEEC2Ev
	.type	_ZNSt11_Tuple_implILm0EJPNSt13__future_base12_Result_baseENS1_8_DeleterEEEC2Ev, %function
_ZNSt11_Tuple_implILm0EJPNSt13__future_base12_Result_baseENS1_8_DeleterEEEC2Ev:
.LFB4122:
	.cfi_startproc
	stp	x29, x30, [sp, -32]!
	.cfi_def_cfa_offset 32
	.cfi_offset 29, -32
	.cfi_offset 30, -24
	mov	x29, sp
	str	x0, [sp, 24]
	ldr	x0, [sp, 24]
	bl	_ZNSt11_Tuple_implILm1EJNSt13__future_base12_Result_base8_DeleterEEEC2Ev
	ldr	x0, [sp, 24]
	bl	_ZNSt10_Head_baseILm0EPNSt13__future_base12_Result_baseELb0EEC2Ev
	nop
	ldp	x29, x30, [sp], 32
	.cfi_restore 30
	.cfi_restore 29
	.cfi_def_cfa_offset 0
	ret
	.cfi_endproc
.LFE4122:
	.size	_ZNSt11_Tuple_implILm0EJPNSt13__future_base12_Result_baseENS1_8_DeleterEEEC2Ev, .-_ZNSt11_Tuple_implILm0EJPNSt13__future_base12_Result_baseENS1_8_DeleterEEEC2Ev
	.weak	_ZNSt11_Tuple_implILm0EJPNSt13__future_base12_Result_baseENS1_8_DeleterEEEC1Ev
	.set	_ZNSt11_Tuple_implILm0EJPNSt13__future_base12_Result_baseENS1_8_DeleterEEEC1Ev,_ZNSt11_Tuple_implILm0EJPNSt13__future_base12_Result_baseENS1_8_DeleterEEEC2Ev
	.section	.text._ZNSt15__uniq_ptr_implINSt13__future_base12_Result_baseENS1_8_DeleterEE6_M_ptrEv,"axG",@progbits,_ZNSt15__uniq_ptr_implINSt13__future_base12_Result_baseENS1_8_DeleterEE6_M_ptrEv,comdat
	.align	2
	.weak	_ZNSt15__uniq_ptr_implINSt13__future_base12_Result_baseENS1_8_DeleterEE6_M_ptrEv
	.type	_ZNSt15__uniq_ptr_implINSt13__future_base12_Result_baseENS1_8_DeleterEE6_M_ptrEv, %function
_ZNSt15__uniq_ptr_implINSt13__future_base12_Result_baseENS1_8_DeleterEE6_M_ptrEv:
.LFB4124:
	.cfi_startproc
	stp	x29, x30, [sp, -32]!
	.cfi_def_cfa_offset 32
	.cfi_offset 29, -32
	.cfi_offset 30, -24
	mov	x29, sp
	str	x0, [sp, 24]
	ldr	x0, [sp, 24]
	bl	_ZSt3getILm0EJPNSt13__future_base12_Result_baseENS1_8_DeleterEEERNSt13tuple_elementIXT_ESt5tupleIJDpT0_EEE4typeERS8_
	ldp	x29, x30, [sp], 32
	.cfi_restore 30
	.cfi_restore 29
	.cfi_def_cfa_offset 0
	ret
	.cfi_endproc
.LFE4124:
	.size	_ZNSt15__uniq_ptr_implINSt13__future_base12_Result_baseENS1_8_DeleterEE6_M_ptrEv, .-_ZNSt15__uniq_ptr_implINSt13__future_base12_Result_baseENS1_8_DeleterEE6_M_ptrEv
	.section	.text._ZNSt10unique_ptrINSt13__future_base12_Result_baseENS1_8_DeleterEE11get_deleterEv,"axG",@progbits,_ZNSt10unique_ptrINSt13__future_base12_Result_baseENS1_8_DeleterEE11get_deleterEv,comdat
	.align	2
	.weak	_ZNSt10unique_ptrINSt13__future_base12_Result_baseENS1_8_DeleterEE11get_deleterEv
	.type	_ZNSt10unique_ptrINSt13__future_base12_Result_baseENS1_8_DeleterEE11get_deleterEv, %function
_ZNSt10unique_ptrINSt13__future_base12_Result_baseENS1_8_DeleterEE11get_deleterEv:
.LFB4125:
	.cfi_startproc
	stp	x29, x30, [sp, -32]!
	.cfi_def_cfa_offset 32
	.cfi_offset 29, -32
	.cfi_offset 30, -24
	mov	x29, sp
	str	x0, [sp, 24]
	ldr	x0, [sp, 24]
	bl	_ZNSt15__uniq_ptr_implINSt13__future_base12_Result_baseENS1_8_DeleterEE10_M_deleterEv
	ldp	x29, x30, [sp], 32
	.cfi_restore 30
	.cfi_restore 29
	.cfi_def_cfa_offset 0
	ret
	.cfi_endproc
.LFE4125:
	.size	_ZNSt10unique_ptrINSt13__future_base12_Result_baseENS1_8_DeleterEE11get_deleterEv, .-_ZNSt10unique_ptrINSt13__future_base12_Result_baseENS1_8_DeleterEE11get_deleterEv
	.section	.text._ZSt4moveIRPNSt13__future_base12_Result_baseEEONSt16remove_referenceIT_E4typeEOS5_,"axG",@progbits,_ZSt4moveIRPNSt13__future_base12_Result_baseEEONSt16remove_referenceIT_E4typeEOS5_,comdat
	.align	2
	.weak	_ZSt4moveIRPNSt13__future_base12_Result_baseEEONSt16remove_referenceIT_E4typeEOS5_
	.type	_ZSt4moveIRPNSt13__future_base12_Result_baseEEONSt16remove_referenceIT_E4typeEOS5_, %function
_ZSt4moveIRPNSt13__future_base12_Result_baseEEONSt16remove_referenceIT_E4typeEOS5_:
.LFB4126:
	.cfi_startproc
	sub	sp, sp, #16
	.cfi_def_cfa_offset 16
	str	x0, [sp, 8]
	ldr	x0, [sp, 8]
	add	sp, sp, 16
	.cfi_def_cfa_offset 0
	ret
	.cfi_endproc
.LFE4126:
	.size	_ZSt4moveIRPNSt13__future_base12_Result_baseEEONSt16remove_referenceIT_E4typeEOS5_, .-_ZSt4moveIRPNSt13__future_base12_Result_baseEEONSt16remove_referenceIT_E4typeEOS5_
	.section	.text._ZNSt23__atomic_futex_unsignedILj2147483648EE16_M_load_and_testEjjbSt12memory_order,"axG",@progbits,_ZNSt23__atomic_futex_unsignedILj2147483648EE16_M_load_and_testEjjbSt12memory_order,comdat
	.align	2
	.weak	_ZNSt23__atomic_futex_unsignedILj2147483648EE16_M_load_and_testEjjbSt12memory_order
	.type	_ZNSt23__atomic_futex_unsignedILj2147483648EE16_M_load_and_testEjjbSt12memory_order, %function
_ZNSt23__atomic_futex_unsignedILj2147483648EE16_M_load_and_testEjjbSt12memory_order:
.LFB4128:
	.cfi_startproc
	stp	x29, x30, [sp, -48]!
	.cfi_def_cfa_offset 48
	.cfi_offset 29, -48
	.cfi_offset 30, -40
	mov	x29, sp
	str	x0, [sp, 40]
	str	w1, [sp, 36]
	str	w2, [sp, 32]
	strb	w3, [sp, 31]
	str	w4, [sp, 24]
	mov	x0, 0
	mov	x1, 0
	mov	x7, x1
	mov	x6, x0
	mov	w5, 0
	ldr	w4, [sp, 24]
	ldrb	w3, [sp, 31]
	ldr	w2, [sp, 32]
	ldr	w1, [sp, 36]
	ldr	x0, [sp, 40]
	bl	_ZNSt23__atomic_futex_unsignedILj2147483648EE22_M_load_and_test_untilEjjbSt12memory_orderbNSt6chrono8durationIlSt5ratioILl1ELl1EEEENS3_IlS4_ILl1ELl1000000000EEEE
	ldp	x29, x30, [sp], 48
	.cfi_restore 30
	.cfi_restore 29
	.cfi_def_cfa_offset 0
	ret
	.cfi_endproc
.LFE4128:
	.size	_ZNSt23__atomic_futex_unsignedILj2147483648EE16_M_load_and_testEjjbSt12memory_order, .-_ZNSt23__atomic_futex_unsignedILj2147483648EE16_M_load_and_testEjjbSt12memory_order
	.section	.text._ZNKSt10unique_ptrINSt13__future_base12_Result_baseENS1_8_DeleterEE3getEv,"axG",@progbits,_ZNKSt10unique_ptrINSt13__future_base12_Result_baseENS1_8_DeleterEE3getEv,comdat
	.align	2
	.weak	_ZNKSt10unique_ptrINSt13__future_base12_Result_baseENS1_8_DeleterEE3getEv
	.type	_ZNKSt10unique_ptrINSt13__future_base12_Result_baseENS1_8_DeleterEE3getEv, %function
_ZNKSt10unique_ptrINSt13__future_base12_Result_baseENS1_8_DeleterEE3getEv:
.LFB4129:
	.cfi_startproc
	stp	x29, x30, [sp, -32]!
	.cfi_def_cfa_offset 32
	.cfi_offset 29, -32
	.cfi_offset 30, -24
	mov	x29, sp
	str	x0, [sp, 24]
	ldr	x0, [sp, 24]
	bl	_ZNKSt15__uniq_ptr_implINSt13__future_base12_Result_baseENS1_8_DeleterEE6_M_ptrEv
	ldp	x29, x30, [sp], 32
	.cfi_restore 30
	.cfi_restore 29
	.cfi_def_cfa_offset 0
	ret
	.cfi_endproc
.LFE4129:
	.size	_ZNKSt10unique_ptrINSt13__future_base12_Result_baseENS1_8_DeleterEE3getEv, .-_ZNKSt10unique_ptrINSt13__future_base12_Result_baseENS1_8_DeleterEE3getEv
	.section	.text._ZSt7forwardIMNSt13__future_base13_State_baseV2EFvPSt8functionIFSt10unique_ptrINS0_12_Result_baseENS4_8_DeleterEEvEEPbEEOT_RNSt16remove_referenceISD_E4typeE,"axG",@progbits,_ZSt7forwardIMNSt13__future_base13_State_baseV2EFvPSt8functionIFSt10unique_ptrINS0_12_Result_baseENS4_8_DeleterEEvEEPbEEOT_RNSt16remove_referenceISD_E4typeE,comdat
	.align	2
	.weak	_ZSt7forwardIMNSt13__future_base13_State_baseV2EFvPSt8functionIFSt10unique_ptrINS0_12_Result_baseENS4_8_DeleterEEvEEPbEEOT_RNSt16remove_referenceISD_E4typeE
	.type	_ZSt7forwardIMNSt13__future_base13_State_baseV2EFvPSt8functionIFSt10unique_ptrINS0_12_Result_baseENS4_8_DeleterEEvEEPbEEOT_RNSt16remove_referenceISD_E4typeE, %function
_ZSt7forwardIMNSt13__future_base13_State_baseV2EFvPSt8functionIFSt10unique_ptrINS0_12_Result_baseENS4_8_DeleterEEvEEPbEEOT_RNSt16remove_referenceISD_E4typeE:
.LFB4130:
	.cfi_startproc
	sub	sp, sp, #16
	.cfi_def_cfa_offset 16
	str	x0, [sp, 8]
	ldr	x0, [sp, 8]
	add	sp, sp, 16
	.cfi_def_cfa_offset 0
	ret
	.cfi_endproc
.LFE4130:
	.size	_ZSt7forwardIMNSt13__future_base13_State_baseV2EFvPSt8functionIFSt10unique_ptrINS0_12_Result_baseENS4_8_DeleterEEvEEPbEEOT_RNSt16remove_referenceISD_E4typeE, .-_ZSt7forwardIMNSt13__future_base13_State_baseV2EFvPSt8functionIFSt10unique_ptrINS0_12_Result_baseENS4_8_DeleterEEvEEPbEEOT_RNSt16remove_referenceISD_E4typeE
	.section	.text._ZSt7forwardIPNSt13__future_base13_State_baseV2EEOT_RNSt16remove_referenceIS3_E4typeE,"axG",@progbits,_ZSt7forwardIPNSt13__future_base13_State_baseV2EEOT_RNSt16remove_referenceIS3_E4typeE,comdat
	.align	2
	.weak	_ZSt7forwardIPNSt13__future_base13_State_baseV2EEOT_RNSt16remove_referenceIS3_E4typeE
	.type	_ZSt7forwardIPNSt13__future_base13_State_baseV2EEOT_RNSt16remove_referenceIS3_E4typeE, %function
_ZSt7forwardIPNSt13__future_base13_State_baseV2EEOT_RNSt16remove_referenceIS3_E4typeE:
.LFB4131:
	.cfi_startproc
	sub	sp, sp, #16
	.cfi_def_cfa_offset 16
	str	x0, [sp, 8]
	ldr	x0, [sp, 8]
	add	sp, sp, 16
	.cfi_def_cfa_offset 0
	ret
	.cfi_endproc
.LFE4131:
	.size	_ZSt7forwardIPNSt13__future_base13_State_baseV2EEOT_RNSt16remove_referenceIS3_E4typeE, .-_ZSt7forwardIPNSt13__future_base13_State_baseV2EEOT_RNSt16remove_referenceIS3_E4typeE
	.section	.text._ZSt7forwardIPSt8functionIFSt10unique_ptrINSt13__future_base12_Result_baseENS3_8_DeleterEEvEEEOT_RNSt16remove_referenceIS9_E4typeE,"axG",@progbits,_ZSt7forwardIPSt8functionIFSt10unique_ptrINSt13__future_base12_Result_baseENS3_8_DeleterEEvEEEOT_RNSt16remove_referenceIS9_E4typeE,comdat
	.align	2
	.weak	_ZSt7forwardIPSt8functionIFSt10unique_ptrINSt13__future_base12_Result_baseENS3_8_DeleterEEvEEEOT_RNSt16remove_referenceIS9_E4typeE
	.type	_ZSt7forwardIPSt8functionIFSt10unique_ptrINSt13__future_base12_Result_baseENS3_8_DeleterEEvEEEOT_RNSt16remove_referenceIS9_E4typeE, %function
_ZSt7forwardIPSt8functionIFSt10unique_ptrINSt13__future_base12_Result_baseENS3_8_DeleterEEvEEEOT_RNSt16remove_referenceIS9_E4typeE:
.LFB4132:
	.cfi_startproc
	sub	sp, sp, #16
	.cfi_def_cfa_offset 16
	str	x0, [sp, 8]
	ldr	x0, [sp, 8]
	add	sp, sp, 16
	.cfi_def_cfa_offset 0
	ret
	.cfi_endproc
.LFE4132:
	.size	_ZSt7forwardIPSt8functionIFSt10unique_ptrINSt13__future_base12_Result_baseENS3_8_DeleterEEvEEEOT_RNSt16remove_referenceIS9_E4typeE, .-_ZSt7forwardIPSt8functionIFSt10unique_ptrINSt13__future_base12_Result_baseENS3_8_DeleterEEvEEEOT_RNSt16remove_referenceIS9_E4typeE
	.section	.text._ZSt7forwardIPbEOT_RNSt16remove_referenceIS1_E4typeE,"axG",@progbits,_ZSt7forwardIPbEOT_RNSt16remove_referenceIS1_E4typeE,comdat
	.align	2
	.weak	_ZSt7forwardIPbEOT_RNSt16remove_referenceIS1_E4typeE
	.type	_ZSt7forwardIPbEOT_RNSt16remove_referenceIS1_E4typeE, %function
_ZSt7forwardIPbEOT_RNSt16remove_referenceIS1_E4typeE:
.LFB4133:
	.cfi_startproc
	sub	sp, sp, #16
	.cfi_def_cfa_offset 16
	str	x0, [sp, 8]
	ldr	x0, [sp, 8]
	add	sp, sp, 16
	.cfi_def_cfa_offset 0
	ret
	.cfi_endproc
.LFE4133:
	.size	_ZSt7forwardIPbEOT_RNSt16remove_referenceIS1_E4typeE, .-_ZSt7forwardIPbEOT_RNSt16remove_referenceIS1_E4typeE
	.section	.text._ZSt8__invokeIMNSt13__future_base13_State_baseV2EFvPSt8functionIFSt10unique_ptrINS0_12_Result_baseENS4_8_DeleterEEvEEPbEJPS1_S9_SA_EENSt15__invoke_resultIT_JDpT0_EE4typeEOSF_DpOSG_,"axG",@progbits,_ZSt8__invokeIMNSt13__future_base13_State_baseV2EFvPSt8functionIFSt10unique_ptrINS0_12_Result_baseENS4_8_DeleterEEvEEPbEJPS1_S9_SA_EENSt15__invoke_resultIT_JDpT0_EE4typeEOSF_DpOSG_,comdat
	.align	2
	.weak	_ZSt8__invokeIMNSt13__future_base13_State_baseV2EFvPSt8functionIFSt10unique_ptrINS0_12_Result_baseENS4_8_DeleterEEvEEPbEJPS1_S9_SA_EENSt15__invoke_resultIT_JDpT0_EE4typeEOSF_DpOSG_
	.type	_ZSt8__invokeIMNSt13__future_base13_State_baseV2EFvPSt8functionIFSt10unique_ptrINS0_12_Result_baseENS4_8_DeleterEEvEEPbEJPS1_S9_SA_EENSt15__invoke_resultIT_JDpT0_EE4typeEOSF_DpOSG_, %function
_ZSt8__invokeIMNSt13__future_base13_State_baseV2EFvPSt8functionIFSt10unique_ptrINS0_12_Result_baseENS4_8_DeleterEEvEEPbEJPS1_S9_SA_EENSt15__invoke_resultIT_JDpT0_EE4typeEOSF_DpOSG_:
.LFB4134:
	.cfi_startproc
	stp	x29, x30, [sp, -80]!
	.cfi_def_cfa_offset 80
	.cfi_offset 29, -80
	.cfi_offset 30, -72
	mov	x29, sp
	stp	x19, x20, [sp, 16]
	stp	x21, x22, [sp, 32]
	.cfi_offset 19, -64
	.cfi_offset 20, -56
	.cfi_offset 21, -48
	.cfi_offset 22, -40
	str	x0, [sp, 72]
	str	x1, [sp, 64]
	str	x2, [sp, 56]
	str	x3, [sp, 48]
	ldr	x0, [sp, 72]
	bl	_ZSt7forwardIMNSt13__future_base13_State_baseV2EFvPSt8functionIFSt10unique_ptrINS0_12_Result_baseENS4_8_DeleterEEvEEPbEEOT_RNSt16remove_referenceISD_E4typeE
	mov	x19, x0
	ldr	x0, [sp, 64]
	bl	_ZSt7forwardIPNSt13__future_base13_State_baseV2EEOT_RNSt16remove_referenceIS3_E4typeE
	mov	x20, x0
	ldr	x0, [sp, 56]
	bl	_ZSt7forwardIPSt8functionIFSt10unique_ptrINSt13__future_base12_Result_baseENS3_8_DeleterEEvEEEOT_RNSt16remove_referenceIS9_E4typeE
	mov	x21, x0
	ldr	x0, [sp, 48]
	bl	_ZSt7forwardIPbEOT_RNSt16remove_referenceIS1_E4typeE
	mov	x4, x0
	mov	x3, x21
	mov	x2, x20
	mov	x1, x19
	mov	w0, w22
	bl	_ZSt13__invoke_implIvMNSt13__future_base13_State_baseV2EFvPSt8functionIFSt10unique_ptrINS0_12_Result_baseENS4_8_DeleterEEvEEPbEPS1_JS9_SA_EET_St21__invoke_memfun_derefOT0_OT1_DpOT2_
	nop
	ldp	x19, x20, [sp, 16]
	ldp	x21, x22, [sp, 32]
	ldp	x29, x30, [sp], 80
	.cfi_restore 30
	.cfi_restore 29
	.cfi_restore 21
	.cfi_restore 22
	.cfi_restore 19
	.cfi_restore 20
	.cfi_def_cfa_offset 0
	ret
	.cfi_endproc
.LFE4134:
	.size	_ZSt8__invokeIMNSt13__future_base13_State_baseV2EFvPSt8functionIFSt10unique_ptrINS0_12_Result_baseENS4_8_DeleterEEvEEPbEJPS1_S9_SA_EENSt15__invoke_resultIT_JDpT0_EE4typeEOSF_DpOSG_, .-_ZSt8__invokeIMNSt13__future_base13_State_baseV2EFvPSt8functionIFSt10unique_ptrINS0_12_Result_baseENS4_8_DeleterEEvEEPbEJPS1_S9_SA_EENSt15__invoke_resultIT_JDpT0_EE4typeEOSF_DpOSG_
	.section	.text._ZZNSt9once_flag18_Prepare_executionC4IZSt9call_onceIMNSt13__future_base13_State_baseV2EFvPSt8functionIFSt10unique_ptrINS3_12_Result_baseENS7_8_DeleterEEvEEPbEJPS4_SC_SD_EEvRS_OT_DpOT0_EUlvE_EERSI_ENKUlvE_clEv,"axG",@progbits,_ZZNSt9once_flag18_Prepare_executionC4IZSt9call_onceIMNSt13__future_base13_State_baseV2EFvPSt8functionIFSt10unique_ptrINS3_12_Result_baseENS7_8_DeleterEEvEEPbEJPS4_SC_SD_EEvRS_OT_DpOT0_EUlvE_EERSI_ENKUlvE_clEv,comdat
	.align	2
	.weak	_ZZNSt9once_flag18_Prepare_executionC4IZSt9call_onceIMNSt13__future_base13_State_baseV2EFvPSt8functionIFSt10unique_ptrINS3_12_Result_baseENS7_8_DeleterEEvEEPbEJPS4_SC_SD_EEvRS_OT_DpOT0_EUlvE_EERSI_ENKUlvE_clEv
	.type	_ZZNSt9once_flag18_Prepare_executionC4IZSt9call_onceIMNSt13__future_base13_State_baseV2EFvPSt8functionIFSt10unique_ptrINS3_12_Result_baseENS7_8_DeleterEEvEEPbEJPS4_SC_SD_EEvRS_OT_DpOT0_EUlvE_EERSI_ENKUlvE_clEv, %function
_ZZNSt9once_flag18_Prepare_executionC4IZSt9call_onceIMNSt13__future_base13_State_baseV2EFvPSt8functionIFSt10unique_ptrINS3_12_Result_baseENS7_8_DeleterEEvEEPbEJPS4_SC_SD_EEvRS_OT_DpOT0_EUlvE_EERSI_ENKUlvE_clEv:
.LFB4136:
	.cfi_startproc
	stp	x29, x30, [sp, -32]!
	.cfi_def_cfa_offset 32
	.cfi_offset 29, -32
	.cfi_offset 30, -24
	mov	x29, sp
	str	x0, [sp, 24]
	mrs	x1, tpidr_el0
	adrp	x0, :gottprel:_ZSt15__once_callable
	ldr	x0, [x0, #:gottprel_lo12:_ZSt15__once_callable]
	add	x0, x1, x0
	ldr	x0, [x0]
	bl	_ZZSt9call_onceIMNSt13__future_base13_State_baseV2EFvPSt8functionIFSt10unique_ptrINS0_12_Result_baseENS4_8_DeleterEEvEEPbEJPS1_S9_SA_EEvRSt9once_flagOT_DpOT0_ENKUlvE_clEv
	nop
	ldp	x29, x30, [sp], 32
	.cfi_restore 30
	.cfi_restore 29
	.cfi_def_cfa_offset 0
	ret
	.cfi_endproc
.LFE4136:
	.size	_ZZNSt9once_flag18_Prepare_executionC4IZSt9call_onceIMNSt13__future_base13_State_baseV2EFvPSt8functionIFSt10unique_ptrINS3_12_Result_baseENS7_8_DeleterEEvEEPbEJPS4_SC_SD_EEvRS_OT_DpOT0_EUlvE_EERSI_ENKUlvE_clEv, .-_ZZNSt9once_flag18_Prepare_executionC4IZSt9call_onceIMNSt13__future_base13_State_baseV2EFvPSt8functionIFSt10unique_ptrINS3_12_Result_baseENS7_8_DeleterEEvEEPbEJPS4_SC_SD_EEvRS_OT_DpOT0_EUlvE_EERSI_ENKUlvE_clEv
	.section	.text._ZZNSt9once_flag18_Prepare_executionC4IZSt9call_onceIMNSt13__future_base13_State_baseV2EFvPSt8functionIFSt10unique_ptrINS3_12_Result_baseENS7_8_DeleterEEvEEPbEJPS4_SC_SD_EEvRS_OT_DpOT0_EUlvE_EERSI_ENUlvE_4_FUNEv,"axG",@progbits,_ZZNSt9once_flag18_Prepare_executionC4IZSt9call_onceIMNSt13__future_base13_State_baseV2EFvPSt8functionIFSt10unique_ptrINS3_12_Result_baseENS7_8_DeleterEEvEEPbEJPS4_SC_SD_EEvRS_OT_DpOT0_EUlvE_EERSI_ENUlvE_4_FUNEv,comdat
	.align	2
	.weak	_ZZNSt9once_flag18_Prepare_executionC4IZSt9call_onceIMNSt13__future_base13_State_baseV2EFvPSt8functionIFSt10unique_ptrINS3_12_Result_baseENS7_8_DeleterEEvEEPbEJPS4_SC_SD_EEvRS_OT_DpOT0_EUlvE_EERSI_ENUlvE_4_FUNEv
	.type	_ZZNSt9once_flag18_Prepare_executionC4IZSt9call_onceIMNSt13__future_base13_State_baseV2EFvPSt8functionIFSt10unique_ptrINS3_12_Result_baseENS7_8_DeleterEEvEEPbEJPS4_SC_SD_EEvRS_OT_DpOT0_EUlvE_EERSI_ENUlvE_4_FUNEv, %function
_ZZNSt9once_flag18_Prepare_executionC4IZSt9call_onceIMNSt13__future_base13_State_baseV2EFvPSt8functionIFSt10unique_ptrINS3_12_Result_baseENS7_8_DeleterEEvEEPbEJPS4_SC_SD_EEvRS_OT_DpOT0_EUlvE_EERSI_ENUlvE_4_FUNEv:
.LFB4137:
	.cfi_startproc
	stp	x29, x30, [sp, -16]!
	.cfi_def_cfa_offset 16
	.cfi_offset 29, -16
	.cfi_offset 30, -8
	mov	x29, sp
	mov	x0, 0
	bl	_ZZNSt9once_flag18_Prepare_executionC4IZSt9call_onceIMNSt13__future_base13_State_baseV2EFvPSt8functionIFSt10unique_ptrINS3_12_Result_baseENS7_8_DeleterEEvEEPbEJPS4_SC_SD_EEvRS_OT_DpOT0_EUlvE_EERSI_ENKUlvE_clEv
	ldp	x29, x30, [sp], 16
	.cfi_restore 30
	.cfi_restore 29
	.cfi_def_cfa_offset 0
	ret
	.cfi_endproc
.LFE4137:
	.size	_ZZNSt9once_flag18_Prepare_executionC4IZSt9call_onceIMNSt13__future_base13_State_baseV2EFvPSt8functionIFSt10unique_ptrINS3_12_Result_baseENS7_8_DeleterEEvEEPbEJPS4_SC_SD_EEvRS_OT_DpOT0_EUlvE_EERSI_ENUlvE_4_FUNEv, .-_ZZNSt9once_flag18_Prepare_executionC4IZSt9call_onceIMNSt13__future_base13_State_baseV2EFvPSt8functionIFSt10unique_ptrINS3_12_Result_baseENS7_8_DeleterEEvEEPbEJPS4_SC_SD_EEvRS_OT_DpOT0_EUlvE_EERSI_ENUlvE_4_FUNEv
	.section	.text._ZZNSt9once_flag18_Prepare_executionC4IZSt9call_onceIMNSt13__future_base13_State_baseV2EFvPSt8functionIFSt10unique_ptrINS3_12_Result_baseENS7_8_DeleterEEvEEPbEJPS4_SC_SD_EEvRS_OT_DpOT0_EUlvE_EERSI_ENKUlvE_cvPFvvEEv,"axG",@progbits,_ZZNSt9once_flag18_Prepare_executionC4IZSt9call_onceIMNSt13__future_base13_State_baseV2EFvPSt8functionIFSt10unique_ptrINS3_12_Result_baseENS7_8_DeleterEEvEEPbEJPS4_SC_SD_EEvRS_OT_DpOT0_EUlvE_EERSI_ENKUlvE_cvPFvvEEv,comdat
	.align	2
	.weak	_ZZNSt9once_flag18_Prepare_executionC4IZSt9call_onceIMNSt13__future_base13_State_baseV2EFvPSt8functionIFSt10unique_ptrINS3_12_Result_baseENS7_8_DeleterEEvEEPbEJPS4_SC_SD_EEvRS_OT_DpOT0_EUlvE_EERSI_ENKUlvE_cvPFvvEEv
	.type	_ZZNSt9once_flag18_Prepare_executionC4IZSt9call_onceIMNSt13__future_base13_State_baseV2EFvPSt8functionIFSt10unique_ptrINS3_12_Result_baseENS7_8_DeleterEEvEEPbEJPS4_SC_SD_EEvRS_OT_DpOT0_EUlvE_EERSI_ENKUlvE_cvPFvvEEv, %function
_ZZNSt9once_flag18_Prepare_executionC4IZSt9call_onceIMNSt13__future_base13_State_baseV2EFvPSt8functionIFSt10unique_ptrINS3_12_Result_baseENS7_8_DeleterEEvEEPbEJPS4_SC_SD_EEvRS_OT_DpOT0_EUlvE_EERSI_ENKUlvE_cvPFvvEEv:
.LFB4138:
	.cfi_startproc
	sub	sp, sp, #16
	.cfi_def_cfa_offset 16
	str	x0, [sp, 8]
	adrp	x0, _ZZNSt9once_flag18_Prepare_executionC4IZSt9call_onceIMNSt13__future_base13_State_baseV2EFvPSt8functionIFSt10unique_ptrINS3_12_Result_baseENS7_8_DeleterEEvEEPbEJPS4_SC_SD_EEvRS_OT_DpOT0_EUlvE_EERSI_ENUlvE_4_FUNEv
	add	x0, x0, :lo12:_ZZNSt9once_flag18_Prepare_executionC4IZSt9call_onceIMNSt13__future_base13_State_baseV2EFvPSt8functionIFSt10unique_ptrINS3_12_Result_baseENS7_8_DeleterEEvEEPbEJPS4_SC_SD_EEvRS_OT_DpOT0_EUlvE_EERSI_ENUlvE_4_FUNEv
	add	sp, sp, 16
	.cfi_def_cfa_offset 0
	ret
	.cfi_endproc
.LFE4138:
	.size	_ZZNSt9once_flag18_Prepare_executionC4IZSt9call_onceIMNSt13__future_base13_State_baseV2EFvPSt8functionIFSt10unique_ptrINS3_12_Result_baseENS7_8_DeleterEEvEEPbEJPS4_SC_SD_EEvRS_OT_DpOT0_EUlvE_EERSI_ENKUlvE_cvPFvvEEv, .-_ZZNSt9once_flag18_Prepare_executionC4IZSt9call_onceIMNSt13__future_base13_State_baseV2EFvPSt8functionIFSt10unique_ptrINS3_12_Result_baseENS7_8_DeleterEEvEEPbEJPS4_SC_SD_EEvRS_OT_DpOT0_EUlvE_EERSI_ENKUlvE_cvPFvvEEv
	.section	.text._ZNSt9once_flag18_Prepare_executionC2IZSt9call_onceIMNSt13__future_base13_State_baseV2EFvPSt8functionIFSt10unique_ptrINS3_12_Result_baseENS7_8_DeleterEEvEEPbEJPS4_SC_SD_EEvRS_OT_DpOT0_EUlvE_EERSI_,"axG",@progbits,_ZNSt9once_flag18_Prepare_executionC5IZSt9call_onceIMNSt13__future_base13_State_baseV2EFvPSt8functionIFSt10unique_ptrINS3_12_Result_baseENS7_8_DeleterEEvEEPbEJPS4_SC_SD_EEvRS_OT_DpOT0_EUlvE_EERSI_,comdat
	.align	2
	.weak	_ZNSt9once_flag18_Prepare_executionC2IZSt9call_onceIMNSt13__future_base13_State_baseV2EFvPSt8functionIFSt10unique_ptrINS3_12_Result_baseENS7_8_DeleterEEvEEPbEJPS4_SC_SD_EEvRS_OT_DpOT0_EUlvE_EERSI_
	.type	_ZNSt9once_flag18_Prepare_executionC2IZSt9call_onceIMNSt13__future_base13_State_baseV2EFvPSt8functionIFSt10unique_ptrINS3_12_Result_baseENS7_8_DeleterEEvEEPbEJPS4_SC_SD_EEvRS_OT_DpOT0_EUlvE_EERSI_, %function
_ZNSt9once_flag18_Prepare_executionC2IZSt9call_onceIMNSt13__future_base13_State_baseV2EFvPSt8functionIFSt10unique_ptrINS3_12_Result_baseENS7_8_DeleterEEvEEPbEJPS4_SC_SD_EEvRS_OT_DpOT0_EUlvE_EERSI_:
.LFB4139:
	.cfi_startproc
	stp	x29, x30, [sp, -48]!
	.cfi_def_cfa_offset 48
	.cfi_offset 29, -48
	.cfi_offset 30, -40
	mov	x29, sp
	str	x0, [sp, 24]
	str	x1, [sp, 16]
	adrp	x0, :got:__stack_chk_guard
	ldr	x0, [x0, #:got_lo12:__stack_chk_guard]
	ldr	x1, [x0]
	str	x1, [sp, 40]
	mov	x1, 0
	ldr	x0, [sp, 16]
	bl	_ZSt11__addressofIZSt9call_onceIMNSt13__future_base13_State_baseV2EFvPSt8functionIFSt10unique_ptrINS1_12_Result_baseENS5_8_DeleterEEvEEPbEJPS2_SA_SB_EEvRSt9once_flagOT_DpOT0_EUlvE_EPSH_RSH_
	mov	x2, x0
	mrs	x1, tpidr_el0
	adrp	x0, :gottprel:_ZSt15__once_callable
	ldr	x0, [x0, #:gottprel_lo12:_ZSt15__once_callable]
	add	x0, x1, x0
	str	x2, [x0]
	add	x0, sp, 32
	bl	_ZZNSt9once_flag18_Prepare_executionC4IZSt9call_onceIMNSt13__future_base13_State_baseV2EFvPSt8functionIFSt10unique_ptrINS3_12_Result_baseENS7_8_DeleterEEvEEPbEJPS4_SC_SD_EEvRS_OT_DpOT0_EUlvE_EERSI_ENKUlvE_cvPFvvEEv
	mov	x2, x0
	mrs	x1, tpidr_el0
	adrp	x0, :gottprel:_ZSt11__once_call
	ldr	x0, [x0, #:gottprel_lo12:_ZSt11__once_call]
	add	x0, x1, x0
	str	x2, [x0]
	nop
	adrp	x0, :got:__stack_chk_guard
	ldr	x0, [x0, #:got_lo12:__stack_chk_guard]
	ldr	x2, [sp, 40]
	ldr	x1, [x0]
	subs	x2, x2, x1
	mov	x1, 0
	beq	.L388
	bl	__stack_chk_fail
.L388:
	ldp	x29, x30, [sp], 48
	.cfi_restore 30
	.cfi_restore 29
	.cfi_def_cfa_offset 0
	ret
	.cfi_endproc
.LFE4139:
	.size	_ZNSt9once_flag18_Prepare_executionC2IZSt9call_onceIMNSt13__future_base13_State_baseV2EFvPSt8functionIFSt10unique_ptrINS3_12_Result_baseENS7_8_DeleterEEvEEPbEJPS4_SC_SD_EEvRS_OT_DpOT0_EUlvE_EERSI_, .-_ZNSt9once_flag18_Prepare_executionC2IZSt9call_onceIMNSt13__future_base13_State_baseV2EFvPSt8functionIFSt10unique_ptrINS3_12_Result_baseENS7_8_DeleterEEvEEPbEJPS4_SC_SD_EEvRS_OT_DpOT0_EUlvE_EERSI_
	.weak	_ZNSt9once_flag18_Prepare_executionC1IZSt9call_onceIMNSt13__future_base13_State_baseV2EFvPSt8functionIFSt10unique_ptrINS3_12_Result_baseENS7_8_DeleterEEvEEPbEJPS4_SC_SD_EEvRS_OT_DpOT0_EUlvE_EERSI_
	.set	_ZNSt9once_flag18_Prepare_executionC1IZSt9call_onceIMNSt13__future_base13_State_baseV2EFvPSt8functionIFSt10unique_ptrINS3_12_Result_baseENS7_8_DeleterEEvEEPbEJPS4_SC_SD_EEvRS_OT_DpOT0_EUlvE_EERSI_,_ZNSt9once_flag18_Prepare_executionC2IZSt9call_onceIMNSt13__future_base13_State_baseV2EFvPSt8functionIFSt10unique_ptrINS3_12_Result_baseENS7_8_DeleterEEvEEPbEJPS4_SC_SD_EEvRS_OT_DpOT0_EUlvE_EERSI_
	.section	.text._ZNSt15__exception_ptr12__dest_thunkISt12future_errorEEvPv,"axG",@progbits,_ZNSt15__exception_ptr12__dest_thunkISt12future_errorEEvPv,comdat
	.align	2
	.weak	_ZNSt15__exception_ptr12__dest_thunkISt12future_errorEEvPv
	.type	_ZNSt15__exception_ptr12__dest_thunkISt12future_errorEEvPv, %function
_ZNSt15__exception_ptr12__dest_thunkISt12future_errorEEvPv:
.LFB4161:
	.cfi_startproc
	stp	x29, x30, [sp, -32]!
	.cfi_def_cfa_offset 32
	.cfi_offset 29, -32
	.cfi_offset 30, -24
	mov	x29, sp
	str	x0, [sp, 24]
	ldr	x0, [sp, 24]
	ldr	x0, [x0]
	ldr	x1, [x0]
	ldr	x0, [sp, 24]
	blr	x1
	nop
	ldp	x29, x30, [sp], 32
	.cfi_restore 30
	.cfi_restore 29
	.cfi_def_cfa_offset 0
	ret
	.cfi_endproc
.LFE4161:
	.size	_ZNSt15__exception_ptr12__dest_thunkISt12future_errorEEvPv, .-_ZNSt15__exception_ptr12__dest_thunkISt12future_errorEEvPv
	.section	.text._ZSt7forwardISt12future_errorEOT_RNSt16remove_referenceIS1_E4typeE,"axG",@progbits,_ZSt7forwardISt12future_errorEOT_RNSt16remove_referenceIS1_E4typeE,comdat
	.align	2
	.weak	_ZSt7forwardISt12future_errorEOT_RNSt16remove_referenceIS1_E4typeE
	.type	_ZSt7forwardISt12future_errorEOT_RNSt16remove_referenceIS1_E4typeE, %function
_ZSt7forwardISt12future_errorEOT_RNSt16remove_referenceIS1_E4typeE:
.LFB4162:
	.cfi_startproc
	sub	sp, sp, #16
	.cfi_def_cfa_offset 16
	str	x0, [sp, 8]
	ldr	x0, [sp, 8]
	add	sp, sp, 16
	.cfi_def_cfa_offset 0
	ret
	.cfi_endproc
.LFE4162:
	.size	_ZSt7forwardISt12future_errorEOT_RNSt16remove_referenceIS1_E4typeE, .-_ZSt7forwardISt12future_errorEOT_RNSt16remove_referenceIS1_E4typeE
	.section	.text._ZNSt15__uniq_ptr_implINSt13__future_base12_Result_baseENS1_8_DeleterEE4swapERS3_,"axG",@progbits,_ZNSt15__uniq_ptr_implINSt13__future_base12_Result_baseENS1_8_DeleterEE4swapERS3_,comdat
	.align	2
	.weak	_ZNSt15__uniq_ptr_implINSt13__future_base12_Result_baseENS1_8_DeleterEE4swapERS3_
	.type	_ZNSt15__uniq_ptr_implINSt13__future_base12_Result_baseENS1_8_DeleterEE4swapERS3_, %function
_ZNSt15__uniq_ptr_implINSt13__future_base12_Result_baseENS1_8_DeleterEE4swapERS3_:
.LFB4163:
	.cfi_startproc
	stp	x29, x30, [sp, -48]!
	.cfi_def_cfa_offset 48
	.cfi_offset 29, -48
	.cfi_offset 30, -40
	mov	x29, sp
	str	x19, [sp, 16]
	.cfi_offset 19, -32
	str	x0, [sp, 40]
	str	x1, [sp, 32]
	ldr	x0, [sp, 40]
	bl	_ZNSt15__uniq_ptr_implINSt13__future_base12_Result_baseENS1_8_DeleterEE6_M_ptrEv
	mov	x19, x0
	ldr	x0, [sp, 32]
	bl	_ZNSt15__uniq_ptr_implINSt13__future_base12_Result_baseENS1_8_DeleterEE6_M_ptrEv
	mov	x1, x0
	mov	x0, x19
	bl	_ZSt4swapIPNSt13__future_base12_Result_baseEENSt9enable_ifIXsrSt6__and_IJSt6__not_ISt15__is_tuple_likeIT_EESt21is_move_constructibleIS7_ESt18is_move_assignableIS7_EEE5valueEvE4typeERS7_SH_
	ldr	x0, [sp, 40]
	bl	_ZNSt15__uniq_ptr_implINSt13__future_base12_Result_baseENS1_8_DeleterEE10_M_deleterEv
	mov	x19, x0
	ldr	x0, [sp, 32]
	bl	_ZNSt15__uniq_ptr_implINSt13__future_base12_Result_baseENS1_8_DeleterEE10_M_deleterEv
	mov	x1, x0
	mov	x0, x19
	bl	_ZSt4swapINSt13__future_base12_Result_base8_DeleterEENSt9enable_ifIXsrSt6__and_IJSt6__not_ISt15__is_tuple_likeIT_EESt21is_move_constructibleIS7_ESt18is_move_assignableIS7_EEE5valueEvE4typeERS7_SH_
	nop
	ldr	x19, [sp, 16]
	ldp	x29, x30, [sp], 48
	.cfi_restore 30
	.cfi_restore 29
	.cfi_restore 19
	.cfi_def_cfa_offset 0
	ret
	.cfi_endproc
.LFE4163:
	.size	_ZNSt15__uniq_ptr_implINSt13__future_base12_Result_baseENS1_8_DeleterEE4swapERS3_, .-_ZNSt15__uniq_ptr_implINSt13__future_base12_Result_baseENS1_8_DeleterEE4swapERS3_
	.section	.text._ZNSt14__shared_countILN9__gnu_cxx12_Lock_policyE2EEC2ERKS2_,"axG",@progbits,_ZNSt14__shared_countILN9__gnu_cxx12_Lock_policyE2EEC5ERKS2_,comdat
	.align	2
	.weak	_ZNSt14__shared_countILN9__gnu_cxx12_Lock_policyE2EEC2ERKS2_
	.type	_ZNSt14__shared_countILN9__gnu_cxx12_Lock_policyE2EEC2ERKS2_, %function
_ZNSt14__shared_countILN9__gnu_cxx12_Lock_policyE2EEC2ERKS2_:
.LFB4165:
	.cfi_startproc
	stp	x29, x30, [sp, -32]!
	.cfi_def_cfa_offset 32
	.cfi_offset 29, -32
	.cfi_offset 30, -24
	mov	x29, sp
	str	x0, [sp, 24]
	str	x1, [sp, 16]
	ldr	x0, [sp, 16]
	ldr	x1, [x0]
	ldr	x0, [sp, 24]
	str	x1, [x0]
	ldr	x0, [sp, 24]
	ldr	x0, [x0]
	cmp	x0, 0
	beq	.L395
	ldr	x0, [sp, 24]
	ldr	x0, [x0]
	bl	_ZNSt16_Sp_counted_baseILN9__gnu_cxx12_Lock_policyE2EE15_M_add_ref_copyEv
.L395:
	nop
	ldp	x29, x30, [sp], 32
	.cfi_restore 30
	.cfi_restore 29
	.cfi_def_cfa_offset 0
	ret
	.cfi_endproc
.LFE4165:
	.size	_ZNSt14__shared_countILN9__gnu_cxx12_Lock_policyE2EEC2ERKS2_, .-_ZNSt14__shared_countILN9__gnu_cxx12_Lock_policyE2EEC2ERKS2_
	.weak	_ZNSt14__shared_countILN9__gnu_cxx12_Lock_policyE2EEC1ERKS2_
	.set	_ZNSt14__shared_countILN9__gnu_cxx12_Lock_policyE2EEC1ERKS2_,_ZNSt14__shared_countILN9__gnu_cxx12_Lock_policyE2EEC2ERKS2_
	.section	.text._ZNSt12__shared_ptrINSt13__future_base13_State_baseV2ELN9__gnu_cxx12_Lock_policyE2EE5resetEv,"axG",@progbits,_ZNSt12__shared_ptrINSt13__future_base13_State_baseV2ELN9__gnu_cxx12_Lock_policyE2EE5resetEv,comdat
	.align	2
	.weak	_ZNSt12__shared_ptrINSt13__future_base13_State_baseV2ELN9__gnu_cxx12_Lock_policyE2EE5resetEv
	.type	_ZNSt12__shared_ptrINSt13__future_base13_State_baseV2ELN9__gnu_cxx12_Lock_policyE2EE5resetEv, %function
_ZNSt12__shared_ptrINSt13__future_base13_State_baseV2ELN9__gnu_cxx12_Lock_policyE2EE5resetEv:
.LFB4167:
	.cfi_startproc
	stp	x29, x30, [sp, -64]!
	.cfi_def_cfa_offset 64
	.cfi_offset 29, -64
	.cfi_offset 30, -56
	mov	x29, sp
	str	x0, [sp, 24]
	adrp	x0, :got:__stack_chk_guard
	ldr	x0, [x0, #:got_lo12:__stack_chk_guard]
	ldr	x1, [x0]
	str	x1, [sp, 56]
	mov	x1, 0
	add	x0, sp, 40
	bl	_ZNSt12__shared_ptrINSt13__future_base13_State_baseV2ELN9__gnu_cxx12_Lock_policyE2EEC1Ev
	add	x0, sp, 40
	ldr	x1, [sp, 24]
	bl	_ZNSt12__shared_ptrINSt13__future_base13_State_baseV2ELN9__gnu_cxx12_Lock_policyE2EE4swapERS4_
	add	x0, sp, 40
	bl	_ZNSt12__shared_ptrINSt13__future_base13_State_baseV2ELN9__gnu_cxx12_Lock_policyE2EED1Ev
	nop
	adrp	x0, :got:__stack_chk_guard
	ldr	x0, [x0, #:got_lo12:__stack_chk_guard]
	ldr	x2, [sp, 56]
	ldr	x1, [x0]
	subs	x2, x2, x1
	mov	x1, 0
	beq	.L397
	bl	__stack_chk_fail
.L397:
	ldp	x29, x30, [sp], 64
	.cfi_restore 30
	.cfi_restore 29
	.cfi_def_cfa_offset 0
	ret
	.cfi_endproc
.LFE4167:
	.size	_ZNSt12__shared_ptrINSt13__future_base13_State_baseV2ELN9__gnu_cxx12_Lock_policyE2EE5resetEv, .-_ZNSt12__shared_ptrINSt13__future_base13_State_baseV2ELN9__gnu_cxx12_Lock_policyE2EE5resetEv
	.section	.text._ZNSt15__uniq_ptr_implINSt13__future_base7_ResultIvEENS0_12_Result_base8_DeleterEEC2EPS2_,"axG",@progbits,_ZNSt15__uniq_ptr_implINSt13__future_base7_ResultIvEENS0_12_Result_base8_DeleterEEC5EPS2_,comdat
	.align	2
	.weak	_ZNSt15__uniq_ptr_implINSt13__future_base7_ResultIvEENS0_12_Result_base8_DeleterEEC2EPS2_
	.type	_ZNSt15__uniq_ptr_implINSt13__future_base7_ResultIvEENS0_12_Result_base8_DeleterEEC2EPS2_, %function
_ZNSt15__uniq_ptr_implINSt13__future_base7_ResultIvEENS0_12_Result_base8_DeleterEEC2EPS2_:
.LFB4177:
	.cfi_startproc
	stp	x29, x30, [sp, -48]!
	.cfi_def_cfa_offset 48
	.cfi_offset 29, -48
	.cfi_offset 30, -40
	mov	x29, sp
	str	x19, [sp, 16]
	.cfi_offset 19, -32
	str	x0, [sp, 40]
	str	x1, [sp, 32]
	ldr	x0, [sp, 40]
	bl	_ZNSt5tupleIJPNSt13__future_base7_ResultIvEENS0_12_Result_base8_DeleterEEEC1ILb1ELb1EEEv
	ldr	x19, [sp, 32]
	ldr	x0, [sp, 40]
	bl	_ZNSt15__uniq_ptr_implINSt13__future_base7_ResultIvEENS0_12_Result_base8_DeleterEE6_M_ptrEv
	str	x19, [x0]
	nop
	ldr	x19, [sp, 16]
	ldp	x29, x30, [sp], 48
	.cfi_restore 30
	.cfi_restore 29
	.cfi_restore 19
	.cfi_def_cfa_offset 0
	ret
	.cfi_endproc
.LFE4177:
	.size	_ZNSt15__uniq_ptr_implINSt13__future_base7_ResultIvEENS0_12_Result_base8_DeleterEEC2EPS2_, .-_ZNSt15__uniq_ptr_implINSt13__future_base7_ResultIvEENS0_12_Result_base8_DeleterEEC2EPS2_
	.weak	_ZNSt15__uniq_ptr_implINSt13__future_base7_ResultIvEENS0_12_Result_base8_DeleterEEC1EPS2_
	.set	_ZNSt15__uniq_ptr_implINSt13__future_base7_ResultIvEENS0_12_Result_base8_DeleterEEC1EPS2_,_ZNSt15__uniq_ptr_implINSt13__future_base7_ResultIvEENS0_12_Result_base8_DeleterEEC2EPS2_
	.section	.text._ZNSt15__uniq_ptr_implINSt13__future_base7_ResultIvEENS0_12_Result_base8_DeleterEE6_M_ptrEv,"axG",@progbits,_ZNSt15__uniq_ptr_implINSt13__future_base7_ResultIvEENS0_12_Result_base8_DeleterEE6_M_ptrEv,comdat
	.align	2
	.weak	_ZNSt15__uniq_ptr_implINSt13__future_base7_ResultIvEENS0_12_Result_base8_DeleterEE6_M_ptrEv
	.type	_ZNSt15__uniq_ptr_implINSt13__future_base7_ResultIvEENS0_12_Result_base8_DeleterEE6_M_ptrEv, %function
_ZNSt15__uniq_ptr_implINSt13__future_base7_ResultIvEENS0_12_Result_base8_DeleterEE6_M_ptrEv:
.LFB4179:
	.cfi_startproc
	stp	x29, x30, [sp, -32]!
	.cfi_def_cfa_offset 32
	.cfi_offset 29, -32
	.cfi_offset 30, -24
	mov	x29, sp
	str	x0, [sp, 24]
	ldr	x0, [sp, 24]
	bl	_ZSt3getILm0EJPNSt13__future_base7_ResultIvEENS0_12_Result_base8_DeleterEEERNSt13tuple_elementIXT_ESt5tupleIJDpT0_EEE4typeERSA_
	ldp	x29, x30, [sp], 32
	.cfi_restore 30
	.cfi_restore 29
	.cfi_def_cfa_offset 0
	ret
	.cfi_endproc
.LFE4179:
	.size	_ZNSt15__uniq_ptr_implINSt13__future_base7_ResultIvEENS0_12_Result_base8_DeleterEE6_M_ptrEv, .-_ZNSt15__uniq_ptr_implINSt13__future_base7_ResultIvEENS0_12_Result_base8_DeleterEE6_M_ptrEv
	.section	.text._ZNSt10unique_ptrINSt13__future_base7_ResultIvEENS0_12_Result_base8_DeleterEE11get_deleterEv,"axG",@progbits,_ZNSt10unique_ptrINSt13__future_base7_ResultIvEENS0_12_Result_base8_DeleterEE11get_deleterEv,comdat
	.align	2
	.weak	_ZNSt10unique_ptrINSt13__future_base7_ResultIvEENS0_12_Result_base8_DeleterEE11get_deleterEv
	.type	_ZNSt10unique_ptrINSt13__future_base7_ResultIvEENS0_12_Result_base8_DeleterEE11get_deleterEv, %function
_ZNSt10unique_ptrINSt13__future_base7_ResultIvEENS0_12_Result_base8_DeleterEE11get_deleterEv:
.LFB4180:
	.cfi_startproc
	stp	x29, x30, [sp, -32]!
	.cfi_def_cfa_offset 32
	.cfi_offset 29, -32
	.cfi_offset 30, -24
	mov	x29, sp
	str	x0, [sp, 24]
	ldr	x0, [sp, 24]
	bl	_ZNSt15__uniq_ptr_implINSt13__future_base7_ResultIvEENS0_12_Result_base8_DeleterEE10_M_deleterEv
	ldp	x29, x30, [sp], 32
	.cfi_restore 30
	.cfi_restore 29
	.cfi_def_cfa_offset 0
	ret
	.cfi_endproc
.LFE4180:
	.size	_ZNSt10unique_ptrINSt13__future_base7_ResultIvEENS0_12_Result_base8_DeleterEE11get_deleterEv, .-_ZNSt10unique_ptrINSt13__future_base7_ResultIvEENS0_12_Result_base8_DeleterEE11get_deleterEv
	.section	.text._ZSt4moveIRPNSt13__future_base7_ResultIvEEEONSt16remove_referenceIT_E4typeEOS6_,"axG",@progbits,_ZSt4moveIRPNSt13__future_base7_ResultIvEEEONSt16remove_referenceIT_E4typeEOS6_,comdat
	.align	2
	.weak	_ZSt4moveIRPNSt13__future_base7_ResultIvEEEONSt16remove_referenceIT_E4typeEOS6_
	.type	_ZSt4moveIRPNSt13__future_base7_ResultIvEEEONSt16remove_referenceIT_E4typeEOS6_, %function
_ZSt4moveIRPNSt13__future_base7_ResultIvEEEONSt16remove_referenceIT_E4typeEOS6_:
.LFB4181:
	.cfi_startproc
	sub	sp, sp, #16
	.cfi_def_cfa_offset 16
	str	x0, [sp, 8]
	ldr	x0, [sp, 8]
	add	sp, sp, 16
	.cfi_def_cfa_offset 0
	ret
	.cfi_endproc
.LFE4181:
	.size	_ZSt4moveIRPNSt13__future_base7_ResultIvEEEONSt16remove_referenceIT_E4typeEOS6_, .-_ZSt4moveIRPNSt13__future_base7_ResultIvEEEONSt16remove_referenceIT_E4typeEOS6_
	.section	.text._ZSt4moveIRSt5tupleIJPNSt13__future_base7_ResultIvEENS1_12_Result_base8_DeleterEEEEONSt16remove_referenceIT_E4typeEOSA_,"axG",@progbits,_ZSt4moveIRSt5tupleIJPNSt13__future_base7_ResultIvEENS1_12_Result_base8_DeleterEEEEONSt16remove_referenceIT_E4typeEOSA_,comdat
	.align	2
	.weak	_ZSt4moveIRSt5tupleIJPNSt13__future_base7_ResultIvEENS1_12_Result_base8_DeleterEEEEONSt16remove_referenceIT_E4typeEOSA_
	.type	_ZSt4moveIRSt5tupleIJPNSt13__future_base7_ResultIvEENS1_12_Result_base8_DeleterEEEEONSt16remove_referenceIT_E4typeEOSA_, %function
_ZSt4moveIRSt5tupleIJPNSt13__future_base7_ResultIvEENS1_12_Result_base8_DeleterEEEEONSt16remove_referenceIT_E4typeEOSA_:
.LFB4185:
	.cfi_startproc
	sub	sp, sp, #16
	.cfi_def_cfa_offset 16
	str	x0, [sp, 8]
	ldr	x0, [sp, 8]
	add	sp, sp, 16
	.cfi_def_cfa_offset 0
	ret
	.cfi_endproc
.LFE4185:
	.size	_ZSt4moveIRSt5tupleIJPNSt13__future_base7_ResultIvEENS1_12_Result_base8_DeleterEEEEONSt16remove_referenceIT_E4typeEOSA_, .-_ZSt4moveIRSt5tupleIJPNSt13__future_base7_ResultIvEENS1_12_Result_base8_DeleterEEEEONSt16remove_referenceIT_E4typeEOSA_
	.section	.text._ZNSt11_Tuple_implILm1EJNSt13__future_base12_Result_base8_DeleterEEEC2EOS3_,"axG",@progbits,_ZNSt11_Tuple_implILm1EJNSt13__future_base12_Result_base8_DeleterEEEC5EOS3_,comdat
	.align	2
	.weak	_ZNSt11_Tuple_implILm1EJNSt13__future_base12_Result_base8_DeleterEEEC2EOS3_
	.type	_ZNSt11_Tuple_implILm1EJNSt13__future_base12_Result_base8_DeleterEEEC2EOS3_, %function
_ZNSt11_Tuple_implILm1EJNSt13__future_base12_Result_base8_DeleterEEEC2EOS3_:
.LFB4187:
	.cfi_startproc
	sub	sp, sp, #16
	.cfi_def_cfa_offset 16
	str	x0, [sp, 8]
	str	x1, [sp]
	nop
	add	sp, sp, 16
	.cfi_def_cfa_offset 0
	ret
	.cfi_endproc
.LFE4187:
	.size	_ZNSt11_Tuple_implILm1EJNSt13__future_base12_Result_base8_DeleterEEEC2EOS3_, .-_ZNSt11_Tuple_implILm1EJNSt13__future_base12_Result_base8_DeleterEEEC2EOS3_
	.weak	_ZNSt11_Tuple_implILm1EJNSt13__future_base12_Result_base8_DeleterEEEC1EOS3_
	.set	_ZNSt11_Tuple_implILm1EJNSt13__future_base12_Result_base8_DeleterEEEC1EOS3_,_ZNSt11_Tuple_implILm1EJNSt13__future_base12_Result_base8_DeleterEEEC2EOS3_
	.section	.text._ZNKSt19__shared_ptr_accessINSt13__future_base13_State_baseV2ELN9__gnu_cxx12_Lock_policyE2ELb0ELb0EE6_M_getEv,"axG",@progbits,_ZNKSt19__shared_ptr_accessINSt13__future_base13_State_baseV2ELN9__gnu_cxx12_Lock_policyE2ELb0ELb0EE6_M_getEv,comdat
	.align	2
	.weak	_ZNKSt19__shared_ptr_accessINSt13__future_base13_State_baseV2ELN9__gnu_cxx12_Lock_policyE2ELb0ELb0EE6_M_getEv
	.type	_ZNKSt19__shared_ptr_accessINSt13__future_base13_State_baseV2ELN9__gnu_cxx12_Lock_policyE2ELb0ELb0EE6_M_getEv, %function
_ZNKSt19__shared_ptr_accessINSt13__future_base13_State_baseV2ELN9__gnu_cxx12_Lock_policyE2ELb0ELb0EE6_M_getEv:
.LFB4190:
	.cfi_startproc
	stp	x29, x30, [sp, -32]!
	.cfi_def_cfa_offset 32
	.cfi_offset 29, -32
	.cfi_offset 30, -24
	mov	x29, sp
	str	x0, [sp, 24]
	ldr	x0, [sp, 24]
	bl	_ZNKSt12__shared_ptrINSt13__future_base13_State_baseV2ELN9__gnu_cxx12_Lock_policyE2EE3getEv
	ldp	x29, x30, [sp], 32
	.cfi_restore 30
	.cfi_restore 29
	.cfi_def_cfa_offset 0
	ret
	.cfi_endproc
.LFE4190:
	.size	_ZNKSt19__shared_ptr_accessINSt13__future_base13_State_baseV2ELN9__gnu_cxx12_Lock_policyE2ELb0ELb0EE6_M_getEv, .-_ZNKSt19__shared_ptr_accessINSt13__future_base13_State_baseV2ELN9__gnu_cxx12_Lock_policyE2ELb0ELb0EE6_M_getEv
	.section	.text._ZNSt10unique_ptrINSt13__future_base7_ResultIvEENS0_12_Result_base8_DeleterEE7releaseEv,"axG",@progbits,_ZNSt10unique_ptrINSt13__future_base7_ResultIvEENS0_12_Result_base8_DeleterEE7releaseEv,comdat
	.align	2
	.weak	_ZNSt10unique_ptrINSt13__future_base7_ResultIvEENS0_12_Result_base8_DeleterEE7releaseEv
	.type	_ZNSt10unique_ptrINSt13__future_base7_ResultIvEENS0_12_Result_base8_DeleterEE7releaseEv, %function
_ZNSt10unique_ptrINSt13__future_base7_ResultIvEENS0_12_Result_base8_DeleterEE7releaseEv:
.LFB4191:
	.cfi_startproc
	stp	x29, x30, [sp, -32]!
	.cfi_def_cfa_offset 32
	.cfi_offset 29, -32
	.cfi_offset 30, -24
	mov	x29, sp
	str	x0, [sp, 24]
	ldr	x0, [sp, 24]
	bl	_ZNSt15__uniq_ptr_implINSt13__future_base7_ResultIvEENS0_12_Result_base8_DeleterEE7releaseEv
	ldp	x29, x30, [sp], 32
	.cfi_restore 30
	.cfi_restore 29
	.cfi_def_cfa_offset 0
	ret
	.cfi_endproc
.LFE4191:
	.size	_ZNSt10unique_ptrINSt13__future_base7_ResultIvEENS0_12_Result_base8_DeleterEE7releaseEv, .-_ZNSt10unique_ptrINSt13__future_base7_ResultIvEENS0_12_Result_base8_DeleterEE7releaseEv
	.section	.text._ZSt7forwardINSt13__future_base12_Result_base8_DeleterEEOT_RNSt16remove_referenceIS3_E4typeE,"axG",@progbits,_ZSt7forwardINSt13__future_base12_Result_base8_DeleterEEOT_RNSt16remove_referenceIS3_E4typeE,comdat
	.align	2
	.weak	_ZSt7forwardINSt13__future_base12_Result_base8_DeleterEEOT_RNSt16remove_referenceIS3_E4typeE
	.type	_ZSt7forwardINSt13__future_base12_Result_base8_DeleterEEOT_RNSt16remove_referenceIS3_E4typeE, %function
_ZSt7forwardINSt13__future_base12_Result_base8_DeleterEEOT_RNSt16remove_referenceIS3_E4typeE:
.LFB4192:
	.cfi_startproc
	sub	sp, sp, #16
	.cfi_def_cfa_offset 16
	str	x0, [sp, 8]
	ldr	x0, [sp, 8]
	add	sp, sp, 16
	.cfi_def_cfa_offset 0
	ret
	.cfi_endproc
.LFE4192:
	.size	_ZSt7forwardINSt13__future_base12_Result_base8_DeleterEEOT_RNSt16remove_referenceIS3_E4typeE, .-_ZSt7forwardINSt13__future_base12_Result_base8_DeleterEEOT_RNSt16remove_referenceIS3_E4typeE
	.section	.text._ZNSt15__uniq_ptr_implINSt13__future_base12_Result_baseENS1_8_DeleterEEC2IS2_EEPS1_OT_,"axG",@progbits,_ZNSt15__uniq_ptr_implINSt13__future_base12_Result_baseENS1_8_DeleterEEC5IS2_EEPS1_OT_,comdat
	.align	2
	.weak	_ZNSt15__uniq_ptr_implINSt13__future_base12_Result_baseENS1_8_DeleterEEC2IS2_EEPS1_OT_
	.type	_ZNSt15__uniq_ptr_implINSt13__future_base12_Result_baseENS1_8_DeleterEEC2IS2_EEPS1_OT_, %function
_ZNSt15__uniq_ptr_implINSt13__future_base12_Result_baseENS1_8_DeleterEEC2IS2_EEPS1_OT_:
.LFB4200:
	.cfi_startproc
	stp	x29, x30, [sp, -64]!
	.cfi_def_cfa_offset 64
	.cfi_offset 29, -64
	.cfi_offset 30, -56
	mov	x29, sp
	str	x19, [sp, 16]
	.cfi_offset 19, -48
	str	x0, [sp, 56]
	str	x1, [sp, 48]
	str	x2, [sp, 40]
	ldr	x19, [sp, 56]
	ldr	x0, [sp, 40]
	bl	_ZSt7forwardINSt13__future_base12_Result_base8_DeleterEEOT_RNSt16remove_referenceIS3_E4typeE
	mov	x1, x0
	add	x0, sp, 48
	mov	x2, x1
	mov	x1, x0
	mov	x0, x19
	bl	_ZNSt5tupleIJPNSt13__future_base12_Result_baseENS1_8_DeleterEEEC1IRS2_S3_Lb1EEEOT_OT0_
	nop
	ldr	x19, [sp, 16]
	ldp	x29, x30, [sp], 64
	.cfi_restore 30
	.cfi_restore 29
	.cfi_restore 19
	.cfi_def_cfa_offset 0
	ret
	.cfi_endproc
.LFE4200:
	.size	_ZNSt15__uniq_ptr_implINSt13__future_base12_Result_baseENS1_8_DeleterEEC2IS2_EEPS1_OT_, .-_ZNSt15__uniq_ptr_implINSt13__future_base12_Result_baseENS1_8_DeleterEEC2IS2_EEPS1_OT_
	.weak	_ZNSt15__uniq_ptr_implINSt13__future_base12_Result_baseENS1_8_DeleterEEC1IS2_EEPS1_OT_
	.set	_ZNSt15__uniq_ptr_implINSt13__future_base12_Result_baseENS1_8_DeleterEEC1IS2_EEPS1_OT_,_ZNSt15__uniq_ptr_implINSt13__future_base12_Result_baseENS1_8_DeleterEEC2IS2_EEPS1_OT_
	.section	.text._ZSt4moveIRPNSt13__future_base13_State_baseV2EEONSt16remove_referenceIT_E4typeEOS5_,"axG",@progbits,_ZSt4moveIRPNSt13__future_base13_State_baseV2EEONSt16remove_referenceIT_E4typeEOS5_,comdat
	.align	2
	.weak	_ZSt4moveIRPNSt13__future_base13_State_baseV2EEONSt16remove_referenceIT_E4typeEOS5_
	.type	_ZSt4moveIRPNSt13__future_base13_State_baseV2EEONSt16remove_referenceIT_E4typeEOS5_, %function
_ZSt4moveIRPNSt13__future_base13_State_baseV2EEONSt16remove_referenceIT_E4typeEOS5_:
.LFB4203:
	.cfi_startproc
	sub	sp, sp, #16
	.cfi_def_cfa_offset 16
	str	x0, [sp, 8]
	ldr	x0, [sp, 8]
	add	sp, sp, 16
	.cfi_def_cfa_offset 0
	ret
	.cfi_endproc
.LFE4203:
	.size	_ZSt4moveIRPNSt13__future_base13_State_baseV2EEONSt16remove_referenceIT_E4typeEOS5_, .-_ZSt4moveIRPNSt13__future_base13_State_baseV2EEONSt16remove_referenceIT_E4typeEOS5_
	.section	.text._ZSt4swapIPNSt13__future_base13_State_baseV2EENSt9enable_ifIXsrSt6__and_IJSt6__not_ISt15__is_tuple_likeIT_EESt21is_move_constructibleIS7_ESt18is_move_assignableIS7_EEE5valueEvE4typeERS7_SH_,"axG",@progbits,_ZSt4swapIPNSt13__future_base13_State_baseV2EENSt9enable_ifIXsrSt6__and_IJSt6__not_ISt15__is_tuple_likeIT_EESt21is_move_constructibleIS7_ESt18is_move_assignableIS7_EEE5valueEvE4typeERS7_SH_,comdat
	.align	2
	.weak	_ZSt4swapIPNSt13__future_base13_State_baseV2EENSt9enable_ifIXsrSt6__and_IJSt6__not_ISt15__is_tuple_likeIT_EESt21is_move_constructibleIS7_ESt18is_move_assignableIS7_EEE5valueEvE4typeERS7_SH_
	.type	_ZSt4swapIPNSt13__future_base13_State_baseV2EENSt9enable_ifIXsrSt6__and_IJSt6__not_ISt15__is_tuple_likeIT_EESt21is_move_constructibleIS7_ESt18is_move_assignableIS7_EEE5valueEvE4typeERS7_SH_, %function
_ZSt4swapIPNSt13__future_base13_State_baseV2EENSt9enable_ifIXsrSt6__and_IJSt6__not_ISt15__is_tuple_likeIT_EESt21is_move_constructibleIS7_ESt18is_move_assignableIS7_EEE5valueEvE4typeERS7_SH_:
.LFB4202:
	.cfi_startproc
	stp	x29, x30, [sp, -48]!
	.cfi_def_cfa_offset 48
	.cfi_offset 29, -48
	.cfi_offset 30, -40
	mov	x29, sp
	str	x0, [sp, 24]
	str	x1, [sp, 16]
	adrp	x0, :got:__stack_chk_guard
	ldr	x0, [x0, #:got_lo12:__stack_chk_guard]
	ldr	x1, [x0]
	str	x1, [sp, 40]
	mov	x1, 0
	ldr	x0, [sp, 24]
	bl	_ZSt4moveIRPNSt13__future_base13_State_baseV2EEONSt16remove_referenceIT_E4typeEOS5_
	ldr	x0, [x0]
	str	x0, [sp, 32]
	ldr	x0, [sp, 16]
	bl	_ZSt4moveIRPNSt13__future_base13_State_baseV2EEONSt16remove_referenceIT_E4typeEOS5_
	ldr	x1, [x0]
	ldr	x0, [sp, 24]
	str	x1, [x0]
	add	x0, sp, 32
	bl	_ZSt4moveIRPNSt13__future_base13_State_baseV2EEONSt16remove_referenceIT_E4typeEOS5_
	ldr	x1, [x0]
	ldr	x0, [sp, 16]
	str	x1, [x0]
	nop
	adrp	x0, :got:__stack_chk_guard
	ldr	x0, [x0, #:got_lo12:__stack_chk_guard]
	ldr	x2, [sp, 40]
	ldr	x1, [x0]
	subs	x2, x2, x1
	mov	x1, 0
	beq	.L418
	bl	__stack_chk_fail
.L418:
	ldp	x29, x30, [sp], 48
	.cfi_restore 30
	.cfi_restore 29
	.cfi_def_cfa_offset 0
	ret
	.cfi_endproc
.LFE4202:
	.size	_ZSt4swapIPNSt13__future_base13_State_baseV2EENSt9enable_ifIXsrSt6__and_IJSt6__not_ISt15__is_tuple_likeIT_EESt21is_move_constructibleIS7_ESt18is_move_assignableIS7_EEE5valueEvE4typeERS7_SH_, .-_ZSt4swapIPNSt13__future_base13_State_baseV2EENSt9enable_ifIXsrSt6__and_IJSt6__not_ISt15__is_tuple_likeIT_EESt21is_move_constructibleIS7_ESt18is_move_assignableIS7_EEE5valueEvE4typeERS7_SH_
	.section	.text._ZNSt14__shared_countILN9__gnu_cxx12_Lock_policyE2EE7_M_swapERS2_,"axG",@progbits,_ZNSt14__shared_countILN9__gnu_cxx12_Lock_policyE2EE7_M_swapERS2_,comdat
	.align	2
	.weak	_ZNSt14__shared_countILN9__gnu_cxx12_Lock_policyE2EE7_M_swapERS2_
	.type	_ZNSt14__shared_countILN9__gnu_cxx12_Lock_policyE2EE7_M_swapERS2_, %function
_ZNSt14__shared_countILN9__gnu_cxx12_Lock_policyE2EE7_M_swapERS2_:
.LFB4204:
	.cfi_startproc
	sub	sp, sp, #32
	.cfi_def_cfa_offset 32
	str	x0, [sp, 8]
	str	x1, [sp]
	ldr	x0, [sp]
	ldr	x0, [x0]
	str	x0, [sp, 24]
	ldr	x0, [sp, 8]
	ldr	x1, [x0]
	ldr	x0, [sp]
	str	x1, [x0]
	ldr	x0, [sp, 8]
	ldr	x1, [sp, 24]
	str	x1, [x0]
	nop
	add	sp, sp, 32
	.cfi_def_cfa_offset 0
	ret
	.cfi_endproc
.LFE4204:
	.size	_ZNSt14__shared_countILN9__gnu_cxx12_Lock_policyE2EE7_M_swapERS2_, .-_ZNSt14__shared_countILN9__gnu_cxx12_Lock_policyE2EE7_M_swapERS2_
	.section	.text._ZSt7forwardIMSt6threadFvvEEOT_RNSt16remove_referenceIS3_E4typeE,"axG",@progbits,_ZSt7forwardIMSt6threadFvvEEOT_RNSt16remove_referenceIS3_E4typeE,comdat
	.align	2
	.weak	_ZSt7forwardIMSt6threadFvvEEOT_RNSt16remove_referenceIS3_E4typeE
	.type	_ZSt7forwardIMSt6threadFvvEEOT_RNSt16remove_referenceIS3_E4typeE, %function
_ZSt7forwardIMSt6threadFvvEEOT_RNSt16remove_referenceIS3_E4typeE:
.LFB4224:
	.cfi_startproc
	sub	sp, sp, #16
	.cfi_def_cfa_offset 16
	str	x0, [sp, 8]
	ldr	x0, [sp, 8]
	add	sp, sp, 16
	.cfi_def_cfa_offset 0
	ret
	.cfi_endproc
.LFE4224:
	.size	_ZSt7forwardIMSt6threadFvvEEOT_RNSt16remove_referenceIS3_E4typeE, .-_ZSt7forwardIMSt6threadFvvEEOT_RNSt16remove_referenceIS3_E4typeE
	.section	.text._ZSt7forwardIPSt6threadEOT_RNSt16remove_referenceIS2_E4typeE,"axG",@progbits,_ZSt7forwardIPSt6threadEOT_RNSt16remove_referenceIS2_E4typeE,comdat
	.align	2
	.weak	_ZSt7forwardIPSt6threadEOT_RNSt16remove_referenceIS2_E4typeE
	.type	_ZSt7forwardIPSt6threadEOT_RNSt16remove_referenceIS2_E4typeE, %function
_ZSt7forwardIPSt6threadEOT_RNSt16remove_referenceIS2_E4typeE:
.LFB4225:
	.cfi_startproc
	sub	sp, sp, #16
	.cfi_def_cfa_offset 16
	str	x0, [sp, 8]
	ldr	x0, [sp, 8]
	add	sp, sp, 16
	.cfi_def_cfa_offset 0
	ret
	.cfi_endproc
.LFE4225:
	.size	_ZSt7forwardIPSt6threadEOT_RNSt16remove_referenceIS2_E4typeE, .-_ZSt7forwardIPSt6threadEOT_RNSt16remove_referenceIS2_E4typeE
	.section	.text._ZSt8__invokeIMSt6threadFvvEJPS0_EENSt15__invoke_resultIT_JDpT0_EE4typeEOS5_DpOS6_,"axG",@progbits,_ZSt8__invokeIMSt6threadFvvEJPS0_EENSt15__invoke_resultIT_JDpT0_EE4typeEOS5_DpOS6_,comdat
	.align	2
	.weak	_ZSt8__invokeIMSt6threadFvvEJPS0_EENSt15__invoke_resultIT_JDpT0_EE4typeEOS5_DpOS6_
	.type	_ZSt8__invokeIMSt6threadFvvEJPS0_EENSt15__invoke_resultIT_JDpT0_EE4typeEOS5_DpOS6_, %function
_ZSt8__invokeIMSt6threadFvvEJPS0_EENSt15__invoke_resultIT_JDpT0_EE4typeEOS5_DpOS6_:
.LFB4226:
	.cfi_startproc
	stp	x29, x30, [sp, -48]!
	.cfi_def_cfa_offset 48
	.cfi_offset 29, -48
	.cfi_offset 30, -40
	mov	x29, sp
	stp	x19, x20, [sp, 16]
	.cfi_offset 19, -32
	.cfi_offset 20, -24
	str	x0, [sp, 40]
	str	x1, [sp, 32]
	ldr	x0, [sp, 40]
	bl	_ZSt7forwardIMSt6threadFvvEEOT_RNSt16remove_referenceIS3_E4typeE
	mov	x19, x0
	ldr	x0, [sp, 32]
	bl	_ZSt7forwardIPSt6threadEOT_RNSt16remove_referenceIS2_E4typeE
	mov	x2, x0
	mov	x1, x19
	mov	w0, w20
	bl	_ZSt13__invoke_implIvMSt6threadFvvEPS0_JEET_St21__invoke_memfun_derefOT0_OT1_DpOT2_
	nop
	ldp	x19, x20, [sp, 16]
	ldp	x29, x30, [sp], 48
	.cfi_restore 30
	.cfi_restore 29
	.cfi_restore 19
	.cfi_restore 20
	.cfi_def_cfa_offset 0
	ret
	.cfi_endproc
.LFE4226:
	.size	_ZSt8__invokeIMSt6threadFvvEJPS0_EENSt15__invoke_resultIT_JDpT0_EE4typeEOS5_DpOS6_, .-_ZSt8__invokeIMSt6threadFvvEJPS0_EENSt15__invoke_resultIT_JDpT0_EE4typeEOS5_DpOS6_
	.section	.text._ZZNSt9once_flag18_Prepare_executionC4IZSt9call_onceIMSt6threadFvvEJPS3_EEvRS_OT_DpOT0_EUlvE_EERS8_ENKUlvE_clEv,"axG",@progbits,_ZZNSt9once_flag18_Prepare_executionC4IZSt9call_onceIMSt6threadFvvEJPS3_EEvRS_OT_DpOT0_EUlvE_EERS8_ENKUlvE_clEv,comdat
	.align	2
	.weak	_ZZNSt9once_flag18_Prepare_executionC4IZSt9call_onceIMSt6threadFvvEJPS3_EEvRS_OT_DpOT0_EUlvE_EERS8_ENKUlvE_clEv
	.type	_ZZNSt9once_flag18_Prepare_executionC4IZSt9call_onceIMSt6threadFvvEJPS3_EEvRS_OT_DpOT0_EUlvE_EERS8_ENKUlvE_clEv, %function
_ZZNSt9once_flag18_Prepare_executionC4IZSt9call_onceIMSt6threadFvvEJPS3_EEvRS_OT_DpOT0_EUlvE_EERS8_ENKUlvE_clEv:
.LFB4228:
	.cfi_startproc
	stp	x29, x30, [sp, -32]!
	.cfi_def_cfa_offset 32
	.cfi_offset 29, -32
	.cfi_offset 30, -24
	mov	x29, sp
	str	x0, [sp, 24]
	mrs	x1, tpidr_el0
	adrp	x0, :gottprel:_ZSt15__once_callable
	ldr	x0, [x0, #:gottprel_lo12:_ZSt15__once_callable]
	add	x0, x1, x0
	ldr	x0, [x0]
	bl	_ZZSt9call_onceIMSt6threadFvvEJPS0_EEvRSt9once_flagOT_DpOT0_ENKUlvE_clEv
	nop
	ldp	x29, x30, [sp], 32
	.cfi_restore 30
	.cfi_restore 29
	.cfi_def_cfa_offset 0
	ret
	.cfi_endproc
.LFE4228:
	.size	_ZZNSt9once_flag18_Prepare_executionC4IZSt9call_onceIMSt6threadFvvEJPS3_EEvRS_OT_DpOT0_EUlvE_EERS8_ENKUlvE_clEv, .-_ZZNSt9once_flag18_Prepare_executionC4IZSt9call_onceIMSt6threadFvvEJPS3_EEvRS_OT_DpOT0_EUlvE_EERS8_ENKUlvE_clEv
	.section	.text._ZZNSt9once_flag18_Prepare_executionC4IZSt9call_onceIMSt6threadFvvEJPS3_EEvRS_OT_DpOT0_EUlvE_EERS8_ENUlvE_4_FUNEv,"axG",@progbits,_ZZNSt9once_flag18_Prepare_executionC4IZSt9call_onceIMSt6threadFvvEJPS3_EEvRS_OT_DpOT0_EUlvE_EERS8_ENUlvE_4_FUNEv,comdat
	.align	2
	.weak	_ZZNSt9once_flag18_Prepare_executionC4IZSt9call_onceIMSt6threadFvvEJPS3_EEvRS_OT_DpOT0_EUlvE_EERS8_ENUlvE_4_FUNEv
	.type	_ZZNSt9once_flag18_Prepare_executionC4IZSt9call_onceIMSt6threadFvvEJPS3_EEvRS_OT_DpOT0_EUlvE_EERS8_ENUlvE_4_FUNEv, %function
_ZZNSt9once_flag18_Prepare_executionC4IZSt9call_onceIMSt6threadFvvEJPS3_EEvRS_OT_DpOT0_EUlvE_EERS8_ENUlvE_4_FUNEv:
.LFB4229:
	.cfi_startproc
	stp	x29, x30, [sp, -16]!
	.cfi_def_cfa_offset 16
	.cfi_offset 29, -16
	.cfi_offset 30, -8
	mov	x29, sp
	mov	x0, 0
	bl	_ZZNSt9once_flag18_Prepare_executionC4IZSt9call_onceIMSt6threadFvvEJPS3_EEvRS_OT_DpOT0_EUlvE_EERS8_ENKUlvE_clEv
	ldp	x29, x30, [sp], 16
	.cfi_restore 30
	.cfi_restore 29
	.cfi_def_cfa_offset 0
	ret
	.cfi_endproc
.LFE4229:
	.size	_ZZNSt9once_flag18_Prepare_executionC4IZSt9call_onceIMSt6threadFvvEJPS3_EEvRS_OT_DpOT0_EUlvE_EERS8_ENUlvE_4_FUNEv, .-_ZZNSt9once_flag18_Prepare_executionC4IZSt9call_onceIMSt6threadFvvEJPS3_EEvRS_OT_DpOT0_EUlvE_EERS8_ENUlvE_4_FUNEv
	.section	.text._ZZNSt9once_flag18_Prepare_executionC4IZSt9call_onceIMSt6threadFvvEJPS3_EEvRS_OT_DpOT0_EUlvE_EERS8_ENKUlvE_cvPFvvEEv,"axG",@progbits,_ZZNSt9once_flag18_Prepare_executionC4IZSt9call_onceIMSt6threadFvvEJPS3_EEvRS_OT_DpOT0_EUlvE_EERS8_ENKUlvE_cvPFvvEEv,comdat
	.align	2
	.weak	_ZZNSt9once_flag18_Prepare_executionC4IZSt9call_onceIMSt6threadFvvEJPS3_EEvRS_OT_DpOT0_EUlvE_EERS8_ENKUlvE_cvPFvvEEv
	.type	_ZZNSt9once_flag18_Prepare_executionC4IZSt9call_onceIMSt6threadFvvEJPS3_EEvRS_OT_DpOT0_EUlvE_EERS8_ENKUlvE_cvPFvvEEv, %function
_ZZNSt9once_flag18_Prepare_executionC4IZSt9call_onceIMSt6threadFvvEJPS3_EEvRS_OT_DpOT0_EUlvE_EERS8_ENKUlvE_cvPFvvEEv:
.LFB4230:
	.cfi_startproc
	sub	sp, sp, #16
	.cfi_def_cfa_offset 16
	str	x0, [sp, 8]
	adrp	x0, _ZZNSt9once_flag18_Prepare_executionC4IZSt9call_onceIMSt6threadFvvEJPS3_EEvRS_OT_DpOT0_EUlvE_EERS8_ENUlvE_4_FUNEv
	add	x0, x0, :lo12:_ZZNSt9once_flag18_Prepare_executionC4IZSt9call_onceIMSt6threadFvvEJPS3_EEvRS_OT_DpOT0_EUlvE_EERS8_ENUlvE_4_FUNEv
	add	sp, sp, 16
	.cfi_def_cfa_offset 0
	ret
	.cfi_endproc
.LFE4230:
	.size	_ZZNSt9once_flag18_Prepare_executionC4IZSt9call_onceIMSt6threadFvvEJPS3_EEvRS_OT_DpOT0_EUlvE_EERS8_ENKUlvE_cvPFvvEEv, .-_ZZNSt9once_flag18_Prepare_executionC4IZSt9call_onceIMSt6threadFvvEJPS3_EEvRS_OT_DpOT0_EUlvE_EERS8_ENKUlvE_cvPFvvEEv
	.section	.text._ZNSt9once_flag18_Prepare_executionC2IZSt9call_onceIMSt6threadFvvEJPS3_EEvRS_OT_DpOT0_EUlvE_EERS8_,"axG",@progbits,_ZNSt9once_flag18_Prepare_executionC5IZSt9call_onceIMSt6threadFvvEJPS3_EEvRS_OT_DpOT0_EUlvE_EERS8_,comdat
	.align	2
	.weak	_ZNSt9once_flag18_Prepare_executionC2IZSt9call_onceIMSt6threadFvvEJPS3_EEvRS_OT_DpOT0_EUlvE_EERS8_
	.type	_ZNSt9once_flag18_Prepare_executionC2IZSt9call_onceIMSt6threadFvvEJPS3_EEvRS_OT_DpOT0_EUlvE_EERS8_, %function
_ZNSt9once_flag18_Prepare_executionC2IZSt9call_onceIMSt6threadFvvEJPS3_EEvRS_OT_DpOT0_EUlvE_EERS8_:
.LFB4231:
	.cfi_startproc
	stp	x29, x30, [sp, -48]!
	.cfi_def_cfa_offset 48
	.cfi_offset 29, -48
	.cfi_offset 30, -40
	mov	x29, sp
	str	x0, [sp, 24]
	str	x1, [sp, 16]
	adrp	x0, :got:__stack_chk_guard
	ldr	x0, [x0, #:got_lo12:__stack_chk_guard]
	ldr	x1, [x0]
	str	x1, [sp, 40]
	mov	x1, 0
	ldr	x0, [sp, 16]
	bl	_ZSt11__addressofIZSt9call_onceIMSt6threadFvvEJPS1_EEvRSt9once_flagOT_DpOT0_EUlvE_EPS7_RS7_
	mov	x2, x0
	mrs	x1, tpidr_el0
	adrp	x0, :gottprel:_ZSt15__once_callable
	ldr	x0, [x0, #:gottprel_lo12:_ZSt15__once_callable]
	add	x0, x1, x0
	str	x2, [x0]
	add	x0, sp, 32
	bl	_ZZNSt9once_flag18_Prepare_executionC4IZSt9call_onceIMSt6threadFvvEJPS3_EEvRS_OT_DpOT0_EUlvE_EERS8_ENKUlvE_cvPFvvEEv
	mov	x2, x0
	mrs	x1, tpidr_el0
	adrp	x0, :gottprel:_ZSt11__once_call
	ldr	x0, [x0, #:gottprel_lo12:_ZSt11__once_call]
	add	x0, x1, x0
	str	x2, [x0]
	nop
	adrp	x0, :got:__stack_chk_guard
	ldr	x0, [x0, #:got_lo12:__stack_chk_guard]
	ldr	x2, [sp, 40]
	ldr	x1, [x0]
	subs	x2, x2, x1
	mov	x1, 0
	beq	.L432
	bl	__stack_chk_fail
.L432:
	ldp	x29, x30, [sp], 48
	.cfi_restore 30
	.cfi_restore 29
	.cfi_def_cfa_offset 0
	ret
	.cfi_endproc
.LFE4231:
	.size	_ZNSt9once_flag18_Prepare_executionC2IZSt9call_onceIMSt6threadFvvEJPS3_EEvRS_OT_DpOT0_EUlvE_EERS8_, .-_ZNSt9once_flag18_Prepare_executionC2IZSt9call_onceIMSt6threadFvvEJPS3_EEvRS_OT_DpOT0_EUlvE_EERS8_
	.weak	_ZNSt9once_flag18_Prepare_executionC1IZSt9call_onceIMSt6threadFvvEJPS3_EEvRS_OT_DpOT0_EUlvE_EERS8_
	.set	_ZNSt9once_flag18_Prepare_executionC1IZSt9call_onceIMSt6threadFvvEJPS3_EEvRS_OT_DpOT0_EUlvE_EERS8_,_ZNSt9once_flag18_Prepare_executionC2IZSt9call_onceIMSt6threadFvvEJPS3_EEvRS_OT_DpOT0_EUlvE_EERS8_
	.text
	.align	2
	.type	_ZSt7forwardIZ4testvEUlvE_EOT_RNSt16remove_referenceIS1_E4typeE, %function
_ZSt7forwardIZ4testvEUlvE_EOT_RNSt16remove_referenceIS1_E4typeE:
.LFB4236:
	.cfi_startproc
	sub	sp, sp, #16
	.cfi_def_cfa_offset 16
	str	x0, [sp, 8]
	ldr	x0, [sp, 8]
	add	sp, sp, 16
	.cfi_def_cfa_offset 0
	ret
	.cfi_endproc
.LFE4236:
	.size	_ZSt7forwardIZ4testvEUlvE_EOT_RNSt16remove_referenceIS1_E4typeE, .-_ZSt7forwardIZ4testvEUlvE_EOT_RNSt16remove_referenceIS1_E4typeE
	.align	2
	.type	_ZNSt12__shared_ptrINSt13__future_base17_Async_state_implINSt6thread8_InvokerISt5tupleIJZ4testvEUlvE_EEEEvEELN9__gnu_cxx12_Lock_policyE2EED2Ev, %function
_ZNSt12__shared_ptrINSt13__future_base17_Async_state_implINSt6thread8_InvokerISt5tupleIJZ4testvEUlvE_EEEEvEELN9__gnu_cxx12_Lock_policyE2EED2Ev:
.LFB4243:
	.cfi_startproc
	stp	x29, x30, [sp, -32]!
	.cfi_def_cfa_offset 32
	.cfi_offset 29, -32
	.cfi_offset 30, -24
	mov	x29, sp
	str	x0, [sp, 24]
	ldr	x0, [sp, 24]
	add	x0, x0, 8
	bl	_ZNSt14__shared_countILN9__gnu_cxx12_Lock_policyE2EED1Ev
	nop
	ldp	x29, x30, [sp], 32
	.cfi_restore 30
	.cfi_restore 29
	.cfi_def_cfa_offset 0
	ret
	.cfi_endproc
.LFE4243:
	.size	_ZNSt12__shared_ptrINSt13__future_base17_Async_state_implINSt6thread8_InvokerISt5tupleIJZ4testvEUlvE_EEEEvEELN9__gnu_cxx12_Lock_policyE2EED2Ev, .-_ZNSt12__shared_ptrINSt13__future_base17_Async_state_implINSt6thread8_InvokerISt5tupleIJZ4testvEUlvE_EEEEvEELN9__gnu_cxx12_Lock_policyE2EED2Ev
	.align	2
	.type	_ZNSt10shared_ptrINSt13__future_base17_Async_state_implINSt6thread8_InvokerISt5tupleIJZ4testvEUlvE_EEEEvEEED2Ev, %function
_ZNSt10shared_ptrINSt13__future_base17_Async_state_implINSt6thread8_InvokerISt5tupleIJZ4testvEUlvE_EEEEvEEED2Ev:
.LFB4245:
	.cfi_startproc
	stp	x29, x30, [sp, -32]!
	.cfi_def_cfa_offset 32
	.cfi_offset 29, -32
	.cfi_offset 30, -24
	mov	x29, sp
	str	x0, [sp, 24]
	ldr	x0, [sp, 24]
	bl	_ZNSt12__shared_ptrINSt13__future_base17_Async_state_implINSt6thread8_InvokerISt5tupleIJZ4testvEUlvE_EEEEvEELN9__gnu_cxx12_Lock_policyE2EED2Ev
	nop
	ldp	x29, x30, [sp], 32
	.cfi_restore 30
	.cfi_restore 29
	.cfi_def_cfa_offset 0
	ret
	.cfi_endproc
.LFE4245:
	.size	_ZNSt10shared_ptrINSt13__future_base17_Async_state_implINSt6thread8_InvokerISt5tupleIJZ4testvEUlvE_EEEEvEEED2Ev, .-_ZNSt10shared_ptrINSt13__future_base17_Async_state_implINSt6thread8_InvokerISt5tupleIJZ4testvEUlvE_EEEEvEEED2Ev
	.set	_ZNSt10shared_ptrINSt13__future_base17_Async_state_implINSt6thread8_InvokerISt5tupleIJZ4testvEUlvE_EEEEvEEED1Ev,_ZNSt10shared_ptrINSt13__future_base17_Async_state_implINSt6thread8_InvokerISt5tupleIJZ4testvEUlvE_EEEEvEEED2Ev
	.align	2
	.type	_ZNSt12__shared_ptrINSt13__future_base15_Deferred_stateINSt6thread8_InvokerISt5tupleIJZ4testvEUlvE_EEEEvEELN9__gnu_cxx12_Lock_policyE2EED2Ev, %function
_ZNSt12__shared_ptrINSt13__future_base15_Deferred_stateINSt6thread8_InvokerISt5tupleIJZ4testvEUlvE_EEEEvEELN9__gnu_cxx12_Lock_policyE2EED2Ev:
.LFB4249:
	.cfi_startproc
	stp	x29, x30, [sp, -32]!
	.cfi_def_cfa_offset 32
	.cfi_offset 29, -32
	.cfi_offset 30, -24
	mov	x29, sp
	str	x0, [sp, 24]
	ldr	x0, [sp, 24]
	add	x0, x0, 8
	bl	_ZNSt14__shared_countILN9__gnu_cxx12_Lock_policyE2EED1Ev
	nop
	ldp	x29, x30, [sp], 32
	.cfi_restore 30
	.cfi_restore 29
	.cfi_def_cfa_offset 0
	ret
	.cfi_endproc
.LFE4249:
	.size	_ZNSt12__shared_ptrINSt13__future_base15_Deferred_stateINSt6thread8_InvokerISt5tupleIJZ4testvEUlvE_EEEEvEELN9__gnu_cxx12_Lock_policyE2EED2Ev, .-_ZNSt12__shared_ptrINSt13__future_base15_Deferred_stateINSt6thread8_InvokerISt5tupleIJZ4testvEUlvE_EEEEvEELN9__gnu_cxx12_Lock_policyE2EED2Ev
	.align	2
	.type	_ZNSt10shared_ptrINSt13__future_base15_Deferred_stateINSt6thread8_InvokerISt5tupleIJZ4testvEUlvE_EEEEvEEED2Ev, %function
_ZNSt10shared_ptrINSt13__future_base15_Deferred_stateINSt6thread8_InvokerISt5tupleIJZ4testvEUlvE_EEEEvEEED2Ev:
.LFB4251:
	.cfi_startproc
	stp	x29, x30, [sp, -32]!
	.cfi_def_cfa_offset 32
	.cfi_offset 29, -32
	.cfi_offset 30, -24
	mov	x29, sp
	str	x0, [sp, 24]
	ldr	x0, [sp, 24]
	bl	_ZNSt12__shared_ptrINSt13__future_base15_Deferred_stateINSt6thread8_InvokerISt5tupleIJZ4testvEUlvE_EEEEvEELN9__gnu_cxx12_Lock_policyE2EED2Ev
	nop
	ldp	x29, x30, [sp], 32
	.cfi_restore 30
	.cfi_restore 29
	.cfi_def_cfa_offset 0
	ret
	.cfi_endproc
.LFE4251:
	.size	_ZNSt10shared_ptrINSt13__future_base15_Deferred_stateINSt6thread8_InvokerISt5tupleIJZ4testvEUlvE_EEEEvEEED2Ev, .-_ZNSt10shared_ptrINSt13__future_base15_Deferred_stateINSt6thread8_InvokerISt5tupleIJZ4testvEUlvE_EEEEvEEED2Ev
	.set	_ZNSt10shared_ptrINSt13__future_base15_Deferred_stateINSt6thread8_InvokerISt5tupleIJZ4testvEUlvE_EEEEvEEED1Ev,_ZNSt10shared_ptrINSt13__future_base15_Deferred_stateINSt6thread8_InvokerISt5tupleIJZ4testvEUlvE_EEEEvEEED2Ev
	.align	2
	.type	_ZSt5asyncIZ4testvEUlvE_JEESt6futureINSt15__invoke_resultINSt5decayIT_E4typeEJDpNS3_IT0_E4typeEEE4typeEESt6launchOS4_DpOS7_, %function
_ZSt5asyncIZ4testvEUlvE_JEESt6futureINSt15__invoke_resultINSt5decayIT_E4typeEJDpNS3_IT0_E4typeEEE4typeEESt6launchOS4_DpOS7_:
.LFB4237:
	.cfi_startproc
	.cfi_personality 0x9b,DW.ref.__gxx_personality_v0
	.cfi_lsda 0x1b,.LLSDA4237
	stp	x29, x30, [sp, -112]!
	.cfi_def_cfa_offset 112
	.cfi_offset 29, -112
	.cfi_offset 30, -104
	mov	x29, sp
	stp	x19, x20, [sp, 16]
	.cfi_offset 19, -96
	.cfi_offset 20, -88
	mov	x19, x8
	str	w0, [sp, 44]
	str	x1, [sp, 32]
	adrp	x0, :got:__stack_chk_guard
	ldr	x0, [x0, #:got_lo12:__stack_chk_guard]
	ldr	x1, [x0]
	str	x1, [sp, 104]
	mov	x1, 0
	stp	xzr, xzr, [sp, 56]
	mov	w1, 1
	ldr	w0, [sp, 44]
	bl	_ZStanSt6launchS_
	cmp	w0, 1
	cset	w0, eq
	and	w0, w0, 255
	cmp	w0, 0
	beq	.L440
	ldr	x0, [sp, 32]
	bl	_ZSt7forwardIZ4testvEUlvE_EOT_RNSt16remove_referenceIS1_E4typeE
	mov	x1, x0
	add	x0, sp, 72
	mov	x8, x0
	mov	x0, x1
.LEHB30:
	bl	_ZSt11make_sharedINSt13__future_base17_Async_state_implINSt6thread8_InvokerISt5tupleIJZ4testvEUlvE_EEEEvEEJS5_EESt10shared_ptrIT_EDpOT0_
.LEHE30:
	add	x1, sp, 72
	add	x0, sp, 56
	bl	_ZNSt10shared_ptrINSt13__future_base13_State_baseV2EEaSINS0_17_Async_state_implINSt6thread8_InvokerISt5tupleIJZ4testvEUlvE_EEEEvEEEENSt9enable_ifIXsrSt13is_assignableIRSt12__shared_ptrIS1_LN9__gnu_cxx12_Lock_policyE2EES_IT_EE5valueERS2_E4typeEOSK_
	add	x0, sp, 72
	bl	_ZNSt10shared_ptrINSt13__future_base17_Async_state_implINSt6thread8_InvokerISt5tupleIJZ4testvEUlvE_EEEEvEEED1Ev
.L440:
	add	x0, sp, 56
	bl	_ZNKSt12__shared_ptrINSt13__future_base13_State_baseV2ELN9__gnu_cxx12_Lock_policyE2EEcvbEv
	and	w0, w0, 255
	eor	w0, w0, 1
	and	w0, w0, 255
	cmp	w0, 0
	beq	.L441
	ldr	x0, [sp, 32]
	bl	_ZSt7forwardIZ4testvEUlvE_EOT_RNSt16remove_referenceIS1_E4typeE
	mov	x1, x0
	add	x0, sp, 88
	mov	x8, x0
	mov	x0, x1
.LEHB31:
	bl	_ZSt11make_sharedINSt13__future_base15_Deferred_stateINSt6thread8_InvokerISt5tupleIJZ4testvEUlvE_EEEEvEEJS5_EESt10shared_ptrIT_EDpOT0_
	add	x1, sp, 88
	add	x0, sp, 56
	bl	_ZNSt10shared_ptrINSt13__future_base13_State_baseV2EEaSINS0_15_Deferred_stateINSt6thread8_InvokerISt5tupleIJZ4testvEUlvE_EEEEvEEEENSt9enable_ifIXsrSt13is_assignableIRSt12__shared_ptrIS1_LN9__gnu_cxx12_Lock_policyE2EES_IT_EE5valueERS2_E4typeEOSK_
	add	x0, sp, 88
	bl	_ZNSt10shared_ptrINSt13__future_base15_Deferred_stateINSt6thread8_InvokerISt5tupleIJZ4testvEUlvE_EEEEvEEED1Ev
.L441:
	add	x0, sp, 56
	bl	_ZSt4moveIRSt10shared_ptrINSt13__future_base13_State_baseV2EEEONSt16remove_referenceIT_E4typeEOS6_
	mov	x1, x0
	mov	x0, x19
	bl	_ZNSt6futureIvEC1ERKSt10shared_ptrINSt13__future_base13_State_baseV2EE
.LEHE31:
	nop
	add	x0, sp, 56
	bl	_ZNSt10shared_ptrINSt13__future_base13_State_baseV2EED1Ev
	nop
	adrp	x0, :got:__stack_chk_guard
	ldr	x0, [x0, #:got_lo12:__stack_chk_guard]
	ldr	x2, [sp, 104]
	ldr	x1, [x0]
	subs	x2, x2, x1
	mov	x1, 0
	beq	.L451
	b	.L455
.L452:
	cmp	x1, 1
	beq	.L444
	mov	x19, x0
	b	.L445
.L444:
	bl	__cxa_begin_catch
	str	x0, [sp, 48]
	ldr	x0, [sp, 48]
	bl	_ZNKSt12system_error4codeEv
	mov	x20, x0
	add	x0, sp, 88
	mov	w1, 11
	bl	_ZNSt15error_conditionC1ISt4errcvEET_
	add	x0, sp, 88
	mov	x1, x0
	mov	x0, x20
	bl	_ZStneRKSt10error_codeRKSt15error_condition
	and	w0, w0, 255
	cmp	w0, 0
	bne	.L446
	mov	w1, 2
	ldr	w0, [sp, 44]
	bl	_ZStanSt6launchS_
	cmp	w0, 2
	beq	.L447
.L446:
	mov	w0, 1
	b	.L448
.L447:
	mov	w0, 0
.L448:
	cmp	w0, 0
	beq	.L449
.LEHB32:
	bl	__cxa_rethrow
.LEHE32:
.L449:
	bl	__cxa_end_catch
	b	.L440
.L454:
	mov	x19, x0
	bl	__cxa_end_catch
	b	.L445
.L453:
	mov	x19, x0
.L445:
	add	x0, sp, 56
	bl	_ZNSt10shared_ptrINSt13__future_base13_State_baseV2EED1Ev
	mov	x0, x19
.LEHB33:
	bl	_Unwind_Resume
.LEHE33:
.L455:
	bl	__stack_chk_fail
.L451:
	mov	x0, x19
	ldp	x19, x20, [sp, 16]
	ldp	x29, x30, [sp], 112
	.cfi_restore 30
	.cfi_restore 29
	.cfi_restore 19
	.cfi_restore 20
	.cfi_def_cfa_offset 0
	ret
	.cfi_endproc
.LFE4237:
	.section	.gcc_except_table
	.align	2
.LLSDA4237:
	.byte	0xff
	.byte	0x9b
	.uleb128 .LLSDATT4237-.LLSDATTD4237
.LLSDATTD4237:
	.byte	0x1
	.uleb128 .LLSDACSE4237-.LLSDACSB4237
.LLSDACSB4237:
	.uleb128 .LEHB30-.LFB4237
	.uleb128 .LEHE30-.LEHB30
	.uleb128 .L452-.LFB4237
	.uleb128 0x3
	.uleb128 .LEHB31-.LFB4237
	.uleb128 .LEHE31-.LEHB31
	.uleb128 .L453-.LFB4237
	.uleb128 0
	.uleb128 .LEHB32-.LFB4237
	.uleb128 .LEHE32-.LEHB32
	.uleb128 .L454-.LFB4237
	.uleb128 0
	.uleb128 .LEHB33-.LFB4237
	.uleb128 .LEHE33-.LEHB33
	.uleb128 0
	.uleb128 0
.LLSDACSE4237:
	.byte	0
	.byte	0
	.byte	0x1
	.byte	0x7d
	.align	2
	.4byte	DW.ref._ZTISt12system_error-.
.LLSDATT4237:
	.text
	.size	_ZSt5asyncIZ4testvEUlvE_JEESt6futureINSt15__invoke_resultINSt5decayIT_E4typeEJDpNS3_IT0_E4typeEEE4typeEESt6launchOS4_DpOS7_, .-_ZSt5asyncIZ4testvEUlvE_JEESt6futureINSt15__invoke_resultINSt5decayIT_E4typeEJDpNS3_IT0_E4typeEEE4typeEESt6launchOS4_DpOS7_
	.section	.text._ZNSt6chronoltIlSt5ratioILl1ELl1EElS2_EEbRKNS_8durationIT_T0_EERKNS3_IT1_T2_EE,"axG",@progbits,_ZNSt6chronoltIlSt5ratioILl1ELl1EElS2_EEbRKNS_8durationIT_T0_EERKNS3_IT1_T2_EE,comdat
	.align	2
	.weak	_ZNSt6chronoltIlSt5ratioILl1ELl1EElS2_EEbRKNS_8durationIT_T0_EERKNS3_IT1_T2_EE
	.type	_ZNSt6chronoltIlSt5ratioILl1ELl1EElS2_EEbRKNS_8durationIT_T0_EERKNS3_IT1_T2_EE, %function
_ZNSt6chronoltIlSt5ratioILl1ELl1EElS2_EEbRKNS_8durationIT_T0_EERKNS3_IT1_T2_EE:
.LFB4253:
	.cfi_startproc
	stp	x29, x30, [sp, -80]!
	.cfi_def_cfa_offset 80
	.cfi_offset 29, -80
	.cfi_offset 30, -72
	mov	x29, sp
	str	x19, [sp, 16]
	.cfi_offset 19, -64
	str	x0, [sp, 40]
	str	x1, [sp, 32]
	adrp	x0, :got:__stack_chk_guard
	ldr	x0, [x0, #:got_lo12:__stack_chk_guard]
	ldr	x1, [x0]
	str	x1, [sp, 72]
	mov	x1, 0
	ldr	x0, [sp, 40]
	ldr	x0, [x0]
	str	x0, [sp, 56]
	add	x0, sp, 56
	bl	_ZNKSt6chrono8durationIlSt5ratioILl1ELl1EEE5countEv
	mov	x19, x0
	ldr	x0, [sp, 32]
	ldr	x0, [x0]
	str	x0, [sp, 64]
	add	x0, sp, 64
	bl	_ZNKSt6chrono8durationIlSt5ratioILl1ELl1EEE5countEv
	cmp	x19, x0
	cset	w0, lt
	and	w0, w0, 255
	mov	w1, w0
	adrp	x0, :got:__stack_chk_guard
	ldr	x0, [x0, #:got_lo12:__stack_chk_guard]
	ldr	x3, [sp, 72]
	ldr	x2, [x0]
	subs	x3, x3, x2
	mov	x2, 0
	beq	.L458
	bl	__stack_chk_fail
.L458:
	mov	w0, w1
	ldr	x19, [sp, 16]
	ldp	x29, x30, [sp], 80
	.cfi_restore 30
	.cfi_restore 29
	.cfi_restore 19
	.cfi_def_cfa_offset 0
	ret
	.cfi_endproc
.LFE4253:
	.size	_ZNSt6chronoltIlSt5ratioILl1ELl1EElS2_EEbRKNS_8durationIT_T0_EERKNS3_IT1_T2_EE, .-_ZNSt6chronoltIlSt5ratioILl1ELl1EElS2_EEbRKNS_8durationIT_T0_EERKNS3_IT1_T2_EE
	.section	.text._ZNSt6chrono20__duration_cast_implINS_8durationIlSt5ratioILl1ELl1EEEES3_lLb1ELb1EE6__castIlS3_EES4_RKNS1_IT_T0_EE,"axG",@progbits,_ZNSt6chrono20__duration_cast_implINS_8durationIlSt5ratioILl1ELl1EEEES3_lLb1ELb1EE6__castIlS3_EES4_RKNS1_IT_T0_EE,comdat
	.align	2
	.weak	_ZNSt6chrono20__duration_cast_implINS_8durationIlSt5ratioILl1ELl1EEEES3_lLb1ELb1EE6__castIlS3_EES4_RKNS1_IT_T0_EE
	.type	_ZNSt6chrono20__duration_cast_implINS_8durationIlSt5ratioILl1ELl1EEEES3_lLb1ELb1EE6__castIlS3_EES4_RKNS1_IT_T0_EE, %function
_ZNSt6chrono20__duration_cast_implINS_8durationIlSt5ratioILl1ELl1EEEES3_lLb1ELb1EE6__castIlS3_EES4_RKNS1_IT_T0_EE:
.LFB4254:
	.cfi_startproc
	stp	x29, x30, [sp, -64]!
	.cfi_def_cfa_offset 64
	.cfi_offset 29, -64
	.cfi_offset 30, -56
	mov	x29, sp
	str	x0, [sp, 24]
	adrp	x0, :got:__stack_chk_guard
	ldr	x0, [x0, #:got_lo12:__stack_chk_guard]
	ldr	x1, [x0]
	str	x1, [sp, 56]
	mov	x1, 0
	ldr	x0, [sp, 24]
	bl	_ZNKSt6chrono8durationIlSt5ratioILl1ELl1EEE5countEv
	str	x0, [sp, 40]
	add	x1, sp, 40
	add	x0, sp, 48
	bl	_ZNSt6chrono8durationIlSt5ratioILl1ELl1EEEC1IlvEERKT_
	ldr	x0, [sp, 48]
	mov	x1, x0
	adrp	x0, :got:__stack_chk_guard
	ldr	x0, [x0, #:got_lo12:__stack_chk_guard]
	ldr	x3, [sp, 56]
	ldr	x2, [x0]
	subs	x3, x3, x2
	mov	x2, 0
	beq	.L461
	bl	__stack_chk_fail
.L461:
	mov	x0, x1
	ldp	x29, x30, [sp], 64
	.cfi_restore 30
	.cfi_restore 29
	.cfi_def_cfa_offset 0
	ret
	.cfi_endproc
.LFE4254:
	.size	_ZNSt6chrono20__duration_cast_implINS_8durationIlSt5ratioILl1ELl1EEEES3_lLb1ELb1EE6__castIlS3_EES4_RKNS1_IT_T0_EE, .-_ZNSt6chrono20__duration_cast_implINS_8durationIlSt5ratioILl1ELl1EEEES3_lLb1ELb1EE6__castIlS3_EES4_RKNS1_IT_T0_EE
	.section	.text._ZNSt6chrono20__duration_cast_implINS_8durationIlSt5ratioILl1ELl1000000000EEEES2_ILl1000000000ELl1EElLb0ELb1EE6__castIlS2_ILl1ELl1EEEES4_RKNS1_IT_T0_EE,"axG",@progbits,_ZNSt6chrono20__duration_cast_implINS_8durationIlSt5ratioILl1ELl1000000000EEEES2_ILl1000000000ELl1EElLb0ELb1EE6__castIlS2_ILl1ELl1EEEES4_RKNS1_IT_T0_EE,comdat
	.align	2
	.weak	_ZNSt6chrono20__duration_cast_implINS_8durationIlSt5ratioILl1ELl1000000000EEEES2_ILl1000000000ELl1EElLb0ELb1EE6__castIlS2_ILl1ELl1EEEES4_RKNS1_IT_T0_EE
	.type	_ZNSt6chrono20__duration_cast_implINS_8durationIlSt5ratioILl1ELl1000000000EEEES2_ILl1000000000ELl1EElLb0ELb1EE6__castIlS2_ILl1ELl1EEEES4_RKNS1_IT_T0_EE, %function
_ZNSt6chrono20__duration_cast_implINS_8durationIlSt5ratioILl1ELl1000000000EEEES2_ILl1000000000ELl1EElLb0ELb1EE6__castIlS2_ILl1ELl1EEEES4_RKNS1_IT_T0_EE:
.LFB4255:
	.cfi_startproc
	stp	x29, x30, [sp, -64]!
	.cfi_def_cfa_offset 64
	.cfi_offset 29, -64
	.cfi_offset 30, -56
	mov	x29, sp
	str	x0, [sp, 24]
	adrp	x0, :got:__stack_chk_guard
	ldr	x0, [x0, #:got_lo12:__stack_chk_guard]
	ldr	x1, [x0]
	str	x1, [sp, 56]
	mov	x1, 0
	ldr	x0, [sp, 24]
	bl	_ZNKSt6chrono8durationIlSt5ratioILl1ELl1EEE5countEv
	mov	x1, x0
	mov	x0, 51712
	movk	x0, 0x3b9a, lsl 16
	mul	x0, x1, x0
	str	x0, [sp, 40]
	add	x1, sp, 40
	add	x0, sp, 48
	bl	_ZNSt6chrono8durationIlSt5ratioILl1ELl1000000000EEEC1IlvEERKT_
	ldr	x0, [sp, 48]
	mov	x1, x0
	adrp	x0, :got:__stack_chk_guard
	ldr	x0, [x0, #:got_lo12:__stack_chk_guard]
	ldr	x3, [sp, 56]
	ldr	x2, [x0]
	subs	x3, x3, x2
	mov	x2, 0
	beq	.L464
	bl	__stack_chk_fail
.L464:
	mov	x0, x1
	ldp	x29, x30, [sp], 64
	.cfi_restore 30
	.cfi_restore 29
	.cfi_def_cfa_offset 0
	ret
	.cfi_endproc
.LFE4255:
	.size	_ZNSt6chrono20__duration_cast_implINS_8durationIlSt5ratioILl1ELl1000000000EEEES2_ILl1000000000ELl1EElLb0ELb1EE6__castIlS2_ILl1ELl1EEEES4_RKNS1_IT_T0_EE, .-_ZNSt6chrono20__duration_cast_implINS_8durationIlSt5ratioILl1ELl1000000000EEEES2_ILl1000000000ELl1EElLb0ELb1EE6__castIlS2_ILl1ELl1EEEES4_RKNS1_IT_T0_EE
	.section	.text._ZNSt8literals15chrono_literals16__check_overflowINSt6chrono8durationIlSt5ratioILl1ELl1EEEEJLc49ELc48EEEET_v,"axG",@progbits,_ZNSt8literals15chrono_literals16__check_overflowINSt6chrono8durationIlSt5ratioILl1ELl1EEEEJLc49ELc48EEEET_v,comdat
	.align	2
	.weak	_ZNSt8literals15chrono_literals16__check_overflowINSt6chrono8durationIlSt5ratioILl1ELl1EEEEJLc49ELc48EEEET_v
	.type	_ZNSt8literals15chrono_literals16__check_overflowINSt6chrono8durationIlSt5ratioILl1ELl1EEEEJLc49ELc48EEEET_v, %function
_ZNSt8literals15chrono_literals16__check_overflowINSt6chrono8durationIlSt5ratioILl1ELl1EEEEJLc49ELc48EEEET_v:
.LFB4256:
	.cfi_startproc
	stp	x29, x30, [sp, -48]!
	.cfi_def_cfa_offset 48
	.cfi_offset 29, -48
	.cfi_offset 30, -40
	mov	x29, sp
	adrp	x0, :got:__stack_chk_guard
	ldr	x0, [x0, #:got_lo12:__stack_chk_guard]
	ldr	x1, [x0]
	str	x1, [sp, 40]
	mov	x1, 0
	mov	x0, 10
	str	x0, [sp, 24]
	add	x1, sp, 24
	add	x0, sp, 32
	bl	_ZNSt6chrono8durationIlSt5ratioILl1ELl1EEEC1IlvEERKT_
	ldr	x0, [sp, 32]
	mov	x1, x0
	adrp	x0, :got:__stack_chk_guard
	ldr	x0, [x0, #:got_lo12:__stack_chk_guard]
	ldr	x3, [sp, 40]
	ldr	x2, [x0]
	subs	x3, x3, x2
	mov	x2, 0
	beq	.L467
	bl	__stack_chk_fail
.L467:
	mov	x0, x1
	ldp	x29, x30, [sp], 48
	.cfi_restore 30
	.cfi_restore 29
	.cfi_def_cfa_offset 0
	ret
	.cfi_endproc
.LFE4256:
