	.arch armv8-a
	.file	"main.cpp"
	.text
	.section	.text._ZnwmPv,"axG",@progbits,_ZnwmPv,comdat
	.align	2
	.weak	_ZnwmPv
	.type	_ZnwmPv, %function
_ZnwmPv:
.LFB38:
	.cfi_startproc
	sub	sp, sp, #16
	.cfi_def_cfa_offset 16
	str	x0, [sp, 8]
	str	x1, [sp]
	ldr	x0, [sp]
	add	sp, sp, 16
	.cfi_def_cfa_offset 0
	ret
	.cfi_endproc
.LFE38:
	.size	_ZnwmPv, .-_ZnwmPv
	.local	_ZStL8__ioinit
	.comm	_ZStL8__ioinit,1,8
	.section	.text._ZNSt14_Bit_referenceC2EPmm,"axG",@progbits,_ZNSt14_Bit_referenceC5EPmm,comdat
	.align	2
	.weak	_ZNSt14_Bit_referenceC2EPmm
	.type	_ZNSt14_Bit_referenceC2EPmm, %function
_ZNSt14_Bit_referenceC2EPmm:
.LFB1898:
	.cfi_startproc
	sub	sp, sp, #32
	.cfi_def_cfa_offset 32
	str	x0, [sp, 24]
	str	x1, [sp, 16]
	str	x2, [sp, 8]
	ldr	x0, [sp, 24]
	ldr	x1, [sp, 16]
	str	x1, [x0]
	ldr	x0, [sp, 24]
	ldr	x1, [sp, 8]
	str	x1, [x0, 8]
	nop
	add	sp, sp, 32
	.cfi_def_cfa_offset 0
	ret
	.cfi_endproc
.LFE1898:
	.size	_ZNSt14_Bit_referenceC2EPmm, .-_ZNSt14_Bit_referenceC2EPmm
	.weak	_ZNSt14_Bit_referenceC1EPmm
	.set	_ZNSt14_Bit_referenceC1EPmm,_ZNSt14_Bit_referenceC2EPmm
	.section	.text._ZNKSt14_Bit_referencecvbEv,"axG",@progbits,_ZNKSt14_Bit_referencecvbEv,comdat
	.align	2
	.weak	_ZNKSt14_Bit_referencecvbEv
	.type	_ZNKSt14_Bit_referencecvbEv, %function
_ZNKSt14_Bit_referencecvbEv:
.LFB1903:
	.cfi_startproc
	sub	sp, sp, #16
	.cfi_def_cfa_offset 16
	str	x0, [sp, 8]
	ldr	x0, [sp, 8]
	ldr	x0, [x0]
	ldr	x1, [x0]
	ldr	x0, [sp, 8]
	ldr	x0, [x0, 8]
	and	x0, x1, x0
	cmp	x0, 0
	cset	w0, ne
	and	w0, w0, 255
	add	sp, sp, 16
	.cfi_def_cfa_offset 0
	ret
	.cfi_endproc
.LFE1903:
	.size	_ZNKSt14_Bit_referencecvbEv, .-_ZNKSt14_Bit_referencecvbEv
	.section	.text._ZNSt14_Bit_referenceaSEb,"axG",@progbits,_ZNSt14_Bit_referenceaSEb,comdat
	.align	2
	.weak	_ZNSt14_Bit_referenceaSEb
	.type	_ZNSt14_Bit_referenceaSEb, %function
_ZNSt14_Bit_referenceaSEb:
.LFB1904:
	.cfi_startproc
	sub	sp, sp, #16
	.cfi_def_cfa_offset 16
	str	x0, [sp, 8]
	strb	w1, [sp, 7]
	ldrb	w0, [sp, 7]
	cmp	w0, 0
	beq	.L7
	ldr	x0, [sp, 8]
	ldr	x0, [x0]
	ldr	x2, [x0]
	ldr	x0, [sp, 8]
	ldr	x1, [x0, 8]
	ldr	x0, [sp, 8]
	ldr	x0, [x0]
	orr	x1, x2, x1
	str	x1, [x0]
	b	.L8
.L7:
	ldr	x0, [sp, 8]
	ldr	x0, [x0]
	ldr	x2, [x0]
	ldr	x0, [sp, 8]
	ldr	x0, [x0, 8]
	mvn	x1, x0
	ldr	x0, [sp, 8]
	ldr	x0, [x0]
	and	x1, x2, x1
	str	x1, [x0]
.L8:
	ldr	x0, [sp, 8]
	add	sp, sp, 16
	.cfi_def_cfa_offset 0
	ret
	.cfi_endproc
.LFE1904:
	.size	_ZNSt14_Bit_referenceaSEb, .-_ZNSt14_Bit_referenceaSEb
	.section	.text._ZNSt18_Bit_iterator_baseC2EPmj,"axG",@progbits,_ZNSt18_Bit_iterator_baseC5EPmj,comdat
	.align	2
	.weak	_ZNSt18_Bit_iterator_baseC2EPmj
	.type	_ZNSt18_Bit_iterator_baseC2EPmj, %function
_ZNSt18_Bit_iterator_baseC2EPmj:
.LFB1913:
	.cfi_startproc
	sub	sp, sp, #32
	.cfi_def_cfa_offset 32
	str	x0, [sp, 24]
	str	x1, [sp, 16]
	str	w2, [sp, 12]
	ldr	x0, [sp, 24]
	ldr	x1, [sp, 16]
	str	x1, [x0]
	ldr	x0, [sp, 24]
	ldr	w1, [sp, 12]
	str	w1, [x0, 8]
	nop
	add	sp, sp, 32
	.cfi_def_cfa_offset 0
	ret
	.cfi_endproc
.LFE1913:
	.size	_ZNSt18_Bit_iterator_baseC2EPmj, .-_ZNSt18_Bit_iterator_baseC2EPmj
	.weak	_ZNSt18_Bit_iterator_baseC1EPmj
	.set	_ZNSt18_Bit_iterator_baseC1EPmj,_ZNSt18_Bit_iterator_baseC2EPmj
	.section	.text._ZNSt18_Bit_iterator_base7_M_incrEl,"axG",@progbits,_ZNSt18_Bit_iterator_base7_M_incrEl,comdat
	.align	2
	.weak	_ZNSt18_Bit_iterator_base7_M_incrEl
	.type	_ZNSt18_Bit_iterator_base7_M_incrEl, %function
_ZNSt18_Bit_iterator_base7_M_incrEl:
.LFB1917:
	.cfi_startproc
	sub	sp, sp, #32
	.cfi_def_cfa_offset 32
	str	x0, [sp, 8]
	str	x1, [sp]
	ldr	x0, [sp, 8]
	ldr	w0, [x0, 8]
	uxtw	x0, w0
	ldr	x1, [sp]
	add	x0, x1, x0
	str	x0, [sp, 24]
	ldr	x0, [sp, 8]
	ldr	x1, [x0]
	ldr	x0, [sp, 24]
	add	x2, x0, 63
	cmp	x0, 0
	csel	x0, x2, x0, lt
	asr	x0, x0, 6
	lsl	x0, x0, 3
	add	x1, x1, x0
	ldr	x0, [sp, 8]
	str	x1, [x0]
	ldr	x0, [sp, 24]
	negs	x1, x0
	and	x0, x0, 63
	and	x1, x1, 63
	csneg	x0, x0, x1, mi
	str	x0, [sp, 24]
	ldr	x0, [sp, 24]
	cmp	x0, 0
	bge	.L12
	ldr	x0, [sp, 24]
	add	x0, x0, 64
	str	x0, [sp, 24]
	ldr	x0, [sp, 8]
	ldr	x0, [x0]
	sub	x1, x0, #8
	ldr	x0, [sp, 8]
	str	x1, [x0]
.L12:
	ldr	x0, [sp, 24]
	mov	w1, w0
	ldr	x0, [sp, 8]
	str	w1, [x0, 8]
	nop
	add	sp, sp, 32
	.cfi_def_cfa_offset 0
	ret
	.cfi_endproc
.LFE1917:
	.size	_ZNSt18_Bit_iterator_base7_M_incrEl, .-_ZNSt18_Bit_iterator_base7_M_incrEl
	.section	.text._ZNSt13_Bit_iteratorC2Ev,"axG",@progbits,_ZNSt13_Bit_iteratorC5Ev,comdat
	.align	2
	.weak	_ZNSt13_Bit_iteratorC2Ev
	.type	_ZNSt13_Bit_iteratorC2Ev, %function
_ZNSt13_Bit_iteratorC2Ev:
.LFB1926:
	.cfi_startproc
	stp	x29, x30, [sp, -32]!
	.cfi_def_cfa_offset 32
	.cfi_offset 29, -32
	.cfi_offset 30, -24
	mov	x29, sp
	str	x0, [sp, 24]
	ldr	x0, [sp, 24]
	mov	w2, 0
	mov	x1, 0
	bl	_ZNSt18_Bit_iterator_baseC2EPmj
	nop
	ldp	x29, x30, [sp], 32
	.cfi_restore 30
	.cfi_restore 29
	.cfi_def_cfa_offset 0
	ret
	.cfi_endproc
.LFE1926:
	.size	_ZNSt13_Bit_iteratorC2Ev, .-_ZNSt13_Bit_iteratorC2Ev
	.weak	_ZNSt13_Bit_iteratorC1Ev
	.set	_ZNSt13_Bit_iteratorC1Ev,_ZNSt13_Bit_iteratorC2Ev
	.section	.text._ZNSt13_Bit_iteratorC2EPmj,"axG",@progbits,_ZNSt13_Bit_iteratorC5EPmj,comdat
	.align	2
	.weak	_ZNSt13_Bit_iteratorC2EPmj
	.type	_ZNSt13_Bit_iteratorC2EPmj, %function
_ZNSt13_Bit_iteratorC2EPmj:
.LFB1929:
	.cfi_startproc
	stp	x29, x30, [sp, -48]!
	.cfi_def_cfa_offset 48
	.cfi_offset 29, -48
	.cfi_offset 30, -40
	mov	x29, sp
	str	x0, [sp, 40]
	str	x1, [sp, 32]
	str	w2, [sp, 28]
	ldr	x0, [sp, 40]
	ldr	w2, [sp, 28]
	ldr	x1, [sp, 32]
	bl	_ZNSt18_Bit_iterator_baseC2EPmj
	nop
	ldp	x29, x30, [sp], 48
	.cfi_restore 30
	.cfi_restore 29
	.cfi_def_cfa_offset 0
	ret
	.cfi_endproc
.LFE1929:
	.size	_ZNSt13_Bit_iteratorC2EPmj, .-_ZNSt13_Bit_iteratorC2EPmj
	.weak	_ZNSt13_Bit_iteratorC1EPmj
	.set	_ZNSt13_Bit_iteratorC1EPmj,_ZNSt13_Bit_iteratorC2EPmj
	.section	.text._ZNKSt13_Bit_iteratordeEv,"axG",@progbits,_ZNKSt13_Bit_iteratordeEv,comdat
	.align	2
	.weak	_ZNKSt13_Bit_iteratordeEv
	.type	_ZNKSt13_Bit_iteratordeEv, %function
_ZNKSt13_Bit_iteratordeEv:
.LFB1932:
	.cfi_startproc
	stp	x29, x30, [sp, -64]!
	.cfi_def_cfa_offset 64
	.cfi_offset 29, -64
	.cfi_offset 30, -56
	mov	x29, sp
	str	x0, [sp, 24]
	adrp	x0, :got:__stack_chk_guard
	ldr	x0, [x0, #:got_lo12:__stack_chk_guard]
	ldr	x1, [x0]
	str	x1, [sp, 56]
	mov	x1, 0
	ldr	x0, [sp, 24]
	ldr	x3, [x0]
	ldr	x0, [sp, 24]
	ldr	w0, [x0, 8]
	mov	x1, 1
	lsl	x1, x1, x0
	add	x0, sp, 40
	mov	x2, x1
	mov	x1, x3
	bl	_ZNSt14_Bit_referenceC1EPmm
	ldp	x0, x1, [sp, 40]
	mov	x2, x0
	mov	x3, x1
	adrp	x0, :got:__stack_chk_guard
	ldr	x0, [x0, #:got_lo12:__stack_chk_guard]
	ldr	x4, [sp, 56]
	ldr	x1, [x0]
	subs	x4, x4, x1
	mov	x1, 0
	beq	.L17
	bl	__stack_chk_fail
.L17:
	mov	x0, x2
	mov	x1, x3
	ldp	x29, x30, [sp], 64
	.cfi_restore 30
	.cfi_restore 29
	.cfi_def_cfa_offset 0
	ret
	.cfi_endproc
.LFE1932:
	.size	_ZNKSt13_Bit_iteratordeEv, .-_ZNKSt13_Bit_iteratordeEv
	.section	.text._ZNSt13_Bit_iteratorpLEl,"axG",@progbits,_ZNSt13_Bit_iteratorpLEl,comdat
	.align	2
	.weak	_ZNSt13_Bit_iteratorpLEl
	.type	_ZNSt13_Bit_iteratorpLEl, %function
_ZNSt13_Bit_iteratorpLEl:
.LFB1937:
	.cfi_startproc
	stp	x29, x30, [sp, -32]!
	.cfi_def_cfa_offset 32
	.cfi_offset 29, -32
	.cfi_offset 30, -24
	mov	x29, sp
	str	x0, [sp, 24]
	str	x1, [sp, 16]
	ldr	x0, [sp, 24]
	ldr	x1, [sp, 16]
	bl	_ZNSt18_Bit_iterator_base7_M_incrEl
	ldr	x0, [sp, 24]
	ldp	x29, x30, [sp], 32
	.cfi_restore 30
	.cfi_restore 29
	.cfi_def_cfa_offset 0
	ret
	.cfi_endproc
.LFE1937:
	.size	_ZNSt13_Bit_iteratorpLEl, .-_ZNSt13_Bit_iteratorpLEl
	.section	.text._ZNKSt13_Bit_iteratorixEl,"axG",@progbits,_ZNKSt13_Bit_iteratorixEl,comdat
	.align	2
	.weak	_ZNKSt13_Bit_iteratorixEl
	.type	_ZNKSt13_Bit_iteratorixEl, %function
_ZNKSt13_Bit_iteratorixEl:
.LFB1939:
	.cfi_startproc
	stp	x29, x30, [sp, -64]!
	.cfi_def_cfa_offset 64
	.cfi_offset 29, -64
	.cfi_offset 30, -56
	mov	x29, sp
	str	x0, [sp, 24]
	str	x1, [sp, 16]
	adrp	x0, :got:__stack_chk_guard
	ldr	x0, [x0, #:got_lo12:__stack_chk_guard]
	ldr	x1, [x0]
	str	x1, [sp, 56]
	mov	x1, 0
	ldr	x1, [sp, 16]
	ldr	x0, [sp, 24]
	bl	_ZStplRKSt13_Bit_iteratorl
	stp	x0, x1, [sp, 40]
	add	x0, sp, 40
	bl	_ZNKSt13_Bit_iteratordeEv
	mov	x2, x0
	mov	x3, x1
	adrp	x0, :got:__stack_chk_guard
	ldr	x0, [x0, #:got_lo12:__stack_chk_guard]
	ldr	x4, [sp, 56]
	ldr	x1, [x0]
	subs	x4, x4, x1
	mov	x1, 0
	beq	.L22
	bl	__stack_chk_fail
.L22:
	mov	x0, x2
	mov	x1, x3
	ldp	x29, x30, [sp], 64
	.cfi_restore 30
	.cfi_restore 29
	.cfi_def_cfa_offset 0
	ret
	.cfi_endproc
.LFE1939:
	.size	_ZNKSt13_Bit_iteratorixEl, .-_ZNKSt13_Bit_iteratorixEl
	.section	.text._ZStplRKSt13_Bit_iteratorl,"axG",@progbits,_ZStplRKSt13_Bit_iteratorl,comdat
	.align	2
	.weak	_ZStplRKSt13_Bit_iteratorl
	.type	_ZStplRKSt13_Bit_iteratorl, %function
_ZStplRKSt13_Bit_iteratorl:
.LFB1940:
	.cfi_startproc
	stp	x29, x30, [sp, -96]!
	.cfi_def_cfa_offset 96
	.cfi_offset 29, -96
	.cfi_offset 30, -88
	mov	x29, sp
	stp	x20, x21, [sp, 16]
	.cfi_offset 20, -80
	.cfi_offset 21, -72
	str	x0, [sp, 40]
	str	x1, [sp, 32]
	adrp	x0, :got:__stack_chk_guard
	ldr	x0, [x0, #:got_lo12:__stack_chk_guard]
	ldr	x1, [x0]
	str	x1, [sp, 88]
	mov	x1, 0
	ldr	x0, [sp, 40]
	ldp	x0, x1, [x0]
	stp	x0, x1, [sp, 56]
	add	x0, sp, 56
	ldr	x1, [sp, 32]
	bl	_ZNSt13_Bit_iteratorpLEl
	ldp	x0, x1, [sp, 56]
	stp	x0, x1, [sp, 72]
	ldr	x1, [sp, 72]
	ldr	x0, [sp, 80]
	mov	x20, x1
	mov	x21, x0
	mov	x2, x20
	mov	x3, x21
	adrp	x0, :got:__stack_chk_guard
	ldr	x0, [x0, #:got_lo12:__stack_chk_guard]
	ldr	x4, [sp, 88]
	ldr	x1, [x0]
	subs	x4, x4, x1
	mov	x1, 0
	beq	.L25
	bl	__stack_chk_fail
.L25:
	mov	x0, x2
	mov	x1, x3
	ldp	x20, x21, [sp, 16]
	ldp	x29, x30, [sp], 96
	.cfi_restore 30
	.cfi_restore 29
	.cfi_restore 20
	.cfi_restore 21
	.cfi_def_cfa_offset 0
	ret
	.cfi_endproc
.LFE1940:
	.size	_ZStplRKSt13_Bit_iteratorl, .-_ZStplRKSt13_Bit_iteratorl
	.section	.text._ZSt16__deque_buf_sizem,"axG",@progbits,_ZSt16__deque_buf_sizem,comdat
	.align	2
	.weak	_ZSt16__deque_buf_sizem
	.type	_ZSt16__deque_buf_sizem, %function
_ZSt16__deque_buf_sizem:
.LFB2084:
	.cfi_startproc
	sub	sp, sp, #16
	.cfi_def_cfa_offset 16
	str	x0, [sp, 8]
	ldr	x0, [sp, 8]
	cmp	x0, 511
	bhi	.L27
	mov	x1, 512
	ldr	x0, [sp, 8]
	udiv	x0, x1, x0
	b	.L29
.L27:
	mov	x0, 1
.L29:
	add	sp, sp, 16
	.cfi_def_cfa_offset 0
	ret
	.cfi_endproc
.LFE2084:
	.size	_ZSt16__deque_buf_sizem, .-_ZSt16__deque_buf_sizem
	.section	.text._ZNSt12_Vector_baseISt6vectorIiSaIiEESaIS2_EE12_Vector_implD2Ev,"axG",@progbits,_ZNSt12_Vector_baseISt6vectorIiSaIiEESaIS2_EE12_Vector_implD5Ev,comdat
	.align	2
	.weak	_ZNSt12_Vector_baseISt6vectorIiSaIiEESaIS2_EE12_Vector_implD2Ev
	.type	_ZNSt12_Vector_baseISt6vectorIiSaIiEESaIS2_EE12_Vector_implD2Ev, %function
_ZNSt12_Vector_baseISt6vectorIiSaIiEESaIS2_EE12_Vector_implD2Ev:
.LFB2279:
	.cfi_startproc
	stp	x29, x30, [sp, -32]!
	.cfi_def_cfa_offset 32
	.cfi_offset 29, -32
	.cfi_offset 30, -24
	mov	x29, sp
	str	x0, [sp, 24]
	ldr	x0, [sp, 24]
	bl	_ZNSaISt6vectorIiSaIiEEED2Ev
	nop
	ldp	x29, x30, [sp], 32
	.cfi_restore 30
	.cfi_restore 29
	.cfi_def_cfa_offset 0
	ret
	.cfi_endproc
.LFE2279:
	.size	_ZNSt12_Vector_baseISt6vectorIiSaIiEESaIS2_EE12_Vector_implD2Ev, .-_ZNSt12_Vector_baseISt6vectorIiSaIiEESaIS2_EE12_Vector_implD2Ev
	.weak	_ZNSt12_Vector_baseISt6vectorIiSaIiEESaIS2_EE12_Vector_implD1Ev
	.set	_ZNSt12_Vector_baseISt6vectorIiSaIiEESaIS2_EE12_Vector_implD1Ev,_ZNSt12_Vector_baseISt6vectorIiSaIiEESaIS2_EE12_Vector_implD2Ev
	.section	.text._ZNSt12_Vector_baseISt6vectorIiSaIiEESaIS2_EEC2Ev,"axG",@progbits,_ZNSt12_Vector_baseISt6vectorIiSaIiEESaIS2_EEC5Ev,comdat
	.align	2
	.weak	_ZNSt12_Vector_baseISt6vectorIiSaIiEESaIS2_EEC2Ev
	.type	_ZNSt12_Vector_baseISt6vectorIiSaIiEESaIS2_EEC2Ev, %function
_ZNSt12_Vector_baseISt6vectorIiSaIiEESaIS2_EEC2Ev:
.LFB2281:
	.cfi_startproc
	stp	x29, x30, [sp, -32]!
	.cfi_def_cfa_offset 32
	.cfi_offset 29, -32
	.cfi_offset 30, -24
	mov	x29, sp
	str	x0, [sp, 24]
	ldr	x0, [sp, 24]
	bl	_ZNSt12_Vector_baseISt6vectorIiSaIiEESaIS2_EE12_Vector_implC1Ev
	nop
	ldp	x29, x30, [sp], 32
	.cfi_restore 30
	.cfi_restore 29
	.cfi_def_cfa_offset 0
	ret
	.cfi_endproc
.LFE2281:
	.size	_ZNSt12_Vector_baseISt6vectorIiSaIiEESaIS2_EEC2Ev, .-_ZNSt12_Vector_baseISt6vectorIiSaIiEESaIS2_EEC2Ev
	.weak	_ZNSt12_Vector_baseISt6vectorIiSaIiEESaIS2_EEC1Ev
	.set	_ZNSt12_Vector_baseISt6vectorIiSaIiEESaIS2_EEC1Ev,_ZNSt12_Vector_baseISt6vectorIiSaIiEESaIS2_EEC2Ev
	.section	.text._ZNSt6vectorIS_IiSaIiEESaIS1_EEC2Ev,"axG",@progbits,_ZNSt6vectorIS_IiSaIiEESaIS1_EEC5Ev,comdat
	.align	2
	.weak	_ZNSt6vectorIS_IiSaIiEESaIS1_EEC2Ev
	.type	_ZNSt6vectorIS_IiSaIiEESaIS1_EEC2Ev, %function
_ZNSt6vectorIS_IiSaIiEESaIS1_EEC2Ev:
.LFB2283:
	.cfi_startproc
	stp	x29, x30, [sp, -32]!
	.cfi_def_cfa_offset 32
	.cfi_offset 29, -32
	.cfi_offset 30, -24
	mov	x29, sp
	str	x0, [sp, 24]
	ldr	x0, [sp, 24]
	bl	_ZNSt12_Vector_baseISt6vectorIiSaIiEESaIS2_EEC2Ev
	nop
	ldp	x29, x30, [sp], 32
	.cfi_restore 30
	.cfi_restore 29
	.cfi_def_cfa_offset 0
	ret
	.cfi_endproc
.LFE2283:
	.size	_ZNSt6vectorIS_IiSaIiEESaIS1_EEC2Ev, .-_ZNSt6vectorIS_IiSaIiEESaIS1_EEC2Ev
	.weak	_ZNSt6vectorIS_IiSaIiEESaIS1_EEC1Ev
	.set	_ZNSt6vectorIS_IiSaIiEESaIS1_EEC1Ev,_ZNSt6vectorIS_IiSaIiEESaIS1_EEC2Ev
	.section	.text._ZNSt5dequeIiSaIiEEC2Ev,"axG",@progbits,_ZNSt5dequeIiSaIiEEC5Ev,comdat
	.align	2
	.weak	_ZNSt5dequeIiSaIiEEC2Ev
	.type	_ZNSt5dequeIiSaIiEEC2Ev, %function
_ZNSt5dequeIiSaIiEEC2Ev:
.LFB2292:
	.cfi_startproc
	stp	x29, x30, [sp, -32]!
	.cfi_def_cfa_offset 32
	.cfi_offset 29, -32
	.cfi_offset 30, -24
	mov	x29, sp
	str	x0, [sp, 24]
	ldr	x0, [sp, 24]
	bl	_ZNSt11_Deque_baseIiSaIiEEC2Ev
	nop
	ldp	x29, x30, [sp], 32
	.cfi_restore 30
	.cfi_restore 29
	.cfi_def_cfa_offset 0
	ret
	.cfi_endproc
.LFE2292:
	.size	_ZNSt5dequeIiSaIiEEC2Ev, .-_ZNSt5dequeIiSaIiEEC2Ev
	.weak	_ZNSt5dequeIiSaIiEEC1Ev
	.set	_ZNSt5dequeIiSaIiEEC1Ev,_ZNSt5dequeIiSaIiEEC2Ev
	.section	.text._ZN8Solution7permuteERSt6vectorIiSaIiEE,"axG",@progbits,_ZN8Solution7permuteERSt6vectorIiSaIiEE,comdat
	.align	2
	.weak	_ZN8Solution7permuteERSt6vectorIiSaIiEE
	.type	_ZN8Solution7permuteERSt6vectorIiSaIiEE, %function
_ZN8Solution7permuteERSt6vectorIiSaIiEE:
.LFB2274:
	.cfi_startproc
	.cfi_personality 0x9b,DW.ref.__gxx_personality_v0
	.cfi_lsda 0x1b,.LLSDA2274
	stp	x29, x30, [sp, -176]!
	.cfi_def_cfa_offset 176
	.cfi_offset 29, -176
	.cfi_offset 30, -168
	mov	x29, sp
	stp	x19, x20, [sp, 16]
	.cfi_offset 19, -160
	.cfi_offset 20, -152
	mov	x19, x8
	str	x0, [sp, 40]
	str	x1, [sp, 32]
	adrp	x0, :got:__stack_chk_guard
	ldr	x0, [x0, #:got_lo12:__stack_chk_guard]
	ldr	x1, [x0]
	str	x1, [sp, 168]
	mov	x1, 0
	mov	x0, x19
	bl	_ZNSt6vectorIS_IiSaIiEESaIS1_EEC1Ev
	ldr	x0, [sp, 32]
	bl	_ZNKSt6vectorIiSaIiEE5emptyEv
	and	w0, w0, 255
	cmp	w0, 0
	bne	.L46
	ldr	x0, [sp, 32]
	bl	_ZNKSt6vectorIiSaIiEE4sizeEv
	mov	x20, x0
	add	x0, sp, 88
	bl	_ZNSaIbEC1Ev
	add	x1, sp, 88
	add	x0, sp, 48
	mov	x2, x1
	mov	x1, x20
.LEHB0:
	bl	_ZNSt6vectorIbSaIbEEC1EmRKS0_
.LEHE0:
	add	x0, sp, 88
	bl	_ZNSaIbED1Ev
	add	x0, sp, 88
.LEHB1:
	bl	_ZNSt5dequeIiSaIiEEC1Ev
.LEHE1:
	add	x1, sp, 88
	add	x0, sp, 48
	mov	x5, x19
	mov	x4, x1
	mov	x3, x0
	mov	w2, 0
	ldr	x1, [sp, 32]
	ldr	x0, [sp, 40]
.LEHB2:
	bl	_ZN8Solution3dfsERKSt6vectorIiSaIiEEiRS0_IbSaIbEERSt5dequeIiS1_ERS0_IS2_SaIS2_EE
.LEHE2:
	nop
	add	x0, sp, 88
	bl	_ZNSt5dequeIiSaIiEED1Ev
	add	x0, sp, 48
	bl	_ZNSt6vectorIbSaIbEED1Ev
	b	.L34
.L43:
	mov	x20, x0
	add	x0, sp, 88
	bl	_ZNSaIbED1Ev
	b	.L39
.L45:
	mov	x20, x0
	add	x0, sp, 88
	bl	_ZNSt5dequeIiSaIiEED1Ev
	b	.L41
.L44:
	mov	x20, x0
.L41:
	add	x0, sp, 48
	bl	_ZNSt6vectorIbSaIbEED1Ev
.L39:
	mov	x0, x19
	bl	_ZNSt6vectorIS_IiSaIiEESaIS1_EED1Ev
	mov	x0, x20
.LEHB3:
	bl	_Unwind_Resume
.LEHE3:
.L46:
	nop
.L34:
	adrp	x0, :got:__stack_chk_guard
	ldr	x0, [x0, #:got_lo12:__stack_chk_guard]
	ldr	x2, [sp, 168]
	ldr	x1, [x0]
	subs	x2, x2, x1
	mov	x1, 0
	beq	.L42
	bl	__stack_chk_fail
.L42:
	mov	x0, x19
	ldp	x19, x20, [sp, 16]
	ldp	x29, x30, [sp], 176
	.cfi_restore 30
	.cfi_restore 29
	.cfi_restore 19
	.cfi_restore 20
	.cfi_def_cfa_offset 0
	ret
	.cfi_endproc
.LFE2274:
	.global	__gxx_personality_v0
	.section	.gcc_except_table._ZN8Solution7permuteERSt6vectorIiSaIiEE,"aG",@progbits,_ZN8Solution7permuteERSt6vectorIiSaIiEE,comdat
.LLSDA2274:
	.byte	0xff
	.byte	0xff
	.byte	0x1
	.uleb128 .LLSDACSE2274-.LLSDACSB2274
.LLSDACSB2274:
	.uleb128 .LEHB0-.LFB2274
	.uleb128 .LEHE0-.LEHB0
	.uleb128 .L43-.LFB2274
	.uleb128 0
	.uleb128 .LEHB1-.LFB2274
	.uleb128 .LEHE1-.LEHB1
	.uleb128 .L44-.LFB2274
	.uleb128 0
	.uleb128 .LEHB2-.LFB2274
	.uleb128 .LEHE2-.LEHB2
	.uleb128 .L45-.LFB2274
	.uleb128 0
	.uleb128 .LEHB3-.LFB2274
	.uleb128 .LEHE3-.LEHB3
	.uleb128 0
	.uleb128 0
.LLSDACSE2274:
	.section	.text._ZN8Solution7permuteERSt6vectorIiSaIiEE,"axG",@progbits,_ZN8Solution7permuteERSt6vectorIiSaIiEE,comdat
	.size	_ZN8Solution7permuteERSt6vectorIiSaIiEE, .-_ZN8Solution7permuteERSt6vectorIiSaIiEE
	.section	.text._ZN8Solution3dfsERKSt6vectorIiSaIiEEiRS0_IbSaIbEERSt5dequeIiS1_ERS0_IS2_SaIS2_EE,"axG",@progbits,_ZN8Solution3dfsERKSt6vectorIiSaIiEEiRS0_IbSaIbEERSt5dequeIiS1_ERS0_IS2_SaIS2_EE,comdat
	.align	2
	.weak	_ZN8Solution3dfsERKSt6vectorIiSaIiEEiRS0_IbSaIbEERSt5dequeIiS1_ERS0_IS2_SaIS2_EE
	.type	_ZN8Solution3dfsERKSt6vectorIiSaIiEEiRS0_IbSaIbEERSt5dequeIiS1_ERS0_IS2_SaIS2_EE, %function
_ZN8Solution3dfsERKSt6vectorIiSaIiEEiRS0_IbSaIbEERSt5dequeIiS1_ERS0_IS2_SaIS2_EE:
.LFB2294:
	.cfi_startproc
	.cfi_personality 0x9b,DW.ref.__gxx_personality_v0
	.cfi_lsda 0x1b,.LLSDA2294
	stp	x29, x30, [sp, -192]!
	.cfi_def_cfa_offset 192
	.cfi_offset 29, -192
	.cfi_offset 30, -184
	mov	x29, sp
	str	x19, [sp, 16]
	.cfi_offset 19, -176
	str	x0, [sp, 72]
	str	x1, [sp, 64]
	str	w2, [sp, 60]
	str	x3, [sp, 48]
	str	x4, [sp, 40]
	str	x5, [sp, 32]
	adrp	x0, :got:__stack_chk_guard
	ldr	x0, [x0, #:got_lo12:__stack_chk_guard]
	ldr	x1, [x0]
	str	x1, [sp, 184]
	mov	x1, 0
	ldrsw	x19, [sp, 60]
	ldr	x0, [sp, 64]
	bl	_ZNKSt6vectorIiSaIiEE4sizeEv
	cmp	x19, x0
	cset	w0, eq
	and	w0, w0, 255
	cmp	w0, 0
	beq	.L48
	add	x0, sp, 120
	mov	x8, x0
	ldr	x0, [sp, 40]
	bl	_ZNSt5dequeIiSaIiEE5beginEv
	add	x0, sp, 152
	mov	x8, x0
	ldr	x0, [sp, 40]
	bl	_ZNSt5dequeIiSaIiEE3endEv
	add	x0, sp, 88
	bl	_ZNSaIiEC1Ev
	add	x3, sp, 88
	add	x2, sp, 152
	add	x1, sp, 120
	add	x0, sp, 96
.LEHB4:
	bl	_ZNSt6vectorIiSaIiEEC1ISt15_Deque_iteratorIiRiPiEvEET_S7_RKS0_
.LEHE4:
	add	x0, sp, 96
	mov	x1, x0
	ldr	x0, [sp, 32]
.LEHB5:
	bl	_ZNSt6vectorIS_IiSaIiEESaIS1_EE9push_backEOS1_
.LEHE5:
	add	x0, sp, 96
	bl	_ZNSt6vectorIiSaIiEED1Ev
	add	x0, sp, 88
	bl	_ZNSaIiED1Ev
	b	.L47
.L48:
	str	wzr, [sp, 92]
	b	.L50
.L52:
	ldrsw	x0, [sp, 92]
	mov	x1, x0
	ldr	x0, [sp, 48]
.LEHB6:
	bl	_ZNSt6vectorIbSaIbEEixEm
	stp	x0, x1, [sp, 152]
	add	x0, sp, 152
	bl	_ZNKSt14_Bit_referencecvbEv
	and	w0, w0, 255
	eor	w0, w0, 1
	and	w0, w0, 255
	cmp	w0, 0
	beq	.L51
	ldrsw	x0, [sp, 92]
	mov	x1, x0
	ldr	x0, [sp, 64]
	bl	_ZNKSt6vectorIiSaIiEEixEm
	mov	x1, x0
	ldr	x0, [sp, 40]
	bl	_ZNSt5dequeIiSaIiEE9push_backERKi
	ldrsw	x0, [sp, 92]
	mov	x1, x0
	ldr	x0, [sp, 48]
	bl	_ZNSt6vectorIbSaIbEEixEm
	stp	x0, x1, [sp, 152]
	add	x0, sp, 152
	mov	w1, 1
	bl	_ZNSt14_Bit_referenceaSEb
	ldr	w0, [sp, 60]
	add	w0, w0, 1
	ldr	x5, [sp, 32]
	ldr	x4, [sp, 40]
	ldr	x3, [sp, 48]
	mov	w2, w0
	ldr	x1, [sp, 64]
	ldr	x0, [sp, 72]
	bl	_ZN8Solution3dfsERKSt6vectorIiSaIiEEiRS0_IbSaIbEERSt5dequeIiS1_ERS0_IS2_SaIS2_EE
	ldrsw	x0, [sp, 92]
	mov	x1, x0
	ldr	x0, [sp, 48]
	bl	_ZNSt6vectorIbSaIbEEixEm
	stp	x0, x1, [sp, 152]
	add	x0, sp, 152
	mov	w1, 0
	bl	_ZNSt14_Bit_referenceaSEb
	ldr	x0, [sp, 40]
	bl	_ZNSt5dequeIiSaIiEE8pop_backEv
.L51:
	ldr	w0, [sp, 92]
	add	w0, w0, 1
	str	w0, [sp, 92]
.L50:
	ldrsw	x19, [sp, 92]
	ldr	x0, [sp, 64]
	bl	_ZNKSt6vectorIiSaIiEE4sizeEv
	cmp	x19, x0
	cset	w0, cc
	and	w0, w0, 255
	cmp	w0, 0
	bne	.L52
	b	.L47
.L57:
	mov	x19, x0
	add	x0, sp, 96
	bl	_ZNSt6vectorIiSaIiEED1Ev
	b	.L54
.L56:
	mov	x19, x0
.L54:
	add	x0, sp, 88
	bl	_ZNSaIiED1Ev
	mov	x0, x19
	bl	_Unwind_Resume
.LEHE6:
.L47:
	adrp	x0, :got:__stack_chk_guard
	ldr	x0, [x0, #:got_lo12:__stack_chk_guard]
	ldr	x2, [sp, 184]
	ldr	x1, [x0]
	subs	x2, x2, x1
	mov	x1, 0
	beq	.L55
	bl	__stack_chk_fail
.L55:
	ldr	x19, [sp, 16]
	ldp	x29, x30, [sp], 192
	.cfi_restore 30
	.cfi_restore 29
	.cfi_restore 19
	.cfi_def_cfa_offset 0
	ret
	.cfi_endproc
.LFE2294:
	.section	.gcc_except_table._ZN8Solution3dfsERKSt6vectorIiSaIiEEiRS0_IbSaIbEERSt5dequeIiS1_ERS0_IS2_SaIS2_EE,"aG",@progbits,_ZN8Solution3dfsERKSt6vectorIiSaIiEEiRS0_IbSaIbEERSt5dequeIiS1_ERS0_IS2_SaIS2_EE,comdat
.LLSDA2294:
	.byte	0xff
	.byte	0xff
	.byte	0x1
	.uleb128 .LLSDACSE2294-.LLSDACSB2294
.LLSDACSB2294:
	.uleb128 .LEHB4-.LFB2294
	.uleb128 .LEHE4-.LEHB4
	.uleb128 .L56-.LFB2294
	.uleb128 0
	.uleb128 .LEHB5-.LFB2294
	.uleb128 .LEHE5-.LEHB5
	.uleb128 .L57-.LFB2294
	.uleb128 0
	.uleb128 .LEHB6-.LFB2294
	.uleb128 .LEHE6-.LEHB6
	.uleb128 0
	.uleb128 0
.LLSDACSE2294:
	.section	.text._ZN8Solution3dfsERKSt6vectorIiSaIiEEiRS0_IbSaIbEERSt5dequeIiS1_ERS0_IS2_SaIS2_EE,"axG",@progbits,_ZN8Solution3dfsERKSt6vectorIiSaIiEEiRS0_IbSaIbEERSt5dequeIiS1_ERS0_IS2_SaIS2_EE,comdat
	.size	_ZN8Solution3dfsERKSt6vectorIiSaIiEEiRS0_IbSaIbEERSt5dequeIiS1_ERS0_IS2_SaIS2_EE, .-_ZN8Solution3dfsERKSt6vectorIiSaIiEEiRS0_IbSaIbEERSt5dequeIiS1_ERS0_IS2_SaIS2_EE
	.section	.rodata
	.align	3
.LC1:
	.string	"22"
	.text
	.align	2
	.global	main
	.type	main, %function
main:
.LFB2296:
	.cfi_startproc
	.cfi_personality 0x9b,DW.ref.__gxx_personality_v0
	.cfi_lsda 0x1b,.LLSDA2296
	stp	x29, x30, [sp, -144]!
	.cfi_def_cfa_offset 144
	.cfi_offset 29, -144
	.cfi_offset 30, -136
	mov	x29, sp
	stp	x19, x20, [sp, 16]
	str	x21, [sp, 32]
	.cfi_offset 19, -128
	.cfi_offset 20, -120
	.cfi_offset 21, -112
	str	w0, [sp, 60]
	str	x1, [sp, 48]
	adrp	x0, :got:__stack_chk_guard
	ldr	x0, [x0, #:got_lo12:__stack_chk_guard]
	ldr	x1, [x0]
	str	x1, [sp, 136]
	mov	x1, 0
	adrp	x0, .LC0
	add	x1, x0, :lo12:.LC0
	add	x0, sp, 120
	ldr	x2, [x1]
	str	x2, [x0]
	ldr	w1, [x1, 8]
	str	w1, [x0, 8]
	add	x0, sp, 120
	mov	x20, x0
	mov	x21, 3
	add	x0, sp, 96
	bl	_ZNSaIiEC1Ev
	add	x1, sp, 96
	add	x0, sp, 72
	mov	x3, x1
	mov	x1, x20
	mov	x2, x21
.LEHB7:
	bl	_ZNSt6vectorIiSaIiEEC1ESt16initializer_listIiERKS0_
.LEHE7:
	add	x0, sp, 96
	bl	_ZNSaIiED1Ev
	add	x1, sp, 72
	add	x0, sp, 64
	add	x2, sp, 96
	mov	x8, x2
.LEHB8:
	bl	_ZN8Solution7permuteERSt6vectorIiSaIiEE
.LEHE8:
	adrp	x0, .LC1
	add	x1, x0, :lo12:.LC1
	adrp	x0, :got:_ZSt4cout
	ldr	x0, [x0, #:got_lo12:_ZSt4cout]
.LEHB9:
	bl	_ZStlsISt11char_traitsIcEERSt13basic_ostreamIcT_ES5_PKc
	mov	x2, x0
	adrp	x0, :got:_ZSt4endlIcSt11char_traitsIcEERSt13basic_ostreamIT_T0_ES6_
	ldr	x1, [x0, #:got_lo12:_ZSt4endlIcSt11char_traitsIcEERSt13basic_ostreamIT_T0_ES6_]
	mov	x0, x2
	bl	_ZNSolsEPFRSoS_E
	add	x0, sp, 96
	bl	_Z5printISt6vectorIS0_IiSaIiEESaIS2_EEEvRKT_
.LEHE9:
	mov	w19, 0
	add	x0, sp, 96
	bl	_ZNSt6vectorIS_IiSaIiEESaIS1_EED1Ev
	add	x0, sp, 72
	bl	_ZNSt6vectorIiSaIiEED1Ev
	mov	w1, w19
	adrp	x0, :got:__stack_chk_guard
	ldr	x0, [x0, #:got_lo12:__stack_chk_guard]
	ldr	x3, [sp, 136]
	ldr	x2, [x0]
	subs	x3, x3, x2
	mov	x2, 0
	beq	.L63
	b	.L67
.L64:
	mov	x19, x0
	add	x0, sp, 96
	bl	_ZNSaIiED1Ev
	mov	x0, x19
.LEHB10:
	bl	_Unwind_Resume
.L66:
	mov	x19, x0
	add	x0, sp, 96
	bl	_ZNSt6vectorIS_IiSaIiEESaIS1_EED1Ev
	b	.L62
.L65:
	mov	x19, x0
.L62:
	add	x0, sp, 72
	bl	_ZNSt6vectorIiSaIiEED1Ev
	mov	x0, x19
	bl	_Unwind_Resume
.LEHE10:
.L67:
	bl	__stack_chk_fail
.L63:
	mov	w0, w1
	ldp	x19, x20, [sp, 16]
	ldr	x21, [sp, 32]
	ldp	x29, x30, [sp], 144
	.cfi_restore 30
	.cfi_restore 29
	.cfi_restore 21
	.cfi_restore 19
	.cfi_restore 20
	.cfi_def_cfa_offset 0
	ret
	.cfi_endproc
.LFE2296:
	.section	.gcc_except_table,"a",@progbits
.LLSDA2296:
	.byte	0xff
	.byte	0xff
	.byte	0x1
	.uleb128 .LLSDACSE2296-.LLSDACSB2296
.LLSDACSB2296:
	.uleb128 .LEHB7-.LFB2296
	.uleb128 .LEHE7-.LEHB7
	.uleb128 .L64-.LFB2296
	.uleb128 0
	.uleb128 .LEHB8-.LFB2296
	.uleb128 .LEHE8-.LEHB8
	.uleb128 .L65-.LFB2296
	.uleb128 0
	.uleb128 .LEHB9-.LFB2296
	.uleb128 .LEHE9-.LEHB9
	.uleb128 .L66-.LFB2296
	.uleb128 0
	.uleb128 .LEHB10-.LFB2296
	.uleb128 .LEHE10-.LEHB10
	.uleb128 0
	.uleb128 0
.LLSDACSE2296:
	.text
	.size	main, .-main
	.section	.rodata
	.align	3
.LC0:
	.word	1
	.word	2
	.word	3
	.text
	.section	.text._ZNSt12_Vector_baseISt6vectorIiSaIiEESaIS2_EE12_Vector_implC2Ev,"axG",@progbits,_ZNSt12_Vector_baseISt6vectorIiSaIiEESaIS2_EE12_Vector_implC5Ev,comdat
	.align	2
	.weak	_ZNSt12_Vector_baseISt6vectorIiSaIiEESaIS2_EE12_Vector_implC2Ev
	.type	_ZNSt12_Vector_baseISt6vectorIiSaIiEESaIS2_EE12_Vector_implC2Ev, %function
_ZNSt12_Vector_baseISt6vectorIiSaIiEESaIS2_EE12_Vector_implC2Ev:
.LFB2558:
	.cfi_startproc
	stp	x29, x30, [sp, -32]!
	.cfi_def_cfa_offset 32
	.cfi_offset 29, -32
	.cfi_offset 30, -24
	mov	x29, sp
	str	x0, [sp, 24]
	ldr	x0, [sp, 24]
	bl	_ZNSaISt6vectorIiSaIiEEEC2Ev
	ldr	x0, [sp, 24]
	bl	_ZNSt12_Vector_baseISt6vectorIiSaIiEESaIS2_EE17_Vector_impl_dataC2Ev
	nop
	ldp	x29, x30, [sp], 32
	.cfi_restore 30
	.cfi_restore 29
	.cfi_def_cfa_offset 0
	ret
	.cfi_endproc
.LFE2558:
	.size	_ZNSt12_Vector_baseISt6vectorIiSaIiEESaIS2_EE12_Vector_implC2Ev, .-_ZNSt12_Vector_baseISt6vectorIiSaIiEESaIS2_EE12_Vector_implC2Ev
	.weak	_ZNSt12_Vector_baseISt6vectorIiSaIiEESaIS2_EE12_Vector_implC1Ev
	.set	_ZNSt12_Vector_baseISt6vectorIiSaIiEESaIS2_EE12_Vector_implC1Ev,_ZNSt12_Vector_baseISt6vectorIiSaIiEESaIS2_EE12_Vector_implC2Ev
	.section	.text._ZNSaISt6vectorIiSaIiEEED2Ev,"axG",@progbits,_ZNSaISt6vectorIiSaIiEEED5Ev,comdat
	.align	2
	.weak	_ZNSaISt6vectorIiSaIiEEED2Ev
	.type	_ZNSaISt6vectorIiSaIiEEED2Ev, %function
_ZNSaISt6vectorIiSaIiEEED2Ev:
.LFB2561:
	.cfi_startproc
	stp	x29, x30, [sp, -32]!
	.cfi_def_cfa_offset 32
	.cfi_offset 29, -32
	.cfi_offset 30, -24
	mov	x29, sp
	str	x0, [sp, 24]
	ldr	x0, [sp, 24]
	bl	_ZN9__gnu_cxx13new_allocatorISt6vectorIiSaIiEEED2Ev
	nop
	ldp	x29, x30, [sp], 32
	.cfi_restore 30
	.cfi_restore 29
	.cfi_def_cfa_offset 0
	ret
	.cfi_endproc
.LFE2561:
	.size	_ZNSaISt6vectorIiSaIiEEED2Ev, .-_ZNSaISt6vectorIiSaIiEEED2Ev
	.weak	_ZNSaISt6vectorIiSaIiEEED1Ev
	.set	_ZNSaISt6vectorIiSaIiEEED1Ev,_ZNSaISt6vectorIiSaIiEEED2Ev
	.section	.text._ZNSt12_Vector_baseISt6vectorIiSaIiEESaIS2_EED2Ev,"axG",@progbits,_ZNSt12_Vector_baseISt6vectorIiSaIiEESaIS2_EED5Ev,comdat
	.align	2
	.weak	_ZNSt12_Vector_baseISt6vectorIiSaIiEESaIS2_EED2Ev
	.type	_ZNSt12_Vector_baseISt6vectorIiSaIiEESaIS2_EED2Ev, %function
_ZNSt12_Vector_baseISt6vectorIiSaIiEESaIS2_EED2Ev:
.LFB2564:
	.cfi_startproc
	.cfi_personality 0x9b,DW.ref.__gxx_personality_v0
	.cfi_lsda 0x1b,.LLSDA2564
	stp	x29, x30, [sp, -32]!
	.cfi_def_cfa_offset 32
	.cfi_offset 29, -32
	.cfi_offset 30, -24
	mov	x29, sp
	str	x0, [sp, 24]
	ldr	x0, [sp, 24]
	ldr	x3, [x0]
	ldr	x0, [sp, 24]
	ldr	x1, [x0, 16]
	ldr	x0, [sp, 24]
	ldr	x0, [x0]
	sub	x0, x1, x0
	asr	x1, x0, 3
	mov	x0, -6148914691236517206
	movk	x0, 0xaaab, lsl 0
	mul	x0, x1, x0
	mov	x2, x0
	mov	x1, x3
	ldr	x0, [sp, 24]
	bl	_ZNSt12_Vector_baseISt6vectorIiSaIiEESaIS2_EE13_M_deallocateEPS2_m
	ldr	x0, [sp, 24]
	bl	_ZNSt12_Vector_baseISt6vectorIiSaIiEESaIS2_EE12_Vector_implD1Ev
	nop
	ldp	x29, x30, [sp], 32
	.cfi_restore 30
	.cfi_restore 29
	.cfi_def_cfa_offset 0
	ret
	.cfi_endproc
.LFE2564:
	.section	.gcc_except_table
.LLSDA2564:
	.byte	0xff
	.byte	0xff
	.byte	0x1
	.uleb128 .LLSDACSE2564-.LLSDACSB2564
.LLSDACSB2564:
.LLSDACSE2564:
	.section	.text._ZNSt12_Vector_baseISt6vectorIiSaIiEESaIS2_EED2Ev,"axG",@progbits,_ZNSt12_Vector_baseISt6vectorIiSaIiEESaIS2_EED5Ev,comdat
	.size	_ZNSt12_Vector_baseISt6vectorIiSaIiEESaIS2_EED2Ev, .-_ZNSt12_Vector_baseISt6vectorIiSaIiEESaIS2_EED2Ev
	.weak	_ZNSt12_Vector_baseISt6vectorIiSaIiEESaIS2_EED1Ev
	.set	_ZNSt12_Vector_baseISt6vectorIiSaIiEESaIS2_EED1Ev,_ZNSt12_Vector_baseISt6vectorIiSaIiEESaIS2_EED2Ev
	.section	.text._ZNSt6vectorIS_IiSaIiEESaIS1_EED2Ev,"axG",@progbits,_ZNSt6vectorIS_IiSaIiEESaIS1_EED5Ev,comdat
	.align	2
	.weak	_ZNSt6vectorIS_IiSaIiEESaIS1_EED2Ev
	.type	_ZNSt6vectorIS_IiSaIiEESaIS1_EED2Ev, %function
_ZNSt6vectorIS_IiSaIiEESaIS1_EED2Ev:
.LFB2567:
	.cfi_startproc
	.cfi_personality 0x9b,DW.ref.__gxx_personality_v0
	.cfi_lsda 0x1b,.LLSDA2567
	stp	x29, x30, [sp, -48]!
	.cfi_def_cfa_offset 48
	.cfi_offset 29, -48
	.cfi_offset 30, -40
	mov	x29, sp
	stp	x19, x20, [sp, 16]
	.cfi_offset 19, -32
	.cfi_offset 20, -24
	str	x0, [sp, 40]
	ldr	x0, [sp, 40]
	ldr	x19, [x0]
	ldr	x0, [sp, 40]
	ldr	x20, [x0, 8]
	ldr	x0, [sp, 40]
	bl	_ZNSt12_Vector_baseISt6vectorIiSaIiEESaIS2_EE19_M_get_Tp_allocatorEv
	mov	x2, x0
	mov	x1, x20
	mov	x0, x19
	bl	_ZSt8_DestroyIPSt6vectorIiSaIiEES2_EvT_S4_RSaIT0_E
	ldr	x0, [sp, 40]
	bl	_ZNSt12_Vector_baseISt6vectorIiSaIiEESaIS2_EED2Ev
	nop
	ldp	x19, x20, [sp, 16]
	ldp	x29, x30, [sp], 48
	.cfi_restore 30
	.cfi_restore 29
	.cfi_restore 19
	.cfi_restore 20
	.cfi_def_cfa_offset 0
	ret
	.cfi_endproc
.LFE2567:
	.section	.gcc_except_table
.LLSDA2567:
	.byte	0xff
	.byte	0xff
	.byte	0x1
	.uleb128 .LLSDACSE2567-.LLSDACSB2567
.LLSDACSB2567:
.LLSDACSE2567:
	.section	.text._ZNSt6vectorIS_IiSaIiEESaIS1_EED2Ev,"axG",@progbits,_ZNSt6vectorIS_IiSaIiEESaIS1_EED5Ev,comdat
	.size	_ZNSt6vectorIS_IiSaIiEESaIS1_EED2Ev, .-_ZNSt6vectorIS_IiSaIiEESaIS1_EED2Ev
	.weak	_ZNSt6vectorIS_IiSaIiEESaIS1_EED1Ev
	.set	_ZNSt6vectorIS_IiSaIiEESaIS1_EED1Ev,_ZNSt6vectorIS_IiSaIiEESaIS1_EED2Ev
	.section	.text._ZNKSt6vectorIiSaIiEE5emptyEv,"axG",@progbits,_ZNKSt6vectorIiSaIiEE5emptyEv,comdat
	.align	2
	.weak	_ZNKSt6vectorIiSaIiEE5emptyEv
	.type	_ZNKSt6vectorIiSaIiEE5emptyEv, %function
_ZNKSt6vectorIiSaIiEE5emptyEv:
.LFB2569:
	.cfi_startproc
	stp	x29, x30, [sp, -64]!
	.cfi_def_cfa_offset 64
	.cfi_offset 29, -64
	.cfi_offset 30, -56
	mov	x29, sp
	str	x0, [sp, 24]
	adrp	x0, :got:__stack_chk_guard
	ldr	x0, [x0, #:got_lo12:__stack_chk_guard]
	ldr	x1, [x0]
	str	x1, [sp, 56]
	mov	x1, 0
	ldr	x0, [sp, 24]
	bl	_ZNKSt6vectorIiSaIiEE5beginEv
	str	x0, [sp, 40]
	ldr	x0, [sp, 24]
	bl	_ZNKSt6vectorIiSaIiEE3endEv
	str	x0, [sp, 48]
	add	x1, sp, 48
	add	x0, sp, 40
	bl	_ZN9__gnu_cxxeqIPKiSt6vectorIiSaIiEEEEbRKNS_17__normal_iteratorIT_T0_EESB_
	and	w0, w0, 255
	mov	w1, w0
	adrp	x0, :got:__stack_chk_guard
	ldr	x0, [x0, #:got_lo12:__stack_chk_guard]
	ldr	x3, [sp, 56]
	ldr	x2, [x0]
	subs	x3, x3, x2
	mov	x2, 0
	beq	.L74
	bl	__stack_chk_fail
.L74:
	mov	w0, w1
	ldp	x29, x30, [sp], 64
	.cfi_restore 30
	.cfi_restore 29
	.cfi_def_cfa_offset 0
	ret
	.cfi_endproc
.LFE2569:
	.size	_ZNKSt6vectorIiSaIiEE5emptyEv, .-_ZNKSt6vectorIiSaIiEE5emptyEv
	.section	.text._ZNKSt6vectorIiSaIiEE4sizeEv,"axG",@progbits,_ZNKSt6vectorIiSaIiEE4sizeEv,comdat
	.align	2
	.weak	_ZNKSt6vectorIiSaIiEE4sizeEv
	.type	_ZNKSt6vectorIiSaIiEE4sizeEv, %function
_ZNKSt6vectorIiSaIiEE4sizeEv:
.LFB2573:
	.cfi_startproc
	sub	sp, sp, #16
	.cfi_def_cfa_offset 16
	str	x0, [sp, 8]
	ldr	x0, [sp, 8]
	ldr	x1, [x0, 8]
	ldr	x0, [sp, 8]
	ldr	x0, [x0]
	sub	x0, x1, x0
	asr	x0, x0, 2
	add	sp, sp, 16
	.cfi_def_cfa_offset 0
	ret
	.cfi_endproc
.LFE2573:
	.size	_ZNKSt6vectorIiSaIiEE4sizeEv, .-_ZNKSt6vectorIiSaIiEE4sizeEv
	.section	.text._ZNSaIbEC2Ev,"axG",@progbits,_ZNSaIbEC5Ev,comdat
	.align	2
	.weak	_ZNSaIbEC2Ev
	.type	_ZNSaIbEC2Ev, %function
_ZNSaIbEC2Ev:
.LFB2575:
	.cfi_startproc
	stp	x29, x30, [sp, -32]!
	.cfi_def_cfa_offset 32
	.cfi_offset 29, -32
	.cfi_offset 30, -24
	mov	x29, sp
	str	x0, [sp, 24]
	ldr	x0, [sp, 24]
	bl	_ZN9__gnu_cxx13new_allocatorIbEC2Ev
	nop
	ldp	x29, x30, [sp], 32
	.cfi_restore 30
	.cfi_restore 29
	.cfi_def_cfa_offset 0
	ret
	.cfi_endproc
.LFE2575:
	.size	_ZNSaIbEC2Ev, .-_ZNSaIbEC2Ev
	.weak	_ZNSaIbEC1Ev
	.set	_ZNSaIbEC1Ev,_ZNSaIbEC2Ev
	.section	.text._ZNSaIbED2Ev,"axG",@progbits,_ZNSaIbED5Ev,comdat
	.align	2
	.weak	_ZNSaIbED2Ev
	.type	_ZNSaIbED2Ev, %function
_ZNSaIbED2Ev:
.LFB2578:
	.cfi_startproc
	stp	x29, x30, [sp, -32]!
	.cfi_def_cfa_offset 32
	.cfi_offset 29, -32
	.cfi_offset 30, -24
	mov	x29, sp
	str	x0, [sp, 24]
	ldr	x0, [sp, 24]
	bl	_ZN9__gnu_cxx13new_allocatorIbED2Ev
	nop
	ldp	x29, x30, [sp], 32
	.cfi_restore 30
	.cfi_restore 29
	.cfi_def_cfa_offset 0
	ret
	.cfi_endproc
.LFE2578:
	.size	_ZNSaIbED2Ev, .-_ZNSaIbED2Ev
	.weak	_ZNSaIbED1Ev
	.set	_ZNSaIbED1Ev,_ZNSaIbED2Ev
	.section	.text._ZNSt6vectorIbSaIbEEC2EmRKS0_,"axG",@progbits,_ZNSt6vectorIbSaIbEEC5EmRKS0_,comdat
	.align	2
	.weak	_ZNSt6vectorIbSaIbEEC2EmRKS0_
	.type	_ZNSt6vectorIbSaIbEEC2EmRKS0_, %function
_ZNSt6vectorIbSaIbEEC2EmRKS0_:
.LFB2581:
	.cfi_startproc
	stp	x29, x30, [sp, -64]!
	.cfi_def_cfa_offset 64
	.cfi_offset 29, -64
	.cfi_offset 30, -56
	mov	x29, sp
	str	x0, [sp, 40]
	str	x1, [sp, 32]
	str	x2, [sp, 24]
	adrp	x0, :got:__stack_chk_guard
	ldr	x0, [x0, #:got_lo12:__stack_chk_guard]
	ldr	x1, [x0]
	str	x1, [sp, 56]
	mov	x1, 0
	strb	wzr, [sp, 55]
	add	x0, sp, 55
	ldr	x3, [sp, 24]
	mov	x2, x0
	ldr	x1, [sp, 32]
	ldr	x0, [sp, 40]
	bl	_ZNSt6vectorIbSaIbEEC1EmRKbRKS0_
	nop
	adrp	x0, :got:__stack_chk_guard
	ldr	x0, [x0, #:got_lo12:__stack_chk_guard]
	ldr	x2, [sp, 56]
	ldr	x1, [x0]
	subs	x2, x2, x1
	mov	x1, 0
	beq	.L80
	bl	__stack_chk_fail
.L80:
	ldp	x29, x30, [sp], 64
	.cfi_restore 30
	.cfi_restore 29
	.cfi_def_cfa_offset 0
	ret
	.cfi_endproc
.LFE2581:
	.size	_ZNSt6vectorIbSaIbEEC2EmRKS0_, .-_ZNSt6vectorIbSaIbEEC2EmRKS0_
	.weak	_ZNSt6vectorIbSaIbEEC1EmRKS0_
	.set	_ZNSt6vectorIbSaIbEEC1EmRKS0_,_ZNSt6vectorIbSaIbEEC2EmRKS0_
	.section	.text._ZNSt6vectorIbSaIbEED2Ev,"axG",@progbits,_ZNSt6vectorIbSaIbEED5Ev,comdat
	.align	2
	.weak	_ZNSt6vectorIbSaIbEED2Ev
	.type	_ZNSt6vectorIbSaIbEED2Ev, %function
_ZNSt6vectorIbSaIbEED2Ev:
.LFB2584:
	.cfi_startproc
	stp	x29, x30, [sp, -32]!
	.cfi_def_cfa_offset 32
	.cfi_offset 29, -32
	.cfi_offset 30, -24
	mov	x29, sp
	str	x0, [sp, 24]
	ldr	x0, [sp, 24]
	bl	_ZNSt13_Bvector_baseISaIbEED2Ev
	nop
	ldp	x29, x30, [sp], 32
	.cfi_restore 30
	.cfi_restore 29
	.cfi_def_cfa_offset 0
	ret
	.cfi_endproc
.LFE2584:
	.size	_ZNSt6vectorIbSaIbEED2Ev, .-_ZNSt6vectorIbSaIbEED2Ev
	.weak	_ZNSt6vectorIbSaIbEED1Ev
	.set	_ZNSt6vectorIbSaIbEED1Ev,_ZNSt6vectorIbSaIbEED2Ev
	.section	.text._ZNSt11_Deque_baseIiSaIiEE11_Deque_implD2Ev,"axG",@progbits,_ZNSt11_Deque_baseIiSaIiEE11_Deque_implD5Ev,comdat
	.align	2
	.weak	_ZNSt11_Deque_baseIiSaIiEE11_Deque_implD2Ev
	.type	_ZNSt11_Deque_baseIiSaIiEE11_Deque_implD2Ev, %function
_ZNSt11_Deque_baseIiSaIiEE11_Deque_implD2Ev:
.LFB2589:
	.cfi_startproc
	stp	x29, x30, [sp, -32]!
	.cfi_def_cfa_offset 32
	.cfi_offset 29, -32
	.cfi_offset 30, -24
	mov	x29, sp
	str	x0, [sp, 24]
	ldr	x0, [sp, 24]
	bl	_ZNSaIiED2Ev
	nop
	ldp	x29, x30, [sp], 32
	.cfi_restore 30
	.cfi_restore 29
	.cfi_def_cfa_offset 0
	ret
	.cfi_endproc
.LFE2589:
	.size	_ZNSt11_Deque_baseIiSaIiEE11_Deque_implD2Ev, .-_ZNSt11_Deque_baseIiSaIiEE11_Deque_implD2Ev
	.weak	_ZNSt11_Deque_baseIiSaIiEE11_Deque_implD1Ev
	.set	_ZNSt11_Deque_baseIiSaIiEE11_Deque_implD1Ev,_ZNSt11_Deque_baseIiSaIiEE11_Deque_implD2Ev
	.section	.text._ZNSt11_Deque_baseIiSaIiEEC2Ev,"axG",@progbits,_ZNSt11_Deque_baseIiSaIiEEC5Ev,comdat
	.align	2
	.weak	_ZNSt11_Deque_baseIiSaIiEEC2Ev
	.type	_ZNSt11_Deque_baseIiSaIiEEC2Ev, %function
_ZNSt11_Deque_baseIiSaIiEEC2Ev:
.LFB2591:
	.cfi_startproc
	.cfi_personality 0x9b,DW.ref.__gxx_personality_v0
	.cfi_lsda 0x1b,.LLSDA2591
	stp	x29, x30, [sp, -48]!
	.cfi_def_cfa_offset 48
	.cfi_offset 29, -48
	.cfi_offset 30, -40
	mov	x29, sp
	str	x19, [sp, 16]
	.cfi_offset 19, -32
	str	x0, [sp, 40]
	ldr	x0, [sp, 40]
	bl	_ZNSt11_Deque_baseIiSaIiEE11_Deque_implC1Ev
	mov	x1, 0
	ldr	x0, [sp, 40]
.LEHB11:
	bl	_ZNSt11_Deque_baseIiSaIiEE17_M_initialize_mapEm
.LEHE11:
	b	.L86
.L85:
	mov	x19, x0
	ldr	x0, [sp, 40]
	bl	_ZNSt11_Deque_baseIiSaIiEE11_Deque_implD1Ev
	mov	x0, x19
.LEHB12:
	bl	_Unwind_Resume
.LEHE12:
.L86:
	ldr	x19, [sp, 16]
	ldp	x29, x30, [sp], 48
	.cfi_restore 30
	.cfi_restore 29
	.cfi_restore 19
	.cfi_def_cfa_offset 0
	ret
	.cfi_endproc
.LFE2591:
	.section	.gcc_except_table
.LLSDA2591:
	.byte	0xff
	.byte	0xff
	.byte	0x1
	.uleb128 .LLSDACSE2591-.LLSDACSB2591
.LLSDACSB2591:
	.uleb128 .LEHB11-.LFB2591
	.uleb128 .LEHE11-.LEHB11
	.uleb128 .L85-.LFB2591
	.uleb128 0
	.uleb128 .LEHB12-.LFB2591
	.uleb128 .LEHE12-.LEHB12
	.uleb128 0
	.uleb128 0
.LLSDACSE2591:
	.section	.text._ZNSt11_Deque_baseIiSaIiEEC2Ev,"axG",@progbits,_ZNSt11_Deque_baseIiSaIiEEC5Ev,comdat
	.size	_ZNSt11_Deque_baseIiSaIiEEC2Ev, .-_ZNSt11_Deque_baseIiSaIiEEC2Ev
	.weak	_ZNSt11_Deque_baseIiSaIiEEC1Ev
	.set	_ZNSt11_Deque_baseIiSaIiEEC1Ev,_ZNSt11_Deque_baseIiSaIiEEC2Ev
	.section	.text._ZNSt11_Deque_baseIiSaIiEED2Ev,"axG",@progbits,_ZNSt11_Deque_baseIiSaIiEED5Ev,comdat
	.align	2
	.weak	_ZNSt11_Deque_baseIiSaIiEED2Ev
	.type	_ZNSt11_Deque_baseIiSaIiEED2Ev, %function
_ZNSt11_Deque_baseIiSaIiEED2Ev:
.LFB2594:
	.cfi_startproc
	stp	x29, x30, [sp, -32]!
	.cfi_def_cfa_offset 32
	.cfi_offset 29, -32
	.cfi_offset 30, -24
	mov	x29, sp
	str	x0, [sp, 24]
	ldr	x0, [sp, 24]
	ldr	x0, [x0]
	cmp	x0, 0
	beq	.L88
	ldr	x0, [sp, 24]
	ldr	x1, [x0, 40]
	ldr	x0, [sp, 24]
	ldr	x0, [x0, 72]
	add	x0, x0, 8
	mov	x2, x0
	ldr	x0, [sp, 24]
	bl	_ZNSt11_Deque_baseIiSaIiEE16_M_destroy_nodesEPPiS3_
	ldr	x0, [sp, 24]
	ldr	x1, [x0]
	ldr	x0, [sp, 24]
	ldr	x0, [x0, 8]
	mov	x2, x0
	ldr	x0, [sp, 24]
	bl	_ZNSt11_Deque_baseIiSaIiEE17_M_deallocate_mapEPPim
.L88:
	ldr	x0, [sp, 24]
	bl	_ZNSt11_Deque_baseIiSaIiEE11_Deque_implD1Ev
	nop
	ldp	x29, x30, [sp], 32
	.cfi_restore 30
	.cfi_restore 29
	.cfi_def_cfa_offset 0
	ret
	.cfi_endproc
.LFE2594:
	.size	_ZNSt11_Deque_baseIiSaIiEED2Ev, .-_ZNSt11_Deque_baseIiSaIiEED2Ev
	.weak	_ZNSt11_Deque_baseIiSaIiEED1Ev
	.set	_ZNSt11_Deque_baseIiSaIiEED1Ev,_ZNSt11_Deque_baseIiSaIiEED2Ev
	.section	.text._ZNSt5dequeIiSaIiEED2Ev,"axG",@progbits,_ZNSt5dequeIiSaIiEED5Ev,comdat
	.align	2
	.weak	_ZNSt5dequeIiSaIiEED2Ev
	.type	_ZNSt5dequeIiSaIiEED2Ev, %function
_ZNSt5dequeIiSaIiEED2Ev:
.LFB2597:
	.cfi_startproc
	.cfi_personality 0x9b,DW.ref.__gxx_personality_v0
	.cfi_lsda 0x1b,.LLSDA2597
	stp	x29, x30, [sp, -112]!
	.cfi_def_cfa_offset 112
	.cfi_offset 29, -112
	.cfi_offset 30, -104
	mov	x29, sp
	str	x0, [sp, 24]
	adrp	x0, :got:__stack_chk_guard
	ldr	x0, [x0, #:got_lo12:__stack_chk_guard]
	ldr	x1, [x0]
	str	x1, [sp, 104]
	mov	x1, 0
	add	x0, sp, 40
	mov	x8, x0
	ldr	x0, [sp, 24]
	bl	_ZNSt5dequeIiSaIiEE5beginEv
	add	x0, sp, 72
	mov	x8, x0
	ldr	x0, [sp, 24]
	bl	_ZNSt5dequeIiSaIiEE3endEv
	ldr	x0, [sp, 24]
	bl	_ZNSt11_Deque_baseIiSaIiEE19_M_get_Tp_allocatorEv
	mov	x2, x0
	add	x1, sp, 72
	add	x0, sp, 40
	mov	x3, x2
	mov	x2, x1
	mov	x1, x0
	ldr	x0, [sp, 24]
	bl	_ZNSt5dequeIiSaIiEE15_M_destroy_dataESt15_Deque_iteratorIiRiPiES5_RKS0_
	ldr	x0, [sp, 24]
	bl	_ZNSt11_Deque_baseIiSaIiEED2Ev
	nop
	adrp	x0, :got:__stack_chk_guard
	ldr	x0, [x0, #:got_lo12:__stack_chk_guard]
	ldr	x2, [sp, 104]
	ldr	x1, [x0]
	subs	x2, x2, x1
	mov	x1, 0
	beq	.L90
	bl	__stack_chk_fail
.L90:
	ldp	x29, x30, [sp], 112
	.cfi_restore 30
	.cfi_restore 29
	.cfi_def_cfa_offset 0
	ret
	.cfi_endproc
.LFE2597:
	.section	.gcc_except_table
.LLSDA2597:
	.byte	0xff
	.byte	0xff
	.byte	0x1
	.uleb128 .LLSDACSE2597-.LLSDACSB2597
.LLSDACSB2597:
.LLSDACSE2597:
	.section	.text._ZNSt5dequeIiSaIiEED2Ev,"axG",@progbits,_ZNSt5dequeIiSaIiEED5Ev,comdat
	.size	_ZNSt5dequeIiSaIiEED2Ev, .-_ZNSt5dequeIiSaIiEED2Ev
	.weak	_ZNSt5dequeIiSaIiEED1Ev
	.set	_ZNSt5dequeIiSaIiEED1Ev,_ZNSt5dequeIiSaIiEED2Ev
	.section	.text._ZNSt5dequeIiSaIiEE5beginEv,"axG",@progbits,_ZNSt5dequeIiSaIiEE5beginEv,comdat
	.align	2
	.weak	_ZNSt5dequeIiSaIiEE5beginEv
	.type	_ZNSt5dequeIiSaIiEE5beginEv, %function
_ZNSt5dequeIiSaIiEE5beginEv:
.LFB2599:
	.cfi_startproc
	stp	x29, x30, [sp, -48]!
	.cfi_def_cfa_offset 48
	.cfi_offset 29, -48
	.cfi_offset 30, -40
	mov	x29, sp
	str	x19, [sp, 16]
	.cfi_offset 19, -32
	mov	x19, x8
	str	x0, [sp, 40]
	ldr	x0, [sp, 40]
	add	x0, x0, 16
	mov	x1, x0
	mov	x0, x19
	bl	_ZNSt15_Deque_iteratorIiRiPiEC1ERKS2_
	mov	x0, x19
	ldr	x19, [sp, 16]
	ldp	x29, x30, [sp], 48
	.cfi_restore 30
	.cfi_restore 29
	.cfi_restore 19
	.cfi_def_cfa_offset 0
	ret
	.cfi_endproc
.LFE2599:
	.size	_ZNSt5dequeIiSaIiEE5beginEv, .-_ZNSt5dequeIiSaIiEE5beginEv
	.section	.text._ZNSt5dequeIiSaIiEE3endEv,"axG",@progbits,_ZNSt5dequeIiSaIiEE3endEv,comdat
	.align	2
	.weak	_ZNSt5dequeIiSaIiEE3endEv
	.type	_ZNSt5dequeIiSaIiEE3endEv, %function
_ZNSt5dequeIiSaIiEE3endEv:
.LFB2600:
	.cfi_startproc
	stp	x29, x30, [sp, -48]!
	.cfi_def_cfa_offset 48
	.cfi_offset 29, -48
	.cfi_offset 30, -40
	mov	x29, sp
	str	x19, [sp, 16]
	.cfi_offset 19, -32
	mov	x19, x8
	str	x0, [sp, 40]
	ldr	x0, [sp, 40]
	add	x0, x0, 48
	mov	x1, x0
	mov	x0, x19
	bl	_ZNSt15_Deque_iteratorIiRiPiEC1ERKS2_
	mov	x0, x19
	ldr	x19, [sp, 16]
	ldp	x29, x30, [sp], 48
	.cfi_restore 30
	.cfi_restore 29
	.cfi_restore 19
	.cfi_def_cfa_offset 0
	ret
	.cfi_endproc
.LFE2600:
	.size	_ZNSt5dequeIiSaIiEE3endEv, .-_ZNSt5dequeIiSaIiEE3endEv
	.section	.text._ZNSaIiEC2Ev,"axG",@progbits,_ZNSaIiEC5Ev,comdat
	.align	2
	.weak	_ZNSaIiEC2Ev
	.type	_ZNSaIiEC2Ev, %function
_ZNSaIiEC2Ev:
.LFB2602:
	.cfi_startproc
	stp	x29, x30, [sp, -32]!
	.cfi_def_cfa_offset 32
	.cfi_offset 29, -32
	.cfi_offset 30, -24
	mov	x29, sp
	str	x0, [sp, 24]
	ldr	x0, [sp, 24]
	bl	_ZN9__gnu_cxx13new_allocatorIiEC2Ev
	nop
	ldp	x29, x30, [sp], 32
	.cfi_restore 30
	.cfi_restore 29
	.cfi_def_cfa_offset 0
	ret
	.cfi_endproc
.LFE2602:
	.size	_ZNSaIiEC2Ev, .-_ZNSaIiEC2Ev
	.weak	_ZNSaIiEC1Ev
	.set	_ZNSaIiEC1Ev,_ZNSaIiEC2Ev
	.section	.text._ZNSaIiED2Ev,"axG",@progbits,_ZNSaIiED5Ev,comdat
	.align	2
	.weak	_ZNSaIiED2Ev
	.type	_ZNSaIiED2Ev, %function
_ZNSaIiED2Ev:
.LFB2605:
	.cfi_startproc
	stp	x29, x30, [sp, -32]!
	.cfi_def_cfa_offset 32
	.cfi_offset 29, -32
	.cfi_offset 30, -24
	mov	x29, sp
	str	x0, [sp, 24]
	ldr	x0, [sp, 24]
	bl	_ZN9__gnu_cxx13new_allocatorIiED2Ev
	nop
	ldp	x29, x30, [sp], 32
	.cfi_restore 30
	.cfi_restore 29
	.cfi_def_cfa_offset 0
	ret
	.cfi_endproc
.LFE2605:
	.size	_ZNSaIiED2Ev, .-_ZNSaIiED2Ev
	.weak	_ZNSaIiED1Ev
	.set	_ZNSaIiED1Ev,_ZNSaIiED2Ev
	.section	.text._ZNSt6vectorIiSaIiEEC2ISt15_Deque_iteratorIiRiPiEvEET_S7_RKS0_,"axG",@progbits,_ZNSt6vectorIiSaIiEEC5ISt15_Deque_iteratorIiRiPiEvEET_S7_RKS0_,comdat
	.align	2
	.weak	_ZNSt6vectorIiSaIiEEC2ISt15_Deque_iteratorIiRiPiEvEET_S7_RKS0_
	.type	_ZNSt6vectorIiSaIiEEC2ISt15_Deque_iteratorIiRiPiEvEET_S7_RKS0_, %function
_ZNSt6vectorIiSaIiEEC2ISt15_Deque_iteratorIiRiPiEvEET_S7_RKS0_:
.LFB2608:
	.cfi_startproc
	.cfi_personality 0x9b,DW.ref.__gxx_personality_v0
	.cfi_lsda 0x1b,.LLSDA2608
	stp	x29, x30, [sp, -144]!
	.cfi_def_cfa_offset 144
	.cfi_offset 29, -144
	.cfi_offset 30, -136
	mov	x29, sp
	str	x19, [sp, 16]
	.cfi_offset 19, -128
	str	x0, [sp, 56]
	str	x1, [sp, 48]
	str	x2, [sp, 40]
	str	x3, [sp, 32]
	adrp	x0, :got:__stack_chk_guard
	ldr	x0, [x0, #:got_lo12:__stack_chk_guard]
	ldr	x1, [x0]
	str	x1, [sp, 136]
	mov	x1, 0
	ldr	x0, [sp, 56]
	ldr	x1, [sp, 32]
	bl	_ZNSt12_Vector_baseIiSaIiEEC2ERKS0_
	add	x0, sp, 72
	ldr	x1, [sp, 48]
	bl	_ZNSt15_Deque_iteratorIiRiPiEC1ERKS2_
	add	x0, sp, 104
	ldr	x1, [sp, 40]
	bl	_ZNSt15_Deque_iteratorIiRiPiEC1ERKS2_
	ldr	x0, [sp, 48]
	bl	_ZSt19__iterator_categoryISt15_Deque_iteratorIiRiPiEENSt15iterator_traitsIT_E17iterator_categoryERKS5_
	add	x1, sp, 104
	add	x0, sp, 72
	mov	w3, w19
	mov	x2, x1
	mov	x1, x0
	ldr	x0, [sp, 56]
.LEHB13:
	bl	_ZNSt6vectorIiSaIiEE19_M_range_initializeISt15_Deque_iteratorIiRiPiEEEvT_S7_St20forward_iterator_tag
.LEHE13:
	b	.L101
.L100:
	mov	x19, x0
	ldr	x0, [sp, 56]
	bl	_ZNSt12_Vector_baseIiSaIiEED2Ev
	mov	x0, x19
.LEHB14:
	bl	_Unwind_Resume
.LEHE14:
.L101:
	adrp	x0, :got:__stack_chk_guard
	ldr	x0, [x0, #:got_lo12:__stack_chk_guard]
	ldr	x2, [sp, 136]
	ldr	x1, [x0]
	subs	x2, x2, x1
	mov	x1, 0
	beq	.L99
	bl	__stack_chk_fail
.L99:
	ldr	x19, [sp, 16]
	ldp	x29, x30, [sp], 144
	.cfi_restore 30
	.cfi_restore 29
	.cfi_restore 19
	.cfi_def_cfa_offset 0
	ret
	.cfi_endproc
.LFE2608:
	.section	.gcc_except_table
.LLSDA2608:
	.byte	0xff
	.byte	0xff
	.byte	0x1
	.uleb128 .LLSDACSE2608-.LLSDACSB2608
.LLSDACSB2608:
	.uleb128 .LEHB13-.LFB2608
	.uleb128 .LEHE13-.LEHB13
	.uleb128 .L100-.LFB2608
	.uleb128 0
	.uleb128 .LEHB14-.LFB2608
	.uleb128 .LEHE14-.LEHB14
	.uleb128 0
	.uleb128 0
.LLSDACSE2608:
	.section	.text._ZNSt6vectorIiSaIiEEC2ISt15_Deque_iteratorIiRiPiEvEET_S7_RKS0_,"axG",@progbits,_ZNSt6vectorIiSaIiEEC5ISt15_Deque_iteratorIiRiPiEvEET_S7_RKS0_,comdat
	.size	_ZNSt6vectorIiSaIiEEC2ISt15_Deque_iteratorIiRiPiEvEET_S7_RKS0_, .-_ZNSt6vectorIiSaIiEEC2ISt15_Deque_iteratorIiRiPiEvEET_S7_RKS0_
	.weak	_ZNSt6vectorIiSaIiEEC1ISt15_Deque_iteratorIiRiPiEvEET_S7_RKS0_
	.set	_ZNSt6vectorIiSaIiEEC1ISt15_Deque_iteratorIiRiPiEvEET_S7_RKS0_,_ZNSt6vectorIiSaIiEEC2ISt15_Deque_iteratorIiRiPiEvEET_S7_RKS0_
	.section	.text._ZNSt6vectorIiSaIiEED2Ev,"axG",@progbits,_ZNSt6vectorIiSaIiEED5Ev,comdat
	.align	2
	.weak	_ZNSt6vectorIiSaIiEED2Ev
	.type	_ZNSt6vectorIiSaIiEED2Ev, %function
_ZNSt6vectorIiSaIiEED2Ev:
.LFB2611:
	.cfi_startproc
	.cfi_personality 0x9b,DW.ref.__gxx_personality_v0
	.cfi_lsda 0x1b,.LLSDA2611
	stp	x29, x30, [sp, -48]!
	.cfi_def_cfa_offset 48
	.cfi_offset 29, -48
	.cfi_offset 30, -40
	mov	x29, sp
	stp	x19, x20, [sp, 16]
	.cfi_offset 19, -32
	.cfi_offset 20, -24
	str	x0, [sp, 40]
	ldr	x0, [sp, 40]
	ldr	x19, [x0]
	ldr	x0, [sp, 40]
	ldr	x20, [x0, 8]
	ldr	x0, [sp, 40]
	bl	_ZNSt12_Vector_baseIiSaIiEE19_M_get_Tp_allocatorEv
	mov	x2, x0
	mov	x1, x20
	mov	x0, x19
	bl	_ZSt8_DestroyIPiiEvT_S1_RSaIT0_E
	ldr	x0, [sp, 40]
	bl	_ZNSt12_Vector_baseIiSaIiEED2Ev
	nop
	ldp	x19, x20, [sp, 16]
	ldp	x29, x30, [sp], 48
	.cfi_restore 30
	.cfi_restore 29
	.cfi_restore 19
	.cfi_restore 20
	.cfi_def_cfa_offset 0
	ret
	.cfi_endproc
.LFE2611:
	.section	.gcc_except_table
.LLSDA2611:
	.byte	0xff
	.byte	0xff
	.byte	0x1
	.uleb128 .LLSDACSE2611-.LLSDACSB2611
.LLSDACSB2611:
.LLSDACSE2611:
	.section	.text._ZNSt6vectorIiSaIiEED2Ev,"axG",@progbits,_ZNSt6vectorIiSaIiEED5Ev,comdat
	.size	_ZNSt6vectorIiSaIiEED2Ev, .-_ZNSt6vectorIiSaIiEED2Ev
	.weak	_ZNSt6vectorIiSaIiEED1Ev
	.set	_ZNSt6vectorIiSaIiEED1Ev,_ZNSt6vectorIiSaIiEED2Ev
	.section	.text._ZNSt6vectorIS_IiSaIiEESaIS1_EE9push_backEOS1_,"axG",@progbits,_ZNSt6vectorIS_IiSaIiEESaIS1_EE9push_backEOS1_,comdat
	.align	2
	.weak	_ZNSt6vectorIS_IiSaIiEESaIS1_EE9push_backEOS1_
	.type	_ZNSt6vectorIS_IiSaIiEESaIS1_EE9push_backEOS1_, %function
_ZNSt6vectorIS_IiSaIiEESaIS1_EE9push_backEOS1_:
.LFB2613:
	.cfi_startproc
	stp	x29, x30, [sp, -32]!
	.cfi_def_cfa_offset 32
	.cfi_offset 29, -32
	.cfi_offset 30, -24
	mov	x29, sp
	str	x0, [sp, 24]
	str	x1, [sp, 16]
	ldr	x0, [sp, 16]
	bl	_ZSt4moveIRSt6vectorIiSaIiEEEONSt16remove_referenceIT_E4typeEOS5_
	mov	x1, x0
	ldr	x0, [sp, 24]
	bl	_ZNSt6vectorIS_IiSaIiEESaIS1_EE12emplace_backIJS1_EEERS1_DpOT_
	nop
	ldp	x29, x30, [sp], 32
	.cfi_restore 30
	.cfi_restore 29
	.cfi_def_cfa_offset 0
	ret
	.cfi_endproc
.LFE2613:
	.size	_ZNSt6vectorIS_IiSaIiEESaIS1_EE9push_backEOS1_, .-_ZNSt6vectorIS_IiSaIiEESaIS1_EE9push_backEOS1_
	.section	.text._ZNSt6vectorIbSaIbEEixEm,"axG",@progbits,_ZNSt6vectorIbSaIbEEixEm,comdat
	.align	2
	.weak	_ZNSt6vectorIbSaIbEEixEm
	.type	_ZNSt6vectorIbSaIbEEixEm, %function
_ZNSt6vectorIbSaIbEEixEm:
.LFB2614:
	.cfi_startproc
	stp	x29, x30, [sp, -64]!
	.cfi_def_cfa_offset 64
	.cfi_offset 29, -64
	.cfi_offset 30, -56
	mov	x29, sp
	str	x0, [sp, 24]
	str	x1, [sp, 16]
	adrp	x0, :got:__stack_chk_guard
	ldr	x0, [x0, #:got_lo12:__stack_chk_guard]
	ldr	x1, [x0]
	str	x1, [sp, 56]
	mov	x1, 0
	ldr	x0, [sp, 24]
	bl	_ZNSt6vectorIbSaIbEE5beginEv
	stp	x0, x1, [sp, 40]
	ldr	x1, [sp, 16]
	add	x0, sp, 40
	bl	_ZNKSt13_Bit_iteratorixEl
	mov	x2, x0
	mov	x3, x1
	adrp	x0, :got:__stack_chk_guard
	ldr	x0, [x0, #:got_lo12:__stack_chk_guard]
	ldr	x4, [sp, 56]
	ldr	x1, [x0]
	subs	x4, x4, x1
	mov	x1, 0
	beq	.L106
	bl	__stack_chk_fail
.L106:
	mov	x0, x2
	mov	x1, x3
	ldp	x29, x30, [sp], 64
	.cfi_restore 30
	.cfi_restore 29
	.cfi_def_cfa_offset 0
	ret
	.cfi_endproc
.LFE2614:
	.size	_ZNSt6vectorIbSaIbEEixEm, .-_ZNSt6vectorIbSaIbEEixEm
	.section	.text._ZNKSt6vectorIiSaIiEEixEm,"axG",@progbits,_ZNKSt6vectorIiSaIiEEixEm,comdat
	.align	2
	.weak	_ZNKSt6vectorIiSaIiEEixEm
	.type	_ZNKSt6vectorIiSaIiEEixEm, %function
_ZNKSt6vectorIiSaIiEEixEm:
.LFB2615:
	.cfi_startproc
	sub	sp, sp, #16
	.cfi_def_cfa_offset 16
	str	x0, [sp, 8]
	str	x1, [sp]
	ldr	x0, [sp, 8]
	ldr	x1, [x0]
	ldr	x0, [sp]
	lsl	x0, x0, 2
	add	x0, x1, x0
	add	sp, sp, 16
	.cfi_def_cfa_offset 0
	ret
	.cfi_endproc
.LFE2615:
	.size	_ZNKSt6vectorIiSaIiEEixEm, .-_ZNKSt6vectorIiSaIiEEixEm
	.section	.text._ZNSt5dequeIiSaIiEE9push_backERKi,"axG",@progbits,_ZNSt5dequeIiSaIiEE9push_backERKi,comdat
	.align	2
	.weak	_ZNSt5dequeIiSaIiEE9push_backERKi
	.type	_ZNSt5dequeIiSaIiEE9push_backERKi, %function
_ZNSt5dequeIiSaIiEE9push_backERKi:
.LFB2616:
	.cfi_startproc
	stp	x29, x30, [sp, -32]!
	.cfi_def_cfa_offset 32
	.cfi_offset 29, -32
	.cfi_offset 30, -24
	mov	x29, sp
	str	x0, [sp, 24]
	str	x1, [sp, 16]
	ldr	x0, [sp, 24]
	ldr	x1, [x0, 48]
	ldr	x0, [sp, 24]
	ldr	x0, [x0, 64]
	sub	x0, x0, #4
	cmp	x1, x0
	beq	.L110
	ldr	x3, [sp, 24]
	ldr	x0, [sp, 24]
	ldr	x0, [x0, 48]
	ldr	x2, [sp, 16]
	mov	x1, x0
	mov	x0, x3
	bl	_ZNSt16allocator_traitsISaIiEE9constructIiJRKiEEEvRS0_PT_DpOT0_
	ldr	x0, [sp, 24]
	ldr	x0, [x0, 48]
	add	x1, x0, 4
	ldr	x0, [sp, 24]
	str	x1, [x0, 48]
	b	.L112
.L110:
	ldr	x1, [sp, 16]
	ldr	x0, [sp, 24]
	bl	_ZNSt5dequeIiSaIiEE16_M_push_back_auxIJRKiEEEvDpOT_
.L112:
	nop
	ldp	x29, x30, [sp], 32
	.cfi_restore 30
	.cfi_restore 29
	.cfi_def_cfa_offset 0
	ret
	.cfi_endproc
.LFE2616:
	.size	_ZNSt5dequeIiSaIiEE9push_backERKi, .-_ZNSt5dequeIiSaIiEE9push_backERKi
	.section	.text._ZNSt5dequeIiSaIiEE8pop_backEv,"axG",@progbits,_ZNSt5dequeIiSaIiEE8pop_backEv,comdat
	.align	2
	.weak	_ZNSt5dequeIiSaIiEE8pop_backEv
	.type	_ZNSt5dequeIiSaIiEE8pop_backEv, %function
_ZNSt5dequeIiSaIiEE8pop_backEv:
.LFB2618:
	.cfi_startproc
	stp	x29, x30, [sp, -32]!
	.cfi_def_cfa_offset 32
	.cfi_offset 29, -32
	.cfi_offset 30, -24
	mov	x29, sp
	str	x0, [sp, 24]
	ldr	x0, [sp, 24]
	ldr	x1, [x0, 48]
	ldr	x0, [sp, 24]
	ldr	x0, [x0, 56]
	cmp	x1, x0
	beq	.L114
	ldr	x0, [sp, 24]
	ldr	x0, [x0, 48]
	sub	x1, x0, #4
	ldr	x0, [sp, 24]
	str	x1, [x0, 48]
	ldr	x0, [sp, 24]
	bl	_ZNSt11_Deque_baseIiSaIiEE19_M_get_Tp_allocatorEv
	mov	x2, x0
	ldr	x0, [sp, 24]
	ldr	x0, [x0, 48]
	mov	x1, x0
	mov	x0, x2
	bl	_ZNSt16allocator_traitsISaIiEE7destroyIiEEvRS0_PT_
	b	.L116
.L114:
	ldr	x0, [sp, 24]
	bl	_ZNSt5dequeIiSaIiEE15_M_pop_back_auxEv
.L116:
	nop
	ldp	x29, x30, [sp], 32
	.cfi_restore 30
	.cfi_restore 29
	.cfi_def_cfa_offset 0
	ret
	.cfi_endproc
.LFE2618:
	.size	_ZNSt5dequeIiSaIiEE8pop_backEv, .-_ZNSt5dequeIiSaIiEE8pop_backEv
	.section	.text._ZNSt6vectorIiSaIiEEC2ESt16initializer_listIiERKS0_,"axG",@progbits,_ZNSt6vectorIiSaIiEEC5ESt16initializer_listIiERKS0_,comdat
	.align	2
	.weak	_ZNSt6vectorIiSaIiEEC2ESt16initializer_listIiERKS0_
	.type	_ZNSt6vectorIiSaIiEEC2ESt16initializer_listIiERKS0_, %function
_ZNSt6vectorIiSaIiEEC2ESt16initializer_listIiERKS0_:
.LFB2620:
	.cfi_startproc
	.cfi_personality 0x9b,DW.ref.__gxx_personality_v0
	.cfi_lsda 0x1b,.LLSDA2620
	stp	x29, x30, [sp, -80]!
	.cfi_def_cfa_offset 80
	.cfi_offset 29, -80
	.cfi_offset 30, -72
	mov	x29, sp
	stp	x19, x20, [sp, 16]
	.cfi_offset 19, -64
	.cfi_offset 20, -56
	str	x0, [sp, 56]
	stp	x1, x2, [sp, 40]
	str	x3, [sp, 32]
	adrp	x0, :got:__stack_chk_guard
	ldr	x0, [x0, #:got_lo12:__stack_chk_guard]
	ldr	x1, [x0]
	str	x1, [sp, 72]
	mov	x1, 0
	ldr	x0, [sp, 56]
	ldr	x1, [sp, 32]
	bl	_ZNSt12_Vector_baseIiSaIiEEC2ERKS0_
	add	x0, sp, 40
	bl	_ZNKSt16initializer_listIiE5beginEv
	mov	x19, x0
	add	x0, sp, 40
	bl	_ZNKSt16initializer_listIiE3endEv
	mov	w3, w20
	mov	x2, x0
	mov	x1, x19
	ldr	x0, [sp, 56]
.LEHB15:
	bl	_ZNSt6vectorIiSaIiEE19_M_range_initializeIPKiEEvT_S5_St20forward_iterator_tag
.LEHE15:
	b	.L121
.L120:
	mov	x19, x0
	ldr	x0, [sp, 56]
	bl	_ZNSt12_Vector_baseIiSaIiEED2Ev
	mov	x0, x19
.LEHB16:
	bl	_Unwind_Resume
.LEHE16:
.L121:
	adrp	x0, :got:__stack_chk_guard
	ldr	x0, [x0, #:got_lo12:__stack_chk_guard]
	ldr	x2, [sp, 72]
	ldr	x1, [x0]
	subs	x2, x2, x1
	mov	x1, 0
	beq	.L119
	bl	__stack_chk_fail
.L119:
	ldp	x19, x20, [sp, 16]
	ldp	x29, x30, [sp], 80
	.cfi_restore 30
	.cfi_restore 29
	.cfi_restore 19
	.cfi_restore 20
	.cfi_def_cfa_offset 0
	ret
	.cfi_endproc
.LFE2620:
	.section	.gcc_except_table
.LLSDA2620:
	.byte	0xff
	.byte	0xff
	.byte	0x1
	.uleb128 .LLSDACSE2620-.LLSDACSB2620
.LLSDACSB2620:
	.uleb128 .LEHB15-.LFB2620
	.uleb128 .LEHE15-.LEHB15
	.uleb128 .L120-.LFB2620
	.uleb128 0
	.uleb128 .LEHB16-.LFB2620
	.uleb128 .LEHE16-.LEHB16
	.uleb128 0
	.uleb128 0
.LLSDACSE2620:
	.section	.text._ZNSt6vectorIiSaIiEEC2ESt16initializer_listIiERKS0_,"axG",@progbits,_ZNSt6vectorIiSaIiEEC5ESt16initializer_listIiERKS0_,comdat
	.size	_ZNSt6vectorIiSaIiEEC2ESt16initializer_listIiERKS0_, .-_ZNSt6vectorIiSaIiEEC2ESt16initializer_listIiERKS0_
	.weak	_ZNSt6vectorIiSaIiEEC1ESt16initializer_listIiERKS0_
	.set	_ZNSt6vectorIiSaIiEEC1ESt16initializer_listIiERKS0_,_ZNSt6vectorIiSaIiEEC2ESt16initializer_listIiERKS0_
	.section	.rodata
	.align	3
.LC2:
	.string	" "
	.section	.text._Z5printISt6vectorIS0_IiSaIiEESaIS2_EEEvRKT_,"axG",@progbits,_Z5printISt6vectorIS0_IiSaIiEESaIS2_EEEvRKT_,comdat
	.align	2
	.weak	_Z5printISt6vectorIS0_IiSaIiEESaIS2_EEEvRKT_
	.type	_Z5printISt6vectorIS0_IiSaIiEESaIS2_EEEvRKT_, %function
_Z5printISt6vectorIS0_IiSaIiEESaIS2_EEEvRKT_:
.LFB2625:
	.cfi_startproc
	stp	x29, x30, [sp, -112]!
	.cfi_def_cfa_offset 112
	.cfi_offset 29, -112
	.cfi_offset 30, -104
	mov	x29, sp
	str	x0, [sp, 24]
	adrp	x0, :got:__stack_chk_guard
	ldr	x0, [x0, #:got_lo12:__stack_chk_guard]
	ldr	x1, [x0]
	str	x1, [sp, 104]
	mov	x1, 0
	ldr	x0, [sp, 24]
	str	x0, [sp, 72]
	ldr	x0, [sp, 72]
	bl	_ZNKSt6vectorIS_IiSaIiEESaIS1_EE5beginEv
	str	x0, [sp, 40]
	ldr	x0, [sp, 72]
	bl	_ZNKSt6vectorIS_IiSaIiEESaIS1_EE3endEv
	str	x0, [sp, 48]
	b	.L123
.L126:
	add	x0, sp, 40
	bl	_ZNK9__gnu_cxx17__normal_iteratorIPKSt6vectorIiSaIiEES1_IS3_SaIS3_EEEdeEv
	str	x0, [sp, 80]
	ldr	x0, [sp, 80]
	str	x0, [sp, 88]
	ldr	x0, [sp, 88]
	bl	_ZNKSt6vectorIiSaIiEE5beginEv
	str	x0, [sp, 56]
	ldr	x0, [sp, 88]
	bl	_ZNKSt6vectorIiSaIiEE3endEv
	str	x0, [sp, 64]
	b	.L124
.L125:
	add	x0, sp, 56
	bl	_ZNK9__gnu_cxx17__normal_iteratorIPKiSt6vectorIiSaIiEEEdeEv
	str	x0, [sp, 96]
	adrp	x0, .LC2
	add	x1, x0, :lo12:.LC2
	adrp	x0, :got:_ZSt4cout
	ldr	x0, [x0, #:got_lo12:_ZSt4cout]
	bl	_ZStlsISt11char_traitsIcEERSt13basic_ostreamIcT_ES5_PKc
	mov	x2, x0
	ldr	x0, [sp, 96]
	ldr	w0, [x0]
	mov	w1, w0
	mov	x0, x2
	bl	_ZNSolsEi
	add	x0, sp, 56
	bl	_ZN9__gnu_cxx17__normal_iteratorIPKiSt6vectorIiSaIiEEEppEv
.L124:
	add	x1, sp, 64
	add	x0, sp, 56
	bl	_ZN9__gnu_cxxneIPKiSt6vectorIiSaIiEEEEbRKNS_17__normal_iteratorIT_T0_EESB_
	and	w0, w0, 255
	cmp	w0, 0
	bne	.L125
	adrp	x0, :got:_ZSt4endlIcSt11char_traitsIcEERSt13basic_ostreamIT_T0_ES6_
	ldr	x1, [x0, #:got_lo12:_ZSt4endlIcSt11char_traitsIcEERSt13basic_ostreamIT_T0_ES6_]
	adrp	x0, :got:_ZSt4cout
	ldr	x0, [x0, #:got_lo12:_ZSt4cout]
	bl	_ZNSolsEPFRSoS_E
	add	x0, sp, 40
	bl	_ZN9__gnu_cxx17__normal_iteratorIPKSt6vectorIiSaIiEES1_IS3_SaIS3_EEEppEv
.L123:
	add	x1, sp, 48
	add	x0, sp, 40
	bl	_ZN9__gnu_cxxneIPKSt6vectorIiSaIiEES1_IS3_SaIS3_EEEEbRKNS_17__normal_iteratorIT_T0_EESD_
	and	w0, w0, 255
	cmp	w0, 0
	bne	.L126
	nop
	adrp	x0, :got:__stack_chk_guard
	ldr	x0, [x0, #:got_lo12:__stack_chk_guard]
	ldr	x2, [sp, 104]
	ldr	x1, [x0]
	subs	x2, x2, x1
	mov	x1, 0
	beq	.L127
	bl	__stack_chk_fail
.L127:
	ldp	x29, x30, [sp], 112
	.cfi_restore 30
	.cfi_restore 29
	.cfi_def_cfa_offset 0
	ret
	.cfi_endproc
.LFE2625:
	.size	_Z5printISt6vectorIS0_IiSaIiEESaIS2_EEEvRKT_, .-_Z5printISt6vectorIS0_IiSaIiEESaIS2_EEEvRKT_
	.section	.text._ZNSaISt6vectorIiSaIiEEEC2Ev,"axG",@progbits,_ZNSaISt6vectorIiSaIiEEEC5Ev,comdat
	.align	2
	.weak	_ZNSaISt6vectorIiSaIiEEEC2Ev
	.type	_ZNSaISt6vectorIiSaIiEEEC2Ev, %function
_ZNSaISt6vectorIiSaIiEEEC2Ev:
.LFB2704:
	.cfi_startproc
	stp	x29, x30, [sp, -32]!
	.cfi_def_cfa_offset 32
	.cfi_offset 29, -32
	.cfi_offset 30, -24
	mov	x29, sp
	str	x0, [sp, 24]
	ldr	x0, [sp, 24]
	bl	_ZN9__gnu_cxx13new_allocatorISt6vectorIiSaIiEEEC2Ev
	nop
	ldp	x29, x30, [sp], 32
	.cfi_restore 30
	.cfi_restore 29
	.cfi_def_cfa_offset 0
	ret
	.cfi_endproc
.LFE2704:
	.size	_ZNSaISt6vectorIiSaIiEEEC2Ev, .-_ZNSaISt6vectorIiSaIiEEEC2Ev
	.weak	_ZNSaISt6vectorIiSaIiEEEC1Ev
	.set	_ZNSaISt6vectorIiSaIiEEEC1Ev,_ZNSaISt6vectorIiSaIiEEEC2Ev
	.section	.text._ZNSt12_Vector_baseISt6vectorIiSaIiEESaIS2_EE17_Vector_impl_dataC2Ev,"axG",@progbits,_ZNSt12_Vector_baseISt6vectorIiSaIiEESaIS2_EE17_Vector_impl_dataC5Ev,comdat
	.align	2
	.weak	_ZNSt12_Vector_baseISt6vectorIiSaIiEESaIS2_EE17_Vector_impl_dataC2Ev
	.type	_ZNSt12_Vector_baseISt6vectorIiSaIiEESaIS2_EE17_Vector_impl_dataC2Ev, %function
_ZNSt12_Vector_baseISt6vectorIiSaIiEESaIS2_EE17_Vector_impl_dataC2Ev:
.LFB2707:
	.cfi_startproc
	sub	sp, sp, #16
	.cfi_def_cfa_offset 16
	str	x0, [sp, 8]
	ldr	x0, [sp, 8]
	str	xzr, [x0]
	ldr	x0, [sp, 8]
	str	xzr, [x0, 8]
	ldr	x0, [sp, 8]
	str	xzr, [x0, 16]
	nop
	add	sp, sp, 16
	.cfi_def_cfa_offset 0
	ret
	.cfi_endproc
.LFE2707:
	.size	_ZNSt12_Vector_baseISt6vectorIiSaIiEESaIS2_EE17_Vector_impl_dataC2Ev, .-_ZNSt12_Vector_baseISt6vectorIiSaIiEESaIS2_EE17_Vector_impl_dataC2Ev
	.weak	_ZNSt12_Vector_baseISt6vectorIiSaIiEESaIS2_EE17_Vector_impl_dataC1Ev
	.set	_ZNSt12_Vector_baseISt6vectorIiSaIiEESaIS2_EE17_Vector_impl_dataC1Ev,_ZNSt12_Vector_baseISt6vectorIiSaIiEESaIS2_EE17_Vector_impl_dataC2Ev
	.section	.text._ZN9__gnu_cxx13new_allocatorISt6vectorIiSaIiEEED2Ev,"axG",@progbits,_ZN9__gnu_cxx13new_allocatorISt6vectorIiSaIiEEED5Ev,comdat
	.align	2
	.weak	_ZN9__gnu_cxx13new_allocatorISt6vectorIiSaIiEEED2Ev
	.type	_ZN9__gnu_cxx13new_allocatorISt6vectorIiSaIiEEED2Ev, %function
_ZN9__gnu_cxx13new_allocatorISt6vectorIiSaIiEEED2Ev:
.LFB2710:
	.cfi_startproc
	sub	sp, sp, #16
	.cfi_def_cfa_offset 16
	str	x0, [sp, 8]
	nop
	add	sp, sp, 16
	.cfi_def_cfa_offset 0
	ret
	.cfi_endproc
.LFE2710:
	.size	_ZN9__gnu_cxx13new_allocatorISt6vectorIiSaIiEEED2Ev, .-_ZN9__gnu_cxx13new_allocatorISt6vectorIiSaIiEEED2Ev
	.weak	_ZN9__gnu_cxx13new_allocatorISt6vectorIiSaIiEEED1Ev
	.set	_ZN9__gnu_cxx13new_allocatorISt6vectorIiSaIiEEED1Ev,_ZN9__gnu_cxx13new_allocatorISt6vectorIiSaIiEEED2Ev
	.section	.text._ZNSt12_Vector_baseISt6vectorIiSaIiEESaIS2_EE13_M_deallocateEPS2_m,"axG",@progbits,_ZNSt12_Vector_baseISt6vectorIiSaIiEESaIS2_EE13_M_deallocateEPS2_m,comdat
	.align	2
	.weak	_ZNSt12_Vector_baseISt6vectorIiSaIiEESaIS2_EE13_M_deallocateEPS2_m
	.type	_ZNSt12_Vector_baseISt6vectorIiSaIiEESaIS2_EE13_M_deallocateEPS2_m, %function
_ZNSt12_Vector_baseISt6vectorIiSaIiEESaIS2_EE13_M_deallocateEPS2_m:
.LFB2712:
	.cfi_startproc
	stp	x29, x30, [sp, -48]!
	.cfi_def_cfa_offset 48
	.cfi_offset 29, -48
	.cfi_offset 30, -40
	mov	x29, sp
	str	x0, [sp, 40]
	str	x1, [sp, 32]
	str	x2, [sp, 24]
	ldr	x0, [sp, 32]
	cmp	x0, 0
	beq	.L133
	ldr	x0, [sp, 40]
	ldr	x2, [sp, 24]
	ldr	x1, [sp, 32]
	bl	_ZNSt16allocator_traitsISaISt6vectorIiSaIiEEEE10deallocateERS3_PS2_m
.L133:
	nop
	ldp	x29, x30, [sp], 48
	.cfi_restore 30
	.cfi_restore 29
	.cfi_def_cfa_offset 0
	ret
	.cfi_endproc
.LFE2712:
	.size	_ZNSt12_Vector_baseISt6vectorIiSaIiEESaIS2_EE13_M_deallocateEPS2_m, .-_ZNSt12_Vector_baseISt6vectorIiSaIiEESaIS2_EE13_M_deallocateEPS2_m
	.section	.text._ZNSt12_Vector_baseISt6vectorIiSaIiEESaIS2_EE19_M_get_Tp_allocatorEv,"axG",@progbits,_ZNSt12_Vector_baseISt6vectorIiSaIiEESaIS2_EE19_M_get_Tp_allocatorEv,comdat
	.align	2
	.weak	_ZNSt12_Vector_baseISt6vectorIiSaIiEESaIS2_EE19_M_get_Tp_allocatorEv
	.type	_ZNSt12_Vector_baseISt6vectorIiSaIiEESaIS2_EE19_M_get_Tp_allocatorEv, %function
_ZNSt12_Vector_baseISt6vectorIiSaIiEESaIS2_EE19_M_get_Tp_allocatorEv:
.LFB2713:
	.cfi_startproc
	sub	sp, sp, #16
	.cfi_def_cfa_offset 16
	str	x0, [sp, 8]
	ldr	x0, [sp, 8]
	add	sp, sp, 16
	.cfi_def_cfa_offset 0
	ret
	.cfi_endproc
.LFE2713:
	.size	_ZNSt12_Vector_baseISt6vectorIiSaIiEESaIS2_EE19_M_get_Tp_allocatorEv, .-_ZNSt12_Vector_baseISt6vectorIiSaIiEESaIS2_EE19_M_get_Tp_allocatorEv
	.section	.text._ZSt8_DestroyIPSt6vectorIiSaIiEES2_EvT_S4_RSaIT0_E,"axG",@progbits,_ZSt8_DestroyIPSt6vectorIiSaIiEES2_EvT_S4_RSaIT0_E,comdat
	.align	2
	.weak	_ZSt8_DestroyIPSt6vectorIiSaIiEES2_EvT_S4_RSaIT0_E
	.type	_ZSt8_DestroyIPSt6vectorIiSaIiEES2_EvT_S4_RSaIT0_E, %function
_ZSt8_DestroyIPSt6vectorIiSaIiEES2_EvT_S4_RSaIT0_E:
.LFB2714:
	.cfi_startproc
	stp	x29, x30, [sp, -48]!
	.cfi_def_cfa_offset 48
	.cfi_offset 29, -48
	.cfi_offset 30, -40
	mov	x29, sp
	str	x0, [sp, 40]
	str	x1, [sp, 32]
	str	x2, [sp, 24]
	ldr	x1, [sp, 32]
	ldr	x0, [sp, 40]
	bl	_ZSt8_DestroyIPSt6vectorIiSaIiEEEvT_S4_
	nop
	ldp	x29, x30, [sp], 48
	.cfi_restore 30
	.cfi_restore 29
	.cfi_def_cfa_offset 0
	ret
	.cfi_endproc
.LFE2714:
	.size	_ZSt8_DestroyIPSt6vectorIiSaIiEES2_EvT_S4_RSaIT0_E, .-_ZSt8_DestroyIPSt6vectorIiSaIiEES2_EvT_S4_RSaIT0_E
	.section	.text._ZNKSt6vectorIiSaIiEE5beginEv,"axG",@progbits,_ZNKSt6vectorIiSaIiEE5beginEv,comdat
	.align	2
	.weak	_ZNKSt6vectorIiSaIiEE5beginEv
	.type	_ZNKSt6vectorIiSaIiEE5beginEv, %function
_ZNKSt6vectorIiSaIiEE5beginEv:
.LFB2715:
	.cfi_startproc
	stp	x29, x30, [sp, -48]!
	.cfi_def_cfa_offset 48
	.cfi_offset 29, -48
	.cfi_offset 30, -40
	mov	x29, sp
	str	x0, [sp, 24]
	adrp	x0, :got:__stack_chk_guard
	ldr	x0, [x0, #:got_lo12:__stack_chk_guard]
	ldr	x1, [x0]
	str	x1, [sp, 40]
	mov	x1, 0
	ldr	x1, [sp, 24]
	add	x0, sp, 32
	bl	_ZN9__gnu_cxx17__normal_iteratorIPKiSt6vectorIiSaIiEEEC1ERKS2_
	ldr	x0, [sp, 32]
	mov	x1, x0
	adrp	x0, :got:__stack_chk_guard
	ldr	x0, [x0, #:got_lo12:__stack_chk_guard]
	ldr	x3, [sp, 40]
	ldr	x2, [x0]
	subs	x3, x3, x2
	mov	x2, 0
	beq	.L139
	bl	__stack_chk_fail
.L139:
	mov	x0, x1
	ldp	x29, x30, [sp], 48
	.cfi_restore 30
	.cfi_restore 29
	.cfi_def_cfa_offset 0
	ret
	.cfi_endproc
.LFE2715:
	.size	_ZNKSt6vectorIiSaIiEE5beginEv, .-_ZNKSt6vectorIiSaIiEE5beginEv
	.section	.text._ZNKSt6vectorIiSaIiEE3endEv,"axG",@progbits,_ZNKSt6vectorIiSaIiEE3endEv,comdat
	.align	2
	.weak	_ZNKSt6vectorIiSaIiEE3endEv
	.type	_ZNKSt6vectorIiSaIiEE3endEv, %function
_ZNKSt6vectorIiSaIiEE3endEv:
.LFB2716:
	.cfi_startproc
	stp	x29, x30, [sp, -48]!
	.cfi_def_cfa_offset 48
	.cfi_offset 29, -48
	.cfi_offset 30, -40
	mov	x29, sp
	str	x0, [sp, 24]
	adrp	x0, :got:__stack_chk_guard
	ldr	x0, [x0, #:got_lo12:__stack_chk_guard]
	ldr	x1, [x0]
	str	x1, [sp, 40]
	mov	x1, 0
	ldr	x0, [sp, 24]
	add	x1, x0, 8
	add	x0, sp, 32
	bl	_ZN9__gnu_cxx17__normal_iteratorIPKiSt6vectorIiSaIiEEEC1ERKS2_
	ldr	x0, [sp, 32]
	mov	x1, x0
	adrp	x0, :got:__stack_chk_guard
	ldr	x0, [x0, #:got_lo12:__stack_chk_guard]
	ldr	x3, [sp, 40]
	ldr	x2, [x0]
	subs	x3, x3, x2
	mov	x2, 0
	beq	.L142
	bl	__stack_chk_fail
.L142:
	mov	x0, x1
	ldp	x29, x30, [sp], 48
	.cfi_restore 30
	.cfi_restore 29
	.cfi_def_cfa_offset 0
	ret
	.cfi_endproc
.LFE2716:
	.size	_ZNKSt6vectorIiSaIiEE3endEv, .-_ZNKSt6vectorIiSaIiEE3endEv
	.section	.text._ZN9__gnu_cxxeqIPKiSt6vectorIiSaIiEEEEbRKNS_17__normal_iteratorIT_T0_EESB_,"axG",@progbits,_ZN9__gnu_cxxeqIPKiSt6vectorIiSaIiEEEEbRKNS_17__normal_iteratorIT_T0_EESB_,comdat
	.align	2
	.weak	_ZN9__gnu_cxxeqIPKiSt6vectorIiSaIiEEEEbRKNS_17__normal_iteratorIT_T0_EESB_
	.type	_ZN9__gnu_cxxeqIPKiSt6vectorIiSaIiEEEEbRKNS_17__normal_iteratorIT_T0_EESB_, %function
_ZN9__gnu_cxxeqIPKiSt6vectorIiSaIiEEEEbRKNS_17__normal_iteratorIT_T0_EESB_:
.LFB2717:
	.cfi_startproc
	stp	x29, x30, [sp, -48]!
	.cfi_def_cfa_offset 48
	.cfi_offset 29, -48
	.cfi_offset 30, -40
	mov	x29, sp
	str	x19, [sp, 16]
	.cfi_offset 19, -32
	str	x0, [sp, 40]
	str	x1, [sp, 32]
	ldr	x0, [sp, 40]
	bl	_ZNK9__gnu_cxx17__normal_iteratorIPKiSt6vectorIiSaIiEEE4baseEv
	ldr	x19, [x0]
	ldr	x0, [sp, 32]
	bl	_ZNK9__gnu_cxx17__normal_iteratorIPKiSt6vectorIiSaIiEEE4baseEv
	ldr	x0, [x0]
	cmp	x19, x0
	cset	w0, eq
	and	w0, w0, 255
	ldr	x19, [sp, 16]
	ldp	x29, x30, [sp], 48
	.cfi_restore 30
	.cfi_restore 29
	.cfi_restore 19
	.cfi_def_cfa_offset 0
	ret
	.cfi_endproc
.LFE2717:
	.size	_ZN9__gnu_cxxeqIPKiSt6vectorIiSaIiEEEEbRKNS_17__normal_iteratorIT_T0_EESB_, .-_ZN9__gnu_cxxeqIPKiSt6vectorIiSaIiEEEEbRKNS_17__normal_iteratorIT_T0_EESB_
	.section	.text._ZN9__gnu_cxx13new_allocatorIbEC2Ev,"axG",@progbits,_ZN9__gnu_cxx13new_allocatorIbEC5Ev,comdat
	.align	2
	.weak	_ZN9__gnu_cxx13new_allocatorIbEC2Ev
	.type	_ZN9__gnu_cxx13new_allocatorIbEC2Ev, %function
_ZN9__gnu_cxx13new_allocatorIbEC2Ev:
.LFB2726:
	.cfi_startproc
	sub	sp, sp, #16
	.cfi_def_cfa_offset 16
	str	x0, [sp, 8]
	nop
	add	sp, sp, 16
	.cfi_def_cfa_offset 0
	ret
	.cfi_endproc
.LFE2726:
	.size	_ZN9__gnu_cxx13new_allocatorIbEC2Ev, .-_ZN9__gnu_cxx13new_allocatorIbEC2Ev
	.weak	_ZN9__gnu_cxx13new_allocatorIbEC1Ev
	.set	_ZN9__gnu_cxx13new_allocatorIbEC1Ev,_ZN9__gnu_cxx13new_allocatorIbEC2Ev
	.section	.text._ZN9__gnu_cxx13new_allocatorIbED2Ev,"axG",@progbits,_ZN9__gnu_cxx13new_allocatorIbED5Ev,comdat
	.align	2
	.weak	_ZN9__gnu_cxx13new_allocatorIbED2Ev
	.type	_ZN9__gnu_cxx13new_allocatorIbED2Ev, %function
_ZN9__gnu_cxx13new_allocatorIbED2Ev:
.LFB2729:
	.cfi_startproc
	sub	sp, sp, #16
	.cfi_def_cfa_offset 16
	str	x0, [sp, 8]
	nop
	add	sp, sp, 16
	.cfi_def_cfa_offset 0
	ret
	.cfi_endproc
.LFE2729:
	.size	_ZN9__gnu_cxx13new_allocatorIbED2Ev, .-_ZN9__gnu_cxx13new_allocatorIbED2Ev
	.weak	_ZN9__gnu_cxx13new_allocatorIbED1Ev
	.set	_ZN9__gnu_cxx13new_allocatorIbED1Ev,_ZN9__gnu_cxx13new_allocatorIbED2Ev
	.section	.text._ZNSt6vectorIbSaIbEEC2EmRKbRKS0_,"axG",@progbits,_ZNSt6vectorIbSaIbEEC5EmRKbRKS0_,comdat
	.align	2
	.weak	_ZNSt6vectorIbSaIbEEC2EmRKbRKS0_
	.type	_ZNSt6vectorIbSaIbEEC2EmRKbRKS0_, %function
_ZNSt6vectorIbSaIbEEC2EmRKbRKS0_:
.LFB2732:
	.cfi_startproc
	.cfi_personality 0x9b,DW.ref.__gxx_personality_v0
	.cfi_lsda 0x1b,.LLSDA2732
	stp	x29, x30, [sp, -64]!
	.cfi_def_cfa_offset 64
	.cfi_offset 29, -64
	.cfi_offset 30, -56
	mov	x29, sp
	str	x19, [sp, 16]
	.cfi_offset 19, -48
	str	x0, [sp, 56]
	str	x1, [sp, 48]
	str	x2, [sp, 40]
	str	x3, [sp, 32]
	ldr	x0, [sp, 56]
	ldr	x1, [sp, 32]
	bl	_ZNSt13_Bvector_baseISaIbEEC2ERKS0_
	ldr	x1, [sp, 48]
	ldr	x0, [sp, 56]
.LEHB17:
	bl	_ZNSt6vectorIbSaIbEE13_M_initializeEm
.LEHE17:
	ldr	x0, [sp, 40]
	ldrb	w0, [x0]
	mov	w1, w0
	ldr	x0, [sp, 56]
	bl	_ZNSt6vectorIbSaIbEE19_M_initialize_valueEb
	b	.L150
.L149:
	mov	x19, x0
	ldr	x0, [sp, 56]
	bl	_ZNSt13_Bvector_baseISaIbEED2Ev
	mov	x0, x19
.LEHB18:
	bl	_Unwind_Resume
.LEHE18:
.L150:
	ldr	x19, [sp, 16]
	ldp	x29, x30, [sp], 64
	.cfi_restore 30
	.cfi_restore 29
	.cfi_restore 19
	.cfi_def_cfa_offset 0
	ret
	.cfi_endproc
.LFE2732:
	.section	.gcc_except_table
.LLSDA2732:
	.byte	0xff
	.byte	0xff
	.byte	0x1
	.uleb128 .LLSDACSE2732-.LLSDACSB2732
.LLSDACSB2732:
	.uleb128 .LEHB17-.LFB2732
	.uleb128 .LEHE17-.LEHB17
	.uleb128 .L149-.LFB2732
	.uleb128 0
	.uleb128 .LEHB18-.LFB2732
	.uleb128 .LEHE18-.LEHB18
	.uleb128 0
	.uleb128 0
.LLSDACSE2732:
	.section	.text._ZNSt6vectorIbSaIbEEC2EmRKbRKS0_,"axG",@progbits,_ZNSt6vectorIbSaIbEEC5EmRKbRKS0_,comdat
	.size	_ZNSt6vectorIbSaIbEEC2EmRKbRKS0_, .-_ZNSt6vectorIbSaIbEEC2EmRKbRKS0_
	.weak	_ZNSt6vectorIbSaIbEEC1EmRKbRKS0_
	.set	_ZNSt6vectorIbSaIbEEC1EmRKbRKS0_,_ZNSt6vectorIbSaIbEEC2EmRKbRKS0_
	.section	.text._ZNSt13_Bvector_baseISaIbEE13_Bvector_implD2Ev,"axG",@progbits,_ZNSt13_Bvector_baseISaIbEE13_Bvector_implD5Ev,comdat
	.align	2
	.weak	_ZNSt13_Bvector_baseISaIbEE13_Bvector_implD2Ev
	.type	_ZNSt13_Bvector_baseISaIbEE13_Bvector_implD2Ev, %function
_ZNSt13_Bvector_baseISaIbEE13_Bvector_implD2Ev:
.LFB2736:
	.cfi_startproc
	stp	x29, x30, [sp, -32]!
	.cfi_def_cfa_offset 32
	.cfi_offset 29, -32
	.cfi_offset 30, -24
	mov	x29, sp
	str	x0, [sp, 24]
	ldr	x0, [sp, 24]
	bl	_ZNSaImED2Ev
	nop
	ldp	x29, x30, [sp], 32
	.cfi_restore 30
	.cfi_restore 29
	.cfi_def_cfa_offset 0
	ret
	.cfi_endproc
.LFE2736:
	.size	_ZNSt13_Bvector_baseISaIbEE13_Bvector_implD2Ev, .-_ZNSt13_Bvector_baseISaIbEE13_Bvector_implD2Ev
	.weak	_ZNSt13_Bvector_baseISaIbEE13_Bvector_implD1Ev
	.set	_ZNSt13_Bvector_baseISaIbEE13_Bvector_implD1Ev,_ZNSt13_Bvector_baseISaIbEE13_Bvector_implD2Ev
	.section	.text._ZNSt13_Bvector_baseISaIbEED2Ev,"axG",@progbits,_ZNSt13_Bvector_baseISaIbEED5Ev,comdat
	.align	2
	.weak	_ZNSt13_Bvector_baseISaIbEED2Ev
	.type	_ZNSt13_Bvector_baseISaIbEED2Ev, %function
_ZNSt13_Bvector_baseISaIbEED2Ev:
.LFB2738:
	.cfi_startproc
	.cfi_personality 0x9b,DW.ref.__gxx_personality_v0
	.cfi_lsda 0x1b,.LLSDA2738
	stp	x29, x30, [sp, -32]!
	.cfi_def_cfa_offset 32
	.cfi_offset 29, -32
	.cfi_offset 30, -24
	mov	x29, sp
	str	x0, [sp, 24]
	ldr	x0, [sp, 24]
	bl	_ZNSt13_Bvector_baseISaIbEE13_M_deallocateEv
	ldr	x0, [sp, 24]
	bl	_ZNSt13_Bvector_baseISaIbEE13_Bvector_implD1Ev
	nop
	ldp	x29, x30, [sp], 32
	.cfi_restore 30
	.cfi_restore 29
	.cfi_def_cfa_offset 0
	ret
	.cfi_endproc
.LFE2738:
	.section	.gcc_except_table
.LLSDA2738:
	.byte	0xff
	.byte	0xff
	.byte	0x1
	.uleb128 .LLSDACSE2738-.LLSDACSB2738
.LLSDACSB2738:
.LLSDACSE2738:
	.section	.text._ZNSt13_Bvector_baseISaIbEED2Ev,"axG",@progbits,_ZNSt13_Bvector_baseISaIbEED5Ev,comdat
	.size	_ZNSt13_Bvector_baseISaIbEED2Ev, .-_ZNSt13_Bvector_baseISaIbEED2Ev
	.weak	_ZNSt13_Bvector_baseISaIbEED1Ev
	.set	_ZNSt13_Bvector_baseISaIbEED1Ev,_ZNSt13_Bvector_baseISaIbEED2Ev
	.section	.text._ZNSt11_Deque_baseIiSaIiEE11_Deque_implC2Ev,"axG",@progbits,_ZNSt11_Deque_baseIiSaIiEE11_Deque_implC5Ev,comdat
	.align	2
	.weak	_ZNSt11_Deque_baseIiSaIiEE11_Deque_implC2Ev
	.type	_ZNSt11_Deque_baseIiSaIiEE11_Deque_implC2Ev, %function
_ZNSt11_Deque_baseIiSaIiEE11_Deque_implC2Ev:
.LFB2741:
	.cfi_startproc
	stp	x29, x30, [sp, -32]!
	.cfi_def_cfa_offset 32
	.cfi_offset 29, -32
	.cfi_offset 30, -24
	mov	x29, sp
	str	x0, [sp, 24]
	ldr	x0, [sp, 24]
	bl	_ZNSaIiEC2Ev
	ldr	x0, [sp, 24]
	bl	_ZNSt11_Deque_baseIiSaIiEE16_Deque_impl_dataC2Ev
	nop
	ldp	x29, x30, [sp], 32
	.cfi_restore 30
	.cfi_restore 29
	.cfi_def_cfa_offset 0
	ret
	.cfi_endproc
.LFE2741:
	.size	_ZNSt11_Deque_baseIiSaIiEE11_Deque_implC2Ev, .-_ZNSt11_Deque_baseIiSaIiEE11_Deque_implC2Ev
	.weak	_ZNSt11_Deque_baseIiSaIiEE11_Deque_implC1Ev
	.set	_ZNSt11_Deque_baseIiSaIiEE11_Deque_implC1Ev,_ZNSt11_Deque_baseIiSaIiEE11_Deque_implC2Ev
	.section	.text._ZNSt11_Deque_baseIiSaIiEE17_M_initialize_mapEm,"axG",@progbits,_ZNSt11_Deque_baseIiSaIiEE17_M_initialize_mapEm,comdat
	.align	2
	.weak	_ZNSt11_Deque_baseIiSaIiEE17_M_initialize_mapEm
	.type	_ZNSt11_Deque_baseIiSaIiEE17_M_initialize_mapEm, %function
_ZNSt11_Deque_baseIiSaIiEE17_M_initialize_mapEm:
.LFB2743:
	.cfi_startproc
	.cfi_personality 0x9b,DW.ref.__gxx_personality_v0
	.cfi_lsda 0x1b,.LLSDA2743
	stp	x29, x30, [sp, -96]!
	.cfi_def_cfa_offset 96
	.cfi_offset 29, -96
	.cfi_offset 30, -88
	mov	x29, sp
	str	x19, [sp, 16]
	.cfi_offset 19, -80
	str	x0, [sp, 40]
	str	x1, [sp, 32]
	adrp	x0, :got:__stack_chk_guard
	ldr	x0, [x0, #:got_lo12:__stack_chk_guard]
	ldr	x1, [x0]
	str	x1, [sp, 88]
	mov	x1, 0
	mov	x0, 4
	bl	_ZSt16__deque_buf_sizem
	mov	x1, x0
	ldr	x0, [sp, 32]
	udiv	x0, x0, x1
	add	x0, x0, 1
	str	x0, [sp, 64]
	mov	x0, 8
	str	x0, [sp, 48]
	ldr	x0, [sp, 64]
	add	x0, x0, 2
	str	x0, [sp, 56]
	add	x1, sp, 56
	add	x0, sp, 48
	bl	_ZSt3maxImERKT_S2_S2_
	ldr	x1, [x0]
	ldr	x0, [sp, 40]
	str	x1, [x0, 8]
	ldr	x0, [sp, 40]
	ldr	x0, [x0, 8]
	mov	x1, x0
	ldr	x0, [sp, 40]
.LEHB19:
	bl	_ZNSt11_Deque_baseIiSaIiEE15_M_allocate_mapEm
.LEHE19:
	mov	x1, x0
	ldr	x0, [sp, 40]
	str	x1, [x0]
	ldr	x0, [sp, 40]
	ldr	x1, [x0]
	ldr	x0, [sp, 40]
	ldr	x2, [x0, 8]
	ldr	x0, [sp, 64]
	sub	x0, x2, x0
	lsr	x0, x0, 1
	lsl	x0, x0, 3
	add	x0, x1, x0
	str	x0, [sp, 72]
	ldr	x0, [sp, 64]
	lsl	x0, x0, 3
	ldr	x1, [sp, 72]
	add	x0, x1, x0
	str	x0, [sp, 80]
	ldr	x2, [sp, 80]
	ldr	x1, [sp, 72]
	ldr	x0, [sp, 40]
.LEHB20:
	bl	_ZNSt11_Deque_baseIiSaIiEE15_M_create_nodesEPPiS3_
.LEHE20:
	ldr	x0, [sp, 40]
	add	x0, x0, 16
	ldr	x1, [sp, 72]
	bl	_ZNSt15_Deque_iteratorIiRiPiE11_M_set_nodeEPS1_
	ldr	x0, [sp, 40]
	add	x2, x0, 48
	ldr	x0, [sp, 80]
	sub	x0, x0, #8
	mov	x1, x0
	mov	x0, x2
	bl	_ZNSt15_Deque_iteratorIiRiPiE11_M_set_nodeEPS1_
	ldr	x0, [sp, 40]
	ldr	x1, [x0, 24]
	ldr	x0, [sp, 40]
	str	x1, [x0, 16]
	ldr	x0, [sp, 40]
	ldr	x19, [x0, 56]
	mov	x0, 4
	bl	_ZSt16__deque_buf_sizem
	mov	x1, x0
	ldr	x0, [sp, 32]
	udiv	x2, x0, x1
	mul	x1, x2, x1
	sub	x0, x0, x1
	lsl	x0, x0, 2
	add	x1, x19, x0
	ldr	x0, [sp, 40]
	str	x1, [x0, 48]
	nop
	adrp	x0, :got:__stack_chk_guard
	ldr	x0, [x0, #:got_lo12:__stack_chk_guard]
	ldr	x2, [sp, 88]
	ldr	x1, [x0]
	subs	x2, x2, x1
	mov	x1, 0
	beq	.L157
	b	.L160
.L158:
	bl	__cxa_begin_catch
	ldr	x0, [sp, 40]
	ldr	x1, [x0]
	ldr	x0, [sp, 40]
	ldr	x0, [x0, 8]
	mov	x2, x0
	ldr	x0, [sp, 40]
	bl	_ZNSt11_Deque_baseIiSaIiEE17_M_deallocate_mapEPPim
	ldr	x0, [sp, 40]
	str	xzr, [x0]
	ldr	x0, [sp, 40]
	str	xzr, [x0, 8]
.LEHB21:
	bl	__cxa_rethrow
.LEHE21:
.L159:
	mov	x19, x0
	bl	__cxa_end_catch
	mov	x0, x19
.LEHB22:
	bl	_Unwind_Resume
.LEHE22:
.L160:
	bl	__stack_chk_fail
.L157:
	ldr	x19, [sp, 16]
	ldp	x29, x30, [sp], 96
	.cfi_restore 30
	.cfi_restore 29
	.cfi_restore 19
	.cfi_def_cfa_offset 0
	ret
	.cfi_endproc
.LFE2743:
	.section	.gcc_except_table
	.align	2
.LLSDA2743:
	.byte	0xff
	.byte	0x9b
	.uleb128 .LLSDATT2743-.LLSDATTD2743
.LLSDATTD2743:
	.byte	0x1
	.uleb128 .LLSDACSE2743-.LLSDACSB2743
.LLSDACSB2743:
	.uleb128 .LEHB19-.LFB2743
	.uleb128 .LEHE19-.LEHB19
	.uleb128 0
	.uleb128 0
	.uleb128 .LEHB20-.LFB2743
	.uleb128 .LEHE20-.LEHB20
	.uleb128 .L158-.LFB2743
	.uleb128 0x1
	.uleb128 .LEHB21-.LFB2743
	.uleb128 .LEHE21-.LEHB21
	.uleb128 .L159-.LFB2743
	.uleb128 0
	.uleb128 .LEHB22-.LFB2743
	.uleb128 .LEHE22-.LEHB22
	.uleb128 0
	.uleb128 0
.LLSDACSE2743:
	.byte	0x1
	.byte	0
	.align	2
	.4byte	0

.LLSDATT2743:
	.section	.text._ZNSt11_Deque_baseIiSaIiEE17_M_initialize_mapEm,"axG",@progbits,_ZNSt11_Deque_baseIiSaIiEE17_M_initialize_mapEm,comdat
	.size	_ZNSt11_Deque_baseIiSaIiEE17_M_initialize_mapEm, .-_ZNSt11_Deque_baseIiSaIiEE17_M_initialize_mapEm
	.section	.text._ZNSt11_Deque_baseIiSaIiEE16_M_destroy_nodesEPPiS3_,"axG",@progbits,_ZNSt11_Deque_baseIiSaIiEE16_M_destroy_nodesEPPiS3_,comdat
	.align	2
	.weak	_ZNSt11_Deque_baseIiSaIiEE16_M_destroy_nodesEPPiS3_
	.type	_ZNSt11_Deque_baseIiSaIiEE16_M_destroy_nodesEPPiS3_, %function
_ZNSt11_Deque_baseIiSaIiEE16_M_destroy_nodesEPPiS3_:
.LFB2744:
	.cfi_startproc
	stp	x29, x30, [sp, -64]!
	.cfi_def_cfa_offset 64
	.cfi_offset 29, -64
	.cfi_offset 30, -56
	mov	x29, sp
	str	x0, [sp, 40]
	str	x1, [sp, 32]
	str	x2, [sp, 24]
	ldr	x0, [sp, 32]
	str	x0, [sp, 56]
	b	.L162
.L163:
	ldr	x0, [sp, 56]
	ldr	x0, [x0]
	mov	x1, x0
	ldr	x0, [sp, 40]
	bl	_ZNSt11_Deque_baseIiSaIiEE18_M_deallocate_nodeEPi
	ldr	x0, [sp, 56]
	add	x0, x0, 8
	str	x0, [sp, 56]
.L162:
	ldr	x1, [sp, 56]
	ldr	x0, [sp, 24]
	cmp	x1, x0
	bcc	.L163
	nop
	nop
	ldp	x29, x30, [sp], 64
	.cfi_restore 30
	.cfi_restore 29
	.cfi_def_cfa_offset 0
	ret
	.cfi_endproc
.LFE2744:
	.size	_ZNSt11_Deque_baseIiSaIiEE16_M_destroy_nodesEPPiS3_, .-_ZNSt11_Deque_baseIiSaIiEE16_M_destroy_nodesEPPiS3_
	.section	.text._ZNSt11_Deque_baseIiSaIiEE17_M_deallocate_mapEPPim,"axG",@progbits,_ZNSt11_Deque_baseIiSaIiEE17_M_deallocate_mapEPPim,comdat
	.align	2
	.weak	_ZNSt11_Deque_baseIiSaIiEE17_M_deallocate_mapEPPim
	.type	_ZNSt11_Deque_baseIiSaIiEE17_M_deallocate_mapEPPim, %function
_ZNSt11_Deque_baseIiSaIiEE17_M_deallocate_mapEPPim:
.LFB2745:
	.cfi_startproc
	.cfi_personality 0x9b,DW.ref.__gxx_personality_v0
	.cfi_lsda 0x1b,.LLSDA2745
	stp	x29, x30, [sp, -64]!
	.cfi_def_cfa_offset 64
	.cfi_offset 29, -64
	.cfi_offset 30, -56
	mov	x29, sp
	str	x0, [sp, 40]
	str	x1, [sp, 32]
	str	x2, [sp, 24]
	adrp	x0, :got:__stack_chk_guard
	ldr	x0, [x0, #:got_lo12:__stack_chk_guard]
	ldr	x1, [x0]
	str	x1, [sp, 56]
	mov	x1, 0
	add	x0, sp, 48
	mov	x8, x0
	ldr	x0, [sp, 40]
	bl	_ZNKSt11_Deque_baseIiSaIiEE20_M_get_map_allocatorEv
	add	x0, sp, 48
	ldr	x2, [sp, 24]
	ldr	x1, [sp, 32]
	bl	_ZNSt16allocator_traitsISaIPiEE10deallocateERS1_PS0_m
	add	x0, sp, 48
	bl	_ZNSaIPiED1Ev
	adrp	x0, :got:__stack_chk_guard
	ldr	x0, [x0, #:got_lo12:__stack_chk_guard]
	ldr	x2, [sp, 56]
	ldr	x1, [x0]
	subs	x2, x2, x1
	mov	x1, 0
	beq	.L165
	bl	__stack_chk_fail
.L165:
	ldp	x29, x30, [sp], 64
	.cfi_restore 30
	.cfi_restore 29
	.cfi_def_cfa_offset 0
	ret
	.cfi_endproc
.LFE2745:
	.section	.gcc_except_table
.LLSDA2745:
	.byte	0xff
	.byte	0xff
	.byte	0x1
	.uleb128 .LLSDACSE2745-.LLSDACSB2745
.LLSDACSB2745:
.LLSDACSE2745:
	.section	.text._ZNSt11_Deque_baseIiSaIiEE17_M_deallocate_mapEPPim,"axG",@progbits,_ZNSt11_Deque_baseIiSaIiEE17_M_deallocate_mapEPPim,comdat
	.size	_ZNSt11_Deque_baseIiSaIiEE17_M_deallocate_mapEPPim, .-_ZNSt11_Deque_baseIiSaIiEE17_M_deallocate_mapEPPim
	.section	.text._ZNSt11_Deque_baseIiSaIiEE19_M_get_Tp_allocatorEv,"axG",@progbits,_ZNSt11_Deque_baseIiSaIiEE19_M_get_Tp_allocatorEv,comdat
	.align	2
	.weak	_ZNSt11_Deque_baseIiSaIiEE19_M_get_Tp_allocatorEv
	.type	_ZNSt11_Deque_baseIiSaIiEE19_M_get_Tp_allocatorEv, %function
_ZNSt11_Deque_baseIiSaIiEE19_M_get_Tp_allocatorEv:
.LFB2746:
	.cfi_startproc
	sub	sp, sp, #16
	.cfi_def_cfa_offset 16
	str	x0, [sp, 8]
	ldr	x0, [sp, 8]
	add	sp, sp, 16
	.cfi_def_cfa_offset 0
	ret
	.cfi_endproc
.LFE2746:
	.size	_ZNSt11_Deque_baseIiSaIiEE19_M_get_Tp_allocatorEv, .-_ZNSt11_Deque_baseIiSaIiEE19_M_get_Tp_allocatorEv
	.section	.text._ZNSt5dequeIiSaIiEE15_M_destroy_dataESt15_Deque_iteratorIiRiPiES5_RKS0_,"axG",@progbits,_ZNSt5dequeIiSaIiEE15_M_destroy_dataESt15_Deque_iteratorIiRiPiES5_RKS0_,comdat
	.align	2
	.weak	_ZNSt5dequeIiSaIiEE15_M_destroy_dataESt15_Deque_iteratorIiRiPiES5_RKS0_
	.type	_ZNSt5dequeIiSaIiEE15_M_destroy_dataESt15_Deque_iteratorIiRiPiES5_RKS0_, %function
_ZNSt5dequeIiSaIiEE15_M_destroy_dataESt15_Deque_iteratorIiRiPiES5_RKS0_:
.LFB2747:
	.cfi_startproc
	stp	x29, x30, [sp, -96]!
	.cfi_def_cfa_offset 96
	.cfi_offset 29, -96
	.cfi_offset 30, -88
	mov	x29, sp
	str	x0, [sp, 40]
	str	x1, [sp, 32]
	str	x2, [sp, 24]
	str	x3, [sp, 16]
	adrp	x0, :got:__stack_chk_guard
	ldr	x0, [x0, #:got_lo12:__stack_chk_guard]
	ldr	x1, [x0]
	str	x1, [sp, 88]
	mov	x1, 0
	nop
	adrp	x0, :got:__stack_chk_guard
	ldr	x0, [x0, #:got_lo12:__stack_chk_guard]
	ldr	x2, [sp, 88]
	ldr	x1, [x0]
	subs	x2, x2, x1
	mov	x1, 0
	beq	.L169
	bl	__stack_chk_fail
.L169:
	ldp	x29, x30, [sp], 96
	.cfi_restore 30
	.cfi_restore 29
	.cfi_def_cfa_offset 0
	ret
	.cfi_endproc
.LFE2747:
	.size	_ZNSt5dequeIiSaIiEE15_M_destroy_dataESt15_Deque_iteratorIiRiPiES5_RKS0_, .-_ZNSt5dequeIiSaIiEE15_M_destroy_dataESt15_Deque_iteratorIiRiPiES5_RKS0_
	.section	.text._ZNSt15_Deque_iteratorIiRiPiEC2ERKS2_,"axG",@progbits,_ZNSt15_Deque_iteratorIiRiPiEC5ERKS2_,comdat
	.align	2
	.weak	_ZNSt15_Deque_iteratorIiRiPiEC2ERKS2_
	.type	_ZNSt15_Deque_iteratorIiRiPiEC2ERKS2_, %function
_ZNSt15_Deque_iteratorIiRiPiEC2ERKS2_:
.LFB2749:
	.cfi_startproc
	sub	sp, sp, #16
	.cfi_def_cfa_offset 16
	str	x0, [sp, 8]
	str	x1, [sp]
	ldr	x0, [sp]
	ldr	x1, [x0]
	ldr	x0, [sp, 8]
	str	x1, [x0]
	ldr	x0, [sp]
	ldr	x1, [x0, 8]
	ldr	x0, [sp, 8]
	str	x1, [x0, 8]
	ldr	x0, [sp]
	ldr	x1, [x0, 16]
	ldr	x0, [sp, 8]
	str	x1, [x0, 16]
	ldr	x0, [sp]
	ldr	x1, [x0, 24]
	ldr	x0, [sp, 8]
	str	x1, [x0, 24]
	nop
	add	sp, sp, 16
	.cfi_def_cfa_offset 0
	ret
	.cfi_endproc
.LFE2749:
	.size	_ZNSt15_Deque_iteratorIiRiPiEC2ERKS2_, .-_ZNSt15_Deque_iteratorIiRiPiEC2ERKS2_
	.weak	_ZNSt15_Deque_iteratorIiRiPiEC1ERKS2_
	.set	_ZNSt15_Deque_iteratorIiRiPiEC1ERKS2_,_ZNSt15_Deque_iteratorIiRiPiEC2ERKS2_
	.section	.text._ZN9__gnu_cxx13new_allocatorIiEC2Ev,"axG",@progbits,_ZN9__gnu_cxx13new_allocatorIiEC5Ev,comdat
	.align	2
	.weak	_ZN9__gnu_cxx13new_allocatorIiEC2Ev
	.type	_ZN9__gnu_cxx13new_allocatorIiEC2Ev, %function
_ZN9__gnu_cxx13new_allocatorIiEC2Ev:
.LFB2752:
	.cfi_startproc
	sub	sp, sp, #16
	.cfi_def_cfa_offset 16
	str	x0, [sp, 8]
	nop
	add	sp, sp, 16
	.cfi_def_cfa_offset 0
	ret
	.cfi_endproc
.LFE2752:
	.size	_ZN9__gnu_cxx13new_allocatorIiEC2Ev, .-_ZN9__gnu_cxx13new_allocatorIiEC2Ev
	.weak	_ZN9__gnu_cxx13new_allocatorIiEC1Ev
	.set	_ZN9__gnu_cxx13new_allocatorIiEC1Ev,_ZN9__gnu_cxx13new_allocatorIiEC2Ev
	.section	.text._ZN9__gnu_cxx13new_allocatorIiED2Ev,"axG",@progbits,_ZN9__gnu_cxx13new_allocatorIiED5Ev,comdat
	.align	2
	.weak	_ZN9__gnu_cxx13new_allocatorIiED2Ev
	.type	_ZN9__gnu_cxx13new_allocatorIiED2Ev, %function
_ZN9__gnu_cxx13new_allocatorIiED2Ev:
.LFB2755:
	.cfi_startproc
	sub	sp, sp, #16
	.cfi_def_cfa_offset 16
	str	x0, [sp, 8]
	nop
	add	sp, sp, 16
	.cfi_def_cfa_offset 0
	ret
	.cfi_endproc
.LFE2755:
	.size	_ZN9__gnu_cxx13new_allocatorIiED2Ev, .-_ZN9__gnu_cxx13new_allocatorIiED2Ev
	.weak	_ZN9__gnu_cxx13new_allocatorIiED1Ev
	.set	_ZN9__gnu_cxx13new_allocatorIiED1Ev,_ZN9__gnu_cxx13new_allocatorIiED2Ev
	.section	.text._ZNSt12_Vector_baseIiSaIiEE12_Vector_implD2Ev,"axG",@progbits,_ZNSt12_Vector_baseIiSaIiEE12_Vector_implD5Ev,comdat
	.align	2
	.weak	_ZNSt12_Vector_baseIiSaIiEE12_Vector_implD2Ev
	.type	_ZNSt12_Vector_baseIiSaIiEE12_Vector_implD2Ev, %function
_ZNSt12_Vector_baseIiSaIiEE12_Vector_implD2Ev:
.LFB2759:
	.cfi_startproc
	stp	x29, x30, [sp, -32]!
	.cfi_def_cfa_offset 32
	.cfi_offset 29, -32
	.cfi_offset 30, -24
	mov	x29, sp
	str	x0, [sp, 24]
	ldr	x0, [sp, 24]
	bl	_ZNSaIiED2Ev
	nop
	ldp	x29, x30, [sp], 32
	.cfi_restore 30
	.cfi_restore 29
	.cfi_def_cfa_offset 0
	ret
	.cfi_endproc
.LFE2759:
	.size	_ZNSt12_Vector_baseIiSaIiEE12_Vector_implD2Ev, .-_ZNSt12_Vector_baseIiSaIiEE12_Vector_implD2Ev
	.weak	_ZNSt12_Vector_baseIiSaIiEE12_Vector_implD1Ev
	.set	_ZNSt12_Vector_baseIiSaIiEE12_Vector_implD1Ev,_ZNSt12_Vector_baseIiSaIiEE12_Vector_implD2Ev
	.section	.text._ZNSt12_Vector_baseIiSaIiEEC2ERKS0_,"axG",@progbits,_ZNSt12_Vector_baseIiSaIiEEC5ERKS0_,comdat
	.align	2
	.weak	_ZNSt12_Vector_baseIiSaIiEEC2ERKS0_
	.type	_ZNSt12_Vector_baseIiSaIiEEC2ERKS0_, %function
_ZNSt12_Vector_baseIiSaIiEEC2ERKS0_:
.LFB2761:
	.cfi_startproc
	stp	x29, x30, [sp, -32]!
	.cfi_def_cfa_offset 32
	.cfi_offset 29, -32
	.cfi_offset 30, -24
	mov	x29, sp
	str	x0, [sp, 24]
	str	x1, [sp, 16]
	ldr	x0, [sp, 24]
	ldr	x1, [sp, 16]
	bl	_ZNSt12_Vector_baseIiSaIiEE12_Vector_implC1ERKS0_
	nop
	ldp	x29, x30, [sp], 32
	.cfi_restore 30
	.cfi_restore 29
	.cfi_def_cfa_offset 0
	ret
	.cfi_endproc
.LFE2761:
	.size	_ZNSt12_Vector_baseIiSaIiEEC2ERKS0_, .-_ZNSt12_Vector_baseIiSaIiEEC2ERKS0_
	.weak	_ZNSt12_Vector_baseIiSaIiEEC1ERKS0_
	.set	_ZNSt12_Vector_baseIiSaIiEEC1ERKS0_,_ZNSt12_Vector_baseIiSaIiEEC2ERKS0_
	.section	.text._ZNSt12_Vector_baseIiSaIiEED2Ev,"axG",@progbits,_ZNSt12_Vector_baseIiSaIiEED5Ev,comdat
	.align	2
	.weak	_ZNSt12_Vector_baseIiSaIiEED2Ev
	.type	_ZNSt12_Vector_baseIiSaIiEED2Ev, %function
_ZNSt12_Vector_baseIiSaIiEED2Ev:
.LFB2764:
	.cfi_startproc
	.cfi_personality 0x9b,DW.ref.__gxx_personality_v0
	.cfi_lsda 0x1b,.LLSDA2764
	stp	x29, x30, [sp, -32]!
	.cfi_def_cfa_offset 32
	.cfi_offset 29, -32
	.cfi_offset 30, -24
	mov	x29, sp
	str	x0, [sp, 24]
	ldr	x0, [sp, 24]
	ldr	x3, [x0]
	ldr	x0, [sp, 24]
	ldr	x1, [x0, 16]
	ldr	x0, [sp, 24]
	ldr	x0, [x0]
	sub	x0, x1, x0
	asr	x0, x0, 2
	mov	x2, x0
	mov	x1, x3
	ldr	x0, [sp, 24]
	bl	_ZNSt12_Vector_baseIiSaIiEE13_M_deallocateEPim
	ldr	x0, [sp, 24]
	bl	_ZNSt12_Vector_baseIiSaIiEE12_Vector_implD1Ev
	nop
	ldp	x29, x30, [sp], 32
	.cfi_restore 30
	.cfi_restore 29
	.cfi_def_cfa_offset 0
	ret
	.cfi_endproc
.LFE2764:
	.section	.gcc_except_table
.LLSDA2764:
	.byte	0xff
	.byte	0xff
	.byte	0x1
	.uleb128 .LLSDACSE2764-.LLSDACSB2764
.LLSDACSB2764:
.LLSDACSE2764:
	.section	.text._ZNSt12_Vector_baseIiSaIiEED2Ev,"axG",@progbits,_ZNSt12_Vector_baseIiSaIiEED5Ev,comdat
	.size	_ZNSt12_Vector_baseIiSaIiEED2Ev, .-_ZNSt12_Vector_baseIiSaIiEED2Ev
	.weak	_ZNSt12_Vector_baseIiSaIiEED1Ev
	.set	_ZNSt12_Vector_baseIiSaIiEED1Ev,_ZNSt12_Vector_baseIiSaIiEED2Ev
	.section	.text._ZSt19__iterator_categoryISt15_Deque_iteratorIiRiPiEENSt15iterator_traitsIT_E17iterator_categoryERKS5_,"axG",@progbits,_ZSt19__iterator_categoryISt15_Deque_iteratorIiRiPiEENSt15iterator_traitsIT_E17iterator_categoryERKS5_,comdat
	.align	2
	.weak	_ZSt19__iterator_categoryISt15_Deque_iteratorIiRiPiEENSt15iterator_traitsIT_E17iterator_categoryERKS5_
	.type	_ZSt19__iterator_categoryISt15_Deque_iteratorIiRiPiEENSt15iterator_traitsIT_E17iterator_categoryERKS5_, %function
_ZSt19__iterator_categoryISt15_Deque_iteratorIiRiPiEENSt15iterator_traitsIT_E17iterator_categoryERKS5_:
.LFB2766:
	.cfi_startproc
	sub	sp, sp, #16
	.cfi_def_cfa_offset 16
	str	x0, [sp, 8]
	mov	w0, w1
	add	sp, sp, 16
	.cfi_def_cfa_offset 0
	ret
	.cfi_endproc
.LFE2766:
	.size	_ZSt19__iterator_categoryISt15_Deque_iteratorIiRiPiEENSt15iterator_traitsIT_E17iterator_categoryERKS5_, .-_ZSt19__iterator_categoryISt15_Deque_iteratorIiRiPiEENSt15iterator_traitsIT_E17iterator_categoryERKS5_
	.section	.text._ZNSt6vectorIiSaIiEE19_M_range_initializeISt15_Deque_iteratorIiRiPiEEEvT_S7_St20forward_iterator_tag,"axG",@progbits,_ZNSt6vectorIiSaIiEE19_M_range_initializeISt15_Deque_iteratorIiRiPiEEEvT_S7_St20forward_iterator_tag,comdat
	.align	2
	.weak	_ZNSt6vectorIiSaIiEE19_M_range_initializeISt15_Deque_iteratorIiRiPiEEEvT_S7_St20forward_iterator_tag
	.type	_ZNSt6vectorIiSaIiEE19_M_range_initializeISt15_Deque_iteratorIiRiPiEEEvT_S7_St20forward_iterator_tag, %function
_ZNSt6vectorIiSaIiEE19_M_range_initializeISt15_Deque_iteratorIiRiPiEEEvT_S7_St20forward_iterator_tag:
.LFB2767:
	.cfi_startproc
	stp	x29, x30, [sp, -144]!
	.cfi_def_cfa_offset 144
	.cfi_offset 29, -144
	.cfi_offset 30, -136
	mov	x29, sp
	str	x19, [sp, 16]
	.cfi_offset 19, -128
	str	x0, [sp, 56]
	str	x1, [sp, 48]
	str	x2, [sp, 40]
	strb	w3, [sp, 32]
	adrp	x0, :got:__stack_chk_guard
	ldr	x0, [x0, #:got_lo12:__stack_chk_guard]
	ldr	x1, [x0]
	str	x1, [sp, 136]
	mov	x1, 0
	add	x0, sp, 72
	ldr	x1, [sp, 48]
	bl	_ZNSt15_Deque_iteratorIiRiPiEC1ERKS2_
	add	x0, sp, 104
	ldr	x1, [sp, 40]
	bl	_ZNSt15_Deque_iteratorIiRiPiEC1ERKS2_
	add	x1, sp, 104
	add	x0, sp, 72
	bl	_ZSt8distanceISt15_Deque_iteratorIiRiPiEENSt15iterator_traitsIT_E15difference_typeES5_S5_
	str	x0, [sp, 64]
	ldr	x19, [sp, 56]
	ldr	x0, [sp, 56]
	bl	_ZNSt12_Vector_baseIiSaIiEE19_M_get_Tp_allocatorEv
	mov	x1, x0
	ldr	x0, [sp, 64]
	bl	_ZNSt6vectorIiSaIiEE17_S_check_init_lenEmRKS0_
	mov	x1, x0
	mov	x0, x19
	bl	_ZNSt12_Vector_baseIiSaIiEE11_M_allocateEm
	mov	x1, x0
	ldr	x0, [sp, 56]
	str	x1, [x0]
	ldr	x0, [sp, 56]
	ldr	x1, [x0]
	ldr	x0, [sp, 64]
	lsl	x0, x0, 2
	add	x1, x1, x0
	ldr	x0, [sp, 56]
	str	x1, [x0, 16]
	add	x0, sp, 72
	ldr	x1, [sp, 48]
	bl	_ZNSt15_Deque_iteratorIiRiPiEC1ERKS2_
	add	x0, sp, 104
	ldr	x1, [sp, 40]
	bl	_ZNSt15_Deque_iteratorIiRiPiEC1ERKS2_
	ldr	x0, [sp, 56]
	ldr	x19, [x0]
	ldr	x0, [sp, 56]
	bl	_ZNSt12_Vector_baseIiSaIiEE19_M_get_Tp_allocatorEv
	mov	x2, x0
	add	x1, sp, 104
	add	x0, sp, 72
	mov	x3, x2
	mov	x2, x19
	bl	_ZSt22__uninitialized_copy_aISt15_Deque_iteratorIiRiPiES2_iET0_T_S5_S4_RSaIT1_E
	mov	x1, x0
	ldr	x0, [sp, 56]
	str	x1, [x0, 8]
	nop
	adrp	x0, :got:__stack_chk_guard
	ldr	x0, [x0, #:got_lo12:__stack_chk_guard]
	ldr	x2, [sp, 136]
	ldr	x1, [x0]
	subs	x2, x2, x1
	mov	x1, 0
	beq	.L179
	bl	__stack_chk_fail
.L179:
	ldr	x19, [sp, 16]
	ldp	x29, x30, [sp], 144
	.cfi_restore 30
	.cfi_restore 29
	.cfi_restore 19
	.cfi_def_cfa_offset 0
	ret
	.cfi_endproc
.LFE2767:
	.size	_ZNSt6vectorIiSaIiEE19_M_range_initializeISt15_Deque_iteratorIiRiPiEEEvT_S7_St20forward_iterator_tag, .-_ZNSt6vectorIiSaIiEE19_M_range_initializeISt15_Deque_iteratorIiRiPiEEEvT_S7_St20forward_iterator_tag
	.section	.text._ZNSt12_Vector_baseIiSaIiEE19_M_get_Tp_allocatorEv,"axG",@progbits,_ZNSt12_Vector_baseIiSaIiEE19_M_get_Tp_allocatorEv,comdat
	.align	2
	.weak	_ZNSt12_Vector_baseIiSaIiEE19_M_get_Tp_allocatorEv
	.type	_ZNSt12_Vector_baseIiSaIiEE19_M_get_Tp_allocatorEv, %function
_ZNSt12_Vector_baseIiSaIiEE19_M_get_Tp_allocatorEv:
.LFB2768:
	.cfi_startproc
	sub	sp, sp, #16
	.cfi_def_cfa_offset 16
	str	x0, [sp, 8]
	ldr	x0, [sp, 8]
	add	sp, sp, 16
	.cfi_def_cfa_offset 0
	ret
	.cfi_endproc
.LFE2768:
	.size	_ZNSt12_Vector_baseIiSaIiEE19_M_get_Tp_allocatorEv, .-_ZNSt12_Vector_baseIiSaIiEE19_M_get_Tp_allocatorEv
	.section	.text._ZSt8_DestroyIPiiEvT_S1_RSaIT0_E,"axG",@progbits,_ZSt8_DestroyIPiiEvT_S1_RSaIT0_E,comdat
	.align	2
	.weak	_ZSt8_DestroyIPiiEvT_S1_RSaIT0_E
	.type	_ZSt8_DestroyIPiiEvT_S1_RSaIT0_E, %function
_ZSt8_DestroyIPiiEvT_S1_RSaIT0_E:
.LFB2769:
	.cfi_startproc
	stp	x29, x30, [sp, -48]!
	.cfi_def_cfa_offset 48
	.cfi_offset 29, -48
	.cfi_offset 30, -40
	mov	x29, sp
	str	x0, [sp, 40]
	str	x1, [sp, 32]
	str	x2, [sp, 24]
	ldr	x1, [sp, 32]
	ldr	x0, [sp, 40]
	bl	_ZSt8_DestroyIPiEvT_S1_
	nop
	ldp	x29, x30, [sp], 48
	.cfi_restore 30
	.cfi_restore 29
	.cfi_def_cfa_offset 0
	ret
	.cfi_endproc
.LFE2769:
	.size	_ZSt8_DestroyIPiiEvT_S1_RSaIT0_E, .-_ZSt8_DestroyIPiiEvT_S1_RSaIT0_E
	.section	.text._ZSt4moveIRSt6vectorIiSaIiEEEONSt16remove_referenceIT_E4typeEOS5_,"axG",@progbits,_ZSt4moveIRSt6vectorIiSaIiEEEONSt16remove_referenceIT_E4typeEOS5_,comdat
	.align	2
	.weak	_ZSt4moveIRSt6vectorIiSaIiEEEONSt16remove_referenceIT_E4typeEOS5_
	.type	_ZSt4moveIRSt6vectorIiSaIiEEEONSt16remove_referenceIT_E4typeEOS5_, %function
_ZSt4moveIRSt6vectorIiSaIiEEEONSt16remove_referenceIT_E4typeEOS5_:
.LFB2770:
	.cfi_startproc
	sub	sp, sp, #16
	.cfi_def_cfa_offset 16
	str	x0, [sp, 8]
	ldr	x0, [sp, 8]
	add	sp, sp, 16
	.cfi_def_cfa_offset 0
	ret
	.cfi_endproc
.LFE2770:
	.size	_ZSt4moveIRSt6vectorIiSaIiEEEONSt16remove_referenceIT_E4typeEOS5_, .-_ZSt4moveIRSt6vectorIiSaIiEEEONSt16remove_referenceIT_E4typeEOS5_
	.section	.text._ZNSt6vectorIS_IiSaIiEESaIS1_EE12emplace_backIJS1_EEERS1_DpOT_,"axG",@progbits,_ZNSt6vectorIS_IiSaIiEESaIS1_EE12emplace_backIJS1_EEERS1_DpOT_,comdat
	.align	2
	.weak	_ZNSt6vectorIS_IiSaIiEESaIS1_EE12emplace_backIJS1_EEERS1_DpOT_
	.type	_ZNSt6vectorIS_IiSaIiEESaIS1_EE12emplace_backIJS1_EEERS1_DpOT_, %function
_ZNSt6vectorIS_IiSaIiEESaIS1_EE12emplace_backIJS1_EEERS1_DpOT_:
.LFB2771:
	.cfi_startproc
	stp	x29, x30, [sp, -48]!
	.cfi_def_cfa_offset 48
	.cfi_offset 29, -48
	.cfi_offset 30, -40
	mov	x29, sp
	stp	x19, x20, [sp, 16]
	.cfi_offset 19, -32
	.cfi_offset 20, -24
	str	x0, [sp, 40]
	str	x1, [sp, 32]
	ldr	x0, [sp, 40]
	ldr	x1, [x0, 8]
	ldr	x0, [sp, 40]
	ldr	x0, [x0, 16]
	cmp	x1, x0
	beq	.L186
	ldr	x19, [sp, 40]
	ldr	x0, [sp, 40]
	ldr	x20, [x0, 8]
	ldr	x0, [sp, 32]
	bl	_ZSt7forwardISt6vectorIiSaIiEEEOT_RNSt16remove_referenceIS3_E4typeE
	mov	x2, x0
	mov	x1, x20
	mov	x0, x19
	bl	_ZNSt16allocator_traitsISaISt6vectorIiSaIiEEEE9constructIS2_JS2_EEEvRS3_PT_DpOT0_
	ldr	x0, [sp, 40]
	ldr	x0, [x0, 8]
	add	x1, x0, 24
	ldr	x0, [sp, 40]
	str	x1, [x0, 8]
	b	.L187
.L186:
	ldr	x0, [sp, 40]
	bl	_ZNSt6vectorIS_IiSaIiEESaIS1_EE3endEv
	mov	x19, x0
	ldr	x0, [sp, 32]
	bl	_ZSt7forwardISt6vectorIiSaIiEEEOT_RNSt16remove_referenceIS3_E4typeE
	mov	x2, x0
	mov	x1, x19
	ldr	x0, [sp, 40]
	bl	_ZNSt6vectorIS_IiSaIiEESaIS1_EE17_M_realloc_insertIJS1_EEEvN9__gnu_cxx17__normal_iteratorIPS1_S3_EEDpOT_
.L187:
	ldr	x0, [sp, 40]
	bl	_ZNSt6vectorIS_IiSaIiEESaIS1_EE4backEv
	ldp	x19, x20, [sp, 16]
	ldp	x29, x30, [sp], 48
	.cfi_restore 30
	.cfi_restore 29
	.cfi_restore 19
	.cfi_restore 20
	.cfi_def_cfa_offset 0
	ret
	.cfi_endproc
.LFE2771:
	.size	_ZNSt6vectorIS_IiSaIiEESaIS1_EE12emplace_backIJS1_EEERS1_DpOT_, .-_ZNSt6vectorIS_IiSaIiEESaIS1_EE12emplace_backIJS1_EEERS1_DpOT_
	.section	.text._ZNSt6vectorIbSaIbEE5beginEv,"axG",@progbits,_ZNSt6vectorIbSaIbEE5beginEv,comdat
	.align	2
	.weak	_ZNSt6vectorIbSaIbEE5beginEv
	.type	_ZNSt6vectorIbSaIbEE5beginEv, %function
_ZNSt6vectorIbSaIbEE5beginEv:
.LFB2773:
	.cfi_startproc
	stp	x29, x30, [sp, -96]!
	.cfi_def_cfa_offset 96
	.cfi_offset 29, -96
	.cfi_offset 30, -88
	mov	x29, sp
	stp	x20, x21, [sp, 16]
	.cfi_offset 20, -80
	.cfi_offset 21, -72
	str	x0, [sp, 40]
	adrp	x0, :got:__stack_chk_guard
	ldr	x0, [x0, #:got_lo12:__stack_chk_guard]
	ldr	x1, [x0]
	str	x1, [sp, 88]
	mov	x1, 0
	ldr	x0, [sp, 40]
	ldr	x1, [x0]
	add	x0, sp, 56
	mov	w2, 0
	bl	_ZNSt13_Bit_iteratorC1EPmj
	ldp	x0, x1, [sp, 56]
	stp	x0, x1, [sp, 72]
	ldr	x1, [sp, 72]
	ldr	x0, [sp, 80]
	mov	x20, x1
	mov	x21, x0
	mov	x2, x20
	mov	x3, x21
	adrp	x0, :got:__stack_chk_guard
	ldr	x0, [x0, #:got_lo12:__stack_chk_guard]
	ldr	x4, [sp, 88]
	ldr	x1, [x0]
	subs	x4, x4, x1
	mov	x1, 0
	beq	.L191
	bl	__stack_chk_fail
.L191:
	mov	x0, x2
	mov	x1, x3
	ldp	x20, x21, [sp, 16]
	ldp	x29, x30, [sp], 96
	.cfi_restore 30
	.cfi_restore 29
	.cfi_restore 20
	.cfi_restore 21
	.cfi_def_cfa_offset 0
	ret
	.cfi_endproc
.LFE2773:
	.size	_ZNSt6vectorIbSaIbEE5beginEv, .-_ZNSt6vectorIbSaIbEE5beginEv
	.section	.text._ZNSt16allocator_traitsISaIiEE9constructIiJRKiEEEvRS0_PT_DpOT0_,"axG",@progbits,_ZNSt16allocator_traitsISaIiEE9constructIiJRKiEEEvRS0_PT_DpOT0_,comdat
	.align	2
	.weak	_ZNSt16allocator_traitsISaIiEE9constructIiJRKiEEEvRS0_PT_DpOT0_
	.type	_ZNSt16allocator_traitsISaIiEE9constructIiJRKiEEEvRS0_PT_DpOT0_, %function
_ZNSt16allocator_traitsISaIiEE9constructIiJRKiEEEvRS0_PT_DpOT0_:
.LFB2774:
	.cfi_startproc
	stp	x29, x30, [sp, -48]!
	.cfi_def_cfa_offset 48
	.cfi_offset 29, -48
	.cfi_offset 30, -40
	mov	x29, sp
	str	x0, [sp, 40]
	str	x1, [sp, 32]
	str	x2, [sp, 24]
	ldr	x0, [sp, 24]
	bl	_ZSt7forwardIRKiEOT_RNSt16remove_referenceIS2_E4typeE
	mov	x2, x0
	ldr	x1, [sp, 32]
	ldr	x0, [sp, 40]
	bl	_ZN9__gnu_cxx13new_allocatorIiE9constructIiJRKiEEEvPT_DpOT0_
	nop
	ldp	x29, x30, [sp], 48
	.cfi_restore 30
	.cfi_restore 29
	.cfi_def_cfa_offset 0
	ret
	.cfi_endproc
.LFE2774:
	.size	_ZNSt16allocator_traitsISaIiEE9constructIiJRKiEEEvRS0_PT_DpOT0_, .-_ZNSt16allocator_traitsISaIiEE9constructIiJRKiEEEvRS0_PT_DpOT0_
	.section	.rodata
	.align	3
.LC3:
	.string	"cannot create std::deque larger than max_size()"
	.section	.text._ZNSt5dequeIiSaIiEE16_M_push_back_auxIJRKiEEEvDpOT_,"axG",@progbits,_ZNSt5dequeIiSaIiEE16_M_push_back_auxIJRKiEEEvDpOT_,comdat
	.align	2
	.weak	_ZNSt5dequeIiSaIiEE16_M_push_back_auxIJRKiEEEvDpOT_
	.type	_ZNSt5dequeIiSaIiEE16_M_push_back_auxIJRKiEEEvDpOT_, %function
_ZNSt5dequeIiSaIiEE16_M_push_back_auxIJRKiEEEvDpOT_:
.LFB2775:
	.cfi_startproc
	stp	x29, x30, [sp, -48]!
	.cfi_def_cfa_offset 48
	.cfi_offset 29, -48
	.cfi_offset 30, -40
	mov	x29, sp
	stp	x19, x20, [sp, 16]
	.cfi_offset 19, -32
	.cfi_offset 20, -24
	str	x0, [sp, 40]
	str	x1, [sp, 32]
	ldr	x0, [sp, 40]
	bl	_ZNKSt5dequeIiSaIiEE4sizeEv
	mov	x19, x0
	ldr	x0, [sp, 40]
	bl	_ZNKSt5dequeIiSaIiEE8max_sizeEv
	cmp	x19, x0
	cset	w0, eq
	and	w0, w0, 255
	cmp	w0, 0
	beq	.L194
	adrp	x0, .LC3
	add	x0, x0, :lo12:.LC3
	bl	_ZSt20__throw_length_errorPKc
.L194:
	mov	x1, 1
	ldr	x0, [sp, 40]
	bl	_ZNSt5dequeIiSaIiEE22_M_reserve_map_at_backEm
	ldr	x1, [sp, 40]
	ldr	x0, [sp, 40]
	ldr	x0, [x0, 72]
	add	x19, x0, 8
	mov	x0, x1
	bl	_ZNSt11_Deque_baseIiSaIiEE16_M_allocate_nodeEv
	str	x0, [x19]
	ldr	x19, [sp, 40]
	ldr	x0, [sp, 40]
	ldr	x20, [x0, 48]
	ldr	x0, [sp, 32]
	bl	_ZSt7forwardIRKiEOT_RNSt16remove_referenceIS2_E4typeE
	mov	x2, x0
	mov	x1, x20
	mov	x0, x19
	bl	_ZNSt16allocator_traitsISaIiEE9constructIiJRKiEEEvRS0_PT_DpOT0_
	ldr	x0, [sp, 40]
	add	x2, x0, 48
	ldr	x0, [sp, 40]
	ldr	x0, [x0, 72]
	add	x0, x0, 8
	mov	x1, x0
	mov	x0, x2
	bl	_ZNSt15_Deque_iteratorIiRiPiE11_M_set_nodeEPS1_
	ldr	x0, [sp, 40]
	ldr	x1, [x0, 56]
	ldr	x0, [sp, 40]
	str	x1, [x0, 48]
	nop
	ldp	x19, x20, [sp, 16]
	ldp	x29, x30, [sp], 48
	.cfi_restore 30
	.cfi_restore 29
	.cfi_restore 19
	.cfi_restore 20
	.cfi_def_cfa_offset 0
	ret
	.cfi_endproc
.LFE2775:
	.size	_ZNSt5dequeIiSaIiEE16_M_push_back_auxIJRKiEEEvDpOT_, .-_ZNSt5dequeIiSaIiEE16_M_push_back_auxIJRKiEEEvDpOT_
	.section	.text._ZNSt16allocator_traitsISaIiEE7destroyIiEEvRS0_PT_,"axG",@progbits,_ZNSt16allocator_traitsISaIiEE7destroyIiEEvRS0_PT_,comdat
	.align	2
	.weak	_ZNSt16allocator_traitsISaIiEE7destroyIiEEvRS0_PT_
	.type	_ZNSt16allocator_traitsISaIiEE7destroyIiEEvRS0_PT_, %function
_ZNSt16allocator_traitsISaIiEE7destroyIiEEvRS0_PT_:
.LFB2776:
	.cfi_startproc
	stp	x29, x30, [sp, -32]!
	.cfi_def_cfa_offset 32
	.cfi_offset 29, -32
	.cfi_offset 30, -24
	mov	x29, sp
	str	x0, [sp, 24]
	str	x1, [sp, 16]
	ldr	x1, [sp, 16]
	ldr	x0, [sp, 24]
	bl	_ZN9__gnu_cxx13new_allocatorIiE7destroyIiEEvPT_
	nop
	ldp	x29, x30, [sp], 32
	.cfi_restore 30
	.cfi_restore 29
	.cfi_def_cfa_offset 0
	ret
	.cfi_endproc
.LFE2776:
	.size	_ZNSt16allocator_traitsISaIiEE7destroyIiEEvRS0_PT_, .-_ZNSt16allocator_traitsISaIiEE7destroyIiEEvRS0_PT_
	.section	.text._ZNSt5dequeIiSaIiEE15_M_pop_back_auxEv,"axG",@progbits,_ZNSt5dequeIiSaIiEE15_M_pop_back_auxEv,comdat
	.align	2
	.weak	_ZNSt5dequeIiSaIiEE15_M_pop_back_auxEv
	.type	_ZNSt5dequeIiSaIiEE15_M_pop_back_auxEv, %function
_ZNSt5dequeIiSaIiEE15_M_pop_back_auxEv:
.LFB2777:
	.cfi_startproc
	stp	x29, x30, [sp, -32]!
	.cfi_def_cfa_offset 32
	.cfi_offset 29, -32
	.cfi_offset 30, -24
	mov	x29, sp
	str	x0, [sp, 24]
	ldr	x2, [sp, 24]
	ldr	x0, [sp, 24]
	ldr	x0, [x0, 56]
	mov	x1, x0
	mov	x0, x2
	bl	_ZNSt11_Deque_baseIiSaIiEE18_M_deallocate_nodeEPi
	ldr	x0, [sp, 24]
	add	x2, x0, 48
	ldr	x0, [sp, 24]
	ldr	x0, [x0, 72]
	sub	x0, x0, #8
	mov	x1, x0
	mov	x0, x2
	bl	_ZNSt15_Deque_iteratorIiRiPiE11_M_set_nodeEPS1_
	ldr	x0, [sp, 24]
	ldr	x0, [x0, 64]
	sub	x1, x0, #4
	ldr	x0, [sp, 24]
	str	x1, [x0, 48]
	ldr	x0, [sp, 24]
	bl	_ZNSt11_Deque_baseIiSaIiEE19_M_get_Tp_allocatorEv
	mov	x2, x0
	ldr	x0, [sp, 24]
	ldr	x0, [x0, 48]
	mov	x1, x0
	mov	x0, x2
	bl	_ZNSt16allocator_traitsISaIiEE7destroyIiEEvRS0_PT_
	nop
	ldp	x29, x30, [sp], 32
	.cfi_restore 30
	.cfi_restore 29
	.cfi_def_cfa_offset 0
	ret
	.cfi_endproc
.LFE2777:
	.size	_ZNSt5dequeIiSaIiEE15_M_pop_back_auxEv, .-_ZNSt5dequeIiSaIiEE15_M_pop_back_auxEv
	.section	.text._ZNKSt16initializer_listIiE5beginEv,"axG",@progbits,_ZNKSt16initializer_listIiE5beginEv,comdat
	.align	2
	.weak	_ZNKSt16initializer_listIiE5beginEv
	.type	_ZNKSt16initializer_listIiE5beginEv, %function
_ZNKSt16initializer_listIiE5beginEv:
.LFB2778:
	.cfi_startproc
	sub	sp, sp, #16
	.cfi_def_cfa_offset 16
	str	x0, [sp, 8]
	ldr	x0, [sp, 8]
	ldr	x0, [x0]
	add	sp, sp, 16
	.cfi_def_cfa_offset 0
	ret
	.cfi_endproc
.LFE2778:
	.size	_ZNKSt16initializer_listIiE5beginEv, .-_ZNKSt16initializer_listIiE5beginEv
	.section	.text._ZNKSt16initializer_listIiE3endEv,"axG",@progbits,_ZNKSt16initializer_listIiE3endEv,comdat
	.align	2
	.weak	_ZNKSt16initializer_listIiE3endEv
	.type	_ZNKSt16initializer_listIiE3endEv, %function
_ZNKSt16initializer_listIiE3endEv:
.LFB2779:
	.cfi_startproc
	stp	x29, x30, [sp, -48]!
	.cfi_def_cfa_offset 48
	.cfi_offset 29, -48
	.cfi_offset 30, -40
	mov	x29, sp
	str	x19, [sp, 16]
	.cfi_offset 19, -32
	str	x0, [sp, 40]
	ldr	x0, [sp, 40]
	bl	_ZNKSt16initializer_listIiE5beginEv
	mov	x19, x0
	ldr	x0, [sp, 40]
	bl	_ZNKSt16initializer_listIiE4sizeEv
	lsl	x0, x0, 2
	add	x0, x19, x0
	ldr	x19, [sp, 16]
	ldp	x29, x30, [sp], 48
	.cfi_restore 30
	.cfi_restore 29
	.cfi_restore 19
	.cfi_def_cfa_offset 0
	ret
	.cfi_endproc
.LFE2779:
	.size	_ZNKSt16initializer_listIiE3endEv, .-_ZNKSt16initializer_listIiE3endEv
	.section	.text._ZSt8distanceIPKiENSt15iterator_traitsIT_E15difference_typeES3_S3_,"axG",@progbits,_ZSt8distanceIPKiENSt15iterator_traitsIT_E15difference_typeES3_S3_,comdat
	.align	2
	.weak	_ZSt8distanceIPKiENSt15iterator_traitsIT_E15difference_typeES3_S3_
	.type	_ZSt8distanceIPKiENSt15iterator_traitsIT_E15difference_typeES3_S3_, %function
_ZSt8distanceIPKiENSt15iterator_traitsIT_E15difference_typeES3_S3_:
.LFB2781:
	.cfi_startproc
	stp	x29, x30, [sp, -48]!
	.cfi_def_cfa_offset 48
	.cfi_offset 29, -48
	.cfi_offset 30, -40
	mov	x29, sp
	stp	x19, x20, [sp, 16]
	.cfi_offset 19, -32
	.cfi_offset 20, -24
	str	x0, [sp, 40]
	str	x1, [sp, 32]
	ldr	x19, [sp, 40]
	add	x0, sp, 40
	bl	_ZSt19__iterator_categoryIPKiENSt15iterator_traitsIT_E17iterator_categoryERKS3_
	mov	w2, w20
	ldr	x1, [sp, 32]
	mov	x0, x19
	bl	_ZSt10__distanceIPKiENSt15iterator_traitsIT_E15difference_typeES3_S3_St26random_access_iterator_tag
	ldp	x19, x20, [sp, 16]
	ldp	x29, x30, [sp], 48
	.cfi_restore 30
	.cfi_restore 29
	.cfi_restore 19
	.cfi_restore 20
	.cfi_def_cfa_offset 0
	ret
	.cfi_endproc
.LFE2781:
	.size	_ZSt8distanceIPKiENSt15iterator_traitsIT_E15difference_typeES3_S3_, .-_ZSt8distanceIPKiENSt15iterator_traitsIT_E15difference_typeES3_S3_
	.section	.text._ZNSt6vectorIiSaIiEE19_M_range_initializeIPKiEEvT_S5_St20forward_iterator_tag,"axG",@progbits,_ZNSt6vectorIiSaIiEE19_M_range_initializeIPKiEEvT_S5_St20forward_iterator_tag,comdat
	.align	2
	.weak	_ZNSt6vectorIiSaIiEE19_M_range_initializeIPKiEEvT_S5_St20forward_iterator_tag
	.type	_ZNSt6vectorIiSaIiEE19_M_range_initializeIPKiEEvT_S5_St20forward_iterator_tag, %function
_ZNSt6vectorIiSaIiEE19_M_range_initializeIPKiEEvT_S5_St20forward_iterator_tag:
.LFB2780:
	.cfi_startproc
	stp	x29, x30, [sp, -80]!
	.cfi_def_cfa_offset 80
	.cfi_offset 29, -80
	.cfi_offset 30, -72
	mov	x29, sp
	str	x19, [sp, 16]
	.cfi_offset 19, -64
	str	x0, [sp, 56]
	str	x1, [sp, 48]
	str	x2, [sp, 40]
	strb	w3, [sp, 32]
	ldr	x1, [sp, 40]
	ldr	x0, [sp, 48]
	bl	_ZSt8distanceIPKiENSt15iterator_traitsIT_E15difference_typeES3_S3_
	str	x0, [sp, 72]
	ldr	x19, [sp, 56]
	ldr	x0, [sp, 56]
	bl	_ZNSt12_Vector_baseIiSaIiEE19_M_get_Tp_allocatorEv
	mov	x1, x0
	ldr	x0, [sp, 72]
	bl	_ZNSt6vectorIiSaIiEE17_S_check_init_lenEmRKS0_
	mov	x1, x0
	mov	x0, x19
	bl	_ZNSt12_Vector_baseIiSaIiEE11_M_allocateEm
	mov	x1, x0
	ldr	x0, [sp, 56]
	str	x1, [x0]
	ldr	x0, [sp, 56]
	ldr	x1, [x0]
	ldr	x0, [sp, 72]
	lsl	x0, x0, 2
	add	x1, x1, x0
	ldr	x0, [sp, 56]
	str	x1, [x0, 16]
	ldr	x0, [sp, 56]
	ldr	x19, [x0]
	ldr	x0, [sp, 56]
	bl	_ZNSt12_Vector_baseIiSaIiEE19_M_get_Tp_allocatorEv
	mov	x3, x0
	mov	x2, x19
	ldr	x1, [sp, 40]
	ldr	x0, [sp, 48]
	bl	_ZSt22__uninitialized_copy_aIPKiPiiET0_T_S4_S3_RSaIT1_E
	mov	x1, x0
	ldr	x0, [sp, 56]
	str	x1, [x0, 8]
	nop
	ldr	x19, [sp, 16]
	ldp	x29, x30, [sp], 80
	.cfi_restore 30
	.cfi_restore 29
	.cfi_restore 19
	.cfi_def_cfa_offset 0
	ret
	.cfi_endproc
.LFE2780:
	.size	_ZNSt6vectorIiSaIiEE19_M_range_initializeIPKiEEvT_S5_St20forward_iterator_tag, .-_ZNSt6vectorIiSaIiEE19_M_range_initializeIPKiEEvT_S5_St20forward_iterator_tag
	.section	.text._ZNKSt6vectorIS_IiSaIiEESaIS1_EE5beginEv,"axG",@progbits,_ZNKSt6vectorIS_IiSaIiEESaIS1_EE5beginEv,comdat
	.align	2
	.weak	_ZNKSt6vectorIS_IiSaIiEESaIS1_EE5beginEv
	.type	_ZNKSt6vectorIS_IiSaIiEESaIS1_EE5beginEv, %function
_ZNKSt6vectorIS_IiSaIiEESaIS1_EE5beginEv:
.LFB2785:
	.cfi_startproc
	stp	x29, x30, [sp, -48]!
	.cfi_def_cfa_offset 48
	.cfi_offset 29, -48
	.cfi_offset 30, -40
	mov	x29, sp
	str	x0, [sp, 24]
	adrp	x0, :got:__stack_chk_guard
	ldr	x0, [x0, #:got_lo12:__stack_chk_guard]
	ldr	x1, [x0]
	str	x1, [sp, 40]
	mov	x1, 0
	ldr	x1, [sp, 24]
	add	x0, sp, 32
	bl	_ZN9__gnu_cxx17__normal_iteratorIPKSt6vectorIiSaIiEES1_IS3_SaIS3_EEEC1ERKS5_
	ldr	x0, [sp, 32]
	mov	x1, x0
	adrp	x0, :got:__stack_chk_guard
	ldr	x0, [x0, #:got_lo12:__stack_chk_guard]
	ldr	x3, [sp, 40]
	ldr	x2, [x0]
	subs	x3, x3, x2
	mov	x2, 0
	beq	.L206
	bl	__stack_chk_fail
.L206:
	mov	x0, x1
	ldp	x29, x30, [sp], 48
	.cfi_restore 30
	.cfi_restore 29
	.cfi_def_cfa_offset 0
	ret
	.cfi_endproc
.LFE2785:
	.size	_ZNKSt6vectorIS_IiSaIiEESaIS1_EE5beginEv, .-_ZNKSt6vectorIS_IiSaIiEESaIS1_EE5beginEv
	.section	.text._ZNKSt6vectorIS_IiSaIiEESaIS1_EE3endEv,"axG",@progbits,_ZNKSt6vectorIS_IiSaIiEESaIS1_EE3endEv,comdat
	.align	2
	.weak	_ZNKSt6vectorIS_IiSaIiEESaIS1_EE3endEv
	.type	_ZNKSt6vectorIS_IiSaIiEESaIS1_EE3endEv, %function
_ZNKSt6vectorIS_IiSaIiEESaIS1_EE3endEv:
.LFB2786:
	.cfi_startproc
	stp	x29, x30, [sp, -48]!
	.cfi_def_cfa_offset 48
	.cfi_offset 29, -48
	.cfi_offset 30, -40
	mov	x29, sp
	str	x0, [sp, 24]
	adrp	x0, :got:__stack_chk_guard
	ldr	x0, [x0, #:got_lo12:__stack_chk_guard]
	ldr	x1, [x0]
	str	x1, [sp, 40]
	mov	x1, 0
	ldr	x0, [sp, 24]
	add	x1, x0, 8
	add	x0, sp, 32
	bl	_ZN9__gnu_cxx17__normal_iteratorIPKSt6vectorIiSaIiEES1_IS3_SaIS3_EEEC1ERKS5_
	ldr	x0, [sp, 32]
	mov	x1, x0
	adrp	x0, :got:__stack_chk_guard
	ldr	x0, [x0, #:got_lo12:__stack_chk_guard]
	ldr	x3, [sp, 40]
	ldr	x2, [x0]
	subs	x3, x3, x2
	mov	x2, 0
	beq	.L209
	bl	__stack_chk_fail
.L209:
	mov	x0, x1
	ldp	x29, x30, [sp], 48
	.cfi_restore 30
	.cfi_restore 29
	.cfi_def_cfa_offset 0
	ret
	.cfi_endproc
.LFE2786:
	.size	_ZNKSt6vectorIS_IiSaIiEESaIS1_EE3endEv, .-_ZNKSt6vectorIS_IiSaIiEESaIS1_EE3endEv
	.section	.text._ZN9__gnu_cxxneIPKSt6vectorIiSaIiEES1_IS3_SaIS3_EEEEbRKNS_17__normal_iteratorIT_T0_EESD_,"axG",@progbits,_ZN9__gnu_cxxneIPKSt6vectorIiSaIiEES1_IS3_SaIS3_EEEEbRKNS_17__normal_iteratorIT_T0_EESD_,comdat
	.align	2
	.weak	_ZN9__gnu_cxxneIPKSt6vectorIiSaIiEES1_IS3_SaIS3_EEEEbRKNS_17__normal_iteratorIT_T0_EESD_
	.type	_ZN9__gnu_cxxneIPKSt6vectorIiSaIiEES1_IS3_SaIS3_EEEEbRKNS_17__normal_iteratorIT_T0_EESD_, %function
_ZN9__gnu_cxxneIPKSt6vectorIiSaIiEES1_IS3_SaIS3_EEEEbRKNS_17__normal_iteratorIT_T0_EESD_:
.LFB2787:
	.cfi_startproc
	stp	x29, x30, [sp, -48]!
	.cfi_def_cfa_offset 48
	.cfi_offset 29, -48
	.cfi_offset 30, -40
	mov	x29, sp
	str	x19, [sp, 16]
	.cfi_offset 19, -32
	str	x0, [sp, 40]
	str	x1, [sp, 32]
	ldr	x0, [sp, 40]
	bl	_ZNK9__gnu_cxx17__normal_iteratorIPKSt6vectorIiSaIiEES1_IS3_SaIS3_EEE4baseEv
	ldr	x19, [x0]
	ldr	x0, [sp, 32]
	bl	_ZNK9__gnu_cxx17__normal_iteratorIPKSt6vectorIiSaIiEES1_IS3_SaIS3_EEE4baseEv
	ldr	x0, [x0]
	cmp	x19, x0
	cset	w0, ne
	and	w0, w0, 255
	ldr	x19, [sp, 16]
	ldp	x29, x30, [sp], 48
	.cfi_restore 30
	.cfi_restore 29
	.cfi_restore 19
	.cfi_def_cfa_offset 0
	ret
	.cfi_endproc
.LFE2787:
	.size	_ZN9__gnu_cxxneIPKSt6vectorIiSaIiEES1_IS3_SaIS3_EEEEbRKNS_17__normal_iteratorIT_T0_EESD_, .-_ZN9__gnu_cxxneIPKSt6vectorIiSaIiEES1_IS3_SaIS3_EEEEbRKNS_17__normal_iteratorIT_T0_EESD_
	.section	.text._ZN9__gnu_cxx17__normal_iteratorIPKSt6vectorIiSaIiEES1_IS3_SaIS3_EEEppEv,"axG",@progbits,_ZN9__gnu_cxx17__normal_iteratorIPKSt6vectorIiSaIiEES1_IS3_SaIS3_EEEppEv,comdat
	.align	2
	.weak	_ZN9__gnu_cxx17__normal_iteratorIPKSt6vectorIiSaIiEES1_IS3_SaIS3_EEEppEv
	.type	_ZN9__gnu_cxx17__normal_iteratorIPKSt6vectorIiSaIiEES1_IS3_SaIS3_EEEppEv, %function
_ZN9__gnu_cxx17__normal_iteratorIPKSt6vectorIiSaIiEES1_IS3_SaIS3_EEEppEv:
.LFB2788:
	.cfi_startproc
	sub	sp, sp, #16
	.cfi_def_cfa_offset 16
	str	x0, [sp, 8]
	ldr	x0, [sp, 8]
	ldr	x0, [x0]
	add	x1, x0, 24
	ldr	x0, [sp, 8]
	str	x1, [x0]
	ldr	x0, [sp, 8]
	add	sp, sp, 16
	.cfi_def_cfa_offset 0
	ret
	.cfi_endproc
.LFE2788:
	.size	_ZN9__gnu_cxx17__normal_iteratorIPKSt6vectorIiSaIiEES1_IS3_SaIS3_EEEppEv, .-_ZN9__gnu_cxx17__normal_iteratorIPKSt6vectorIiSaIiEES1_IS3_SaIS3_EEEppEv
	.section	.text._ZNK9__gnu_cxx17__normal_iteratorIPKSt6vectorIiSaIiEES1_IS3_SaIS3_EEEdeEv,"axG",@progbits,_ZNK9__gnu_cxx17__normal_iteratorIPKSt6vectorIiSaIiEES1_IS3_SaIS3_EEEdeEv,comdat
	.align	2
	.weak	_ZNK9__gnu_cxx17__normal_iteratorIPKSt6vectorIiSaIiEES1_IS3_SaIS3_EEEdeEv
	.type	_ZNK9__gnu_cxx17__normal_iteratorIPKSt6vectorIiSaIiEES1_IS3_SaIS3_EEEdeEv, %function
_ZNK9__gnu_cxx17__normal_iteratorIPKSt6vectorIiSaIiEES1_IS3_SaIS3_EEEdeEv:
.LFB2789:
	.cfi_startproc
	sub	sp, sp, #16
	.cfi_def_cfa_offset 16
	str	x0, [sp, 8]
	ldr	x0, [sp, 8]
	ldr	x0, [x0]
	add	sp, sp, 16
	.cfi_def_cfa_offset 0
	ret
	.cfi_endproc
.LFE2789:
	.size	_ZNK9__gnu_cxx17__normal_iteratorIPKSt6vectorIiSaIiEES1_IS3_SaIS3_EEEdeEv, .-_ZNK9__gnu_cxx17__normal_iteratorIPKSt6vectorIiSaIiEES1_IS3_SaIS3_EEEdeEv
	.section	.text._ZN9__gnu_cxxneIPKiSt6vectorIiSaIiEEEEbRKNS_17__normal_iteratorIT_T0_EESB_,"axG",@progbits,_ZN9__gnu_cxxneIPKiSt6vectorIiSaIiEEEEbRKNS_17__normal_iteratorIT_T0_EESB_,comdat
	.align	2
	.weak	_ZN9__gnu_cxxneIPKiSt6vectorIiSaIiEEEEbRKNS_17__normal_iteratorIT_T0_EESB_
	.type	_ZN9__gnu_cxxneIPKiSt6vectorIiSaIiEEEEbRKNS_17__normal_iteratorIT_T0_EESB_, %function
_ZN9__gnu_cxxneIPKiSt6vectorIiSaIiEEEEbRKNS_17__normal_iteratorIT_T0_EESB_:
.LFB2790:
	.cfi_startproc
	stp	x29, x30, [sp, -48]!
	.cfi_def_cfa_offset 48
	.cfi_offset 29, -48
	.cfi_offset 30, -40
	mov	x29, sp
	str	x19, [sp, 16]
	.cfi_offset 19, -32
	str	x0, [sp, 40]
	str	x1, [sp, 32]
	ldr	x0, [sp, 40]
	bl	_ZNK9__gnu_cxx17__normal_iteratorIPKiSt6vectorIiSaIiEEE4baseEv
	ldr	x19, [x0]
	ldr	x0, [sp, 32]
	bl	_ZNK9__gnu_cxx17__normal_iteratorIPKiSt6vectorIiSaIiEEE4baseEv
	ldr	x0, [x0]
	cmp	x19, x0
	cset	w0, ne
	and	w0, w0, 255
	ldr	x19, [sp, 16]
	ldp	x29, x30, [sp], 48
	.cfi_restore 30
	.cfi_restore 29
	.cfi_restore 19
	.cfi_def_cfa_offset 0
	ret
	.cfi_endproc
.LFE2790:
	.size	_ZN9__gnu_cxxneIPKiSt6vectorIiSaIiEEEEbRKNS_17__normal_iteratorIT_T0_EESB_, .-_ZN9__gnu_cxxneIPKiSt6vectorIiSaIiEEEEbRKNS_17__normal_iteratorIT_T0_EESB_
	.section	.text._ZN9__gnu_cxx17__normal_iteratorIPKiSt6vectorIiSaIiEEEppEv,"axG",@progbits,_ZN9__gnu_cxx17__normal_iteratorIPKiSt6vectorIiSaIiEEEppEv,comdat
	.align	2
	.weak	_ZN9__gnu_cxx17__normal_iteratorIPKiSt6vectorIiSaIiEEEppEv
	.type	_ZN9__gnu_cxx17__normal_iteratorIPKiSt6vectorIiSaIiEEEppEv, %function
_ZN9__gnu_cxx17__normal_iteratorIPKiSt6vectorIiSaIiEEEppEv:
.LFB2791:
	.cfi_startproc
	sub	sp, sp, #16
	.cfi_def_cfa_offset 16
	str	x0, [sp, 8]
	ldr	x0, [sp, 8]
	ldr	x0, [x0]
	add	x1, x0, 4
	ldr	x0, [sp, 8]
	str	x1, [x0]
	ldr	x0, [sp, 8]
	add	sp, sp, 16
	.cfi_def_cfa_offset 0
	ret
	.cfi_endproc
.LFE2791:
	.size	_ZN9__gnu_cxx17__normal_iteratorIPKiSt6vectorIiSaIiEEEppEv, .-_ZN9__gnu_cxx17__normal_iteratorIPKiSt6vectorIiSaIiEEEppEv
	.section	.text._ZNK9__gnu_cxx17__normal_iteratorIPKiSt6vectorIiSaIiEEEdeEv,"axG",@progbits,_ZNK9__gnu_cxx17__normal_iteratorIPKiSt6vectorIiSaIiEEEdeEv,comdat
	.align	2
	.weak	_ZNK9__gnu_cxx17__normal_iteratorIPKiSt6vectorIiSaIiEEEdeEv
	.type	_ZNK9__gnu_cxx17__normal_iteratorIPKiSt6vectorIiSaIiEEEdeEv, %function
_ZNK9__gnu_cxx17__normal_iteratorIPKiSt6vectorIiSaIiEEEdeEv:
.LFB2792:
	.cfi_startproc
	sub	sp, sp, #16
	.cfi_def_cfa_offset 16
	str	x0, [sp, 8]
	ldr	x0, [sp, 8]
	ldr	x0, [x0]
	add	sp, sp, 16
	.cfi_def_cfa_offset 0
	ret
	.cfi_endproc
.LFE2792:
	.size	_ZNK9__gnu_cxx17__normal_iteratorIPKiSt6vectorIiSaIiEEEdeEv, .-_ZNK9__gnu_cxx17__normal_iteratorIPKiSt6vectorIiSaIiEEEdeEv
	.section	.text._ZN9__gnu_cxx13new_allocatorISt6vectorIiSaIiEEEC2Ev,"axG",@progbits,_ZN9__gnu_cxx13new_allocatorISt6vectorIiSaIiEEEC5Ev,comdat
	.align	2
	.weak	_ZN9__gnu_cxx13new_allocatorISt6vectorIiSaIiEEEC2Ev
	.type	_ZN9__gnu_cxx13new_allocatorISt6vectorIiSaIiEEEC2Ev, %function
_ZN9__gnu_cxx13new_allocatorISt6vectorIiSaIiEEEC2Ev:
.LFB2828:
	.cfi_startproc
	sub	sp, sp, #16
	.cfi_def_cfa_offset 16
	str	x0, [sp, 8]
	nop
	add	sp, sp, 16
	.cfi_def_cfa_offset 0
	ret
	.cfi_endproc
.LFE2828:
	.size	_ZN9__gnu_cxx13new_allocatorISt6vectorIiSaIiEEEC2Ev, .-_ZN9__gnu_cxx13new_allocatorISt6vectorIiSaIiEEEC2Ev
	.weak	_ZN9__gnu_cxx13new_allocatorISt6vectorIiSaIiEEEC1Ev
	.set	_ZN9__gnu_cxx13new_allocatorISt6vectorIiSaIiEEEC1Ev,_ZN9__gnu_cxx13new_allocatorISt6vectorIiSaIiEEEC2Ev
	.section	.text._ZNSt16allocator_traitsISaISt6vectorIiSaIiEEEE10deallocateERS3_PS2_m,"axG",@progbits,_ZNSt16allocator_traitsISaISt6vectorIiSaIiEEEE10deallocateERS3_PS2_m,comdat
	.align	2
	.weak	_ZNSt16allocator_traitsISaISt6vectorIiSaIiEEEE10deallocateERS3_PS2_m
	.type	_ZNSt16allocator_traitsISaISt6vectorIiSaIiEEEE10deallocateERS3_PS2_m, %function
_ZNSt16allocator_traitsISaISt6vectorIiSaIiEEEE10deallocateERS3_PS2_m:
.LFB2830:
	.cfi_startproc
	stp	x29, x30, [sp, -48]!
	.cfi_def_cfa_offset 48
	.cfi_offset 29, -48
	.cfi_offset 30, -40
	mov	x29, sp
	str	x0, [sp, 40]
	str	x1, [sp, 32]
	str	x2, [sp, 24]
	ldr	x2, [sp, 24]
	ldr	x1, [sp, 32]
	ldr	x0, [sp, 40]
	bl	_ZN9__gnu_cxx13new_allocatorISt6vectorIiSaIiEEE10deallocateEPS3_m
	nop
	ldp	x29, x30, [sp], 48
	.cfi_restore 30
	.cfi_restore 29
	.cfi_def_cfa_offset 0
	ret
	.cfi_endproc
.LFE2830:
	.size	_ZNSt16allocator_traitsISaISt6vectorIiSaIiEEEE10deallocateERS3_PS2_m, .-_ZNSt16allocator_traitsISaISt6vectorIiSaIiEEEE10deallocateERS3_PS2_m
	.section	.text._ZSt8_DestroyIPSt6vectorIiSaIiEEEvT_S4_,"axG",@progbits,_ZSt8_DestroyIPSt6vectorIiSaIiEEEvT_S4_,comdat
	.align	2
	.weak	_ZSt8_DestroyIPSt6vectorIiSaIiEEEvT_S4_
	.type	_ZSt8_DestroyIPSt6vectorIiSaIiEEEvT_S4_, %function
_ZSt8_DestroyIPSt6vectorIiSaIiEEEvT_S4_:
.LFB2831:
	.cfi_startproc
	stp	x29, x30, [sp, -32]!
	.cfi_def_cfa_offset 32
	.cfi_offset 29, -32
	.cfi_offset 30, -24
	mov	x29, sp
	str	x0, [sp, 24]
	str	x1, [sp, 16]
	ldr	x1, [sp, 16]
	ldr	x0, [sp, 24]
	bl	_ZNSt12_Destroy_auxILb0EE9__destroyIPSt6vectorIiSaIiEEEEvT_S6_
	nop
	ldp	x29, x30, [sp], 32
	.cfi_restore 30
	.cfi_restore 29
	.cfi_def_cfa_offset 0
	ret
	.cfi_endproc
.LFE2831:
	.size	_ZSt8_DestroyIPSt6vectorIiSaIiEEEvT_S4_, .-_ZSt8_DestroyIPSt6vectorIiSaIiEEEvT_S4_
	.section	.text._ZN9__gnu_cxx17__normal_iteratorIPKiSt6vectorIiSaIiEEEC2ERKS2_,"axG",@progbits,_ZN9__gnu_cxx17__normal_iteratorIPKiSt6vectorIiSaIiEEEC5ERKS2_,comdat
	.align	2
	.weak	_ZN9__gnu_cxx17__normal_iteratorIPKiSt6vectorIiSaIiEEEC2ERKS2_
	.type	_ZN9__gnu_cxx17__normal_iteratorIPKiSt6vectorIiSaIiEEEC2ERKS2_, %function
_ZN9__gnu_cxx17__normal_iteratorIPKiSt6vectorIiSaIiEEEC2ERKS2_:
.LFB2833:
	.cfi_startproc
	sub	sp, sp, #16
	.cfi_def_cfa_offset 16
	str	x0, [sp, 8]
	str	x1, [sp]
	ldr	x0, [sp]
	ldr	x1, [x0]
	ldr	x0, [sp, 8]
	str	x1, [x0]
	nop
	add	sp, sp, 16
	.cfi_def_cfa_offset 0
	ret
	.cfi_endproc
.LFE2833:
	.size	_ZN9__gnu_cxx17__normal_iteratorIPKiSt6vectorIiSaIiEEEC2ERKS2_, .-_ZN9__gnu_cxx17__normal_iteratorIPKiSt6vectorIiSaIiEEEC2ERKS2_
	.weak	_ZN9__gnu_cxx17__normal_iteratorIPKiSt6vectorIiSaIiEEEC1ERKS2_
	.set	_ZN9__gnu_cxx17__normal_iteratorIPKiSt6vectorIiSaIiEEEC1ERKS2_,_ZN9__gnu_cxx17__normal_iteratorIPKiSt6vectorIiSaIiEEEC2ERKS2_
	.section	.text._ZNK9__gnu_cxx17__normal_iteratorIPKiSt6vectorIiSaIiEEE4baseEv,"axG",@progbits,_ZNK9__gnu_cxx17__normal_iteratorIPKiSt6vectorIiSaIiEEE4baseEv,comdat
	.align	2
	.weak	_ZNK9__gnu_cxx17__normal_iteratorIPKiSt6vectorIiSaIiEEE4baseEv
	.type	_ZNK9__gnu_cxx17__normal_iteratorIPKiSt6vectorIiSaIiEEE4baseEv, %function
_ZNK9__gnu_cxx17__normal_iteratorIPKiSt6vectorIiSaIiEEE4baseEv:
.LFB2835:
	.cfi_startproc
	sub	sp, sp, #16
	.cfi_def_cfa_offset 16
	str	x0, [sp, 8]
	ldr	x0, [sp, 8]
	add	sp, sp, 16
	.cfi_def_cfa_offset 0
	ret
	.cfi_endproc
.LFE2835:
	.size	_ZNK9__gnu_cxx17__normal_iteratorIPKiSt6vectorIiSaIiEEE4baseEv, .-_ZNK9__gnu_cxx17__normal_iteratorIPKiSt6vectorIiSaIiEEE4baseEv
	.section	.text._ZNSt13_Bvector_baseISaIbEEC2ERKS0_,"axG",@progbits,_ZNSt13_Bvector_baseISaIbEEC5ERKS0_,comdat
	.align	2
	.weak	_ZNSt13_Bvector_baseISaIbEEC2ERKS0_
	.type	_ZNSt13_Bvector_baseISaIbEEC2ERKS0_, %function
_ZNSt13_Bvector_baseISaIbEEC2ERKS0_:
.LFB2840:
	.cfi_startproc
	stp	x29, x30, [sp, -64]!
	.cfi_def_cfa_offset 64
	.cfi_offset 29, -64
	.cfi_offset 30, -56
	mov	x29, sp
	str	x19, [sp, 16]
	.cfi_offset 19, -48
	str	x0, [sp, 40]
	str	x1, [sp, 32]
	adrp	x0, :got:__stack_chk_guard
	ldr	x0, [x0, #:got_lo12:__stack_chk_guard]
	ldr	x1, [x0]
	str	x1, [sp, 56]
	mov	x1, 0
	ldr	x19, [sp, 40]
	add	x0, sp, 48
	ldr	x1, [sp, 32]
	bl	_ZNSaImEC1IbEERKSaIT_E
	add	x0, sp, 48
	mov	x1, x0
	mov	x0, x19
	bl	_ZNSt13_Bvector_baseISaIbEE13_Bvector_implC1ERKSaImE
	add	x0, sp, 48
	bl	_ZNSaImED1Ev
	nop
	adrp	x0, :got:__stack_chk_guard
	ldr	x0, [x0, #:got_lo12:__stack_chk_guard]
	ldr	x2, [sp, 56]
	ldr	x1, [x0]
	subs	x2, x2, x1
	mov	x1, 0
	beq	.L229
	bl	__stack_chk_fail
.L229:
	ldr	x19, [sp, 16]
	ldp	x29, x30, [sp], 64
	.cfi_restore 30
	.cfi_restore 29
	.cfi_restore 19
	.cfi_def_cfa_offset 0
	ret
	.cfi_endproc
.LFE2840:
	.size	_ZNSt13_Bvector_baseISaIbEEC2ERKS0_, .-_ZNSt13_Bvector_baseISaIbEEC2ERKS0_
	.weak	_ZNSt13_Bvector_baseISaIbEEC1ERKS0_
	.set	_ZNSt13_Bvector_baseISaIbEEC1ERKS0_,_ZNSt13_Bvector_baseISaIbEEC2ERKS0_
	.section	.text._ZNSt6vectorIbSaIbEE13_M_initializeEm,"axG",@progbits,_ZNSt6vectorIbSaIbEE13_M_initializeEm,comdat
	.align	2
	.weak	_ZNSt6vectorIbSaIbEE13_M_initializeEm
	.type	_ZNSt6vectorIbSaIbEE13_M_initializeEm, %function
_ZNSt6vectorIbSaIbEE13_M_initializeEm:
.LFB2842:
	.cfi_startproc
	stp	x29, x30, [sp, -80]!
	.cfi_def_cfa_offset 80
	.cfi_offset 29, -80
	.cfi_offset 30, -72
	mov	x29, sp
	str	x0, [sp, 24]
	str	x1, [sp, 16]
	adrp	x0, :got:__stack_chk_guard
	ldr	x0, [x0, #:got_lo12:__stack_chk_guard]
	ldr	x1, [x0]
	str	x1, [sp, 72]
	mov	x1, 0
	ldr	x0, [sp, 16]
	cmp	x0, 0
	beq	.L233
	ldr	x0, [sp, 24]
	ldr	x1, [sp, 16]
	bl	_ZNSt13_Bvector_baseISaIbEE11_M_allocateEm
	str	x0, [sp, 32]
	ldr	x0, [sp, 16]
	bl	_ZNSt13_Bvector_baseISaIbEE8_S_nwordEm
	lsl	x0, x0, 3
	ldr	x1, [sp, 32]
	add	x1, x1, x0
	ldr	x0, [sp, 24]
	str	x1, [x0, 32]
	ldr	x0, [sp, 32]
	bl	_ZSt11__addressofImEPT_RS0_
	mov	x1, x0
	add	x0, sp, 40
	mov	w2, 0
	bl	_ZNSt13_Bit_iteratorC1EPmj
	ldr	x0, [sp, 24]
	mov	x1, x0
	add	x0, sp, 40
	ldr	x2, [x0]
	str	x2, [x1]
	ldr	w0, [x0, 8]
	str	w0, [x1, 8]
	ldr	x1, [sp, 16]
	add	x0, sp, 40
	bl	_ZStplRKSt13_Bit_iteratorl
	stp	x0, x1, [sp, 56]
	ldr	x0, [sp, 24]
	add	x0, x0, 16
	mov	x1, x0
	add	x0, sp, 56
	ldr	x2, [x0]
	str	x2, [x1]
	ldr	w0, [x0, 8]
	str	w0, [x1, 8]
.L233:
	nop
	adrp	x0, :got:__stack_chk_guard
	ldr	x0, [x0, #:got_lo12:__stack_chk_guard]
	ldr	x2, [sp, 72]
	ldr	x1, [x0]
	subs	x2, x2, x1
	mov	x1, 0
	beq	.L232
	bl	__stack_chk_fail
.L232:
	ldp	x29, x30, [sp], 80
	.cfi_restore 30
	.cfi_restore 29
	.cfi_def_cfa_offset 0
	ret
	.cfi_endproc
.LFE2842:
	.size	_ZNSt6vectorIbSaIbEE13_M_initializeEm, .-_ZNSt6vectorIbSaIbEE13_M_initializeEm
	.section	.text._ZNSt6vectorIbSaIbEE19_M_initialize_valueEb,"axG",@progbits,_ZNSt6vectorIbSaIbEE19_M_initialize_valueEb,comdat
	.align	2
	.weak	_ZNSt6vectorIbSaIbEE19_M_initialize_valueEb
	.type	_ZNSt6vectorIbSaIbEE19_M_initialize_valueEb, %function
_ZNSt6vectorIbSaIbEE19_M_initialize_valueEb:
.LFB2843:
	.cfi_startproc
	stp	x29, x30, [sp, -64]!
	.cfi_def_cfa_offset 64
	.cfi_offset 29, -64
	.cfi_offset 30, -56
	mov	x29, sp
	str	x19, [sp, 16]
	.cfi_offset 19, -48
	str	x0, [sp, 40]
	strb	w1, [sp, 39]
	ldr	x0, [sp, 40]
	ldr	x0, [x0]
	str	x0, [sp, 56]
	ldr	x0, [sp, 56]
	cmp	x0, 0
	beq	.L238
	ldrb	w0, [sp, 39]
	cmp	w0, 0
	beq	.L236
	mov	w19, -1
	b	.L237
.L236:
	mov	w19, 0
.L237:
	ldr	x0, [sp, 40]
	bl	_ZNKSt13_Bvector_baseISaIbEE13_Bvector_impl11_M_end_addrEv
	mov	x1, x0
	ldr	x0, [sp, 56]
	sub	x0, x1, x0
	mov	x2, x0
	mov	w1, w19
	ldr	x0, [sp, 56]
	bl	memset
.L238:
	nop
	ldr	x19, [sp, 16]
	ldp	x29, x30, [sp], 64
	.cfi_restore 30
	.cfi_restore 29
	.cfi_restore 19
	.cfi_def_cfa_offset 0
	ret
	.cfi_endproc
.LFE2843:
	.size	_ZNSt6vectorIbSaIbEE19_M_initialize_valueEb, .-_ZNSt6vectorIbSaIbEE19_M_initialize_valueEb
	.section	.text._ZNSaImED2Ev,"axG",@progbits,_ZNSaImED5Ev,comdat
	.align	2
	.weak	_ZNSaImED2Ev
	.type	_ZNSaImED2Ev, %function
_ZNSaImED2Ev:
.LFB2845:
	.cfi_startproc
	stp	x29, x30, [sp, -32]!
	.cfi_def_cfa_offset 32
	.cfi_offset 29, -32
	.cfi_offset 30, -24
	mov	x29, sp
	str	x0, [sp, 24]
	ldr	x0, [sp, 24]
	bl	_ZN9__gnu_cxx13new_allocatorImED2Ev
	nop
	ldp	x29, x30, [sp], 32
	.cfi_restore 30
	.cfi_restore 29
	.cfi_def_cfa_offset 0
	ret
	.cfi_endproc
.LFE2845:
	.size	_ZNSaImED2Ev, .-_ZNSaImED2Ev
	.weak	_ZNSaImED1Ev
	.set	_ZNSaImED1Ev,_ZNSaImED2Ev
	.section	.text._ZNSt13_Bvector_baseISaIbEE13_M_deallocateEv,"axG",@progbits,_ZNSt13_Bvector_baseISaIbEE13_M_deallocateEv,comdat
	.align	2
	.weak	_ZNSt13_Bvector_baseISaIbEE13_M_deallocateEv
	.type	_ZNSt13_Bvector_baseISaIbEE13_M_deallocateEv, %function
_ZNSt13_Bvector_baseISaIbEE13_M_deallocateEv:
.LFB2847:
	.cfi_startproc
	stp	x29, x30, [sp, -48]!
	.cfi_def_cfa_offset 48
	.cfi_offset 29, -48
	.cfi_offset 30, -40
	mov	x29, sp
	str	x0, [sp, 24]
	ldr	x0, [sp, 24]
	ldr	x0, [x0]
	cmp	x0, 0
	beq	.L242
	ldr	x0, [sp, 24]
	bl	_ZNKSt13_Bvector_baseISaIbEE13_Bvector_impl11_M_end_addrEv
	mov	x1, x0
	ldr	x0, [sp, 24]
	ldr	x0, [x0]
	sub	x0, x1, x0
	asr	x0, x0, 3
	str	x0, [sp, 40]
	ldr	x3, [sp, 24]
	ldr	x0, [sp, 24]
	ldr	x1, [x0, 32]
	ldr	x0, [sp, 40]
	lsl	x0, x0, 3
	neg	x0, x0
	add	x0, x1, x0
	ldr	x2, [sp, 40]
	mov	x1, x0
	mov	x0, x3
	bl	_ZNSt16allocator_traitsISaImEE10deallocateERS0_Pmm
	ldr	x0, [sp, 24]
	bl	_ZNSt13_Bvector_baseISaIbEE18_Bvector_impl_data8_M_resetEv
.L242:
	nop
	ldp	x29, x30, [sp], 48
	.cfi_restore 30
	.cfi_restore 29
	.cfi_def_cfa_offset 0
	ret
	.cfi_endproc
.LFE2847:
	.size	_ZNSt13_Bvector_baseISaIbEE13_M_deallocateEv, .-_ZNSt13_Bvector_baseISaIbEE13_M_deallocateEv
	.section	.text._ZNSt11_Deque_baseIiSaIiEE16_Deque_impl_dataC2Ev,"axG",@progbits,_ZNSt11_Deque_baseIiSaIiEE16_Deque_impl_dataC5Ev,comdat
	.align	2
	.weak	_ZNSt11_Deque_baseIiSaIiEE16_Deque_impl_dataC2Ev
	.type	_ZNSt11_Deque_baseIiSaIiEE16_Deque_impl_dataC2Ev, %function
_ZNSt11_Deque_baseIiSaIiEE16_Deque_impl_dataC2Ev:
.LFB2849:
	.cfi_startproc
	stp	x29, x30, [sp, -32]!
	.cfi_def_cfa_offset 32
	.cfi_offset 29, -32
	.cfi_offset 30, -24
	mov	x29, sp
	str	x0, [sp, 24]
	ldr	x0, [sp, 24]
	str	xzr, [x0]
	ldr	x0, [sp, 24]
	str	xzr, [x0, 8]
	ldr	x0, [sp, 24]
	add	x0, x0, 16
	bl	_ZNSt15_Deque_iteratorIiRiPiEC1Ev
	ldr	x0, [sp, 24]
	add	x0, x0, 48
	bl	_ZNSt15_Deque_iteratorIiRiPiEC1Ev
	nop
	ldp	x29, x30, [sp], 32
	.cfi_restore 30
	.cfi_restore 29
	.cfi_def_cfa_offset 0
	ret
	.cfi_endproc
.LFE2849:
	.size	_ZNSt11_Deque_baseIiSaIiEE16_Deque_impl_dataC2Ev, .-_ZNSt11_Deque_baseIiSaIiEE16_Deque_impl_dataC2Ev
	.weak	_ZNSt11_Deque_baseIiSaIiEE16_Deque_impl_dataC1Ev
	.set	_ZNSt11_Deque_baseIiSaIiEE16_Deque_impl_dataC1Ev,_ZNSt11_Deque_baseIiSaIiEE16_Deque_impl_dataC2Ev
	.section	.text._ZSt3maxImERKT_S2_S2_,"axG",@progbits,_ZSt3maxImERKT_S2_S2_,comdat
	.align	2
	.weak	_ZSt3maxImERKT_S2_S2_
	.type	_ZSt3maxImERKT_S2_S2_, %function
_ZSt3maxImERKT_S2_S2_:
.LFB2851:
	.cfi_startproc
	sub	sp, sp, #16
	.cfi_def_cfa_offset 16
	str	x0, [sp, 8]
	str	x1, [sp]
	ldr	x0, [sp, 8]
	ldr	x1, [x0]
	ldr	x0, [sp]
	ldr	x0, [x0]
	cmp	x1, x0
	bcs	.L245
	ldr	x0, [sp]
	b	.L246
.L245:
	ldr	x0, [sp, 8]
.L246:
	add	sp, sp, 16
	.cfi_def_cfa_offset 0
	ret
	.cfi_endproc
.LFE2851:
	.size	_ZSt3maxImERKT_S2_S2_, .-_ZSt3maxImERKT_S2_S2_
	.section	.text._ZNSt11_Deque_baseIiSaIiEE15_M_allocate_mapEm,"axG",@progbits,_ZNSt11_Deque_baseIiSaIiEE15_M_allocate_mapEm,comdat
	.align	2
	.weak	_ZNSt11_Deque_baseIiSaIiEE15_M_allocate_mapEm
	.type	_ZNSt11_Deque_baseIiSaIiEE15_M_allocate_mapEm, %function
_ZNSt11_Deque_baseIiSaIiEE15_M_allocate_mapEm:
.LFB2852:
	.cfi_startproc
	.cfi_personality 0x9b,DW.ref.__gxx_personality_v0
	.cfi_lsda 0x1b,.LLSDA2852
	stp	x29, x30, [sp, -64]!
	.cfi_def_cfa_offset 64
	.cfi_offset 29, -64
	.cfi_offset 30, -56
	mov	x29, sp
	str	x19, [sp, 16]
	.cfi_offset 19, -48
	str	x0, [sp, 40]
	str	x1, [sp, 32]
	adrp	x0, :got:__stack_chk_guard
	ldr	x0, [x0, #:got_lo12:__stack_chk_guard]
	ldr	x1, [x0]
	str	x1, [sp, 56]
	mov	x1, 0
	add	x0, sp, 48
	mov	x8, x0
	ldr	x0, [sp, 40]
	bl	_ZNKSt11_Deque_baseIiSaIiEE20_M_get_map_allocatorEv
	add	x0, sp, 48
	ldr	x1, [sp, 32]
.LEHB23:
	bl	_ZNSt16allocator_traitsISaIPiEE8allocateERS1_m
.LEHE23:
	mov	x19, x0
	nop
	add	x0, sp, 48
	bl	_ZNSaIPiED1Ev
	mov	x1, x19
	adrp	x0, :got:__stack_chk_guard
	ldr	x0, [x0, #:got_lo12:__stack_chk_guard]
	ldr	x3, [sp, 56]
	ldr	x2, [x0]
	subs	x3, x3, x2
	mov	x2, 0
	beq	.L250
	b	.L252
.L251:
	mov	x19, x0
	add	x0, sp, 48
	bl	_ZNSaIPiED1Ev
	mov	x0, x19
.LEHB24:
	bl	_Unwind_Resume
.LEHE24:
.L252:
	bl	__stack_chk_fail
.L250:
	mov	x0, x1
	ldr	x19, [sp, 16]
	ldp	x29, x30, [sp], 64
	.cfi_restore 30
	.cfi_restore 29
	.cfi_restore 19
	.cfi_def_cfa_offset 0
	ret
	.cfi_endproc
.LFE2852:
	.section	.gcc_except_table
.LLSDA2852:
	.byte	0xff
	.byte	0xff
	.byte	0x1
	.uleb128 .LLSDACSE2852-.LLSDACSB2852
.LLSDACSB2852:
	.uleb128 .LEHB23-.LFB2852
	.uleb128 .LEHE23-.LEHB23
	.uleb128 .L251-.LFB2852
	.uleb128 0
	.uleb128 .LEHB24-.LFB2852
	.uleb128 .LEHE24-.LEHB24
	.uleb128 0
	.uleb128 0
.LLSDACSE2852:
	.section	.text._ZNSt11_Deque_baseIiSaIiEE15_M_allocate_mapEm,"axG",@progbits,_ZNSt11_Deque_baseIiSaIiEE15_M_allocate_mapEm,comdat
	.size	_ZNSt11_Deque_baseIiSaIiEE15_M_allocate_mapEm, .-_ZNSt11_Deque_baseIiSaIiEE15_M_allocate_mapEm
	.section	.text._ZNSt11_Deque_baseIiSaIiEE15_M_create_nodesEPPiS3_,"axG",@progbits,_ZNSt11_Deque_baseIiSaIiEE15_M_create_nodesEPPiS3_,comdat
	.align	2
	.weak	_ZNSt11_Deque_baseIiSaIiEE15_M_create_nodesEPPiS3_
	.type	_ZNSt11_Deque_baseIiSaIiEE15_M_create_nodesEPPiS3_, %function
_ZNSt11_Deque_baseIiSaIiEE15_M_create_nodesEPPiS3_:
.LFB2853:
	.cfi_startproc
	.cfi_personality 0x9b,DW.ref.__gxx_personality_v0
	.cfi_lsda 0x1b,.LLSDA2853
	stp	x29, x30, [sp, -80]!
	.cfi_def_cfa_offset 80
	.cfi_offset 29, -80
	.cfi_offset 30, -72
	mov	x29, sp
	str	x19, [sp, 16]
	.cfi_offset 19, -64
	str	x0, [sp, 56]
	str	x1, [sp, 48]
	str	x2, [sp, 40]
	ldr	x0, [sp, 48]
	str	x0, [sp, 72]
	b	.L254
.L255:
	ldr	x0, [sp, 56]
.LEHB25:
	bl	_ZNSt11_Deque_baseIiSaIiEE16_M_allocate_nodeEv
.LEHE25:
	mov	x1, x0
	ldr	x0, [sp, 72]
	str	x1, [x0]
	ldr	x0, [sp, 72]
	add	x0, x0, 8
	str	x0, [sp, 72]
.L254:
	ldr	x1, [sp, 72]
	ldr	x0, [sp, 40]
	cmp	x1, x0
	bcc	.L255
	b	.L260
.L258:
	bl	__cxa_begin_catch
	ldr	x2, [sp, 72]
	ldr	x1, [sp, 48]
	ldr	x0, [sp, 56]
	bl	_ZNSt11_Deque_baseIiSaIiEE16_M_destroy_nodesEPPiS3_
.LEHB26:
	bl	__cxa_rethrow
.LEHE26:
.L259:
	mov	x19, x0
	bl	__cxa_end_catch
	mov	x0, x19
.LEHB27:
	bl	_Unwind_Resume
.LEHE27:
.L260:
	ldr	x19, [sp, 16]
	ldp	x29, x30, [sp], 80
	.cfi_restore 30
	.cfi_restore 29
	.cfi_restore 19
	.cfi_def_cfa_offset 0
	ret
	.cfi_endproc
.LFE2853:
	.section	.gcc_except_table
	.align	2
.LLSDA2853:
	.byte	0xff
	.byte	0x9b
	.uleb128 .LLSDATT2853-.LLSDATTD2853
.LLSDATTD2853:
	.byte	0x1
	.uleb128 .LLSDACSE2853-.LLSDACSB2853
.LLSDACSB2853:
	.uleb128 .LEHB25-.LFB2853
	.uleb128 .LEHE25-.LEHB25
	.uleb128 .L258-.LFB2853
	.uleb128 0x1
	.uleb128 .LEHB26-.LFB2853
	.uleb128 .LEHE26-.LEHB26
	.uleb128 .L259-.LFB2853
	.uleb128 0
	.uleb128 .LEHB27-.LFB2853
	.uleb128 .LEHE27-.LEHB27
	.uleb128 0
	.uleb128 0
.LLSDACSE2853:
	.byte	0x1
	.byte	0
	.align	2
	.4byte	0

.LLSDATT2853:
	.section	.text._ZNSt11_Deque_baseIiSaIiEE15_M_create_nodesEPPiS3_,"axG",@progbits,_ZNSt11_Deque_baseIiSaIiEE15_M_create_nodesEPPiS3_,comdat
	.size	_ZNSt11_Deque_baseIiSaIiEE15_M_create_nodesEPPiS3_, .-_ZNSt11_Deque_baseIiSaIiEE15_M_create_nodesEPPiS3_
	.section	.text._ZNSt15_Deque_iteratorIiRiPiE11_M_set_nodeEPS1_,"axG",@progbits,_ZNSt15_Deque_iteratorIiRiPiE11_M_set_nodeEPS1_,comdat
	.align	2
	.weak	_ZNSt15_Deque_iteratorIiRiPiE11_M_set_nodeEPS1_
	.type	_ZNSt15_Deque_iteratorIiRiPiE11_M_set_nodeEPS1_, %function
_ZNSt15_Deque_iteratorIiRiPiE11_M_set_nodeEPS1_:
.LFB2854:
	.cfi_startproc
	stp	x29, x30, [sp, -48]!
	.cfi_def_cfa_offset 48
	.cfi_offset 29, -48
	.cfi_offset 30, -40
	mov	x29, sp
	str	x19, [sp, 16]
	.cfi_offset 19, -32
	str	x0, [sp, 40]
	str	x1, [sp, 32]
	ldr	x0, [sp, 40]
	ldr	x1, [sp, 32]
	str	x1, [x0, 24]
	ldr	x0, [sp, 32]
	ldr	x1, [x0]
	ldr	x0, [sp, 40]
	str	x1, [x0, 8]
	ldr	x0, [sp, 40]
	ldr	x19, [x0, 8]
	bl	_ZNSt15_Deque_iteratorIiRiPiE14_S_buffer_sizeEv
	lsl	x0, x0, 2
	add	x1, x19, x0
	ldr	x0, [sp, 40]
	str	x1, [x0, 16]
	nop
	ldr	x19, [sp, 16]
	ldp	x29, x30, [sp], 48
	.cfi_restore 30
	.cfi_restore 29
	.cfi_restore 19
	.cfi_def_cfa_offset 0
	ret
	.cfi_endproc
.LFE2854:
	.size	_ZNSt15_Deque_iteratorIiRiPiE11_M_set_nodeEPS1_, .-_ZNSt15_Deque_iteratorIiRiPiE11_M_set_nodeEPS1_
	.section	.text._ZNSt11_Deque_baseIiSaIiEE18_M_deallocate_nodeEPi,"axG",@progbits,_ZNSt11_Deque_baseIiSaIiEE18_M_deallocate_nodeEPi,comdat
	.align	2
	.weak	_ZNSt11_Deque_baseIiSaIiEE18_M_deallocate_nodeEPi
	.type	_ZNSt11_Deque_baseIiSaIiEE18_M_deallocate_nodeEPi, %function
_ZNSt11_Deque_baseIiSaIiEE18_M_deallocate_nodeEPi:
.LFB2855:
	.cfi_startproc
	.cfi_personality 0x9b,DW.ref.__gxx_personality_v0
	.cfi_lsda 0x1b,.LLSDA2855
	stp	x29, x30, [sp, -48]!
	.cfi_def_cfa_offset 48
	.cfi_offset 29, -48
	.cfi_offset 30, -40
	mov	x29, sp
	str	x19, [sp, 16]
	.cfi_offset 19, -32
	str	x0, [sp, 40]
	str	x1, [sp, 32]
	ldr	x19, [sp, 40]
	mov	x0, 4
	bl	_ZSt16__deque_buf_sizem
	mov	x2, x0
	ldr	x1, [sp, 32]
	mov	x0, x19
	bl	_ZNSt16allocator_traitsISaIiEE10deallocateERS0_Pim
	nop
	ldr	x19, [sp, 16]
	ldp	x29, x30, [sp], 48
	.cfi_restore 30
	.cfi_restore 29
	.cfi_restore 19
	.cfi_def_cfa_offset 0
	ret
	.cfi_endproc
.LFE2855:
	.section	.gcc_except_table
.LLSDA2855:
	.byte	0xff
	.byte	0xff
	.byte	0x1
	.uleb128 .LLSDACSE2855-.LLSDACSB2855
.LLSDACSB2855:
.LLSDACSE2855:
	.section	.text._ZNSt11_Deque_baseIiSaIiEE18_M_deallocate_nodeEPi,"axG",@progbits,_ZNSt11_Deque_baseIiSaIiEE18_M_deallocate_nodeEPi,comdat
	.size	_ZNSt11_Deque_baseIiSaIiEE18_M_deallocate_nodeEPi, .-_ZNSt11_Deque_baseIiSaIiEE18_M_deallocate_nodeEPi
	.section	.text._ZNKSt11_Deque_baseIiSaIiEE20_M_get_map_allocatorEv,"axG",@progbits,_ZNKSt11_Deque_baseIiSaIiEE20_M_get_map_allocatorEv,comdat
	.align	2
	.weak	_ZNKSt11_Deque_baseIiSaIiEE20_M_get_map_allocatorEv
	.type	_ZNKSt11_Deque_baseIiSaIiEE20_M_get_map_allocatorEv, %function
_ZNKSt11_Deque_baseIiSaIiEE20_M_get_map_allocatorEv:
.LFB2856:
	.cfi_startproc
	stp	x29, x30, [sp, -48]!
	.cfi_def_cfa_offset 48
	.cfi_offset 29, -48
	.cfi_offset 30, -40
	mov	x29, sp
	str	x19, [sp, 16]
	.cfi_offset 19, -32
	mov	x19, x8
	str	x0, [sp, 40]
	ldr	x0, [sp, 40]
	bl	_ZNKSt11_Deque_baseIiSaIiEE19_M_get_Tp_allocatorEv
	mov	x1, x0
	mov	x0, x19
	bl	_ZNSaIPiEC1IiEERKSaIT_E
	mov	x0, x19
	ldr	x19, [sp, 16]
	ldp	x29, x30, [sp], 48
	.cfi_restore 30
	.cfi_restore 29
	.cfi_restore 19
	.cfi_def_cfa_offset 0
	ret
	.cfi_endproc
.LFE2856:
	.size	_ZNKSt11_Deque_baseIiSaIiEE20_M_get_map_allocatorEv, .-_ZNKSt11_Deque_baseIiSaIiEE20_M_get_map_allocatorEv
	.section	.text._ZNSaIPiED2Ev,"axG",@progbits,_ZNSaIPiED5Ev,comdat
	.align	2
	.weak	_ZNSaIPiED2Ev
	.type	_ZNSaIPiED2Ev, %function
_ZNSaIPiED2Ev:
.LFB2858:
	.cfi_startproc
	stp	x29, x30, [sp, -32]!
	.cfi_def_cfa_offset 32
	.cfi_offset 29, -32
	.cfi_offset 30, -24
	mov	x29, sp
	str	x0, [sp, 24]
	ldr	x0, [sp, 24]
	bl	_ZN9__gnu_cxx13new_allocatorIPiED2Ev
	nop
	ldp	x29, x30, [sp], 32
	.cfi_restore 30
	.cfi_restore 29
	.cfi_def_cfa_offset 0
	ret
	.cfi_endproc
.LFE2858:
	.size	_ZNSaIPiED2Ev, .-_ZNSaIPiED2Ev
	.weak	_ZNSaIPiED1Ev
	.set	_ZNSaIPiED1Ev,_ZNSaIPiED2Ev
	.section	.text._ZNSt16allocator_traitsISaIPiEE10deallocateERS1_PS0_m,"axG",@progbits,_ZNSt16allocator_traitsISaIPiEE10deallocateERS1_PS0_m,comdat
	.align	2
	.weak	_ZNSt16allocator_traitsISaIPiEE10deallocateERS1_PS0_m
	.type	_ZNSt16allocator_traitsISaIPiEE10deallocateERS1_PS0_m, %function
_ZNSt16allocator_traitsISaIPiEE10deallocateERS1_PS0_m:
.LFB2860:
	.cfi_startproc
	stp	x29, x30, [sp, -48]!
	.cfi_def_cfa_offset 48
	.cfi_offset 29, -48
	.cfi_offset 30, -40
	mov	x29, sp
	str	x0, [sp, 40]
	str	x1, [sp, 32]
	str	x2, [sp, 24]
	ldr	x2, [sp, 24]
	ldr	x1, [sp, 32]
	ldr	x0, [sp, 40]
	bl	_ZN9__gnu_cxx13new_allocatorIPiE10deallocateEPS1_m
	nop
	ldp	x29, x30, [sp], 48
	.cfi_restore 30
	.cfi_restore 29
	.cfi_def_cfa_offset 0
	ret
	.cfi_endproc
.LFE2860:
	.size	_ZNSt16allocator_traitsISaIPiEE10deallocateERS1_PS0_m, .-_ZNSt16allocator_traitsISaIPiEE10deallocateERS1_PS0_m
	.section	.text._ZNSt12_Vector_baseIiSaIiEE12_Vector_implC2ERKS0_,"axG",@progbits,_ZNSt12_Vector_baseIiSaIiEE12_Vector_implC5ERKS0_,comdat
	.align	2
	.weak	_ZNSt12_Vector_baseIiSaIiEE12_Vector_implC2ERKS0_
	.type	_ZNSt12_Vector_baseIiSaIiEE12_Vector_implC2ERKS0_, %function
_ZNSt12_Vector_baseIiSaIiEE12_Vector_implC2ERKS0_:
.LFB2863:
	.cfi_startproc
	stp	x29, x30, [sp, -32]!
	.cfi_def_cfa_offset 32
	.cfi_offset 29, -32
	.cfi_offset 30, -24
	mov	x29, sp
	str	x0, [sp, 24]
	str	x1, [sp, 16]
	ldr	x1, [sp, 16]
	ldr	x0, [sp, 24]
	bl	_ZNSaIiEC2ERKS_
	ldr	x0, [sp, 24]
	bl	_ZNSt12_Vector_baseIiSaIiEE17_Vector_impl_dataC2Ev
	nop
	ldp	x29, x30, [sp], 32
	.cfi_restore 30
	.cfi_restore 29
	.cfi_def_cfa_offset 0
	ret
	.cfi_endproc
.LFE2863:
	.size	_ZNSt12_Vector_baseIiSaIiEE12_Vector_implC2ERKS0_, .-_ZNSt12_Vector_baseIiSaIiEE12_Vector_implC2ERKS0_
	.weak	_ZNSt12_Vector_baseIiSaIiEE12_Vector_implC1ERKS0_
	.set	_ZNSt12_Vector_baseIiSaIiEE12_Vector_implC1ERKS0_,_ZNSt12_Vector_baseIiSaIiEE12_Vector_implC2ERKS0_
	.section	.text._ZNSt12_Vector_baseIiSaIiEE13_M_deallocateEPim,"axG",@progbits,_ZNSt12_Vector_baseIiSaIiEE13_M_deallocateEPim,comdat
	.align	2
	.weak	_ZNSt12_Vector_baseIiSaIiEE13_M_deallocateEPim
	.type	_ZNSt12_Vector_baseIiSaIiEE13_M_deallocateEPim, %function
_ZNSt12_Vector_baseIiSaIiEE13_M_deallocateEPim:
.LFB2865:
	.cfi_startproc
	stp	x29, x30, [sp, -48]!
	.cfi_def_cfa_offset 48
	.cfi_offset 29, -48
	.cfi_offset 30, -40
	mov	x29, sp
	str	x0, [sp, 40]
	str	x1, [sp, 32]
	str	x2, [sp, 24]
	ldr	x0, [sp, 32]
	cmp	x0, 0
	beq	.L270
	ldr	x0, [sp, 40]
	ldr	x2, [sp, 24]
	ldr	x1, [sp, 32]
	bl	_ZNSt16allocator_traitsISaIiEE10deallocateERS0_Pim
.L270:
	nop
	ldp	x29, x30, [sp], 48
	.cfi_restore 30
	.cfi_restore 29
	.cfi_def_cfa_offset 0
	ret
	.cfi_endproc
.LFE2865:
	.size	_ZNSt12_Vector_baseIiSaIiEE13_M_deallocateEPim, .-_ZNSt12_Vector_baseIiSaIiEE13_M_deallocateEPim
	.section	.text._ZSt8distanceISt15_Deque_iteratorIiRiPiEENSt15iterator_traitsIT_E15difference_typeES5_S5_,"axG",@progbits,_ZSt8distanceISt15_Deque_iteratorIiRiPiEENSt15iterator_traitsIT_E15difference_typeES5_S5_,comdat
	.align	2
	.weak	_ZSt8distanceISt15_Deque_iteratorIiRiPiEENSt15iterator_traitsIT_E15difference_typeES5_S5_
	.type	_ZSt8distanceISt15_Deque_iteratorIiRiPiEENSt15iterator_traitsIT_E15difference_typeES5_S5_, %function
_ZSt8distanceISt15_Deque_iteratorIiRiPiEENSt15iterator_traitsIT_E15difference_typeES5_S5_:
.LFB2866:
	.cfi_startproc
	stp	x29, x30, [sp, -128]!
	.cfi_def_cfa_offset 128
	.cfi_offset 29, -128
	.cfi_offset 30, -120
	mov	x29, sp
	str	x19, [sp, 16]
	.cfi_offset 19, -112
	str	x0, [sp, 40]
	str	x1, [sp, 32]
	adrp	x0, :got:__stack_chk_guard
	ldr	x0, [x0, #:got_lo12:__stack_chk_guard]
	ldr	x1, [x0]
	str	x1, [sp, 120]
	mov	x1, 0
	add	x0, sp, 56
	ldr	x1, [sp, 40]
	bl	_ZNSt15_Deque_iteratorIiRiPiEC1ERKS2_
	add	x0, sp, 88
	ldr	x1, [sp, 32]
	bl	_ZNSt15_Deque_iteratorIiRiPiEC1ERKS2_
	ldr	x0, [sp, 40]
	bl	_ZSt19__iterator_categoryISt15_Deque_iteratorIiRiPiEENSt15iterator_traitsIT_E17iterator_categoryERKS5_
	add	x1, sp, 88
	add	x0, sp, 56
	mov	w2, w19
	bl	_ZSt10__distanceISt15_Deque_iteratorIiRiPiEENSt15iterator_traitsIT_E15difference_typeES5_S5_St26random_access_iterator_tag
	mov	x1, x0
	adrp	x0, :got:__stack_chk_guard
	ldr	x0, [x0, #:got_lo12:__stack_chk_guard]
	ldr	x3, [sp, 120]
	ldr	x2, [x0]
	subs	x3, x3, x2
	mov	x2, 0
	beq	.L273
	bl	__stack_chk_fail
.L273:
	mov	x0, x1
	ldr	x19, [sp, 16]
	ldp	x29, x30, [sp], 128
	.cfi_restore 30
	.cfi_restore 29
	.cfi_restore 19
	.cfi_def_cfa_offset 0
	ret
	.cfi_endproc
.LFE2866:
	.size	_ZSt8distanceISt15_Deque_iteratorIiRiPiEENSt15iterator_traitsIT_E15difference_typeES5_S5_, .-_ZSt8distanceISt15_Deque_iteratorIiRiPiEENSt15iterator_traitsIT_E15difference_typeES5_S5_
	.section	.rodata
	.align	3
.LC4:
	.string	"cannot create std::vector larger than max_size()"
	.section	.text._ZNSt6vectorIiSaIiEE17_S_check_init_lenEmRKS0_,"axG",@progbits,_ZNSt6vectorIiSaIiEE17_S_check_init_lenEmRKS0_,comdat
	.align	2
	.weak	_ZNSt6vectorIiSaIiEE17_S_check_init_lenEmRKS0_
	.type	_ZNSt6vectorIiSaIiEE17_S_check_init_lenEmRKS0_, %function
_ZNSt6vectorIiSaIiEE17_S_check_init_lenEmRKS0_:
.LFB2867:
	.cfi_startproc
	stp	x29, x30, [sp, -64]!
	.cfi_def_cfa_offset 64
	.cfi_offset 29, -64
	.cfi_offset 30, -56
	mov	x29, sp
	str	x19, [sp, 16]
	.cfi_offset 19, -48
	str	x0, [sp, 40]
	str	x1, [sp, 32]
	adrp	x0, :got:__stack_chk_guard
	ldr	x0, [x0, #:got_lo12:__stack_chk_guard]
	ldr	x1, [x0]
	str	x1, [sp, 56]
	mov	x1, 0
	add	x0, sp, 48
	ldr	x1, [sp, 32]
	bl	_ZNSaIiEC1ERKS_
	add	x0, sp, 48
	bl	_ZNSt6vectorIiSaIiEE11_S_max_sizeERKS0_
	mov	x1, x0
	ldr	x0, [sp, 40]
	cmp	x0, x1
	cset	w0, hi
	and	w19, w0, 255
	add	x0, sp, 48
	bl	_ZNSaIiED1Ev
	cmp	w19, 0
	beq	.L275
	adrp	x0, .LC4
	add	x0, x0, :lo12:.LC4
	bl	_ZSt20__throw_length_errorPKc
.L275:
	ldr	x0, [sp, 40]
	mov	x1, x0
	adrp	x0, :got:__stack_chk_guard
	ldr	x0, [x0, #:got_lo12:__stack_chk_guard]
	ldr	x3, [sp, 56]
	ldr	x2, [x0]
	subs	x3, x3, x2
	mov	x2, 0
	beq	.L277
	bl	__stack_chk_fail
.L277:
	mov	x0, x1
	ldr	x19, [sp, 16]
	ldp	x29, x30, [sp], 64
	.cfi_restore 30
	.cfi_restore 29
	.cfi_restore 19
	.cfi_def_cfa_offset 0
	ret
	.cfi_endproc
.LFE2867:
	.size	_ZNSt6vectorIiSaIiEE17_S_check_init_lenEmRKS0_, .-_ZNSt6vectorIiSaIiEE17_S_check_init_lenEmRKS0_
	.section	.text._ZNSt12_Vector_baseIiSaIiEE11_M_allocateEm,"axG",@progbits,_ZNSt12_Vector_baseIiSaIiEE11_M_allocateEm,comdat
	.align	2
	.weak	_ZNSt12_Vector_baseIiSaIiEE11_M_allocateEm
	.type	_ZNSt12_Vector_baseIiSaIiEE11_M_allocateEm, %function
_ZNSt12_Vector_baseIiSaIiEE11_M_allocateEm:
.LFB2868:
	.cfi_startproc
	stp	x29, x30, [sp, -32]!
	.cfi_def_cfa_offset 32
	.cfi_offset 29, -32
	.cfi_offset 30, -24
	mov	x29, sp
	str	x0, [sp, 24]
	str	x1, [sp, 16]
	ldr	x0, [sp, 16]
	cmp	x0, 0
	beq	.L279
	ldr	x0, [sp, 24]
	ldr	x1, [sp, 16]
	bl	_ZNSt16allocator_traitsISaIiEE8allocateERS0_m
	b	.L281
.L279:
	mov	x0, 0
.L281:
	ldp	x29, x30, [sp], 32
	.cfi_restore 30
	.cfi_restore 29
	.cfi_def_cfa_offset 0
	ret
	.cfi_endproc
.LFE2868:
	.size	_ZNSt12_Vector_baseIiSaIiEE11_M_allocateEm, .-_ZNSt12_Vector_baseIiSaIiEE11_M_allocateEm
	.section	.text._ZSt22__uninitialized_copy_aISt15_Deque_iteratorIiRiPiES2_iET0_T_S5_S4_RSaIT1_E,"axG",@progbits,_ZSt22__uninitialized_copy_aISt15_Deque_iteratorIiRiPiES2_iET0_T_S5_S4_RSaIT1_E,comdat
	.align	2
	.weak	_ZSt22__uninitialized_copy_aISt15_Deque_iteratorIiRiPiES2_iET0_T_S5_S4_RSaIT1_E
	.type	_ZSt22__uninitialized_copy_aISt15_Deque_iteratorIiRiPiES2_iET0_T_S5_S4_RSaIT1_E, %function
_ZSt22__uninitialized_copy_aISt15_Deque_iteratorIiRiPiES2_iET0_T_S5_S4_RSaIT1_E:
.LFB2869:
	.cfi_startproc
	stp	x29, x30, [sp, -128]!
	.cfi_def_cfa_offset 128
	.cfi_offset 29, -128
	.cfi_offset 30, -120
	mov	x29, sp
	str	x0, [sp, 40]
	str	x1, [sp, 32]
	str	x2, [sp, 24]
	str	x3, [sp, 16]
	adrp	x0, :got:__stack_chk_guard
	ldr	x0, [x0, #:got_lo12:__stack_chk_guard]
	ldr	x1, [x0]
	str	x1, [sp, 120]
	mov	x1, 0
	add	x0, sp, 56
	ldr	x1, [sp, 40]
	bl	_ZNSt15_Deque_iteratorIiRiPiEC1ERKS2_
	add	x0, sp, 88
	ldr	x1, [sp, 32]
	bl	_ZNSt15_Deque_iteratorIiRiPiEC1ERKS2_
	add	x1, sp, 88
	add	x0, sp, 56
	ldr	x2, [sp, 24]
	bl	_ZSt18uninitialized_copyISt15_Deque_iteratorIiRiPiES2_ET0_T_S5_S4_
	mov	x1, x0
	adrp	x0, :got:__stack_chk_guard
	ldr	x0, [x0, #:got_lo12:__stack_chk_guard]
	ldr	x3, [sp, 120]
	ldr	x2, [x0]
	subs	x3, x3, x2
	mov	x2, 0
	beq	.L284
	bl	__stack_chk_fail
.L284:
	mov	x0, x1
	ldp	x29, x30, [sp], 128
	.cfi_restore 30
	.cfi_restore 29
	.cfi_def_cfa_offset 0
	ret
	.cfi_endproc
.LFE2869:
	.size	_ZSt22__uninitialized_copy_aISt15_Deque_iteratorIiRiPiES2_iET0_T_S5_S4_RSaIT1_E, .-_ZSt22__uninitialized_copy_aISt15_Deque_iteratorIiRiPiES2_iET0_T_S5_S4_RSaIT1_E
	.section	.text._ZSt8_DestroyIPiEvT_S1_,"axG",@progbits,_ZSt8_DestroyIPiEvT_S1_,comdat
	.align	2
	.weak	_ZSt8_DestroyIPiEvT_S1_
	.type	_ZSt8_DestroyIPiEvT_S1_, %function
_ZSt8_DestroyIPiEvT_S1_:
.LFB2870:
	.cfi_startproc
	stp	x29, x30, [sp, -32]!
	.cfi_def_cfa_offset 32
	.cfi_offset 29, -32
	.cfi_offset 30, -24
	mov	x29, sp
	str	x0, [sp, 24]
	str	x1, [sp, 16]
	ldr	x1, [sp, 16]
	ldr	x0, [sp, 24]
	bl	_ZNSt12_Destroy_auxILb1EE9__destroyIPiEEvT_S3_
	nop
	ldp	x29, x30, [sp], 32
	.cfi_restore 30
	.cfi_restore 29
	.cfi_def_cfa_offset 0
	ret
	.cfi_endproc
.LFE2870:
	.size	_ZSt8_DestroyIPiEvT_S1_, .-_ZSt8_DestroyIPiEvT_S1_
	.section	.text._ZSt7forwardISt6vectorIiSaIiEEEOT_RNSt16remove_referenceIS3_E4typeE,"axG",@progbits,_ZSt7forwardISt6vectorIiSaIiEEEOT_RNSt16remove_referenceIS3_E4typeE,comdat
	.align	2
	.weak	_ZSt7forwardISt6vectorIiSaIiEEEOT_RNSt16remove_referenceIS3_E4typeE
	.type	_ZSt7forwardISt6vectorIiSaIiEEEOT_RNSt16remove_referenceIS3_E4typeE, %function
_ZSt7forwardISt6vectorIiSaIiEEEOT_RNSt16remove_referenceIS3_E4typeE:
.LFB2871:
	.cfi_startproc
	sub	sp, sp, #16
	.cfi_def_cfa_offset 16
	str	x0, [sp, 8]
	ldr	x0, [sp, 8]
	add	sp, sp, 16
	.cfi_def_cfa_offset 0
	ret
	.cfi_endproc
.LFE2871:
	.size	_ZSt7forwardISt6vectorIiSaIiEEEOT_RNSt16remove_referenceIS3_E4typeE, .-_ZSt7forwardISt6vectorIiSaIiEEEOT_RNSt16remove_referenceIS3_E4typeE
	.section	.text._ZNSt16allocator_traitsISaISt6vectorIiSaIiEEEE9constructIS2_JS2_EEEvRS3_PT_DpOT0_,"axG",@progbits,_ZNSt16allocator_traitsISaISt6vectorIiSaIiEEEE9constructIS2_JS2_EEEvRS3_PT_DpOT0_,comdat
	.align	2
	.weak	_ZNSt16allocator_traitsISaISt6vectorIiSaIiEEEE9constructIS2_JS2_EEEvRS3_PT_DpOT0_
	.type	_ZNSt16allocator_traitsISaISt6vectorIiSaIiEEEE9constructIS2_JS2_EEEvRS3_PT_DpOT0_, %function
_ZNSt16allocator_traitsISaISt6vectorIiSaIiEEEE9constructIS2_JS2_EEEvRS3_PT_DpOT0_:
.LFB2872:
	.cfi_startproc
	stp	x29, x30, [sp, -48]!
	.cfi_def_cfa_offset 48
	.cfi_offset 29, -48
	.cfi_offset 30, -40
	mov	x29, sp
	str	x0, [sp, 40]
	str	x1, [sp, 32]
	str	x2, [sp, 24]
	ldr	x0, [sp, 24]
	bl	_ZSt7forwardISt6vectorIiSaIiEEEOT_RNSt16remove_referenceIS3_E4typeE
	mov	x2, x0
	ldr	x1, [sp, 32]
	ldr	x0, [sp, 40]
	bl	_ZN9__gnu_cxx13new_allocatorISt6vectorIiSaIiEEE9constructIS3_JS3_EEEvPT_DpOT0_
	nop
	ldp	x29, x30, [sp], 48
	.cfi_restore 30
	.cfi_restore 29
	.cfi_def_cfa_offset 0
	ret
	.cfi_endproc
.LFE2872:
	.size	_ZNSt16allocator_traitsISaISt6vectorIiSaIiEEEE9constructIS2_JS2_EEEvRS3_PT_DpOT0_, .-_ZNSt16allocator_traitsISaISt6vectorIiSaIiEEEE9constructIS2_JS2_EEEvRS3_PT_DpOT0_
	.section	.text._ZNSt6vectorIS_IiSaIiEESaIS1_EE3endEv,"axG",@progbits,_ZNSt6vectorIS_IiSaIiEESaIS1_EE3endEv,comdat
	.align	2
	.weak	_ZNSt6vectorIS_IiSaIiEESaIS1_EE3endEv
	.type	_ZNSt6vectorIS_IiSaIiEESaIS1_EE3endEv, %function
_ZNSt6vectorIS_IiSaIiEESaIS1_EE3endEv:
.LFB2873:
	.cfi_startproc
	stp	x29, x30, [sp, -48]!
	.cfi_def_cfa_offset 48
	.cfi_offset 29, -48
	.cfi_offset 30, -40
	mov	x29, sp
	str	x0, [sp, 24]
	adrp	x0, :got:__stack_chk_guard
	ldr	x0, [x0, #:got_lo12:__stack_chk_guard]
	ldr	x1, [x0]
	str	x1, [sp, 40]
	mov	x1, 0
	ldr	x0, [sp, 24]
	add	x1, x0, 8
	add	x0, sp, 32
	bl	_ZN9__gnu_cxx17__normal_iteratorIPSt6vectorIiSaIiEES1_IS3_SaIS3_EEEC1ERKS4_
	ldr	x0, [sp, 32]
	mov	x1, x0
	adrp	x0, :got:__stack_chk_guard
	ldr	x0, [x0, #:got_lo12:__stack_chk_guard]
	ldr	x3, [sp, 40]
	ldr	x2, [x0]
	subs	x3, x3, x2
	mov	x2, 0
	beq	.L291
	bl	__stack_chk_fail
.L291:
	mov	x0, x1
	ldp	x29, x30, [sp], 48
	.cfi_restore 30
	.cfi_restore 29
	.cfi_def_cfa_offset 0
	ret
	.cfi_endproc
.LFE2873:
	.size	_ZNSt6vectorIS_IiSaIiEESaIS1_EE3endEv, .-_ZNSt6vectorIS_IiSaIiEESaIS1_EE3endEv
	.section	.rodata
	.align	3
.LC5:
	.string	"vector::_M_realloc_insert"
	.section	.text._ZNSt6vectorIS_IiSaIiEESaIS1_EE17_M_realloc_insertIJS1_EEEvN9__gnu_cxx17__normal_iteratorIPS1_S3_EEDpOT_,"axG",@progbits,_ZNSt6vectorIS_IiSaIiEESaIS1_EE17_M_realloc_insertIJS1_EEEvN9__gnu_cxx17__normal_iteratorIPS1_S3_EEDpOT_,comdat
	.align	2
	.weak	_ZNSt6vectorIS_IiSaIiEESaIS1_EE17_M_realloc_insertIJS1_EEEvN9__gnu_cxx17__normal_iteratorIPS1_S3_EEDpOT_
	.type	_ZNSt6vectorIS_IiSaIiEESaIS1_EE17_M_realloc_insertIJS1_EEEvN9__gnu_cxx17__normal_iteratorIPS1_S3_EEDpOT_, %function
_ZNSt6vectorIS_IiSaIiEESaIS1_EE17_M_realloc_insertIJS1_EEEvN9__gnu_cxx17__normal_iteratorIPS1_S3_EEDpOT_:
.LFB2874:
	.cfi_startproc
	stp	x29, x30, [sp, -128]!
	.cfi_def_cfa_offset 128
	.cfi_offset 29, -128
	.cfi_offset 30, -120
	mov	x29, sp
	stp	x19, x20, [sp, 16]
	.cfi_offset 19, -112
	.cfi_offset 20, -104
	str	x0, [sp, 56]
	str	x1, [sp, 48]
	str	x2, [sp, 40]
	adrp	x0, :got:__stack_chk_guard
	ldr	x0, [x0, #:got_lo12:__stack_chk_guard]
	ldr	x1, [x0]
	str	x1, [sp, 120]
	mov	x1, 0
	adrp	x0, .LC5
	add	x2, x0, :lo12:.LC5
	mov	x1, 1
	ldr	x0, [sp, 56]
	bl	_ZNKSt6vectorIS_IiSaIiEESaIS1_EE12_M_check_lenEmPKc
	str	x0, [sp, 72]
	ldr	x0, [sp, 56]
	ldr	x0, [x0]
	str	x0, [sp, 80]
	ldr	x0, [sp, 56]
	ldr	x0, [x0, 8]
	str	x0, [sp, 88]
	ldr	x0, [sp, 56]
	bl	_ZNSt6vectorIS_IiSaIiEESaIS1_EE5beginEv
	str	x0, [sp, 64]
	add	x1, sp, 64
	add	x0, sp, 48
	bl	_ZN9__gnu_cxxmiIPSt6vectorIiSaIiEES1_IS3_SaIS3_EEEENS_17__normal_iteratorIT_T0_E15difference_typeERKSA_SD_
	str	x0, [sp, 96]
	ldr	x0, [sp, 56]
	ldr	x1, [sp, 72]
	bl	_ZNSt12_Vector_baseISt6vectorIiSaIiEESaIS2_EE11_M_allocateEm
	str	x0, [sp, 104]
	ldr	x0, [sp, 104]
	str	x0, [sp, 112]
	ldr	x19, [sp, 56]
	ldr	x1, [sp, 96]
	mov	x0, x1
	lsl	x0, x0, 1
	add	x0, x0, x1
	lsl	x0, x0, 3
	mov	x1, x0
	ldr	x0, [sp, 104]
	add	x20, x0, x1
	ldr	x0, [sp, 40]
	bl	_ZSt7forwardISt6vectorIiSaIiEEEOT_RNSt16remove_referenceIS3_E4typeE
	mov	x2, x0
	mov	x1, x20
	mov	x0, x19
	bl	_ZNSt16allocator_traitsISaISt6vectorIiSaIiEEEE9constructIS2_JS2_EEEvRS3_PT_DpOT0_
	str	xzr, [sp, 112]
	add	x0, sp, 48
	bl	_ZNK9__gnu_cxx17__normal_iteratorIPSt6vectorIiSaIiEES1_IS3_SaIS3_EEE4baseEv
	ldr	x19, [x0]
	ldr	x0, [sp, 56]
	bl	_ZNSt12_Vector_baseISt6vectorIiSaIiEESaIS2_EE19_M_get_Tp_allocatorEv
	mov	x3, x0
	ldr	x2, [sp, 104]
	mov	x1, x19
	ldr	x0, [sp, 80]
	bl	_ZNSt6vectorIS_IiSaIiEESaIS1_EE11_S_relocateEPS1_S4_S4_RS2_
	str	x0, [sp, 112]
	ldr	x0, [sp, 112]
	add	x0, x0, 24
	str	x0, [sp, 112]
	add	x0, sp, 48
	bl	_ZNK9__gnu_cxx17__normal_iteratorIPSt6vectorIiSaIiEES1_IS3_SaIS3_EEE4baseEv
	ldr	x19, [x0]
	ldr	x0, [sp, 56]
	bl	_ZNSt12_Vector_baseISt6vectorIiSaIiEESaIS2_EE19_M_get_Tp_allocatorEv
	mov	x3, x0
	ldr	x2, [sp, 112]
	ldr	x1, [sp, 88]
	mov	x0, x19
	bl	_ZNSt6vectorIS_IiSaIiEESaIS1_EE11_S_relocateEPS1_S4_S4_RS2_
	str	x0, [sp, 112]
	ldr	x3, [sp, 56]
	ldr	x0, [sp, 56]
	ldr	x1, [x0, 16]
	ldr	x0, [sp, 80]
	sub	x0, x1, x0
	asr	x1, x0, 3
	mov	x0, -6148914691236517206
	movk	x0, 0xaaab, lsl 0
	mul	x0, x1, x0
	mov	x2, x0
	ldr	x1, [sp, 80]
	mov	x0, x3
	bl	_ZNSt12_Vector_baseISt6vectorIiSaIiEESaIS2_EE13_M_deallocateEPS2_m
	ldr	x0, [sp, 56]
	ldr	x1, [sp, 104]
	str	x1, [x0]
	ldr	x0, [sp, 56]
	ldr	x1, [sp, 112]
	str	x1, [x0, 8]
	ldr	x1, [sp, 72]
	mov	x0, x1
	lsl	x0, x0, 1
	add	x0, x0, x1
	lsl	x0, x0, 3
	mov	x1, x0
	ldr	x0, [sp, 104]
	add	x1, x0, x1
	ldr	x0, [sp, 56]
	str	x1, [x0, 16]
	nop
	adrp	x0, :got:__stack_chk_guard
	ldr	x0, [x0, #:got_lo12:__stack_chk_guard]
	ldr	x2, [sp, 120]
	ldr	x1, [x0]
	subs	x2, x2, x1
	mov	x1, 0
	beq	.L293
	bl	__stack_chk_fail
.L293:
	ldp	x19, x20, [sp, 16]
	ldp	x29, x30, [sp], 128
	.cfi_restore 30
	.cfi_restore 29
	.cfi_restore 19
	.cfi_restore 20
	.cfi_def_cfa_offset 0
	ret
	.cfi_endproc
.LFE2874:
	.size	_ZNSt6vectorIS_IiSaIiEESaIS1_EE17_M_realloc_insertIJS1_EEEvN9__gnu_cxx17__normal_iteratorIPS1_S3_EEDpOT_, .-_ZNSt6vectorIS_IiSaIiEESaIS1_EE17_M_realloc_insertIJS1_EEEvN9__gnu_cxx17__normal_iteratorIPS1_S3_EEDpOT_
	.section	.text._ZNSt6vectorIS_IiSaIiEESaIS1_EE4backEv,"axG",@progbits,_ZNSt6vectorIS_IiSaIiEESaIS1_EE4backEv,comdat
	.align	2
	.weak	_ZNSt6vectorIS_IiSaIiEESaIS1_EE4backEv
	.type	_ZNSt6vectorIS_IiSaIiEESaIS1_EE4backEv, %function
_ZNSt6vectorIS_IiSaIiEESaIS1_EE4backEv:
.LFB2878:
	.cfi_startproc
	stp	x29, x30, [sp, -64]!
	.cfi_def_cfa_offset 64
	.cfi_offset 29, -64
	.cfi_offset 30, -56
	mov	x29, sp
	str	x0, [sp, 24]
	adrp	x0, :got:__stack_chk_guard
	ldr	x0, [x0, #:got_lo12:__stack_chk_guard]
	ldr	x1, [x0]
	str	x1, [sp, 56]
	mov	x1, 0
	ldr	x0, [sp, 24]
	bl	_ZNSt6vectorIS_IiSaIiEESaIS1_EE3endEv
	str	x0, [sp, 40]
	add	x0, sp, 40
	mov	x1, 1
	bl	_ZNK9__gnu_cxx17__normal_iteratorIPSt6vectorIiSaIiEES1_IS3_SaIS3_EEEmiEl
	str	x0, [sp, 48]
	add	x0, sp, 48
	bl	_ZNK9__gnu_cxx17__normal_iteratorIPSt6vectorIiSaIiEES1_IS3_SaIS3_EEEdeEv
	mov	x1, x0
	adrp	x0, :got:__stack_chk_guard
	ldr	x0, [x0, #:got_lo12:__stack_chk_guard]
	ldr	x3, [sp, 56]
	ldr	x2, [x0]
	subs	x3, x3, x2
	mov	x2, 0
	beq	.L296
	bl	__stack_chk_fail
.L296:
	mov	x0, x1
	ldp	x29, x30, [sp], 64
	.cfi_restore 30
	.cfi_restore 29
	.cfi_def_cfa_offset 0
	ret
	.cfi_endproc
.LFE2878:
	.size	_ZNSt6vectorIS_IiSaIiEESaIS1_EE4backEv, .-_ZNSt6vectorIS_IiSaIiEESaIS1_EE4backEv
	.section	.text._ZSt7forwardIRKiEOT_RNSt16remove_referenceIS2_E4typeE,"axG",@progbits,_ZSt7forwardIRKiEOT_RNSt16remove_referenceIS2_E4typeE,comdat
	.align	2
	.weak	_ZSt7forwardIRKiEOT_RNSt16remove_referenceIS2_E4typeE
	.type	_ZSt7forwardIRKiEOT_RNSt16remove_referenceIS2_E4typeE, %function
_ZSt7forwardIRKiEOT_RNSt16remove_referenceIS2_E4typeE:
.LFB2879:
	.cfi_startproc
	sub	sp, sp, #16
	.cfi_def_cfa_offset 16
	str	x0, [sp, 8]
	ldr	x0, [sp, 8]
	add	sp, sp, 16
	.cfi_def_cfa_offset 0
	ret
	.cfi_endproc
.LFE2879:
	.size	_ZSt7forwardIRKiEOT_RNSt16remove_referenceIS2_E4typeE, .-_ZSt7forwardIRKiEOT_RNSt16remove_referenceIS2_E4typeE
	.section	.text._ZN9__gnu_cxx13new_allocatorIiE9constructIiJRKiEEEvPT_DpOT0_,"axG",@progbits,_ZN9__gnu_cxx13new_allocatorIiE9constructIiJRKiEEEvPT_DpOT0_,comdat
	.align	2
	.weak	_ZN9__gnu_cxx13new_allocatorIiE9constructIiJRKiEEEvPT_DpOT0_
	.type	_ZN9__gnu_cxx13new_allocatorIiE9constructIiJRKiEEEvPT_DpOT0_, %function
_ZN9__gnu_cxx13new_allocatorIiE9constructIiJRKiEEEvPT_DpOT0_:
.LFB2880:
	.cfi_startproc
	stp	x29, x30, [sp, -64]!
	.cfi_def_cfa_offset 64
	.cfi_offset 29, -64
	.cfi_offset 30, -56
	mov	x29, sp
	str	x19, [sp, 16]
	.cfi_offset 19, -48
	str	x0, [sp, 56]
	str	x1, [sp, 48]
	str	x2, [sp, 40]
	ldr	x0, [sp, 40]
	bl	_ZSt7forwardIRKiEOT_RNSt16remove_referenceIS2_E4typeE
	ldr	w19, [x0]
	ldr	x0, [sp, 48]
	mov	x1, x0
	mov	x0, 4
	bl	_ZnwmPv
	str	w19, [x0]
	nop
	ldr	x19, [sp, 16]
	ldp	x29, x30, [sp], 64
	.cfi_restore 30
	.cfi_restore 29
	.cfi_restore 19
	.cfi_def_cfa_offset 0
	ret
	.cfi_endproc
.LFE2880:
	.size	_ZN9__gnu_cxx13new_allocatorIiE9constructIiJRKiEEEvPT_DpOT0_, .-_ZN9__gnu_cxx13new_allocatorIiE9constructIiJRKiEEEvPT_DpOT0_
	.section	.text._ZNKSt5dequeIiSaIiEE4sizeEv,"axG",@progbits,_ZNKSt5dequeIiSaIiEE4sizeEv,comdat
	.align	2
	.weak	_ZNKSt5dequeIiSaIiEE4sizeEv
	.type	_ZNKSt5dequeIiSaIiEE4sizeEv, %function
_ZNKSt5dequeIiSaIiEE4sizeEv:
.LFB2881:
	.cfi_startproc
	stp	x29, x30, [sp, -32]!
	.cfi_def_cfa_offset 32
	.cfi_offset 29, -32
	.cfi_offset 30, -24
	mov	x29, sp
	str	x0, [sp, 24]
	ldr	x0, [sp, 24]
	add	x2, x0, 48
	ldr	x0, [sp, 24]
	add	x0, x0, 16
	mov	x1, x0
	mov	x0, x2
	bl	_ZStmiRKSt15_Deque_iteratorIiRiPiES4_
	ldp	x29, x30, [sp], 32
	.cfi_restore 30
	.cfi_restore 29
	.cfi_def_cfa_offset 0
	ret
	.cfi_endproc
.LFE2881:
	.size	_ZNKSt5dequeIiSaIiEE4sizeEv, .-_ZNKSt5dequeIiSaIiEE4sizeEv
	.section	.text._ZNKSt5dequeIiSaIiEE8max_sizeEv,"axG",@progbits,_ZNKSt5dequeIiSaIiEE8max_sizeEv,comdat
	.align	2
	.weak	_ZNKSt5dequeIiSaIiEE8max_sizeEv
	.type	_ZNKSt5dequeIiSaIiEE8max_sizeEv, %function
_ZNKSt5dequeIiSaIiEE8max_sizeEv:
.LFB2882:
	.cfi_startproc
	stp	x29, x30, [sp, -32]!
	.cfi_def_cfa_offset 32
	.cfi_offset 29, -32
	.cfi_offset 30, -24
	mov	x29, sp
	str	x0, [sp, 24]
	ldr	x0, [sp, 24]
	bl	_ZNKSt11_Deque_baseIiSaIiEE19_M_get_Tp_allocatorEv
	bl	_ZNSt5dequeIiSaIiEE11_S_max_sizeERKS0_
	ldp	x29, x30, [sp], 32
	.cfi_restore 30
	.cfi_restore 29
	.cfi_def_cfa_offset 0
	ret
	.cfi_endproc
.LFE2882:
	.size	_ZNKSt5dequeIiSaIiEE8max_sizeEv, .-_ZNKSt5dequeIiSaIiEE8max_sizeEv
	.section	.text._ZNSt5dequeIiSaIiEE22_M_reserve_map_at_backEm,"axG",@progbits,_ZNSt5dequeIiSaIiEE22_M_reserve_map_at_backEm,comdat
	.align	2
	.weak	_ZNSt5dequeIiSaIiEE22_M_reserve_map_at_backEm
	.type	_ZNSt5dequeIiSaIiEE22_M_reserve_map_at_backEm, %function
_ZNSt5dequeIiSaIiEE22_M_reserve_map_at_backEm:
.LFB2883:
	.cfi_startproc
	stp	x29, x30, [sp, -32]!
	.cfi_def_cfa_offset 32
	.cfi_offset 29, -32
	.cfi_offset 30, -24
	mov	x29, sp
	str	x0, [sp, 24]
	str	x1, [sp, 16]
	ldr	x0, [sp, 16]
	add	x1, x0, 1
	ldr	x0, [sp, 24]
	ldr	x0, [x0, 8]
	ldr	x2, [sp, 24]
	ldr	x3, [x2, 72]
	ldr	x2, [sp, 24]
	ldr	x2, [x2]
	sub	x2, x3, x2
	asr	x2, x2, 3
	sub	x0, x0, x2
	cmp	x1, x0
	bls	.L306
	mov	w2, 0
	ldr	x1, [sp, 16]
	ldr	x0, [sp, 24]
	bl	_ZNSt5dequeIiSaIiEE17_M_reallocate_mapEmb
.L306:
	nop
	ldp	x29, x30, [sp], 32
	.cfi_restore 30
	.cfi_restore 29
	.cfi_def_cfa_offset 0
	ret
	.cfi_endproc
.LFE2883:
	.size	_ZNSt5dequeIiSaIiEE22_M_reserve_map_at_backEm, .-_ZNSt5dequeIiSaIiEE22_M_reserve_map_at_backEm
	.section	.text._ZNSt11_Deque_baseIiSaIiEE16_M_allocate_nodeEv,"axG",@progbits,_ZNSt11_Deque_baseIiSaIiEE16_M_allocate_nodeEv,comdat
	.align	2
	.weak	_ZNSt11_Deque_baseIiSaIiEE16_M_allocate_nodeEv
	.type	_ZNSt11_Deque_baseIiSaIiEE16_M_allocate_nodeEv, %function
_ZNSt11_Deque_baseIiSaIiEE16_M_allocate_nodeEv:
.LFB2884:
	.cfi_startproc
	stp	x29, x30, [sp, -48]!
	.cfi_def_cfa_offset 48
	.cfi_offset 29, -48
	.cfi_offset 30, -40
	mov	x29, sp
	str	x19, [sp, 16]
	.cfi_offset 19, -32
	str	x0, [sp, 40]
	ldr	x19, [sp, 40]
	mov	x0, 4
	bl	_ZSt16__deque_buf_sizem
	mov	x1, x0
	mov	x0, x19
	bl	_ZNSt16allocator_traitsISaIiEE8allocateERS0_m
	ldr	x19, [sp, 16]
	ldp	x29, x30, [sp], 48
	.cfi_restore 30
	.cfi_restore 29
	.cfi_restore 19
	.cfi_def_cfa_offset 0
	ret
	.cfi_endproc
.LFE2884:
	.size	_ZNSt11_Deque_baseIiSaIiEE16_M_allocate_nodeEv, .-_ZNSt11_Deque_baseIiSaIiEE16_M_allocate_nodeEv
	.section	.text._ZN9__gnu_cxx13new_allocatorIiE7destroyIiEEvPT_,"axG",@progbits,_ZN9__gnu_cxx13new_allocatorIiE7destroyIiEEvPT_,comdat
	.align	2
	.weak	_ZN9__gnu_cxx13new_allocatorIiE7destroyIiEEvPT_
	.type	_ZN9__gnu_cxx13new_allocatorIiE7destroyIiEEvPT_, %function
_ZN9__gnu_cxx13new_allocatorIiE7destroyIiEEvPT_:
.LFB2885:
	.cfi_startproc
	sub	sp, sp, #16
	.cfi_def_cfa_offset 16
	str	x0, [sp, 8]
	str	x1, [sp]
	nop
	add	sp, sp, 16
	.cfi_def_cfa_offset 0
	ret
	.cfi_endproc
.LFE2885:
	.size	_ZN9__gnu_cxx13new_allocatorIiE7destroyIiEEvPT_, .-_ZN9__gnu_cxx13new_allocatorIiE7destroyIiEEvPT_
	.section	.text._ZNKSt16initializer_listIiE4sizeEv,"axG",@progbits,_ZNKSt16initializer_listIiE4sizeEv,comdat
	.align	2
	.weak	_ZNKSt16initializer_listIiE4sizeEv
	.type	_ZNKSt16initializer_listIiE4sizeEv, %function
_ZNKSt16initializer_listIiE4sizeEv:
.LFB2886:
	.cfi_startproc
	sub	sp, sp, #16
	.cfi_def_cfa_offset 16
	str	x0, [sp, 8]
	ldr	x0, [sp, 8]
	ldr	x0, [x0, 8]
	add	sp, sp, 16
	.cfi_def_cfa_offset 0
	ret
	.cfi_endproc
.LFE2886:
	.size	_ZNKSt16initializer_listIiE4sizeEv, .-_ZNKSt16initializer_listIiE4sizeEv
	.section	.text._ZSt19__iterator_categoryIPKiENSt15iterator_traitsIT_E17iterator_categoryERKS3_,"axG",@progbits,_ZSt19__iterator_categoryIPKiENSt15iterator_traitsIT_E17iterator_categoryERKS3_,comdat
	.align	2
	.weak	_ZSt19__iterator_categoryIPKiENSt15iterator_traitsIT_E17iterator_categoryERKS3_
	.type	_ZSt19__iterator_categoryIPKiENSt15iterator_traitsIT_E17iterator_categoryERKS3_, %function
_ZSt19__iterator_categoryIPKiENSt15iterator_traitsIT_E17iterator_categoryERKS3_:
.LFB2887:
	.cfi_startproc
	sub	sp, sp, #16
	.cfi_def_cfa_offset 16
	str	x0, [sp, 8]
	mov	w0, w1
	add	sp, sp, 16
	.cfi_def_cfa_offset 0
	ret
	.cfi_endproc
.LFE2887:
	.size	_ZSt19__iterator_categoryIPKiENSt15iterator_traitsIT_E17iterator_categoryERKS3_, .-_ZSt19__iterator_categoryIPKiENSt15iterator_traitsIT_E17iterator_categoryERKS3_
	.section	.text._ZSt10__distanceIPKiENSt15iterator_traitsIT_E15difference_typeES3_S3_St26random_access_iterator_tag,"axG",@progbits,_ZSt10__distanceIPKiENSt15iterator_traitsIT_E15difference_typeES3_S3_St26random_access_iterator_tag,comdat
	.align	2
	.weak	_ZSt10__distanceIPKiENSt15iterator_traitsIT_E15difference_typeES3_S3_St26random_access_iterator_tag
	.type	_ZSt10__distanceIPKiENSt15iterator_traitsIT_E15difference_typeES3_S3_St26random_access_iterator_tag, %function
_ZSt10__distanceIPKiENSt15iterator_traitsIT_E15difference_typeES3_S3_St26random_access_iterator_tag:
.LFB2888:
	.cfi_startproc
	sub	sp, sp, #32
	.cfi_def_cfa_offset 32
	str	x0, [sp, 24]
	str	x1, [sp, 16]
	strb	w2, [sp, 8]
	ldr	x1, [sp, 16]
	ldr	x0, [sp, 24]
	sub	x0, x1, x0
	asr	x0, x0, 2
	add	sp, sp, 32
	.cfi_def_cfa_offset 0
	ret
	.cfi_endproc
.LFE2888:
	.size	_ZSt10__distanceIPKiENSt15iterator_traitsIT_E15difference_typeES3_S3_St26random_access_iterator_tag, .-_ZSt10__distanceIPKiENSt15iterator_traitsIT_E15difference_typeES3_S3_St26random_access_iterator_tag
	.section	.text._ZSt22__uninitialized_copy_aIPKiPiiET0_T_S4_S3_RSaIT1_E,"axG",@progbits,_ZSt22__uninitialized_copy_aIPKiPiiET0_T_S4_S3_RSaIT1_E,comdat
	.align	2
	.weak	_ZSt22__uninitialized_copy_aIPKiPiiET0_T_S4_S3_RSaIT1_E
	.type	_ZSt22__uninitialized_copy_aIPKiPiiET0_T_S4_S3_RSaIT1_E, %function
_ZSt22__uninitialized_copy_aIPKiPiiET0_T_S4_S3_RSaIT1_E:
.LFB2889:
	.cfi_startproc
	stp	x29, x30, [sp, -48]!
	.cfi_def_cfa_offset 48
	.cfi_offset 29, -48
	.cfi_offset 30, -40
	mov	x29, sp
	str	x0, [sp, 40]
	str	x1, [sp, 32]
	str	x2, [sp, 24]
	str	x3, [sp, 16]
	ldr	x2, [sp, 24]
	ldr	x1, [sp, 32]
	ldr	x0, [sp, 40]
	bl	_ZSt18uninitialized_copyIPKiPiET0_T_S4_S3_
	ldp	x29, x30, [sp], 48
	.cfi_restore 30
	.cfi_restore 29
	.cfi_def_cfa_offset 0
	ret
	.cfi_endproc
.LFE2889:
	.size	_ZSt22__uninitialized_copy_aIPKiPiiET0_T_S4_S3_RSaIT1_E, .-_ZSt22__uninitialized_copy_aIPKiPiiET0_T_S4_S3_RSaIT1_E
	.section	.text._ZN9__gnu_cxx17__normal_iteratorIPKSt6vectorIiSaIiEES1_IS3_SaIS3_EEEC2ERKS5_,"axG",@progbits,_ZN9__gnu_cxx17__normal_iteratorIPKSt6vectorIiSaIiEES1_IS3_SaIS3_EEEC5ERKS5_,comdat
	.align	2
	.weak	_ZN9__gnu_cxx17__normal_iteratorIPKSt6vectorIiSaIiEES1_IS3_SaIS3_EEEC2ERKS5_
	.type	_ZN9__gnu_cxx17__normal_iteratorIPKSt6vectorIiSaIiEES1_IS3_SaIS3_EEEC2ERKS5_, %function
_ZN9__gnu_cxx17__normal_iteratorIPKSt6vectorIiSaIiEES1_IS3_SaIS3_EEEC2ERKS5_:
.LFB2893:
	.cfi_startproc
	sub	sp, sp, #16
	.cfi_def_cfa_offset 16
	str	x0, [sp, 8]
	str	x1, [sp]
	ldr	x0, [sp]
	ldr	x1, [x0]
	ldr	x0, [sp, 8]
	str	x1, [x0]
	nop
	add	sp, sp, 16
	.cfi_def_cfa_offset 0
	ret
	.cfi_endproc
.LFE2893:
	.size	_ZN9__gnu_cxx17__normal_iteratorIPKSt6vectorIiSaIiEES1_IS3_SaIS3_EEEC2ERKS5_, .-_ZN9__gnu_cxx17__normal_iteratorIPKSt6vectorIiSaIiEES1_IS3_SaIS3_EEEC2ERKS5_
	.weak	_ZN9__gnu_cxx17__normal_iteratorIPKSt6vectorIiSaIiEES1_IS3_SaIS3_EEEC1ERKS5_
	.set	_ZN9__gnu_cxx17__normal_iteratorIPKSt6vectorIiSaIiEES1_IS3_SaIS3_EEEC1ERKS5_,_ZN9__gnu_cxx17__normal_iteratorIPKSt6vectorIiSaIiEES1_IS3_SaIS3_EEEC2ERKS5_
	.section	.text._ZNK9__gnu_cxx17__normal_iteratorIPKSt6vectorIiSaIiEES1_IS3_SaIS3_EEE4baseEv,"axG",@progbits,_ZNK9__gnu_cxx17__normal_iteratorIPKSt6vectorIiSaIiEES1_IS3_SaIS3_EEE4baseEv,comdat
	.align	2
	.weak	_ZNK9__gnu_cxx17__normal_iteratorIPKSt6vectorIiSaIiEES1_IS3_SaIS3_EEE4baseEv
	.type	_ZNK9__gnu_cxx17__normal_iteratorIPKSt6vectorIiSaIiEES1_IS3_SaIS3_EEE4baseEv, %function
_ZNK9__gnu_cxx17__normal_iteratorIPKSt6vectorIiSaIiEES1_IS3_SaIS3_EEE4baseEv:
.LFB2895:
	.cfi_startproc
	sub	sp, sp, #16
	.cfi_def_cfa_offset 16
	str	x0, [sp, 8]
	ldr	x0, [sp, 8]
	add	sp, sp, 16
	.cfi_def_cfa_offset 0
	ret
	.cfi_endproc
.LFE2895:
	.size	_ZNK9__gnu_cxx17__normal_iteratorIPKSt6vectorIiSaIiEES1_IS3_SaIS3_EEE4baseEv, .-_ZNK9__gnu_cxx17__normal_iteratorIPKSt6vectorIiSaIiEES1_IS3_SaIS3_EEE4baseEv
	.section	.text._ZN9__gnu_cxx13new_allocatorISt6vectorIiSaIiEEE10deallocateEPS3_m,"axG",@progbits,_ZN9__gnu_cxx13new_allocatorISt6vectorIiSaIiEEE10deallocateEPS3_m,comdat
	.align	2
	.weak	_ZN9__gnu_cxx13new_allocatorISt6vectorIiSaIiEEE10deallocateEPS3_m
	.type	_ZN9__gnu_cxx13new_allocatorISt6vectorIiSaIiEEE10deallocateEPS3_m, %function
_ZN9__gnu_cxx13new_allocatorISt6vectorIiSaIiEEE10deallocateEPS3_m:
.LFB2937:
	.cfi_startproc
	stp	x29, x30, [sp, -48]!
	.cfi_def_cfa_offset 48
	.cfi_offset 29, -48
	.cfi_offset 30, -40
	mov	x29, sp
	str	x0, [sp, 40]
	str	x1, [sp, 32]
	str	x2, [sp, 24]
	ldr	x1, [sp, 24]
	mov	x0, x1
	lsl	x0, x0, 1
	add	x0, x0, x1
	lsl	x0, x0, 3
	mov	x1, x0
	ldr	x0, [sp, 32]
	bl	_ZdlPvm
	ldp	x29, x30, [sp], 48
	.cfi_restore 30
	.cfi_restore 29
	.cfi_def_cfa_offset 0
	ret
	.cfi_endproc
.LFE2937:
	.size	_ZN9__gnu_cxx13new_allocatorISt6vectorIiSaIiEEE10deallocateEPS3_m, .-_ZN9__gnu_cxx13new_allocatorISt6vectorIiSaIiEEE10deallocateEPS3_m
	.section	.text._ZNSt12_Destroy_auxILb0EE9__destroyIPSt6vectorIiSaIiEEEEvT_S6_,"axG",@progbits,_ZNSt12_Destroy_auxILb0EE9__destroyIPSt6vectorIiSaIiEEEEvT_S6_,comdat
	.align	2
	.weak	_ZNSt12_Destroy_auxILb0EE9__destroyIPSt6vectorIiSaIiEEEEvT_S6_
	.type	_ZNSt12_Destroy_auxILb0EE9__destroyIPSt6vectorIiSaIiEEEEvT_S6_, %function
_ZNSt12_Destroy_auxILb0EE9__destroyIPSt6vectorIiSaIiEEEEvT_S6_:
.LFB2938:
	.cfi_startproc
	stp	x29, x30, [sp, -32]!
	.cfi_def_cfa_offset 32
	.cfi_offset 29, -32
	.cfi_offset 30, -24
	mov	x29, sp
	str	x0, [sp, 24]
	str	x1, [sp, 16]
	b	.L324
.L325:
	ldr	x0, [sp, 24]
	bl	_ZSt11__addressofISt6vectorIiSaIiEEEPT_RS3_
	bl	_ZSt8_DestroyISt6vectorIiSaIiEEEvPT_
	ldr	x0, [sp, 24]
	add	x0, x0, 24
	str	x0, [sp, 24]
.L324:
	ldr	x1, [sp, 24]
	ldr	x0, [sp, 16]
	cmp	x1, x0
	bne	.L325
	nop
	nop
	ldp	x29, x30, [sp], 32
	.cfi_restore 30
	.cfi_restore 29
	.cfi_def_cfa_offset 0
	ret
	.cfi_endproc
.LFE2938:
	.size	_ZNSt12_Destroy_auxILb0EE9__destroyIPSt6vectorIiSaIiEEEEvT_S6_, .-_ZNSt12_Destroy_auxILb0EE9__destroyIPSt6vectorIiSaIiEEEEvT_S6_
	.section	.text._ZNSaImEC2IbEERKSaIT_E,"axG",@progbits,_ZNSaImEC5IbEERKSaIT_E,comdat
	.align	2
	.weak	_ZNSaImEC2IbEERKSaIT_E
	.type	_ZNSaImEC2IbEERKSaIT_E, %function
_ZNSaImEC2IbEERKSaIT_E:
.LFB2940:
	.cfi_startproc
	stp	x29, x30, [sp, -32]!
	.cfi_def_cfa_offset 32
	.cfi_offset 29, -32
	.cfi_offset 30, -24
	mov	x29, sp
	str	x0, [sp, 24]
	str	x1, [sp, 16]
	ldr	x0, [sp, 24]
	bl	_ZN9__gnu_cxx13new_allocatorImEC2Ev
	nop
	ldp	x29, x30, [sp], 32
	.cfi_restore 30
	.cfi_restore 29
	.cfi_def_cfa_offset 0
	ret
	.cfi_endproc
.LFE2940:
	.size	_ZNSaImEC2IbEERKSaIT_E, .-_ZNSaImEC2IbEERKSaIT_E
	.weak	_ZNSaImEC1IbEERKSaIT_E
	.set	_ZNSaImEC1IbEERKSaIT_E,_ZNSaImEC2IbEERKSaIT_E
	.section	.text._ZNSt13_Bvector_baseISaIbEE13_Bvector_implC2ERKSaImE,"axG",@progbits,_ZNSt13_Bvector_baseISaIbEE13_Bvector_implC5ERKSaImE,comdat
	.align	2
	.weak	_ZNSt13_Bvector_baseISaIbEE13_Bvector_implC2ERKSaImE
	.type	_ZNSt13_Bvector_baseISaIbEE13_Bvector_implC2ERKSaImE, %function
_ZNSt13_Bvector_baseISaIbEE13_Bvector_implC2ERKSaImE:
.LFB2943:
	.cfi_startproc
	stp	x29, x30, [sp, -32]!
	.cfi_def_cfa_offset 32
	.cfi_offset 29, -32
	.cfi_offset 30, -24
	mov	x29, sp
	str	x0, [sp, 24]
	str	x1, [sp, 16]
	ldr	x1, [sp, 16]
	ldr	x0, [sp, 24]
	bl	_ZNSaImEC2ERKS_
	ldr	x0, [sp, 24]
	bl	_ZNSt13_Bvector_baseISaIbEE18_Bvector_impl_dataC2Ev
	nop
	ldp	x29, x30, [sp], 32
	.cfi_restore 30
	.cfi_restore 29
	.cfi_def_cfa_offset 0
	ret
	.cfi_endproc
.LFE2943:
	.size	_ZNSt13_Bvector_baseISaIbEE13_Bvector_implC2ERKSaImE, .-_ZNSt13_Bvector_baseISaIbEE13_Bvector_implC2ERKSaImE
	.weak	_ZNSt13_Bvector_baseISaIbEE13_Bvector_implC1ERKSaImE
	.set	_ZNSt13_Bvector_baseISaIbEE13_Bvector_implC1ERKSaImE,_ZNSt13_Bvector_baseISaIbEE13_Bvector_implC2ERKSaImE
	.section	.text._ZNSt13_Bvector_baseISaIbEE11_M_allocateEm,"axG",@progbits,_ZNSt13_Bvector_baseISaIbEE11_M_allocateEm,comdat
	.align	2
	.weak	_ZNSt13_Bvector_baseISaIbEE11_M_allocateEm
	.type	_ZNSt13_Bvector_baseISaIbEE11_M_allocateEm, %function
_ZNSt13_Bvector_baseISaIbEE11_M_allocateEm:
.LFB2945:
	.cfi_startproc
	stp	x29, x30, [sp, -48]!
	.cfi_def_cfa_offset 48
	.cfi_offset 29, -48
	.cfi_offset 30, -40
	mov	x29, sp
	str	x19, [sp, 16]
	.cfi_offset 19, -32
	str	x0, [sp, 40]
	str	x1, [sp, 32]
	ldr	x19, [sp, 40]
	ldr	x0, [sp, 32]
	bl	_ZNSt13_Bvector_baseISaIbEE8_S_nwordEm
	mov	x1, x0
	mov	x0, x19
	bl	_ZNSt16allocator_traitsISaImEE8allocateERS0_m
	ldr	x19, [sp, 16]
	ldp	x29, x30, [sp], 48
	.cfi_restore 30
	.cfi_restore 29
	.cfi_restore 19
	.cfi_def_cfa_offset 0
	ret
	.cfi_endproc
.LFE2945:
	.size	_ZNSt13_Bvector_baseISaIbEE11_M_allocateEm, .-_ZNSt13_Bvector_baseISaIbEE11_M_allocateEm
	.section	.text._ZNSt13_Bvector_baseISaIbEE8_S_nwordEm,"axG",@progbits,_ZNSt13_Bvector_baseISaIbEE8_S_nwordEm,comdat
	.align	2
	.weak	_ZNSt13_Bvector_baseISaIbEE8_S_nwordEm
	.type	_ZNSt13_Bvector_baseISaIbEE8_S_nwordEm, %function
_ZNSt13_Bvector_baseISaIbEE8_S_nwordEm:
.LFB2946:
	.cfi_startproc
	sub	sp, sp, #16
	.cfi_def_cfa_offset 16
	str	x0, [sp, 8]
	ldr	x0, [sp, 8]
	add	x0, x0, 63
	lsr	x0, x0, 6
	add	sp, sp, 16
	.cfi_def_cfa_offset 0
	ret
	.cfi_endproc
.LFE2946:
	.size	_ZNSt13_Bvector_baseISaIbEE8_S_nwordEm, .-_ZNSt13_Bvector_baseISaIbEE8_S_nwordEm
	.section	.text._ZSt11__addressofImEPT_RS0_,"axG",@progbits,_ZSt11__addressofImEPT_RS0_,comdat
	.align	2
	.weak	_ZSt11__addressofImEPT_RS0_
	.type	_ZSt11__addressofImEPT_RS0_, %function
_ZSt11__addressofImEPT_RS0_:
.LFB2947:
	.cfi_startproc
	sub	sp, sp, #16
	.cfi_def_cfa_offset 16
	str	x0, [sp, 8]
	ldr	x0, [sp, 8]
	add	sp, sp, 16
	.cfi_def_cfa_offset 0
	ret
	.cfi_endproc
.LFE2947:
	.size	_ZSt11__addressofImEPT_RS0_, .-_ZSt11__addressofImEPT_RS0_
	.section	.text._ZNKSt13_Bvector_baseISaIbEE13_Bvector_impl11_M_end_addrEv,"axG",@progbits,_ZNKSt13_Bvector_baseISaIbEE13_Bvector_impl11_M_end_addrEv,comdat
	.align	2
	.weak	_ZNKSt13_Bvector_baseISaIbEE13_Bvector_impl11_M_end_addrEv
	.type	_ZNKSt13_Bvector_baseISaIbEE13_Bvector_impl11_M_end_addrEv, %function
_ZNKSt13_Bvector_baseISaIbEE13_Bvector_impl11_M_end_addrEv:
.LFB2948:
	.cfi_startproc
	stp	x29, x30, [sp, -32]!
	.cfi_def_cfa_offset 32
	.cfi_offset 29, -32
	.cfi_offset 30, -24
	mov	x29, sp
	str	x0, [sp, 24]
	ldr	x0, [sp, 24]
	ldr	x0, [x0, 32]
	cmp	x0, 0
	beq	.L335
	ldr	x0, [sp, 24]
	ldr	x0, [x0, 32]
	sub	x0, x0, #8
	bl	_ZSt11__addressofImEPT_RS0_
	add	x0, x0, 8
	b	.L336
.L335:
	mov	x0, 0
.L336:
	ldp	x29, x30, [sp], 32
	.cfi_restore 30
	.cfi_restore 29
	.cfi_def_cfa_offset 0
	ret
	.cfi_endproc
.LFE2948:
	.size	_ZNKSt13_Bvector_baseISaIbEE13_Bvector_impl11_M_end_addrEv, .-_ZNKSt13_Bvector_baseISaIbEE13_Bvector_impl11_M_end_addrEv
	.section	.text._ZN9__gnu_cxx13new_allocatorImED2Ev,"axG",@progbits,_ZN9__gnu_cxx13new_allocatorImED5Ev,comdat
	.align	2
	.weak	_ZN9__gnu_cxx13new_allocatorImED2Ev
	.type	_ZN9__gnu_cxx13new_allocatorImED2Ev, %function
_ZN9__gnu_cxx13new_allocatorImED2Ev:
.LFB2950:
	.cfi_startproc
	sub	sp, sp, #16
	.cfi_def_cfa_offset 16
	str	x0, [sp, 8]
	nop
	add	sp, sp, 16
	.cfi_def_cfa_offset 0
	ret
	.cfi_endproc
.LFE2950:
	.size	_ZN9__gnu_cxx13new_allocatorImED2Ev, .-_ZN9__gnu_cxx13new_allocatorImED2Ev
	.weak	_ZN9__gnu_cxx13new_allocatorImED1Ev
	.set	_ZN9__gnu_cxx13new_allocatorImED1Ev,_ZN9__gnu_cxx13new_allocatorImED2Ev
	.section	.text._ZNSt16allocator_traitsISaImEE10deallocateERS0_Pmm,"axG",@progbits,_ZNSt16allocator_traitsISaImEE10deallocateERS0_Pmm,comdat
	.align	2
	.weak	_ZNSt16allocator_traitsISaImEE10deallocateERS0_Pmm
	.type	_ZNSt16allocator_traitsISaImEE10deallocateERS0_Pmm, %function
_ZNSt16allocator_traitsISaImEE10deallocateERS0_Pmm:
.LFB2952:
	.cfi_startproc
	stp	x29, x30, [sp, -48]!
	.cfi_def_cfa_offset 48
	.cfi_offset 29, -48
	.cfi_offset 30, -40
	mov	x29, sp
	str	x0, [sp, 40]
	str	x1, [sp, 32]
	str	x2, [sp, 24]
	ldr	x2, [sp, 24]
	ldr	x1, [sp, 32]
	ldr	x0, [sp, 40]
	bl	_ZN9__gnu_cxx13new_allocatorImE10deallocateEPmm
	nop
	ldp	x29, x30, [sp], 48
	.cfi_restore 30
	.cfi_restore 29
	.cfi_def_cfa_offset 0
	ret
	.cfi_endproc
.LFE2952:
	.size	_ZNSt16allocator_traitsISaImEE10deallocateERS0_Pmm, .-_ZNSt16allocator_traitsISaImEE10deallocateERS0_Pmm
	.section	.text._ZNSt13_Bvector_baseISaIbEE18_Bvector_impl_data8_M_resetEv,"axG",@progbits,_ZNSt13_Bvector_baseISaIbEE18_Bvector_impl_data8_M_resetEv,comdat
	.align	2
	.weak	_ZNSt13_Bvector_baseISaIbEE18_Bvector_impl_data8_M_resetEv
	.type	_ZNSt13_Bvector_baseISaIbEE18_Bvector_impl_data8_M_resetEv, %function
_ZNSt13_Bvector_baseISaIbEE18_Bvector_impl_data8_M_resetEv:
.LFB2953:
	.cfi_startproc
	stp	x29, x30, [sp, -80]!
	.cfi_def_cfa_offset 80
	.cfi_offset 29, -80
	.cfi_offset 30, -72
	mov	x29, sp
	str	x0, [sp, 24]
	adrp	x0, :got:__stack_chk_guard
	ldr	x0, [x0, #:got_lo12:__stack_chk_guard]
	ldr	x1, [x0]
	str	x1, [sp, 72]
	mov	x1, 0
	add	x0, sp, 32
	bl	_ZNSt13_Bvector_baseISaIbEE18_Bvector_impl_dataC1Ev
	ldr	x0, [sp, 24]
	mov	x1, x0
	add	x0, sp, 32
	ldp	q0, q1, [x0]
	stp	q0, q1, [x1]
	ldr	x0, [x0, 32]
	str	x0, [x1, 32]
	nop
	adrp	x0, :got:__stack_chk_guard
	ldr	x0, [x0, #:got_lo12:__stack_chk_guard]
	ldr	x2, [sp, 72]
	ldr	x1, [x0]
	subs	x2, x2, x1
	mov	x1, 0
	beq	.L340
	bl	__stack_chk_fail
.L340:
	ldp	x29, x30, [sp], 80
	.cfi_restore 30
	.cfi_restore 29
	.cfi_def_cfa_offset 0
	ret
	.cfi_endproc
.LFE2953:
	.size	_ZNSt13_Bvector_baseISaIbEE18_Bvector_impl_data8_M_resetEv, .-_ZNSt13_Bvector_baseISaIbEE18_Bvector_impl_data8_M_resetEv
	.section	.text._ZNSt15_Deque_iteratorIiRiPiEC2Ev,"axG",@progbits,_ZNSt15_Deque_iteratorIiRiPiEC5Ev,comdat
	.align	2
	.weak	_ZNSt15_Deque_iteratorIiRiPiEC2Ev
	.type	_ZNSt15_Deque_iteratorIiRiPiEC2Ev, %function
_ZNSt15_Deque_iteratorIiRiPiEC2Ev:
.LFB2955:
	.cfi_startproc
	sub	sp, sp, #16
	.cfi_def_cfa_offset 16
	str	x0, [sp, 8]
	ldr	x0, [sp, 8]
	str	xzr, [x0]
	ldr	x0, [sp, 8]
	str	xzr, [x0, 8]
	ldr	x0, [sp, 8]
	str	xzr, [x0, 16]
	ldr	x0, [sp, 8]
	str	xzr, [x0, 24]
	nop
	add	sp, sp, 16
	.cfi_def_cfa_offset 0
	ret
	.cfi_endproc
.LFE2955:
	.size	_ZNSt15_Deque_iteratorIiRiPiEC2Ev, .-_ZNSt15_Deque_iteratorIiRiPiEC2Ev
	.weak	_ZNSt15_Deque_iteratorIiRiPiEC1Ev
	.set	_ZNSt15_Deque_iteratorIiRiPiEC1Ev,_ZNSt15_Deque_iteratorIiRiPiEC2Ev
	.section	.text._ZNSt16allocator_traitsISaIPiEE8allocateERS1_m,"axG",@progbits,_ZNSt16allocator_traitsISaIPiEE8allocateERS1_m,comdat
	.align	2
	.weak	_ZNSt16allocator_traitsISaIPiEE8allocateERS1_m
	.type	_ZNSt16allocator_traitsISaIPiEE8allocateERS1_m, %function
_ZNSt16allocator_traitsISaIPiEE8allocateERS1_m:
.LFB2957:
	.cfi_startproc
	stp	x29, x30, [sp, -32]!
	.cfi_def_cfa_offset 32
	.cfi_offset 29, -32
	.cfi_offset 30, -24
	mov	x29, sp
	str	x0, [sp, 24]
	str	x1, [sp, 16]
	mov	x2, 0
	ldr	x1, [sp, 16]
	ldr	x0, [sp, 24]
	bl	_ZN9__gnu_cxx13new_allocatorIPiE8allocateEmPKv
	ldp	x29, x30, [sp], 32
	.cfi_restore 30
	.cfi_restore 29
	.cfi_def_cfa_offset 0
	ret
	.cfi_endproc
.LFE2957:
	.size	_ZNSt16allocator_traitsISaIPiEE8allocateERS1_m, .-_ZNSt16allocator_traitsISaIPiEE8allocateERS1_m
	.section	.text._ZNSt15_Deque_iteratorIiRiPiE14_S_buffer_sizeEv,"axG",@progbits,_ZNSt15_Deque_iteratorIiRiPiE14_S_buffer_sizeEv,comdat
	.align	2
	.weak	_ZNSt15_Deque_iteratorIiRiPiE14_S_buffer_sizeEv
	.type	_ZNSt15_Deque_iteratorIiRiPiE14_S_buffer_sizeEv, %function
_ZNSt15_Deque_iteratorIiRiPiE14_S_buffer_sizeEv:
.LFB2958:
	.cfi_startproc
	stp	x29, x30, [sp, -16]!
	.cfi_def_cfa_offset 16
	.cfi_offset 29, -16
	.cfi_offset 30, -8
	mov	x29, sp
	mov	x0, 4
	bl	_ZSt16__deque_buf_sizem
	ldp	x29, x30, [sp], 16
	.cfi_restore 30
	.cfi_restore 29
	.cfi_def_cfa_offset 0
	ret
	.cfi_endproc
.LFE2958:
	.size	_ZNSt15_Deque_iteratorIiRiPiE14_S_buffer_sizeEv, .-_ZNSt15_Deque_iteratorIiRiPiE14_S_buffer_sizeEv
	.section	.text._ZNSt16allocator_traitsISaIiEE10deallocateERS0_Pim,"axG",@progbits,_ZNSt16allocator_traitsISaIiEE10deallocateERS0_Pim,comdat
	.align	2
	.weak	_ZNSt16allocator_traitsISaIiEE10deallocateERS0_Pim
	.type	_ZNSt16allocator_traitsISaIiEE10deallocateERS0_Pim, %function
_ZNSt16allocator_traitsISaIiEE10deallocateERS0_Pim:
.LFB2959:
	.cfi_startproc
	stp	x29, x30, [sp, -48]!
	.cfi_def_cfa_offset 48
	.cfi_offset 29, -48
	.cfi_offset 30, -40
	mov	x29, sp
	str	x0, [sp, 40]
	str	x1, [sp, 32]
	str	x2, [sp, 24]
	ldr	x2, [sp, 24]
	ldr	x1, [sp, 32]
	ldr	x0, [sp, 40]
	bl	_ZN9__gnu_cxx13new_allocatorIiE10deallocateEPim
	nop
	ldp	x29, x30, [sp], 48
	.cfi_restore 30
	.cfi_restore 29
	.cfi_def_cfa_offset 0
	ret
	.cfi_endproc
.LFE2959:
	.size	_ZNSt16allocator_traitsISaIiEE10deallocateERS0_Pim, .-_ZNSt16allocator_traitsISaIiEE10deallocateERS0_Pim
	.section	.text._ZNKSt11_Deque_baseIiSaIiEE19_M_get_Tp_allocatorEv,"axG",@progbits,_ZNKSt11_Deque_baseIiSaIiEE19_M_get_Tp_allocatorEv,comdat
	.align	2
	.weak	_ZNKSt11_Deque_baseIiSaIiEE19_M_get_Tp_allocatorEv
	.type	_ZNKSt11_Deque_baseIiSaIiEE19_M_get_Tp_allocatorEv, %function
_ZNKSt11_Deque_baseIiSaIiEE19_M_get_Tp_allocatorEv:
.LFB2960:
	.cfi_startproc
	sub	sp, sp, #16
	.cfi_def_cfa_offset 16
	str	x0, [sp, 8]
	ldr	x0, [sp, 8]
	add	sp, sp, 16
	.cfi_def_cfa_offset 0
	ret
	.cfi_endproc
.LFE2960:
	.size	_ZNKSt11_Deque_baseIiSaIiEE19_M_get_Tp_allocatorEv, .-_ZNKSt11_Deque_baseIiSaIiEE19_M_get_Tp_allocatorEv
	.section	.text._ZNSaIPiEC2IiEERKSaIT_E,"axG",@progbits,_ZNSaIPiEC5IiEERKSaIT_E,comdat
	.align	2
	.weak	_ZNSaIPiEC2IiEERKSaIT_E
	.type	_ZNSaIPiEC2IiEERKSaIT_E, %function
_ZNSaIPiEC2IiEERKSaIT_E:
.LFB2962:
	.cfi_startproc
	stp	x29, x30, [sp, -32]!
	.cfi_def_cfa_offset 32
	.cfi_offset 29, -32
	.cfi_offset 30, -24
	mov	x29, sp
	str	x0, [sp, 24]
	str	x1, [sp, 16]
	ldr	x0, [sp, 24]
	bl	_ZN9__gnu_cxx13new_allocatorIPiEC2Ev
	nop
	ldp	x29, x30, [sp], 32
	.cfi_restore 30
	.cfi_restore 29
	.cfi_def_cfa_offset 0
	ret
	.cfi_endproc
.LFE2962:
	.size	_ZNSaIPiEC2IiEERKSaIT_E, .-_ZNSaIPiEC2IiEERKSaIT_E
	.weak	_ZNSaIPiEC1IiEERKSaIT_E
	.set	_ZNSaIPiEC1IiEERKSaIT_E,_ZNSaIPiEC2IiEERKSaIT_E
	.section	.text._ZN9__gnu_cxx13new_allocatorIPiED2Ev,"axG",@progbits,_ZN9__gnu_cxx13new_allocatorIPiED5Ev,comdat
	.align	2
	.weak	_ZN9__gnu_cxx13new_allocatorIPiED2Ev
	.type	_ZN9__gnu_cxx13new_allocatorIPiED2Ev, %function
_ZN9__gnu_cxx13new_allocatorIPiED2Ev:
.LFB2965:
	.cfi_startproc
	sub	sp, sp, #16
	.cfi_def_cfa_offset 16
	str	x0, [sp, 8]
	nop
	add	sp, sp, 16
	.cfi_def_cfa_offset 0
	ret
	.cfi_endproc
.LFE2965:
	.size	_ZN9__gnu_cxx13new_allocatorIPiED2Ev, .-_ZN9__gnu_cxx13new_allocatorIPiED2Ev
	.weak	_ZN9__gnu_cxx13new_allocatorIPiED1Ev
	.set	_ZN9__gnu_cxx13new_allocatorIPiED1Ev,_ZN9__gnu_cxx13new_allocatorIPiED2Ev
	.section	.text._ZN9__gnu_cxx13new_allocatorIPiE10deallocateEPS1_m,"axG",@progbits,_ZN9__gnu_cxx13new_allocatorIPiE10deallocateEPS1_m,comdat
	.align	2
	.weak	_ZN9__gnu_cxx13new_allocatorIPiE10deallocateEPS1_m
	.type	_ZN9__gnu_cxx13new_allocatorIPiE10deallocateEPS1_m, %function
_ZN9__gnu_cxx13new_allocatorIPiE10deallocateEPS1_m:
.LFB2967:
	.cfi_startproc
	stp	x29, x30, [sp, -48]!
	.cfi_def_cfa_offset 48
	.cfi_offset 29, -48
	.cfi_offset 30, -40
	mov	x29, sp
	str	x0, [sp, 40]
	str	x1, [sp, 32]
	str	x2, [sp, 24]
	ldr	x0, [sp, 24]
	lsl	x0, x0, 3
	mov	x1, x0
	ldr	x0, [sp, 32]
	bl	_ZdlPvm
	ldp	x29, x30, [sp], 48
	.cfi_restore 30
	.cfi_restore 29
	.cfi_def_cfa_offset 0
	ret
	.cfi_endproc
.LFE2967:
	.size	_ZN9__gnu_cxx13new_allocatorIPiE10deallocateEPS1_m, .-_ZN9__gnu_cxx13new_allocatorIPiE10deallocateEPS1_m
	.section	.text._ZNSaIiEC2ERKS_,"axG",@progbits,_ZNSaIiEC5ERKS_,comdat
	.align	2
	.weak	_ZNSaIiEC2ERKS_
	.type	_ZNSaIiEC2ERKS_, %function
_ZNSaIiEC2ERKS_:
.LFB2970:
	.cfi_startproc
	stp	x29, x30, [sp, -32]!
	.cfi_def_cfa_offset 32
	.cfi_offset 29, -32
	.cfi_offset 30, -24
	mov	x29, sp
	str	x0, [sp, 24]
	str	x1, [sp, 16]
	ldr	x1, [sp, 16]
	ldr	x0, [sp, 24]
	bl	_ZN9__gnu_cxx13new_allocatorIiEC2ERKS1_
	nop
	ldp	x29, x30, [sp], 32
	.cfi_restore 30
	.cfi_restore 29
	.cfi_def_cfa_offset 0
	ret
	.cfi_endproc
.LFE2970:
	.size	_ZNSaIiEC2ERKS_, .-_ZNSaIiEC2ERKS_
	.weak	_ZNSaIiEC1ERKS_
	.set	_ZNSaIiEC1ERKS_,_ZNSaIiEC2ERKS_
	.section	.text._ZNSt12_Vector_baseIiSaIiEE17_Vector_impl_dataC2Ev,"axG",@progbits,_ZNSt12_Vector_baseIiSaIiEE17_Vector_impl_dataC5Ev,comdat
	.align	2
	.weak	_ZNSt12_Vector_baseIiSaIiEE17_Vector_impl_dataC2Ev
	.type	_ZNSt12_Vector_baseIiSaIiEE17_Vector_impl_dataC2Ev, %function
_ZNSt12_Vector_baseIiSaIiEE17_Vector_impl_dataC2Ev:
.LFB2973:
	.cfi_startproc
	sub	sp, sp, #16
	.cfi_def_cfa_offset 16
	str	x0, [sp, 8]
	ldr	x0, [sp, 8]
	str	xzr, [x0]
	ldr	x0, [sp, 8]
	str	xzr, [x0, 8]
	ldr	x0, [sp, 8]
	str	xzr, [x0, 16]
	nop
	add	sp, sp, 16
	.cfi_def_cfa_offset 0
	ret
	.cfi_endproc
.LFE2973:
	.size	_ZNSt12_Vector_baseIiSaIiEE17_Vector_impl_dataC2Ev, .-_ZNSt12_Vector_baseIiSaIiEE17_Vector_impl_dataC2Ev
	.weak	_ZNSt12_Vector_baseIiSaIiEE17_Vector_impl_dataC1Ev
	.set	_ZNSt12_Vector_baseIiSaIiEE17_Vector_impl_dataC1Ev,_ZNSt12_Vector_baseIiSaIiEE17_Vector_impl_dataC2Ev
	.section	.text._ZSt10__distanceISt15_Deque_iteratorIiRiPiEENSt15iterator_traitsIT_E15difference_typeES5_S5_St26random_access_iterator_tag,"axG",@progbits,_ZSt10__distanceISt15_Deque_iteratorIiRiPiEENSt15iterator_traitsIT_E15difference_typeES5_S5_St26random_access_iterator_tag,comdat
	.align	2
	.weak	_ZSt10__distanceISt15_Deque_iteratorIiRiPiEENSt15iterator_traitsIT_E15difference_typeES5_S5_St26random_access_iterator_tag
	.type	_ZSt10__distanceISt15_Deque_iteratorIiRiPiEENSt15iterator_traitsIT_E15difference_typeES5_S5_St26random_access_iterator_tag, %function
_ZSt10__distanceISt15_Deque_iteratorIiRiPiEENSt15iterator_traitsIT_E15difference_typeES5_S5_St26random_access_iterator_tag:
.LFB2975:
	.cfi_startproc
	stp	x29, x30, [sp, -48]!
	.cfi_def_cfa_offset 48
	.cfi_offset 29, -48
	.cfi_offset 30, -40
	mov	x29, sp
	str	x0, [sp, 40]
	str	x1, [sp, 32]
	strb	w2, [sp, 24]
	ldr	x1, [sp, 40]
	ldr	x0, [sp, 32]
	bl	_ZStmiRKSt15_Deque_iteratorIiRiPiES4_
	ldp	x29, x30, [sp], 48
	.cfi_restore 30
	.cfi_restore 29
	.cfi_def_cfa_offset 0
	ret
	.cfi_endproc
.LFE2975:
	.size	_ZSt10__distanceISt15_Deque_iteratorIiRiPiEENSt15iterator_traitsIT_E15difference_typeES5_S5_St26random_access_iterator_tag, .-_ZSt10__distanceISt15_Deque_iteratorIiRiPiEENSt15iterator_traitsIT_E15difference_typeES5_S5_St26random_access_iterator_tag
	.section	.text._ZNSt6vectorIiSaIiEE11_S_max_sizeERKS0_,"axG",@progbits,_ZNSt6vectorIiSaIiEE11_S_max_sizeERKS0_,comdat
	.align	2
	.weak	_ZNSt6vectorIiSaIiEE11_S_max_sizeERKS0_
	.type	_ZNSt6vectorIiSaIiEE11_S_max_sizeERKS0_, %function
_ZNSt6vectorIiSaIiEE11_S_max_sizeERKS0_:
.LFB2976:
	.cfi_startproc
	stp	x29, x30, [sp, -64]!
	.cfi_def_cfa_offset 64
	.cfi_offset 29, -64
	.cfi_offset 30, -56
	mov	x29, sp
	str	x0, [sp, 24]
	adrp	x0, :got:__stack_chk_guard
	ldr	x0, [x0, #:got_lo12:__stack_chk_guard]
	ldr	x1, [x0]
	str	x1, [sp, 56]
	mov	x1, 0
	mov	x0, 2305843009213693951
	str	x0, [sp, 40]
	ldr	x0, [sp, 24]
	bl	_ZNSt16allocator_traitsISaIiEE8max_sizeERKS0_
	str	x0, [sp, 48]
	add	x1, sp, 48
	add	x0, sp, 40
	bl	_ZSt3minImERKT_S2_S2_
	ldr	x0, [x0]
	mov	x1, x0
	adrp	x0, :got:__stack_chk_guard
	ldr	x0, [x0, #:got_lo12:__stack_chk_guard]
	ldr	x3, [sp, 56]
	ldr	x2, [x0]
	subs	x3, x3, x2
	mov	x2, 0
	beq	.L359
	bl	__stack_chk_fail
.L359:
	mov	x0, x1
	ldp	x29, x30, [sp], 64
	.cfi_restore 30
	.cfi_restore 29
	.cfi_def_cfa_offset 0
	ret
	.cfi_endproc
.LFE2976:
	.size	_ZNSt6vectorIiSaIiEE11_S_max_sizeERKS0_, .-_ZNSt6vectorIiSaIiEE11_S_max_sizeERKS0_
	.section	.text._ZNSt16allocator_traitsISaIiEE8allocateERS0_m,"axG",@progbits,_ZNSt16allocator_traitsISaIiEE8allocateERS0_m,comdat
	.align	2
	.weak	_ZNSt16allocator_traitsISaIiEE8allocateERS0_m
	.type	_ZNSt16allocator_traitsISaIiEE8allocateERS0_m, %function
_ZNSt16allocator_traitsISaIiEE8allocateERS0_m:
.LFB2977:
	.cfi_startproc
	stp	x29, x30, [sp, -32]!
	.cfi_def_cfa_offset 32
	.cfi_offset 29, -32
	.cfi_offset 30, -24
	mov	x29, sp
	str	x0, [sp, 24]
	str	x1, [sp, 16]
	mov	x2, 0
	ldr	x1, [sp, 16]
	ldr	x0, [sp, 24]
	bl	_ZN9__gnu_cxx13new_allocatorIiE8allocateEmPKv
	ldp	x29, x30, [sp], 32
	.cfi_restore 30
	.cfi_restore 29
	.cfi_def_cfa_offset 0
	ret
	.cfi_endproc
.LFE2977:
	.size	_ZNSt16allocator_traitsISaIiEE8allocateERS0_m, .-_ZNSt16allocator_traitsISaIiEE8allocateERS0_m
	.section	.text._ZSt18uninitialized_copyISt15_Deque_iteratorIiRiPiES2_ET0_T_S5_S4_,"axG",@progbits,_ZSt18uninitialized_copyISt15_Deque_iteratorIiRiPiES2_ET0_T_S5_S4_,comdat
	.align	2
	.weak	_ZSt18uninitialized_copyISt15_Deque_iteratorIiRiPiES2_ET0_T_S5_S4_
	.type	_ZSt18uninitialized_copyISt15_Deque_iteratorIiRiPiES2_ET0_T_S5_S4_, %function
_ZSt18uninitialized_copyISt15_Deque_iteratorIiRiPiES2_ET0_T_S5_S4_:
.LFB2978:
	.cfi_startproc
	stp	x29, x30, [sp, -128]!
	.cfi_def_cfa_offset 128
	.cfi_offset 29, -128
	.cfi_offset 30, -120
	mov	x29, sp
	str	x0, [sp, 40]
	str	x1, [sp, 32]
	str	x2, [sp, 24]
	adrp	x0, :got:__stack_chk_guard
	ldr	x0, [x0, #:got_lo12:__stack_chk_guard]
	ldr	x1, [x0]
	str	x1, [sp, 120]
	mov	x1, 0
	mov	w0, 1
	strb	w0, [sp, 55]
	add	x0, sp, 56
	ldr	x1, [sp, 40]
	bl	_ZNSt15_Deque_iteratorIiRiPiEC1ERKS2_
	add	x0, sp, 88
	ldr	x1, [sp, 32]
	bl	_ZNSt15_Deque_iteratorIiRiPiEC1ERKS2_
	add	x1, sp, 88
	add	x0, sp, 56
	ldr	x2, [sp, 24]
	bl	_ZNSt20__uninitialized_copyILb1EE13__uninit_copyISt15_Deque_iteratorIiRiPiES4_EET0_T_S7_S6_
	mov	x1, x0
	adrp	x0, :got:__stack_chk_guard
	ldr	x0, [x0, #:got_lo12:__stack_chk_guard]
	ldr	x3, [sp, 120]
	ldr	x2, [x0]
	subs	x3, x3, x2
	mov	x2, 0
	beq	.L364
	bl	__stack_chk_fail
.L364:
	mov	x0, x1
	ldp	x29, x30, [sp], 128
	.cfi_restore 30
	.cfi_restore 29
	.cfi_def_cfa_offset 0
	ret
	.cfi_endproc
.LFE2978:
	.size	_ZSt18uninitialized_copyISt15_Deque_iteratorIiRiPiES2_ET0_T_S5_S4_, .-_ZSt18uninitialized_copyISt15_Deque_iteratorIiRiPiES2_ET0_T_S5_S4_
	.section	.text._ZNSt12_Destroy_auxILb1EE9__destroyIPiEEvT_S3_,"axG",@progbits,_ZNSt12_Destroy_auxILb1EE9__destroyIPiEEvT_S3_,comdat
	.align	2
	.weak	_ZNSt12_Destroy_auxILb1EE9__destroyIPiEEvT_S3_
	.type	_ZNSt12_Destroy_auxILb1EE9__destroyIPiEEvT_S3_, %function
_ZNSt12_Destroy_auxILb1EE9__destroyIPiEEvT_S3_:
.LFB2980:
	.cfi_startproc
	sub	sp, sp, #16
	.cfi_def_cfa_offset 16
	str	x0, [sp, 8]
	str	x1, [sp]
	nop
	add	sp, sp, 16
	.cfi_def_cfa_offset 0
	ret
	.cfi_endproc
.LFE2980:
	.size	_ZNSt12_Destroy_auxILb1EE9__destroyIPiEEvT_S3_, .-_ZNSt12_Destroy_auxILb1EE9__destroyIPiEEvT_S3_
	.section	.text._ZNSt12_Vector_baseIiSaIiEEC2EOS1_,"axG",@progbits,_ZNSt12_Vector_baseIiSaIiEEC5EOS1_,comdat
	.align	2
	.weak	_ZNSt12_Vector_baseIiSaIiEEC2EOS1_
	.type	_ZNSt12_Vector_baseIiSaIiEEC2EOS1_, %function
_ZNSt12_Vector_baseIiSaIiEEC2EOS1_:
.LFB2984:
	.cfi_startproc
	stp	x29, x30, [sp, -32]!
	.cfi_def_cfa_offset 32
	.cfi_offset 29, -32
	.cfi_offset 30, -24
	mov	x29, sp
	str	x0, [sp, 24]
	str	x1, [sp, 16]
	ldr	x0, [sp, 24]
	ldr	x1, [sp, 16]
	bl	_ZNSt12_Vector_baseIiSaIiEE12_Vector_implC1EOS2_
	nop
	ldp	x29, x30, [sp], 32
	.cfi_restore 30
	.cfi_restore 29
	.cfi_def_cfa_offset 0
	ret
	.cfi_endproc
.LFE2984:
	.size	_ZNSt12_Vector_baseIiSaIiEEC2EOS1_, .-_ZNSt12_Vector_baseIiSaIiEEC2EOS1_
	.weak	_ZNSt12_Vector_baseIiSaIiEEC1EOS1_
	.set	_ZNSt12_Vector_baseIiSaIiEEC1EOS1_,_ZNSt12_Vector_baseIiSaIiEEC2EOS1_
	.section	.text._ZNSt6vectorIiSaIiEEC2EOS1_,"axG",@progbits,_ZNSt6vectorIiSaIiEEC5EOS1_,comdat
	.align	2
	.weak	_ZNSt6vectorIiSaIiEEC2EOS1_
	.type	_ZNSt6vectorIiSaIiEEC2EOS1_, %function
_ZNSt6vectorIiSaIiEEC2EOS1_:
.LFB2986:
	.cfi_startproc
	stp	x29, x30, [sp, -32]!
	.cfi_def_cfa_offset 32
	.cfi_offset 29, -32
	.cfi_offset 30, -24
	mov	x29, sp
	str	x0, [sp, 24]
	str	x1, [sp, 16]
	ldr	x0, [sp, 24]
	ldr	x1, [sp, 16]
	bl	_ZNSt12_Vector_baseIiSaIiEEC2EOS1_
	nop
	ldp	x29, x30, [sp], 32
	.cfi_restore 30
	.cfi_restore 29
	.cfi_def_cfa_offset 0
	ret
	.cfi_endproc
.LFE2986:
	.size	_ZNSt6vectorIiSaIiEEC2EOS1_, .-_ZNSt6vectorIiSaIiEEC2EOS1_
	.weak	_ZNSt6vectorIiSaIiEEC1EOS1_
	.set	_ZNSt6vectorIiSaIiEEC1EOS1_,_ZNSt6vectorIiSaIiEEC2EOS1_
	.section	.text._ZN9__gnu_cxx13new_allocatorISt6vectorIiSaIiEEE9constructIS3_JS3_EEEvPT_DpOT0_,"axG",@progbits,_ZN9__gnu_cxx13new_allocatorISt6vectorIiSaIiEEE9constructIS3_JS3_EEEvPT_DpOT0_,comdat
	.align	2
	.weak	_ZN9__gnu_cxx13new_allocatorISt6vectorIiSaIiEEE9constructIS3_JS3_EEEvPT_DpOT0_
	.type	_ZN9__gnu_cxx13new_allocatorISt6vectorIiSaIiEEE9constructIS3_JS3_EEEvPT_DpOT0_, %function
_ZN9__gnu_cxx13new_allocatorISt6vectorIiSaIiEEE9constructIS3_JS3_EEEvPT_DpOT0_:
.LFB2981:
	.cfi_startproc
	stp	x29, x30, [sp, -64]!
	.cfi_def_cfa_offset 64
	.cfi_offset 29, -64
	.cfi_offset 30, -56
	mov	x29, sp
	str	x19, [sp, 16]
	.cfi_offset 19, -48
	str	x0, [sp, 56]
	str	x1, [sp, 48]
	str	x2, [sp, 40]
	ldr	x0, [sp, 40]
	bl	_ZSt7forwardISt6vectorIiSaIiEEEOT_RNSt16remove_referenceIS3_E4typeE
	mov	x19, x0
	ldr	x0, [sp, 48]
	mov	x1, x0
	mov	x0, 24
	bl	_ZnwmPv
	mov	x1, x19
	bl	_ZNSt6vectorIiSaIiEEC1EOS1_
	nop
	ldr	x19, [sp, 16]
	ldp	x29, x30, [sp], 64
	.cfi_restore 30
	.cfi_restore 29
	.cfi_restore 19
	.cfi_def_cfa_offset 0
	ret
	.cfi_endproc
.LFE2981:
	.size	_ZN9__gnu_cxx13new_allocatorISt6vectorIiSaIiEEE9constructIS3_JS3_EEEvPT_DpOT0_, .-_ZN9__gnu_cxx13new_allocatorISt6vectorIiSaIiEEE9constructIS3_JS3_EEEvPT_DpOT0_
	.section	.text._ZN9__gnu_cxx17__normal_iteratorIPSt6vectorIiSaIiEES1_IS3_SaIS3_EEEC2ERKS4_,"axG",@progbits,_ZN9__gnu_cxx17__normal_iteratorIPSt6vectorIiSaIiEES1_IS3_SaIS3_EEEC5ERKS4_,comdat
	.align	2
	.weak	_ZN9__gnu_cxx17__normal_iteratorIPSt6vectorIiSaIiEES1_IS3_SaIS3_EEEC2ERKS4_
	.type	_ZN9__gnu_cxx17__normal_iteratorIPSt6vectorIiSaIiEES1_IS3_SaIS3_EEEC2ERKS4_, %function
_ZN9__gnu_cxx17__normal_iteratorIPSt6vectorIiSaIiEES1_IS3_SaIS3_EEEC2ERKS4_:
.LFB2989:
	.cfi_startproc
	sub	sp, sp, #16
	.cfi_def_cfa_offset 16
	str	x0, [sp, 8]
	str	x1, [sp]
	ldr	x0, [sp]
	ldr	x1, [x0]
	ldr	x0, [sp, 8]
	str	x1, [x0]
	nop
	add	sp, sp, 16
	.cfi_def_cfa_offset 0
	ret
	.cfi_endproc
.LFE2989:
	.size	_ZN9__gnu_cxx17__normal_iteratorIPSt6vectorIiSaIiEES1_IS3_SaIS3_EEEC2ERKS4_, .-_ZN9__gnu_cxx17__normal_iteratorIPSt6vectorIiSaIiEES1_IS3_SaIS3_EEEC2ERKS4_
	.weak	_ZN9__gnu_cxx17__normal_iteratorIPSt6vectorIiSaIiEES1_IS3_SaIS3_EEEC1ERKS4_
	.set	_ZN9__gnu_cxx17__normal_iteratorIPSt6vectorIiSaIiEES1_IS3_SaIS3_EEEC1ERKS4_,_ZN9__gnu_cxx17__normal_iteratorIPSt6vectorIiSaIiEES1_IS3_SaIS3_EEEC2ERKS4_
	.section	.text._ZNKSt6vectorIS_IiSaIiEESaIS1_EE12_M_check_lenEmPKc,"axG",@progbits,_ZNKSt6vectorIS_IiSaIiEESaIS1_EE12_M_check_lenEmPKc,comdat
	.align	2
	.weak	_ZNKSt6vectorIS_IiSaIiEESaIS1_EE12_M_check_lenEmPKc
	.type	_ZNKSt6vectorIS_IiSaIiEESaIS1_EE12_M_check_lenEmPKc, %function
_ZNKSt6vectorIS_IiSaIiEESaIS1_EE12_M_check_lenEmPKc:
.LFB2991:
	.cfi_startproc
	stp	x29, x30, [sp, -96]!
	.cfi_def_cfa_offset 96
	.cfi_offset 29, -96
	.cfi_offset 30, -88
	mov	x29, sp
	str	x19, [sp, 16]
	.cfi_offset 19, -80
	str	x0, [sp, 56]
	str	x1, [sp, 48]
	str	x2, [sp, 40]
	adrp	x0, :got:__stack_chk_guard
	ldr	x0, [x0, #:got_lo12:__stack_chk_guard]
	ldr	x1, [x0]
	str	x1, [sp, 88]
	mov	x1, 0
	ldr	x0, [sp, 56]
	bl	_ZNKSt6vectorIS_IiSaIiEESaIS1_EE8max_sizeEv
	mov	x19, x0
	ldr	x0, [sp, 56]
	bl	_ZNKSt6vectorIS_IiSaIiEESaIS1_EE4sizeEv
	sub	x1, x19, x0
	ldr	x0, [sp, 48]
	cmp	x1, x0
	cset	w0, cc
	and	w0, w0, 255
	cmp	w0, 0
	beq	.L371
	ldr	x0, [sp, 40]
	bl	_ZSt20__throw_length_errorPKc
.L371:
	ldr	x0, [sp, 56]
	bl	_ZNKSt6vectorIS_IiSaIiEESaIS1_EE4sizeEv
	mov	x19, x0
	ldr	x0, [sp, 56]
	bl	_ZNKSt6vectorIS_IiSaIiEESaIS1_EE4sizeEv
	str	x0, [sp, 72]
	add	x1, sp, 48
	add	x0, sp, 72
	bl	_ZSt3maxImERKT_S2_S2_
	ldr	x0, [x0]
	add	x0, x19, x0
	str	x0, [sp, 80]
	ldr	x0, [sp, 56]
	bl	_ZNKSt6vectorIS_IiSaIiEESaIS1_EE4sizeEv
	mov	x1, x0
	ldr	x0, [sp, 80]
	cmp	x0, x1
	bcc	.L372
	ldr	x0, [sp, 56]
	bl	_ZNKSt6vectorIS_IiSaIiEESaIS1_EE8max_sizeEv
	mov	x1, x0
	ldr	x0, [sp, 80]
	cmp	x0, x1
	bls	.L373
.L372:
	ldr	x0, [sp, 56]
	bl	_ZNKSt6vectorIS_IiSaIiEESaIS1_EE8max_sizeEv
	b	.L374
.L373:
	ldr	x0, [sp, 80]
.L374:
	mov	x1, x0
	adrp	x0, :got:__stack_chk_guard
	ldr	x0, [x0, #:got_lo12:__stack_chk_guard]
	ldr	x3, [sp, 88]
	ldr	x2, [x0]
	subs	x3, x3, x2
	mov	x2, 0
	beq	.L376
	bl	__stack_chk_fail
.L376:
	mov	x0, x1
	ldr	x19, [sp, 16]
	ldp	x29, x30, [sp], 96
	.cfi_restore 30
	.cfi_restore 29
	.cfi_restore 19
	.cfi_def_cfa_offset 0
	ret
	.cfi_endproc
.LFE2991:
	.size	_ZNKSt6vectorIS_IiSaIiEESaIS1_EE12_M_check_lenEmPKc, .-_ZNKSt6vectorIS_IiSaIiEESaIS1_EE12_M_check_lenEmPKc
	.section	.text._ZNSt6vectorIS_IiSaIiEESaIS1_EE5beginEv,"axG",@progbits,_ZNSt6vectorIS_IiSaIiEESaIS1_EE5beginEv,comdat
	.align	2
	.weak	_ZNSt6vectorIS_IiSaIiEESaIS1_EE5beginEv
	.type	_ZNSt6vectorIS_IiSaIiEESaIS1_EE5beginEv, %function
_ZNSt6vectorIS_IiSaIiEESaIS1_EE5beginEv:
.LFB2992:
	.cfi_startproc
	stp	x29, x30, [sp, -48]!
	.cfi_def_cfa_offset 48
	.cfi_offset 29, -48
	.cfi_offset 30, -40
	mov	x29, sp
	str	x0, [sp, 24]
	adrp	x0, :got:__stack_chk_guard
	ldr	x0, [x0, #:got_lo12:__stack_chk_guard]
	ldr	x1, [x0]
	str	x1, [sp, 40]
	mov	x1, 0
	ldr	x1, [sp, 24]
	add	x0, sp, 32
	bl	_ZN9__gnu_cxx17__normal_iteratorIPSt6vectorIiSaIiEES1_IS3_SaIS3_EEEC1ERKS4_
	ldr	x0, [sp, 32]
	mov	x1, x0
	adrp	x0, :got:__stack_chk_guard
	ldr	x0, [x0, #:got_lo12:__stack_chk_guard]
	ldr	x3, [sp, 40]
	ldr	x2, [x0]
	subs	x3, x3, x2
	mov	x2, 0
	beq	.L379
	bl	__stack_chk_fail
.L379:
	mov	x0, x1
	ldp	x29, x30, [sp], 48
	.cfi_restore 30
	.cfi_restore 29
	.cfi_def_cfa_offset 0
	ret
	.cfi_endproc
.LFE2992:
	.size	_ZNSt6vectorIS_IiSaIiEESaIS1_EE5beginEv, .-_ZNSt6vectorIS_IiSaIiEESaIS1_EE5beginEv
	.section	.text._ZN9__gnu_cxxmiIPSt6vectorIiSaIiEES1_IS3_SaIS3_EEEENS_17__normal_iteratorIT_T0_E15difference_typeERKSA_SD_,"axG",@progbits,_ZN9__gnu_cxxmiIPSt6vectorIiSaIiEES1_IS3_SaIS3_EEEENS_17__normal_iteratorIT_T0_E15difference_typeERKSA_SD_,comdat
	.align	2
	.weak	_ZN9__gnu_cxxmiIPSt6vectorIiSaIiEES1_IS3_SaIS3_EEEENS_17__normal_iteratorIT_T0_E15difference_typeERKSA_SD_
	.type	_ZN9__gnu_cxxmiIPSt6vectorIiSaIiEES1_IS3_SaIS3_EEEENS_17__normal_iteratorIT_T0_E15difference_typeERKSA_SD_, %function
_ZN9__gnu_cxxmiIPSt6vectorIiSaIiEES1_IS3_SaIS3_EEEENS_17__normal_iteratorIT_T0_E15difference_typeERKSA_SD_:
.LFB2993:
	.cfi_startproc
	stp	x29, x30, [sp, -48]!
	.cfi_def_cfa_offset 48
	.cfi_offset 29, -48
	.cfi_offset 30, -40
	mov	x29, sp
	str	x19, [sp, 16]
	.cfi_offset 19, -32
	str	x0, [sp, 40]
	str	x1, [sp, 32]
	ldr	x0, [sp, 40]
	bl	_ZNK9__gnu_cxx17__normal_iteratorIPSt6vectorIiSaIiEES1_IS3_SaIS3_EEE4baseEv
	ldr	x19, [x0]
	ldr	x0, [sp, 32]
	bl	_ZNK9__gnu_cxx17__normal_iteratorIPSt6vectorIiSaIiEES1_IS3_SaIS3_EEE4baseEv
	ldr	x0, [x0]
	sub	x0, x19, x0
	asr	x1, x0, 3
	mov	x0, -6148914691236517206
	movk	x0, 0xaaab, lsl 0
	mul	x0, x1, x0
	ldr	x19, [sp, 16]
	ldp	x29, x30, [sp], 48
	.cfi_restore 30
	.cfi_restore 29
	.cfi_restore 19
	.cfi_def_cfa_offset 0
	ret
	.cfi_endproc
.LFE2993:
	.size	_ZN9__gnu_cxxmiIPSt6vectorIiSaIiEES1_IS3_SaIS3_EEEENS_17__normal_iteratorIT_T0_E15difference_typeERKSA_SD_, .-_ZN9__gnu_cxxmiIPSt6vectorIiSaIiEES1_IS3_SaIS3_EEEENS_17__normal_iteratorIT_T0_E15difference_typeERKSA_SD_
	.section	.text._ZNSt12_Vector_baseISt6vectorIiSaIiEESaIS2_EE11_M_allocateEm,"axG",@progbits,_ZNSt12_Vector_baseISt6vectorIiSaIiEESaIS2_EE11_M_allocateEm,comdat
	.align	2
	.weak	_ZNSt12_Vector_baseISt6vectorIiSaIiEESaIS2_EE11_M_allocateEm
	.type	_ZNSt12_Vector_baseISt6vectorIiSaIiEESaIS2_EE11_M_allocateEm, %function
_ZNSt12_Vector_baseISt6vectorIiSaIiEESaIS2_EE11_M_allocateEm:
.LFB2994:
	.cfi_startproc
	stp	x29, x30, [sp, -32]!
	.cfi_def_cfa_offset 32
	.cfi_offset 29, -32
	.cfi_offset 30, -24
	mov	x29, sp
	str	x0, [sp, 24]
	str	x1, [sp, 16]
	ldr	x0, [sp, 16]
	cmp	x0, 0
	beq	.L383
	ldr	x0, [sp, 24]
	ldr	x1, [sp, 16]
	bl	_ZNSt16allocator_traitsISaISt6vectorIiSaIiEEEE8allocateERS3_m
	b	.L385
.L383:
	mov	x0, 0
.L385:
	ldp	x29, x30, [sp], 32
	.cfi_restore 30
	.cfi_restore 29
	.cfi_def_cfa_offset 0
	ret
	.cfi_endproc
.LFE2994:
	.size	_ZNSt12_Vector_baseISt6vectorIiSaIiEESaIS2_EE11_M_allocateEm, .-_ZNSt12_Vector_baseISt6vectorIiSaIiEESaIS2_EE11_M_allocateEm
	.section	.text._ZNSt6vectorIS_IiSaIiEESaIS1_EE11_S_relocateEPS1_S4_S4_RS2_,"axG",@progbits,_ZNSt6vectorIS_IiSaIiEESaIS1_EE11_S_relocateEPS1_S4_S4_RS2_,comdat
	.align	2
	.weak	_ZNSt6vectorIS_IiSaIiEESaIS1_EE11_S_relocateEPS1_S4_S4_RS2_
	.type	_ZNSt6vectorIS_IiSaIiEESaIS1_EE11_S_relocateEPS1_S4_S4_RS2_, %function
_ZNSt6vectorIS_IiSaIiEESaIS1_EE11_S_relocateEPS1_S4_S4_RS2_:
.LFB2995:
	.cfi_startproc
	stp	x29, x30, [sp, -48]!
	.cfi_def_cfa_offset 48
	.cfi_offset 29, -48
	.cfi_offset 30, -40
	mov	x29, sp
	str	x0, [sp, 40]
	str	x1, [sp, 32]
	str	x2, [sp, 24]
	str	x3, [sp, 16]
	ldr	x3, [sp, 16]
	ldr	x2, [sp, 24]
	ldr	x1, [sp, 32]
	ldr	x0, [sp, 40]
	bl	_ZNSt6vectorIS_IiSaIiEESaIS1_EE14_S_do_relocateEPS1_S4_S4_RS2_St17integral_constantIbLb1EE
	ldp	x29, x30, [sp], 48
	.cfi_restore 30
	.cfi_restore 29
	.cfi_def_cfa_offset 0
	ret
	.cfi_endproc
.LFE2995:
	.size	_ZNSt6vectorIS_IiSaIiEESaIS1_EE11_S_relocateEPS1_S4_S4_RS2_, .-_ZNSt6vectorIS_IiSaIiEESaIS1_EE11_S_relocateEPS1_S4_S4_RS2_
	.section	.text._ZNK9__gnu_cxx17__normal_iteratorIPSt6vectorIiSaIiEES1_IS3_SaIS3_EEE4baseEv,"axG",@progbits,_ZNK9__gnu_cxx17__normal_iteratorIPSt6vectorIiSaIiEES1_IS3_SaIS3_EEE4baseEv,comdat
	.align	2
	.weak	_ZNK9__gnu_cxx17__normal_iteratorIPSt6vectorIiSaIiEES1_IS3_SaIS3_EEE4baseEv
	.type	_ZNK9__gnu_cxx17__normal_iteratorIPSt6vectorIiSaIiEES1_IS3_SaIS3_EEE4baseEv, %function
_ZNK9__gnu_cxx17__normal_iteratorIPSt6vectorIiSaIiEES1_IS3_SaIS3_EEE4baseEv:
.LFB2996:
	.cfi_startproc
	sub	sp, sp, #16
	.cfi_def_cfa_offset 16
	str	x0, [sp, 8]
	ldr	x0, [sp, 8]
	add	sp, sp, 16
	.cfi_def_cfa_offset 0
	ret
	.cfi_endproc
.LFE2996:
	.size	_ZNK9__gnu_cxx17__normal_iteratorIPSt6vectorIiSaIiEES1_IS3_SaIS3_EEE4baseEv, .-_ZNK9__gnu_cxx17__normal_iteratorIPSt6vectorIiSaIiEES1_IS3_SaIS3_EEE4baseEv
	.section	.text._ZNSt16allocator_traitsISaISt6vectorIiSaIiEEEE7destroyIS2_EEvRS3_PT_,"axG",@progbits,_ZNSt16allocator_traitsISaISt6vectorIiSaIiEEEE7destroyIS2_EEvRS3_PT_,comdat
	.align	2
	.weak	_ZNSt16allocator_traitsISaISt6vectorIiSaIiEEEE7destroyIS2_EEvRS3_PT_
	.type	_ZNSt16allocator_traitsISaISt6vectorIiSaIiEEEE7destroyIS2_EEvRS3_PT_, %function
_ZNSt16allocator_traitsISaISt6vectorIiSaIiEEEE7destroyIS2_EEvRS3_PT_:
.LFB2997:
	.cfi_startproc
	stp	x29, x30, [sp, -32]!
	.cfi_def_cfa_offset 32
	.cfi_offset 29, -32
	.cfi_offset 30, -24
	mov	x29, sp
	str	x0, [sp, 24]
	str	x1, [sp, 16]
	ldr	x1, [sp, 16]
	ldr	x0, [sp, 24]
	bl	_ZN9__gnu_cxx13new_allocatorISt6vectorIiSaIiEEE7destroyIS3_EEvPT_
	nop
	ldp	x29, x30, [sp], 32
	.cfi_restore 30
	.cfi_restore 29
	.cfi_def_cfa_offset 0
	ret
	.cfi_endproc
.LFE2997:
	.size	_ZNSt16allocator_traitsISaISt6vectorIiSaIiEEEE7destroyIS2_EEvRS3_PT_, .-_ZNSt16allocator_traitsISaISt6vectorIiSaIiEEEE7destroyIS2_EEvRS3_PT_
	.section	.text._ZNK9__gnu_cxx17__normal_iteratorIPSt6vectorIiSaIiEES1_IS3_SaIS3_EEEmiEl,"axG",@progbits,_ZNK9__gnu_cxx17__normal_iteratorIPSt6vectorIiSaIiEES1_IS3_SaIS3_EEEmiEl,comdat
	.align	2
	.weak	_ZNK9__gnu_cxx17__normal_iteratorIPSt6vectorIiSaIiEES1_IS3_SaIS3_EEEmiEl
	.type	_ZNK9__gnu_cxx17__normal_iteratorIPSt6vectorIiSaIiEES1_IS3_SaIS3_EEEmiEl, %function
_ZNK9__gnu_cxx17__normal_iteratorIPSt6vectorIiSaIiEES1_IS3_SaIS3_EEEmiEl:
.LFB2998:
	.cfi_startproc
	stp	x29, x30, [sp, -64]!
	.cfi_def_cfa_offset 64
	.cfi_offset 29, -64
	.cfi_offset 30, -56
	mov	x29, sp
	str	x0, [sp, 24]
	str	x1, [sp, 16]
	adrp	x0, :got:__stack_chk_guard
	ldr	x0, [x0, #:got_lo12:__stack_chk_guard]
	ldr	x1, [x0]
	str	x1, [sp, 56]
	mov	x1, 0
	ldr	x0, [sp, 24]
	ldr	x2, [x0]
	ldr	x1, [sp, 16]
	mov	x0, x1
	lsl	x0, x0, 1
	add	x0, x0, x1
	lsl	x0, x0, 3
	neg	x0, x0
	add	x0, x2, x0
	str	x0, [sp, 40]
	add	x1, sp, 40
	add	x0, sp, 48
	bl	_ZN9__gnu_cxx17__normal_iteratorIPSt6vectorIiSaIiEES1_IS3_SaIS3_EEEC1ERKS4_
	ldr	x0, [sp, 48]
	mov	x1, x0
	adrp	x0, :got:__stack_chk_guard
	ldr	x0, [x0, #:got_lo12:__stack_chk_guard]
	ldr	x3, [sp, 56]
	ldr	x2, [x0]
	subs	x3, x3, x2
	mov	x2, 0
	beq	.L393
	bl	__stack_chk_fail
.L393:
	mov	x0, x1
	ldp	x29, x30, [sp], 64
	.cfi_restore 30
	.cfi_restore 29
	.cfi_def_cfa_offset 0
	ret
	.cfi_endproc
.LFE2998:
	.size	_ZNK9__gnu_cxx17__normal_iteratorIPSt6vectorIiSaIiEES1_IS3_SaIS3_EEEmiEl, .-_ZNK9__gnu_cxx17__normal_iteratorIPSt6vectorIiSaIiEES1_IS3_SaIS3_EEEmiEl
	.section	.text._ZNK9__gnu_cxx17__normal_iteratorIPSt6vectorIiSaIiEES1_IS3_SaIS3_EEEdeEv,"axG",@progbits,_ZNK9__gnu_cxx17__normal_iteratorIPSt6vectorIiSaIiEES1_IS3_SaIS3_EEEdeEv,comdat
	.align	2
	.weak	_ZNK9__gnu_cxx17__normal_iteratorIPSt6vectorIiSaIiEES1_IS3_SaIS3_EEEdeEv
	.type	_ZNK9__gnu_cxx17__normal_iteratorIPSt6vectorIiSaIiEES1_IS3_SaIS3_EEEdeEv, %function
_ZNK9__gnu_cxx17__normal_iteratorIPSt6vectorIiSaIiEES1_IS3_SaIS3_EEEdeEv:
.LFB2999:
	.cfi_startproc
	sub	sp, sp, #16
	.cfi_def_cfa_offset 16
	str	x0, [sp, 8]
	ldr	x0, [sp, 8]
	ldr	x0, [x0]
	add	sp, sp, 16
	.cfi_def_cfa_offset 0
	ret
	.cfi_endproc
.LFE2999:
	.size	_ZNK9__gnu_cxx17__normal_iteratorIPSt6vectorIiSaIiEES1_IS3_SaIS3_EEEdeEv, .-_ZNK9__gnu_cxx17__normal_iteratorIPSt6vectorIiSaIiEES1_IS3_SaIS3_EEEdeEv
	.section	.text._ZStmiRKSt15_Deque_iteratorIiRiPiES4_,"axG",@progbits,_ZStmiRKSt15_Deque_iteratorIiRiPiES4_,comdat
	.align	2
	.weak	_ZStmiRKSt15_Deque_iteratorIiRiPiES4_
	.type	_ZStmiRKSt15_Deque_iteratorIiRiPiES4_, %function
_ZStmiRKSt15_Deque_iteratorIiRiPiES4_:
.LFB3000:
	.cfi_startproc
	stp	x29, x30, [sp, -32]!
	.cfi_def_cfa_offset 32
	.cfi_offset 29, -32
	.cfi_offset 30, -24
	mov	x29, sp
	str	x0, [sp, 24]
	str	x1, [sp, 16]
	bl	_ZNSt15_Deque_iteratorIiRiPiE14_S_buffer_sizeEv
	mov	x2, x0
	ldr	x0, [sp, 24]
	ldr	x1, [x0, 24]
	ldr	x0, [sp, 16]
	ldr	x0, [x0, 24]
	sub	x0, x1, x0
	asr	x0, x0, 3
	mov	x1, x0
	ldr	x0, [sp, 24]
	ldr	x0, [x0, 24]
	cmp	x0, 0
	cset	w0, ne
	and	w0, w0, 255
	and	x0, x0, 255
	sub	x0, x1, x0
	mul	x0, x2, x0
	ldr	x1, [sp, 24]
	ldr	x2, [x1]
	ldr	x1, [sp, 24]
	ldr	x1, [x1, 8]
	sub	x1, x2, x1
	asr	x1, x1, 2
	add	x0, x0, x1
	ldr	x1, [sp, 16]
	ldr	x2, [x1, 16]
	ldr	x1, [sp, 16]
	ldr	x1, [x1]
	sub	x1, x2, x1
	asr	x1, x1, 2
	add	x0, x0, x1
	ldp	x29, x30, [sp], 32
	.cfi_restore 30
	.cfi_restore 29
	.cfi_def_cfa_offset 0
	ret
	.cfi_endproc
.LFE3000:
	.size	_ZStmiRKSt15_Deque_iteratorIiRiPiES4_, .-_ZStmiRKSt15_Deque_iteratorIiRiPiES4_
	.section	.text._ZNSt5dequeIiSaIiEE11_S_max_sizeERKS0_,"axG",@progbits,_ZNSt5dequeIiSaIiEE11_S_max_sizeERKS0_,comdat
	.align	2
	.weak	_ZNSt5dequeIiSaIiEE11_S_max_sizeERKS0_
	.type	_ZNSt5dequeIiSaIiEE11_S_max_sizeERKS0_, %function
_ZNSt5dequeIiSaIiEE11_S_max_sizeERKS0_:
.LFB3001:
	.cfi_startproc
	stp	x29, x30, [sp, -64]!
	.cfi_def_cfa_offset 64
	.cfi_offset 29, -64
	.cfi_offset 30, -56
	mov	x29, sp
	str	x0, [sp, 24]
	adrp	x0, :got:__stack_chk_guard
	ldr	x0, [x0, #:got_lo12:__stack_chk_guard]
	ldr	x1, [x0]
	str	x1, [sp, 56]
	mov	x1, 0
	mov	x0, 9223372036854775807
	str	x0, [sp, 40]
	ldr	x0, [sp, 24]
	bl	_ZNSt16allocator_traitsISaIiEE8max_sizeERKS0_
	str	x0, [sp, 48]
	add	x1, sp, 48
	add	x0, sp, 40
	bl	_ZSt3minImERKT_S2_S2_
	ldr	x0, [x0]
	mov	x1, x0
	adrp	x0, :got:__stack_chk_guard
	ldr	x0, [x0, #:got_lo12:__stack_chk_guard]
	ldr	x3, [sp, 56]
	ldr	x2, [x0]
	subs	x3, x3, x2
	mov	x2, 0
	beq	.L400
	bl	__stack_chk_fail
.L400:
	mov	x0, x1
	ldp	x29, x30, [sp], 64
	.cfi_restore 30
	.cfi_restore 29
	.cfi_def_cfa_offset 0
	ret
	.cfi_endproc
.LFE3001:
	.size	_ZNSt5dequeIiSaIiEE11_S_max_sizeERKS0_, .-_ZNSt5dequeIiSaIiEE11_S_max_sizeERKS0_
	.section	.text._ZNSt5dequeIiSaIiEE17_M_reallocate_mapEmb,"axG",@progbits,_ZNSt5dequeIiSaIiEE17_M_reallocate_mapEmb,comdat
	.align	2
	.weak	_ZNSt5dequeIiSaIiEE17_M_reallocate_mapEmb
	.type	_ZNSt5dequeIiSaIiEE17_M_reallocate_mapEmb, %function
_ZNSt5dequeIiSaIiEE17_M_reallocate_mapEmb:
.LFB3002:
	.cfi_startproc
	stp	x29, x30, [sp, -112]!
	.cfi_def_cfa_offset 112
	.cfi_offset 29, -112
	.cfi_offset 30, -104
	mov	x29, sp
	str	x19, [sp, 16]
	.cfi_offset 19, -96
	str	x0, [sp, 56]
	str	x1, [sp, 48]
	strb	w2, [sp, 47]
	ldr	x0, [sp, 56]
	ldr	x1, [x0, 72]
	ldr	x0, [sp, 56]
	ldr	x0, [x0, 40]
	sub	x0, x1, x0
	asr	x0, x0, 3
	add	x0, x0, 1
	str	x0, [sp, 80]
	ldr	x0, [sp, 48]
	ldr	x1, [sp, 80]
	add	x0, x1, x0
	str	x0, [sp, 88]
	ldr	x0, [sp, 56]
	ldr	x1, [x0, 8]
	ldr	x0, [sp, 88]
	lsl	x0, x0, 1
	cmp	x1, x0
	bls	.L402
	ldr	x0, [sp, 56]
	ldr	x1, [x0]
	ldr	x0, [sp, 56]
	ldr	x2, [x0, 8]
	ldr	x0, [sp, 88]
	sub	x0, x2, x0
	lsr	x0, x0, 1
	lsl	x2, x0, 3
	ldrb	w0, [sp, 47]
	cmp	w0, 0
	beq	.L403
	ldr	x0, [sp, 48]
	lsl	x0, x0, 3
	b	.L404
.L403:
	mov	x0, 0
.L404:
	add	x0, x0, x2
	add	x0, x1, x0
	str	x0, [sp, 72]
	ldr	x0, [sp, 56]
	ldr	x0, [x0, 40]
	ldr	x1, [sp, 72]
	cmp	x1, x0
	bcs	.L405
	ldr	x0, [sp, 56]
	ldr	x3, [x0, 40]
	ldr	x0, [sp, 56]
	ldr	x0, [x0, 72]
	add	x0, x0, 8
	ldr	x2, [sp, 72]
	mov	x1, x0
	mov	x0, x3
	bl	_ZSt4copyIPPiS1_ET0_T_S3_S2_
	b	.L406
.L405:
	ldr	x0, [sp, 56]
	ldr	x3, [x0, 40]
	ldr	x0, [sp, 56]
	ldr	x0, [x0, 72]
	add	x4, x0, 8
	ldr	x0, [sp, 80]
	lsl	x0, x0, 3
	ldr	x1, [sp, 72]
	add	x0, x1, x0
	mov	x2, x0
	mov	x1, x4
	mov	x0, x3
	bl	_ZSt13copy_backwardIPPiS1_ET0_T_S3_S2_
	b	.L406
.L402:
	ldr	x0, [sp, 56]
	ldr	x19, [x0, 8]
	ldr	x0, [sp, 56]
	add	x0, x0, 8
	add	x1, sp, 48
	bl	_ZSt3maxImERKT_S2_S2_
	ldr	x0, [x0]
	add	x0, x19, x0
	add	x0, x0, 2
	str	x0, [sp, 96]
	ldr	x0, [sp, 56]
	ldr	x1, [sp, 96]
	bl	_ZNSt11_Deque_baseIiSaIiEE15_M_allocate_mapEm
	str	x0, [sp, 104]
	ldr	x1, [sp, 96]
	ldr	x0, [sp, 88]
	sub	x0, x1, x0
	lsr	x0, x0, 1
	lsl	x1, x0, 3
	ldrb	w0, [sp, 47]
	cmp	w0, 0
	beq	.L407
	ldr	x0, [sp, 48]
	lsl	x0, x0, 3
	b	.L408
.L407:
	mov	x0, 0
.L408:
	add	x0, x0, x1
	ldr	x1, [sp, 104]
	add	x0, x1, x0
	str	x0, [sp, 72]
	ldr	x0, [sp, 56]
	ldr	x3, [x0, 40]
	ldr	x0, [sp, 56]
	ldr	x0, [x0, 72]
	add	x0, x0, 8
	ldr	x2, [sp, 72]
	mov	x1, x0
	mov	x0, x3
	bl	_ZSt4copyIPPiS1_ET0_T_S3_S2_
	ldr	x3, [sp, 56]
	ldr	x0, [sp, 56]
	ldr	x1, [x0]
	ldr	x0, [sp, 56]
	ldr	x0, [x0, 8]
	mov	x2, x0
	mov	x0, x3
	bl	_ZNSt11_Deque_baseIiSaIiEE17_M_deallocate_mapEPPim
	ldr	x0, [sp, 56]
	ldr	x1, [sp, 104]
	str	x1, [x0]
	ldr	x0, [sp, 56]
	ldr	x1, [sp, 96]
	str	x1, [x0, 8]
.L406:
	ldr	x0, [sp, 56]
	add	x0, x0, 16
	ldr	x1, [sp, 72]
	bl	_ZNSt15_Deque_iteratorIiRiPiE11_M_set_nodeEPS1_
	ldr	x0, [sp, 56]
	add	x2, x0, 48
	ldr	x0, [sp, 80]
	lsl	x0, x0, 3
	sub	x0, x0, #8
	ldr	x1, [sp, 72]
	add	x0, x1, x0
	mov	x1, x0
	mov	x0, x2
	bl	_ZNSt15_Deque_iteratorIiRiPiE11_M_set_nodeEPS1_
	nop
	ldr	x19, [sp, 16]
	ldp	x29, x30, [sp], 112
	.cfi_restore 30
	.cfi_restore 29
	.cfi_restore 19
	.cfi_def_cfa_offset 0
	ret
	.cfi_endproc
.LFE3002:
	.size	_ZNSt5dequeIiSaIiEE17_M_reallocate_mapEmb, .-_ZNSt5dequeIiSaIiEE17_M_reallocate_mapEmb
	.section	.text._ZSt18uninitialized_copyIPKiPiET0_T_S4_S3_,"axG",@progbits,_ZSt18uninitialized_copyIPKiPiET0_T_S4_S3_,comdat
	.align	2
	.weak	_ZSt18uninitialized_copyIPKiPiET0_T_S4_S3_
	.type	_ZSt18uninitialized_copyIPKiPiET0_T_S4_S3_, %function
_ZSt18uninitialized_copyIPKiPiET0_T_S4_S3_:
.LFB3003:
	.cfi_startproc
	stp	x29, x30, [sp, -64]!
	.cfi_def_cfa_offset 64
	.cfi_offset 29, -64
	.cfi_offset 30, -56
	mov	x29, sp
	str	x0, [sp, 40]
	str	x1, [sp, 32]
	str	x2, [sp, 24]
	mov	w0, 1
	strb	w0, [sp, 63]
	ldr	x2, [sp, 24]
	ldr	x1, [sp, 32]
	ldr	x0, [sp, 40]
	bl	_ZNSt20__uninitialized_copyILb1EE13__uninit_copyIPKiPiEET0_T_S6_S5_
	ldp	x29, x30, [sp], 64
	.cfi_restore 30
	.cfi_restore 29
	.cfi_def_cfa_offset 0
	ret
	.cfi_endproc
.LFE3003:
	.size	_ZSt18uninitialized_copyIPKiPiET0_T_S4_S3_, .-_ZSt18uninitialized_copyIPKiPiET0_T_S4_S3_
	.section	.text._ZSt11__addressofISt6vectorIiSaIiEEEPT_RS3_,"axG",@progbits,_ZSt11__addressofISt6vectorIiSaIiEEEPT_RS3_,comdat
	.align	2
	.weak	_ZSt11__addressofISt6vectorIiSaIiEEEPT_RS3_
	.type	_ZSt11__addressofISt6vectorIiSaIiEEEPT_RS3_, %function
_ZSt11__addressofISt6vectorIiSaIiEEEPT_RS3_:
.LFB3048:
	.cfi_startproc
	sub	sp, sp, #16
	.cfi_def_cfa_offset 16
	str	x0, [sp, 8]
	ldr	x0, [sp, 8]
	add	sp, sp, 16
	.cfi_def_cfa_offset 0
	ret
	.cfi_endproc
.LFE3048:
	.size	_ZSt11__addressofISt6vectorIiSaIiEEEPT_RS3_, .-_ZSt11__addressofISt6vectorIiSaIiEEEPT_RS3_
	.section	.text._ZSt8_DestroyISt6vectorIiSaIiEEEvPT_,"axG",@progbits,_ZSt8_DestroyISt6vectorIiSaIiEEEvPT_,comdat
	.align	2
	.weak	_ZSt8_DestroyISt6vectorIiSaIiEEEvPT_
	.type	_ZSt8_DestroyISt6vectorIiSaIiEEEvPT_, %function
_ZSt8_DestroyISt6vectorIiSaIiEEEvPT_:
.LFB3049:
	.cfi_startproc
	stp	x29, x30, [sp, -32]!
	.cfi_def_cfa_offset 32
	.cfi_offset 29, -32
	.cfi_offset 30, -24
	mov	x29, sp
	str	x0, [sp, 24]
	ldr	x0, [sp, 24]
	bl	_ZNSt6vectorIiSaIiEED1Ev
	nop
	ldp	x29, x30, [sp], 32
	.cfi_restore 30
	.cfi_restore 29
	.cfi_def_cfa_offset 0
	ret
	.cfi_endproc
.LFE3049:
	.size	_ZSt8_DestroyISt6vectorIiSaIiEEEvPT_, .-_ZSt8_DestroyISt6vectorIiSaIiEEEvPT_
	.section	.text._ZN9__gnu_cxx13new_allocatorImEC2Ev,"axG",@progbits,_ZN9__gnu_cxx13new_allocatorImEC5Ev,comdat
	.align	2
	.weak	_ZN9__gnu_cxx13new_allocatorImEC2Ev
	.type	_ZN9__gnu_cxx13new_allocatorImEC2Ev, %function
_ZN9__gnu_cxx13new_allocatorImEC2Ev:
.LFB3051:
	.cfi_startproc
	sub	sp, sp, #16
	.cfi_def_cfa_offset 16
	str	x0, [sp, 8]
	nop
	add	sp, sp, 16
	.cfi_def_cfa_offset 0
	ret
	.cfi_endproc
.LFE3051:
	.size	_ZN9__gnu_cxx13new_allocatorImEC2Ev, .-_ZN9__gnu_cxx13new_allocatorImEC2Ev
	.weak	_ZN9__gnu_cxx13new_allocatorImEC1Ev
	.set	_ZN9__gnu_cxx13new_allocatorImEC1Ev,_ZN9__gnu_cxx13new_allocatorImEC2Ev
	.section	.text._ZNSaImEC2ERKS_,"axG",@progbits,_ZNSaImEC5ERKS_,comdat
	.align	2
	.weak	_ZNSaImEC2ERKS_
	.type	_ZNSaImEC2ERKS_, %function
_ZNSaImEC2ERKS_:
.LFB3054:
	.cfi_startproc
	stp	x29, x30, [sp, -32]!
	.cfi_def_cfa_offset 32
	.cfi_offset 29, -32
	.cfi_offset 30, -24
	mov	x29, sp
	str	x0, [sp, 24]
	str	x1, [sp, 16]
	ldr	x1, [sp, 16]
	ldr	x0, [sp, 24]
	bl	_ZN9__gnu_cxx13new_allocatorImEC2ERKS1_
	nop
	ldp	x29, x30, [sp], 32
	.cfi_restore 30
	.cfi_restore 29
	.cfi_def_cfa_offset 0
	ret
	.cfi_endproc
.LFE3054:
	.size	_ZNSaImEC2ERKS_, .-_ZNSaImEC2ERKS_
	.weak	_ZNSaImEC1ERKS_
	.set	_ZNSaImEC1ERKS_,_ZNSaImEC2ERKS_
	.section	.text._ZNSt13_Bvector_baseISaIbEE18_Bvector_impl_dataC2Ev,"axG",@progbits,_ZNSt13_Bvector_baseISaIbEE18_Bvector_impl_dataC5Ev,comdat
	.align	2
	.weak	_ZNSt13_Bvector_baseISaIbEE18_Bvector_impl_dataC2Ev
	.type	_ZNSt13_Bvector_baseISaIbEE18_Bvector_impl_dataC2Ev, %function
_ZNSt13_Bvector_baseISaIbEE18_Bvector_impl_dataC2Ev:
.LFB3057:
	.cfi_startproc
	stp	x29, x30, [sp, -32]!
	.cfi_def_cfa_offset 32
	.cfi_offset 29, -32
	.cfi_offset 30, -24
	mov	x29, sp
	str	x0, [sp, 24]
	ldr	x0, [sp, 24]
	bl	_ZNSt13_Bit_iteratorC1Ev
	ldr	x0, [sp, 24]
	add	x0, x0, 16
	bl	_ZNSt13_Bit_iteratorC1Ev
	ldr	x0, [sp, 24]
	str	xzr, [x0, 32]
	nop
	ldp	x29, x30, [sp], 32
	.cfi_restore 30
	.cfi_restore 29
	.cfi_def_cfa_offset 0
	ret
	.cfi_endproc
.LFE3057:
	.size	_ZNSt13_Bvector_baseISaIbEE18_Bvector_impl_dataC2Ev, .-_ZNSt13_Bvector_baseISaIbEE18_Bvector_impl_dataC2Ev
	.weak	_ZNSt13_Bvector_baseISaIbEE18_Bvector_impl_dataC1Ev
	.set	_ZNSt13_Bvector_baseISaIbEE18_Bvector_impl_dataC1Ev,_ZNSt13_Bvector_baseISaIbEE18_Bvector_impl_dataC2Ev
	.section	.text._ZNSt16allocator_traitsISaImEE8allocateERS0_m,"axG",@progbits,_ZNSt16allocator_traitsISaImEE8allocateERS0_m,comdat
	.align	2
	.weak	_ZNSt16allocator_traitsISaImEE8allocateERS0_m
	.type	_ZNSt16allocator_traitsISaImEE8allocateERS0_m, %function
_ZNSt16allocator_traitsISaImEE8allocateERS0_m:
.LFB3059:
	.cfi_startproc
	stp	x29, x30, [sp, -32]!
	.cfi_def_cfa_offset 32
	.cfi_offset 29, -32
	.cfi_offset 30, -24
	mov	x29, sp
	str	x0, [sp, 24]
	str	x1, [sp, 16]
	mov	x2, 0
	ldr	x1, [sp, 16]
	ldr	x0, [sp, 24]
	bl	_ZN9__gnu_cxx13new_allocatorImE8allocateEmPKv
	ldp	x29, x30, [sp], 32
	.cfi_restore 30
	.cfi_restore 29
	.cfi_def_cfa_offset 0
	ret
	.cfi_endproc
.LFE3059:
	.size	_ZNSt16allocator_traitsISaImEE8allocateERS0_m, .-_ZNSt16allocator_traitsISaImEE8allocateERS0_m
	.section	.text._ZN9__gnu_cxx13new_allocatorImE10deallocateEPmm,"axG",@progbits,_ZN9__gnu_cxx13new_allocatorImE10deallocateEPmm,comdat
	.align	2
	.weak	_ZN9__gnu_cxx13new_allocatorImE10deallocateEPmm
	.type	_ZN9__gnu_cxx13new_allocatorImE10deallocateEPmm, %function
_ZN9__gnu_cxx13new_allocatorImE10deallocateEPmm:
.LFB3060:
	.cfi_startproc
	stp	x29, x30, [sp, -48]!
	.cfi_def_cfa_offset 48
	.cfi_offset 29, -48
	.cfi_offset 30, -40
	mov	x29, sp
	str	x0, [sp, 40]
	str	x1, [sp, 32]
	str	x2, [sp, 24]
	ldr	x0, [sp, 24]
	lsl	x0, x0, 3
	mov	x1, x0
	ldr	x0, [sp, 32]
	bl	_ZdlPvm
	ldp	x29, x30, [sp], 48
	.cfi_restore 30
	.cfi_restore 29
	.cfi_def_cfa_offset 0
	ret
	.cfi_endproc
.LFE3060:
	.size	_ZN9__gnu_cxx13new_allocatorImE10deallocateEPmm, .-_ZN9__gnu_cxx13new_allocatorImE10deallocateEPmm
	.section	.text._ZNK9__gnu_cxx13new_allocatorIPiE11_M_max_sizeEv,"axG",@progbits,_ZNK9__gnu_cxx13new_allocatorIPiE11_M_max_sizeEv,comdat
	.align	2
	.weak	_ZNK9__gnu_cxx13new_allocatorIPiE11_M_max_sizeEv
	.type	_ZNK9__gnu_cxx13new_allocatorIPiE11_M_max_sizeEv, %function
_ZNK9__gnu_cxx13new_allocatorIPiE11_M_max_sizeEv:
.LFB3062:
	.cfi_startproc
	sub	sp, sp, #16
	.cfi_def_cfa_offset 16
	str	x0, [sp, 8]
	mov	x0, 1152921504606846975
	add	sp, sp, 16
	.cfi_def_cfa_offset 0
	ret
	.cfi_endproc
.LFE3062:
	.size	_ZNK9__gnu_cxx13new_allocatorIPiE11_M_max_sizeEv, .-_ZNK9__gnu_cxx13new_allocatorIPiE11_M_max_sizeEv
	.section	.text._ZN9__gnu_cxx13new_allocatorIPiE8allocateEmPKv,"axG",@progbits,_ZN9__gnu_cxx13new_allocatorIPiE8allocateEmPKv,comdat
	.align	2
	.weak	_ZN9__gnu_cxx13new_allocatorIPiE8allocateEmPKv
	.type	_ZN9__gnu_cxx13new_allocatorIPiE8allocateEmPKv, %function
_ZN9__gnu_cxx13new_allocatorIPiE8allocateEmPKv:
.LFB3061:
	.cfi_startproc
	stp	x29, x30, [sp, -48]!
	.cfi_def_cfa_offset 48
	.cfi_offset 29, -48
	.cfi_offset 30, -40
	mov	x29, sp
	str	x0, [sp, 40]
	str	x1, [sp, 32]
	str	x2, [sp, 24]
	ldr	x0, [sp, 40]
	bl	_ZNK9__gnu_cxx13new_allocatorIPiE11_M_max_sizeEv
	mov	x1, x0
	ldr	x0, [sp, 32]
	cmp	x0, x1
	cset	w0, hi
	and	w0, w0, 255
	and	x0, x0, 255
	cmp	x0, 0
	cset	w0, ne
	and	w0, w0, 255
	cmp	w0, 0
	beq	.L424
	ldr	x1, [sp, 32]
	mov	x0, 2305843009213693951
	cmp	x1, x0
	bls	.L425
	bl	_ZSt28__throw_bad_array_new_lengthv
.L425:
	bl	_ZSt17__throw_bad_allocv
.L424:
	ldr	x0, [sp, 32]
	lsl	x0, x0, 3
	bl	_Znwm
	nop
	ldp	x29, x30, [sp], 48
	.cfi_restore 30
	.cfi_restore 29
	.cfi_def_cfa_offset 0
	ret
	.cfi_endproc
.LFE3061:
	.size	_ZN9__gnu_cxx13new_allocatorIPiE8allocateEmPKv, .-_ZN9__gnu_cxx13new_allocatorIPiE8allocateEmPKv
	.section	.text._ZN9__gnu_cxx13new_allocatorIiE10deallocateEPim,"axG",@progbits,_ZN9__gnu_cxx13new_allocatorIiE10deallocateEPim,comdat
	.align	2
	.weak	_ZN9__gnu_cxx13new_allocatorIiE10deallocateEPim
	.type	_ZN9__gnu_cxx13new_allocatorIiE10deallocateEPim, %function
_ZN9__gnu_cxx13new_allocatorIiE10deallocateEPim:
.LFB3063:
	.cfi_startproc
	stp	x29, x30, [sp, -48]!
	.cfi_def_cfa_offset 48
	.cfi_offset 29, -48
	.cfi_offset 30, -40
	mov	x29, sp
	str	x0, [sp, 40]
	str	x1, [sp, 32]
	str	x2, [sp, 24]
	ldr	x0, [sp, 24]
	lsl	x0, x0, 2
	mov	x1, x0
	ldr	x0, [sp, 32]
	bl	_ZdlPvm
	ldp	x29, x30, [sp], 48
	.cfi_restore 30
	.cfi_restore 29
	.cfi_def_cfa_offset 0
	ret
	.cfi_endproc
.LFE3063:
	.size	_ZN9__gnu_cxx13new_allocatorIiE10deallocateEPim, .-_ZN9__gnu_cxx13new_allocatorIiE10deallocateEPim
	.section	.text._ZN9__gnu_cxx13new_allocatorIPiEC2Ev,"axG",@progbits,_ZN9__gnu_cxx13new_allocatorIPiEC5Ev,comdat
	.align	2
	.weak	_ZN9__gnu_cxx13new_allocatorIPiEC2Ev
	.type	_ZN9__gnu_cxx13new_allocatorIPiEC2Ev, %function
_ZN9__gnu_cxx13new_allocatorIPiEC2Ev:
.LFB3065:
	.cfi_startproc
	sub	sp, sp, #16
	.cfi_def_cfa_offset 16
	str	x0, [sp, 8]
	nop
	add	sp, sp, 16
	.cfi_def_cfa_offset 0
	ret
	.cfi_endproc
.LFE3065:
	.size	_ZN9__gnu_cxx13new_allocatorIPiEC2Ev, .-_ZN9__gnu_cxx13new_allocatorIPiEC2Ev
	.weak	_ZN9__gnu_cxx13new_allocatorIPiEC1Ev
	.set	_ZN9__gnu_cxx13new_allocatorIPiEC1Ev,_ZN9__gnu_cxx13new_allocatorIPiEC2Ev
	.section	.text._ZN9__gnu_cxx13new_allocatorIiEC2ERKS1_,"axG",@progbits,_ZN9__gnu_cxx13new_allocatorIiEC5ERKS1_,comdat
	.align	2
	.weak	_ZN9__gnu_cxx13new_allocatorIiEC2ERKS1_
	.type	_ZN9__gnu_cxx13new_allocatorIiEC2ERKS1_, %function
_ZN9__gnu_cxx13new_allocatorIiEC2ERKS1_:
.LFB3068:
	.cfi_startproc
	sub	sp, sp, #16
	.cfi_def_cfa_offset 16
	str	x0, [sp, 8]
	str	x1, [sp]
	nop
	add	sp, sp, 16
	.cfi_def_cfa_offset 0
	ret
	.cfi_endproc
.LFE3068:
	.size	_ZN9__gnu_cxx13new_allocatorIiEC2ERKS1_, .-_ZN9__gnu_cxx13new_allocatorIiEC2ERKS1_
	.weak	_ZN9__gnu_cxx13new_allocatorIiEC1ERKS1_
	.set	_ZN9__gnu_cxx13new_allocatorIiEC1ERKS1_,_ZN9__gnu_cxx13new_allocatorIiEC2ERKS1_
	.section	.text._ZNSt16allocator_traitsISaIiEE8max_sizeERKS0_,"axG",@progbits,_ZNSt16allocator_traitsISaIiEE8max_sizeERKS0_,comdat
	.align	2
	.weak	_ZNSt16allocator_traitsISaIiEE8max_sizeERKS0_
	.type	_ZNSt16allocator_traitsISaIiEE8max_sizeERKS0_, %function
_ZNSt16allocator_traitsISaIiEE8max_sizeERKS0_:
.LFB3070:
	.cfi_startproc
	stp	x29, x30, [sp, -32]!
	.cfi_def_cfa_offset 32
	.cfi_offset 29, -32
	.cfi_offset 30, -24
	mov	x29, sp
	str	x0, [sp, 24]
	ldr	x0, [sp, 24]
	bl	_ZNK9__gnu_cxx13new_allocatorIiE8max_sizeEv
	ldp	x29, x30, [sp], 32
	.cfi_restore 30
	.cfi_restore 29
	.cfi_def_cfa_offset 0
	ret
	.cfi_endproc
.LFE3070:
	.size	_ZNSt16allocator_traitsISaIiEE8max_sizeERKS0_, .-_ZNSt16allocator_traitsISaIiEE8max_sizeERKS0_
	.section	.text._ZSt3minImERKT_S2_S2_,"axG",@progbits,_ZSt3minImERKT_S2_S2_,comdat
	.align	2
	.weak	_ZSt3minImERKT_S2_S2_
	.type	_ZSt3minImERKT_S2_S2_, %function
_ZSt3minImERKT_S2_S2_:
.LFB3071:
	.cfi_startproc
	sub	sp, sp, #16
	.cfi_def_cfa_offset 16
	str	x0, [sp, 8]
	str	x1, [sp]
	ldr	x0, [sp]
	ldr	x1, [x0]
	ldr	x0, [sp, 8]
	ldr	x0, [x0]
	cmp	x1, x0
	bcs	.L434
	ldr	x0, [sp]
	b	.L435
.L434:
	ldr	x0, [sp, 8]
.L435:
	add	sp, sp, 16
	.cfi_def_cfa_offset 0
	ret
	.cfi_endproc
.LFE3071:
	.size	_ZSt3minImERKT_S2_S2_, .-_ZSt3minImERKT_S2_S2_
	.section	.text._ZNK9__gnu_cxx13new_allocatorIiE11_M_max_sizeEv,"axG",@progbits,_ZNK9__gnu_cxx13new_allocatorIiE11_M_max_sizeEv,comdat
	.align	2
	.weak	_ZNK9__gnu_cxx13new_allocatorIiE11_M_max_sizeEv
	.type	_ZNK9__gnu_cxx13new_allocatorIiE11_M_max_sizeEv, %function
_ZNK9__gnu_cxx13new_allocatorIiE11_M_max_sizeEv:
.LFB3073:
	.cfi_startproc
	sub	sp, sp, #16
	.cfi_def_cfa_offset 16
	str	x0, [sp, 8]
	mov	x0, 2305843009213693951
	add	sp, sp, 16
	.cfi_def_cfa_offset 0
	ret
	.cfi_endproc
.LFE3073:
	.size	_ZNK9__gnu_cxx13new_allocatorIiE11_M_max_sizeEv, .-_ZNK9__gnu_cxx13new_allocatorIiE11_M_max_sizeEv
	.section	.text._ZN9__gnu_cxx13new_allocatorIiE8allocateEmPKv,"axG",@progbits,_ZN9__gnu_cxx13new_allocatorIiE8allocateEmPKv,comdat
	.align	2
	.weak	_ZN9__gnu_cxx13new_allocatorIiE8allocateEmPKv
	.type	_ZN9__gnu_cxx13new_allocatorIiE8allocateEmPKv, %function
_ZN9__gnu_cxx13new_allocatorIiE8allocateEmPKv:
.LFB3072:
	.cfi_startproc
	stp	x29, x30, [sp, -48]!
	.cfi_def_cfa_offset 48
	.cfi_offset 29, -48
	.cfi_offset 30, -40
	mov	x29, sp
	str	x0, [sp, 40]
	str	x1, [sp, 32]
	str	x2, [sp, 24]
	ldr	x0, [sp, 40]
	bl	_ZNK9__gnu_cxx13new_allocatorIiE11_M_max_sizeEv
	mov	x1, x0
	ldr	x0, [sp, 32]
	cmp	x0, x1
	cset	w0, hi
	and	w0, w0, 255
	and	x0, x0, 255
	cmp	x0, 0
	cset	w0, ne
	and	w0, w0, 255
	cmp	w0, 0
	beq	.L439
	ldr	x1, [sp, 32]
	mov	x0, 4611686018427387903
	cmp	x1, x0
	bls	.L440
	bl	_ZSt28__throw_bad_array_new_lengthv
.L440:
	bl	_ZSt17__throw_bad_allocv
.L439:
	ldr	x0, [sp, 32]
	lsl	x0, x0, 2
	bl	_Znwm
	nop
	ldp	x29, x30, [sp], 48
	.cfi_restore 30
	.cfi_restore 29
	.cfi_def_cfa_offset 0
	ret
	.cfi_endproc
.LFE3072:
	.size	_ZN9__gnu_cxx13new_allocatorIiE8allocateEmPKv, .-_ZN9__gnu_cxx13new_allocatorIiE8allocateEmPKv
	.section	.text._ZNSt20__uninitialized_copyILb1EE13__uninit_copyISt15_Deque_iteratorIiRiPiES4_EET0_T_S7_S6_,"axG",@progbits,_ZNSt20__uninitialized_copyILb1EE13__uninit_copyISt15_Deque_iteratorIiRiPiES4_EET0_T_S7_S6_,comdat
	.align	2
	.weak	_ZNSt20__uninitialized_copyILb1EE13__uninit_copyISt15_Deque_iteratorIiRiPiES4_EET0_T_S7_S6_
	.type	_ZNSt20__uninitialized_copyILb1EE13__uninit_copyISt15_Deque_iteratorIiRiPiES4_EET0_T_S7_S6_, %function
_ZNSt20__uninitialized_copyILb1EE13__uninit_copyISt15_Deque_iteratorIiRiPiES4_EET0_T_S7_S6_:
.LFB3074:
	.cfi_startproc
	stp	x29, x30, [sp, -128]!
	.cfi_def_cfa_offset 128
	.cfi_offset 29, -128
	.cfi_offset 30, -120
	mov	x29, sp
	str	x0, [sp, 40]
	str	x1, [sp, 32]
	str	x2, [sp, 24]
	adrp	x0, :got:__stack_chk_guard
	ldr	x0, [x0, #:got_lo12:__stack_chk_guard]
	ldr	x1, [x0]
	str	x1, [sp, 120]
	mov	x1, 0
	add	x0, sp, 56
	ldr	x1, [sp, 40]
	bl	_ZNSt15_Deque_iteratorIiRiPiEC1ERKS2_
	add	x0, sp, 88
	ldr	x1, [sp, 32]
	bl	_ZNSt15_Deque_iteratorIiRiPiEC1ERKS2_
	add	x1, sp, 88
	add	x0, sp, 56
	ldr	x2, [sp, 24]
	bl	_ZSt4copyISt15_Deque_iteratorIiRiPiES2_ET0_T_S5_S4_
	mov	x1, x0
	adrp	x0, :got:__stack_chk_guard
	ldr	x0, [x0, #:got_lo12:__stack_chk_guard]
	ldr	x3, [sp, 120]
	ldr	x2, [x0]
	subs	x3, x3, x2
	mov	x2, 0
	beq	.L444
	bl	__stack_chk_fail
.L444:
	mov	x0, x1
	ldp	x29, x30, [sp], 128
	.cfi_restore 30
	.cfi_restore 29
	.cfi_def_cfa_offset 0
	ret
	.cfi_endproc
.LFE3074:
	.size	_ZNSt20__uninitialized_copyILb1EE13__uninit_copyISt15_Deque_iteratorIiRiPiES4_EET0_T_S7_S6_, .-_ZNSt20__uninitialized_copyILb1EE13__uninit_copyISt15_Deque_iteratorIiRiPiES4_EET0_T_S7_S6_
	.section	.text._ZNSt12_Vector_baseIiSaIiEE12_Vector_implC2EOS2_,"axG",@progbits,_ZNSt12_Vector_baseIiSaIiEE12_Vector_implC5EOS2_,comdat
	.align	2
	.weak	_ZNSt12_Vector_baseIiSaIiEE12_Vector_implC2EOS2_
	.type	_ZNSt12_Vector_baseIiSaIiEE12_Vector_implC2EOS2_, %function
_ZNSt12_Vector_baseIiSaIiEE12_Vector_implC2EOS2_:
.LFB3076:
	.cfi_startproc
	stp	x29, x30, [sp, -48]!
	.cfi_def_cfa_offset 48
	.cfi_offset 29, -48
	.cfi_offset 30, -40
	mov	x29, sp
	str	x19, [sp, 16]
	.cfi_offset 19, -32
	str	x0, [sp, 40]
	str	x1, [sp, 32]
	ldr	x0, [sp, 32]
	bl	_ZSt4moveIRNSt12_Vector_baseIiSaIiEE12_Vector_implEEONSt16remove_referenceIT_E4typeEOS6_
	mov	x1, x0
	ldr	x0, [sp, 40]
	bl	_ZNSaIiEC2ERKS_
	ldr	x19, [sp, 40]
	ldr	x0, [sp, 32]
	bl	_ZSt4moveIRNSt12_Vector_baseIiSaIiEE12_Vector_implEEONSt16remove_referenceIT_E4typeEOS6_
	mov	x1, x0
	mov	x0, x19
	bl	_ZNSt12_Vector_baseIiSaIiEE17_Vector_impl_dataC2EOS2_
	nop
	ldr	x19, [sp, 16]
	ldp	x29, x30, [sp], 48
	.cfi_restore 30
	.cfi_restore 29
	.cfi_restore 19
	.cfi_def_cfa_offset 0
	ret
	.cfi_endproc
.LFE3076:
	.size	_ZNSt12_Vector_baseIiSaIiEE12_Vector_implC2EOS2_, .-_ZNSt12_Vector_baseIiSaIiEE12_Vector_implC2EOS2_
	.weak	_ZNSt12_Vector_baseIiSaIiEE12_Vector_implC1EOS2_
	.set	_ZNSt12_Vector_baseIiSaIiEE12_Vector_implC1EOS2_,_ZNSt12_Vector_baseIiSaIiEE12_Vector_implC2EOS2_
	.section	.text._ZNKSt6vectorIS_IiSaIiEESaIS1_EE8max_sizeEv,"axG",@progbits,_ZNKSt6vectorIS_IiSaIiEESaIS1_EE8max_sizeEv,comdat
	.align	2
	.weak	_ZNKSt6vectorIS_IiSaIiEESaIS1_EE8max_sizeEv
	.type	_ZNKSt6vectorIS_IiSaIiEESaIS1_EE8max_sizeEv, %function
_ZNKSt6vectorIS_IiSaIiEESaIS1_EE8max_sizeEv:
.LFB3078:
	.cfi_startproc
	stp	x29, x30, [sp, -32]!
	.cfi_def_cfa_offset 32
	.cfi_offset 29, -32
	.cfi_offset 30, -24
	mov	x29, sp
	str	x0, [sp, 24]
	ldr	x0, [sp, 24]
	bl	_ZNKSt12_Vector_baseISt6vectorIiSaIiEESaIS2_EE19_M_get_Tp_allocatorEv
	bl	_ZNSt6vectorIS_IiSaIiEESaIS1_EE11_S_max_sizeERKS2_
	ldp	x29, x30, [sp], 32
	.cfi_restore 30
	.cfi_restore 29
	.cfi_def_cfa_offset 0
	ret
	.cfi_endproc
.LFE3078:
	.size	_ZNKSt6vectorIS_IiSaIiEESaIS1_EE8max_sizeEv, .-_ZNKSt6vectorIS_IiSaIiEESaIS1_EE8max_sizeEv
	.section	.text._ZNKSt6vectorIS_IiSaIiEESaIS1_EE4sizeEv,"axG",@progbits,_ZNKSt6vectorIS_IiSaIiEESaIS1_EE4sizeEv,comdat
	.align	2
	.weak	_ZNKSt6vectorIS_IiSaIiEESaIS1_EE4sizeEv
	.type	_ZNKSt6vectorIS_IiSaIiEESaIS1_EE4sizeEv, %function
_ZNKSt6vectorIS_IiSaIiEESaIS1_EE4sizeEv:
.LFB3079:
	.cfi_startproc
	sub	sp, sp, #16
	.cfi_def_cfa_offset 16
	str	x0, [sp, 8]
	ldr	x0, [sp, 8]
	ldr	x1, [x0, 8]
	ldr	x0, [sp, 8]
	ldr	x0, [x0]
	sub	x0, x1, x0
	asr	x1, x0, 3
	mov	x0, -6148914691236517206
	movk	x0, 0xaaab, lsl 0
	mul	x0, x1, x0
	add	sp, sp, 16
	.cfi_def_cfa_offset 0
	ret
	.cfi_endproc
.LFE3079:
	.size	_ZNKSt6vectorIS_IiSaIiEESaIS1_EE4sizeEv, .-_ZNKSt6vectorIS_IiSaIiEESaIS1_EE4sizeEv
	.section	.text._ZNSt16allocator_traitsISaISt6vectorIiSaIiEEEE8allocateERS3_m,"axG",@progbits,_ZNSt16allocator_traitsISaISt6vectorIiSaIiEEEE8allocateERS3_m,comdat
	.align	2
	.weak	_ZNSt16allocator_traitsISaISt6vectorIiSaIiEEEE8allocateERS3_m
	.type	_ZNSt16allocator_traitsISaISt6vectorIiSaIiEEEE8allocateERS3_m, %function
_ZNSt16allocator_traitsISaISt6vectorIiSaIiEEEE8allocateERS3_m:
.LFB3080:
	.cfi_startproc
	stp	x29, x30, [sp, -32]!
	.cfi_def_cfa_offset 32
	.cfi_offset 29, -32
	.cfi_offset 30, -24
	mov	x29, sp
	str	x0, [sp, 24]
	str	x1, [sp, 16]
	mov	x2, 0
	ldr	x1, [sp, 16]
	ldr	x0, [sp, 24]
	bl	_ZN9__gnu_cxx13new_allocatorISt6vectorIiSaIiEEE8allocateEmPKv
	ldp	x29, x30, [sp], 32
	.cfi_restore 30
	.cfi_restore 29
	.cfi_def_cfa_offset 0
	ret
	.cfi_endproc
.LFE3080:
	.size	_ZNSt16allocator_traitsISaISt6vectorIiSaIiEEEE8allocateERS3_m, .-_ZNSt16allocator_traitsISaISt6vectorIiSaIiEEEE8allocateERS3_m
	.section	.text._ZNSt6vectorIS_IiSaIiEESaIS1_EE14_S_do_relocateEPS1_S4_S4_RS2_St17integral_constantIbLb1EE,"axG",@progbits,_ZNSt6vectorIS_IiSaIiEESaIS1_EE14_S_do_relocateEPS1_S4_S4_RS2_St17integral_constantIbLb1EE,comdat
	.align	2
	.weak	_ZNSt6vectorIS_IiSaIiEESaIS1_EE14_S_do_relocateEPS1_S4_S4_RS2_St17integral_constantIbLb1EE
	.type	_ZNSt6vectorIS_IiSaIiEESaIS1_EE14_S_do_relocateEPS1_S4_S4_RS2_St17integral_constantIbLb1EE, %function
_ZNSt6vectorIS_IiSaIiEESaIS1_EE14_S_do_relocateEPS1_S4_S4_RS2_St17integral_constantIbLb1EE:
.LFB3081:
	.cfi_startproc
	stp	x29, x30, [sp, -64]!
	.cfi_def_cfa_offset 64
	.cfi_offset 29, -64
	.cfi_offset 30, -56
	mov	x29, sp
	str	x0, [sp, 56]
	str	x1, [sp, 48]
	str	x2, [sp, 40]
	str	x3, [sp, 32]
	strb	w4, [sp, 24]
	ldr	x3, [sp, 32]
	ldr	x2, [sp, 40]
	ldr	x1, [sp, 48]
	ldr	x0, [sp, 56]
	bl	_ZSt12__relocate_aIPSt6vectorIiSaIiEES3_SaIS2_EET0_T_S6_S5_RT1_
	ldp	x29, x30, [sp], 64
	.cfi_restore 30
	.cfi_restore 29
	.cfi_def_cfa_offset 0
	ret
	.cfi_endproc
.LFE3081:
	.size	_ZNSt6vectorIS_IiSaIiEESaIS1_EE14_S_do_relocateEPS1_S4_S4_RS2_St17integral_constantIbLb1EE, .-_ZNSt6vectorIS_IiSaIiEESaIS1_EE14_S_do_relocateEPS1_S4_S4_RS2_St17integral_constantIbLb1EE
	.section	.text._ZN9__gnu_cxx13new_allocatorISt6vectorIiSaIiEEE7destroyIS3_EEvPT_,"axG",@progbits,_ZN9__gnu_cxx13new_allocatorISt6vectorIiSaIiEEE7destroyIS3_EEvPT_,comdat
	.align	2
	.weak	_ZN9__gnu_cxx13new_allocatorISt6vectorIiSaIiEEE7destroyIS3_EEvPT_
	.type	_ZN9__gnu_cxx13new_allocatorISt6vectorIiSaIiEEE7destroyIS3_EEvPT_, %function
_ZN9__gnu_cxx13new_allocatorISt6vectorIiSaIiEEE7destroyIS3_EEvPT_:
.LFB3082:
	.cfi_startproc
	stp	x29, x30, [sp, -32]!
	.cfi_def_cfa_offset 32
	.cfi_offset 29, -32
	.cfi_offset 30, -24
	mov	x29, sp
	str	x0, [sp, 24]
	str	x1, [sp, 16]
	ldr	x0, [sp, 16]
	bl	_ZNSt6vectorIiSaIiEED1Ev
	nop
	ldp	x29, x30, [sp], 32
	.cfi_restore 30
	.cfi_restore 29
	.cfi_def_cfa_offset 0
	ret
	.cfi_endproc
.LFE3082:
	.size	_ZN9__gnu_cxx13new_allocatorISt6vectorIiSaIiEEE7destroyIS3_EEvPT_, .-_ZN9__gnu_cxx13new_allocatorISt6vectorIiSaIiEEE7destroyIS3_EEvPT_
	.section	.text._ZSt4copyIPPiS1_ET0_T_S3_S2_,"axG",@progbits,_ZSt4copyIPPiS1_ET0_T_S3_S2_,comdat
	.align	2
	.weak	_ZSt4copyIPPiS1_ET0_T_S3_S2_
	.type	_ZSt4copyIPPiS1_ET0_T_S3_S2_, %function
_ZSt4copyIPPiS1_ET0_T_S3_S2_:
.LFB3083:
	.cfi_startproc
	stp	x29, x30, [sp, -64]!
	.cfi_def_cfa_offset 64
	.cfi_offset 29, -64
	.cfi_offset 30, -56
	mov	x29, sp
	str	x19, [sp, 16]
	.cfi_offset 19, -48
	str	x0, [sp, 56]
	str	x1, [sp, 48]
	str	x2, [sp, 40]
	ldr	x0, [sp, 56]
	bl	_ZSt12__miter_baseIPPiET_S2_
	mov	x19, x0
	ldr	x0, [sp, 48]
	bl	_ZSt12__miter_baseIPPiET_S2_
	ldr	x2, [sp, 40]
	mov	x1, x0
	mov	x0, x19
	bl	_ZSt13__copy_move_aILb0EPPiS1_ET1_T0_S3_S2_
	ldr	x19, [sp, 16]
	ldp	x29, x30, [sp], 64
	.cfi_restore 30
	.cfi_restore 29
	.cfi_restore 19
	.cfi_def_cfa_offset 0
	ret
	.cfi_endproc
.LFE3083:
	.size	_ZSt4copyIPPiS1_ET0_T_S3_S2_, .-_ZSt4copyIPPiS1_ET0_T_S3_S2_
	.section	.text._ZSt13copy_backwardIPPiS1_ET0_T_S3_S2_,"axG",@progbits,_ZSt13copy_backwardIPPiS1_ET0_T_S3_S2_,comdat
	.align	2
	.weak	_ZSt13copy_backwardIPPiS1_ET0_T_S3_S2_
	.type	_ZSt13copy_backwardIPPiS1_ET0_T_S3_S2_, %function
_ZSt13copy_backwardIPPiS1_ET0_T_S3_S2_:
.LFB3084:
	.cfi_startproc
	stp	x29, x30, [sp, -64]!
	.cfi_def_cfa_offset 64
	.cfi_offset 29, -64
	.cfi_offset 30, -56
	mov	x29, sp
	str	x19, [sp, 16]
	.cfi_offset 19, -48
	str	x0, [sp, 56]
	str	x1, [sp, 48]
	str	x2, [sp, 40]
	ldr	x0, [sp, 56]
	bl	_ZSt12__miter_baseIPPiET_S2_
	mov	x19, x0
	ldr	x0, [sp, 48]
	bl	_ZSt12__miter_baseIPPiET_S2_
	ldr	x2, [sp, 40]
	mov	x1, x0
	mov	x0, x19
	bl	_ZSt22__copy_move_backward_aILb0EPPiS1_ET1_T0_S3_S2_
	ldr	x19, [sp, 16]
	ldp	x29, x30, [sp], 64
	.cfi_restore 30
	.cfi_restore 29
	.cfi_restore 19
	.cfi_def_cfa_offset 0
	ret
	.cfi_endproc
.LFE3084:
	.size	_ZSt13copy_backwardIPPiS1_ET0_T_S3_S2_, .-_ZSt13copy_backwardIPPiS1_ET0_T_S3_S2_
	.section	.text._ZNSt20__uninitialized_copyILb1EE13__uninit_copyIPKiPiEET0_T_S6_S5_,"axG",@progbits,_ZNSt20__uninitialized_copyILb1EE13__uninit_copyIPKiPiEET0_T_S6_S5_,comdat
	.align	2
	.weak	_ZNSt20__uninitialized_copyILb1EE13__uninit_copyIPKiPiEET0_T_S6_S5_
	.type	_ZNSt20__uninitialized_copyILb1EE13__uninit_copyIPKiPiEET0_T_S6_S5_, %function
_ZNSt20__uninitialized_copyILb1EE13__uninit_copyIPKiPiEET0_T_S6_S5_:
.LFB3085:
	.cfi_startproc
	stp	x29, x30, [sp, -48]!
	.cfi_def_cfa_offset 48
	.cfi_offset 29, -48
	.cfi_offset 30, -40
	mov	x29, sp
	str	x0, [sp, 40]
	str	x1, [sp, 32]
	str	x2, [sp, 24]
	ldr	x2, [sp, 24]
	ldr	x1, [sp, 32]
	ldr	x0, [sp, 40]
	bl	_ZSt4copyIPKiPiET0_T_S4_S3_
	ldp	x29, x30, [sp], 48
	.cfi_restore 30
	.cfi_restore 29
	.cfi_def_cfa_offset 0
	ret
	.cfi_endproc
.LFE3085:
	.size	_ZNSt20__uninitialized_copyILb1EE13__uninit_copyIPKiPiEET0_T_S6_S5_, .-_ZNSt20__uninitialized_copyILb1EE13__uninit_copyIPKiPiEET0_T_S6_S5_
	.section	.text._ZN9__gnu_cxx13new_allocatorImEC2ERKS1_,"axG",@progbits,_ZN9__gnu_cxx13new_allocatorImEC5ERKS1_,comdat
	.align	2
	.weak	_ZN9__gnu_cxx13new_allocatorImEC2ERKS1_
	.type	_ZN9__gnu_cxx13new_allocatorImEC2ERKS1_, %function
_ZN9__gnu_cxx13new_allocatorImEC2ERKS1_:
.LFB3111:
	.cfi_startproc
	sub	sp, sp, #16
	.cfi_def_cfa_offset 16
	str	x0, [sp, 8]
	str	x1, [sp]
	nop
	add	sp, sp, 16
	.cfi_def_cfa_offset 0
	ret
	.cfi_endproc
.LFE3111:
	.size	_ZN9__gnu_cxx13new_allocatorImEC2ERKS1_, .-_ZN9__gnu_cxx13new_allocatorImEC2ERKS1_
	.weak	_ZN9__gnu_cxx13new_allocatorImEC1ERKS1_
	.set	_ZN9__gnu_cxx13new_allocatorImEC1ERKS1_,_ZN9__gnu_cxx13new_allocatorImEC2ERKS1_
	.section	.text._ZNK9__gnu_cxx13new_allocatorImE11_M_max_sizeEv,"axG",@progbits,_ZNK9__gnu_cxx13new_allocatorImE11_M_max_sizeEv,comdat
	.align	2
	.weak	_ZNK9__gnu_cxx13new_allocatorImE11_M_max_sizeEv
	.type	_ZNK9__gnu_cxx13new_allocatorImE11_M_max_sizeEv, %function
_ZNK9__gnu_cxx13new_allocatorImE11_M_max_sizeEv:
.LFB3114:
	.cfi_startproc
	sub	sp, sp, #16
	.cfi_def_cfa_offset 16
	str	x0, [sp, 8]
	mov	x0, 1152921504606846975
	add	sp, sp, 16
	.cfi_def_cfa_offset 0
	ret
	.cfi_endproc
.LFE3114:
	.size	_ZNK9__gnu_cxx13new_allocatorImE11_M_max_sizeEv, .-_ZNK9__gnu_cxx13new_allocatorImE11_M_max_sizeEv
	.section	.text._ZN9__gnu_cxx13new_allocatorImE8allocateEmPKv,"axG",@progbits,_ZN9__gnu_cxx13new_allocatorImE8allocateEmPKv,comdat
	.align	2
	.weak	_ZN9__gnu_cxx13new_allocatorImE8allocateEmPKv
	.type	_ZN9__gnu_cxx13new_allocatorImE8allocateEmPKv, %function
_ZN9__gnu_cxx13new_allocatorImE8allocateEmPKv:
.LFB3113:
	.cfi_startproc
	stp	x29, x30, [sp, -48]!
	.cfi_def_cfa_offset 48
	.cfi_offset 29, -48
	.cfi_offset 30, -40
	mov	x29, sp
	str	x0, [sp, 40]
	str	x1, [sp, 32]
	str	x2, [sp, 24]
	ldr	x0, [sp, 40]
	bl	_ZNK9__gnu_cxx13new_allocatorImE11_M_max_sizeEv
	mov	x1, x0
	ldr	x0, [sp, 32]
	cmp	x0, x1
	cset	w0, hi
	and	w0, w0, 255
	and	x0, x0, 255
	cmp	x0, 0
	cset	w0, ne
	and	w0, w0, 255
	cmp	w0, 0
	beq	.L465
	ldr	x1, [sp, 32]
	mov	x0, 2305843009213693951
	cmp	x1, x0
	bls	.L466
	bl	_ZSt28__throw_bad_array_new_lengthv
.L466:
	bl	_ZSt17__throw_bad_allocv
.L465:
	ldr	x0, [sp, 32]
	lsl	x0, x0, 3
	bl	_Znwm
	nop
	ldp	x29, x30, [sp], 48
	.cfi_restore 30
	.cfi_restore 29
	.cfi_def_cfa_offset 0
	ret
	.cfi_endproc
.LFE3113:
	.size	_ZN9__gnu_cxx13new_allocatorImE8allocateEmPKv, .-_ZN9__gnu_cxx13new_allocatorImE8allocateEmPKv
	.section	.text._ZNK9__gnu_cxx13new_allocatorIiE8max_sizeEv,"axG",@progbits,_ZNK9__gnu_cxx13new_allocatorIiE8max_sizeEv,comdat
	.align	2
	.weak	_ZNK9__gnu_cxx13new_allocatorIiE8max_sizeEv
	.type	_ZNK9__gnu_cxx13new_allocatorIiE8max_sizeEv, %function
_ZNK9__gnu_cxx13new_allocatorIiE8max_sizeEv:
.LFB3115:
	.cfi_startproc
	stp	x29, x30, [sp, -32]!
	.cfi_def_cfa_offset 32
	.cfi_offset 29, -32
	.cfi_offset 30, -24
	mov	x29, sp
	str	x0, [sp, 24]
	ldr	x0, [sp, 24]
	bl	_ZNK9__gnu_cxx13new_allocatorIiE11_M_max_sizeEv
	ldp	x29, x30, [sp], 32
	.cfi_restore 30
	.cfi_restore 29
	.cfi_def_cfa_offset 0
	ret
	.cfi_endproc
.LFE3115:
	.size	_ZNK9__gnu_cxx13new_allocatorIiE8max_sizeEv, .-_ZNK9__gnu_cxx13new_allocatorIiE8max_sizeEv
	.section	.text._ZSt4copyISt15_Deque_iteratorIiRiPiES2_ET0_T_S5_S4_,"axG",@progbits,_ZSt4copyISt15_Deque_iteratorIiRiPiES2_ET0_T_S5_S4_,comdat
	.align	2
	.weak	_ZSt4copyISt15_Deque_iteratorIiRiPiES2_ET0_T_S5_S4_
	.type	_ZSt4copyISt15_Deque_iteratorIiRiPiES2_ET0_T_S5_S4_, %function
_ZSt4copyISt15_Deque_iteratorIiRiPiES2_ET0_T_S5_S4_:
.LFB3116:
	.cfi_startproc
	stp	x29, x30, [sp, -192]!
	.cfi_def_cfa_offset 192
	.cfi_offset 29, -192
	.cfi_offset 30, -184
	mov	x29, sp
	str	x0, [sp, 40]
	str	x1, [sp, 32]
	str	x2, [sp, 24]
	adrp	x0, :got:__stack_chk_guard
	ldr	x0, [x0, #:got_lo12:__stack_chk_guard]
	ldr	x1, [x0]
	str	x1, [sp, 184]
	mov	x1, 0
	add	x0, sp, 56
	ldr	x1, [sp, 40]
	bl	_ZNSt15_Deque_iteratorIiRiPiEC1ERKS2_
	add	x0, sp, 56
	add	x1, sp, 88
	mov	x8, x1
	bl	_ZSt12__miter_baseISt15_Deque_iteratorIiRiPiEET_S4_
	add	x0, sp, 120
	ldr	x1, [sp, 32]
	bl	_ZNSt15_Deque_iteratorIiRiPiEC1ERKS2_
	add	x0, sp, 120
	add	x1, sp, 152
	mov	x8, x1
	bl	_ZSt12__miter_baseISt15_Deque_iteratorIiRiPiEET_S4_
	add	x1, sp, 152
	add	x0, sp, 88
	ldr	x2, [sp, 24]
	bl	_ZSt13__copy_move_aILb0ESt15_Deque_iteratorIiRiPiES2_ET1_T0_S5_S4_
	mov	x1, x0
	adrp	x0, :got:__stack_chk_guard
	ldr	x0, [x0, #:got_lo12:__stack_chk_guard]
	ldr	x3, [sp, 184]
	ldr	x2, [x0]
	subs	x3, x3, x2
	mov	x2, 0
	beq	.L472
	bl	__stack_chk_fail
.L472:
	mov	x0, x1
	ldp	x29, x30, [sp], 192
	.cfi_restore 30
	.cfi_restore 29
	.cfi_def_cfa_offset 0
	ret
	.cfi_endproc
.LFE3116:
	.size	_ZSt4copyISt15_Deque_iteratorIiRiPiES2_ET0_T_S5_S4_, .-_ZSt4copyISt15_Deque_iteratorIiRiPiES2_ET0_T_S5_S4_
	.section	.text._ZSt4moveIRNSt12_Vector_baseIiSaIiEE12_Vector_implEEONSt16remove_referenceIT_E4typeEOS6_,"axG",@progbits,_ZSt4moveIRNSt12_Vector_baseIiSaIiEE12_Vector_implEEONSt16remove_referenceIT_E4typeEOS6_,comdat
	.align	2
	.weak	_ZSt4moveIRNSt12_Vector_baseIiSaIiEE12_Vector_implEEONSt16remove_referenceIT_E4typeEOS6_
	.type	_ZSt4moveIRNSt12_Vector_baseIiSaIiEE12_Vector_implEEONSt16remove_referenceIT_E4typeEOS6_, %function
_ZSt4moveIRNSt12_Vector_baseIiSaIiEE12_Vector_implEEONSt16remove_referenceIT_E4typeEOS6_:
.LFB3117:
	.cfi_startproc
	sub	sp, sp, #16
	.cfi_def_cfa_offset 16
	str	x0, [sp, 8]
	ldr	x0, [sp, 8]
	add	sp, sp, 16
	.cfi_def_cfa_offset 0
	ret
	.cfi_endproc
.LFE3117:
	.size	_ZSt4moveIRNSt12_Vector_baseIiSaIiEE12_Vector_implEEONSt16remove_referenceIT_E4typeEOS6_, .-_ZSt4moveIRNSt12_Vector_baseIiSaIiEE12_Vector_implEEONSt16remove_referenceIT_E4typeEOS6_
	.section	.text._ZNSt12_Vector_baseIiSaIiEE17_Vector_impl_dataC2EOS2_,"axG",@progbits,_ZNSt12_Vector_baseIiSaIiEE17_Vector_impl_dataC5EOS2_,comdat
	.align	2
	.weak	_ZNSt12_Vector_baseIiSaIiEE17_Vector_impl_dataC2EOS2_
	.type	_ZNSt12_Vector_baseIiSaIiEE17_Vector_impl_dataC2EOS2_, %function
_ZNSt12_Vector_baseIiSaIiEE17_Vector_impl_dataC2EOS2_:
.LFB3119:
	.cfi_startproc
	sub	sp, sp, #16
	.cfi_def_cfa_offset 16
	str	x0, [sp, 8]
	str	x1, [sp]
	ldr	x0, [sp]
	ldr	x1, [x0]
	ldr	x0, [sp, 8]
	str	x1, [x0]
	ldr	x0, [sp]
	ldr	x1, [x0, 8]
	ldr	x0, [sp, 8]
	str	x1, [x0, 8]
	ldr	x0, [sp]
	ldr	x1, [x0, 16]
	ldr	x0, [sp, 8]
	str	x1, [x0, 16]
	ldr	x0, [sp]
	str	xzr, [x0, 16]
	ldr	x0, [sp]
	ldr	x1, [x0, 16]
	ldr	x0, [sp]
	str	x1, [x0, 8]
	ldr	x0, [sp]
	ldr	x1, [x0, 8]
	ldr	x0, [sp]
	str	x1, [x0]
	nop
	add	sp, sp, 16
	.cfi_def_cfa_offset 0
	ret
	.cfi_endproc
.LFE3119:
	.size	_ZNSt12_Vector_baseIiSaIiEE17_Vector_impl_dataC2EOS2_, .-_ZNSt12_Vector_baseIiSaIiEE17_Vector_impl_dataC2EOS2_
	.weak	_ZNSt12_Vector_baseIiSaIiEE17_Vector_impl_dataC1EOS2_
	.set	_ZNSt12_Vector_baseIiSaIiEE17_Vector_impl_dataC1EOS2_,_ZNSt12_Vector_baseIiSaIiEE17_Vector_impl_dataC2EOS2_
	.section	.text._ZNSt6vectorIS_IiSaIiEESaIS1_EE11_S_max_sizeERKS2_,"axG",@progbits,_ZNSt6vectorIS_IiSaIiEESaIS1_EE11_S_max_sizeERKS2_,comdat
	.align	2
	.weak	_ZNSt6vectorIS_IiSaIiEESaIS1_EE11_S_max_sizeERKS2_
	.type	_ZNSt6vectorIS_IiSaIiEESaIS1_EE11_S_max_sizeERKS2_, %function
_ZNSt6vectorIS_IiSaIiEESaIS1_EE11_S_max_sizeERKS2_:
.LFB3121:
	.cfi_startproc
	stp	x29, x30, [sp, -64]!
	.cfi_def_cfa_offset 64
	.cfi_offset 29, -64
	.cfi_offset 30, -56
	mov	x29, sp
	str	x0, [sp, 24]
	adrp	x0, :got:__stack_chk_guard
	ldr	x0, [x0, #:got_lo12:__stack_chk_guard]
	ldr	x1, [x0]
	str	x1, [sp, 56]
	mov	x1, 0
	mov	x0, 6148914691236517205
	movk	x0, 0x555, lsl 48
	str	x0, [sp, 40]
	ldr	x0, [sp, 24]
	bl	_ZNSt16allocator_traitsISaISt6vectorIiSaIiEEEE8max_sizeERKS3_
	str	x0, [sp, 48]
	add	x1, sp, 48
	add	x0, sp, 40
	bl	_ZSt3minImERKT_S2_S2_
	ldr	x0, [x0]
	mov	x1, x0
	adrp	x0, :got:__stack_chk_guard
	ldr	x0, [x0, #:got_lo12:__stack_chk_guard]
	ldr	x3, [sp, 56]
	ldr	x2, [x0]
	subs	x3, x3, x2
	mov	x2, 0
	beq	.L478
	bl	__stack_chk_fail
.L478:
	mov	x0, x1
	ldp	x29, x30, [sp], 64
	.cfi_restore 30
	.cfi_restore 29
	.cfi_def_cfa_offset 0
	ret
	.cfi_endproc
.LFE3121:
	.size	_ZNSt6vectorIS_IiSaIiEESaIS1_EE11_S_max_sizeERKS2_, .-_ZNSt6vectorIS_IiSaIiEESaIS1_EE11_S_max_sizeERKS2_
	.section	.text._ZNKSt12_Vector_baseISt6vectorIiSaIiEESaIS2_EE19_M_get_Tp_allocatorEv,"axG",@progbits,_ZNKSt12_Vector_baseISt6vectorIiSaIiEESaIS2_EE19_M_get_Tp_allocatorEv,comdat
	.align	2
	.weak	_ZNKSt12_Vector_baseISt6vectorIiSaIiEESaIS2_EE19_M_get_Tp_allocatorEv
	.type	_ZNKSt12_Vector_baseISt6vectorIiSaIiEESaIS2_EE19_M_get_Tp_allocatorEv, %function
_ZNKSt12_Vector_baseISt6vectorIiSaIiEESaIS2_EE19_M_get_Tp_allocatorEv:
.LFB3122:
	.cfi_startproc
	sub	sp, sp, #16
	.cfi_def_cfa_offset 16
	str	x0, [sp, 8]
	ldr	x0, [sp, 8]
	add	sp, sp, 16
	.cfi_def_cfa_offset 0
	ret
	.cfi_endproc
.LFE3122:
	.size	_ZNKSt12_Vector_baseISt6vectorIiSaIiEESaIS2_EE19_M_get_Tp_allocatorEv, .-_ZNKSt12_Vector_baseISt6vectorIiSaIiEESaIS2_EE19_M_get_Tp_allocatorEv
	.section	.text._ZNK9__gnu_cxx13new_allocatorISt6vectorIiSaIiEEE11_M_max_sizeEv,"axG",@progbits,_ZNK9__gnu_cxx13new_allocatorISt6vectorIiSaIiEEE11_M_max_sizeEv,comdat
	.align	2
	.weak	_ZNK9__gnu_cxx13new_allocatorISt6vectorIiSaIiEEE11_M_max_sizeEv
	.type	_ZNK9__gnu_cxx13new_allocatorISt6vectorIiSaIiEEE11_M_max_sizeEv, %function
_ZNK9__gnu_cxx13new_allocatorISt6vectorIiSaIiEEE11_M_max_sizeEv:
.LFB3124:
	.cfi_startproc
	sub	sp, sp, #16
	.cfi_def_cfa_offset 16
	str	x0, [sp, 8]
	mov	x0, 6148914691236517205
	movk	x0, 0x555, lsl 48
	add	sp, sp, 16
	.cfi_def_cfa_offset 0
	ret
	.cfi_endproc
.LFE3124:
	.size	_ZNK9__gnu_cxx13new_allocatorISt6vectorIiSaIiEEE11_M_max_sizeEv, .-_ZNK9__gnu_cxx13new_allocatorISt6vectorIiSaIiEEE11_M_max_sizeEv
	.section	.text._ZN9__gnu_cxx13new_allocatorISt6vectorIiSaIiEEE8allocateEmPKv,"axG",@progbits,_ZN9__gnu_cxx13new_allocatorISt6vectorIiSaIiEEE8allocateEmPKv,comdat
	.align	2
	.weak	_ZN9__gnu_cxx13new_allocatorISt6vectorIiSaIiEEE8allocateEmPKv
	.type	_ZN9__gnu_cxx13new_allocatorISt6vectorIiSaIiEEE8allocateEmPKv, %function
_ZN9__gnu_cxx13new_allocatorISt6vectorIiSaIiEEE8allocateEmPKv:
.LFB3123:
	.cfi_startproc
	stp	x29, x30, [sp, -48]!
	.cfi_def_cfa_offset 48
	.cfi_offset 29, -48
	.cfi_offset 30, -40
	mov	x29, sp
	str	x0, [sp, 40]
	str	x1, [sp, 32]
	str	x2, [sp, 24]
	ldr	x0, [sp, 40]
	bl	_ZNK9__gnu_cxx13new_allocatorISt6vectorIiSaIiEEE11_M_max_sizeEv
	mov	x1, x0
	ldr	x0, [sp, 32]
	cmp	x0, x1
	cset	w0, hi
	and	w0, w0, 255
	and	x0, x0, 255
	cmp	x0, 0
	cset	w0, ne
	and	w0, w0, 255
	cmp	w0, 0
	beq	.L484
	ldr	x1, [sp, 32]
	mov	x0, -6148914691236517206
	movk	x0, 0xaaa, lsl 48
	cmp	x1, x0
	bls	.L485
	bl	_ZSt28__throw_bad_array_new_lengthv
.L485:
	bl	_ZSt17__throw_bad_allocv
.L484:
	ldr	x1, [sp, 32]
	mov	x0, x1
	lsl	x0, x0, 1
	add	x0, x0, x1
	lsl	x0, x0, 3
	bl	_Znwm
	nop
	ldp	x29, x30, [sp], 48
	.cfi_restore 30
	.cfi_restore 29
	.cfi_def_cfa_offset 0
	ret
	.cfi_endproc
.LFE3123:
	.size	_ZN9__gnu_cxx13new_allocatorISt6vectorIiSaIiEEE8allocateEmPKv, .-_ZN9__gnu_cxx13new_allocatorISt6vectorIiSaIiEEE8allocateEmPKv
	.section	.text._ZSt12__relocate_aIPSt6vectorIiSaIiEES3_SaIS2_EET0_T_S6_S5_RT1_,"axG",@progbits,_ZSt12__relocate_aIPSt6vectorIiSaIiEES3_SaIS2_EET0_T_S6_S5_RT1_,comdat
	.align	2
	.weak	_ZSt12__relocate_aIPSt6vectorIiSaIiEES3_SaIS2_EET0_T_S6_S5_RT1_
	.type	_ZSt12__relocate_aIPSt6vectorIiSaIiEES3_SaIS2_EET0_T_S6_S5_RT1_, %function
_ZSt12__relocate_aIPSt6vectorIiSaIiEES3_SaIS2_EET0_T_S6_S5_RT1_:
.LFB3125:
	.cfi_startproc
	stp	x29, x30, [sp, -64]!
	.cfi_def_cfa_offset 64
	.cfi_offset 29, -64
	.cfi_offset 30, -56
	mov	x29, sp
	stp	x19, x20, [sp, 16]
	.cfi_offset 19, -48
	.cfi_offset 20, -40
	str	x0, [sp, 56]
	str	x1, [sp, 48]
	str	x2, [sp, 40]
	str	x3, [sp, 32]
	ldr	x0, [sp, 56]
	bl	_ZSt12__niter_baseIPSt6vectorIiSaIiEEET_S4_
	mov	x19, x0
	ldr	x0, [sp, 48]
	bl	_ZSt12__niter_baseIPSt6vectorIiSaIiEEET_S4_
	mov	x20, x0
	ldr	x0, [sp, 40]
	bl	_ZSt12__niter_baseIPSt6vectorIiSaIiEEET_S4_
	ldr	x3, [sp, 32]
	mov	x2, x0
	mov	x1, x20
	mov	x0, x19
	bl	_ZSt14__relocate_a_1IPSt6vectorIiSaIiEES3_SaIS2_EET0_T_S6_S5_RT1_
	ldp	x19, x20, [sp, 16]
	ldp	x29, x30, [sp], 64
	.cfi_restore 30
	.cfi_restore 29
	.cfi_restore 19
	.cfi_restore 20
	.cfi_def_cfa_offset 0
	ret
	.cfi_endproc
.LFE3125:
	.size	_ZSt12__relocate_aIPSt6vectorIiSaIiEES3_SaIS2_EET0_T_S6_S5_RT1_, .-_ZSt12__relocate_aIPSt6vectorIiSaIiEES3_SaIS2_EET0_T_S6_S5_RT1_
	.section	.text._ZSt12__miter_baseIPPiET_S2_,"axG",@progbits,_ZSt12__miter_baseIPPiET_S2_,comdat
	.align	2
	.weak	_ZSt12__miter_baseIPPiET_S2_
	.type	_ZSt12__miter_baseIPPiET_S2_, %function
_ZSt12__miter_baseIPPiET_S2_:
.LFB3126:
	.cfi_startproc
	sub	sp, sp, #16
	.cfi_def_cfa_offset 16
	str	x0, [sp, 8]
	ldr	x0, [sp, 8]
	add	sp, sp, 16
	.cfi_def_cfa_offset 0
	ret
	.cfi_endproc
.LFE3126:
	.size	_ZSt12__miter_baseIPPiET_S2_, .-_ZSt12__miter_baseIPPiET_S2_
	.section	.text._ZSt13__copy_move_aILb0EPPiS1_ET1_T0_S3_S2_,"axG",@progbits,_ZSt13__copy_move_aILb0EPPiS1_ET1_T0_S3_S2_,comdat
	.align	2
	.weak	_ZSt13__copy_move_aILb0EPPiS1_ET1_T0_S3_S2_
	.type	_ZSt13__copy_move_aILb0EPPiS1_ET1_T0_S3_S2_, %function
_ZSt13__copy_move_aILb0EPPiS1_ET1_T0_S3_S2_:
.LFB3127:
	.cfi_startproc
	stp	x29, x30, [sp, -64]!
	.cfi_def_cfa_offset 64
	.cfi_offset 29, -64
	.cfi_offset 30, -56
	mov	x29, sp
	stp	x19, x20, [sp, 16]
	.cfi_offset 19, -48
	.cfi_offset 20, -40
	str	x0, [sp, 56]
	str	x1, [sp, 48]
	str	x2, [sp, 40]
	ldr	x0, [sp, 56]
	bl	_ZSt12__niter_baseIPPiET_S2_
	mov	x19, x0
	ldr	x0, [sp, 48]
	bl	_ZSt12__niter_baseIPPiET_S2_
	mov	x20, x0
	ldr	x0, [sp, 40]
	bl	_ZSt12__niter_baseIPPiET_S2_
	mov	x2, x0
	mov	x1, x20
	mov	x0, x19
	bl	_ZSt14__copy_move_a1ILb0EPPiS1_ET1_T0_S3_S2_
	mov	x1, x0
	add	x0, sp, 40
	bl	_ZSt12__niter_wrapIPPiET_RKS2_S2_
	ldp	x19, x20, [sp, 16]
	ldp	x29, x30, [sp], 64
	.cfi_restore 30
	.cfi_restore 29
	.cfi_restore 19
	.cfi_restore 20
	.cfi_def_cfa_offset 0
	ret
	.cfi_endproc
.LFE3127:
	.size	_ZSt13__copy_move_aILb0EPPiS1_ET1_T0_S3_S2_, .-_ZSt13__copy_move_aILb0EPPiS1_ET1_T0_S3_S2_
	.section	.text._ZSt22__copy_move_backward_aILb0EPPiS1_ET1_T0_S3_S2_,"axG",@progbits,_ZSt22__copy_move_backward_aILb0EPPiS1_ET1_T0_S3_S2_,comdat
	.align	2
	.weak	_ZSt22__copy_move_backward_aILb0EPPiS1_ET1_T0_S3_S2_
	.type	_ZSt22__copy_move_backward_aILb0EPPiS1_ET1_T0_S3_S2_, %function
_ZSt22__copy_move_backward_aILb0EPPiS1_ET1_T0_S3_S2_:
.LFB3129:
	.cfi_startproc
	stp	x29, x30, [sp, -64]!
	.cfi_def_cfa_offset 64
	.cfi_offset 29, -64
	.cfi_offset 30, -56
	mov	x29, sp
	stp	x19, x20, [sp, 16]
	.cfi_offset 19, -48
	.cfi_offset 20, -40
	str	x0, [sp, 56]
	str	x1, [sp, 48]
	str	x2, [sp, 40]
	ldr	x0, [sp, 56]
	bl	_ZSt12__niter_baseIPPiET_S2_
	mov	x19, x0
	ldr	x0, [sp, 48]
	bl	_ZSt12__niter_baseIPPiET_S2_
	mov	x20, x0
	ldr	x0, [sp, 40]
	bl	_ZSt12__niter_baseIPPiET_S2_
	mov	x2, x0
	mov	x1, x20
	mov	x0, x19
	bl	_ZSt23__copy_move_backward_a1ILb0EPPiS1_ET1_T0_S3_S2_
	mov	x1, x0
	add	x0, sp, 40
	bl	_ZSt12__niter_wrapIPPiET_RKS2_S2_
	ldp	x19, x20, [sp, 16]
	ldp	x29, x30, [sp], 64
	.cfi_restore 30
	.cfi_restore 29
	.cfi_restore 19
	.cfi_restore 20
	.cfi_def_cfa_offset 0
	ret
	.cfi_endproc
.LFE3129:
	.size	_ZSt22__copy_move_backward_aILb0EPPiS1_ET1_T0_S3_S2_, .-_ZSt22__copy_move_backward_aILb0EPPiS1_ET1_T0_S3_S2_
	.section	.text._ZSt4copyIPKiPiET0_T_S4_S3_,"axG",@progbits,_ZSt4copyIPKiPiET0_T_S4_S3_,comdat
	.align	2
	.weak	_ZSt4copyIPKiPiET0_T_S4_S3_
	.type	_ZSt4copyIPKiPiET0_T_S4_S3_, %function
_ZSt4copyIPKiPiET0_T_S4_S3_:
.LFB3130:
	.cfi_startproc
	stp	x29, x30, [sp, -64]!
	.cfi_def_cfa_offset 64
	.cfi_offset 29, -64
	.cfi_offset 30, -56
	mov	x29, sp
	str	x19, [sp, 16]
	.cfi_offset 19, -48
	str	x0, [sp, 56]
	str	x1, [sp, 48]
	str	x2, [sp, 40]
	ldr	x0, [sp, 56]
	bl	_ZSt12__miter_baseIPKiET_S2_
	mov	x19, x0
	ldr	x0, [sp, 48]
	bl	_ZSt12__miter_baseIPKiET_S2_
	ldr	x2, [sp, 40]
	mov	x1, x0
	mov	x0, x19
	bl	_ZSt13__copy_move_aILb0EPKiPiET1_T0_S4_S3_
	ldr	x19, [sp, 16]
	ldp	x29, x30, [sp], 64
	.cfi_restore 30
	.cfi_restore 29
	.cfi_restore 19
	.cfi_def_cfa_offset 0
	ret
	.cfi_endproc
.LFE3130:
	.size	_ZSt4copyIPKiPiET0_T_S4_S3_, .-_ZSt4copyIPKiPiET0_T_S4_S3_
	.section	.text._ZSt12__miter_baseISt15_Deque_iteratorIiRiPiEET_S4_,"axG",@progbits,_ZSt12__miter_baseISt15_Deque_iteratorIiRiPiEET_S4_,comdat
	.align	2
	.weak	_ZSt12__miter_baseISt15_Deque_iteratorIiRiPiEET_S4_
	.type	_ZSt12__miter_baseISt15_Deque_iteratorIiRiPiEET_S4_, %function
_ZSt12__miter_baseISt15_Deque_iteratorIiRiPiEET_S4_:
.LFB3143:
	.cfi_startproc
	stp	x29, x30, [sp, -48]!
	.cfi_def_cfa_offset 48
	.cfi_offset 29, -48
	.cfi_offset 30, -40
	mov	x29, sp
	str	x19, [sp, 16]
	.cfi_offset 19, -32
	mov	x19, x8
	str	x0, [sp, 40]
	ldr	x1, [sp, 40]
	mov	x0, x19
	bl	_ZNSt15_Deque_iteratorIiRiPiEC1ERKS2_
	mov	x0, x19
	ldr	x19, [sp, 16]
	ldp	x29, x30, [sp], 48
	.cfi_restore 30
	.cfi_restore 29
	.cfi_restore 19
	.cfi_def_cfa_offset 0
	ret
	.cfi_endproc
.LFE3143:
	.size	_ZSt12__miter_baseISt15_Deque_iteratorIiRiPiEET_S4_, .-_ZSt12__miter_baseISt15_Deque_iteratorIiRiPiEET_S4_
	.section	.text._ZSt13__copy_move_aILb0ESt15_Deque_iteratorIiRiPiES2_ET1_T0_S5_S4_,"axG",@progbits,_ZSt13__copy_move_aILb0ESt15_Deque_iteratorIiRiPiES2_ET1_T0_S5_S4_,comdat
	.align	2
	.weak	_ZSt13__copy_move_aILb0ESt15_Deque_iteratorIiRiPiES2_ET1_T0_S5_S4_
	.type	_ZSt13__copy_move_aILb0ESt15_Deque_iteratorIiRiPiES2_ET1_T0_S5_S4_, %function
_ZSt13__copy_move_aILb0ESt15_Deque_iteratorIiRiPiES2_ET1_T0_S5_S4_:
.LFB3144:
	.cfi_startproc
	stp	x29, x30, [sp, -192]!
	.cfi_def_cfa_offset 192
	.cfi_offset 29, -192
	.cfi_offset 30, -184
	mov	x29, sp
	str	x0, [sp, 40]
	str	x1, [sp, 32]
	str	x2, [sp, 24]
	adrp	x0, :got:__stack_chk_guard
	ldr	x0, [x0, #:got_lo12:__stack_chk_guard]
	ldr	x1, [x0]
	str	x1, [sp, 184]
	mov	x1, 0
	add	x0, sp, 56
	ldr	x1, [sp, 40]
	bl	_ZNSt15_Deque_iteratorIiRiPiEC1ERKS2_
	add	x0, sp, 56
	add	x1, sp, 88
	mov	x8, x1
	bl	_ZSt12__niter_baseISt15_Deque_iteratorIiRiPiEET_S4_
	add	x0, sp, 120
	ldr	x1, [sp, 32]
	bl	_ZNSt15_Deque_iteratorIiRiPiEC1ERKS2_
	add	x0, sp, 120
	add	x1, sp, 152
	mov	x8, x1
	bl	_ZSt12__niter_baseISt15_Deque_iteratorIiRiPiEET_S4_
	ldr	x0, [sp, 24]
	bl	_ZSt12__niter_baseIPiET_S1_
	mov	x2, x0
	add	x1, sp, 152
	add	x0, sp, 88
	bl	_ZSt14__copy_move_a1ILb0EiRiPiS1_ET3_St15_Deque_iteratorIT0_T1_T2_ES7_S2_
	mov	x1, x0
	add	x0, sp, 24
	bl	_ZSt12__niter_wrapIPiET_RKS1_S1_
	mov	x1, x0
	adrp	x0, :got:__stack_chk_guard
	ldr	x0, [x0, #:got_lo12:__stack_chk_guard]
	ldr	x3, [sp, 184]
	ldr	x2, [x0]
	subs	x3, x3, x2
	mov	x2, 0
	beq	.L501
	bl	__stack_chk_fail
.L501:
	mov	x0, x1
	ldp	x29, x30, [sp], 192
	.cfi_restore 30
	.cfi_restore 29
	.cfi_def_cfa_offset 0
	ret
	.cfi_endproc
.LFE3144:
	.size	_ZSt13__copy_move_aILb0ESt15_Deque_iteratorIiRiPiES2_ET1_T0_S5_S4_, .-_ZSt13__copy_move_aILb0ESt15_Deque_iteratorIiRiPiES2_ET1_T0_S5_S4_
	.section	.text._ZNSt16allocator_traitsISaISt6vectorIiSaIiEEEE8max_sizeERKS3_,"axG",@progbits,_ZNSt16allocator_traitsISaISt6vectorIiSaIiEEEE8max_sizeERKS3_,comdat
	.align	2
	.weak	_ZNSt16allocator_traitsISaISt6vectorIiSaIiEEEE8max_sizeERKS3_
	.type	_ZNSt16allocator_traitsISaISt6vectorIiSaIiEEEE8max_sizeERKS3_, %function
_ZNSt16allocator_traitsISaISt6vectorIiSaIiEEEE8max_sizeERKS3_:
.LFB3147:
	.cfi_startproc
	stp	x29, x30, [sp, -32]!
	.cfi_def_cfa_offset 32
	.cfi_offset 29, -32
	.cfi_offset 30, -24
	mov	x29, sp
	str	x0, [sp, 24]
	ldr	x0, [sp, 24]
	bl	_ZNK9__gnu_cxx13new_allocatorISt6vectorIiSaIiEEE8max_sizeEv
	ldp	x29, x30, [sp], 32
	.cfi_restore 30
	.cfi_restore 29
	.cfi_def_cfa_offset 0
	ret
	.cfi_endproc
.LFE3147:
	.size	_ZNSt16allocator_traitsISaISt6vectorIiSaIiEEEE8max_sizeERKS3_, .-_ZNSt16allocator_traitsISaISt6vectorIiSaIiEEEE8max_sizeERKS3_
	.section	.text._ZSt12__niter_baseIPSt6vectorIiSaIiEEET_S4_,"axG",@progbits,_ZSt12__niter_baseIPSt6vectorIiSaIiEEET_S4_,comdat
	.align	2
	.weak	_ZSt12__niter_baseIPSt6vectorIiSaIiEEET_S4_
	.type	_ZSt12__niter_baseIPSt6vectorIiSaIiEEET_S4_, %function
_ZSt12__niter_baseIPSt6vectorIiSaIiEEET_S4_:
.LFB3148:
	.cfi_startproc
	sub	sp, sp, #16
	.cfi_def_cfa_offset 16
	str	x0, [sp, 8]
	ldr	x0, [sp, 8]
	add	sp, sp, 16
	.cfi_def_cfa_offset 0
	ret
	.cfi_endproc
.LFE3148:
	.size	_ZSt12__niter_baseIPSt6vectorIiSaIiEEET_S4_, .-_ZSt12__niter_baseIPSt6vectorIiSaIiEEET_S4_
	.section	.text._ZSt14__relocate_a_1IPSt6vectorIiSaIiEES3_SaIS2_EET0_T_S6_S5_RT1_,"axG",@progbits,_ZSt14__relocate_a_1IPSt6vectorIiSaIiEES3_SaIS2_EET0_T_S6_S5_RT1_,comdat
	.align	2
	.weak	_ZSt14__relocate_a_1IPSt6vectorIiSaIiEES3_SaIS2_EET0_T_S6_S5_RT1_
	.type	_ZSt14__relocate_a_1IPSt6vectorIiSaIiEES3_SaIS2_EET0_T_S6_S5_RT1_, %function
_ZSt14__relocate_a_1IPSt6vectorIiSaIiEES3_SaIS2_EET0_T_S6_S5_RT1_:
.LFB3149:
	.cfi_startproc
	stp	x29, x30, [sp, -80]!
	.cfi_def_cfa_offset 80
	.cfi_offset 29, -80
	.cfi_offset 30, -72
	mov	x29, sp
	str	x19, [sp, 16]
	.cfi_offset 19, -64
	str	x0, [sp, 56]
	str	x1, [sp, 48]
	str	x2, [sp, 40]
	str	x3, [sp, 32]
	ldr	x0, [sp, 40]
	str	x0, [sp, 72]
	b	.L507
.L508:
	ldr	x0, [sp, 72]
	bl	_ZSt11__addressofISt6vectorIiSaIiEEEPT_RS3_
	mov	x19, x0
	ldr	x0, [sp, 56]
	bl	_ZSt11__addressofISt6vectorIiSaIiEEEPT_RS3_
	ldr	x2, [sp, 32]
	mov	x1, x0
	mov	x0, x19
	bl	_ZSt19__relocate_object_aISt6vectorIiSaIiEES2_SaIS2_EEvPT_PT0_RT1_
	ldr	x0, [sp, 56]
	add	x0, x0, 24
	str	x0, [sp, 56]
	ldr	x0, [sp, 72]
	add	x0, x0, 24
	str	x0, [sp, 72]
.L507:
	ldr	x1, [sp, 56]
	ldr	x0, [sp, 48]
	cmp	x1, x0
	bne	.L508
	ldr	x0, [sp, 72]
	ldr	x19, [sp, 16]
	ldp	x29, x30, [sp], 80
	.cfi_restore 30
	.cfi_restore 29
	.cfi_restore 19
	.cfi_def_cfa_offset 0
	ret
	.cfi_endproc
.LFE3149:
	.size	_ZSt14__relocate_a_1IPSt6vectorIiSaIiEES3_SaIS2_EET0_T_S6_S5_RT1_, .-_ZSt14__relocate_a_1IPSt6vectorIiSaIiEES3_SaIS2_EET0_T_S6_S5_RT1_
	.section	.text._ZSt12__niter_baseIPPiET_S2_,"axG",@progbits,_ZSt12__niter_baseIPPiET_S2_,comdat
	.align	2
	.weak	_ZSt12__niter_baseIPPiET_S2_
	.type	_ZSt12__niter_baseIPPiET_S2_, %function
_ZSt12__niter_baseIPPiET_S2_:
.LFB3150:
	.cfi_startproc
	sub	sp, sp, #16
	.cfi_def_cfa_offset 16
	str	x0, [sp, 8]
	ldr	x0, [sp, 8]
	add	sp, sp, 16
	.cfi_def_cfa_offset 0
	ret
	.cfi_endproc
.LFE3150:
	.size	_ZSt12__niter_baseIPPiET_S2_, .-_ZSt12__niter_baseIPPiET_S2_
	.section	.text._ZSt14__copy_move_a1ILb0EPPiS1_ET1_T0_S3_S2_,"axG",@progbits,_ZSt14__copy_move_a1ILb0EPPiS1_ET1_T0_S3_S2_,comdat
	.align	2
	.weak	_ZSt14__copy_move_a1ILb0EPPiS1_ET1_T0_S3_S2_
	.type	_ZSt14__copy_move_a1ILb0EPPiS1_ET1_T0_S3_S2_, %function
_ZSt14__copy_move_a1ILb0EPPiS1_ET1_T0_S3_S2_:
.LFB3151:
	.cfi_startproc
	stp	x29, x30, [sp, -48]!
	.cfi_def_cfa_offset 48
	.cfi_offset 29, -48
	.cfi_offset 30, -40
	mov	x29, sp
	str	x0, [sp, 40]
	str	x1, [sp, 32]
	str	x2, [sp, 24]
	ldr	x2, [sp, 24]
	ldr	x1, [sp, 32]
	ldr	x0, [sp, 40]
	bl	_ZSt14__copy_move_a2ILb0EPPiS1_ET1_T0_S3_S2_
	ldp	x29, x30, [sp], 48
	.cfi_restore 30
	.cfi_restore 29
	.cfi_def_cfa_offset 0
	ret
	.cfi_endproc
.LFE3151:
	.size	_ZSt14__copy_move_a1ILb0EPPiS1_ET1_T0_S3_S2_, .-_ZSt14__copy_move_a1ILb0EPPiS1_ET1_T0_S3_S2_
	.section	.text._ZSt12__niter_wrapIPPiET_RKS2_S2_,"axG",@progbits,_ZSt12__niter_wrapIPPiET_RKS2_S2_,comdat
	.align	2
	.weak	_ZSt12__niter_wrapIPPiET_RKS2_S2_
	.type	_ZSt12__niter_wrapIPPiET_RKS2_S2_, %function
_ZSt12__niter_wrapIPPiET_RKS2_S2_:
.LFB3152:
	.cfi_startproc
	sub	sp, sp, #16
	.cfi_def_cfa_offset 16
	str	x0, [sp, 8]
	str	x1, [sp]
	ldr	x0, [sp]
	add	sp, sp, 16
	.cfi_def_cfa_offset 0
	ret
	.cfi_endproc
.LFE3152:
	.size	_ZSt12__niter_wrapIPPiET_RKS2_S2_, .-_ZSt12__niter_wrapIPPiET_RKS2_S2_
	.section	.text._ZSt23__copy_move_backward_a1ILb0EPPiS1_ET1_T0_S3_S2_,"axG",@progbits,_ZSt23__copy_move_backward_a1ILb0EPPiS1_ET1_T0_S3_S2_,comdat
	.align	2
	.weak	_ZSt23__copy_move_backward_a1ILb0EPPiS1_ET1_T0_S3_S2_
	.type	_ZSt23__copy_move_backward_a1ILb0EPPiS1_ET1_T0_S3_S2_, %function
_ZSt23__copy_move_backward_a1ILb0EPPiS1_ET1_T0_S3_S2_:
.LFB3153:
	.cfi_startproc
	stp	x29, x30, [sp, -48]!
	.cfi_def_cfa_offset 48
	.cfi_offset 29, -48
	.cfi_offset 30, -40
	mov	x29, sp
	str	x0, [sp, 40]
	str	x1, [sp, 32]
	str	x2, [sp, 24]
	ldr	x2, [sp, 24]
	ldr	x1, [sp, 32]
	ldr	x0, [sp, 40]
	bl	_ZSt23__copy_move_backward_a2ILb0EPPiS1_ET1_T0_S3_S2_
	ldp	x29, x30, [sp], 48
	.cfi_restore 30
	.cfi_restore 29
	.cfi_def_cfa_offset 0
	ret
	.cfi_endproc
.LFE3153:
	.size	_ZSt23__copy_move_backward_a1ILb0EPPiS1_ET1_T0_S3_S2_, .-_ZSt23__copy_move_backward_a1ILb0EPPiS1_ET1_T0_S3_S2_
	.section	.text._ZSt12__miter_baseIPKiET_S2_,"axG",@progbits,_ZSt12__miter_baseIPKiET_S2_,comdat
	.align	2
	.weak	_ZSt12__miter_baseIPKiET_S2_
	.type	_ZSt12__miter_baseIPKiET_S2_, %function
_ZSt12__miter_baseIPKiET_S2_:
.LFB3154:
	.cfi_startproc
	sub	sp, sp, #16
	.cfi_def_cfa_offset 16
	str	x0, [sp, 8]
	ldr	x0, [sp, 8]
	add	sp, sp, 16
	.cfi_def_cfa_offset 0
	ret
	.cfi_endproc
.LFE3154:
	.size	_ZSt12__miter_baseIPKiET_S2_, .-_ZSt12__miter_baseIPKiET_S2_
	.section	.text._ZSt13__copy_move_aILb0EPKiPiET1_T0_S4_S3_,"axG",@progbits,_ZSt13__copy_move_aILb0EPKiPiET1_T0_S4_S3_,comdat
	.align	2
	.weak	_ZSt13__copy_move_aILb0EPKiPiET1_T0_S4_S3_
	.type	_ZSt13__copy_move_aILb0EPKiPiET1_T0_S4_S3_, %function
_ZSt13__copy_move_aILb0EPKiPiET1_T0_S4_S3_:
.LFB3155:
	.cfi_startproc
	stp	x29, x30, [sp, -64]!
	.cfi_def_cfa_offset 64
	.cfi_offset 29, -64
	.cfi_offset 30, -56
	mov	x29, sp
	stp	x19, x20, [sp, 16]
	.cfi_offset 19, -48
	.cfi_offset 20, -40
	str	x0, [sp, 56]
	str	x1, [sp, 48]
	str	x2, [sp, 40]
	ldr	x0, [sp, 56]
	bl	_ZSt12__niter_baseIPKiET_S2_
	mov	x19, x0
	ldr	x0, [sp, 48]
	bl	_ZSt12__niter_baseIPKiET_S2_
	mov	x20, x0
	ldr	x0, [sp, 40]
	bl	_ZSt12__niter_baseIPiET_S1_
	mov	x2, x0
	mov	x1, x20
	mov	x0, x19
	bl	_ZSt14__copy_move_a1ILb0EPKiPiET1_T0_S4_S3_
	mov	x1, x0
	add	x0, sp, 40
	bl	_ZSt12__niter_wrapIPiET_RKS1_S1_
	ldp	x19, x20, [sp, 16]
	ldp	x29, x30, [sp], 64
	.cfi_restore 30
	.cfi_restore 29
	.cfi_restore 19
	.cfi_restore 20
	.cfi_def_cfa_offset 0
	ret
	.cfi_endproc
.LFE3155:
	.size	_ZSt13__copy_move_aILb0EPKiPiET1_T0_S4_S3_, .-_ZSt13__copy_move_aILb0EPKiPiET1_T0_S4_S3_
	.section	.text._ZSt12__niter_baseISt15_Deque_iteratorIiRiPiEET_S4_,"axG",@progbits,_ZSt12__niter_baseISt15_Deque_iteratorIiRiPiEET_S4_,comdat
	.align	2
	.weak	_ZSt12__niter_baseISt15_Deque_iteratorIiRiPiEET_S4_
	.type	_ZSt12__niter_baseISt15_Deque_iteratorIiRiPiEET_S4_, %function
_ZSt12__niter_baseISt15_Deque_iteratorIiRiPiEET_S4_:
.LFB3159:
	.cfi_startproc
	stp	x29, x30, [sp, -48]!
	.cfi_def_cfa_offset 48
	.cfi_offset 29, -48
	.cfi_offset 30, -40
	mov	x29, sp
	str	x19, [sp, 16]
	.cfi_offset 19, -32
	mov	x19, x8
	str	x0, [sp, 40]
	ldr	x1, [sp, 40]
	mov	x0, x19
	bl	_ZNSt15_Deque_iteratorIiRiPiEC1ERKS2_
	mov	x0, x19
	ldr	x19, [sp, 16]
	ldp	x29, x30, [sp], 48
	.cfi_restore 30
	.cfi_restore 29
	.cfi_restore 19
	.cfi_def_cfa_offset 0
	ret
	.cfi_endproc
.LFE3159:
	.size	_ZSt12__niter_baseISt15_Deque_iteratorIiRiPiEET_S4_, .-_ZSt12__niter_baseISt15_Deque_iteratorIiRiPiEET_S4_
	.section	.text._ZSt12__niter_baseIPiET_S1_,"axG",@progbits,_ZSt12__niter_baseIPiET_S1_,comdat
	.align	2
	.weak	_ZSt12__niter_baseIPiET_S1_
	.type	_ZSt12__niter_baseIPiET_S1_, %function
_ZSt12__niter_baseIPiET_S1_:
.LFB3160:
	.cfi_startproc
	sub	sp, sp, #16
	.cfi_def_cfa_offset 16
	str	x0, [sp, 8]
	ldr	x0, [sp, 8]
	add	sp, sp, 16
	.cfi_def_cfa_offset 0
	ret
	.cfi_endproc
.LFE3160:
	.size	_ZSt12__niter_baseIPiET_S1_, .-_ZSt12__niter_baseIPiET_S1_
	.section	.text._ZSt14__copy_move_a1ILb0EiRiPiS1_ET3_St15_Deque_iteratorIT0_T1_T2_ES7_S2_,"axG",@progbits,_ZSt14__copy_move_a1ILb0EiRiPiS1_ET3_St15_Deque_iteratorIT0_T1_T2_ES7_S2_,comdat
	.align	2
	.weak	_ZSt14__copy_move_a1ILb0EiRiPiS1_ET3_St15_Deque_iteratorIT0_T1_T2_ES7_S2_
	.type	_ZSt14__copy_move_a1ILb0EiRiPiS1_ET3_St15_Deque_iteratorIT0_T1_T2_ES7_S2_, %function
_ZSt14__copy_move_a1ILb0EiRiPiS1_ET3_St15_Deque_iteratorIT0_T1_T2_ES7_S2_:
.LFB3161:
	.cfi_startproc
	stp	x29, x30, [sp, -128]!
	.cfi_def_cfa_offset 128
	.cfi_offset 29, -128
	.cfi_offset 30, -120
	mov	x29, sp
	str	x0, [sp, 40]
	str	x1, [sp, 32]
	str	x2, [sp, 24]
	adrp	x0, :got:__stack_chk_guard
	ldr	x0, [x0, #:got_lo12:__stack_chk_guard]
	ldr	x1, [x0]
	str	x1, [sp, 120]
	mov	x1, 0
	add	x0, sp, 56
	ldr	x1, [sp, 40]
	bl	_ZNSt15_Deque_iteratorIiRiPiEC1ERKS2_
	add	x0, sp, 88
	ldr	x1, [sp, 32]
	bl	_ZNSt15_Deque_iteratorIiRiPiEC1ERKS2_
	add	x1, sp, 88
	add	x0, sp, 56
	ldr	x2, [sp, 24]
	bl	_ZSt15__copy_move_ditILb0EiRiPiS1_ET3_St15_Deque_iteratorIT0_T1_T2_ES7_S2_
	mov	x1, x0
	adrp	x0, :got:__stack_chk_guard
	ldr	x0, [x0, #:got_lo12:__stack_chk_guard]
	ldr	x3, [sp, 120]
	ldr	x2, [x0]
	subs	x3, x3, x2
	mov	x2, 0
	beq	.L528
	bl	__stack_chk_fail
.L528:
	mov	x0, x1
	ldp	x29, x30, [sp], 128
	.cfi_restore 30
	.cfi_restore 29
	.cfi_def_cfa_offset 0
	ret
	.cfi_endproc
.LFE3161:
	.size	_ZSt14__copy_move_a1ILb0EiRiPiS1_ET3_St15_Deque_iteratorIT0_T1_T2_ES7_S2_, .-_ZSt14__copy_move_a1ILb0EiRiPiS1_ET3_St15_Deque_iteratorIT0_T1_T2_ES7_S2_
	.section	.text._ZSt12__niter_wrapIPiET_RKS1_S1_,"axG",@progbits,_ZSt12__niter_wrapIPiET_RKS1_S1_,comdat
	.align	2
	.weak	_ZSt12__niter_wrapIPiET_RKS1_S1_
	.type	_ZSt12__niter_wrapIPiET_RKS1_S1_, %function
_ZSt12__niter_wrapIPiET_RKS1_S1_:
.LFB3162:
	.cfi_startproc
	sub	sp, sp, #16
	.cfi_def_cfa_offset 16
	str	x0, [sp, 8]
	str	x1, [sp]
	ldr	x0, [sp]
	add	sp, sp, 16
	.cfi_def_cfa_offset 0
	ret
	.cfi_endproc
.LFE3162:
	.size	_ZSt12__niter_wrapIPiET_RKS1_S1_, .-_ZSt12__niter_wrapIPiET_RKS1_S1_
	.section	.text._ZNK9__gnu_cxx13new_allocatorISt6vectorIiSaIiEEE8max_sizeEv,"axG",@progbits,_ZNK9__gnu_cxx13new_allocatorISt6vectorIiSaIiEEE8max_sizeEv,comdat
	.align	2
	.weak	_ZNK9__gnu_cxx13new_allocatorISt6vectorIiSaIiEEE8max_sizeEv
	.type	_ZNK9__gnu_cxx13new_allocatorISt6vectorIiSaIiEEE8max_sizeEv, %function
_ZNK9__gnu_cxx13new_allocatorISt6vectorIiSaIiEEE8max_sizeEv:
.LFB3163:
	.cfi_startproc
	stp	x29, x30, [sp, -32]!
	.cfi_def_cfa_offset 32
	.cfi_offset 29, -32
	.cfi_offset 30, -24
	mov	x29, sp
	str	x0, [sp, 24]
	ldr	x0, [sp, 24]
	bl	_ZNK9__gnu_cxx13new_allocatorISt6vectorIiSaIiEEE11_M_max_sizeEv
	ldp	x29, x30, [sp], 32
	.cfi_restore 30
	.cfi_restore 29
	.cfi_def_cfa_offset 0
	ret
	.cfi_endproc
.LFE3163:
	.size	_ZNK9__gnu_cxx13new_allocatorISt6vectorIiSaIiEEE8max_sizeEv, .-_ZNK9__gnu_cxx13new_allocatorISt6vectorIiSaIiEEE8max_sizeEv
	.section	.text._ZSt19__relocate_object_aISt6vectorIiSaIiEES2_SaIS2_EEvPT_PT0_RT1_,"axG",@progbits,_ZSt19__relocate_object_aISt6vectorIiSaIiEES2_SaIS2_EEvPT_PT0_RT1_,comdat
	.align	2
	.weak	_ZSt19__relocate_object_aISt6vectorIiSaIiEES2_SaIS2_EEvPT_PT0_RT1_
