	.arch armv8-a
	.file	"main.cpp"
	.text
	.section	.text._ZNKSt9type_infoeqERKS_,"axG",@progbits,_ZNKSt9type_infoeqERKS_,comdat
	.align	2
	.weak	_ZNKSt9type_infoeqERKS_
	.type	_ZNKSt9type_infoeqERKS_, %function
_ZNKSt9type_infoeqERKS_:
.LFB20:
	.cfi_startproc
	stp	x29, x30, [sp, -32]!
	.cfi_def_cfa_offset 32
	.cfi_offset 29, -32
	.cfi_offset 30, -24
	mov	x29, sp
	str	x0, [sp, 24]
	str	x1, [sp, 16]
	ldr	x0, [sp, 24]
	ldr	x1, [x0, 8]
	ldr	x0, [sp, 16]
	ldr	x0, [x0, 8]
	cmp	x1, x0
	beq	.L2
	ldr	x0, [sp, 24]
	ldr	x0, [x0, 8]
	ldrb	w0, [x0]
	cmp	w0, 42
	beq	.L3
	ldr	x0, [sp, 24]
	ldr	x2, [x0, 8]
	ldr	x0, [sp, 16]
	ldr	x0, [x0, 8]
	mov	x1, x0
	mov	x0, x2
	bl	strcmp
	cmp	w0, 0
	bne	.L3
.L2:
	mov	w0, 1
	b	.L4
.L3:
	mov	w0, 0
.L4:
	ldp	x29, x30, [sp], 32
	.cfi_restore 30
	.cfi_restore 29
	.cfi_def_cfa_offset 0
	ret
	.cfi_endproc
.LFE20:
	.size	_ZNKSt9type_infoeqERKS_, .-_ZNKSt9type_infoeqERKS_
	.section	.text._ZnwmPv,"axG",@progbits,_ZnwmPv,comdat
	.align	2
	.weak	_ZnwmPv
	.type	_ZnwmPv, %function
_ZnwmPv:
.LFB38:
	.cfi_startproc
	sub	sp, sp, #16
	.cfi_def_cfa_offset 16
	str	x0, [sp, 8]
	str	x1, [sp]
	ldr	x0, [sp]
	add	sp, sp, 16
	.cfi_def_cfa_offset 0
	ret
	.cfi_endproc
.LFE38:
	.size	_ZnwmPv, .-_ZnwmPv
	.section	.text._ZdlPvS_,"axG",@progbits,_ZdlPvS_,comdat
	.align	2
	.weak	_ZdlPvS_
	.type	_ZdlPvS_, %function
_ZdlPvS_:
.LFB40:
	.cfi_startproc
	sub	sp, sp, #16
	.cfi_def_cfa_offset 16
	str	x0, [sp, 8]
	str	x1, [sp]
	nop
	add	sp, sp, 16
	.cfi_def_cfa_offset 0
	ret
	.cfi_endproc
.LFE40:
	.size	_ZdlPvS_, .-_ZdlPvS_
	.weak	_ZSt19piecewise_construct
	.section	.rodata._ZSt19piecewise_construct,"aG",@progbits,_ZSt19piecewise_construct,comdat
	.align	3
	.type	_ZSt19piecewise_construct, %gnu_unique_object
	.size	_ZSt19piecewise_construct, 1
_ZSt19piecewise_construct:
	.zero	1
	.section	.text._ZN9__gnu_cxx5__ops16__iter_less_iterEv,"axG",@progbits,_ZN9__gnu_cxx5__ops16__iter_less_iterEv,comdat
	.align	2
	.weak	_ZN9__gnu_cxx5__ops16__iter_less_iterEv
	.type	_ZN9__gnu_cxx5__ops16__iter_less_iterEv, %function
_ZN9__gnu_cxx5__ops16__iter_less_iterEv:
.LFB280:
	.cfi_startproc
	nop
	ret
	.cfi_endproc
.LFE280:
	.size	_ZN9__gnu_cxx5__ops16__iter_less_iterEv, .-_ZN9__gnu_cxx5__ops16__iter_less_iterEv
	.section	.text._ZN9__gnu_cxx5__ops14_Iter_less_valC2ENS0_15_Iter_less_iterE,"axG",@progbits,_ZN9__gnu_cxx5__ops14_Iter_less_valC5ENS0_15_Iter_less_iterE,comdat
	.align	2
	.weak	_ZN9__gnu_cxx5__ops14_Iter_less_valC2ENS0_15_Iter_less_iterE
	.type	_ZN9__gnu_cxx5__ops14_Iter_less_valC2ENS0_15_Iter_less_iterE, %function
_ZN9__gnu_cxx5__ops14_Iter_less_valC2ENS0_15_Iter_less_iterE:
.LFB282:
	.cfi_startproc
	sub	sp, sp, #16
	.cfi_def_cfa_offset 16
	str	x0, [sp, 8]
	strb	w1, [sp]
	nop
	add	sp, sp, 16
	.cfi_def_cfa_offset 0
	ret
	.cfi_endproc
.LFE282:
	.size	_ZN9__gnu_cxx5__ops14_Iter_less_valC2ENS0_15_Iter_less_iterE, .-_ZN9__gnu_cxx5__ops14_Iter_less_valC2ENS0_15_Iter_less_iterE
	.weak	_ZN9__gnu_cxx5__ops14_Iter_less_valC1ENS0_15_Iter_less_iterE
	.set	_ZN9__gnu_cxx5__ops14_Iter_less_valC1ENS0_15_Iter_less_iterE,_ZN9__gnu_cxx5__ops14_Iter_less_valC2ENS0_15_Iter_less_iterE
	.section	.text._ZN9__gnu_cxx5__ops15__iter_less_valEv,"axG",@progbits,_ZN9__gnu_cxx5__ops15__iter_less_valEv,comdat
	.align	2
	.weak	_ZN9__gnu_cxx5__ops15__iter_less_valEv
	.type	_ZN9__gnu_cxx5__ops15__iter_less_valEv, %function
_ZN9__gnu_cxx5__ops15__iter_less_valEv:
.LFB285:
	.cfi_startproc
	nop
	ret
	.cfi_endproc
.LFE285:
	.size	_ZN9__gnu_cxx5__ops15__iter_less_valEv, .-_ZN9__gnu_cxx5__ops15__iter_less_valEv
	.section	.text._ZN9__gnu_cxx5__ops15__val_comp_iterENS0_15_Iter_less_iterE,"axG",@progbits,_ZN9__gnu_cxx5__ops15__val_comp_iterENS0_15_Iter_less_iterE,comdat
	.align	2
	.weak	_ZN9__gnu_cxx5__ops15__val_comp_iterENS0_15_Iter_less_iterE
	.type	_ZN9__gnu_cxx5__ops15__val_comp_iterENS0_15_Iter_less_iterE, %function
_ZN9__gnu_cxx5__ops15__val_comp_iterENS0_15_Iter_less_iterE:
.LFB292:
	.cfi_startproc
	sub	sp, sp, #16
	.cfi_def_cfa_offset 16
	strb	w0, [sp, 8]
	nop
	mov	w0, w1
	add	sp, sp, 16
	.cfi_def_cfa_offset 0
	ret
	.cfi_endproc
.LFE292:
	.size	_ZN9__gnu_cxx5__ops15__val_comp_iterENS0_15_Iter_less_iterE, .-_ZN9__gnu_cxx5__ops15__val_comp_iterENS0_15_Iter_less_iterE
	.section	.text._ZN9__gnu_cxx5__ops20__iter_equal_to_iterEv,"axG",@progbits,_ZN9__gnu_cxx5__ops20__iter_equal_to_iterEv,comdat
	.align	2
	.weak	_ZN9__gnu_cxx5__ops20__iter_equal_to_iterEv
	.type	_ZN9__gnu_cxx5__ops20__iter_equal_to_iterEv, %function
_ZN9__gnu_cxx5__ops20__iter_equal_to_iterEv:
.LFB294:
	.cfi_startproc
	nop
	ret
	.cfi_endproc
.LFE294:
	.size	_ZN9__gnu_cxx5__ops20__iter_equal_to_iterEv, .-_ZN9__gnu_cxx5__ops20__iter_equal_to_iterEv
	.section	.text._ZSt17__size_to_integerm,"axG",@progbits,_ZSt17__size_to_integerm,comdat
	.align	2
	.weak	_ZSt17__size_to_integerm
	.type	_ZSt17__size_to_integerm, %function
_ZSt17__size_to_integerm:
.LFB371:
	.cfi_startproc
	sub	sp, sp, #16
	.cfi_def_cfa_offset 16
	str	x0, [sp, 8]
	ldr	x0, [sp, 8]
	add	sp, sp, 16
	.cfi_def_cfa_offset 0
	ret
	.cfi_endproc
.LFE371:
	.size	_ZSt17__size_to_integerm, .-_ZSt17__size_to_integerm
	.section	.text._ZSt4__lgl,"axG",@progbits,_ZSt4__lgl,comdat
	.align	2
	.weak	_ZSt4__lgl
	.type	_ZSt4__lgl, %function
_ZSt4__lgl:
.LFB404:
	.cfi_startproc
	sub	sp, sp, #16
	.cfi_def_cfa_offset 16
	str	x0, [sp, 8]
	ldr	x0, [sp, 8]
	clz	x0, x0
	mov	w1, w0
	mov	w0, 63
	sub	w0, w0, w1
	sxtw	x0, w0
	add	sp, sp, 16
	.cfi_def_cfa_offset 0
	ret
	.cfi_endproc
.LFE404:
	.size	_ZSt4__lgl, .-_ZSt4__lgl
	.section	.text._ZNSt11char_traitsIcE2ltERKcS2_,"axG",@progbits,_ZNSt11char_traitsIcE2ltERKcS2_,comdat
	.align	2
	.weak	_ZNSt11char_traitsIcE2ltERKcS2_
	.type	_ZNSt11char_traitsIcE2ltERKcS2_, %function
_ZNSt11char_traitsIcE2ltERKcS2_:
.LFB446:
	.cfi_startproc
	sub	sp, sp, #16
	.cfi_def_cfa_offset 16
	str	x0, [sp, 8]
	str	x1, [sp]
	ldr	x0, [sp, 8]
	ldrb	w1, [x0]
	ldr	x0, [sp]
	ldrb	w0, [x0]
	cmp	w1, w0
	cset	w0, cc
	and	w0, w0, 255
	add	sp, sp, 16
	.cfi_def_cfa_offset 0
	ret
	.cfi_endproc
.LFE446:
	.size	_ZNSt11char_traitsIcE2ltERKcS2_, .-_ZNSt11char_traitsIcE2ltERKcS2_
	.section	.text._ZNSt11char_traitsIcE7compareEPKcS2_m,"axG",@progbits,_ZNSt11char_traitsIcE7compareEPKcS2_m,comdat
	.align	2
	.weak	_ZNSt11char_traitsIcE7compareEPKcS2_m
	.type	_ZNSt11char_traitsIcE7compareEPKcS2_m, %function
_ZNSt11char_traitsIcE7compareEPKcS2_m:
.LFB447:
	.cfi_startproc
	stp	x29, x30, [sp, -64]!
	.cfi_def_cfa_offset 64
	.cfi_offset 29, -64
	.cfi_offset 30, -56
	mov	x29, sp
	str	x0, [sp, 40]
	str	x1, [sp, 32]
	str	x2, [sp, 24]
	ldr	x0, [sp, 24]
	cmp	x0, 0
	bne	.L25
	mov	w0, 0
	b	.L26
.L25:
	mov	w0, 0
	cmp	w0, 0
	beq	.L27
	str	xzr, [sp, 56]
	b	.L28
.L31:
	ldr	x1, [sp, 40]
	ldr	x0, [sp, 56]
	add	x2, x1, x0
	ldr	x1, [sp, 32]
	ldr	x0, [sp, 56]
	add	x0, x1, x0
	mov	x1, x0
	mov	x0, x2
	bl	_ZNSt11char_traitsIcE2ltERKcS2_
	and	w0, w0, 255
	cmp	w0, 0
	beq	.L29
	mov	w0, -1
	b	.L26
.L29:
	ldr	x1, [sp, 32]
	ldr	x0, [sp, 56]
	add	x2, x1, x0
	ldr	x1, [sp, 40]
	ldr	x0, [sp, 56]
	add	x0, x1, x0
	mov	x1, x0
	mov	x0, x2
	bl	_ZNSt11char_traitsIcE2ltERKcS2_
	and	w0, w0, 255
	cmp	w0, 0
	beq	.L30
	mov	w0, 1
	b	.L26
.L30:
	ldr	x0, [sp, 56]
	add	x0, x0, 1
	str	x0, [sp, 56]
.L28:
	ldr	x1, [sp, 56]
	ldr	x0, [sp, 24]
	cmp	x1, x0
	bcc	.L31
	mov	w0, 0
	b	.L26
.L27:
	ldr	x2, [sp, 24]
	ldr	x1, [sp, 32]
	ldr	x0, [sp, 40]
	bl	memcmp
	nop
.L26:
	ldp	x29, x30, [sp], 64
	.cfi_restore 30
	.cfi_restore 29
	.cfi_def_cfa_offset 0
	ret
	.cfi_endproc
.LFE447:
	.size	_ZNSt11char_traitsIcE7compareEPKcS2_m, .-_ZNSt11char_traitsIcE7compareEPKcS2_m
	.section	.text._ZNSt11char_traitsIcE6lengthEPKc,"axG",@progbits,_ZNSt11char_traitsIcE6lengthEPKc,comdat
	.align	2
	.weak	_ZNSt11char_traitsIcE6lengthEPKc
	.type	_ZNSt11char_traitsIcE6lengthEPKc, %function
_ZNSt11char_traitsIcE6lengthEPKc:
.LFB449:
	.cfi_startproc
	stp	x29, x30, [sp, -48]!
	.cfi_def_cfa_offset 48
	.cfi_offset 29, -48
	.cfi_offset 30, -40
	mov	x29, sp
	str	x0, [sp, 24]
	ldr	x0, [sp, 24]
	str	x0, [sp, 40]
	mov	w0, 0
	cmp	w0, 0
	beq	.L34
	ldr	x0, [sp, 24]
	bl	_ZN9__gnu_cxx11char_traitsIcE6lengthEPKc
	b	.L35
.L34:
	ldr	x0, [sp, 24]
	bl	strlen
	nop
.L35:
	ldp	x29, x30, [sp], 48
	.cfi_restore 30
	.cfi_restore 29
	.cfi_def_cfa_offset 0
	ret
	.cfi_endproc
.LFE449:
	.size	_ZNSt11char_traitsIcE6lengthEPKc, .-_ZNSt11char_traitsIcE6lengthEPKc
	.section	.text._ZNKSt17integral_constantIbLb1EEcvbEv,"axG",@progbits,_ZNKSt17integral_constantIbLb1EEcvbEv,comdat
	.align	2
	.weak	_ZNKSt17integral_constantIbLb1EEcvbEv
	.type	_ZNKSt17integral_constantIbLb1EEcvbEv, %function
_ZNKSt17integral_constantIbLb1EEcvbEv:
.LFB876:
	.cfi_startproc
	sub	sp, sp, #16
	.cfi_def_cfa_offset 16
	str	x0, [sp, 8]
	mov	w0, 1
	add	sp, sp, 16
	.cfi_def_cfa_offset 0
	ret
	.cfi_endproc
.LFE876:
	.size	_ZNKSt17integral_constantIbLb1EEcvbEv, .-_ZNKSt17integral_constantIbLb1EEcvbEv
	.section	.text._ZStanSt13_Ios_FmtflagsS_,"axG",@progbits,_ZStanSt13_Ios_FmtflagsS_,comdat
	.align	2
	.weak	_ZStanSt13_Ios_FmtflagsS_
	.type	_ZStanSt13_Ios_FmtflagsS_, %function
_ZStanSt13_Ios_FmtflagsS_:
.LFB1316:
	.cfi_startproc
	sub	sp, sp, #16
	.cfi_def_cfa_offset 16
	str	w0, [sp, 12]
	str	w1, [sp, 8]
	ldr	w1, [sp, 12]
	ldr	w0, [sp, 8]
	and	w0, w1, w0
	add	sp, sp, 16
	.cfi_def_cfa_offset 0
	ret
	.cfi_endproc
.LFE1316:
	.size	_ZStanSt13_Ios_FmtflagsS_, .-_ZStanSt13_Ios_FmtflagsS_
	.section	.text._ZStorSt13_Ios_FmtflagsS_,"axG",@progbits,_ZStorSt13_Ios_FmtflagsS_,comdat
	.align	2
	.weak	_ZStorSt13_Ios_FmtflagsS_
	.type	_ZStorSt13_Ios_FmtflagsS_, %function
_ZStorSt13_Ios_FmtflagsS_:
.LFB1317:
	.cfi_startproc
	sub	sp, sp, #16
	.cfi_def_cfa_offset 16
	str	w0, [sp, 12]
	str	w1, [sp, 8]
	ldr	w1, [sp, 12]
	ldr	w0, [sp, 8]
	orr	w0, w1, w0
	add	sp, sp, 16
	.cfi_def_cfa_offset 0
	ret
	.cfi_endproc
.LFE1317:
	.size	_ZStorSt13_Ios_FmtflagsS_, .-_ZStorSt13_Ios_FmtflagsS_
	.section	.text._ZStcoSt13_Ios_Fmtflags,"axG",@progbits,_ZStcoSt13_Ios_Fmtflags,comdat
	.align	2
	.weak	_ZStcoSt13_Ios_Fmtflags
	.type	_ZStcoSt13_Ios_Fmtflags, %function
_ZStcoSt13_Ios_Fmtflags:
.LFB1319:
	.cfi_startproc
	sub	sp, sp, #16
	.cfi_def_cfa_offset 16
	str	w0, [sp, 12]
	ldr	w0, [sp, 12]
	mvn	w0, w0
	add	sp, sp, 16
	.cfi_def_cfa_offset 0
	ret
	.cfi_endproc
.LFE1319:
	.size	_ZStcoSt13_Ios_Fmtflags, .-_ZStcoSt13_Ios_Fmtflags
	.section	.text._ZStoRRSt13_Ios_FmtflagsS_,"axG",@progbits,_ZStoRRSt13_Ios_FmtflagsS_,comdat
	.align	2
	.weak	_ZStoRRSt13_Ios_FmtflagsS_
	.type	_ZStoRRSt13_Ios_FmtflagsS_, %function
_ZStoRRSt13_Ios_FmtflagsS_:
.LFB1320:
	.cfi_startproc
	stp	x29, x30, [sp, -32]!
	.cfi_def_cfa_offset 32
	.cfi_offset 29, -32
	.cfi_offset 30, -24
	mov	x29, sp
	str	x0, [sp, 24]
	str	w1, [sp, 20]
	ldr	x0, [sp, 24]
	ldr	w0, [x0]
	ldr	w1, [sp, 20]
	bl	_ZStorSt13_Ios_FmtflagsS_
	mov	w1, w0
	ldr	x0, [sp, 24]
	str	w1, [x0]
	ldr	x0, [sp, 24]
	ldp	x29, x30, [sp], 32
	.cfi_restore 30
	.cfi_restore 29
	.cfi_def_cfa_offset 0
	ret
	.cfi_endproc
.LFE1320:
	.size	_ZStoRRSt13_Ios_FmtflagsS_, .-_ZStoRRSt13_Ios_FmtflagsS_
	.section	.text._ZStaNRSt13_Ios_FmtflagsS_,"axG",@progbits,_ZStaNRSt13_Ios_FmtflagsS_,comdat
	.align	2
	.weak	_ZStaNRSt13_Ios_FmtflagsS_
	.type	_ZStaNRSt13_Ios_FmtflagsS_, %function
_ZStaNRSt13_Ios_FmtflagsS_:
.LFB1321:
	.cfi_startproc
	stp	x29, x30, [sp, -32]!
	.cfi_def_cfa_offset 32
	.cfi_offset 29, -32
	.cfi_offset 30, -24
	mov	x29, sp
	str	x0, [sp, 24]
	str	w1, [sp, 20]
	ldr	x0, [sp, 24]
	ldr	w0, [x0]
	ldr	w1, [sp, 20]
	bl	_ZStanSt13_Ios_FmtflagsS_
	mov	w1, w0
	ldr	x0, [sp, 24]
	str	w1, [x0]
	ldr	x0, [sp, 24]
	ldp	x29, x30, [sp], 32
	.cfi_restore 30
	.cfi_restore 29
	.cfi_def_cfa_offset 0
	ret
	.cfi_endproc
.LFE1321:
	.size	_ZStaNRSt13_Ios_FmtflagsS_, .-_ZStaNRSt13_Ios_FmtflagsS_
	.section	.text._ZNSt8ios_base4setfESt13_Ios_FmtflagsS0_,"axG",@progbits,_ZNSt8ios_base4setfESt13_Ios_FmtflagsS0_,comdat
	.align	2
	.weak	_ZNSt8ios_base4setfESt13_Ios_FmtflagsS0_
	.type	_ZNSt8ios_base4setfESt13_Ios_FmtflagsS0_, %function
_ZNSt8ios_base4setfESt13_Ios_FmtflagsS0_:
.LFB1350:
	.cfi_startproc
	stp	x29, x30, [sp, -48]!
	.cfi_def_cfa_offset 48
	.cfi_offset 29, -48
	.cfi_offset 30, -40
	mov	x29, sp
	str	x0, [sp, 24]
	str	w1, [sp, 20]
	str	w2, [sp, 16]
	ldr	x0, [sp, 24]
	ldr	w0, [x0, 24]
	str	w0, [sp, 44]
	ldr	w0, [sp, 16]
	bl	_ZStcoSt13_Ios_Fmtflags
	mov	w1, w0
	ldr	x0, [sp, 24]
	add	x0, x0, 24
	bl	_ZStaNRSt13_Ios_FmtflagsS_
	ldr	w1, [sp, 16]
	ldr	w0, [sp, 20]
	bl	_ZStanSt13_Ios_FmtflagsS_
	mov	w1, w0
	ldr	x0, [sp, 24]
	add	x0, x0, 24
	bl	_ZStoRRSt13_Ios_FmtflagsS_
	ldr	w0, [sp, 44]
	ldp	x29, x30, [sp], 48
	.cfi_restore 30
	.cfi_restore 29
	.cfi_def_cfa_offset 0
	ret
	.cfi_endproc
.LFE1350:
	.size	_ZNSt8ios_base4setfESt13_Ios_FmtflagsS0_, .-_ZNSt8ios_base4setfESt13_Ios_FmtflagsS0_
	.section	.text._ZSt3hexRSt8ios_base,"axG",@progbits,_ZSt3hexRSt8ios_base,comdat
	.align	2
	.weak	_ZSt3hexRSt8ios_base
	.type	_ZSt3hexRSt8ios_base, %function
_ZSt3hexRSt8ios_base:
.LFB1378:
	.cfi_startproc
	stp	x29, x30, [sp, -32]!
	.cfi_def_cfa_offset 32
	.cfi_offset 29, -32
	.cfi_offset 30, -24
	mov	x29, sp
	str	x0, [sp, 24]
	mov	w2, 74
	mov	w1, 8
	ldr	x0, [sp, 24]
	bl	_ZNSt8ios_base4setfESt13_Ios_FmtflagsS0_
	ldr	x0, [sp, 24]
	ldp	x29, x30, [sp], 32
	.cfi_restore 30
	.cfi_restore 29
	.cfi_def_cfa_offset 0
	ret
	.cfi_endproc
.LFE1378:
	.size	_ZSt3hexRSt8ios_base, .-_ZSt3hexRSt8ios_base
	.section	.text._ZSt3octRSt8ios_base,"axG",@progbits,_ZSt3octRSt8ios_base,comdat
	.align	2
	.weak	_ZSt3octRSt8ios_base
	.type	_ZSt3octRSt8ios_base, %function
_ZSt3octRSt8ios_base:
.LFB1379:
	.cfi_startproc
	stp	x29, x30, [sp, -32]!
	.cfi_def_cfa_offset 32
	.cfi_offset 29, -32
	.cfi_offset 30, -24
	mov	x29, sp
	str	x0, [sp, 24]
	mov	w2, 74
	mov	w1, 64
	ldr	x0, [sp, 24]
	bl	_ZNSt8ios_base4setfESt13_Ios_FmtflagsS0_
	ldr	x0, [sp, 24]
	ldp	x29, x30, [sp], 32
	.cfi_restore 30
	.cfi_restore 29
	.cfi_def_cfa_offset 0
	ret
	.cfi_endproc
.LFE1379:
	.size	_ZSt3octRSt8ios_base, .-_ZSt3octRSt8ios_base
	.section	.text._ZNKSt5ctypeIcE7toupperEc,"axG",@progbits,_ZNKSt5ctypeIcE7toupperEc,comdat
	.align	2
	.weak	_ZNKSt5ctypeIcE7toupperEc
	.type	_ZNKSt5ctypeIcE7toupperEc, %function
_ZNKSt5ctypeIcE7toupperEc:
.LFB1473:
	.cfi_startproc
	stp	x29, x30, [sp, -32]!
	.cfi_def_cfa_offset 32
	.cfi_offset 29, -32
	.cfi_offset 30, -24
	mov	x29, sp
	str	x0, [sp, 24]
	strb	w1, [sp, 23]
	ldr	x0, [sp, 24]
	ldr	x0, [x0]
	add	x0, x0, 16
	ldr	x2, [x0]
	ldrb	w1, [sp, 23]
	ldr	x0, [sp, 24]
	blr	x2
	and	w0, w0, 255
	ldp	x29, x30, [sp], 32
	.cfi_restore 30
	.cfi_restore 29
	.cfi_def_cfa_offset 0
	ret
	.cfi_endproc
.LFE1473:
	.size	_ZNKSt5ctypeIcE7toupperEc, .-_ZNKSt5ctypeIcE7toupperEc
	.section	.text._ZNKSt5ctypeIcE7tolowerEc,"axG",@progbits,_ZNKSt5ctypeIcE7tolowerEc,comdat
	.align	2
	.weak	_ZNKSt5ctypeIcE7tolowerEc
	.type	_ZNKSt5ctypeIcE7tolowerEc, %function
_ZNKSt5ctypeIcE7tolowerEc:
.LFB1475:
	.cfi_startproc
	stp	x29, x30, [sp, -32]!
	.cfi_def_cfa_offset 32
	.cfi_offset 29, -32
	.cfi_offset 30, -24
	mov	x29, sp
	str	x0, [sp, 24]
	strb	w1, [sp, 23]
	ldr	x0, [sp, 24]
	ldr	x0, [x0]
	add	x0, x0, 32
	ldr	x2, [x0]
	ldrb	w1, [sp, 23]
	ldr	x0, [sp, 24]
	blr	x2
	and	w0, w0, 255
	ldp	x29, x30, [sp], 32
	.cfi_restore 30
	.cfi_restore 29
	.cfi_def_cfa_offset 0
	ret
	.cfi_endproc
.LFE1475:
	.size	_ZNKSt5ctypeIcE7tolowerEc, .-_ZNKSt5ctypeIcE7tolowerEc
	.section	.text._ZNKSt5ctypeIcE7tolowerEPcPKc,"axG",@progbits,_ZNKSt5ctypeIcE7tolowerEPcPKc,comdat
	.align	2
	.weak	_ZNKSt5ctypeIcE7tolowerEPcPKc
	.type	_ZNKSt5ctypeIcE7tolowerEPcPKc, %function
_ZNKSt5ctypeIcE7tolowerEPcPKc:
.LFB1476:
	.cfi_startproc
	stp	x29, x30, [sp, -48]!
	.cfi_def_cfa_offset 48
	.cfi_offset 29, -48
	.cfi_offset 30, -40
	mov	x29, sp
	str	x0, [sp, 40]
	str	x1, [sp, 32]
	str	x2, [sp, 24]
	ldr	x0, [sp, 40]
	ldr	x0, [x0]
	add	x0, x0, 40
	ldr	x3, [x0]
	ldr	x2, [sp, 24]
	ldr	x1, [sp, 32]
	ldr	x0, [sp, 40]
	blr	x3
	ldp	x29, x30, [sp], 48
	.cfi_restore 30
	.cfi_restore 29
	.cfi_def_cfa_offset 0
	ret
	.cfi_endproc
.LFE1476:
	.size	_ZNKSt5ctypeIcE7tolowerEPcPKc, .-_ZNKSt5ctypeIcE7tolowerEPcPKc
	.section	.text._ZNKSt5ctypeIcE5widenEc,"axG",@progbits,_ZNKSt5ctypeIcE5widenEc,comdat
	.align	2
	.weak	_ZNKSt5ctypeIcE5widenEc
	.type	_ZNKSt5ctypeIcE5widenEc, %function
_ZNKSt5ctypeIcE5widenEc:
.LFB1477:
	.cfi_startproc
	stp	x29, x30, [sp, -32]!
	.cfi_def_cfa_offset 32
	.cfi_offset 29, -32
	.cfi_offset 30, -24
	mov	x29, sp
	str	x0, [sp, 24]
	strb	w1, [sp, 23]
	ldr	x0, [sp, 24]
	ldrb	w0, [x0, 56]
	cmp	w0, 0
	beq	.L61
	ldrb	w0, [sp, 23]
	ldr	x1, [sp, 24]
	sxtw	x0, w0
	add	x0, x1, x0
	ldrb	w0, [x0, 57]
	b	.L62
.L61:
	ldr	x0, [sp, 24]
	bl	_ZNKSt5ctypeIcE13_M_widen_initEv
	ldr	x0, [sp, 24]
	ldr	x0, [x0]
	add	x0, x0, 48
	ldr	x2, [x0]
	ldrb	w1, [sp, 23]
	ldr	x0, [sp, 24]
	blr	x2
	and	w0, w0, 255
	nop
.L62:
	ldp	x29, x30, [sp], 32
	.cfi_restore 30
	.cfi_restore 29
	.cfi_def_cfa_offset 0
	ret
	.cfi_endproc
.LFE1477:
	.size	_ZNKSt5ctypeIcE5widenEc, .-_ZNKSt5ctypeIcE5widenEc
	.section	.text._ZNKSt5ctypeIcE6narrowEcc,"axG",@progbits,_ZNKSt5ctypeIcE6narrowEcc,comdat
	.align	2
	.weak	_ZNKSt5ctypeIcE6narrowEcc
	.type	_ZNKSt5ctypeIcE6narrowEcc, %function
_ZNKSt5ctypeIcE6narrowEcc:
.LFB1479:
	.cfi_startproc
	stp	x29, x30, [sp, -48]!
	.cfi_def_cfa_offset 48
	.cfi_offset 29, -48
	.cfi_offset 30, -40
	mov	x29, sp
	str	x0, [sp, 24]
	strb	w1, [sp, 23]
	strb	w2, [sp, 22]
	ldrb	w0, [sp, 23]
	ldr	x1, [sp, 24]
	sxtw	x0, w0
	add	x0, x1, x0
	ldrb	w0, [x0, 313]
	cmp	w0, 0
	beq	.L64
	ldrb	w0, [sp, 23]
	ldr	x1, [sp, 24]
	sxtw	x0, w0
	add	x0, x1, x0
	ldrb	w0, [x0, 313]
	b	.L65
.L64:
	ldr	x0, [sp, 24]
	ldr	x0, [x0]
	add	x0, x0, 64
	ldr	x3, [x0]
	ldrb	w2, [sp, 22]
	ldrb	w1, [sp, 23]
	ldr	x0, [sp, 24]
	blr	x3
	and	w0, w0, 255
	strb	w0, [sp, 47]
	ldrb	w1, [sp, 47]
	ldrb	w0, [sp, 22]
	cmp	w1, w0
	beq	.L66
	ldrb	w0, [sp, 23]
	ldr	x1, [sp, 24]
	sxtw	x0, w0
	add	x0, x1, x0
	ldrb	w1, [sp, 47]
	strb	w1, [x0, 313]
.L66:
	ldrb	w0, [sp, 47]
.L65:
	ldp	x29, x30, [sp], 48
	.cfi_restore 30
	.cfi_restore 29
	.cfi_def_cfa_offset 0
	ret
	.cfi_endproc
.LFE1479:
	.size	_ZNKSt5ctypeIcE6narrowEcc, .-_ZNKSt5ctypeIcE6narrowEcc
	.section	.text._ZNKSt5ctypeIcE2isEtc,"axG",@progbits,_ZNKSt5ctypeIcE2isEtc,comdat
	.align	2
	.weak	_ZNKSt5ctypeIcE2isEtc
	.type	_ZNKSt5ctypeIcE2isEtc, %function
_ZNKSt5ctypeIcE2isEtc:
.LFB1488:
	.cfi_startproc
	sub	sp, sp, #16
	.cfi_def_cfa_offset 16
	str	x0, [sp, 8]
	strh	w1, [sp, 6]
	strb	w2, [sp, 5]
	ldr	x0, [sp, 8]
	ldr	x1, [x0, 48]
	ldrb	w0, [sp, 5]
	lsl	x0, x0, 1
	add	x0, x1, x0
	ldrh	w1, [x0]
	ldrh	w0, [sp, 6]
	and	w0, w1, w0
	and	w0, w0, 65535
	cmp	w0, 0
	cset	w0, ne
	and	w0, w0, 255
	add	sp, sp, 16
	.cfi_def_cfa_offset 0
	ret
	.cfi_endproc
.LFE1488:
	.size	_ZNKSt5ctypeIcE2isEtc, .-_ZNKSt5ctypeIcE2isEtc
	.local	_ZStL8__ioinit
	.comm	_ZStL8__ioinit,1,8
	.section	.text._ZNSt9_Any_data9_M_accessEv,"axG",@progbits,_ZNSt9_Any_data9_M_accessEv,comdat
	.align	2
	.weak	_ZNSt9_Any_data9_M_accessEv
	.type	_ZNSt9_Any_data9_M_accessEv, %function
_ZNSt9_Any_data9_M_accessEv:
.LFB2238:
	.cfi_startproc
	sub	sp, sp, #16
	.cfi_def_cfa_offset 16
	str	x0, [sp, 8]
	ldr	x0, [sp, 8]
	add	sp, sp, 16
	.cfi_def_cfa_offset 0
	ret
	.cfi_endproc
.LFE2238:
	.size	_ZNSt9_Any_data9_M_accessEv, .-_ZNSt9_Any_data9_M_accessEv
	.section	.text._ZNKSt9_Any_data9_M_accessEv,"axG",@progbits,_ZNKSt9_Any_data9_M_accessEv,comdat
	.align	2
	.weak	_ZNKSt9_Any_data9_M_accessEv
	.type	_ZNKSt9_Any_data9_M_accessEv, %function
_ZNKSt9_Any_data9_M_accessEv:
.LFB2239:
	.cfi_startproc
	sub	sp, sp, #16
	.cfi_def_cfa_offset 16
	str	x0, [sp, 8]
	ldr	x0, [sp, 8]
	add	sp, sp, 16
	.cfi_def_cfa_offset 0
	ret
	.cfi_endproc
.LFE2239:
	.size	_ZNKSt9_Any_data9_M_accessEv, .-_ZNKSt9_Any_data9_M_accessEv
	.section	.text._ZNSt14_Function_baseD2Ev,"axG",@progbits,_ZNSt14_Function_baseD5Ev,comdat
	.align	2
	.weak	_ZNSt14_Function_baseD2Ev
	.type	_ZNSt14_Function_baseD2Ev, %function
_ZNSt14_Function_baseD2Ev:
.LFB2254:
	.cfi_startproc
	.cfi_personality 0x9b,DW.ref.__gxx_personality_v0
	.cfi_lsda 0x1b,.LLSDA2254
	stp	x29, x30, [sp, -32]!
	.cfi_def_cfa_offset 32
	.cfi_offset 29, -32
	.cfi_offset 30, -24
	mov	x29, sp
	str	x0, [sp, 24]
	ldr	x0, [sp, 24]
	ldr	x0, [x0, 16]
	cmp	x0, 0
	beq	.L75
	ldr	x0, [sp, 24]
	ldr	x3, [x0, 16]
	ldr	x0, [sp, 24]
	ldr	x1, [sp, 24]
	mov	w2, 3
	blr	x3
.L75:
	nop
	ldp	x29, x30, [sp], 32
	.cfi_restore 30
	.cfi_restore 29
	.cfi_def_cfa_offset 0
	ret
	.cfi_endproc
.LFE2254:
	.global	__gxx_personality_v0
	.section	.gcc_except_table._ZNSt14_Function_baseD2Ev,"aG",@progbits,_ZNSt14_Function_baseD5Ev,comdat
.LLSDA2254:
	.byte	0xff
	.byte	0xff
	.byte	0x1
	.uleb128 .LLSDACSE2254-.LLSDACSB2254
.LLSDACSB2254:
.LLSDACSE2254:
	.section	.text._ZNSt14_Function_baseD2Ev,"axG",@progbits,_ZNSt14_Function_baseD5Ev,comdat
	.size	_ZNSt14_Function_baseD2Ev, .-_ZNSt14_Function_baseD2Ev
	.weak	_ZNSt14_Function_baseD1Ev
	.set	_ZNSt14_Function_baseD1Ev,_ZNSt14_Function_baseD2Ev
	.section	.text._ZNKSt14_Function_base8_M_emptyEv,"axG",@progbits,_ZNKSt14_Function_base8_M_emptyEv,comdat
	.align	2
	.weak	_ZNKSt14_Function_base8_M_emptyEv
	.type	_ZNKSt14_Function_base8_M_emptyEv, %function
_ZNKSt14_Function_base8_M_emptyEv:
.LFB2256:
	.cfi_startproc
	sub	sp, sp, #16
	.cfi_def_cfa_offset 16
	str	x0, [sp, 8]
	ldr	x0, [sp, 8]
	ldr	x0, [x0, 16]
	cmp	x0, 0
	cset	w0, eq
	and	w0, w0, 255
	add	sp, sp, 16
	.cfi_def_cfa_offset 0
	ret
	.cfi_endproc
.LFE2256:
	.size	_ZNKSt14_Function_base8_M_emptyEv, .-_ZNKSt14_Function_base8_M_emptyEv
	.section	.text._ZSt3minImERKT_S2_S2_,"axG",@progbits,_ZSt3minImERKT_S2_S2_,comdat
	.align	2
	.weak	_ZSt3minImERKT_S2_S2_
	.type	_ZSt3minImERKT_S2_S2_, %function
_ZSt3minImERKT_S2_S2_:
.LFB2347:
	.cfi_startproc
	sub	sp, sp, #16
	.cfi_def_cfa_offset 16
	str	x0, [sp, 8]
	str	x1, [sp]
	ldr	x0, [sp]
	ldr	x1, [x0]
	ldr	x0, [sp, 8]
	ldr	x0, [x0]
	cmp	x1, x0
	bcs	.L79
	ldr	x0, [sp]
	b	.L80
.L79:
	ldr	x0, [sp, 8]
.L80:
	add	sp, sp, 16
	.cfi_def_cfa_offset 0
	ret
	.cfi_endproc
.LFE2347:
	.size	_ZSt3minImERKT_S2_S2_, .-_ZSt3minImERKT_S2_S2_
	.section	.rodata
	.align	3
	.type	_ZN6__pstl9execution2v1L3seqE, %object
	.size	_ZN6__pstl9execution2v1L3seqE, 1
_ZN6__pstl9execution2v1L3seqE:
	.zero	1
	.align	3
	.type	_ZN6__pstl9execution2v1L3parE, %object
	.size	_ZN6__pstl9execution2v1L3parE, 1
_ZN6__pstl9execution2v1L3parE:
	.zero	1
	.align	3
	.type	_ZN6__pstl9execution2v1L9par_unseqE, %object
	.size	_ZN6__pstl9execution2v1L9par_unseqE, 1
_ZN6__pstl9execution2v1L9par_unseqE:
	.zero	1
	.align	3
	.type	_ZN6__pstl9execution2v1L5unseqE, %object
	.size	_ZN6__pstl9execution2v1L5unseqE, 1
_ZN6__pstl9execution2v1L5unseqE:
	.zero	1
	.align	2
	.type	_ZN9__gnu_cxxL21__default_lock_policyE, %object
	.size	_ZN9__gnu_cxxL21__default_lock_policyE, 4
_ZN9__gnu_cxxL21__default_lock_policyE:
	.word	2
	.weak	_ZZNSt19_Sp_make_shared_tag5_S_tiEvE5__tag
	.section	.rodata._ZZNSt19_Sp_make_shared_tag5_S_tiEvE5__tag,"aG",@progbits,_ZZNSt19_Sp_make_shared_tag5_S_tiEvE5__tag,comdat
	.align	3
	.type	_ZZNSt19_Sp_make_shared_tag5_S_tiEvE5__tag, %gnu_unique_object
	.size	_ZZNSt19_Sp_make_shared_tag5_S_tiEvE5__tag, 16
_ZZNSt19_Sp_make_shared_tag5_S_tiEvE5__tag:
	.zero	16
	.section	.text._ZNSt19_Sp_make_shared_tag5_S_tiEv,"axG",@progbits,_ZNSt19_Sp_make_shared_tag5_S_tiEv,comdat
	.align	2
	.weak	_ZNSt19_Sp_make_shared_tag5_S_tiEv
	.type	_ZNSt19_Sp_make_shared_tag5_S_tiEv, %function
_ZNSt19_Sp_make_shared_tag5_S_tiEv:
.LFB3725:
	.cfi_startproc
	adrp	x0, _ZZNSt19_Sp_make_shared_tag5_S_tiEvE5__tag
	add	x0, x0, :lo12:_ZZNSt19_Sp_make_shared_tag5_S_tiEvE5__tag
	ret
	.cfi_endproc
.LFE3725:
	.size	_ZNSt19_Sp_make_shared_tag5_S_tiEv, .-_ZNSt19_Sp_make_shared_tag5_S_tiEv
	.section	.text._ZSt16__deque_buf_sizem,"axG",@progbits,_ZSt16__deque_buf_sizem,comdat
	.align	2
	.weak	_ZSt16__deque_buf_sizem
	.type	_ZSt16__deque_buf_sizem, %function
_ZSt16__deque_buf_sizem:
.LFB4136:
	.cfi_startproc
	sub	sp, sp, #16
	.cfi_def_cfa_offset 16
	str	x0, [sp, 8]
	ldr	x0, [sp, 8]
	cmp	x0, 511
	bhi	.L84
	mov	x1, 512
	ldr	x0, [sp, 8]
	udiv	x0, x1, x0
	b	.L86
.L84:
	mov	x0, 1
.L86:
	add	sp, sp, 16
	.cfi_def_cfa_offset 0
	ret
	.cfi_endproc
.LFE4136:
	.size	_ZSt16__deque_buf_sizem, .-_ZSt16__deque_buf_sizem
	.section	.text._ZNSt15_Rb_tree_headerC2Ev,"axG",@progbits,_ZNSt15_Rb_tree_headerC5Ev,comdat
	.align	2
	.weak	_ZNSt15_Rb_tree_headerC2Ev
	.type	_ZNSt15_Rb_tree_headerC2Ev, %function
_ZNSt15_Rb_tree_headerC2Ev:
.LFB4358:
	.cfi_startproc
	stp	x29, x30, [sp, -32]!
	.cfi_def_cfa_offset 32
	.cfi_offset 29, -32
	.cfi_offset 30, -24
	mov	x29, sp
	str	x0, [sp, 24]
	ldr	x0, [sp, 24]
	str	wzr, [x0]
	ldr	x0, [sp, 24]
	bl	_ZNSt15_Rb_tree_header8_M_resetEv
	nop
	ldp	x29, x30, [sp], 32
	.cfi_restore 30
	.cfi_restore 29
	.cfi_def_cfa_offset 0
	ret
	.cfi_endproc
.LFE4358:
	.size	_ZNSt15_Rb_tree_headerC2Ev, .-_ZNSt15_Rb_tree_headerC2Ev
	.weak	_ZNSt15_Rb_tree_headerC1Ev
	.set	_ZNSt15_Rb_tree_headerC1Ev,_ZNSt15_Rb_tree_headerC2Ev
	.section	.text._ZNSt15_Rb_tree_header8_M_resetEv,"axG",@progbits,_ZNSt15_Rb_tree_header8_M_resetEv,comdat
	.align	2
	.weak	_ZNSt15_Rb_tree_header8_M_resetEv
	.type	_ZNSt15_Rb_tree_header8_M_resetEv, %function
_ZNSt15_Rb_tree_header8_M_resetEv:
.LFB4364:
	.cfi_startproc
	sub	sp, sp, #16
	.cfi_def_cfa_offset 16
	str	x0, [sp, 8]
	ldr	x0, [sp, 8]
	str	xzr, [x0, 8]
	ldr	x1, [sp, 8]
	ldr	x0, [sp, 8]
	str	x1, [x0, 16]
	ldr	x1, [sp, 8]
	ldr	x0, [sp, 8]
	str	x1, [x0, 24]
	ldr	x0, [sp, 8]
	str	xzr, [x0, 32]
	nop
	add	sp, sp, 16
	.cfi_def_cfa_offset 0
	ret
	.cfi_endproc
.LFE4364:
	.size	_ZNSt15_Rb_tree_header8_M_resetEv, .-_ZNSt15_Rb_tree_header8_M_resetEv
	.section	.text._ZNSt15regex_constantsanENS_18syntax_option_typeES0_,"axG",@progbits,_ZNSt15regex_constantsanENS_18syntax_option_typeES0_,comdat
	.align	2
	.weak	_ZNSt15regex_constantsanENS_18syntax_option_typeES0_
	.type	_ZNSt15regex_constantsanENS_18syntax_option_typeES0_, %function
_ZNSt15regex_constantsanENS_18syntax_option_typeES0_:
.LFB4706:
	.cfi_startproc
	sub	sp, sp, #16
	.cfi_def_cfa_offset 16
	str	w0, [sp, 12]
	str	w1, [sp, 8]
	ldr	w1, [sp, 12]
	ldr	w0, [sp, 8]
	and	w0, w1, w0
	add	sp, sp, 16
	.cfi_def_cfa_offset 0
	ret
	.cfi_endproc
.LFE4706:
	.size	_ZNSt15regex_constantsanENS_18syntax_option_typeES0_, .-_ZNSt15regex_constantsanENS_18syntax_option_typeES0_
	.section	.text._ZNSt15regex_constantsorENS_18syntax_option_typeES0_,"axG",@progbits,_ZNSt15regex_constantsorENS_18syntax_option_typeES0_,comdat
	.align	2
	.weak	_ZNSt15regex_constantsorENS_18syntax_option_typeES0_
	.type	_ZNSt15regex_constantsorENS_18syntax_option_typeES0_, %function
_ZNSt15regex_constantsorENS_18syntax_option_typeES0_:
.LFB4707:
	.cfi_startproc
	sub	sp, sp, #16
	.cfi_def_cfa_offset 16
	str	w0, [sp, 12]
	str	w1, [sp, 8]
	ldr	w1, [sp, 12]
	ldr	w0, [sp, 8]
	orr	w0, w1, w0
	add	sp, sp, 16
	.cfi_def_cfa_offset 0
	ret
	.cfi_endproc
.LFE4707:
	.size	_ZNSt15regex_constantsorENS_18syntax_option_typeES0_, .-_ZNSt15regex_constantsorENS_18syntax_option_typeES0_
	.section	.text._ZNSt15regex_constantsanENS_15match_flag_typeES0_,"axG",@progbits,_ZNSt15regex_constantsanENS_15match_flag_typeES0_,comdat
	.align	2
	.weak	_ZNSt15regex_constantsanENS_15match_flag_typeES0_
	.type	_ZNSt15regex_constantsanENS_15match_flag_typeES0_, %function
_ZNSt15regex_constantsanENS_15match_flag_typeES0_:
.LFB4713:
	.cfi_startproc
	sub	sp, sp, #16
	.cfi_def_cfa_offset 16
	str	w0, [sp, 12]
	str	w1, [sp, 8]
	ldr	w1, [sp, 12]
	ldr	w0, [sp, 8]
	and	w0, w1, w0
	add	sp, sp, 16
	.cfi_def_cfa_offset 0
	ret
	.cfi_endproc
.LFE4713:
	.size	_ZNSt15regex_constantsanENS_15match_flag_typeES0_, .-_ZNSt15regex_constantsanENS_15match_flag_typeES0_
	.section	.text._ZNSt15regex_constantsorENS_15match_flag_typeES0_,"axG",@progbits,_ZNSt15regex_constantsorENS_15match_flag_typeES0_,comdat
	.align	2
	.weak	_ZNSt15regex_constantsorENS_15match_flag_typeES0_
	.type	_ZNSt15regex_constantsorENS_15match_flag_typeES0_, %function
_ZNSt15regex_constantsorENS_15match_flag_typeES0_:
.LFB4714:
	.cfi_startproc
	sub	sp, sp, #16
	.cfi_def_cfa_offset 16
	str	w0, [sp, 12]
	str	w1, [sp, 8]
	ldr	w1, [sp, 12]
	ldr	w0, [sp, 8]
	orr	w0, w1, w0
	add	sp, sp, 16
	.cfi_def_cfa_offset 0
	ret
	.cfi_endproc
.LFE4714:
	.size	_ZNSt15regex_constantsorENS_15match_flag_typeES0_, .-_ZNSt15regex_constantsorENS_15match_flag_typeES0_
	.section	.text._ZNSt15regex_constantscoENS_15match_flag_typeE,"axG",@progbits,_ZNSt15regex_constantscoENS_15match_flag_typeE,comdat
	.align	2
	.weak	_ZNSt15regex_constantscoENS_15match_flag_typeE
	.type	_ZNSt15regex_constantscoENS_15match_flag_typeE, %function
_ZNSt15regex_constantscoENS_15match_flag_typeE:
.LFB4716:
	.cfi_startproc
	sub	sp, sp, #16
	.cfi_def_cfa_offset 16
	str	w0, [sp, 12]
	ldr	w0, [sp, 12]
	mvn	w0, w0
	add	sp, sp, 16
	.cfi_def_cfa_offset 0
	ret
	.cfi_endproc
.LFE4716:
	.size	_ZNSt15regex_constantscoENS_15match_flag_typeE, .-_ZNSt15regex_constantscoENS_15match_flag_typeE
	.section	.text._ZNSt15regex_constantsoRERNS_15match_flag_typeES0_,"axG",@progbits,_ZNSt15regex_constantsoRERNS_15match_flag_typeES0_,comdat
	.align	2
	.weak	_ZNSt15regex_constantsoRERNS_15match_flag_typeES0_
	.type	_ZNSt15regex_constantsoRERNS_15match_flag_typeES0_, %function
_ZNSt15regex_constantsoRERNS_15match_flag_typeES0_:
.LFB4718:
	.cfi_startproc
	stp	x29, x30, [sp, -32]!
	.cfi_def_cfa_offset 32
	.cfi_offset 29, -32
	.cfi_offset 30, -24
	mov	x29, sp
	str	x0, [sp, 24]
	str	w1, [sp, 20]
	ldr	x0, [sp, 24]
	ldr	w0, [x0]
	ldr	w1, [sp, 20]
	bl	_ZNSt15regex_constantsorENS_15match_flag_typeES0_
	mov	w1, w0
	ldr	x0, [sp, 24]
	str	w1, [x0]
	ldr	x0, [sp, 24]
	ldp	x29, x30, [sp], 32
	.cfi_restore 30
	.cfi_restore 29
	.cfi_def_cfa_offset 0
	ret
	.cfi_endproc
.LFE4718:
	.size	_ZNSt15regex_constantsoRERNS_15match_flag_typeES0_, .-_ZNSt15regex_constantsoRERNS_15match_flag_typeES0_
	.section	.rodata
	.align	2
	.type	_ZNSt15regex_constantsL13error_collateE, %object
	.size	_ZNSt15regex_constantsL13error_collateE, 4
_ZNSt15regex_constantsL13error_collateE:
	.zero	4
	.align	2
	.type	_ZNSt15regex_constantsL11error_ctypeE, %object
	.size	_ZNSt15regex_constantsL11error_ctypeE, 4
_ZNSt15regex_constantsL11error_ctypeE:
	.word	1
	.align	2
	.type	_ZNSt15regex_constantsL12error_escapeE, %object
	.size	_ZNSt15regex_constantsL12error_escapeE, 4
_ZNSt15regex_constantsL12error_escapeE:
	.word	2
	.align	2
	.type	_ZNSt15regex_constantsL13error_backrefE, %object
	.size	_ZNSt15regex_constantsL13error_backrefE, 4
_ZNSt15regex_constantsL13error_backrefE:
	.word	3
	.align	2
	.type	_ZNSt15regex_constantsL11error_brackE, %object
	.size	_ZNSt15regex_constantsL11error_brackE, 4
_ZNSt15regex_constantsL11error_brackE:
	.word	4
	.align	2
	.type	_ZNSt15regex_constantsL11error_parenE, %object
	.size	_ZNSt15regex_constantsL11error_parenE, 4
_ZNSt15regex_constantsL11error_parenE:
	.word	5
	.align	2
	.type	_ZNSt15regex_constantsL11error_braceE, %object
	.size	_ZNSt15regex_constantsL11error_braceE, 4
_ZNSt15regex_constantsL11error_braceE:
	.word	6
	.align	2
	.type	_ZNSt15regex_constantsL14error_badbraceE, %object
	.size	_ZNSt15regex_constantsL14error_badbraceE, 4
_ZNSt15regex_constantsL14error_badbraceE:
	.word	7
	.align	2
	.type	_ZNSt15regex_constantsL11error_rangeE, %object
	.size	_ZNSt15regex_constantsL11error_rangeE, 4
_ZNSt15regex_constantsL11error_rangeE:
	.word	8
	.align	2
	.type	_ZNSt15regex_constantsL11error_spaceE, %object
	.size	_ZNSt15regex_constantsL11error_spaceE, 4
_ZNSt15regex_constantsL11error_spaceE:
	.word	9
	.align	2
	.type	_ZNSt15regex_constantsL15error_badrepeatE, %object
	.size	_ZNSt15regex_constantsL15error_badrepeatE, 4
_ZNSt15regex_constantsL15error_badrepeatE:
	.word	10
	.align	2
	.type	_ZNSt15regex_constantsL16error_complexityE, %object
	.size	_ZNSt15regex_constantsL16error_complexityE, 4
_ZNSt15regex_constantsL16error_complexityE:
	.word	11
	.align	2
	.type	_ZNSt15regex_constantsL11error_stackE, %object
	.size	_ZNSt15regex_constantsL11error_stackE, 4
_ZNSt15regex_constantsL11error_stackE:
	.word	12
	.section	.text._ZNSt11regex_errorC2ENSt15regex_constants10error_typeEPKc,"axG",@progbits,_ZNSt11regex_errorC5ENSt15regex_constants10error_typeEPKc,comdat
	.align	2
	.weak	_ZNSt11regex_errorC2ENSt15regex_constants10error_typeEPKc
	.type	_ZNSt11regex_errorC2ENSt15regex_constants10error_typeEPKc, %function
_ZNSt11regex_errorC2ENSt15regex_constants10error_typeEPKc:
.LFB4722:
	.cfi_startproc
	stp	x29, x30, [sp, -48]!
	.cfi_def_cfa_offset 48
	.cfi_offset 29, -48
	.cfi_offset 30, -40
	mov	x29, sp
	str	x0, [sp, 40]
	str	w1, [sp, 36]
	str	x2, [sp, 24]
	ldr	x0, [sp, 40]
	ldr	x1, [sp, 24]
	bl	_ZNSt13runtime_errorC2EPKc
	adrp	x0, :got:_ZTVSt11regex_error
	ldr	x0, [x0, #:got_lo12:_ZTVSt11regex_error]
	add	x1, x0, 16
	ldr	x0, [sp, 40]
	str	x1, [x0]
	ldr	x0, [sp, 40]
	ldr	w1, [sp, 36]
	str	w1, [x0, 16]
	nop
	ldp	x29, x30, [sp], 48
	.cfi_restore 30
	.cfi_restore 29
	.cfi_def_cfa_offset 0
	ret
	.cfi_endproc
.LFE4722:
	.size	_ZNSt11regex_errorC2ENSt15regex_constants10error_typeEPKc, .-_ZNSt11regex_errorC2ENSt15regex_constants10error_typeEPKc
	.weak	_ZNSt11regex_errorC1ENSt15regex_constants10error_typeEPKc
	.set	_ZNSt11regex_errorC1ENSt15regex_constants10error_typeEPKc,_ZNSt11regex_errorC2ENSt15regex_constants10error_typeEPKc
	.section	.text._ZSt19__throw_regex_errorNSt15regex_constants10error_typeEPKc,"axG",@progbits,_ZSt19__throw_regex_errorNSt15regex_constants10error_typeEPKc,comdat
	.align	2
	.weak	_ZSt19__throw_regex_errorNSt15regex_constants10error_typeEPKc
	.type	_ZSt19__throw_regex_errorNSt15regex_constants10error_typeEPKc, %function
_ZSt19__throw_regex_errorNSt15regex_constants10error_typeEPKc:
.LFB4724:
	.cfi_startproc
	.cfi_personality 0x9b,DW.ref.__gxx_personality_v0
	.cfi_lsda 0x1b,.LLSDA4724
	stp	x29, x30, [sp, -48]!
	.cfi_def_cfa_offset 48
	.cfi_offset 29, -48
	.cfi_offset 30, -40
	mov	x29, sp
	stp	x19, x20, [sp, 16]
	.cfi_offset 19, -32
	.cfi_offset 20, -24
	str	w0, [sp, 44]
	str	x1, [sp, 32]
	mov	x0, 24
	bl	__cxa_allocate_exception
	mov	x19, x0
	ldr	x2, [sp, 32]
	ldr	w1, [sp, 44]
	mov	x0, x19
.LEHB0:
	bl	_ZNSt11regex_errorC1ENSt15regex_constants10error_typeEPKc
.LEHE0:
	adrp	x0, :got:_ZNSt11regex_errorD1Ev
	ldr	x2, [x0, #:got_lo12:_ZNSt11regex_errorD1Ev]
	adrp	x0, :got:_ZTISt11regex_error
	ldr	x1, [x0, #:got_lo12:_ZTISt11regex_error]
	mov	x0, x19
.LEHB1:
	bl	__cxa_throw
.L104:
	mov	x20, x0
	mov	x0, x19
	bl	__cxa_free_exception
	mov	x0, x20
	bl	_Unwind_Resume
.LEHE1:
	.cfi_endproc
.LFE4724:
	.section	.gcc_except_table._ZSt19__throw_regex_errorNSt15regex_constants10error_typeEPKc,"aG",@progbits,_ZSt19__throw_regex_errorNSt15regex_constants10error_typeEPKc,comdat
.LLSDA4724:
	.byte	0xff
	.byte	0xff
	.byte	0x1
	.uleb128 .LLSDACSE4724-.LLSDACSB4724
.LLSDACSB4724:
	.uleb128 .LEHB0-.LFB4724
	.uleb128 .LEHE0-.LEHB0
	.uleb128 .L104-.LFB4724
	.uleb128 0
	.uleb128 .LEHB1-.LFB4724
	.uleb128 .LEHE1-.LEHB1
	.uleb128 0
	.uleb128 0
.LLSDACSE4724:
	.section	.text._ZSt19__throw_regex_errorNSt15regex_constants10error_typeEPKc,"axG",@progbits,_ZSt19__throw_regex_errorNSt15regex_constants10error_typeEPKc,comdat
	.size	_ZSt19__throw_regex_errorNSt15regex_constants10error_typeEPKc, .-_ZSt19__throw_regex_errorNSt15regex_constants10error_typeEPKc
	.section	.rodata
	.align	3
	.type	_ZNSt8__detailL19_S_invalid_state_idE, %object
	.size	_ZNSt8__detailL19_S_invalid_state_idE, 8
_ZNSt8__detailL19_S_invalid_state_idE:
	.xword	-1
	.section	.text._ZNSt8__detail11_State_baseC2ENS_7_OpcodeE,"axG",@progbits,_ZNSt8__detail11_State_baseC5ENS_7_OpcodeE,comdat
	.align	2
	.weak	_ZNSt8__detail11_State_baseC2ENS_7_OpcodeE
	.type	_ZNSt8__detail11_State_baseC2ENS_7_OpcodeE, %function
_ZNSt8__detail11_State_baseC2ENS_7_OpcodeE:
.LFB4726:
	.cfi_startproc
	sub	sp, sp, #16
	.cfi_def_cfa_offset 16
	str	x0, [sp, 8]
	str	w1, [sp, 4]
	ldr	x0, [sp, 8]
	ldr	w1, [sp, 4]
	str	w1, [x0]
	ldr	x0, [sp, 8]
	mov	x1, -1
	str	x1, [x0, 8]
	nop
	add	sp, sp, 16
	.cfi_def_cfa_offset 0
	ret
	.cfi_endproc
.LFE4726:
	.size	_ZNSt8__detail11_State_baseC2ENS_7_OpcodeE, .-_ZNSt8__detail11_State_baseC2ENS_7_OpcodeE
	.weak	_ZNSt8__detail11_State_baseC1ENS_7_OpcodeE
	.set	_ZNSt8__detail11_State_baseC1ENS_7_OpcodeE,_ZNSt8__detail11_State_baseC2ENS_7_OpcodeE
	.section	.text._ZNSt8__detail11_State_base10_M_has_altEv,"axG",@progbits,_ZNSt8__detail11_State_base10_M_has_altEv,comdat
	.align	2
	.weak	_ZNSt8__detail11_State_base10_M_has_altEv
	.type	_ZNSt8__detail11_State_base10_M_has_altEv, %function
_ZNSt8__detail11_State_base10_M_has_altEv:
.LFB4728:
	.cfi_startproc
	sub	sp, sp, #16
	.cfi_def_cfa_offset 16
	str	x0, [sp, 8]
	ldr	x0, [sp, 8]
	ldr	w0, [x0]
	cmp	w0, 1
	beq	.L107
	ldr	x0, [sp, 8]
	ldr	w0, [x0]
	cmp	w0, 2
	beq	.L107
	ldr	x0, [sp, 8]
	ldr	w0, [x0]
	cmp	w0, 7
	bne	.L108
.L107:
	mov	w0, 1
	b	.L109
.L108:
	mov	w0, 0
.L109:
	add	sp, sp, 16
	.cfi_def_cfa_offset 0
	ret
	.cfi_endproc
.LFE4728:
	.size	_ZNSt8__detail11_State_base10_M_has_altEv, .-_ZNSt8__detail11_State_base10_M_has_altEv
	.section	.text._ZNSt12_Vector_baseImSaImEE12_Vector_implD2Ev,"axG",@progbits,_ZNSt12_Vector_baseImSaImEE12_Vector_implD5Ev,comdat
	.align	2
	.weak	_ZNSt12_Vector_baseImSaImEE12_Vector_implD2Ev
	.type	_ZNSt12_Vector_baseImSaImEE12_Vector_implD2Ev, %function
_ZNSt12_Vector_baseImSaImEE12_Vector_implD2Ev:
.LFB4742:
	.cfi_startproc
	stp	x29, x30, [sp, -32]!
	.cfi_def_cfa_offset 32
	.cfi_offset 29, -32
	.cfi_offset 30, -24
	mov	x29, sp
	str	x0, [sp, 24]
	ldr	x0, [sp, 24]
	bl	_ZNSaImED2Ev
	nop
	ldp	x29, x30, [sp], 32
	.cfi_restore 30
	.cfi_restore 29
	.cfi_def_cfa_offset 0
	ret
	.cfi_endproc
.LFE4742:
	.size	_ZNSt12_Vector_baseImSaImEE12_Vector_implD2Ev, .-_ZNSt12_Vector_baseImSaImEE12_Vector_implD2Ev
	.weak	_ZNSt12_Vector_baseImSaImEE12_Vector_implD1Ev
	.set	_ZNSt12_Vector_baseImSaImEE12_Vector_implD1Ev,_ZNSt12_Vector_baseImSaImEE12_Vector_implD2Ev
	.section	.text._ZNSt12_Vector_baseImSaImEEC2Ev,"axG",@progbits,_ZNSt12_Vector_baseImSaImEEC5Ev,comdat
	.align	2
	.weak	_ZNSt12_Vector_baseImSaImEEC2Ev
	.type	_ZNSt12_Vector_baseImSaImEEC2Ev, %function
_ZNSt12_Vector_baseImSaImEEC2Ev:
.LFB4744:
	.cfi_startproc
	stp	x29, x30, [sp, -32]!
	.cfi_def_cfa_offset 32
	.cfi_offset 29, -32
	.cfi_offset 30, -24
	mov	x29, sp
	str	x0, [sp, 24]
	ldr	x0, [sp, 24]
	bl	_ZNSt12_Vector_baseImSaImEE12_Vector_implC1Ev
	nop
	ldp	x29, x30, [sp], 32
	.cfi_restore 30
	.cfi_restore 29
	.cfi_def_cfa_offset 0
	ret
	.cfi_endproc
.LFE4744:
	.size	_ZNSt12_Vector_baseImSaImEEC2Ev, .-_ZNSt12_Vector_baseImSaImEEC2Ev
	.weak	_ZNSt12_Vector_baseImSaImEEC1Ev
	.set	_ZNSt12_Vector_baseImSaImEEC1Ev,_ZNSt12_Vector_baseImSaImEEC2Ev
	.section	.text._ZNSt6vectorImSaImEEC2Ev,"axG",@progbits,_ZNSt6vectorImSaImEEC5Ev,comdat
	.align	2
	.weak	_ZNSt6vectorImSaImEEC2Ev
	.type	_ZNSt6vectorImSaImEEC2Ev, %function
_ZNSt6vectorImSaImEEC2Ev:
.LFB4746:
	.cfi_startproc
	stp	x29, x30, [sp, -32]!
	.cfi_def_cfa_offset 32
	.cfi_offset 29, -32
	.cfi_offset 30, -24
	mov	x29, sp
	str	x0, [sp, 24]
	ldr	x0, [sp, 24]
	bl	_ZNSt12_Vector_baseImSaImEEC2Ev
	nop
	ldp	x29, x30, [sp], 32
	.cfi_restore 30
	.cfi_restore 29
	.cfi_def_cfa_offset 0
	ret
	.cfi_endproc
.LFE4746:
	.size	_ZNSt6vectorImSaImEEC2Ev, .-_ZNSt6vectorImSaImEEC2Ev
	.weak	_ZNSt6vectorImSaImEEC1Ev
	.set	_ZNSt6vectorImSaImEEC1Ev,_ZNSt6vectorImSaImEEC2Ev
	.section	.text._ZNSt8__detail9_NFA_baseC2ENSt15regex_constants18syntax_option_typeE,"axG",@progbits,_ZNSt8__detail9_NFA_baseC5ENSt15regex_constants18syntax_option_typeE,comdat
	.align	2
	.weak	_ZNSt8__detail9_NFA_baseC2ENSt15regex_constants18syntax_option_typeE
	.type	_ZNSt8__detail9_NFA_baseC2ENSt15regex_constants18syntax_option_typeE, %function
_ZNSt8__detail9_NFA_baseC2ENSt15regex_constants18syntax_option_typeE:
.LFB4748:
	.cfi_startproc
	stp	x29, x30, [sp, -32]!
	.cfi_def_cfa_offset 32
	.cfi_offset 29, -32
	.cfi_offset 30, -24
	mov	x29, sp
	str	x0, [sp, 24]
	str	w1, [sp, 20]
	ldr	x0, [sp, 24]
	bl	_ZNSt6vectorImSaImEEC1Ev
	ldr	x0, [sp, 24]
	ldr	w1, [sp, 20]
	str	w1, [x0, 24]
	ldr	x0, [sp, 24]
	str	xzr, [x0, 32]
	ldr	x0, [sp, 24]
	str	xzr, [x0, 40]
	ldr	x0, [sp, 24]
	strb	wzr, [x0, 48]
	nop
	ldp	x29, x30, [sp], 32
	.cfi_restore 30
	.cfi_restore 29
	.cfi_def_cfa_offset 0
	ret
	.cfi_endproc
.LFE4748:
	.size	_ZNSt8__detail9_NFA_baseC2ENSt15regex_constants18syntax_option_typeE, .-_ZNSt8__detail9_NFA_baseC2ENSt15regex_constants18syntax_option_typeE
	.weak	_ZNSt8__detail9_NFA_baseC1ENSt15regex_constants18syntax_option_typeE
	.set	_ZNSt8__detail9_NFA_baseC1ENSt15regex_constants18syntax_option_typeE,_ZNSt8__detail9_NFA_baseC2ENSt15regex_constants18syntax_option_typeE
	.section	.text._ZNKSt8__detail9_NFA_base8_M_startEv,"axG",@progbits,_ZNKSt8__detail9_NFA_base8_M_startEv,comdat
	.align	2
	.weak	_ZNKSt8__detail9_NFA_base8_M_startEv
	.type	_ZNKSt8__detail9_NFA_base8_M_startEv, %function
_ZNKSt8__detail9_NFA_base8_M_startEv:
.LFB4751:
	.cfi_startproc
	sub	sp, sp, #16
	.cfi_def_cfa_offset 16
	str	x0, [sp, 8]
	ldr	x0, [sp, 8]
	ldr	x0, [x0, 32]
	add	sp, sp, 16
	.cfi_def_cfa_offset 0
	ret
	.cfi_endproc
.LFE4751:
	.size	_ZNKSt8__detail9_NFA_base8_M_startEv, .-_ZNKSt8__detail9_NFA_base8_M_startEv
	.section	.text._ZNKSt8__detail9_NFA_base12_M_sub_countEv,"axG",@progbits,_ZNKSt8__detail9_NFA_base12_M_sub_countEv,comdat
	.align	2
	.weak	_ZNKSt8__detail9_NFA_base12_M_sub_countEv
	.type	_ZNKSt8__detail9_NFA_base12_M_sub_countEv, %function
_ZNKSt8__detail9_NFA_base12_M_sub_countEv:
.LFB4752:
	.cfi_startproc
	sub	sp, sp, #16
	.cfi_def_cfa_offset 16
	str	x0, [sp, 8]
	ldr	x0, [sp, 8]
	ldr	x0, [x0, 40]
	add	sp, sp, 16
	.cfi_def_cfa_offset 0
	ret
	.cfi_endproc
.LFE4752:
	.size	_ZNKSt8__detail9_NFA_base12_M_sub_countEv, .-_ZNKSt8__detail9_NFA_base12_M_sub_countEv
	.section	.text._ZSt7forwardIcEOT_RNSt16remove_referenceIS0_E4typeE,"axG",@progbits,_ZSt7forwardIcEOT_RNSt16remove_referenceIS0_E4typeE,comdat
	.align	2
	.weak	_ZSt7forwardIcEOT_RNSt16remove_referenceIS0_E4typeE
	.type	_ZSt7forwardIcEOT_RNSt16remove_referenceIS0_E4typeE, %function
_ZSt7forwardIcEOT_RNSt16remove_referenceIS0_E4typeE:
.LFB4786:
	.cfi_startproc
	sub	sp, sp, #16
	.cfi_def_cfa_offset 16
	str	x0, [sp, 8]
	ldr	x0, [sp, 8]
	add	sp, sp, 16
	.cfi_def_cfa_offset 0
	ret
	.cfi_endproc
.LFE4786:
	.size	_ZSt7forwardIcEOT_RNSt16remove_referenceIS0_E4typeE, .-_ZSt7forwardIcEOT_RNSt16remove_referenceIS0_E4typeE
	.section	.text._ZNSt4pairIccEC1IccLb1EEEOT_OT0_,"axG",@progbits,_ZNSt4pairIccEC1IccLb1EEEOT_OT0_,comdat
	.align	2
	.weak	_ZNSt4pairIccEC1IccLb1EEEOT_OT0_
	.type	_ZNSt4pairIccEC1IccLb1EEEOT_OT0_, %function
_ZNSt4pairIccEC1IccLb1EEEOT_OT0_:
.LFB4798:
	.cfi_startproc
	stp	x29, x30, [sp, -48]!
	.cfi_def_cfa_offset 48
	.cfi_offset 29, -48
	.cfi_offset 30, -40
	mov	x29, sp
	str	x0, [sp, 40]
	str	x1, [sp, 32]
	str	x2, [sp, 24]
	ldr	x0, [sp, 32]
	bl	_ZSt7forwardIcEOT_RNSt16remove_referenceIS0_E4typeE
	ldrb	w1, [x0]
	ldr	x0, [sp, 40]
	strb	w1, [x0]
	ldr	x0, [sp, 24]
	bl	_ZSt7forwardIcEOT_RNSt16remove_referenceIS0_E4typeE
	ldrb	w1, [x0]
	ldr	x0, [sp, 40]
	strb	w1, [x0, 1]
	nop
	ldp	x29, x30, [sp], 48
	.cfi_restore 30
	.cfi_restore 29
	.cfi_def_cfa_offset 0
	ret
	.cfi_endproc
.LFE4798:
	.size	_ZNSt4pairIccEC1IccLb1EEEOT_OT0_, .-_ZNSt4pairIccEC1IccLb1EEEOT_OT0_
	.section	.rodata
	.align	3
.LC0:
	.string	"^$\\.*+?()[]{}|"
	.align	3
.LC1:
	.string	".[\\*^$"
	.align	3
.LC2:
	.string	".[\\()*+?{|^$"
	.align	3
.LC3:
	.string	".[\\()*+?{|^$\n"
	.align	3
.LC4:
	.string	".[\\*^$\n"
	.section	.text._ZNSt8__detail12_ScannerBaseC2ENSt15regex_constants18syntax_option_typeE,"axG",@progbits,_ZNSt8__detail12_ScannerBaseC5ENSt15regex_constants18syntax_option_typeE,comdat
	.align	2
	.weak	_ZNSt8__detail12_ScannerBaseC2ENSt15regex_constants18syntax_option_typeE
	.type	_ZNSt8__detail12_ScannerBaseC2ENSt15regex_constants18syntax_option_typeE, %function
_ZNSt8__detail12_ScannerBaseC2ENSt15regex_constants18syntax_option_typeE:
.LFB4800:
	.cfi_startproc
	stp	x29, x30, [sp, -32]!
	.cfi_def_cfa_offset 32
	.cfi_offset 29, -32
	.cfi_offset 30, -24
	mov	x29, sp
	str	x0, [sp, 24]
	str	w1, [sp, 20]
	ldr	x0, [sp, 24]
	movi	v0.4s, 0
	stp	q0, q0, [x0]
	stp	q0, q0, [x0, 32]
	fmov	x1, d0
	str	x1, [x0, 64]
	ldr	x0, [sp, 24]
	mov	w1, 94
	strb	w1, [x0]
	ldr	x0, [sp, 24]
	mov	w1, 22
	str	w1, [x0, 4]
	ldr	x0, [sp, 24]
	mov	w1, 36
	strb	w1, [x0, 8]
	ldr	x0, [sp, 24]
	mov	w1, 23
	str	w1, [x0, 12]
	ldr	x0, [sp, 24]
	mov	w1, 46
	strb	w1, [x0, 16]
	ldr	x0, [sp, 24]
	mov	w1, 42
	strb	w1, [x0, 24]
	ldr	x0, [sp, 24]
	mov	w1, 20
	str	w1, [x0, 28]
	ldr	x0, [sp, 24]
	mov	w1, 43
	strb	w1, [x0, 32]
	ldr	x0, [sp, 24]
	mov	w1, 21
	str	w1, [x0, 36]
	ldr	x0, [sp, 24]
	mov	w1, 63
	strb	w1, [x0, 40]
	ldr	x0, [sp, 24]
	mov	w1, 18
	str	w1, [x0, 44]
	ldr	x0, [sp, 24]
	mov	w1, 124
	strb	w1, [x0, 48]
	ldr	x0, [sp, 24]
	mov	w1, 19
	str	w1, [x0, 52]
	ldr	x0, [sp, 24]
	mov	w1, 10
	strb	w1, [x0, 56]
	ldr	x0, [sp, 24]
	mov	w1, 19
	str	w1, [x0, 60]
	ldr	x0, [sp, 24]
	mov	w1, 19
	str	w1, [x0, 68]
	ldr	x0, [sp, 24]
	stp	xzr, xzr, [x0, 72]
	ldr	x0, [sp, 24]
	mov	w1, 48
	strb	w1, [x0, 72]
	ldr	x0, [sp, 24]
	mov	w1, 98
	strb	w1, [x0, 74]
	ldr	x0, [sp, 24]
	mov	w1, 8
	strb	w1, [x0, 75]
	ldr	x0, [sp, 24]
	mov	w1, 102
	strb	w1, [x0, 76]
	ldr	x0, [sp, 24]
	mov	w1, 12
	strb	w1, [x0, 77]
	ldr	x0, [sp, 24]
	mov	w1, 110
	strb	w1, [x0, 78]
	ldr	x0, [sp, 24]
	mov	w1, 10
	strb	w1, [x0, 79]
	ldr	x0, [sp, 24]
	mov	w1, 114
	strb	w1, [x0, 80]
	ldr	x0, [sp, 24]
	mov	w1, 13
	strb	w1, [x0, 81]
	ldr	x0, [sp, 24]
	mov	w1, 116
	strb	w1, [x0, 82]
	ldr	x0, [sp, 24]
	mov	w1, 9
	strb	w1, [x0, 83]
	ldr	x0, [sp, 24]
	mov	w1, 118
	strb	w1, [x0, 84]
	ldr	x0, [sp, 24]
	mov	w1, 11
	strb	w1, [x0, 85]
	ldr	x0, [sp, 24]
	add	x0, x0, 88
	stp	xzr, xzr, [x0]
	str	wzr, [x0, 16]
	strh	wzr, [x0, 20]
	ldr	x0, [sp, 24]
	mov	w1, 34
	strb	w1, [x0, 88]
	ldr	x0, [sp, 24]
	mov	w1, 34
	strb	w1, [x0, 89]
	ldr	x0, [sp, 24]
	mov	w1, 47
	strb	w1, [x0, 90]
	ldr	x0, [sp, 24]
	mov	w1, 47
	strb	w1, [x0, 91]
	ldr	x0, [sp, 24]
	mov	w1, 92
	strb	w1, [x0, 92]
	ldr	x0, [sp, 24]
	mov	w1, 92
	strb	w1, [x0, 93]
	ldr	x0, [sp, 24]
	mov	w1, 97
	strb	w1, [x0, 94]
	ldr	x0, [sp, 24]
	mov	w1, 7
	strb	w1, [x0, 95]
	ldr	x0, [sp, 24]
	mov	w1, 98
	strb	w1, [x0, 96]
	ldr	x0, [sp, 24]
	mov	w1, 8
	strb	w1, [x0, 97]
	ldr	x0, [sp, 24]
	mov	w1, 102
	strb	w1, [x0, 98]
	ldr	x0, [sp, 24]
	mov	w1, 12
	strb	w1, [x0, 99]
	ldr	x0, [sp, 24]
	mov	w1, 110
	strb	w1, [x0, 100]
	ldr	x0, [sp, 24]
	mov	w1, 10
	strb	w1, [x0, 101]
	ldr	x0, [sp, 24]
	mov	w1, 114
	strb	w1, [x0, 102]
	ldr	x0, [sp, 24]
	mov	w1, 13
	strb	w1, [x0, 103]
	ldr	x0, [sp, 24]
	mov	w1, 116
	strb	w1, [x0, 104]
	ldr	x0, [sp, 24]
	mov	w1, 9
	strb	w1, [x0, 105]
	ldr	x0, [sp, 24]
	mov	w1, 118
	strb	w1, [x0, 106]
	ldr	x0, [sp, 24]
	mov	w1, 11
	strb	w1, [x0, 107]
	ldr	x0, [sp, 24]
	adrp	x1, .LC0
	add	x1, x1, :lo12:.LC0
	str	x1, [x0, 112]
	ldr	x0, [sp, 24]
	adrp	x1, .LC1
	add	x1, x1, :lo12:.LC1
	str	x1, [x0, 120]
	ldr	x0, [sp, 24]
	adrp	x1, .LC2
	add	x1, x1, :lo12:.LC2
	str	x1, [x0, 128]
	ldr	x0, [sp, 24]
	str	wzr, [x0, 136]
	ldr	x0, [sp, 24]
	ldr	w1, [sp, 20]
	str	w1, [x0, 140]
	ldr	x0, [sp, 24]
	bl	_ZNKSt8__detail12_ScannerBase10_M_is_ecmaEv
	and	w0, w0, 255
	cmp	w0, 0
	beq	.L123
	ldr	x0, [sp, 24]
	add	x0, x0, 72
	b	.L124
.L123:
	ldr	x0, [sp, 24]
	add	x0, x0, 88
.L124:
	ldr	x1, [sp, 24]
	str	x0, [x1, 152]
	ldr	x0, [sp, 24]
	bl	_ZNKSt8__detail12_ScannerBase10_M_is_ecmaEv
	and	w0, w0, 255
	cmp	w0, 0
	beq	.L125
	ldr	x0, [sp, 24]
	ldr	x0, [x0, 112]
	b	.L126
.L125:
	ldr	x0, [sp, 24]
	ldr	w0, [x0, 140]
	mov	w1, 32
	bl	_ZNSt15regex_constantsanENS_18syntax_option_typeES0_
	cmp	w0, 0
	beq	.L127
	ldr	x0, [sp, 24]
	ldr	x0, [x0, 120]
	b	.L126
.L127:
	ldr	x0, [sp, 24]
	ldr	w0, [x0, 140]
	mov	w1, 64
	bl	_ZNSt15regex_constantsanENS_18syntax_option_typeES0_
	cmp	w0, 0
	beq	.L129
	ldr	x0, [sp, 24]
	ldr	x0, [x0, 128]
	b	.L126
.L129:
	ldr	x0, [sp, 24]
	ldr	w0, [x0, 140]
	mov	w1, 256
	bl	_ZNSt15regex_constantsanENS_18syntax_option_typeES0_
	cmp	w0, 0
	bne	.L131
	ldr	x0, [sp, 24]
	ldr	w0, [x0, 140]
	mov	w1, 512
	bl	_ZNSt15regex_constantsanENS_18syntax_option_typeES0_
	cmp	w0, 0
	bne	.L132
	ldr	x0, [sp, 24]
	ldr	w0, [x0, 140]
	mov	w1, 128
	bl	_ZNSt15regex_constantsanENS_18syntax_option_typeES0_
	cmp	w0, 0
	beq	.L133
	ldr	x0, [sp, 24]
	ldr	x0, [x0, 128]
	b	.L126
.L133:
	mov	x0, 0
	b	.L126
.L132:
	adrp	x0, .LC3
	add	x0, x0, :lo12:.LC3
	b	.L126
.L131:
	adrp	x0, .LC4
	add	x0, x0, :lo12:.LC4
.L126:
	ldr	x1, [sp, 24]
	str	x0, [x1, 160]
	ldr	x0, [sp, 24]
	strb	wzr, [x0, 168]
	nop
	ldp	x29, x30, [sp], 32
	.cfi_restore 30
	.cfi_restore 29
	.cfi_def_cfa_offset 0
	ret
	.cfi_endproc
.LFE4800:
	.size	_ZNSt8__detail12_ScannerBaseC2ENSt15regex_constants18syntax_option_typeE, .-_ZNSt8__detail12_ScannerBaseC2ENSt15regex_constants18syntax_option_typeE
	.weak	_ZNSt8__detail12_ScannerBaseC1ENSt15regex_constants18syntax_option_typeE
	.set	_ZNSt8__detail12_ScannerBaseC1ENSt15regex_constants18syntax_option_typeE,_ZNSt8__detail12_ScannerBaseC2ENSt15regex_constants18syntax_option_typeE
	.section	.text._ZNSt8__detail12_ScannerBase14_M_find_escapeEc,"axG",@progbits,_ZNSt8__detail12_ScannerBase14_M_find_escapeEc,comdat
	.align	2
	.weak	_ZNSt8__detail12_ScannerBase14_M_find_escapeEc
	.type	_ZNSt8__detail12_ScannerBase14_M_find_escapeEc, %function
_ZNSt8__detail12_ScannerBase14_M_find_escapeEc:
.LFB4802:
	.cfi_startproc
	sub	sp, sp, #32
	.cfi_def_cfa_offset 32
	str	x0, [sp, 8]
	strb	w1, [sp, 7]
	ldr	x0, [sp, 8]
	ldr	x0, [x0, 152]
	str	x0, [sp, 24]
	b	.L138
.L141:
	ldr	x0, [sp, 24]
	ldrb	w0, [x0]
	ldrb	w1, [sp, 7]
	cmp	w1, w0
	bne	.L139
	ldr	x0, [sp, 24]
	add	x0, x0, 1
	b	.L140
.L139:
	ldr	x0, [sp, 24]
	add	x0, x0, 2
	str	x0, [sp, 24]
.L138:
	ldr	x0, [sp, 24]
	ldrb	w0, [x0]
	cmp	w0, 0
	bne	.L141
	mov	x0, 0
.L140:
	add	sp, sp, 32
	.cfi_def_cfa_offset 0
	ret
	.cfi_endproc
.LFE4802:
	.size	_ZNSt8__detail12_ScannerBase14_M_find_escapeEc, .-_ZNSt8__detail12_ScannerBase14_M_find_escapeEc
	.section	.text._ZNKSt8__detail12_ScannerBase10_M_is_ecmaEv,"axG",@progbits,_ZNKSt8__detail12_ScannerBase10_M_is_ecmaEv,comdat
	.align	2
	.weak	_ZNKSt8__detail12_ScannerBase10_M_is_ecmaEv
	.type	_ZNKSt8__detail12_ScannerBase10_M_is_ecmaEv, %function
_ZNKSt8__detail12_ScannerBase10_M_is_ecmaEv:
.LFB4803:
	.cfi_startproc
	stp	x29, x30, [sp, -32]!
	.cfi_def_cfa_offset 32
	.cfi_offset 29, -32
	.cfi_offset 30, -24
	mov	x29, sp
	str	x0, [sp, 24]
	ldr	x0, [sp, 24]
	ldr	w0, [x0, 140]
	mov	w1, 16
	bl	_ZNSt15regex_constantsanENS_18syntax_option_typeES0_
	cmp	w0, 0
	cset	w0, ne
	and	w0, w0, 255
	ldp	x29, x30, [sp], 32
	.cfi_restore 30
	.cfi_restore 29
	.cfi_def_cfa_offset 0
	ret
	.cfi_endproc
.LFE4803:
	.size	_ZNKSt8__detail12_ScannerBase10_M_is_ecmaEv, .-_ZNKSt8__detail12_ScannerBase10_M_is_ecmaEv
	.section	.text._ZNKSt8__detail12_ScannerBase11_M_is_basicEv,"axG",@progbits,_ZNKSt8__detail12_ScannerBase11_M_is_basicEv,comdat
	.align	2
	.weak	_ZNKSt8__detail12_ScannerBase11_M_is_basicEv
	.type	_ZNKSt8__detail12_ScannerBase11_M_is_basicEv, %function
_ZNKSt8__detail12_ScannerBase11_M_is_basicEv:
.LFB4804:
	.cfi_startproc
	stp	x29, x30, [sp, -48]!
	.cfi_def_cfa_offset 48
	.cfi_offset 29, -48
	.cfi_offset 30, -40
	mov	x29, sp
	str	x19, [sp, 16]
	.cfi_offset 19, -32
	str	x0, [sp, 40]
	ldr	x0, [sp, 40]
	ldr	w19, [x0, 140]
	mov	w1, 256
	mov	w0, 32
	bl	_ZNSt15regex_constantsorENS_18syntax_option_typeES0_
	mov	w1, w0
	mov	w0, w19
	bl	_ZNSt15regex_constantsanENS_18syntax_option_typeES0_
	cmp	w0, 0
	cset	w0, ne
	and	w0, w0, 255
	ldr	x19, [sp, 16]
	ldp	x29, x30, [sp], 48
	.cfi_restore 30
	.cfi_restore 29
	.cfi_restore 19
	.cfi_def_cfa_offset 0
	ret
	.cfi_endproc
.LFE4804:
	.size	_ZNKSt8__detail12_ScannerBase11_M_is_basicEv, .-_ZNKSt8__detail12_ScannerBase11_M_is_basicEv
	.section	.text._ZNKSt8__detail12_ScannerBase9_M_is_awkEv,"axG",@progbits,_ZNKSt8__detail12_ScannerBase9_M_is_awkEv,comdat
	.align	2
	.weak	_ZNKSt8__detail12_ScannerBase9_M_is_awkEv
	.type	_ZNKSt8__detail12_ScannerBase9_M_is_awkEv, %function
_ZNKSt8__detail12_ScannerBase9_M_is_awkEv:
.LFB4807:
	.cfi_startproc
	stp	x29, x30, [sp, -32]!
	.cfi_def_cfa_offset 32
	.cfi_offset 29, -32
	.cfi_offset 30, -24
	mov	x29, sp
	str	x0, [sp, 24]
	ldr	x0, [sp, 24]
	ldr	w0, [x0, 140]
	mov	w1, 128
	bl	_ZNSt15regex_constantsanENS_18syntax_option_typeES0_
	cmp	w0, 0
	cset	w0, ne
	and	w0, w0, 255
	ldp	x29, x30, [sp], 32
	.cfi_restore 30
	.cfi_restore 29
	.cfi_def_cfa_offset 0
	ret
	.cfi_endproc
.LFE4807:
	.size	_ZNKSt8__detail12_ScannerBase9_M_is_awkEv, .-_ZNKSt8__detail12_ScannerBase9_M_is_awkEv
	.section	.text._ZNSt7__cxx1113match_resultsIN9__gnu_cxx17__normal_iteratorIPKcNS_12basic_stringIcSt11char_traitsIcESaIcEEEEESaINS_9sub_matchISA_EEEED2Ev,"axG",@progbits,_ZNSt7__cxx1113match_resultsIN9__gnu_cxx17__normal_iteratorIPKcNS_12basic_stringIcSt11char_traitsIcESaIcEEEEESaINS_9sub_matchISA_EEEED5Ev,comdat
	.align	2
	.weak	_ZNSt7__cxx1113match_resultsIN9__gnu_cxx17__normal_iteratorIPKcNS_12basic_stringIcSt11char_traitsIcESaIcEEEEESaINS_9sub_matchISA_EEEED2Ev
	.type	_ZNSt7__cxx1113match_resultsIN9__gnu_cxx17__normal_iteratorIPKcNS_12basic_stringIcSt11char_traitsIcESaIcEEEEESaINS_9sub_matchISA_EEEED2Ev, %function
_ZNSt7__cxx1113match_resultsIN9__gnu_cxx17__normal_iteratorIPKcNS_12basic_stringIcSt11char_traitsIcESaIcEEEEESaINS_9sub_matchISA_EEEED2Ev:
.LFB5108:
	.cfi_startproc
	stp	x29, x30, [sp, -32]!
	.cfi_def_cfa_offset 32
	.cfi_offset 29, -32
	.cfi_offset 30, -24
	mov	x29, sp
	str	x0, [sp, 24]
	ldr	x0, [sp, 24]
	bl	_ZNSt6vectorINSt7__cxx119sub_matchIN9__gnu_cxx17__normal_iteratorIPKcNS0_12basic_stringIcSt11char_traitsIcESaIcEEEEEEESaISC_EED2Ev
	nop
	ldp	x29, x30, [sp], 32
	.cfi_restore 30
	.cfi_restore 29
	.cfi_def_cfa_offset 0
	ret
	.cfi_endproc
.LFE5108:
	.size	_ZNSt7__cxx1113match_resultsIN9__gnu_cxx17__normal_iteratorIPKcNS_12basic_stringIcSt11char_traitsIcESaIcEEEEESaINS_9sub_matchISA_EEEED2Ev, .-_ZNSt7__cxx1113match_resultsIN9__gnu_cxx17__normal_iteratorIPKcNS_12basic_stringIcSt11char_traitsIcESaIcEEEEESaINS_9sub_matchISA_EEEED2Ev
	.weak	_ZNSt7__cxx1113match_resultsIN9__gnu_cxx17__normal_iteratorIPKcNS_12basic_stringIcSt11char_traitsIcESaIcEEEEESaINS_9sub_matchISA_EEEED1Ev
	.set	_ZNSt7__cxx1113match_resultsIN9__gnu_cxx17__normal_iteratorIPKcNS_12basic_stringIcSt11char_traitsIcESaIcEEEEESaINS_9sub_matchISA_EEEED1Ev,_ZNSt7__cxx1113match_resultsIN9__gnu_cxx17__normal_iteratorIPKcNS_12basic_stringIcSt11char_traitsIcESaIcEEEEESaINS_9sub_matchISA_EEEED2Ev
	.section	.rodata
	.align	3
.LC5:
	.string	"for a good time, call 867-5309 999"
	.align	3
.LC6:
	.string	"\\d{3}-\\d{4}"
	.align	3
.LC7:
	.string	"$`[$&]$'"
	.text
	.align	2
	.global	main
	.type	main, %function
main:
.LFB5106:
	.cfi_startproc
	.cfi_personality 0x9b,DW.ref.__gxx_personality_v0
	.cfi_lsda 0x1b,.LLSDA5106
	stp	x29, x30, [sp, -176]!
	.cfi_def_cfa_offset 176
	.cfi_offset 29, -176
	.cfi_offset 30, -168
	mov	x29, sp
	str	x19, [sp, 16]
	.cfi_offset 19, -160
	adrp	x0, :got:__stack_chk_guard
	ldr	x0, [x0, #:got_lo12:__stack_chk_guard]
	ldr	x1, [x0]
	str	x1, [sp, 168]
	mov	x1, 0
	add	x0, sp, 72
	bl	_ZNSaIcEC1Ev
	add	x0, sp, 72
	add	x3, sp, 104
	mov	x2, x0
	adrp	x0, .LC5
	add	x1, x0, :lo12:.LC5
	mov	x0, x3
.LEHB2:
	bl	_ZNSt7__cxx1112basic_stringIcSt11char_traitsIcESaIcEEC1IS3_EEPKcRKS3_
.LEHE2:
	add	x0, sp, 72
	bl	_ZNSaIcED1Ev
	add	x3, sp, 40
	mov	w2, 16
	adrp	x0, .LC6
	add	x1, x0, :lo12:.LC6
	mov	x0, x3
.LEHB3:
	bl	_ZNSt7__cxx1111basic_regexIcNS_12regex_traitsIcEEEC1EPKcNSt15regex_constants18syntax_option_typeE
.LEHE3:
	add	x0, sp, 72
	bl	_ZNSt7__cxx1113match_resultsIN9__gnu_cxx17__normal_iteratorIPKcNS_12basic_stringIcSt11char_traitsIcESaIcEEEEESaINS_9sub_matchISA_EEEEC1Ev
	add	x2, sp, 40
	add	x1, sp, 72
	add	x0, sp, 104
	mov	w3, 0
.LEHB4:
	bl	_ZSt12regex_searchISt11char_traitsIcESaIcESaINSt7__cxx119sub_matchIN9__gnu_cxx17__normal_iteratorIPKcNS3_12basic_stringIcS1_S2_EEEEEEEcNS3_12regex_traitsIcEEEbRKNS9_IT2_T_T0_EERNS3_13match_resultsINSJ_14const_iteratorET1_EERKNS3_11basic_regexISG_T3_EENSt15regex_constants15match_flag_typeE
	and	w0, w0, 255
	cmp	w0, 0
	beq	.L150
	add	x3, sp, 72
	add	x0, sp, 136
	mov	x8, x0
	mov	w2, 0
	adrp	x0, .LC7
	add	x1, x0, :lo12:.LC7
	mov	x0, x3
	bl	_ZNKSt7__cxx1113match_resultsIN9__gnu_cxx17__normal_iteratorIPKcNS_12basic_stringIcSt11char_traitsIcESaIcEEEEESaINS_9sub_matchISA_EEEE6formatES4_NSt15regex_constants15match_flag_typeE
.LEHE4:
	add	x0, sp, 136
	mov	x1, x0
	adrp	x0, :got:_ZSt4cout
	ldr	x0, [x0, #:got_lo12:_ZSt4cout]
.LEHB5:
	bl	_ZStlsIcSt11char_traitsIcESaIcEERSt13basic_ostreamIT_T0_ES7_RKNSt7__cxx1112basic_stringIS4_S5_T1_EE
	mov	w1, 10
	bl	_ZStlsISt11char_traitsIcEERSt13basic_ostreamIcT_ES5_c
.LEHE5:
	add	x0, sp, 136
	bl	_ZNSt7__cxx1112basic_stringIcSt11char_traitsIcESaIcEED1Ev
.L150:
	add	x0, sp, 72
	bl	_ZNSt7__cxx1113match_resultsIN9__gnu_cxx17__normal_iteratorIPKcNS_12basic_stringIcSt11char_traitsIcESaIcEEEEESaINS_9sub_matchISA_EEEED1Ev
	add	x0, sp, 40
	bl	_ZNSt7__cxx1111basic_regexIcNS_12regex_traitsIcEEED1Ev
	add	x0, sp, 104
	bl	_ZNSt7__cxx1112basic_stringIcSt11char_traitsIcESaIcEED1Ev
	mov	w0, 0
	mov	w1, w0
	adrp	x0, :got:__stack_chk_guard
	ldr	x0, [x0, #:got_lo12:__stack_chk_guard]
	ldr	x3, [sp, 168]
	ldr	x2, [x0]
	subs	x3, x3, x2
	mov	x2, 0
	beq	.L156
	b	.L161
.L157:
	mov	x19, x0
	add	x0, sp, 72
	bl	_ZNSaIcED1Ev
	mov	x0, x19
.LEHB6:
	bl	_Unwind_Resume
.L160:
	mov	x19, x0
	add	x0, sp, 136
	bl	_ZNSt7__cxx1112basic_stringIcSt11char_traitsIcESaIcEED1Ev
	b	.L154
.L159:
	mov	x19, x0
.L154:
	add	x0, sp, 72
	bl	_ZNSt7__cxx1113match_resultsIN9__gnu_cxx17__normal_iteratorIPKcNS_12basic_stringIcSt11char_traitsIcESaIcEEEEESaINS_9sub_matchISA_EEEED1Ev
	add	x0, sp, 40
	bl	_ZNSt7__cxx1111basic_regexIcNS_12regex_traitsIcEEED1Ev
	b	.L155
.L158:
	mov	x19, x0
.L155:
	add	x0, sp, 104
	bl	_ZNSt7__cxx1112basic_stringIcSt11char_traitsIcESaIcEED1Ev
	mov	x0, x19
	bl	_Unwind_Resume
.LEHE6:
.L161:
	bl	__stack_chk_fail
.L156:
	mov	w0, w1
	ldr	x19, [sp, 16]
	ldp	x29, x30, [sp], 176
	.cfi_restore 30
	.cfi_restore 29
	.cfi_restore 19
	.cfi_def_cfa_offset 0
	ret
	.cfi_endproc
.LFE5106:
	.section	.gcc_except_table,"a",@progbits
.LLSDA5106:
	.byte	0xff
	.byte	0xff
	.byte	0x1
	.uleb128 .LLSDACSE5106-.LLSDACSB5106
.LLSDACSB5106:
	.uleb128 .LEHB2-.LFB5106
	.uleb128 .LEHE2-.LEHB2
	.uleb128 .L157-.LFB5106
	.uleb128 0
	.uleb128 .LEHB3-.LFB5106
	.uleb128 .LEHE3-.LEHB3
	.uleb128 .L158-.LFB5106
	.uleb128 0
	.uleb128 .LEHB4-.LFB5106
	.uleb128 .LEHE4-.LEHB4
	.uleb128 .L159-.LFB5106
	.uleb128 0
	.uleb128 .LEHB5-.LFB5106
	.uleb128 .LEHE5-.LEHB5
	.uleb128 .L160-.LFB5106
	.uleb128 0
	.uleb128 .LEHB6-.LFB5106
	.uleb128 .LEHE6-.LEHB6
	.uleb128 0
	.uleb128 0
.LLSDACSE5106:
	.text
	.size	main, .-main
	.section	.text._ZN9__gnu_cxx11char_traitsIcE2eqERKcS3_,"axG",@progbits,_ZN9__gnu_cxx11char_traitsIcE2eqERKcS3_,comdat
	.align	2
	.weak	_ZN9__gnu_cxx11char_traitsIcE2eqERKcS3_
	.type	_ZN9__gnu_cxx11char_traitsIcE2eqERKcS3_, %function
_ZN9__gnu_cxx11char_traitsIcE2eqERKcS3_:
.LFB5111:
	.cfi_startproc
	sub	sp, sp, #16
	.cfi_def_cfa_offset 16
	str	x0, [sp, 8]
	str	x1, [sp]
	ldr	x0, [sp, 8]
	ldrb	w1, [x0]
	ldr	x0, [sp]
	ldrb	w0, [x0]
	cmp	w1, w0
	cset	w0, eq
	and	w0, w0, 255
	add	sp, sp, 16
	.cfi_def_cfa_offset 0
	ret
	.cfi_endproc
.LFE5111:
	.size	_ZN9__gnu_cxx11char_traitsIcE2eqERKcS3_, .-_ZN9__gnu_cxx11char_traitsIcE2eqERKcS3_
	.section	.text._ZN9__gnu_cxx11char_traitsIcE6lengthEPKc,"axG",@progbits,_ZN9__gnu_cxx11char_traitsIcE6lengthEPKc,comdat
	.align	2
	.weak	_ZN9__gnu_cxx11char_traitsIcE6lengthEPKc
	.type	_ZN9__gnu_cxx11char_traitsIcE6lengthEPKc, %function
_ZN9__gnu_cxx11char_traitsIcE6lengthEPKc:
.LFB5110:
	.cfi_startproc
	stp	x29, x30, [sp, -64]!
	.cfi_def_cfa_offset 64
	.cfi_offset 29, -64
	.cfi_offset 30, -56
	mov	x29, sp
	str	x0, [sp, 24]
	adrp	x0, :got:__stack_chk_guard
	ldr	x0, [x0, #:got_lo12:__stack_chk_guard]
	ldr	x1, [x0]
	str	x1, [sp, 56]
	mov	x1, 0
	str	xzr, [sp, 48]
	b	.L165
.L166:
	ldr	x0, [sp, 48]
	add	x0, x0, 1
	str	x0, [sp, 48]
.L165:
	ldr	x1, [sp, 24]
	ldr	x0, [sp, 48]
	add	x0, x1, x0
	strb	wzr, [sp, 47]
	add	x1, sp, 47
	bl	_ZN9__gnu_cxx11char_traitsIcE2eqERKcS3_
	and	w0, w0, 255
	eor	w0, w0, 1
	and	w0, w0, 255
	cmp	w0, 0
	bne	.L166
	ldr	x0, [sp, 48]
	mov	x1, x0
	adrp	x0, :got:__stack_chk_guard
	ldr	x0, [x0, #:got_lo12:__stack_chk_guard]
	ldr	x3, [sp, 56]
	ldr	x2, [x0]
	subs	x3, x3, x2
	mov	x2, 0
	beq	.L168
	bl	__stack_chk_fail
.L168:
	mov	x0, x1
	ldp	x29, x30, [sp], 64
	.cfi_restore 30
	.cfi_restore 29
	.cfi_def_cfa_offset 0
	ret
	.cfi_endproc
.LFE5110:
	.size	_ZN9__gnu_cxx11char_traitsIcE6lengthEPKc, .-_ZN9__gnu_cxx11char_traitsIcE6lengthEPKc
	.section	.text._ZNSt7__cxx1112basic_stringIcSt11char_traitsIcESaIcEE12_Alloc_hiderD2Ev,"axG",@progbits,_ZNSt7__cxx1112basic_stringIcSt11char_traitsIcESaIcEE12_Alloc_hiderD5Ev,comdat
	.align	2
	.weak	_ZNSt7__cxx1112basic_stringIcSt11char_traitsIcESaIcEE12_Alloc_hiderD2Ev
	.type	_ZNSt7__cxx1112basic_stringIcSt11char_traitsIcESaIcEE12_Alloc_hiderD2Ev, %function
_ZNSt7__cxx1112basic_stringIcSt11char_traitsIcESaIcEE12_Alloc_hiderD2Ev:
.LFB5218:
	.cfi_startproc
	stp	x29, x30, [sp, -32]!
	.cfi_def_cfa_offset 32
	.cfi_offset 29, -32
	.cfi_offset 30, -24
	mov	x29, sp
	str	x0, [sp, 24]
	ldr	x0, [sp, 24]
	bl	_ZNSaIcED2Ev
	nop
	ldp	x29, x30, [sp], 32
	.cfi_restore 30
	.cfi_restore 29
	.cfi_def_cfa_offset 0
	ret
	.cfi_endproc
.LFE5218:
	.size	_ZNSt7__cxx1112basic_stringIcSt11char_traitsIcESaIcEE12_Alloc_hiderD2Ev, .-_ZNSt7__cxx1112basic_stringIcSt11char_traitsIcESaIcEE12_Alloc_hiderD2Ev
	.weak	_ZNSt7__cxx1112basic_stringIcSt11char_traitsIcESaIcEE12_Alloc_hiderD1Ev
	.set	_ZNSt7__cxx1112basic_stringIcSt11char_traitsIcESaIcEE12_Alloc_hiderD1Ev,_ZNSt7__cxx1112basic_stringIcSt11char_traitsIcESaIcEE12_Alloc_hiderD2Ev
	.section	.text._ZNSt7__cxx1112basic_stringIcSt11char_traitsIcESaIcEEC2IS3_EEmcRKS3_,"axG",@progbits,_ZNSt7__cxx1112basic_stringIcSt11char_traitsIcESaIcEEC5IS3_EEmcRKS3_,comdat
	.align	2
	.weak	_ZNSt7__cxx1112basic_stringIcSt11char_traitsIcESaIcEEC2IS3_EEmcRKS3_
	.type	_ZNSt7__cxx1112basic_stringIcSt11char_traitsIcESaIcEEC2IS3_EEmcRKS3_, %function
_ZNSt7__cxx1112basic_stringIcSt11char_traitsIcESaIcEEC2IS3_EEmcRKS3_:
.LFB5220:
	.cfi_startproc
	.cfi_personality 0x9b,DW.ref.__gxx_personality_v0
	.cfi_lsda 0x1b,.LLSDA5220
	stp	x29, x30, [sp, -64]!
	.cfi_def_cfa_offset 64
	.cfi_offset 29, -64
	.cfi_offset 30, -56
	mov	x29, sp
	str	x19, [sp, 16]
	.cfi_offset 19, -48
	str	x0, [sp, 56]
	str	x1, [sp, 48]
	strb	w2, [sp, 47]
	str	x3, [sp, 32]
	ldr	x19, [sp, 56]
	ldr	x0, [sp, 56]
.LEHB7:
	bl	_ZNSt7__cxx1112basic_stringIcSt11char_traitsIcESaIcEE13_M_local_dataEv
	ldr	x2, [sp, 32]
	mov	x1, x0
	mov	x0, x19
	bl	_ZNSt7__cxx1112basic_stringIcSt11char_traitsIcESaIcEE12_Alloc_hiderC1EPcRKS3_
.LEHE7:
	ldrb	w2, [sp, 47]
	ldr	x1, [sp, 48]
	ldr	x0, [sp, 56]
.LEHB8:
	bl	_ZNSt7__cxx1112basic_stringIcSt11char_traitsIcESaIcEE12_M_constructEmc
.LEHE8:
	b	.L173
.L172:
	mov	x19, x0
	ldr	x0, [sp, 56]
	bl	_ZNSt7__cxx1112basic_stringIcSt11char_traitsIcESaIcEE12_Alloc_hiderD1Ev
	mov	x0, x19
.LEHB9:
	bl	_Unwind_Resume
.LEHE9:
.L173:
	ldr	x19, [sp, 16]
	ldp	x29, x30, [sp], 64
	.cfi_restore 30
	.cfi_restore 29
	.cfi_restore 19
	.cfi_def_cfa_offset 0
	ret
	.cfi_endproc
.LFE5220:
	.section	.gcc_except_table
.LLSDA5220:
	.byte	0xff
	.byte	0xff
	.byte	0x1
	.uleb128 .LLSDACSE5220-.LLSDACSB5220
.LLSDACSB5220:
	.uleb128 .LEHB7-.LFB5220
	.uleb128 .LEHE7-.LEHB7
	.uleb128 0
	.uleb128 0
	.uleb128 .LEHB8-.LFB5220
	.uleb128 .LEHE8-.LEHB8
	.uleb128 .L172-.LFB5220
	.uleb128 0
	.uleb128 .LEHB9-.LFB5220
	.uleb128 .LEHE9-.LEHB9
	.uleb128 0
	.uleb128 0
.LLSDACSE5220:
	.section	.text._ZNSt7__cxx1112basic_stringIcSt11char_traitsIcESaIcEEC2IS3_EEmcRKS3_,"axG",@progbits,_ZNSt7__cxx1112basic_stringIcSt11char_traitsIcESaIcEEC5IS3_EEmcRKS3_,comdat
	.size	_ZNSt7__cxx1112basic_stringIcSt11char_traitsIcESaIcEEC2IS3_EEmcRKS3_, .-_ZNSt7__cxx1112basic_stringIcSt11char_traitsIcESaIcEEC2IS3_EEmcRKS3_
	.weak	_ZNSt7__cxx1112basic_stringIcSt11char_traitsIcESaIcEEC1IS3_EEmcRKS3_
	.set	_ZNSt7__cxx1112basic_stringIcSt11char_traitsIcESaIcEEC1IS3_EEmcRKS3_,_ZNSt7__cxx1112basic_stringIcSt11char_traitsIcESaIcEEC2IS3_EEmcRKS3_
	.section	.text._ZSt3maxImERKT_S2_S2_,"axG",@progbits,_ZSt3maxImERKT_S2_S2_,comdat
	.align	2
	.weak	_ZSt3maxImERKT_S2_S2_
	.type	_ZSt3maxImERKT_S2_S2_, %function
_ZSt3maxImERKT_S2_S2_:
.LFB5370:
	.cfi_startproc
	sub	sp, sp, #16
	.cfi_def_cfa_offset 16
	str	x0, [sp, 8]
	str	x1, [sp]
	ldr	x0, [sp, 8]
	ldr	x1, [x0]
	ldr	x0, [sp]
	ldr	x0, [x0]
	cmp	x1, x0
	bcs	.L175
	ldr	x0, [sp]
	b	.L176
.L175:
	ldr	x0, [sp, 8]
.L176:
	add	sp, sp, 16
	.cfi_def_cfa_offset 0
	ret
	.cfi_endproc
.LFE5370:
	.size	_ZSt3maxImERKT_S2_S2_, .-_ZSt3maxImERKT_S2_S2_
	.section	.text._ZNSt12_Vector_baseImSaImEE12_Vector_implC2Ev,"axG",@progbits,_ZNSt12_Vector_baseImSaImEE12_Vector_implC5Ev,comdat
	.align	2
	.weak	_ZNSt12_Vector_baseImSaImEE12_Vector_implC2Ev
	.type	_ZNSt12_Vector_baseImSaImEE12_Vector_implC2Ev, %function
_ZNSt12_Vector_baseImSaImEE12_Vector_implC2Ev:
.LFB5395:
	.cfi_startproc
	stp	x29, x30, [sp, -32]!
	.cfi_def_cfa_offset 32
	.cfi_offset 29, -32
	.cfi_offset 30, -24
	mov	x29, sp
	str	x0, [sp, 24]
	ldr	x0, [sp, 24]
	bl	_ZNSaImEC2Ev
	ldr	x0, [sp, 24]
	bl	_ZNSt12_Vector_baseImSaImEE17_Vector_impl_dataC2Ev
	nop
	ldp	x29, x30, [sp], 32
	.cfi_restore 30
	.cfi_restore 29
	.cfi_def_cfa_offset 0
	ret
	.cfi_endproc
.LFE5395:
	.size	_ZNSt12_Vector_baseImSaImEE12_Vector_implC2Ev, .-_ZNSt12_Vector_baseImSaImEE12_Vector_implC2Ev
	.weak	_ZNSt12_Vector_baseImSaImEE12_Vector_implC1Ev
	.set	_ZNSt12_Vector_baseImSaImEE12_Vector_implC1Ev,_ZNSt12_Vector_baseImSaImEE12_Vector_implC2Ev
	.section	.text._ZNSaImED2Ev,"axG",@progbits,_ZNSaImED5Ev,comdat
	.align	2
	.weak	_ZNSaImED2Ev
	.type	_ZNSaImED2Ev, %function
_ZNSaImED2Ev:
.LFB5398:
	.cfi_startproc
	stp	x29, x30, [sp, -32]!
	.cfi_def_cfa_offset 32
	.cfi_offset 29, -32
	.cfi_offset 30, -24
	mov	x29, sp
	str	x0, [sp, 24]
	ldr	x0, [sp, 24]
	bl	_ZN9__gnu_cxx13new_allocatorImED2Ev
	nop
	ldp	x29, x30, [sp], 32
	.cfi_restore 30
	.cfi_restore 29
	.cfi_def_cfa_offset 0
	ret
	.cfi_endproc
.LFE5398:
	.size	_ZNSaImED2Ev, .-_ZNSaImED2Ev
	.weak	_ZNSaImED1Ev
	.set	_ZNSaImED1Ev,_ZNSaImED2Ev
	.section	.text._ZNSt12_Vector_baseImSaImEED2Ev,"axG",@progbits,_ZNSt12_Vector_baseImSaImEED5Ev,comdat
	.align	2
	.weak	_ZNSt12_Vector_baseImSaImEED2Ev
	.type	_ZNSt12_Vector_baseImSaImEED2Ev, %function
_ZNSt12_Vector_baseImSaImEED2Ev:
.LFB5401:
	.cfi_startproc
	.cfi_personality 0x9b,DW.ref.__gxx_personality_v0
	.cfi_lsda 0x1b,.LLSDA5401
	stp	x29, x30, [sp, -32]!
	.cfi_def_cfa_offset 32
	.cfi_offset 29, -32
	.cfi_offset 30, -24
	mov	x29, sp
	str	x0, [sp, 24]
	ldr	x0, [sp, 24]
	ldr	x3, [x0]
	ldr	x0, [sp, 24]
	ldr	x1, [x0, 16]
	ldr	x0, [sp, 24]
	ldr	x0, [x0]
	sub	x0, x1, x0
	asr	x0, x0, 3
	mov	x2, x0
	mov	x1, x3
	ldr	x0, [sp, 24]
	bl	_ZNSt12_Vector_baseImSaImEE13_M_deallocateEPmm
	ldr	x0, [sp, 24]
	bl	_ZNSt12_Vector_baseImSaImEE12_Vector_implD1Ev
	nop
	ldp	x29, x30, [sp], 32
	.cfi_restore 30
	.cfi_restore 29
	.cfi_def_cfa_offset 0
	ret
	.cfi_endproc
.LFE5401:
	.section	.gcc_except_table
.LLSDA5401:
	.byte	0xff
	.byte	0xff
	.byte	0x1
	.uleb128 .LLSDACSE5401-.LLSDACSB5401
.LLSDACSB5401:
.LLSDACSE5401:
	.section	.text._ZNSt12_Vector_baseImSaImEED2Ev,"axG",@progbits,_ZNSt12_Vector_baseImSaImEED5Ev,comdat
	.size	_ZNSt12_Vector_baseImSaImEED2Ev, .-_ZNSt12_Vector_baseImSaImEED2Ev
	.weak	_ZNSt12_Vector_baseImSaImEED1Ev
	.set	_ZNSt12_Vector_baseImSaImEED1Ev,_ZNSt12_Vector_baseImSaImEED2Ev
	.section	.text._ZNSt6vectorImSaImEED2Ev,"axG",@progbits,_ZNSt6vectorImSaImEED5Ev,comdat
	.align	2
	.weak	_ZNSt6vectorImSaImEED2Ev
	.type	_ZNSt6vectorImSaImEED2Ev, %function
_ZNSt6vectorImSaImEED2Ev:
.LFB5404:
	.cfi_startproc
	.cfi_personality 0x9b,DW.ref.__gxx_personality_v0
	.cfi_lsda 0x1b,.LLSDA5404
	stp	x29, x30, [sp, -48]!
	.cfi_def_cfa_offset 48
	.cfi_offset 29, -48
	.cfi_offset 30, -40
	mov	x29, sp
	stp	x19, x20, [sp, 16]
	.cfi_offset 19, -32
	.cfi_offset 20, -24
	str	x0, [sp, 40]
	ldr	x0, [sp, 40]
	ldr	x19, [x0]
	ldr	x0, [sp, 40]
	ldr	x20, [x0, 8]
	ldr	x0, [sp, 40]
	bl	_ZNSt12_Vector_baseImSaImEE19_M_get_Tp_allocatorEv
	mov	x2, x0
	mov	x1, x20
	mov	x0, x19
	bl	_ZSt8_DestroyIPmmEvT_S1_RSaIT0_E
	ldr	x0, [sp, 40]
	bl	_ZNSt12_Vector_baseImSaImEED2Ev
	nop
	ldp	x19, x20, [sp, 16]
	ldp	x29, x30, [sp], 48
	.cfi_restore 30
	.cfi_restore 29
	.cfi_restore 19
	.cfi_restore 20
	.cfi_def_cfa_offset 0
	ret
	.cfi_endproc
.LFE5404:
	.section	.gcc_except_table
.LLSDA5404:
	.byte	0xff
	.byte	0xff
	.byte	0x1
	.uleb128 .LLSDACSE5404-.LLSDACSB5404
.LLSDACSB5404:
.LLSDACSE5404:
	.section	.text._ZNSt6vectorImSaImEED2Ev,"axG",@progbits,_ZNSt6vectorImSaImEED5Ev,comdat
	.size	_ZNSt6vectorImSaImEED2Ev, .-_ZNSt6vectorImSaImEED2Ev
	.weak	_ZNSt6vectorImSaImEED1Ev
	.set	_ZNSt6vectorImSaImEED1Ev,_ZNSt6vectorImSaImEED2Ev
	.section	.text._ZNSt7__cxx1112basic_stringIcSt11char_traitsIcESaIcEEC2IS3_EEPKcRKS3_,"axG",@progbits,_ZNSt7__cxx1112basic_stringIcSt11char_traitsIcESaIcEEC5IS3_EEPKcRKS3_,comdat
	.align	2
	.weak	_ZNSt7__cxx1112basic_stringIcSt11char_traitsIcESaIcEEC2IS3_EEPKcRKS3_
	.type	_ZNSt7__cxx1112basic_stringIcSt11char_traitsIcESaIcEEC2IS3_EEPKcRKS3_, %function
_ZNSt7__cxx1112basic_stringIcSt11char_traitsIcESaIcEEC2IS3_EEPKcRKS3_:
.LFB5407:
	.cfi_startproc
	.cfi_personality 0x9b,DW.ref.__gxx_personality_v0
	.cfi_lsda 0x1b,.LLSDA5407
	stp	x29, x30, [sp, -96]!
	.cfi_def_cfa_offset 96
	.cfi_offset 29, -96
	.cfi_offset 30, -88
	mov	x29, sp
	stp	x19, x20, [sp, 16]
	.cfi_offset 19, -80
	.cfi_offset 20, -72
	str	x0, [sp, 56]
	str	x1, [sp, 48]
	str	x2, [sp, 40]
	adrp	x0, :got:__stack_chk_guard
	ldr	x0, [x0, #:got_lo12:__stack_chk_guard]
	ldr	x1, [x0]
	str	x1, [sp, 88]
	mov	x1, 0
	ldr	x19, [sp, 56]
	ldr	x0, [sp, 56]
.LEHB10:
	bl	_ZNSt7__cxx1112basic_stringIcSt11char_traitsIcESaIcEE13_M_local_dataEv
	ldr	x2, [sp, 40]
	mov	x1, x0
	mov	x0, x19
	bl	_ZNSt7__cxx1112basic_stringIcSt11char_traitsIcESaIcEE12_Alloc_hiderC1EPcRKS3_
.LEHE10:
	ldr	x0, [sp, 48]
	cmp	x0, 0
	beq	.L182
	ldr	x0, [sp, 48]
.LEHB11:
	bl	_ZNSt11char_traitsIcE6lengthEPKc
	mov	x1, x0
	ldr	x0, [sp, 48]
	add	x0, x0, x1
	b	.L183
.L182:
	mov	x0, 1
.L183:
	str	x0, [sp, 80]
	mov	w3, w20
	ldr	x2, [sp, 80]
	ldr	x1, [sp, 48]
	ldr	x0, [sp, 56]
	bl	_ZNSt7__cxx1112basic_stringIcSt11char_traitsIcESaIcEE12_M_constructIPKcEEvT_S8_St20forward_iterator_tag
.LEHE11:
	b	.L187
.L186:
	mov	x19, x0
	ldr	x0, [sp, 56]
	bl	_ZNSt7__cxx1112basic_stringIcSt11char_traitsIcESaIcEE12_Alloc_hiderD1Ev
	mov	x0, x19
.LEHB12:
	bl	_Unwind_Resume
.LEHE12:
.L187:
	adrp	x0, :got:__stack_chk_guard
	ldr	x0, [x0, #:got_lo12:__stack_chk_guard]
	ldr	x2, [sp, 88]
	ldr	x1, [x0]
	subs	x2, x2, x1
	mov	x1, 0
	beq	.L185
	bl	__stack_chk_fail
.L185:
	ldp	x19, x20, [sp, 16]
	ldp	x29, x30, [sp], 96
	.cfi_restore 30
	.cfi_restore 29
	.cfi_restore 19
	.cfi_restore 20
	.cfi_def_cfa_offset 0
	ret
	.cfi_endproc
.LFE5407:
	.section	.gcc_except_table
.LLSDA5407:
	.byte	0xff
	.byte	0xff
	.byte	0x1
	.uleb128 .LLSDACSE5407-.LLSDACSB5407
.LLSDACSB5407:
	.uleb128 .LEHB10-.LFB5407
	.uleb128 .LEHE10-.LEHB10
	.uleb128 0
	.uleb128 0
	.uleb128 .LEHB11-.LFB5407
	.uleb128 .LEHE11-.LEHB11
	.uleb128 .L186-.LFB5407
	.uleb128 0
	.uleb128 .LEHB12-.LFB5407
	.uleb128 .LEHE12-.LEHB12
	.uleb128 0
	.uleb128 0
.LLSDACSE5407:
	.section	.text._ZNSt7__cxx1112basic_stringIcSt11char_traitsIcESaIcEEC2IS3_EEPKcRKS3_,"axG",@progbits,_ZNSt7__cxx1112basic_stringIcSt11char_traitsIcESaIcEEC5IS3_EEPKcRKS3_,comdat
	.size	_ZNSt7__cxx1112basic_stringIcSt11char_traitsIcESaIcEEC2IS3_EEPKcRKS3_, .-_ZNSt7__cxx1112basic_stringIcSt11char_traitsIcESaIcEEC2IS3_EEPKcRKS3_
	.weak	_ZNSt7__cxx1112basic_stringIcSt11char_traitsIcESaIcEEC1IS3_EEPKcRKS3_
	.set	_ZNSt7__cxx1112basic_stringIcSt11char_traitsIcESaIcEEC1IS3_EEPKcRKS3_,_ZNSt7__cxx1112basic_stringIcSt11char_traitsIcESaIcEEC2IS3_EEPKcRKS3_
	.section	.text._ZNSt7__cxx1111basic_regexIcNS_12regex_traitsIcEEEC2EPKcNSt15regex_constants18syntax_option_typeE,"axG",@progbits,_ZNSt7__cxx1111basic_regexIcNS_12regex_traitsIcEEEC5EPKcNSt15regex_constants18syntax_option_typeE,comdat
	.align	2
	.weak	_ZNSt7__cxx1111basic_regexIcNS_12regex_traitsIcEEEC2EPKcNSt15regex_constants18syntax_option_typeE
	.type	_ZNSt7__cxx1111basic_regexIcNS_12regex_traitsIcEEEC2EPKcNSt15regex_constants18syntax_option_typeE, %function
_ZNSt7__cxx1111basic_regexIcNS_12regex_traitsIcEEEC2EPKcNSt15regex_constants18syntax_option_typeE:
.LFB5410:
	.cfi_startproc
	stp	x29, x30, [sp, -48]!
	.cfi_def_cfa_offset 48
	.cfi_offset 29, -48
	.cfi_offset 30, -40
	mov	x29, sp
	str	x0, [sp, 40]
	str	x1, [sp, 32]
	str	w2, [sp, 28]
	ldr	x0, [sp, 32]
	bl	_ZNSt11char_traitsIcE6lengthEPKc
	mov	x1, x0
	ldr	x0, [sp, 32]
	add	x0, x0, x1
	ldr	w3, [sp, 28]
	mov	x2, x0
	ldr	x1, [sp, 32]
	ldr	x0, [sp, 40]
	bl	_ZNSt7__cxx1111basic_regexIcNS_12regex_traitsIcEEEC1IPKcEET_S7_NSt15regex_constants18syntax_option_typeE
	nop
	ldp	x29, x30, [sp], 48
	.cfi_restore 30
	.cfi_restore 29
	.cfi_def_cfa_offset 0
	ret
	.cfi_endproc
.LFE5410:
	.size	_ZNSt7__cxx1111basic_regexIcNS_12regex_traitsIcEEEC2EPKcNSt15regex_constants18syntax_option_typeE, .-_ZNSt7__cxx1111basic_regexIcNS_12regex_traitsIcEEEC2EPKcNSt15regex_constants18syntax_option_typeE
	.weak	_ZNSt7__cxx1111basic_regexIcNS_12regex_traitsIcEEEC1EPKcNSt15regex_constants18syntax_option_typeE
	.set	_ZNSt7__cxx1111basic_regexIcNS_12regex_traitsIcEEEC1EPKcNSt15regex_constants18syntax_option_typeE,_ZNSt7__cxx1111basic_regexIcNS_12regex_traitsIcEEEC2EPKcNSt15regex_constants18syntax_option_typeE
	.section	.text._ZNSt12__shared_ptrIKNSt8__detail4_NFAINSt7__cxx1112regex_traitsIcEEEELN9__gnu_cxx12_Lock_policyE2EED2Ev,"axG",@progbits,_ZNSt12__shared_ptrIKNSt8__detail4_NFAINSt7__cxx1112regex_traitsIcEEEELN9__gnu_cxx12_Lock_policyE2EED5Ev,comdat
	.align	2
	.weak	_ZNSt12__shared_ptrIKNSt8__detail4_NFAINSt7__cxx1112regex_traitsIcEEEELN9__gnu_cxx12_Lock_policyE2EED2Ev
	.type	_ZNSt12__shared_ptrIKNSt8__detail4_NFAINSt7__cxx1112regex_traitsIcEEEELN9__gnu_cxx12_Lock_policyE2EED2Ev, %function
_ZNSt12__shared_ptrIKNSt8__detail4_NFAINSt7__cxx1112regex_traitsIcEEEELN9__gnu_cxx12_Lock_policyE2EED2Ev:
.LFB5415:
	.cfi_startproc
	stp	x29, x30, [sp, -32]!
	.cfi_def_cfa_offset 32
	.cfi_offset 29, -32
	.cfi_offset 30, -24
	mov	x29, sp
	str	x0, [sp, 24]
	ldr	x0, [sp, 24]
	add	x0, x0, 8
	bl	_ZNSt14__shared_countILN9__gnu_cxx12_Lock_policyE2EED1Ev
	nop
	ldp	x29, x30, [sp], 32
	.cfi_restore 30
	.cfi_restore 29
	.cfi_def_cfa_offset 0
	ret
	.cfi_endproc
.LFE5415:
	.size	_ZNSt12__shared_ptrIKNSt8__detail4_NFAINSt7__cxx1112regex_traitsIcEEEELN9__gnu_cxx12_Lock_policyE2EED2Ev, .-_ZNSt12__shared_ptrIKNSt8__detail4_NFAINSt7__cxx1112regex_traitsIcEEEELN9__gnu_cxx12_Lock_policyE2EED2Ev
	.weak	_ZNSt12__shared_ptrIKNSt8__detail4_NFAINSt7__cxx1112regex_traitsIcEEEELN9__gnu_cxx12_Lock_policyE2EED1Ev
	.set	_ZNSt12__shared_ptrIKNSt8__detail4_NFAINSt7__cxx1112regex_traitsIcEEEELN9__gnu_cxx12_Lock_policyE2EED1Ev,_ZNSt12__shared_ptrIKNSt8__detail4_NFAINSt7__cxx1112regex_traitsIcEEEELN9__gnu_cxx12_Lock_policyE2EED2Ev
	.section	.text._ZNSt10shared_ptrIKNSt8__detail4_NFAINSt7__cxx1112regex_traitsIcEEEEED2Ev,"axG",@progbits,_ZNSt10shared_ptrIKNSt8__detail4_NFAINSt7__cxx1112regex_traitsIcEEEEED5Ev,comdat
	.align	2
	.weak	_ZNSt10shared_ptrIKNSt8__detail4_NFAINSt7__cxx1112regex_traitsIcEEEEED2Ev
	.type	_ZNSt10shared_ptrIKNSt8__detail4_NFAINSt7__cxx1112regex_traitsIcEEEEED2Ev, %function
_ZNSt10shared_ptrIKNSt8__detail4_NFAINSt7__cxx1112regex_traitsIcEEEEED2Ev:
.LFB5417:
	.cfi_startproc
	stp	x29, x30, [sp, -32]!
	.cfi_def_cfa_offset 32
	.cfi_offset 29, -32
	.cfi_offset 30, -24
	mov	x29, sp
	str	x0, [sp, 24]
	ldr	x0, [sp, 24]
	bl	_ZNSt12__shared_ptrIKNSt8__detail4_NFAINSt7__cxx1112regex_traitsIcEEEELN9__gnu_cxx12_Lock_policyE2EED2Ev
	nop
	ldp	x29, x30, [sp], 32
	.cfi_restore 30
	.cfi_restore 29
	.cfi_def_cfa_offset 0
	ret
	.cfi_endproc
.LFE5417:
	.size	_ZNSt10shared_ptrIKNSt8__detail4_NFAINSt7__cxx1112regex_traitsIcEEEEED2Ev, .-_ZNSt10shared_ptrIKNSt8__detail4_NFAINSt7__cxx1112regex_traitsIcEEEEED2Ev
	.weak	_ZNSt10shared_ptrIKNSt8__detail4_NFAINSt7__cxx1112regex_traitsIcEEEEED1Ev
	.set	_ZNSt10shared_ptrIKNSt8__detail4_NFAINSt7__cxx1112regex_traitsIcEEEEED1Ev,_ZNSt10shared_ptrIKNSt8__detail4_NFAINSt7__cxx1112regex_traitsIcEEEEED2Ev
	.section	.text._ZNSt7__cxx1111basic_regexIcNS_12regex_traitsIcEEED2Ev,"axG",@progbits,_ZNSt7__cxx1111basic_regexIcNS_12regex_traitsIcEEED5Ev,comdat
	.align	2
	.weak	_ZNSt7__cxx1111basic_regexIcNS_12regex_traitsIcEEED2Ev
	.type	_ZNSt7__cxx1111basic_regexIcNS_12regex_traitsIcEEED2Ev, %function
_ZNSt7__cxx1111basic_regexIcNS_12regex_traitsIcEEED2Ev:
.LFB5419:
	.cfi_startproc
	stp	x29, x30, [sp, -32]!
	.cfi_def_cfa_offset 32
	.cfi_offset 29, -32
	.cfi_offset 30, -24
	mov	x29, sp
	str	x0, [sp, 24]
	ldr	x0, [sp, 24]
	add	x0, x0, 16
	bl	_ZNSt10shared_ptrIKNSt8__detail4_NFAINSt7__cxx1112regex_traitsIcEEEEED1Ev
	ldr	x0, [sp, 24]
	add	x0, x0, 8
	bl	_ZNSt6localeD1Ev
	nop
	ldp	x29, x30, [sp], 32
	.cfi_restore 30
	.cfi_restore 29
	.cfi_def_cfa_offset 0
	ret
	.cfi_endproc
.LFE5419:
	.size	_ZNSt7__cxx1111basic_regexIcNS_12regex_traitsIcEEED2Ev, .-_ZNSt7__cxx1111basic_regexIcNS_12regex_traitsIcEEED2Ev
	.weak	_ZNSt7__cxx1111basic_regexIcNS_12regex_traitsIcEEED1Ev
	.set	_ZNSt7__cxx1111basic_regexIcNS_12regex_traitsIcEEED1Ev,_ZNSt7__cxx1111basic_regexIcNS_12regex_traitsIcEEED2Ev
	.section	.text._ZNSt7__cxx1113match_resultsIN9__gnu_cxx17__normal_iteratorIPKcNS_12basic_stringIcSt11char_traitsIcESaIcEEEEESaINS_9sub_matchISA_EEEEC2Ev,"axG",@progbits,_ZNSt7__cxx1113match_resultsIN9__gnu_cxx17__normal_iteratorIPKcNS_12basic_stringIcSt11char_traitsIcESaIcEEEEESaINS_9sub_matchISA_EEEEC5Ev,comdat
	.align	2
	.weak	_ZNSt7__cxx1113match_resultsIN9__gnu_cxx17__normal_iteratorIPKcNS_12basic_stringIcSt11char_traitsIcESaIcEEEEESaINS_9sub_matchISA_EEEEC2Ev
	.type	_ZNSt7__cxx1113match_resultsIN9__gnu_cxx17__normal_iteratorIPKcNS_12basic_stringIcSt11char_traitsIcESaIcEEEEESaINS_9sub_matchISA_EEEEC2Ev, %function
_ZNSt7__cxx1113match_resultsIN9__gnu_cxx17__normal_iteratorIPKcNS_12basic_stringIcSt11char_traitsIcESaIcEEEEESaINS_9sub_matchISA_EEEEC2Ev:
.LFB5422:
	.cfi_startproc
	stp	x29, x30, [sp, -48]!
	.cfi_def_cfa_offset 48
	.cfi_offset 29, -48
	.cfi_offset 30, -40
	mov	x29, sp
	str	x0, [sp, 24]
	adrp	x0, :got:__stack_chk_guard
	ldr	x0, [x0, #:got_lo12:__stack_chk_guard]
	ldr	x1, [x0]
	str	x1, [sp, 40]
	mov	x1, 0
	add	x0, sp, 32
	bl	_ZNSaINSt7__cxx119sub_matchIN9__gnu_cxx17__normal_iteratorIPKcNS_12basic_stringIcSt11char_traitsIcESaIcEEEEEEEEC1Ev
	add	x0, sp, 32
	mov	x1, x0
	ldr	x0, [sp, 24]
	bl	_ZNSt7__cxx1113match_resultsIN9__gnu_cxx17__normal_iteratorIPKcNS_12basic_stringIcSt11char_traitsIcESaIcEEEEESaINS_9sub_matchISA_EEEEC1ERKSD_
	add	x0, sp, 32
	bl	_ZNSaINSt7__cxx119sub_matchIN9__gnu_cxx17__normal_iteratorIPKcNS_12basic_stringIcSt11char_traitsIcESaIcEEEEEEEED1Ev
	nop
	adrp	x0, :got:__stack_chk_guard
	ldr	x0, [x0, #:got_lo12:__stack_chk_guard]
	ldr	x2, [sp, 40]
	ldr	x1, [x0]
	subs	x2, x2, x1
	mov	x1, 0
	beq	.L193
	bl	__stack_chk_fail
.L193:
	ldp	x29, x30, [sp], 48
	.cfi_restore 30
	.cfi_restore 29
	.cfi_def_cfa_offset 0
	ret
	.cfi_endproc
.LFE5422:
	.size	_ZNSt7__cxx1113match_resultsIN9__gnu_cxx17__normal_iteratorIPKcNS_12basic_stringIcSt11char_traitsIcESaIcEEEEESaINS_9sub_matchISA_EEEEC2Ev, .-_ZNSt7__cxx1113match_resultsIN9__gnu_cxx17__normal_iteratorIPKcNS_12basic_stringIcSt11char_traitsIcESaIcEEEEESaINS_9sub_matchISA_EEEEC2Ev
	.weak	_ZNSt7__cxx1113match_resultsIN9__gnu_cxx17__normal_iteratorIPKcNS_12basic_stringIcSt11char_traitsIcESaIcEEEEESaINS_9sub_matchISA_EEEEC1Ev
	.set	_ZNSt7__cxx1113match_resultsIN9__gnu_cxx17__normal_iteratorIPKcNS_12basic_stringIcSt11char_traitsIcESaIcEEEEESaINS_9sub_matchISA_EEEEC1Ev,_ZNSt7__cxx1113match_resultsIN9__gnu_cxx17__normal_iteratorIPKcNS_12basic_stringIcSt11char_traitsIcESaIcEEEEESaINS_9sub_matchISA_EEEEC2Ev
	.section	.text._ZNSt6vectorINSt7__cxx119sub_matchIN9__gnu_cxx17__normal_iteratorIPKcNS0_12basic_stringIcSt11char_traitsIcESaIcEEEEEEESaISC_EED2Ev,"axG",@progbits,_ZNSt6vectorINSt7__cxx119sub_matchIN9__gnu_cxx17__normal_iteratorIPKcNS0_12basic_stringIcSt11char_traitsIcESaIcEEEEEEESaISC_EED5Ev,comdat
	.align	2
	.weak	_ZNSt6vectorINSt7__cxx119sub_matchIN9__gnu_cxx17__normal_iteratorIPKcNS0_12basic_stringIcSt11char_traitsIcESaIcEEEEEEESaISC_EED2Ev
	.type	_ZNSt6vectorINSt7__cxx119sub_matchIN9__gnu_cxx17__normal_iteratorIPKcNS0_12basic_stringIcSt11char_traitsIcESaIcEEEEEEESaISC_EED2Ev, %function
_ZNSt6vectorINSt7__cxx119sub_matchIN9__gnu_cxx17__normal_iteratorIPKcNS0_12basic_stringIcSt11char_traitsIcESaIcEEEEEEESaISC_EED2Ev:
.LFB5425:
	.cfi_startproc
	.cfi_personality 0x9b,DW.ref.__gxx_personality_v0
	.cfi_lsda 0x1b,.LLSDA5425
	stp	x29, x30, [sp, -48]!
	.cfi_def_cfa_offset 48
	.cfi_offset 29, -48
	.cfi_offset 30, -40
	mov	x29, sp
	stp	x19, x20, [sp, 16]
	.cfi_offset 19, -32
	.cfi_offset 20, -24
	str	x0, [sp, 40]
	ldr	x0, [sp, 40]
	ldr	x19, [x0]
	ldr	x0, [sp, 40]
	ldr	x20, [x0, 8]
	ldr	x0, [sp, 40]
	bl	_ZNSt12_Vector_baseINSt7__cxx119sub_matchIN9__gnu_cxx17__normal_iteratorIPKcNS0_12basic_stringIcSt11char_traitsIcESaIcEEEEEEESaISC_EE19_M_get_Tp_allocatorEv
	mov	x2, x0
	mov	x1, x20
	mov	x0, x19
	bl	_ZSt8_DestroyIPNSt7__cxx119sub_matchIN9__gnu_cxx17__normal_iteratorIPKcNS0_12basic_stringIcSt11char_traitsIcESaIcEEEEEEESC_EvT_SE_RSaIT0_E
	ldr	x0, [sp, 40]
	bl	_ZNSt12_Vector_baseINSt7__cxx119sub_matchIN9__gnu_cxx17__normal_iteratorIPKcNS0_12basic_stringIcSt11char_traitsIcESaIcEEEEEEESaISC_EED2Ev
	nop
	ldp	x19, x20, [sp, 16]
	ldp	x29, x30, [sp], 48
	.cfi_restore 30
	.cfi_restore 29
	.cfi_restore 19
	.cfi_restore 20
	.cfi_def_cfa_offset 0
	ret
	.cfi_endproc
.LFE5425:
	.section	.gcc_except_table
.LLSDA5425:
	.byte	0xff
	.byte	0xff
	.byte	0x1
	.uleb128 .LLSDACSE5425-.LLSDACSB5425
.LLSDACSB5425:
.LLSDACSE5425:
	.section	.text._ZNSt6vectorINSt7__cxx119sub_matchIN9__gnu_cxx17__normal_iteratorIPKcNS0_12basic_stringIcSt11char_traitsIcESaIcEEEEEEESaISC_EED2Ev,"axG",@progbits,_ZNSt6vectorINSt7__cxx119sub_matchIN9__gnu_cxx17__normal_iteratorIPKcNS0_12basic_stringIcSt11char_traitsIcESaIcEEEEEEESaISC_EED5Ev,comdat
	.size	_ZNSt6vectorINSt7__cxx119sub_matchIN9__gnu_cxx17__normal_iteratorIPKcNS0_12basic_stringIcSt11char_traitsIcESaIcEEEEEEESaISC_EED2Ev, .-_ZNSt6vectorINSt7__cxx119sub_matchIN9__gnu_cxx17__normal_iteratorIPKcNS0_12basic_stringIcSt11char_traitsIcESaIcEEEEEEESaISC_EED2Ev
	.weak	_ZNSt6vectorINSt7__cxx119sub_matchIN9__gnu_cxx17__normal_iteratorIPKcNS0_12basic_stringIcSt11char_traitsIcESaIcEEEEEEESaISC_EED1Ev
	.set	_ZNSt6vectorINSt7__cxx119sub_matchIN9__gnu_cxx17__normal_iteratorIPKcNS0_12basic_stringIcSt11char_traitsIcESaIcEEEEEEESaISC_EED1Ev,_ZNSt6vectorINSt7__cxx119sub_matchIN9__gnu_cxx17__normal_iteratorIPKcNS0_12basic_stringIcSt11char_traitsIcESaIcEEEEEEESaISC_EED2Ev
	.section	.text._ZSt12regex_searchISt11char_traitsIcESaIcESaINSt7__cxx119sub_matchIN9__gnu_cxx17__normal_iteratorIPKcNS3_12basic_stringIcS1_S2_EEEEEEEcNS3_12regex_traitsIcEEEbRKNS9_IT2_T_T0_EERNS3_13match_resultsINSJ_14const_iteratorET1_EERKNS3_11basic_regexISG_T3_EENSt15regex_constants15match_flag_typeE,"axG",@progbits,_ZSt12regex_searchISt11char_traitsIcESaIcESaINSt7__cxx119sub_matchIN9__gnu_cxx17__normal_iteratorIPKcNS3_12basic_stringIcS1_S2_EEEEEEEcNS3_12regex_traitsIcEEEbRKNS9_IT2_T_T0_EERNS3_13match_resultsINSJ_14const_iteratorET1_EERKNS3_11basic_regexISG_T3_EENSt15regex_constants15match_flag_typeE,comdat
	.align	2
	.weak	_ZSt12regex_searchISt11char_traitsIcESaIcESaINSt7__cxx119sub_matchIN9__gnu_cxx17__normal_iteratorIPKcNS3_12basic_stringIcS1_S2_EEEEEEEcNS3_12regex_traitsIcEEEbRKNS9_IT2_T_T0_EERNS3_13match_resultsINSJ_14const_iteratorET1_EERKNS3_11basic_regexISG_T3_EENSt15regex_constants15match_flag_typeE
	.type	_ZSt12regex_searchISt11char_traitsIcESaIcESaINSt7__cxx119sub_matchIN9__gnu_cxx17__normal_iteratorIPKcNS3_12basic_stringIcS1_S2_EEEEEEEcNS3_12regex_traitsIcEEEbRKNS9_IT2_T_T0_EERNS3_13match_resultsINSJ_14const_iteratorET1_EERKNS3_11basic_regexISG_T3_EENSt15regex_constants15match_flag_typeE, %function
_ZSt12regex_searchISt11char_traitsIcESaIcESaINSt7__cxx119sub_matchIN9__gnu_cxx17__normal_iteratorIPKcNS3_12basic_stringIcS1_S2_EEEEEEEcNS3_12regex_traitsIcEEEbRKNS9_IT2_T_T0_EERNS3_13match_resultsINSJ_14const_iteratorET1_EERKNS3_11basic_regexISG_T3_EENSt15regex_constants15match_flag_typeE:
.LFB5427:
	.cfi_startproc
	stp	x29, x30, [sp, -64]!
	.cfi_def_cfa_offset 64
	.cfi_offset 29, -64
	.cfi_offset 30, -56
	mov	x29, sp
	str	x19, [sp, 16]
	.cfi_offset 19, -48
	str	x0, [sp, 56]
	str	x1, [sp, 48]
	str	x2, [sp, 40]
	str	w3, [sp, 36]
	ldr	x0, [sp, 56]
	bl	_ZNKSt7__cxx1112basic_stringIcSt11char_traitsIcESaIcEE5beginEv
	mov	x19, x0
	ldr	x0, [sp, 56]
	bl	_ZNKSt7__cxx1112basic_stringIcSt11char_traitsIcESaIcEE3endEv
	ldr	w4, [sp, 36]
	ldr	x3, [sp, 40]
	ldr	x2, [sp, 48]
	mov	x1, x0
	mov	x0, x19
	bl	_ZSt12regex_searchIN9__gnu_cxx17__normal_iteratorIPKcNSt7__cxx1112basic_stringIcSt11char_traitsIcESaIcEEEEESaINS4_9sub_matchISA_EEEcNS4_12regex_traitsIcEEEbT_SG_RNS4_13match_resultsISG_T0_EERKNS4_11basic_regexIT1_T2_EENSt15regex_constants15match_flag_typeE
	and	w0, w0, 255
	ldr	x19, [sp, 16]
	ldp	x29, x30, [sp], 64
	.cfi_restore 30
	.cfi_restore 29
	.cfi_restore 19
	.cfi_def_cfa_offset 0
	ret
	.cfi_endproc
.LFE5427:
	.size	_ZSt12regex_searchISt11char_traitsIcESaIcESaINSt7__cxx119sub_matchIN9__gnu_cxx17__normal_iteratorIPKcNS3_12basic_stringIcS1_S2_EEEEEEEcNS3_12regex_traitsIcEEEbRKNS9_IT2_T_T0_EERNS3_13match_resultsINSJ_14const_iteratorET1_EERKNS3_11basic_regexISG_T3_EENSt15regex_constants15match_flag_typeE, .-_ZSt12regex_searchISt11char_traitsIcESaIcESaINSt7__cxx119sub_matchIN9__gnu_cxx17__normal_iteratorIPKcNS3_12basic_stringIcS1_S2_EEEEEEEcNS3_12regex_traitsIcEEEbRKNS9_IT2_T_T0_EERNS3_13match_resultsINSJ_14const_iteratorET1_EERKNS3_11basic_regexISG_T3_EENSt15regex_constants15match_flag_typeE
	.section	.text._ZNKSt7__cxx1113match_resultsIN9__gnu_cxx17__normal_iteratorIPKcNS_12basic_stringIcSt11char_traitsIcESaIcEEEEESaINS_9sub_matchISA_EEEE6formatES4_NSt15regex_constants15match_flag_typeE,"axG",@progbits,_ZNKSt7__cxx1113match_resultsIN9__gnu_cxx17__normal_iteratorIPKcNS_12basic_stringIcSt11char_traitsIcESaIcEEEEESaINS_9sub_matchISA_EEEE6formatES4_NSt15regex_constants15match_flag_typeE,comdat
	.align	2
	.weak	_ZNKSt7__cxx1113match_resultsIN9__gnu_cxx17__normal_iteratorIPKcNS_12basic_stringIcSt11char_traitsIcESaIcEEEEESaINS_9sub_matchISA_EEEE6formatES4_NSt15regex_constants15match_flag_typeE
	.type	_ZNKSt7__cxx1113match_resultsIN9__gnu_cxx17__normal_iteratorIPKcNS_12basic_stringIcSt11char_traitsIcESaIcEEEEESaINS_9sub_matchISA_EEEE6formatES4_NSt15regex_constants15match_flag_typeE, %function
_ZNKSt7__cxx1113match_resultsIN9__gnu_cxx17__normal_iteratorIPKcNS_12basic_stringIcSt11char_traitsIcESaIcEEEEESaINS_9sub_matchISA_EEEE6formatES4_NSt15regex_constants15match_flag_typeE:
.LFB5429:
	.cfi_startproc
	.cfi_personality 0x9b,DW.ref.__gxx_personality_v0
	.cfi_lsda 0x1b,.LLSDA5429
	stp	x29, x30, [sp, -64]!
	.cfi_def_cfa_offset 64
	.cfi_offset 29, -64
	.cfi_offset 30, -56
	mov	x29, sp
	stp	x19, x20, [sp, 16]
	.cfi_offset 19, -48
	.cfi_offset 20, -40
	mov	x19, x8
	str	x0, [sp, 56]
	str	x1, [sp, 48]
	str	w2, [sp, 44]
	mov	x0, x19
	bl	_ZNSt7__cxx1112basic_stringIcSt11char_traitsIcESaIcEEC1Ev
	mov	x0, x19
.LEHB13:
	bl	_ZSt13back_inserterINSt7__cxx1112basic_stringIcSt11char_traitsIcESaIcEEEESt20back_insert_iteratorIT_ERS7_
	mov	x20, x0
	ldr	x0, [sp, 48]
	bl	_ZNSt11char_traitsIcE6lengthEPKc
	mov	x1, x0
	ldr	x0, [sp, 48]
	add	x0, x0, x1
	ldr	w4, [sp, 44]
	mov	x3, x0
	ldr	x2, [sp, 48]
	mov	x1, x20
	ldr	x0, [sp, 56]
	bl	_ZNKSt7__cxx1113match_resultsIN9__gnu_cxx17__normal_iteratorIPKcNS_12basic_stringIcSt11char_traitsIcESaIcEEEEESaINS_9sub_matchISA_EEEE6formatISt20back_insert_iteratorIS9_EEET_SI_S4_S4_NSt15regex_constants15match_flag_typeE
.LEHE13:
	b	.L201
.L200:
	mov	x20, x0
	mov	x0, x19
	bl	_ZNSt7__cxx1112basic_stringIcSt11char_traitsIcESaIcEED1Ev
	mov	x0, x20
.LEHB14:
	bl	_Unwind_Resume
.LEHE14:
.L201:
	mov	x0, x19
	ldp	x19, x20, [sp, 16]
	ldp	x29, x30, [sp], 64
	.cfi_restore 30
	.cfi_restore 29
	.cfi_restore 19
	.cfi_restore 20
	.cfi_def_cfa_offset 0
	ret
	.cfi_endproc
.LFE5429:
	.section	.gcc_except_table
.LLSDA5429:
	.byte	0xff
	.byte	0xff
	.byte	0x1
	.uleb128 .LLSDACSE5429-.LLSDACSB5429
.LLSDACSB5429:
	.uleb128 .LEHB13-.LFB5429
	.uleb128 .LEHE13-.LEHB13
	.uleb128 .L200-.LFB5429
	.uleb128 0
	.uleb128 .LEHB14-.LFB5429
	.uleb128 .LEHE14-.LEHB14
	.uleb128 0
	.uleb128 0
.LLSDACSE5429:
	.section	.text._ZNKSt7__cxx1113match_resultsIN9__gnu_cxx17__normal_iteratorIPKcNS_12basic_stringIcSt11char_traitsIcESaIcEEEEESaINS_9sub_matchISA_EEEE6formatES4_NSt15regex_constants15match_flag_typeE,"axG",@progbits,_ZNKSt7__cxx1113match_resultsIN9__gnu_cxx17__normal_iteratorIPKcNS_12basic_stringIcSt11char_traitsIcESaIcEEEEESaINS_9sub_matchISA_EEEE6formatES4_NSt15regex_constants15match_flag_typeE,comdat
	.size	_ZNKSt7__cxx1113match_resultsIN9__gnu_cxx17__normal_iteratorIPKcNS_12basic_stringIcSt11char_traitsIcESaIcEEEEESaINS_9sub_matchISA_EEEE6formatES4_NSt15regex_constants15match_flag_typeE, .-_ZNKSt7__cxx1113match_resultsIN9__gnu_cxx17__normal_iteratorIPKcNS_12basic_stringIcSt11char_traitsIcESaIcEEEEESaINS_9sub_matchISA_EEEE6formatES4_NSt15regex_constants15match_flag_typeE
	.section	.text._ZNSt7__cxx1112basic_stringIcSt11char_traitsIcESaIcEEC2IPcvEET_S7_RKS3_,"axG",@progbits,_ZNSt7__cxx1112basic_stringIcSt11char_traitsIcESaIcEEC5IPcvEET_S7_RKS3_,comdat
	.align	2
	.weak	_ZNSt7__cxx1112basic_stringIcSt11char_traitsIcESaIcEEC2IPcvEET_S7_RKS3_
	.type	_ZNSt7__cxx1112basic_stringIcSt11char_traitsIcESaIcEEC2IPcvEET_S7_RKS3_, %function
_ZNSt7__cxx1112basic_stringIcSt11char_traitsIcESaIcEEC2IPcvEET_S7_RKS3_:
.LFB5456:
	.cfi_startproc
	.cfi_personality 0x9b,DW.ref.__gxx_personality_v0
	.cfi_lsda 0x1b,.LLSDA5456
	stp	x29, x30, [sp, -64]!
	.cfi_def_cfa_offset 64
	.cfi_offset 29, -64
	.cfi_offset 30, -56
	mov	x29, sp
	str	x19, [sp, 16]
	.cfi_offset 19, -48
	str	x0, [sp, 56]
	str	x1, [sp, 48]
	str	x2, [sp, 40]
	str	x3, [sp, 32]
	ldr	x19, [sp, 56]
	ldr	x0, [sp, 56]
.LEHB15:
	bl	_ZNSt7__cxx1112basic_stringIcSt11char_traitsIcESaIcEE13_M_local_dataEv
	ldr	x2, [sp, 32]
	mov	x1, x0
	mov	x0, x19
	bl	_ZNSt7__cxx1112basic_stringIcSt11char_traitsIcESaIcEE12_Alloc_hiderC1EPcRKS3_
.LEHE15:
	ldr	x2, [sp, 40]
	ldr	x1, [sp, 48]
	ldr	x0, [sp, 56]
.LEHB16:
	bl	_ZNSt7__cxx1112basic_stringIcSt11char_traitsIcESaIcEE12_M_constructIPcEEvT_S7_
.LEHE16:
	b	.L205
.L204:
	mov	x19, x0
	ldr	x0, [sp, 56]
	bl	_ZNSt7__cxx1112basic_stringIcSt11char_traitsIcESaIcEE12_Alloc_hiderD1Ev
	mov	x0, x19
.LEHB17:
	bl	_Unwind_Resume
.LEHE17:
.L205:
	ldr	x19, [sp, 16]
	ldp	x29, x30, [sp], 64
	.cfi_restore 30
	.cfi_restore 29
	.cfi_restore 19
	.cfi_def_cfa_offset 0
	ret
	.cfi_endproc
.LFE5456:
	.section	.gcc_except_table
.LLSDA5456:
	.byte	0xff
	.byte	0xff
	.byte	0x1
	.uleb128 .LLSDACSE5456-.LLSDACSB5456
.LLSDACSB5456:
	.uleb128 .LEHB15-.LFB5456
	.uleb128 .LEHE15-.LEHB15
	.uleb128 0
	.uleb128 0
	.uleb128 .LEHB16-.LFB5456
	.uleb128 .LEHE16-.LEHB16
	.uleb128 .L204-.LFB5456
	.uleb128 0
	.uleb128 .LEHB17-.LFB5456
	.uleb128 .LEHE17-.LEHB17
	.uleb128 0
	.uleb128 0
.LLSDACSE5456:
	.section	.text._ZNSt7__cxx1112basic_stringIcSt11char_traitsIcESaIcEEC2IPcvEET_S7_RKS3_,"axG",@progbits,_ZNSt7__cxx1112basic_stringIcSt11char_traitsIcESaIcEEC5IPcvEET_S7_RKS3_,comdat
	.size	_ZNSt7__cxx1112basic_stringIcSt11char_traitsIcESaIcEEC2IPcvEET_S7_RKS3_, .-_ZNSt7__cxx1112basic_stringIcSt11char_traitsIcESaIcEEC2IPcvEET_S7_RKS3_
	.weak	_ZNSt7__cxx1112basic_stringIcSt11char_traitsIcESaIcEEC1IPcvEET_S7_RKS3_
	.set	_ZNSt7__cxx1112basic_stringIcSt11char_traitsIcESaIcEEC1IPcvEET_S7_RKS3_,_ZNSt7__cxx1112basic_stringIcSt11char_traitsIcESaIcEEC2IPcvEET_S7_RKS3_
	.section	.text._ZSt4moveIRNSt7__cxx1112basic_stringIcSt11char_traitsIcESaIcEEEEONSt16remove_referenceIT_E4typeEOS8_,"axG",@progbits,_ZSt4moveIRNSt7__cxx1112basic_stringIcSt11char_traitsIcESaIcEEEEONSt16remove_referenceIT_E4typeEOS8_,comdat
	.align	2
	.weak	_ZSt4moveIRNSt7__cxx1112basic_stringIcSt11char_traitsIcESaIcEEEEONSt16remove_referenceIT_E4typeEOS8_
	.type	_ZSt4moveIRNSt7__cxx1112basic_stringIcSt11char_traitsIcESaIcEEEEONSt16remove_referenceIT_E4typeEOS8_, %function
_ZSt4moveIRNSt7__cxx1112basic_stringIcSt11char_traitsIcESaIcEEEEONSt16remove_referenceIT_E4typeEOS8_:
.LFB5507:
	.cfi_startproc
	sub	sp, sp, #16
	.cfi_def_cfa_offset 16
	str	x0, [sp, 8]
	ldr	x0, [sp, 8]
	add	sp, sp, 16
	.cfi_def_cfa_offset 0
	ret
	.cfi_endproc
.LFE5507:
	.size	_ZSt4moveIRNSt7__cxx1112basic_stringIcSt11char_traitsIcESaIcEEEEONSt16remove_referenceIT_E4typeEOS8_, .-_ZSt4moveIRNSt7__cxx1112basic_stringIcSt11char_traitsIcESaIcEEEEONSt16remove_referenceIT_E4typeEOS8_
	.section	.text._ZNSaImEC2Ev,"axG",@progbits,_ZNSaImEC5Ev,comdat
	.align	2
	.weak	_ZNSaImEC2Ev
	.type	_ZNSaImEC2Ev, %function
_ZNSaImEC2Ev:
.LFB5517:
	.cfi_startproc
	stp	x29, x30, [sp, -32]!
	.cfi_def_cfa_offset 32
	.cfi_offset 29, -32
	.cfi_offset 30, -24
	mov	x29, sp
	str	x0, [sp, 24]
	ldr	x0, [sp, 24]
	bl	_ZN9__gnu_cxx13new_allocatorImEC2Ev
	nop
	ldp	x29, x30, [sp], 32
	.cfi_restore 30
	.cfi_restore 29
	.cfi_def_cfa_offset 0
	ret
	.cfi_endproc
.LFE5517:
	.size	_ZNSaImEC2Ev, .-_ZNSaImEC2Ev
	.weak	_ZNSaImEC1Ev
	.set	_ZNSaImEC1Ev,_ZNSaImEC2Ev
	.section	.text._ZNSt12_Vector_baseImSaImEE17_Vector_impl_dataC2Ev,"axG",@progbits,_ZNSt12_Vector_baseImSaImEE17_Vector_impl_dataC5Ev,comdat
	.align	2
	.weak	_ZNSt12_Vector_baseImSaImEE17_Vector_impl_dataC2Ev
	.type	_ZNSt12_Vector_baseImSaImEE17_Vector_impl_dataC2Ev, %function
_ZNSt12_Vector_baseImSaImEE17_Vector_impl_dataC2Ev:
.LFB5520:
	.cfi_startproc
	sub	sp, sp, #16
	.cfi_def_cfa_offset 16
	str	x0, [sp, 8]
	ldr	x0, [sp, 8]
	str	xzr, [x0]
	ldr	x0, [sp, 8]
	str	xzr, [x0, 8]
	ldr	x0, [sp, 8]
	str	xzr, [x0, 16]
	nop
	add	sp, sp, 16
	.cfi_def_cfa_offset 0
	ret
	.cfi_endproc
.LFE5520:
	.size	_ZNSt12_Vector_baseImSaImEE17_Vector_impl_dataC2Ev, .-_ZNSt12_Vector_baseImSaImEE17_Vector_impl_dataC2Ev
	.weak	_ZNSt12_Vector_baseImSaImEE17_Vector_impl_dataC1Ev
	.set	_ZNSt12_Vector_baseImSaImEE17_Vector_impl_dataC1Ev,_ZNSt12_Vector_baseImSaImEE17_Vector_impl_dataC2Ev
	.section	.text._ZN9__gnu_cxx13new_allocatorImED2Ev,"axG",@progbits,_ZN9__gnu_cxx13new_allocatorImED5Ev,comdat
	.align	2
	.weak	_ZN9__gnu_cxx13new_allocatorImED2Ev
	.type	_ZN9__gnu_cxx13new_allocatorImED2Ev, %function
_ZN9__gnu_cxx13new_allocatorImED2Ev:
.LFB5523:
	.cfi_startproc
	sub	sp, sp, #16
	.cfi_def_cfa_offset 16
	str	x0, [sp, 8]
	nop
	add	sp, sp, 16
	.cfi_def_cfa_offset 0
	ret
	.cfi_endproc
.LFE5523:
	.size	_ZN9__gnu_cxx13new_allocatorImED2Ev, .-_ZN9__gnu_cxx13new_allocatorImED2Ev
	.weak	_ZN9__gnu_cxx13new_allocatorImED1Ev
	.set	_ZN9__gnu_cxx13new_allocatorImED1Ev,_ZN9__gnu_cxx13new_allocatorImED2Ev
	.section	.text._ZNSt12_Vector_baseImSaImEE13_M_deallocateEPmm,"axG",@progbits,_ZNSt12_Vector_baseImSaImEE13_M_deallocateEPmm,comdat
	.align	2
	.weak	_ZNSt12_Vector_baseImSaImEE13_M_deallocateEPmm
	.type	_ZNSt12_Vector_baseImSaImEE13_M_deallocateEPmm, %function
_ZNSt12_Vector_baseImSaImEE13_M_deallocateEPmm:
.LFB5525:
	.cfi_startproc
	stp	x29, x30, [sp, -48]!
	.cfi_def_cfa_offset 48
	.cfi_offset 29, -48
	.cfi_offset 30, -40
	mov	x29, sp
	str	x0, [sp, 40]
	str	x1, [sp, 32]
	str	x2, [sp, 24]
	ldr	x0, [sp, 32]
	cmp	x0, 0
	beq	.L213
	ldr	x0, [sp, 40]
	ldr	x2, [sp, 24]
	ldr	x1, [sp, 32]
	bl	_ZNSt16allocator_traitsISaImEE10deallocateERS0_Pmm
.L213:
	nop
	ldp	x29, x30, [sp], 48
	.cfi_restore 30
	.cfi_restore 29
	.cfi_def_cfa_offset 0
	ret
	.cfi_endproc
.LFE5525:
	.size	_ZNSt12_Vector_baseImSaImEE13_M_deallocateEPmm, .-_ZNSt12_Vector_baseImSaImEE13_M_deallocateEPmm
	.section	.text._ZNSt12_Vector_baseImSaImEE19_M_get_Tp_allocatorEv,"axG",@progbits,_ZNSt12_Vector_baseImSaImEE19_M_get_Tp_allocatorEv,comdat
	.align	2
	.weak	_ZNSt12_Vector_baseImSaImEE19_M_get_Tp_allocatorEv
	.type	_ZNSt12_Vector_baseImSaImEE19_M_get_Tp_allocatorEv, %function
_ZNSt12_Vector_baseImSaImEE19_M_get_Tp_allocatorEv:
.LFB5526:
	.cfi_startproc
	sub	sp, sp, #16
	.cfi_def_cfa_offset 16
	str	x0, [sp, 8]
	ldr	x0, [sp, 8]
	add	sp, sp, 16
	.cfi_def_cfa_offset 0
	ret
	.cfi_endproc
.LFE5526:
	.size	_ZNSt12_Vector_baseImSaImEE19_M_get_Tp_allocatorEv, .-_ZNSt12_Vector_baseImSaImEE19_M_get_Tp_allocatorEv
	.section	.text._ZSt8_DestroyIPmmEvT_S1_RSaIT0_E,"axG",@progbits,_ZSt8_DestroyIPmmEvT_S1_RSaIT0_E,comdat
	.align	2
	.weak	_ZSt8_DestroyIPmmEvT_S1_RSaIT0_E
	.type	_ZSt8_DestroyIPmmEvT_S1_RSaIT0_E, %function
_ZSt8_DestroyIPmmEvT_S1_RSaIT0_E:
.LFB5527:
	.cfi_startproc
	stp	x29, x30, [sp, -48]!
	.cfi_def_cfa_offset 48
	.cfi_offset 29, -48
	.cfi_offset 30, -40
	mov	x29, sp
	str	x0, [sp, 40]
	str	x1, [sp, 32]
	str	x2, [sp, 24]
	ldr	x1, [sp, 32]
	ldr	x0, [sp, 40]
	bl	_ZSt8_DestroyIPmEvT_S1_
	nop
	ldp	x29, x30, [sp], 48
	.cfi_restore 30
	.cfi_restore 29
	.cfi_def_cfa_offset 0
	ret
	.cfi_endproc
.LFE5527:
	.size	_ZSt8_DestroyIPmmEvT_S1_RSaIT0_E, .-_ZSt8_DestroyIPmmEvT_S1_RSaIT0_E
	.section	.text._ZSt8distanceIPKcENSt15iterator_traitsIT_E15difference_typeES3_S3_,"axG",@progbits,_ZSt8distanceIPKcENSt15iterator_traitsIT_E15difference_typeES3_S3_,comdat
	.align	2
	.weak	_ZSt8distanceIPKcENSt15iterator_traitsIT_E15difference_typeES3_S3_
	.type	_ZSt8distanceIPKcENSt15iterator_traitsIT_E15difference_typeES3_S3_, %function
_ZSt8distanceIPKcENSt15iterator_traitsIT_E15difference_typeES3_S3_:
.LFB5529:
	.cfi_startproc
	stp	x29, x30, [sp, -48]!
	.cfi_def_cfa_offset 48
	.cfi_offset 29, -48
	.cfi_offset 30, -40
	mov	x29, sp
	stp	x19, x20, [sp, 16]
	.cfi_offset 19, -32
	.cfi_offset 20, -24
	str	x0, [sp, 40]
	str	x1, [sp, 32]
	ldr	x19, [sp, 40]
	add	x0, sp, 40
	bl	_ZSt19__iterator_categoryIPKcENSt15iterator_traitsIT_E17iterator_categoryERKS3_
	mov	w2, w20
	ldr	x1, [sp, 32]
	mov	x0, x19
	bl	_ZSt10__distanceIPKcENSt15iterator_traitsIT_E15difference_typeES3_S3_St26random_access_iterator_tag
	ldp	x19, x20, [sp, 16]
	ldp	x29, x30, [sp], 48
	.cfi_restore 30
	.cfi_restore 29
	.cfi_restore 19
	.cfi_restore 20
	.cfi_def_cfa_offset 0
	ret
	.cfi_endproc
.LFE5529:
	.size	_ZSt8distanceIPKcENSt15iterator_traitsIT_E15difference_typeES3_S3_, .-_ZSt8distanceIPKcENSt15iterator_traitsIT_E15difference_typeES3_S3_
	.section	.rodata
	.align	3
.LC8:
	.string	"basic_string::_M_construct null not valid"
	.section	.text._ZNSt7__cxx1112basic_stringIcSt11char_traitsIcESaIcEE12_M_constructIPKcEEvT_S8_St20forward_iterator_tag,"axG",@progbits,_ZNSt7__cxx1112basic_stringIcSt11char_traitsIcESaIcEE12_M_constructIPKcEEvT_S8_St20forward_iterator_tag,comdat
	.align	2
	.weak	_ZNSt7__cxx1112basic_stringIcSt11char_traitsIcESaIcEE12_M_constructIPKcEEvT_S8_St20forward_iterator_tag
	.type	_ZNSt7__cxx1112basic_stringIcSt11char_traitsIcESaIcEE12_M_constructIPKcEEvT_S8_St20forward_iterator_tag, %function
_ZNSt7__cxx1112basic_stringIcSt11char_traitsIcESaIcEE12_M_constructIPKcEEvT_S8_St20forward_iterator_tag:
.LFB5528:
	.cfi_startproc
	.cfi_personality 0x9b,DW.ref.__gxx_personality_v0
	.cfi_lsda 0x1b,.LLSDA5528
	stp	x29, x30, [sp, -80]!
	.cfi_def_cfa_offset 80
	.cfi_offset 29, -80
	.cfi_offset 30, -72
	mov	x29, sp
	str	x19, [sp, 16]
	.cfi_offset 19, -64
	str	x0, [sp, 56]
	str	x1, [sp, 48]
	str	x2, [sp, 40]
	strb	w3, [sp, 32]
	adrp	x0, :got:__stack_chk_guard
	ldr	x0, [x0, #:got_lo12:__stack_chk_guard]
	ldr	x1, [x0]
	str	x1, [sp, 72]
	mov	x1, 0
	ldr	x0, [sp, 48]
	bl	_ZN9__gnu_cxx17__is_null_pointerIKcEEbPT_
	and	w0, w0, 255
	cmp	w0, 0
	beq	.L220
	ldr	x1, [sp, 48]
	ldr	x0, [sp, 40]
	cmp	x1, x0
	beq	.L220
	mov	w0, 1
	b	.L221
.L220:
	mov	w0, 0
.L221:
	cmp	w0, 0
	beq	.L222
	adrp	x0, .LC8
	add	x0, x0, :lo12:.LC8
.LEHB18:
	bl	_ZSt19__throw_logic_errorPKc
.L222:
	ldr	x1, [sp, 40]
	ldr	x0, [sp, 48]
	bl	_ZSt8distanceIPKcENSt15iterator_traitsIT_E15difference_typeES3_S3_
	str	x0, [sp, 64]
	ldr	x0, [sp, 64]
	cmp	x0, 15
	bls	.L223
	add	x0, sp, 64
	mov	x2, 0
	mov	x1, x0
	ldr	x0, [sp, 56]
	bl	_ZNSt7__cxx1112basic_stringIcSt11char_traitsIcESaIcEE9_M_createERmm
	mov	x1, x0
	ldr	x0, [sp, 56]
	bl	_ZNSt7__cxx1112basic_stringIcSt11char_traitsIcESaIcEE7_M_dataEPc
	ldr	x0, [sp, 64]
	mov	x1, x0
	ldr	x0, [sp, 56]
	bl	_ZNSt7__cxx1112basic_stringIcSt11char_traitsIcESaIcEE11_M_capacityEm
.LEHE18:
.L223:
	ldr	x0, [sp, 56]
.LEHB19:
	bl	_ZNKSt7__cxx1112basic_stringIcSt11char_traitsIcESaIcEE7_M_dataEv
.LEHE19:
	ldr	x2, [sp, 40]
	ldr	x1, [sp, 48]
	bl	_ZNSt7__cxx1112basic_stringIcSt11char_traitsIcESaIcEE13_S_copy_charsEPcPKcS7_
	ldr	x0, [sp, 64]
	mov	x1, x0
	ldr	x0, [sp, 56]
.LEHB20:
	bl	_ZNSt7__cxx1112basic_stringIcSt11char_traitsIcESaIcEE13_M_set_lengthEm
.LEHE20:
	nop
	adrp	x0, :got:__stack_chk_guard
	ldr	x0, [x0, #:got_lo12:__stack_chk_guard]
	ldr	x2, [sp, 72]
	ldr	x1, [x0]
	subs	x2, x2, x1
	mov	x1, 0
	beq	.L226
	b	.L229
.L227:
	bl	__cxa_begin_catch
	ldr	x0, [sp, 56]
.LEHB21:
	bl	_ZNSt7__cxx1112basic_stringIcSt11char_traitsIcESaIcEE10_M_disposeEv
	bl	__cxa_rethrow
.LEHE21:
.L228:
	mov	x19, x0
	bl	__cxa_end_catch
	mov	x0, x19
.LEHB22:
	bl	_Unwind_Resume
.LEHE22:
.L229:
	bl	__stack_chk_fail
.L226:
	ldr	x19, [sp, 16]
	ldp	x29, x30, [sp], 80
	.cfi_restore 30
	.cfi_restore 29
	.cfi_restore 19
	.cfi_def_cfa_offset 0
	ret
	.cfi_endproc
.LFE5528:
	.section	.gcc_except_table
	.align	2
.LLSDA5528:
	.byte	0xff
	.byte	0x9b
	.uleb128 .LLSDATT5528-.LLSDATTD5528
.LLSDATTD5528:
	.byte	0x1
	.uleb128 .LLSDACSE5528-.LLSDACSB5528
.LLSDACSB5528:
	.uleb128 .LEHB18-.LFB5528
	.uleb128 .LEHE18-.LEHB18
	.uleb128 0
	.uleb128 0
	.uleb128 .LEHB19-.LFB5528
	.uleb128 .LEHE19-.LEHB19
	.uleb128 .L227-.LFB5528
	.uleb128 0x1
	.uleb128 .LEHB20-.LFB5528
	.uleb128 .LEHE20-.LEHB20
	.uleb128 0
	.uleb128 0
	.uleb128 .LEHB21-.LFB5528
	.uleb128 .LEHE21-.LEHB21
	.uleb128 .L228-.LFB5528
	.uleb128 0
	.uleb128 .LEHB22-.LFB5528
	.uleb128 .LEHE22-.LEHB22
	.uleb128 0
	.uleb128 0
.LLSDACSE5528:
	.byte	0x1
	.byte	0
	.align	2
	.4byte	0

.LLSDATT5528:
	.section	.text._ZNSt7__cxx1112basic_stringIcSt11char_traitsIcESaIcEE12_M_constructIPKcEEvT_S8_St20forward_iterator_tag,"axG",@progbits,_ZNSt7__cxx1112basic_stringIcSt11char_traitsIcESaIcEE12_M_constructIPKcEEvT_S8_St20forward_iterator_tag,comdat
	.size	_ZNSt7__cxx1112basic_stringIcSt11char_traitsIcESaIcEE12_M_constructIPKcEEvT_S8_St20forward_iterator_tag, .-_ZNSt7__cxx1112basic_stringIcSt11char_traitsIcESaIcEE12_M_constructIPKcEEvT_S8_St20forward_iterator_tag
	.section	.text._ZNSt7__cxx1111basic_regexIcNS_12regex_traitsIcEEEC2IPKcEET_S7_NSt15regex_constants18syntax_option_typeE,"axG",@progbits,_ZNSt7__cxx1111basic_regexIcNS_12regex_traitsIcEEEC5IPKcEET_S7_NSt15regex_constants18syntax_option_typeE,comdat
	.align	2
	.weak	_ZNSt7__cxx1111basic_regexIcNS_12regex_traitsIcEEEC2IPKcEET_S7_NSt15regex_constants18syntax_option_typeE
	.type	_ZNSt7__cxx1111basic_regexIcNS_12regex_traitsIcEEEC2IPKcEET_S7_NSt15regex_constants18syntax_option_typeE, %function
_ZNSt7__cxx1111basic_regexIcNS_12regex_traitsIcEEEC2IPKcEET_S7_NSt15regex_constants18syntax_option_typeE:
.LFB5531:
	.cfi_startproc
	.cfi_personality 0x9b,DW.ref.__gxx_personality_v0
	.cfi_lsda 0x1b,.LLSDA5531
	stp	x29, x30, [sp, -80]!
	.cfi_def_cfa_offset 80
	.cfi_offset 29, -80
	.cfi_offset 30, -72
	mov	x29, sp
	stp	x19, x20, [sp, 16]
	.cfi_offset 19, -64
	.cfi_offset 20, -56
	str	x0, [sp, 56]
	str	x1, [sp, 48]
	str	x2, [sp, 40]
	str	w3, [sp, 36]
	adrp	x0, :got:__stack_chk_guard
	ldr	x0, [x0, #:got_lo12:__stack_chk_guard]
	ldr	x1, [x0]
	str	x1, [sp, 72]
	mov	x1, 0
	add	x0, sp, 48
	bl	_ZSt4moveIRPKcEONSt16remove_referenceIT_E4typeEOS4_
	ldr	x19, [x0]
	add	x0, sp, 40
	bl	_ZSt4moveIRPKcEONSt16remove_referenceIT_E4typeEOS4_
	ldr	x20, [x0]
	add	x0, sp, 64
	bl	_ZNSt6localeC1Ev
	add	x0, sp, 64
	ldr	w4, [sp, 36]
	mov	x3, x0
	mov	x2, x20
	mov	x1, x19
	ldr	x0, [sp, 56]
.LEHB23:
	bl	_ZNSt7__cxx1111basic_regexIcNS_12regex_traitsIcEEEC1IPKcEET_S7_St6localeNSt15regex_constants18syntax_option_typeE
.LEHE23:
	add	x0, sp, 64
	bl	_ZNSt6localeD1Ev
	nop
	adrp	x0, :got:__stack_chk_guard
	ldr	x0, [x0, #:got_lo12:__stack_chk_guard]
	ldr	x2, [sp, 72]
	ldr	x1, [x0]
	subs	x2, x2, x1
	mov	x1, 0
	beq	.L232
	b	.L234
.L233:
	mov	x19, x0
	add	x0, sp, 64
	bl	_ZNSt6localeD1Ev
	mov	x0, x19
.LEHB24:
	bl	_Unwind_Resume
.LEHE24:
.L234:
	bl	__stack_chk_fail
.L232:
	ldp	x19, x20, [sp, 16]
	ldp	x29, x30, [sp], 80
	.cfi_restore 30
	.cfi_restore 29
	.cfi_restore 19
	.cfi_restore 20
	.cfi_def_cfa_offset 0
	ret
	.cfi_endproc
.LFE5531:
	.section	.gcc_except_table
.LLSDA5531:
	.byte	0xff
	.byte	0xff
	.byte	0x1
	.uleb128 .LLSDACSE5531-.LLSDACSB5531
.LLSDACSB5531:
	.uleb128 .LEHB23-.LFB5531
	.uleb128 .LEHE23-.LEHB23
	.uleb128 .L233-.LFB5531
	.uleb128 0
	.uleb128 .LEHB24-.LFB5531
	.uleb128 .LEHE24-.LEHB24
	.uleb128 0
	.uleb128 0
.LLSDACSE5531:
	.section	.text._ZNSt7__cxx1111basic_regexIcNS_12regex_traitsIcEEEC2IPKcEET_S7_NSt15regex_constants18syntax_option_typeE,"axG",@progbits,_ZNSt7__cxx1111basic_regexIcNS_12regex_traitsIcEEEC5IPKcEET_S7_NSt15regex_constants18syntax_option_typeE,comdat
	.size	_ZNSt7__cxx1111basic_regexIcNS_12regex_traitsIcEEEC2IPKcEET_S7_NSt15regex_constants18syntax_option_typeE, .-_ZNSt7__cxx1111basic_regexIcNS_12regex_traitsIcEEEC2IPKcEET_S7_NSt15regex_constants18syntax_option_typeE
	.weak	_ZNSt7__cxx1111basic_regexIcNS_12regex_traitsIcEEEC1IPKcEET_S7_NSt15regex_constants18syntax_option_typeE
	.set	_ZNSt7__cxx1111basic_regexIcNS_12regex_traitsIcEEEC1IPKcEET_S7_NSt15regex_constants18syntax_option_typeE,_ZNSt7__cxx1111basic_regexIcNS_12regex_traitsIcEEEC2IPKcEET_S7_NSt15regex_constants18syntax_option_typeE
	.section	.text._ZNSt14__shared_countILN9__gnu_cxx12_Lock_policyE2EED2Ev,"axG",@progbits,_ZNSt14__shared_countILN9__gnu_cxx12_Lock_policyE2EED5Ev,comdat
	.align	2
	.weak	_ZNSt14__shared_countILN9__gnu_cxx12_Lock_policyE2EED2Ev
	.type	_ZNSt14__shared_countILN9__gnu_cxx12_Lock_policyE2EED2Ev, %function
_ZNSt14__shared_countILN9__gnu_cxx12_Lock_policyE2EED2Ev:
.LFB5534:
	.cfi_startproc
	stp	x29, x30, [sp, -32]!
	.cfi_def_cfa_offset 32
	.cfi_offset 29, -32
	.cfi_offset 30, -24
	mov	x29, sp
	str	x0, [sp, 24]
	ldr	x0, [sp, 24]
	ldr	x0, [x0]
	cmp	x0, 0
	beq	.L237
	ldr	x0, [sp, 24]
	ldr	x0, [x0]
	bl	_ZNSt16_Sp_counted_baseILN9__gnu_cxx12_Lock_policyE2EE10_M_releaseEv
.L237:
	nop
	ldp	x29, x30, [sp], 32
	.cfi_restore 30
	.cfi_restore 29
	.cfi_def_cfa_offset 0
	ret
	.cfi_endproc
.LFE5534:
	.size	_ZNSt14__shared_countILN9__gnu_cxx12_Lock_policyE2EED2Ev, .-_ZNSt14__shared_countILN9__gnu_cxx12_Lock_policyE2EED2Ev
	.weak	_ZNSt14__shared_countILN9__gnu_cxx12_Lock_policyE2EED1Ev
	.set	_ZNSt14__shared_countILN9__gnu_cxx12_Lock_policyE2EED1Ev,_ZNSt14__shared_countILN9__gnu_cxx12_Lock_policyE2EED2Ev
	.section	.text._ZNSaINSt7__cxx119sub_matchIN9__gnu_cxx17__normal_iteratorIPKcNS_12basic_stringIcSt11char_traitsIcESaIcEEEEEEEEC2Ev,"axG",@progbits,_ZNSaINSt7__cxx119sub_matchIN9__gnu_cxx17__normal_iteratorIPKcNS_12basic_stringIcSt11char_traitsIcESaIcEEEEEEEEC5Ev,comdat
	.align	2
	.weak	_ZNSaINSt7__cxx119sub_matchIN9__gnu_cxx17__normal_iteratorIPKcNS_12basic_stringIcSt11char_traitsIcESaIcEEEEEEEEC2Ev
	.type	_ZNSaINSt7__cxx119sub_matchIN9__gnu_cxx17__normal_iteratorIPKcNS_12basic_stringIcSt11char_traitsIcESaIcEEEEEEEEC2Ev, %function
_ZNSaINSt7__cxx119sub_matchIN9__gnu_cxx17__normal_iteratorIPKcNS_12basic_stringIcSt11char_traitsIcESaIcEEEEEEEEC2Ev:
.LFB5537:
	.cfi_startproc
	stp	x29, x30, [sp, -32]!
	.cfi_def_cfa_offset 32
	.cfi_offset 29, -32
	.cfi_offset 30, -24
	mov	x29, sp
	str	x0, [sp, 24]
	ldr	x0, [sp, 24]
	bl	_ZN9__gnu_cxx13new_allocatorINSt7__cxx119sub_matchINS_17__normal_iteratorIPKcNS1_12basic_stringIcSt11char_traitsIcESaIcEEEEEEEEC2Ev
	nop
	ldp	x29, x30, [sp], 32
	.cfi_restore 30
	.cfi_restore 29
	.cfi_def_cfa_offset 0
	ret
	.cfi_endproc
.LFE5537:
	.size	_ZNSaINSt7__cxx119sub_matchIN9__gnu_cxx17__normal_iteratorIPKcNS_12basic_stringIcSt11char_traitsIcESaIcEEEEEEEEC2Ev, .-_ZNSaINSt7__cxx119sub_matchIN9__gnu_cxx17__normal_iteratorIPKcNS_12basic_stringIcSt11char_traitsIcESaIcEEEEEEEEC2Ev
	.weak	_ZNSaINSt7__cxx119sub_matchIN9__gnu_cxx17__normal_iteratorIPKcNS_12basic_stringIcSt11char_traitsIcESaIcEEEEEEEEC1Ev
	.set	_ZNSaINSt7__cxx119sub_matchIN9__gnu_cxx17__normal_iteratorIPKcNS_12basic_stringIcSt11char_traitsIcESaIcEEEEEEEEC1Ev,_ZNSaINSt7__cxx119sub_matchIN9__gnu_cxx17__normal_iteratorIPKcNS_12basic_stringIcSt11char_traitsIcESaIcEEEEEEEEC2Ev
	.section	.text._ZNSaINSt7__cxx119sub_matchIN9__gnu_cxx17__normal_iteratorIPKcNS_12basic_stringIcSt11char_traitsIcESaIcEEEEEEEED2Ev,"axG",@progbits,_ZNSaINSt7__cxx119sub_matchIN9__gnu_cxx17__normal_iteratorIPKcNS_12basic_stringIcSt11char_traitsIcESaIcEEEEEEEED5Ev,comdat
	.align	2
	.weak	_ZNSaINSt7__cxx119sub_matchIN9__gnu_cxx17__normal_iteratorIPKcNS_12basic_stringIcSt11char_traitsIcESaIcEEEEEEEED2Ev
	.type	_ZNSaINSt7__cxx119sub_matchIN9__gnu_cxx17__normal_iteratorIPKcNS_12basic_stringIcSt11char_traitsIcESaIcEEEEEEEED2Ev, %function
_ZNSaINSt7__cxx119sub_matchIN9__gnu_cxx17__normal_iteratorIPKcNS_12basic_stringIcSt11char_traitsIcESaIcEEEEEEEED2Ev:
.LFB5540:
	.cfi_startproc
	stp	x29, x30, [sp, -32]!
	.cfi_def_cfa_offset 32
	.cfi_offset 29, -32
	.cfi_offset 30, -24
	mov	x29, sp
	str	x0, [sp, 24]
	ldr	x0, [sp, 24]
	bl	_ZN9__gnu_cxx13new_allocatorINSt7__cxx119sub_matchINS_17__normal_iteratorIPKcNS1_12basic_stringIcSt11char_traitsIcESaIcEEEEEEEED2Ev
	nop
	ldp	x29, x30, [sp], 32
	.cfi_restore 30
	.cfi_restore 29
	.cfi_def_cfa_offset 0
	ret
	.cfi_endproc
.LFE5540:
	.size	_ZNSaINSt7__cxx119sub_matchIN9__gnu_cxx17__normal_iteratorIPKcNS_12basic_stringIcSt11char_traitsIcESaIcEEEEEEEED2Ev, .-_ZNSaINSt7__cxx119sub_matchIN9__gnu_cxx17__normal_iteratorIPKcNS_12basic_stringIcSt11char_traitsIcESaIcEEEEEEEED2Ev
	.weak	_ZNSaINSt7__cxx119sub_matchIN9__gnu_cxx17__normal_iteratorIPKcNS_12basic_stringIcSt11char_traitsIcESaIcEEEEEEEED1Ev
	.set	_ZNSaINSt7__cxx119sub_matchIN9__gnu_cxx17__normal_iteratorIPKcNS_12basic_stringIcSt11char_traitsIcESaIcEEEEEEEED1Ev,_ZNSaINSt7__cxx119sub_matchIN9__gnu_cxx17__normal_iteratorIPKcNS_12basic_stringIcSt11char_traitsIcESaIcEEEEEEEED2Ev
	.section	.text._ZNSt7__cxx1113match_resultsIN9__gnu_cxx17__normal_iteratorIPKcNS_12basic_stringIcSt11char_traitsIcESaIcEEEEESaINS_9sub_matchISA_EEEEC2ERKSD_,"axG",@progbits,_ZNSt7__cxx1113match_resultsIN9__gnu_cxx17__normal_iteratorIPKcNS_12basic_stringIcSt11char_traitsIcESaIcEEEEESaINS_9sub_matchISA_EEEEC5ERKSD_,comdat
	.align	2
	.weak	_ZNSt7__cxx1113match_resultsIN9__gnu_cxx17__normal_iteratorIPKcNS_12basic_stringIcSt11char_traitsIcESaIcEEEEESaINS_9sub_matchISA_EEEEC2ERKSD_
	.type	_ZNSt7__cxx1113match_resultsIN9__gnu_cxx17__normal_iteratorIPKcNS_12basic_stringIcSt11char_traitsIcESaIcEEEEESaINS_9sub_matchISA_EEEEC2ERKSD_, %function
_ZNSt7__cxx1113match_resultsIN9__gnu_cxx17__normal_iteratorIPKcNS_12basic_stringIcSt11char_traitsIcESaIcEEEEESaINS_9sub_matchISA_EEEEC2ERKSD_:
.LFB5543:
	.cfi_startproc
	stp	x29, x30, [sp, -32]!
	.cfi_def_cfa_offset 32
	.cfi_offset 29, -32
	.cfi_offset 30, -24
	mov	x29, sp
	str	x0, [sp, 24]
	str	x1, [sp, 16]
	ldr	x0, [sp, 24]
	ldr	x1, [sp, 16]
	bl	_ZNSt6vectorINSt7__cxx119sub_matchIN9__gnu_cxx17__normal_iteratorIPKcNS0_12basic_stringIcSt11char_traitsIcESaIcEEEEEEESaISC_EEC2ERKSD_
	ldr	x0, [sp, 24]
	add	x0, x0, 24
	bl	_ZN9__gnu_cxx17__normal_iteratorIPKcNSt7__cxx1112basic_stringIcSt11char_traitsIcESaIcEEEEC1Ev
	nop
	ldp	x29, x30, [sp], 32
	.cfi_restore 30
	.cfi_restore 29
	.cfi_def_cfa_offset 0
	ret
	.cfi_endproc
.LFE5543:
	.size	_ZNSt7__cxx1113match_resultsIN9__gnu_cxx17__normal_iteratorIPKcNS_12basic_stringIcSt11char_traitsIcESaIcEEEEESaINS_9sub_matchISA_EEEEC2ERKSD_, .-_ZNSt7__cxx1113match_resultsIN9__gnu_cxx17__normal_iteratorIPKcNS_12basic_stringIcSt11char_traitsIcESaIcEEEEESaINS_9sub_matchISA_EEEEC2ERKSD_
	.weak	_ZNSt7__cxx1113match_resultsIN9__gnu_cxx17__normal_iteratorIPKcNS_12basic_stringIcSt11char_traitsIcESaIcEEEEESaINS_9sub_matchISA_EEEEC1ERKSD_
	.set	_ZNSt7__cxx1113match_resultsIN9__gnu_cxx17__normal_iteratorIPKcNS_12basic_stringIcSt11char_traitsIcESaIcEEEEESaINS_9sub_matchISA_EEEEC1ERKSD_,_ZNSt7__cxx1113match_resultsIN9__gnu_cxx17__normal_iteratorIPKcNS_12basic_stringIcSt11char_traitsIcESaIcEEEEESaINS_9sub_matchISA_EEEEC2ERKSD_
	.section	.text._ZNSt12_Vector_baseINSt7__cxx119sub_matchIN9__gnu_cxx17__normal_iteratorIPKcNS0_12basic_stringIcSt11char_traitsIcESaIcEEEEEEESaISC_EE12_Vector_implD2Ev,"axG",@progbits,_ZNSt12_Vector_baseINSt7__cxx119sub_matchIN9__gnu_cxx17__normal_iteratorIPKcNS0_12basic_stringIcSt11char_traitsIcESaIcEEEEEEESaISC_EE12_Vector_implD5Ev,comdat
	.align	2
	.weak	_ZNSt12_Vector_baseINSt7__cxx119sub_matchIN9__gnu_cxx17__normal_iteratorIPKcNS0_12basic_stringIcSt11char_traitsIcESaIcEEEEEEESaISC_EE12_Vector_implD2Ev
	.type	_ZNSt12_Vector_baseINSt7__cxx119sub_matchIN9__gnu_cxx17__normal_iteratorIPKcNS0_12basic_stringIcSt11char_traitsIcESaIcEEEEEEESaISC_EE12_Vector_implD2Ev, %function
_ZNSt12_Vector_baseINSt7__cxx119sub_matchIN9__gnu_cxx17__normal_iteratorIPKcNS0_12basic_stringIcSt11char_traitsIcESaIcEEEEEEESaISC_EE12_Vector_implD2Ev:
.LFB5547:
	.cfi_startproc
	stp	x29, x30, [sp, -32]!
	.cfi_def_cfa_offset 32
	.cfi_offset 29, -32
	.cfi_offset 30, -24
	mov	x29, sp
	str	x0, [sp, 24]
	ldr	x0, [sp, 24]
	bl	_ZNSaINSt7__cxx119sub_matchIN9__gnu_cxx17__normal_iteratorIPKcNS_12basic_stringIcSt11char_traitsIcESaIcEEEEEEEED2Ev
	nop
	ldp	x29, x30, [sp], 32
	.cfi_restore 30
	.cfi_restore 29
	.cfi_def_cfa_offset 0
	ret
	.cfi_endproc
.LFE5547:
	.size	_ZNSt12_Vector_baseINSt7__cxx119sub_matchIN9__gnu_cxx17__normal_iteratorIPKcNS0_12basic_stringIcSt11char_traitsIcESaIcEEEEEEESaISC_EE12_Vector_implD2Ev, .-_ZNSt12_Vector_baseINSt7__cxx119sub_matchIN9__gnu_cxx17__normal_iteratorIPKcNS0_12basic_stringIcSt11char_traitsIcESaIcEEEEEEESaISC_EE12_Vector_implD2Ev
	.weak	_ZNSt12_Vector_baseINSt7__cxx119sub_matchIN9__gnu_cxx17__normal_iteratorIPKcNS0_12basic_stringIcSt11char_traitsIcESaIcEEEEEEESaISC_EE12_Vector_implD1Ev
	.set	_ZNSt12_Vector_baseINSt7__cxx119sub_matchIN9__gnu_cxx17__normal_iteratorIPKcNS0_12basic_stringIcSt11char_traitsIcESaIcEEEEEEESaISC_EE12_Vector_implD1Ev,_ZNSt12_Vector_baseINSt7__cxx119sub_matchIN9__gnu_cxx17__normal_iteratorIPKcNS0_12basic_stringIcSt11char_traitsIcESaIcEEEEEEESaISC_EE12_Vector_implD2Ev
	.section	.text._ZNSt12_Vector_baseINSt7__cxx119sub_matchIN9__gnu_cxx17__normal_iteratorIPKcNS0_12basic_stringIcSt11char_traitsIcESaIcEEEEEEESaISC_EED2Ev,"axG",@progbits,_ZNSt12_Vector_baseINSt7__cxx119sub_matchIN9__gnu_cxx17__normal_iteratorIPKcNS0_12basic_stringIcSt11char_traitsIcESaIcEEEEEEESaISC_EED5Ev,comdat
	.align	2
	.weak	_ZNSt12_Vector_baseINSt7__cxx119sub_matchIN9__gnu_cxx17__normal_iteratorIPKcNS0_12basic_stringIcSt11char_traitsIcESaIcEEEEEEESaISC_EED2Ev
	.type	_ZNSt12_Vector_baseINSt7__cxx119sub_matchIN9__gnu_cxx17__normal_iteratorIPKcNS0_12basic_stringIcSt11char_traitsIcESaIcEEEEEEESaISC_EED2Ev, %function
_ZNSt12_Vector_baseINSt7__cxx119sub_matchIN9__gnu_cxx17__normal_iteratorIPKcNS0_12basic_stringIcSt11char_traitsIcESaIcEEEEEEESaISC_EED2Ev:
.LFB5549:
	.cfi_startproc
	.cfi_personality 0x9b,DW.ref.__gxx_personality_v0
	.cfi_lsda 0x1b,.LLSDA5549
	stp	x29, x30, [sp, -32]!
	.cfi_def_cfa_offset 32
	.cfi_offset 29, -32
	.cfi_offset 30, -24
	mov	x29, sp
	str	x0, [sp, 24]
	ldr	x0, [sp, 24]
	ldr	x3, [x0]
	ldr	x0, [sp, 24]
	ldr	x1, [x0, 16]
	ldr	x0, [sp, 24]
	ldr	x0, [x0]
	sub	x0, x1, x0
	asr	x1, x0, 3
	mov	x0, -6148914691236517206
	movk	x0, 0xaaab, lsl 0
	mul	x0, x1, x0
	mov	x2, x0
	mov	x1, x3
	ldr	x0, [sp, 24]
	bl	_ZNSt12_Vector_baseINSt7__cxx119sub_matchIN9__gnu_cxx17__normal_iteratorIPKcNS0_12basic_stringIcSt11char_traitsIcESaIcEEEEEEESaISC_EE13_M_deallocateEPSC_m
	ldr	x0, [sp, 24]
	bl	_ZNSt12_Vector_baseINSt7__cxx119sub_matchIN9__gnu_cxx17__normal_iteratorIPKcNS0_12basic_stringIcSt11char_traitsIcESaIcEEEEEEESaISC_EE12_Vector_implD1Ev
	nop
	ldp	x29, x30, [sp], 32
	.cfi_restore 30
	.cfi_restore 29
	.cfi_def_cfa_offset 0
	ret
	.cfi_endproc
.LFE5549:
	.section	.gcc_except_table
.LLSDA5549:
	.byte	0xff
	.byte	0xff
	.byte	0x1
	.uleb128 .LLSDACSE5549-.LLSDACSB5549
.LLSDACSB5549:
.LLSDACSE5549:
	.section	.text._ZNSt12_Vector_baseINSt7__cxx119sub_matchIN9__gnu_cxx17__normal_iteratorIPKcNS0_12basic_stringIcSt11char_traitsIcESaIcEEEEEEESaISC_EED2Ev,"axG",@progbits,_ZNSt12_Vector_baseINSt7__cxx119sub_matchIN9__gnu_cxx17__normal_iteratorIPKcNS0_12basic_stringIcSt11char_traitsIcESaIcEEEEEEESaISC_EED5Ev,comdat
	.size	_ZNSt12_Vector_baseINSt7__cxx119sub_matchIN9__gnu_cxx17__normal_iteratorIPKcNS0_12basic_stringIcSt11char_traitsIcESaIcEEEEEEESaISC_EED2Ev, .-_ZNSt12_Vector_baseINSt7__cxx119sub_matchIN9__gnu_cxx17__normal_iteratorIPKcNS0_12basic_stringIcSt11char_traitsIcESaIcEEEEEEESaISC_EED2Ev
	.weak	_ZNSt12_Vector_baseINSt7__cxx119sub_matchIN9__gnu_cxx17__normal_iteratorIPKcNS0_12basic_stringIcSt11char_traitsIcESaIcEEEEEEESaISC_EED1Ev
	.set	_ZNSt12_Vector_baseINSt7__cxx119sub_matchIN9__gnu_cxx17__normal_iteratorIPKcNS0_12basic_stringIcSt11char_traitsIcESaIcEEEEEEESaISC_EED1Ev,_ZNSt12_Vector_baseINSt7__cxx119sub_matchIN9__gnu_cxx17__normal_iteratorIPKcNS0_12basic_stringIcSt11char_traitsIcESaIcEEEEEEESaISC_EED2Ev
	.section	.text._ZNSt12_Vector_baseINSt7__cxx119sub_matchIN9__gnu_cxx17__normal_iteratorIPKcNS0_12basic_stringIcSt11char_traitsIcESaIcEEEEEEESaISC_EE19_M_get_Tp_allocatorEv,"axG",@progbits,_ZNSt12_Vector_baseINSt7__cxx119sub_matchIN9__gnu_cxx17__normal_iteratorIPKcNS0_12basic_stringIcSt11char_traitsIcESaIcEEEEEEESaISC_EE19_M_get_Tp_allocatorEv,comdat
	.align	2
	.weak	_ZNSt12_Vector_baseINSt7__cxx119sub_matchIN9__gnu_cxx17__normal_iteratorIPKcNS0_12basic_stringIcSt11char_traitsIcESaIcEEEEEEESaISC_EE19_M_get_Tp_allocatorEv
	.type	_ZNSt12_Vector_baseINSt7__cxx119sub_matchIN9__gnu_cxx17__normal_iteratorIPKcNS0_12basic_stringIcSt11char_traitsIcESaIcEEEEEEESaISC_EE19_M_get_Tp_allocatorEv, %function
_ZNSt12_Vector_baseINSt7__cxx119sub_matchIN9__gnu_cxx17__normal_iteratorIPKcNS0_12basic_stringIcSt11char_traitsIcESaIcEEEEEEESaISC_EE19_M_get_Tp_allocatorEv:
.LFB5551:
	.cfi_startproc
	sub	sp, sp, #16
	.cfi_def_cfa_offset 16
	str	x0, [sp, 8]
	ldr	x0, [sp, 8]
	add	sp, sp, 16
	.cfi_def_cfa_offset 0
	ret
	.cfi_endproc
.LFE5551:
	.size	_ZNSt12_Vector_baseINSt7__cxx119sub_matchIN9__gnu_cxx17__normal_iteratorIPKcNS0_12basic_stringIcSt11char_traitsIcESaIcEEEEEEESaISC_EE19_M_get_Tp_allocatorEv, .-_ZNSt12_Vector_baseINSt7__cxx119sub_matchIN9__gnu_cxx17__normal_iteratorIPKcNS0_12basic_stringIcSt11char_traitsIcESaIcEEEEEEESaISC_EE19_M_get_Tp_allocatorEv
	.section	.text._ZSt8_DestroyIPNSt7__cxx119sub_matchIN9__gnu_cxx17__normal_iteratorIPKcNS0_12basic_stringIcSt11char_traitsIcESaIcEEEEEEESC_EvT_SE_RSaIT0_E,"axG",@progbits,_ZSt8_DestroyIPNSt7__cxx119sub_matchIN9__gnu_cxx17__normal_iteratorIPKcNS0_12basic_stringIcSt11char_traitsIcESaIcEEEEEEESC_EvT_SE_RSaIT0_E,comdat
	.align	2
	.weak	_ZSt8_DestroyIPNSt7__cxx119sub_matchIN9__gnu_cxx17__normal_iteratorIPKcNS0_12basic_stringIcSt11char_traitsIcESaIcEEEEEEESC_EvT_SE_RSaIT0_E
	.type	_ZSt8_DestroyIPNSt7__cxx119sub_matchIN9__gnu_cxx17__normal_iteratorIPKcNS0_12basic_stringIcSt11char_traitsIcESaIcEEEEEEESC_EvT_SE_RSaIT0_E, %function
_ZSt8_DestroyIPNSt7__cxx119sub_matchIN9__gnu_cxx17__normal_iteratorIPKcNS0_12basic_stringIcSt11char_traitsIcESaIcEEEEEEESC_EvT_SE_RSaIT0_E:
.LFB5552:
	.cfi_startproc
	stp	x29, x30, [sp, -48]!
	.cfi_def_cfa_offset 48
	.cfi_offset 29, -48
	.cfi_offset 30, -40
	mov	x29, sp
	str	x0, [sp, 40]
	str	x1, [sp, 32]
	str	x2, [sp, 24]
	ldr	x1, [sp, 32]
	ldr	x0, [sp, 40]
	bl	_ZSt8_DestroyIPNSt7__cxx119sub_matchIN9__gnu_cxx17__normal_iteratorIPKcNS0_12basic_stringIcSt11char_traitsIcESaIcEEEEEEEEvT_SE_
	nop
	ldp	x29, x30, [sp], 48
	.cfi_restore 30
	.cfi_restore 29
	.cfi_def_cfa_offset 0
	ret
	.cfi_endproc
.LFE5552:
	.size	_ZSt8_DestroyIPNSt7__cxx119sub_matchIN9__gnu_cxx17__normal_iteratorIPKcNS0_12basic_stringIcSt11char_traitsIcESaIcEEEEEEESC_EvT_SE_RSaIT0_E, .-_ZSt8_DestroyIPNSt7__cxx119sub_matchIN9__gnu_cxx17__normal_iteratorIPKcNS0_12basic_stringIcSt11char_traitsIcESaIcEEEEEEESC_EvT_SE_RSaIT0_E
	.section	.text._ZSt12regex_searchIN9__gnu_cxx17__normal_iteratorIPKcNSt7__cxx1112basic_stringIcSt11char_traitsIcESaIcEEEEESaINS4_9sub_matchISA_EEEcNS4_12regex_traitsIcEEEbT_SG_RNS4_13match_resultsISG_T0_EERKNS4_11basic_regexIT1_T2_EENSt15regex_constants15match_flag_typeE,"axG",@progbits,_ZSt12regex_searchIN9__gnu_cxx17__normal_iteratorIPKcNSt7__cxx1112basic_stringIcSt11char_traitsIcESaIcEEEEESaINS4_9sub_matchISA_EEEcNS4_12regex_traitsIcEEEbT_SG_RNS4_13match_resultsISG_T0_EERKNS4_11basic_regexIT1_T2_EENSt15regex_constants15match_flag_typeE,comdat
	.align	2
	.weak	_ZSt12regex_searchIN9__gnu_cxx17__normal_iteratorIPKcNSt7__cxx1112basic_stringIcSt11char_traitsIcESaIcEEEEESaINS4_9sub_matchISA_EEEcNS4_12regex_traitsIcEEEbT_SG_RNS4_13match_resultsISG_T0_EERKNS4_11basic_regexIT1_T2_EENSt15regex_constants15match_flag_typeE
	.type	_ZSt12regex_searchIN9__gnu_cxx17__normal_iteratorIPKcNSt7__cxx1112basic_stringIcSt11char_traitsIcESaIcEEEEESaINS4_9sub_matchISA_EEEcNS4_12regex_traitsIcEEEbT_SG_RNS4_13match_resultsISG_T0_EERKNS4_11basic_regexIT1_T2_EENSt15regex_constants15match_flag_typeE, %function
_ZSt12regex_searchIN9__gnu_cxx17__normal_iteratorIPKcNSt7__cxx1112basic_stringIcSt11char_traitsIcESaIcEEEEESaINS4_9sub_matchISA_EEEcNS4_12regex_traitsIcEEEbT_SG_RNS4_13match_resultsISG_T0_EERKNS4_11basic_regexIT1_T2_EENSt15regex_constants15match_flag_typeE:
.LFB5555:
	.cfi_startproc
	stp	x29, x30, [sp, -64]!
	.cfi_def_cfa_offset 64
	.cfi_offset 29, -64
	.cfi_offset 30, -56
	mov	x29, sp
	str	x0, [sp, 56]
	str	x1, [sp, 48]
	str	x2, [sp, 40]
	str	x3, [sp, 32]
	str	w4, [sp, 28]
	ldr	w4, [sp, 28]
	ldr	x3, [sp, 32]
	ldr	x2, [sp, 40]
	ldr	x1, [sp, 48]
	ldr	x0, [sp, 56]
	bl	_ZNSt8__detail17__regex_algo_implIN9__gnu_cxx17__normal_iteratorIPKcNSt7__cxx1112basic_stringIcSt11char_traitsIcESaIcEEEEESaINS5_9sub_matchISB_EEEcNS5_12regex_traitsIcEELNS_20_RegexExecutorPolicyE0ELb0EEEbT_SI_RNS5_13match_resultsISI_T0_EERKNS5_11basic_regexIT1_T2_EENSt15regex_constants15match_flag_typeE
	and	w0, w0, 255
	ldp	x29, x30, [sp], 64
	.cfi_restore 30
	.cfi_restore 29
	.cfi_def_cfa_offset 0
	ret
	.cfi_endproc
.LFE5555:
	.size	_ZSt12regex_searchIN9__gnu_cxx17__normal_iteratorIPKcNSt7__cxx1112basic_stringIcSt11char_traitsIcESaIcEEEEESaINS4_9sub_matchISA_EEEcNS4_12regex_traitsIcEEEbT_SG_RNS4_13match_resultsISG_T0_EERKNS4_11basic_regexIT1_T2_EENSt15regex_constants15match_flag_typeE, .-_ZSt12regex_searchIN9__gnu_cxx17__normal_iteratorIPKcNSt7__cxx1112basic_stringIcSt11char_traitsIcESaIcEEEEESaINS4_9sub_matchISA_EEEcNS4_12regex_traitsIcEEEbT_SG_RNS4_13match_resultsISG_T0_EERKNS4_11basic_regexIT1_T2_EENSt15regex_constants15match_flag_typeE
	.section	.text._ZSt13back_inserterINSt7__cxx1112basic_stringIcSt11char_traitsIcESaIcEEEESt20back_insert_iteratorIT_ERS7_,"axG",@progbits,_ZSt13back_inserterINSt7__cxx1112basic_stringIcSt11char_traitsIcESaIcEEEESt20back_insert_iteratorIT_ERS7_,comdat
	.align	2
	.weak	_ZSt13back_inserterINSt7__cxx1112basic_stringIcSt11char_traitsIcESaIcEEEESt20back_insert_iteratorIT_ERS7_
	.type	_ZSt13back_inserterINSt7__cxx1112basic_stringIcSt11char_traitsIcESaIcEEEESt20back_insert_iteratorIT_ERS7_, %function
_ZSt13back_inserterINSt7__cxx1112basic_stringIcSt11char_traitsIcESaIcEEEESt20back_insert_iteratorIT_ERS7_:
.LFB5559:
	.cfi_startproc
	stp	x29, x30, [sp, -48]!
	.cfi_def_cfa_offset 48
	.cfi_offset 29, -48
	.cfi_offset 30, -40
	mov	x29, sp
	str	x0, [sp, 24]
	adrp	x0, :got:__stack_chk_guard
	ldr	x0, [x0, #:got_lo12:__stack_chk_guard]
	ldr	x1, [x0]
	str	x1, [sp, 40]
	mov	x1, 0
	add	x0, sp, 32
	ldr	x1, [sp, 24]
	bl	_ZNSt20back_insert_iteratorINSt7__cxx1112basic_stringIcSt11char_traitsIcESaIcEEEEC1ERS5_
	ldr	x0, [sp, 32]
	mov	x1, x0
	adrp	x0, :got:__stack_chk_guard
	ldr	x0, [x0, #:got_lo12:__stack_chk_guard]
	ldr	x3, [sp, 40]
	ldr	x2, [x0]
	subs	x3, x3, x2
	mov	x2, 0
	beq	.L250
	bl	__stack_chk_fail
.L250:
	mov	x0, x1
	ldp	x29, x30, [sp], 48
	.cfi_restore 30
	.cfi_restore 29
	.cfi_def_cfa_offset 0
	ret
	.cfi_endproc
.LFE5559:
	.size	_ZSt13back_inserterINSt7__cxx1112basic_stringIcSt11char_traitsIcESaIcEEEESt20back_insert_iteratorIT_ERS7_, .-_ZSt13back_inserterINSt7__cxx1112basic_stringIcSt11char_traitsIcESaIcEEEESt20back_insert_iteratorIT_ERS7_
	.section	.text._ZNSt7__cxx1112regex_traitsIcED2Ev,"axG",@progbits,_ZNSt7__cxx1112regex_traitsIcED5Ev,comdat
	.align	2
	.weak	_ZNSt7__cxx1112regex_traitsIcED2Ev
	.type	_ZNSt7__cxx1112regex_traitsIcED2Ev, %function
_ZNSt7__cxx1112regex_traitsIcED2Ev:
.LFB5562:
	.cfi_startproc
	stp	x29, x30, [sp, -32]!
	.cfi_def_cfa_offset 32
	.cfi_offset 29, -32
	.cfi_offset 30, -24
	mov	x29, sp
	str	x0, [sp, 24]
	ldr	x0, [sp, 24]
	bl	_ZNSt6localeD1Ev
	nop
	ldp	x29, x30, [sp], 32
	.cfi_restore 30
	.cfi_restore 29
	.cfi_def_cfa_offset 0
	ret
	.cfi_endproc
.LFE5562:
	.size	_ZNSt7__cxx1112regex_traitsIcED2Ev, .-_ZNSt7__cxx1112regex_traitsIcED2Ev
	.weak	_ZNSt7__cxx1112regex_traitsIcED1Ev
	.set	_ZNSt7__cxx1112regex_traitsIcED1Ev,_ZNSt7__cxx1112regex_traitsIcED2Ev
	.section	.text._ZZNKSt7__cxx1113match_resultsIN9__gnu_cxx17__normal_iteratorIPKcNS_12basic_stringIcSt11char_traitsIcESaIcEEEEESaINS_9sub_matchISA_EEEE6formatISt20back_insert_iteratorIS9_EEET_SI_S4_S4_NSt15regex_constants15match_flag_typeEENKUlmE_clEm,"axG",@progbits,_ZZNKSt7__cxx1113match_resultsIN9__gnu_cxx17__normal_iteratorIPKcNS_12basic_stringIcSt11char_traitsIcESaIcEEEEESaINS_9sub_matchISA_EEEE6formatISt20back_insert_iteratorIS9_EEET_SI_S4_S4_NSt15regex_constants15match_flag_typeEENKUlmE_clEm,comdat
	.align	2
	.weak	_ZZNKSt7__cxx1113match_resultsIN9__gnu_cxx17__normal_iteratorIPKcNS_12basic_stringIcSt11char_traitsIcESaIcEEEEESaINS_9sub_matchISA_EEEE6formatISt20back_insert_iteratorIS9_EEET_SI_S4_S4_NSt15regex_constants15match_flag_typeEENKUlmE_clEm
	.type	_ZZNKSt7__cxx1113match_resultsIN9__gnu_cxx17__normal_iteratorIPKcNS_12basic_stringIcSt11char_traitsIcESaIcEEEEESaINS_9sub_matchISA_EEEE6formatISt20back_insert_iteratorIS9_EEET_SI_S4_S4_NSt15regex_constants15match_flag_typeEENKUlmE_clEm, %function
_ZZNKSt7__cxx1113match_resultsIN9__gnu_cxx17__normal_iteratorIPKcNS_12basic_stringIcSt11char_traitsIcESaIcEEEEESaINS_9sub_matchISA_EEEE6formatISt20back_insert_iteratorIS9_EEET_SI_S4_S4_NSt15regex_constants15match_flag_typeEENKUlmE_clEm:
.LFB5564:
	.cfi_startproc
	stp	x29, x30, [sp, -64]!
	.cfi_def_cfa_offset 64
	.cfi_offset 29, -64
	.cfi_offset 30, -56
	mov	x29, sp
	str	x19, [sp, 16]
	.cfi_offset 19, -48
	str	x0, [sp, 40]
	str	x1, [sp, 32]
	ldr	x0, [sp, 40]
	ldr	x0, [x0]
	ldr	x1, [sp, 32]
	bl	_ZNKSt7__cxx1113match_resultsIN9__gnu_cxx17__normal_iteratorIPKcNS_12basic_stringIcSt11char_traitsIcESaIcEEEEESaINS_9sub_matchISA_EEEEixEm
	str	x0, [sp, 56]
	ldr	x0, [sp, 56]
	ldrb	w0, [x0, 16]
	cmp	w0, 0
	beq	.L254
	ldr	x0, [sp, 40]
	ldr	x2, [x0, 8]
	ldr	x0, [sp, 40]
	ldr	x19, [x0, 8]
	ldr	x1, [sp, 56]
	ldr	x0, [sp, 56]
	ldr	x2, [x2]
	ldr	x1, [x1, 8]
	ldr	x0, [x0]
	bl	_ZSt4copyIN9__gnu_cxx17__normal_iteratorIPKcNSt7__cxx1112basic_stringIcSt11char_traitsIcESaIcEEEEESt20back_insert_iteratorIS9_EET0_T_SE_SD_
	str	x0, [x19]
.L254:
	nop
	ldr	x19, [sp, 16]
	ldp	x29, x30, [sp], 64
	.cfi_restore 30
	.cfi_restore 29
	.cfi_restore 19
	.cfi_def_cfa_offset 0
	ret
	.cfi_endproc
.LFE5564:
	.size	_ZZNKSt7__cxx1113match_resultsIN9__gnu_cxx17__normal_iteratorIPKcNS_12basic_stringIcSt11char_traitsIcESaIcEEEEESaINS_9sub_matchISA_EEEE6formatISt20back_insert_iteratorIS9_EEET_SI_S4_S4_NSt15regex_constants15match_flag_typeEENKUlmE_clEm, .-_ZZNKSt7__cxx1113match_resultsIN9__gnu_cxx17__normal_iteratorIPKcNS_12basic_stringIcSt11char_traitsIcESaIcEEEEESaINS_9sub_matchISA_EEEE6formatISt20back_insert_iteratorIS9_EEET_SI_S4_S4_NSt15regex_constants15match_flag_typeEENKUlmE_clEm
	.section	.text._ZZNKSt7__cxx1113match_resultsIN9__gnu_cxx17__normal_iteratorIPKcNS_12basic_stringIcSt11char_traitsIcESaIcEEEEESaINS_9sub_matchISA_EEEE6formatISt20back_insert_iteratorIS9_EEET_SI_S4_S4_NSt15regex_constants15match_flag_typeEENKUlcE0_clEc,"axG",@progbits,_ZZNKSt7__cxx1113match_resultsIN9__gnu_cxx17__normal_iteratorIPKcNS_12basic_stringIcSt11char_traitsIcESaIcEEEEESaINS_9sub_matchISA_EEEE6formatISt20back_insert_iteratorIS9_EEET_SI_S4_S4_NSt15regex_constants15match_flag_typeEENKUlcE0_clEc,comdat
	.align	2
	.weak	_ZZNKSt7__cxx1113match_resultsIN9__gnu_cxx17__normal_iteratorIPKcNS_12basic_stringIcSt11char_traitsIcESaIcEEEEESaINS_9sub_matchISA_EEEE6formatISt20back_insert_iteratorIS9_EEET_SI_S4_S4_NSt15regex_constants15match_flag_typeEENKUlcE0_clEc
	.type	_ZZNKSt7__cxx1113match_resultsIN9__gnu_cxx17__normal_iteratorIPKcNS_12basic_stringIcSt11char_traitsIcESaIcEEEEESaINS_9sub_matchISA_EEEE6formatISt20back_insert_iteratorIS9_EEET_SI_S4_S4_NSt15regex_constants15match_flag_typeEENKUlcE0_clEc, %function
_ZZNKSt7__cxx1113match_resultsIN9__gnu_cxx17__normal_iteratorIPKcNS_12basic_stringIcSt11char_traitsIcESaIcEEEEESaINS_9sub_matchISA_EEEE6formatISt20back_insert_iteratorIS9_EEET_SI_S4_S4_NSt15regex_constants15match_flag_typeEENKUlcE0_clEc:
.LFB5565:
	.cfi_startproc
	sub	sp, sp, #16
	.cfi_def_cfa_offset 16
	str	x0, [sp, 8]
	strb	w1, [sp, 7]
	ldr	x0, [sp, 8]
	ldr	x0, [x0]
	ldr	x0, [x0]
	ldrb	w0, [x0]
	ldrb	w1, [sp, 7]
	cmp	w1, w0
	bne	.L256
	ldr	x0, [sp, 8]
	ldr	x0, [x0]
	ldr	x1, [x0]
	add	x1, x1, 1
	str	x1, [x0]
	mov	w0, 1
	b	.L257
.L256:
	mov	w0, 0
.L257:
	add	sp, sp, 16
	.cfi_def_cfa_offset 0
	ret
	.cfi_endproc
.LFE5565:
	.size	_ZZNKSt7__cxx1113match_resultsIN9__gnu_cxx17__normal_iteratorIPKcNS_12basic_stringIcSt11char_traitsIcESaIcEEEEESaINS_9sub_matchISA_EEEE6formatISt20back_insert_iteratorIS9_EEET_SI_S4_S4_NSt15regex_constants15match_flag_typeEENKUlcE0_clEc, .-_ZZNKSt7__cxx1113match_resultsIN9__gnu_cxx17__normal_iteratorIPKcNS_12basic_stringIcSt11char_traitsIcESaIcEEEEESaINS_9sub_matchISA_EEEE6formatISt20back_insert_iteratorIS9_EEET_SI_S4_S4_NSt15regex_constants15match_flag_typeEENKUlcE0_clEc
	.section	.text._ZNKSt7__cxx1113match_resultsIN9__gnu_cxx17__normal_iteratorIPKcNS_12basic_stringIcSt11char_traitsIcESaIcEEEEESaINS_9sub_matchISA_EEEE6formatISt20back_insert_iteratorIS9_EEET_SI_S4_S4_NSt15regex_constants15match_flag_typeE,"axG",@progbits,_ZNKSt7__cxx1113match_resultsIN9__gnu_cxx17__normal_iteratorIPKcNS_12basic_stringIcSt11char_traitsIcESaIcEEEEESaINS_9sub_matchISA_EEEE6formatISt20back_insert_iteratorIS9_EEET_SI_S4_S4_NSt15regex_constants15match_flag_typeE,comdat
	.align	2
	.weak	_ZNKSt7__cxx1113match_resultsIN9__gnu_cxx17__normal_iteratorIPKcNS_12basic_stringIcSt11char_traitsIcESaIcEEEEESaINS_9sub_matchISA_EEEE6formatISt20back_insert_iteratorIS9_EEET_SI_S4_S4_NSt15regex_constants15match_flag_typeE
	.type	_ZNKSt7__cxx1113match_resultsIN9__gnu_cxx17__normal_iteratorIPKcNS_12basic_stringIcSt11char_traitsIcESaIcEEEEESaINS_9sub_matchISA_EEEE6formatISt20back_insert_iteratorIS9_EEET_SI_S4_S4_NSt15regex_constants15match_flag_typeE, %function
_ZNKSt7__cxx1113match_resultsIN9__gnu_cxx17__normal_iteratorIPKcNS_12basic_stringIcSt11char_traitsIcESaIcEEEEESaINS_9sub_matchISA_EEEE6formatISt20back_insert_iteratorIS9_EEET_SI_S4_S4_NSt15regex_constants15match_flag_typeE:
.LFB5560:
	.cfi_startproc
	.cfi_personality 0x9b,DW.ref.__gxx_personality_v0
	.cfi_lsda 0x1b,.LLSDA5560
	stp	x29, x30, [sp, -176]!
	.cfi_def_cfa_offset 176
	.cfi_offset 29, -176
	.cfi_offset 30, -168
	mov	x29, sp
	str	x19, [sp, 16]
	.cfi_offset 19, -160
	str	x0, [sp, 72]
	str	x1, [sp, 64]
	str	x2, [sp, 56]
	str	x3, [sp, 48]
	str	w4, [sp, 44]
	adrp	x0, :got:__stack_chk_guard
	ldr	x0, [x0, #:got_lo12:__stack_chk_guard]
	ldr	x1, [x0]
	str	x1, [sp, 168]
	mov	x1, 0
	mov	w0, 0
	cmp	w0, 0
	add	x0, sp, 88
	bl	_ZNSt7__cxx1112regex_traitsIcEC1Ev
	add	x0, sp, 88
	add	x1, sp, 152
	mov	x8, x1
	bl	_ZNKSt7__cxx1112regex_traitsIcE6getlocEv
	add	x0, sp, 152
.LEHB25:
	bl	_ZSt9use_facetISt5ctypeIcEERKT_RKSt6locale
.LEHE25:
	str	x0, [sp, 128]
	add	x0, sp, 152
	bl	_ZNSt6localeD1Ev
	ldr	x0, [sp, 72]
	str	x0, [sp, 152]
	add	x0, sp, 64
	str	x0, [sp, 160]
	mov	w1, 256
	ldr	w0, [sp, 44]
	bl	_ZNSt15regex_constantsanENS_15match_flag_typeES0_
	cmp	w0, 0
	cset	w0, ne
	and	w0, w0, 255
	cmp	w0, 0
	beq	.L260
	strb	wzr, [sp, 87]
	b	.L261
.L268:
	ldrb	w0, [sp, 87]
	cmp	w0, 0
	beq	.L262
	strb	wzr, [sp, 87]
	ldr	x0, [sp, 56]
	ldrb	w0, [x0]
	mov	w2, w0
	mov	w1, 2048
	ldr	x0, [sp, 128]
	bl	_ZNKSt5ctypeIcE2isEtc
	and	w0, w0, 255
	cmp	w0, 0
	beq	.L263
	ldr	x0, [sp, 56]
	ldrb	w1, [x0]
	add	x0, sp, 88
	mov	w2, 10
.LEHB26:
	bl	_ZNKSt7__cxx1112regex_traitsIcE5valueEci
	sxtw	x1, w0
	add	x0, sp, 152
	bl	_ZZNKSt7__cxx1113match_resultsIN9__gnu_cxx17__normal_iteratorIPKcNS_12basic_stringIcSt11char_traitsIcESaIcEEEEESaINS_9sub_matchISA_EEEE6formatISt20back_insert_iteratorIS9_EEET_SI_S4_S4_NSt15regex_constants15match_flag_typeEENKUlmE_clEm
	b	.L265
.L263:
	ldr	x19, [sp, 56]
	add	x0, sp, 64
	mov	w1, 0
	bl	_ZNSt20back_insert_iteratorINSt7__cxx1112basic_stringIcSt11char_traitsIcESaIcEEEEppEi
	str	x0, [sp, 112]
	add	x0, sp, 112
	bl	_ZNSt20back_insert_iteratorINSt7__cxx1112basic_stringIcSt11char_traitsIcESaIcEEEEdeEv
	mov	x1, x19
	bl	_ZNSt20back_insert_iteratorINSt7__cxx1112basic_stringIcSt11char_traitsIcESaIcEEEEaSERKc
	b	.L265
.L262:
	ldr	x0, [sp, 56]
	ldrb	w0, [x0]
	cmp	w0, 92
	bne	.L266
	mov	w0, 1
	strb	w0, [sp, 87]
	b	.L265
.L266:
	ldr	x0, [sp, 56]
	ldrb	w0, [x0]
	cmp	w0, 38
	bne	.L267
	add	x0, sp, 152
	mov	x1, 0
	bl	_ZZNKSt7__cxx1113match_resultsIN9__gnu_cxx17__normal_iteratorIPKcNS_12basic_stringIcSt11char_traitsIcESaIcEEEEESaINS_9sub_matchISA_EEEE6formatISt20back_insert_iteratorIS9_EEET_SI_S4_S4_NSt15regex_constants15match_flag_typeEENKUlmE_clEm
	b	.L265
.L267:
	ldr	x19, [sp, 56]
	add	x0, sp, 64
	mov	w1, 0
	bl	_ZNSt20back_insert_iteratorINSt7__cxx1112basic_stringIcSt11char_traitsIcESaIcEEEEppEi
	str	x0, [sp, 112]
	add	x0, sp, 112
	bl	_ZNSt20back_insert_iteratorINSt7__cxx1112basic_stringIcSt11char_traitsIcESaIcEEEEdeEv
	mov	x1, x19
	bl	_ZNSt20back_insert_iteratorINSt7__cxx1112basic_stringIcSt11char_traitsIcESaIcEEEEaSERKc
.L265:
	ldr	x0, [sp, 56]
	add	x0, x0, 1
	str	x0, [sp, 56]
.L261:
	ldr	x1, [sp, 56]
	ldr	x0, [sp, 48]
	cmp	x1, x0
	bne	.L268
	ldrb	w0, [sp, 87]
	cmp	w0, 0
	beq	.L269
	mov	w0, 92
	strb	w0, [sp, 104]
	add	x0, sp, 64
	mov	w1, 0
	bl	_ZNSt20back_insert_iteratorINSt7__cxx1112basic_stringIcSt11char_traitsIcESaIcEEEEppEi
	str	x0, [sp, 112]
	add	x0, sp, 112
	bl	_ZNSt20back_insert_iteratorINSt7__cxx1112basic_stringIcSt11char_traitsIcESaIcEEEEdeEv
	mov	x2, x0
	add	x0, sp, 104
	mov	x1, x0
	mov	x0, x2
	bl	_ZNSt20back_insert_iteratorINSt7__cxx1112basic_stringIcSt11char_traitsIcESaIcEEEEaSEOc
	b	.L269
.L260:
	mov	w0, 36
	strb	w0, [sp, 112]
	add	x0, sp, 112
	mov	x2, x0
	ldr	x1, [sp, 48]
	ldr	x0, [sp, 56]
	bl	_ZSt4findIPKccET_S2_S2_RKT0_
	str	x0, [sp, 96]
	ldr	x0, [sp, 96]
	ldr	x1, [sp, 48]
	cmp	x1, x0
	bne	.L270
	ldr	x2, [sp, 64]
	ldr	x1, [sp, 48]
	ldr	x0, [sp, 56]
	bl	_ZSt4copyIPKcSt20back_insert_iteratorINSt7__cxx1112basic_stringIcSt11char_traitsIcESaIcEEEEET0_T_SB_SA_
	str	x0, [sp, 64]
	b	.L269
.L270:
	ldr	x0, [sp, 96]
	ldr	x2, [sp, 64]
	mov	x1, x0
	ldr	x0, [sp, 56]
	bl	_ZSt4copyIPKcSt20back_insert_iteratorINSt7__cxx1112basic_stringIcSt11char_traitsIcESaIcEEEEET0_T_SB_SA_
	str	x0, [sp, 64]
	add	x0, sp, 96
	str	x0, [sp, 104]
	ldr	x0, [sp, 96]
	add	x0, x0, 1
	str	x0, [sp, 96]
	ldr	x0, [sp, 96]
	ldr	x1, [sp, 48]
	cmp	x1, x0
	cset	w0, eq
	and	w0, w0, 255
	cmp	w0, 0
	beq	.L271
	mov	w0, 36
	strb	w0, [sp, 86]
	add	x0, sp, 64
	mov	w1, 0
	bl	_ZNSt20back_insert_iteratorINSt7__cxx1112basic_stringIcSt11char_traitsIcESaIcEEEEppEi
	str	x0, [sp, 112]
	add	x0, sp, 112
	bl	_ZNSt20back_insert_iteratorINSt7__cxx1112basic_stringIcSt11char_traitsIcESaIcEEEEdeEv
	mov	x2, x0
	add	x0, sp, 86
	mov	x1, x0
	mov	x0, x2
	bl	_ZNSt20back_insert_iteratorINSt7__cxx1112basic_stringIcSt11char_traitsIcESaIcEEEEaSEOc
	b	.L272
.L271:
	add	x0, sp, 104
	mov	w1, 36
	bl	_ZZNKSt7__cxx1113match_resultsIN9__gnu_cxx17__normal_iteratorIPKcNS_12basic_stringIcSt11char_traitsIcESaIcEEEEESaINS_9sub_matchISA_EEEE6formatISt20back_insert_iteratorIS9_EEET_SI_S4_S4_NSt15regex_constants15match_flag_typeEENKUlcE0_clEc
	and	w0, w0, 255
	cmp	w0, 0
	beq	.L273
	mov	w0, 36
	strb	w0, [sp, 86]
	add	x0, sp, 64
	mov	w1, 0
	bl	_ZNSt20back_insert_iteratorINSt7__cxx1112basic_stringIcSt11char_traitsIcESaIcEEEEppEi
	str	x0, [sp, 112]
	add	x0, sp, 112
	bl	_ZNSt20back_insert_iteratorINSt7__cxx1112basic_stringIcSt11char_traitsIcESaIcEEEEdeEv
	mov	x2, x0
	add	x0, sp, 86
	mov	x1, x0
	mov	x0, x2
	bl	_ZNSt20back_insert_iteratorINSt7__cxx1112basic_stringIcSt11char_traitsIcESaIcEEEEaSEOc
	b	.L272
.L273:
	add	x0, sp, 104
	mov	w1, 38
	bl	_ZZNKSt7__cxx1113match_resultsIN9__gnu_cxx17__normal_iteratorIPKcNS_12basic_stringIcSt11char_traitsIcESaIcEEEEESaINS_9sub_matchISA_EEEE6formatISt20back_insert_iteratorIS9_EEET_SI_S4_S4_NSt15regex_constants15match_flag_typeEENKUlcE0_clEc
	and	w0, w0, 255
	cmp	w0, 0
	beq	.L274
	add	x0, sp, 152
	mov	x1, 0
	bl	_ZZNKSt7__cxx1113match_resultsIN9__gnu_cxx17__normal_iteratorIPKcNS_12basic_stringIcSt11char_traitsIcESaIcEEEEESaINS_9sub_matchISA_EEEE6formatISt20back_insert_iteratorIS9_EEET_SI_S4_S4_NSt15regex_constants15match_flag_typeEENKUlmE_clEm
	b	.L272
.L274:
	add	x0, sp, 104
	mov	w1, 96
	bl	_ZZNKSt7__cxx1113match_resultsIN9__gnu_cxx17__normal_iteratorIPKcNS_12basic_stringIcSt11char_traitsIcESaIcEEEEESaINS_9sub_matchISA_EEEE6formatISt20back_insert_iteratorIS9_EEET_SI_S4_S4_NSt15regex_constants15match_flag_typeEENKUlcE0_clEc
	and	w0, w0, 255
	cmp	w0, 0
	beq	.L275
	ldr	x0, [sp, 72]
	bl	_ZNKSt7__cxx1113match_resultsIN9__gnu_cxx17__normal_iteratorIPKcNS_12basic_stringIcSt11char_traitsIcESaIcEEEEESaINS_9sub_matchISA_EEEE9_M_prefixEv
	str	x0, [sp, 144]
	ldr	x0, [sp, 144]
	ldrb	w0, [x0, 16]
	cmp	w0, 0
	beq	.L272
	ldr	x1, [sp, 144]
	ldr	x0, [sp, 144]
	ldr	x2, [sp, 64]
	ldr	x1, [x1, 8]
	ldr	x0, [x0]
	bl	_ZSt4copyIN9__gnu_cxx17__normal_iteratorIPKcNSt7__cxx1112basic_stringIcSt11char_traitsIcESaIcEEEEESt20back_insert_iteratorIS9_EET0_T_SE_SD_
	str	x0, [sp, 64]
	b	.L272
.L275:
	add	x0, sp, 104
	mov	w1, 39
	bl	_ZZNKSt7__cxx1113match_resultsIN9__gnu_cxx17__normal_iteratorIPKcNS_12basic_stringIcSt11char_traitsIcESaIcEEEEESaINS_9sub_matchISA_EEEE6formatISt20back_insert_iteratorIS9_EEET_SI_S4_S4_NSt15regex_constants15match_flag_typeEENKUlcE0_clEc
	and	w0, w0, 255
	cmp	w0, 0
	beq	.L276
	ldr	x0, [sp, 72]
	bl	_ZNKSt7__cxx1113match_resultsIN9__gnu_cxx17__normal_iteratorIPKcNS_12basic_stringIcSt11char_traitsIcESaIcEEEEESaINS_9sub_matchISA_EEEE9_M_suffixEv
	str	x0, [sp, 136]
	ldr	x0, [sp, 136]
	ldrb	w0, [x0, 16]
	cmp	w0, 0
	beq	.L272
	ldr	x1, [sp, 136]
	ldr	x0, [sp, 136]
	ldr	x2, [sp, 64]
	ldr	x1, [x1, 8]
	ldr	x0, [x0]
	bl	_ZSt4copyIN9__gnu_cxx17__normal_iteratorIPKcNSt7__cxx1112basic_stringIcSt11char_traitsIcESaIcEEEEESt20back_insert_iteratorIS9_EET0_T_SE_SD_
	str	x0, [sp, 64]
	b	.L272
.L276:
	ldr	x0, [sp, 96]
	ldrb	w0, [x0]
	mov	w2, w0
	mov	w1, 2048
	ldr	x0, [sp, 128]
	bl	_ZNKSt5ctypeIcE2isEtc
	and	w0, w0, 255
	cmp	w0, 0
	beq	.L277
	ldr	x0, [sp, 96]
	ldrb	w1, [x0]
	add	x0, sp, 88
	mov	w2, 10
	bl	_ZNKSt7__cxx1112regex_traitsIcE5valueEci
	sxtw	x0, w0
	str	x0, [sp, 120]
	ldr	x0, [sp, 96]
	add	x0, x0, 1
	str	x0, [sp, 96]
	ldr	x0, [sp, 96]
	ldr	x1, [sp, 48]
	cmp	x1, x0
	beq	.L278
	ldr	x0, [sp, 96]
	ldrb	w0, [x0]
	mov	w2, w0
	mov	w1, 2048
	ldr	x0, [sp, 128]
	bl	_ZNKSt5ctypeIcE2isEtc
	and	w0, w0, 255
	cmp	w0, 0
	beq	.L278
	mov	w0, 1
	b	.L279
.L278:
	mov	w0, 0
.L279:
	cmp	w0, 0
	beq	.L280
	ldr	x1, [sp, 120]
	mov	x0, x1
	lsl	x0, x0, 2
	add	x0, x0, x1
	lsl	x0, x0, 1
	str	x0, [sp, 120]
	ldr	x0, [sp, 96]
	add	x1, x0, 1
	str	x1, [sp, 96]
	ldrb	w1, [x0]
	add	x0, sp, 88
	mov	w2, 10
	bl	_ZNKSt7__cxx1112regex_traitsIcE5valueEci
	sxtw	x0, w0
	ldr	x1, [sp, 120]
	add	x0, x1, x0
	str	x0, [sp, 120]
.L280:
	ldr	x0, [sp, 120]
	cmp	x0, 0
	blt	.L281
	ldr	x0, [sp, 72]
	bl	_ZNKSt7__cxx1113match_resultsIN9__gnu_cxx17__normal_iteratorIPKcNS_12basic_stringIcSt11char_traitsIcESaIcEEEEESaINS_9sub_matchISA_EEEE4sizeEv
	mov	x1, x0
	ldr	x0, [sp, 120]
	cmp	x1, x0
	bls	.L281
	mov	w0, 1
	b	.L282
.L281:
	mov	w0, 0
.L282:
	cmp	w0, 0
	beq	.L272
	ldr	x1, [sp, 120]
	add	x0, sp, 152
	bl	_ZZNKSt7__cxx1113match_resultsIN9__gnu_cxx17__normal_iteratorIPKcNS_12basic_stringIcSt11char_traitsIcESaIcEEEEESaINS_9sub_matchISA_EEEE6formatISt20back_insert_iteratorIS9_EEET_SI_S4_S4_NSt15regex_constants15match_flag_typeEENKUlmE_clEm
	b	.L272
.L277:
	mov	w0, 36
	strb	w0, [sp, 86]
	add	x0, sp, 64
	mov	w1, 0
	bl	_ZNSt20back_insert_iteratorINSt7__cxx1112basic_stringIcSt11char_traitsIcESaIcEEEEppEi
	str	x0, [sp, 112]
	add	x0, sp, 112
	bl	_ZNSt20back_insert_iteratorINSt7__cxx1112basic_stringIcSt11char_traitsIcESaIcEEEEdeEv
	mov	x2, x0
	add	x0, sp, 86
	mov	x1, x0
	mov	x0, x2
	bl	_ZNSt20back_insert_iteratorINSt7__cxx1112basic_stringIcSt11char_traitsIcESaIcEEEEaSEOc
.LEHE26:
.L272:
	ldr	x0, [sp, 96]
	str	x0, [sp, 56]
	b	.L260
.L269:
	ldr	x19, [sp, 64]
	add	x0, sp, 88
	bl	_ZNSt7__cxx1112regex_traitsIcED1Ev
	mov	x1, x19
	adrp	x0, :got:__stack_chk_guard
	ldr	x0, [x0, #:got_lo12:__stack_chk_guard]
	ldr	x3, [sp, 168]
	ldr	x2, [x0]
	subs	x3, x3, x2
	mov	x2, 0
	beq	.L286
	b	.L289
.L287:
	mov	x19, x0
	add	x0, sp, 152
	bl	_ZNSt6localeD1Ev
	b	.L285
.L288:
	mov	x19, x0
.L285:
	add	x0, sp, 88
	bl	_ZNSt7__cxx1112regex_traitsIcED1Ev
	mov	x0, x19
.LEHB27:
	bl	_Unwind_Resume
.LEHE27:
.L289:
	bl	__stack_chk_fail
.L286:
	mov	x0, x1
	ldr	x19, [sp, 16]
	ldp	x29, x30, [sp], 176
	.cfi_restore 30
	.cfi_restore 29
	.cfi_restore 19
	.cfi_def_cfa_offset 0
	ret
	.cfi_endproc
.LFE5560:
	.section	.gcc_except_table
.LLSDA5560:
	.byte	0xff
	.byte	0xff
	.byte	0x1
	.uleb128 .LLSDACSE5560-.LLSDACSB5560
.LLSDACSB5560:
	.uleb128 .LEHB25-.LFB5560
	.uleb128 .LEHE25-.LEHB25
	.uleb128 .L287-.LFB5560
	.uleb128 0
	.uleb128 .LEHB26-.LFB5560
	.uleb128 .LEHE26-.LEHB26
	.uleb128 .L288-.LFB5560
	.uleb128 0
	.uleb128 .LEHB27-.LFB5560
	.uleb128 .LEHE27-.LEHB27
	.uleb128 0
	.uleb128 0
.LLSDACSE5560:
	.section	.text._ZNKSt7__cxx1113match_resultsIN9__gnu_cxx17__normal_iteratorIPKcNS_12basic_stringIcSt11char_traitsIcESaIcEEEEESaINS_9sub_matchISA_EEEE6formatISt20back_insert_iteratorIS9_EEET_SI_S4_S4_NSt15regex_constants15match_flag_typeE,"axG",@progbits,_ZNKSt7__cxx1113match_resultsIN9__gnu_cxx17__normal_iteratorIPKcNS_12basic_stringIcSt11char_traitsIcESaIcEEEEESaINS_9sub_matchISA_EEEE6formatISt20back_insert_iteratorIS9_EEET_SI_S4_S4_NSt15regex_constants15match_flag_typeE,comdat
	.size	_ZNKSt7__cxx1113match_resultsIN9__gnu_cxx17__normal_iteratorIPKcNS_12basic_stringIcSt11char_traitsIcESaIcEEEEESaINS_9sub_matchISA_EEEE6formatISt20back_insert_iteratorIS9_EEET_SI_S4_S4_NSt15regex_constants15match_flag_typeE, .-_ZNKSt7__cxx1113match_resultsIN9__gnu_cxx17__normal_iteratorIPKcNS_12basic_stringIcSt11char_traitsIcESaIcEEEEESaINS_9sub_matchISA_EEEE6formatISt20back_insert_iteratorIS9_EEET_SI_S4_S4_NSt15regex_constants15match_flag_typeE
	.section	.text._ZNSt7__cxx1112basic_stringIcSt11char_traitsIcESaIcEE12_M_constructIPcEEvT_S7_,"axG",@progbits,_ZNSt7__cxx1112basic_stringIcSt11char_traitsIcESaIcEE12_M_constructIPcEEvT_S7_,comdat
	.align	2
	.weak	_ZNSt7__cxx1112basic_stringIcSt11char_traitsIcESaIcEE12_M_constructIPcEEvT_S7_
	.type	_ZNSt7__cxx1112basic_stringIcSt11char_traitsIcESaIcEE12_M_constructIPcEEvT_S7_, %function
_ZNSt7__cxx1112basic_stringIcSt11char_traitsIcESaIcEE12_M_constructIPcEEvT_S7_:
.LFB5572:
	.cfi_startproc
	stp	x29, x30, [sp, -48]!
	.cfi_def_cfa_offset 48
	.cfi_offset 29, -48
	.cfi_offset 30, -40
	mov	x29, sp
	str	x0, [sp, 40]
	str	x1, [sp, 32]
	str	x2, [sp, 24]
	ldr	x2, [sp, 24]
	ldr	x1, [sp, 32]
	ldr	x0, [sp, 40]
	bl	_ZNSt7__cxx1112basic_stringIcSt11char_traitsIcESaIcEE16_M_construct_auxIPcEEvT_S7_St12__false_type
	nop
	ldp	x29, x30, [sp], 48
	.cfi_restore 30
	.cfi_restore 29
	.cfi_def_cfa_offset 0
	ret
	.cfi_endproc
.LFE5572:
	.size	_ZNSt7__cxx1112basic_stringIcSt11char_traitsIcESaIcEE12_M_constructIPcEEvT_S7_, .-_ZNSt7__cxx1112basic_stringIcSt11char_traitsIcESaIcEE12_M_constructIPcEEvT_S7_
	.section	.text._ZN9__gnu_cxx14__alloc_traitsISaIcEcE17_S_select_on_copyERKS1_,"axG",@progbits,_ZN9__gnu_cxx14__alloc_traitsISaIcEcE17_S_select_on_copyERKS1_,comdat
	.align	2
	.weak	_ZN9__gnu_cxx14__alloc_traitsISaIcEcE17_S_select_on_copyERKS1_
	.type	_ZN9__gnu_cxx14__alloc_traitsISaIcEcE17_S_select_on_copyERKS1_, %function
_ZN9__gnu_cxx14__alloc_traitsISaIcEcE17_S_select_on_copyERKS1_:
.LFB5596:
	.cfi_startproc
	stp	x29, x30, [sp, -64]!
	.cfi_def_cfa_offset 64
	.cfi_offset 29, -64
	.cfi_offset 30, -56
	mov	x29, sp
	str	x19, [sp, 16]
	.cfi_offset 19, -48
	mov	x19, x8
	str	x0, [sp, 40]
	adrp	x0, :got:__stack_chk_guard
	ldr	x0, [x0, #:got_lo12:__stack_chk_guard]
	ldr	x1, [x0]
	str	x1, [sp, 56]
	mov	x1, 0
	mov	x8, x19
	ldr	x0, [sp, 40]
	bl	_ZNSt16allocator_traitsISaIcEE37select_on_container_copy_constructionERKS0_
	adrp	x0, :got:__stack_chk_guard
	ldr	x0, [x0, #:got_lo12:__stack_chk_guard]
	ldr	x2, [sp, 56]
	ldr	x1, [x0]
	subs	x2, x2, x1
	mov	x1, 0
	beq	.L293
	bl	__stack_chk_fail
.L293:
	mov	x0, x19
	ldr	x19, [sp, 16]
	ldp	x29, x30, [sp], 64
	.cfi_restore 30
	.cfi_restore 29
	.cfi_restore 19
	.cfi_def_cfa_offset 0
	ret
	.cfi_endproc
.LFE5596:
	.size	_ZN9__gnu_cxx14__alloc_traitsISaIcEcE17_S_select_on_copyERKS1_, .-_ZN9__gnu_cxx14__alloc_traitsISaIcEcE17_S_select_on_copyERKS1_
	.section	.text._ZN9__gnu_cxx13new_allocatorImEC2Ev,"axG",@progbits,_ZN9__gnu_cxx13new_allocatorImEC5Ev,comdat
	.align	2
	.weak	_ZN9__gnu_cxx13new_allocatorImEC2Ev
	.type	_ZN9__gnu_cxx13new_allocatorImEC2Ev, %function
_ZN9__gnu_cxx13new_allocatorImEC2Ev:
.LFB5601:
	.cfi_startproc
	sub	sp, sp, #16
	.cfi_def_cfa_offset 16
	str	x0, [sp, 8]
	nop
	add	sp, sp, 16
	.cfi_def_cfa_offset 0
	ret
	.cfi_endproc
.LFE5601:
	.size	_ZN9__gnu_cxx13new_allocatorImEC2Ev, .-_ZN9__gnu_cxx13new_allocatorImEC2Ev
	.weak	_ZN9__gnu_cxx13new_allocatorImEC1Ev
	.set	_ZN9__gnu_cxx13new_allocatorImEC1Ev,_ZN9__gnu_cxx13new_allocatorImEC2Ev
	.section	.text._ZNSt16allocator_traitsISaImEE10deallocateERS0_Pmm,"axG",@progbits,_ZNSt16allocator_traitsISaImEE10deallocateERS0_Pmm,comdat
	.align	2
	.weak	_ZNSt16allocator_traitsISaImEE10deallocateERS0_Pmm
	.type	_ZNSt16allocator_traitsISaImEE10deallocateERS0_Pmm, %function
_ZNSt16allocator_traitsISaImEE10deallocateERS0_Pmm:
.LFB5603:
	.cfi_startproc
	stp	x29, x30, [sp, -48]!
	.cfi_def_cfa_offset 48
	.cfi_offset 29, -48
	.cfi_offset 30, -40
	mov	x29, sp
	str	x0, [sp, 40]
	str	x1, [sp, 32]
	str	x2, [sp, 24]
	ldr	x2, [sp, 24]
	ldr	x1, [sp, 32]
	ldr	x0, [sp, 40]
	bl	_ZN9__gnu_cxx13new_allocatorImE10deallocateEPmm
	nop
	ldp	x29, x30, [sp], 48
	.cfi_restore 30
	.cfi_restore 29
	.cfi_def_cfa_offset 0
	ret
	.cfi_endproc
.LFE5603:
	.size	_ZNSt16allocator_traitsISaImEE10deallocateERS0_Pmm, .-_ZNSt16allocator_traitsISaImEE10deallocateERS0_Pmm
	.section	.text._ZSt8_DestroyIPmEvT_S1_,"axG",@progbits,_ZSt8_DestroyIPmEvT_S1_,comdat
	.align	2
	.weak	_ZSt8_DestroyIPmEvT_S1_
	.type	_ZSt8_DestroyIPmEvT_S1_, %function
_ZSt8_DestroyIPmEvT_S1_:
.LFB5604:
	.cfi_startproc
	stp	x29, x30, [sp, -32]!
	.cfi_def_cfa_offset 32
	.cfi_offset 29, -32
	.cfi_offset 30, -24
	mov	x29, sp
	str	x0, [sp, 24]
	str	x1, [sp, 16]
	ldr	x1, [sp, 16]
	ldr	x0, [sp, 24]
	bl	_ZNSt12_Destroy_auxILb1EE9__destroyIPmEEvT_S3_
	nop
	ldp	x29, x30, [sp], 32
	.cfi_restore 30
	.cfi_restore 29
	.cfi_def_cfa_offset 0
	ret
	.cfi_endproc
.LFE5604:
	.size	_ZSt8_DestroyIPmEvT_S1_, .-_ZSt8_DestroyIPmEvT_S1_
	.section	.text._ZN9__gnu_cxx17__is_null_pointerIKcEEbPT_,"axG",@progbits,_ZN9__gnu_cxx17__is_null_pointerIKcEEbPT_,comdat
	.align	2
	.weak	_ZN9__gnu_cxx17__is_null_pointerIKcEEbPT_
	.type	_ZN9__gnu_cxx17__is_null_pointerIKcEEbPT_, %function
_ZN9__gnu_cxx17__is_null_pointerIKcEEbPT_:
.LFB5605:
	.cfi_startproc
	sub	sp, sp, #16
	.cfi_def_cfa_offset 16
	str	x0, [sp, 8]
	ldr	x0, [sp, 8]
	cmp	x0, 0
	cset	w0, eq
	and	w0, w0, 255
	add	sp, sp, 16
	.cfi_def_cfa_offset 0
	ret
	.cfi_endproc
.LFE5605:
	.size	_ZN9__gnu_cxx17__is_null_pointerIKcEEbPT_, .-_ZN9__gnu_cxx17__is_null_pointerIKcEEbPT_
	.section	.text._ZSt19__iterator_categoryIPKcENSt15iterator_traitsIT_E17iterator_categoryERKS3_,"axG",@progbits,_ZSt19__iterator_categoryIPKcENSt15iterator_traitsIT_E17iterator_categoryERKS3_,comdat
	.align	2
	.weak	_ZSt19__iterator_categoryIPKcENSt15iterator_traitsIT_E17iterator_categoryERKS3_
	.type	_ZSt19__iterator_categoryIPKcENSt15iterator_traitsIT_E17iterator_categoryERKS3_, %function
_ZSt19__iterator_categoryIPKcENSt15iterator_traitsIT_E17iterator_categoryERKS3_:
.LFB5606:
	.cfi_startproc
	sub	sp, sp, #16
	.cfi_def_cfa_offset 16
	str	x0, [sp, 8]
	mov	w0, w1
	add	sp, sp, 16
	.cfi_def_cfa_offset 0
	ret
	.cfi_endproc
.LFE5606:
	.size	_ZSt19__iterator_categoryIPKcENSt15iterator_traitsIT_E17iterator_categoryERKS3_, .-_ZSt19__iterator_categoryIPKcENSt15iterator_traitsIT_E17iterator_categoryERKS3_
	.section	.text._ZSt10__distanceIPKcENSt15iterator_traitsIT_E15difference_typeES3_S3_St26random_access_iterator_tag,"axG",@progbits,_ZSt10__distanceIPKcENSt15iterator_traitsIT_E15difference_typeES3_S3_St26random_access_iterator_tag,comdat
	.align	2
	.weak	_ZSt10__distanceIPKcENSt15iterator_traitsIT_E15difference_typeES3_S3_St26random_access_iterator_tag
	.type	_ZSt10__distanceIPKcENSt15iterator_traitsIT_E15difference_typeES3_S3_St26random_access_iterator_tag, %function
_ZSt10__distanceIPKcENSt15iterator_traitsIT_E15difference_typeES3_S3_St26random_access_iterator_tag:
.LFB5607:
	.cfi_startproc
	sub	sp, sp, #32
	.cfi_def_cfa_offset 32
	str	x0, [sp, 24]
	str	x1, [sp, 16]
	strb	w2, [sp, 8]
	ldr	x1, [sp, 16]
	ldr	x0, [sp, 24]
	sub	x0, x1, x0
	add	sp, sp, 32
	.cfi_def_cfa_offset 0
	ret
	.cfi_endproc
.LFE5607:
	.size	_ZSt10__distanceIPKcENSt15iterator_traitsIT_E15difference_typeES3_S3_St26random_access_iterator_tag, .-_ZSt10__distanceIPKcENSt15iterator_traitsIT_E15difference_typeES3_S3_St26random_access_iterator_tag
	.section	.text._ZSt4moveIRPKcEONSt16remove_referenceIT_E4typeEOS4_,"axG",@progbits,_ZSt4moveIRPKcEONSt16remove_referenceIT_E4typeEOS4_,comdat
	.align	2
	.weak	_ZSt4moveIRPKcEONSt16remove_referenceIT_E4typeEOS4_
	.type	_ZSt4moveIRPKcEONSt16remove_referenceIT_E4typeEOS4_, %function
_ZSt4moveIRPKcEONSt16remove_referenceIT_E4typeEOS4_:
.LFB5609:
	.cfi_startproc
	sub	sp, sp, #16
	.cfi_def_cfa_offset 16
	str	x0, [sp, 8]
	ldr	x0, [sp, 8]
	add	sp, sp, 16
	.cfi_def_cfa_offset 0
	ret
	.cfi_endproc
.LFE5609:
	.size	_ZSt4moveIRPKcEONSt16remove_referenceIT_E4typeEOS4_, .-_ZSt4moveIRPKcEONSt16remove_referenceIT_E4typeEOS4_
	.section	.text._ZNSt7__cxx1111basic_regexIcNS_12regex_traitsIcEEEC2IPKcEET_S7_St6localeNSt15regex_constants18syntax_option_typeE,"axG",@progbits,_ZNSt7__cxx1111basic_regexIcNS_12regex_traitsIcEEEC5IPKcEET_S7_St6localeNSt15regex_constants18syntax_option_typeE,comdat
	.align	2
	.weak	_ZNSt7__cxx1111basic_regexIcNS_12regex_traitsIcEEEC2IPKcEET_S7_St6localeNSt15regex_constants18syntax_option_typeE
	.type	_ZNSt7__cxx1111basic_regexIcNS_12regex_traitsIcEEEC2IPKcEET_S7_St6localeNSt15regex_constants18syntax_option_typeE, %function
_ZNSt7__cxx1111basic_regexIcNS_12regex_traitsIcEEEC2IPKcEET_S7_St6localeNSt15regex_constants18syntax_option_typeE:
.LFB5611:
	.cfi_startproc
	.cfi_personality 0x9b,DW.ref.__gxx_personality_v0
	.cfi_lsda 0x1b,.LLSDA5611
	stp	x29, x30, [sp, -96]!
	.cfi_def_cfa_offset 96
	.cfi_offset 29, -96
	.cfi_offset 30, -88
	mov	x29, sp
	str	x19, [sp, 16]
	.cfi_offset 19, -80
	str	x0, [sp, 72]
	str	x1, [sp, 64]
	str	x2, [sp, 56]
	str	x3, [sp, 48]
	str	w4, [sp, 44]
	adrp	x0, :got:__stack_chk_guard
	ldr	x0, [x0, #:got_lo12:__stack_chk_guard]
	ldr	x1, [x0]
	str	x1, [sp, 88]
	mov	x1, 0
	ldr	x0, [sp, 72]
	ldr	w1, [sp, 44]
	str	w1, [x0]
	ldr	x0, [sp, 72]
	add	x19, x0, 8
	ldr	x0, [sp, 48]
	bl	_ZSt4moveIRSt6localeEONSt16remove_referenceIT_E4typeEOS3_
	mov	x1, x0
	mov	x0, x19
	bl	_ZNSt6localeC1ERKS_
	add	x0, sp, 64
	bl	_ZSt4moveIRPKcEONSt16remove_referenceIT_E4typeEOS4_
	ldr	x19, [x0]
	add	x0, sp, 56
	bl	_ZSt4moveIRPKcEONSt16remove_referenceIT_E4typeEOS4_
	ldr	x1, [x0]
	ldr	x0, [sp, 72]
	add	x2, x0, 8
	ldr	x0, [sp, 72]
	ldr	w3, [x0]
	ldr	x0, [sp, 72]
	add	x0, x0, 16
	mov	x8, x0
	mov	x0, x19
.LEHB28:
	bl	_ZNSt8__detail13__compile_nfaINSt7__cxx1112regex_traitsIcEEPKcEENSt9enable_ifIXsrNS_20__is_contiguous_iterIT0_EE5valueESt10shared_ptrIKNS_4_NFAIT_EEEE4typeES8_S8_RKNSC_11locale_typeENSt15regex_constants18syntax_option_typeE
.LEHE28:
	b	.L309
.L308:
	mov	x19, x0
	ldr	x0, [sp, 72]
	add	x0, x0, 8
	bl	_ZNSt6localeD1Ev
	mov	x0, x19
.LEHB29:
	bl	_Unwind_Resume
.LEHE29:
.L309:
	adrp	x0, :got:__stack_chk_guard
	ldr	x0, [x0, #:got_lo12:__stack_chk_guard]
	ldr	x2, [sp, 88]
	ldr	x1, [x0]
	subs	x2, x2, x1
	mov	x1, 0
	beq	.L307
	bl	__stack_chk_fail
.L307:
	ldr	x19, [sp, 16]
	ldp	x29, x30, [sp], 96
	.cfi_restore 30
	.cfi_restore 29
	.cfi_restore 19
	.cfi_def_cfa_offset 0
	ret
	.cfi_endproc
.LFE5611:
	.section	.gcc_except_table
.LLSDA5611:
	.byte	0xff
	.byte	0xff
	.byte	0x1
	.uleb128 .LLSDACSE5611-.LLSDACSB5611
.LLSDACSB5611:
	.uleb128 .LEHB28-.LFB5611
	.uleb128 .LEHE28-.LEHB28
	.uleb128 .L308-.LFB5611
	.uleb128 0
	.uleb128 .LEHB29-.LFB5611
	.uleb128 .LEHE29-.LEHB29
	.uleb128 0
	.uleb128 0
.LLSDACSE5611:
	.section	.text._ZNSt7__cxx1111basic_regexIcNS_12regex_traitsIcEEEC2IPKcEET_S7_St6localeNSt15regex_constants18syntax_option_typeE,"axG",@progbits,_ZNSt7__cxx1111basic_regexIcNS_12regex_traitsIcEEEC5IPKcEET_S7_St6localeNSt15regex_constants18syntax_option_typeE,comdat
	.size	_ZNSt7__cxx1111basic_regexIcNS_12regex_traitsIcEEEC2IPKcEET_S7_St6localeNSt15regex_constants18syntax_option_typeE, .-_ZNSt7__cxx1111basic_regexIcNS_12regex_traitsIcEEEC2IPKcEET_S7_St6localeNSt15regex_constants18syntax_option_typeE
	.weak	_ZNSt7__cxx1111basic_regexIcNS_12regex_traitsIcEEEC1IPKcEET_S7_St6localeNSt15regex_constants18syntax_option_typeE
	.set	_ZNSt7__cxx1111basic_regexIcNS_12regex_traitsIcEEEC1IPKcEET_S7_St6localeNSt15regex_constants18syntax_option_typeE,_ZNSt7__cxx1111basic_regexIcNS_12regex_traitsIcEEEC2IPKcEET_S7_St6localeNSt15regex_constants18syntax_option_typeE
	.global	__aarch64_ldadd4_acq_rel
	.section	.text._ZNSt16_Sp_counted_baseILN9__gnu_cxx12_Lock_policyE2EE10_M_releaseEv,"axG",@progbits,_ZNSt16_Sp_counted_baseILN9__gnu_cxx12_Lock_policyE2EE10_M_releaseEv,comdat
	.align	2
	.weak	_ZNSt16_Sp_counted_baseILN9__gnu_cxx12_Lock_policyE2EE10_M_releaseEv
	.type	_ZNSt16_Sp_counted_baseILN9__gnu_cxx12_Lock_policyE2EE10_M_releaseEv, %function
_ZNSt16_Sp_counted_baseILN9__gnu_cxx12_Lock_policyE2EE10_M_releaseEv:
.LFB5613:
	.cfi_startproc
	stp	x29, x30, [sp, -112]!
	.cfi_def_cfa_offset 112
	.cfi_offset 29, -112
	.cfi_offset 30, -104
	mov	x29, sp
	str	x0, [sp, 24]
	ldr	x0, [sp, 24]
	add	x0, x0, 8
	str	x0, [sp, 64]
	mov	w0, -1
	str	w0, [sp, 32]
	adrp	x0, :got:__libc_single_threaded
	ldr	x0, [x0, #:got_lo12:__libc_single_threaded]
	ldrb	w0, [x0]
	cmp	w0, 0
	cset	w0, ne
	and	w0, w0, 255
	cmp	w0, 0
	beq	.L312
	ldr	x0, [sp, 64]
	str	x0, [sp, 72]
	ldr	w0, [sp, 32]
	str	w0, [sp, 36]
	ldr	x0, [sp, 72]
	ldr	w0, [x0]
	str	w0, [sp, 40]
	ldr	x0, [sp, 72]
	ldr	w1, [x0]
	ldr	w0, [sp, 36]
	add	w1, w1, w0
	ldr	x0, [sp, 72]
	str	w1, [x0]
	ldr	w0, [sp, 40]
	b	.L314
.L312:
	ldr	x0, [sp, 64]
	str	x0, [sp, 80]
	ldr	w0, [sp, 32]
	str	w0, [sp, 44]
	ldr	w0, [sp, 44]
	ldr	x1, [sp, 80]
	bl	__aarch64_ldadd4_acq_rel
	nop
.L314:
	cmp	w0, 1
	cset	w0, eq
	and	w0, w0, 255
	cmp	w0, 0
	beq	.L322
	ldr	x0, [sp, 24]
	ldr	x0, [x0]
	add	x0, x0, 16
	ldr	x1, [x0]
	ldr	x0, [sp, 24]
	blr	x1
	ldr	x0, [sp, 24]
	add	x0, x0, 12
	str	x0, [sp, 88]
	mov	w0, -1
	str	w0, [sp, 48]
	adrp	x0, :got:__libc_single_threaded
	ldr	x0, [x0, #:got_lo12:__libc_single_threaded]
	ldrb	w0, [x0]
	cmp	w0, 0
	cset	w0, ne
	and	w0, w0, 255
	cmp	w0, 0
	beq	.L318
	ldr	x0, [sp, 88]
	str	x0, [sp, 96]
	ldr	w0, [sp, 48]
	str	w0, [sp, 52]
	ldr	x0, [sp, 96]
	ldr	w0, [x0]
	str	w0, [sp, 56]
	ldr	x0, [sp, 96]
	ldr	w1, [x0]
	ldr	w0, [sp, 52]
	add	w1, w1, w0
	ldr	x0, [sp, 96]
	str	w1, [x0]
	ldr	w0, [sp, 56]
	b	.L320
.L318:
	ldr	x0, [sp, 88]
	str	x0, [sp, 104]
	ldr	w0, [sp, 48]
	str	w0, [sp, 60]
	ldr	w0, [sp, 60]
	ldr	x1, [sp, 104]
	bl	__aarch64_ldadd4_acq_rel
	nop
.L320:
	cmp	w0, 1
	cset	w0, eq
	and	w0, w0, 255
	cmp	w0, 0
	beq	.L322
	ldr	x0, [sp, 24]
	ldr	x0, [x0]
	add	x0, x0, 24
	ldr	x1, [x0]
	ldr	x0, [sp, 24]
	blr	x1
.L322:
	nop
	ldp	x29, x30, [sp], 112
	.cfi_restore 30
	.cfi_restore 29
	.cfi_def_cfa_offset 0
	ret
	.cfi_endproc
.LFE5613:
	.size	_ZNSt16_Sp_counted_baseILN9__gnu_cxx12_Lock_policyE2EE10_M_releaseEv, .-_ZNSt16_Sp_counted_baseILN9__gnu_cxx12_Lock_policyE2EE10_M_releaseEv
	.section	.text._ZN9__gnu_cxx13new_allocatorINSt7__cxx119sub_matchINS_17__normal_iteratorIPKcNS1_12basic_stringIcSt11char_traitsIcESaIcEEEEEEEEC2Ev,"axG",@progbits,_ZN9__gnu_cxx13new_allocatorINSt7__cxx119sub_matchINS_17__normal_iteratorIPKcNS1_12basic_stringIcSt11char_traitsIcESaIcEEEEEEEEC5Ev,comdat
	.align	2
	.weak	_ZN9__gnu_cxx13new_allocatorINSt7__cxx119sub_matchINS_17__normal_iteratorIPKcNS1_12basic_stringIcSt11char_traitsIcESaIcEEEEEEEEC2Ev
	.type	_ZN9__gnu_cxx13new_allocatorINSt7__cxx119sub_matchINS_17__normal_iteratorIPKcNS1_12basic_stringIcSt11char_traitsIcESaIcEEEEEEEEC2Ev, %function
_ZN9__gnu_cxx13new_allocatorINSt7__cxx119sub_matchINS_17__normal_iteratorIPKcNS1_12basic_stringIcSt11char_traitsIcESaIcEEEEEEEEC2Ev:
.LFB5615:
	.cfi_startproc
	sub	sp, sp, #16
	.cfi_def_cfa_offset 16
	str	x0, [sp, 8]
	nop
	add	sp, sp, 16
	.cfi_def_cfa_offset 0
	ret
	.cfi_endproc
.LFE5615:
	.size	_ZN9__gnu_cxx13new_allocatorINSt7__cxx119sub_matchINS_17__normal_iteratorIPKcNS1_12basic_stringIcSt11char_traitsIcESaIcEEEEEEEEC2Ev, .-_ZN9__gnu_cxx13new_allocatorINSt7__cxx119sub_matchINS_17__normal_iteratorIPKcNS1_12basic_stringIcSt11char_traitsIcESaIcEEEEEEEEC2Ev
	.weak	_ZN9__gnu_cxx13new_allocatorINSt7__cxx119sub_matchINS_17__normal_iteratorIPKcNS1_12basic_stringIcSt11char_traitsIcESaIcEEEEEEEEC1Ev
	.set	_ZN9__gnu_cxx13new_allocatorINSt7__cxx119sub_matchINS_17__normal_iteratorIPKcNS1_12basic_stringIcSt11char_traitsIcESaIcEEEEEEEEC1Ev,_ZN9__gnu_cxx13new_allocatorINSt7__cxx119sub_matchINS_17__normal_iteratorIPKcNS1_12basic_stringIcSt11char_traitsIcESaIcEEEEEEEEC2Ev
	.section	.text._ZN9__gnu_cxx13new_allocatorINSt7__cxx119sub_matchINS_17__normal_iteratorIPKcNS1_12basic_stringIcSt11char_traitsIcESaIcEEEEEEEED2Ev,"axG",@progbits,_ZN9__gnu_cxx13new_allocatorINSt7__cxx119sub_matchINS_17__normal_iteratorIPKcNS1_12basic_stringIcSt11char_traitsIcESaIcEEEEEEEED5Ev,comdat
	.align	2
	.weak	_ZN9__gnu_cxx13new_allocatorINSt7__cxx119sub_matchINS_17__normal_iteratorIPKcNS1_12basic_stringIcSt11char_traitsIcESaIcEEEEEEEED2Ev
	.type	_ZN9__gnu_cxx13new_allocatorINSt7__cxx119sub_matchINS_17__normal_iteratorIPKcNS1_12basic_stringIcSt11char_traitsIcESaIcEEEEEEEED2Ev, %function
_ZN9__gnu_cxx13new_allocatorINSt7__cxx119sub_matchINS_17__normal_iteratorIPKcNS1_12basic_stringIcSt11char_traitsIcESaIcEEEEEEEED2Ev:
.LFB5618:
	.cfi_startproc
	sub	sp, sp, #16
	.cfi_def_cfa_offset 16
	str	x0, [sp, 8]
	nop
	add	sp, sp, 16
	.cfi_def_cfa_offset 0
	ret
	.cfi_endproc
.LFE5618:
	.size	_ZN9__gnu_cxx13new_allocatorINSt7__cxx119sub_matchINS_17__normal_iteratorIPKcNS1_12basic_stringIcSt11char_traitsIcESaIcEEEEEEEED2Ev, .-_ZN9__gnu_cxx13new_allocatorINSt7__cxx119sub_matchINS_17__normal_iteratorIPKcNS1_12basic_stringIcSt11char_traitsIcESaIcEEEEEEEED2Ev
	.weak	_ZN9__gnu_cxx13new_allocatorINSt7__cxx119sub_matchINS_17__normal_iteratorIPKcNS1_12basic_stringIcSt11char_traitsIcESaIcEEEEEEEED1Ev
	.set	_ZN9__gnu_cxx13new_allocatorINSt7__cxx119sub_matchINS_17__normal_iteratorIPKcNS1_12basic_stringIcSt11char_traitsIcESaIcEEEEEEEED1Ev,_ZN9__gnu_cxx13new_allocatorINSt7__cxx119sub_matchINS_17__normal_iteratorIPKcNS1_12basic_stringIcSt11char_traitsIcESaIcEEEEEEEED2Ev
	.section	.text._ZNSt6vectorINSt7__cxx119sub_matchIN9__gnu_cxx17__normal_iteratorIPKcNS0_12basic_stringIcSt11char_traitsIcESaIcEEEEEEESaISC_EEC2ERKSD_,"axG",@progbits,_ZNSt6vectorINSt7__cxx119sub_matchIN9__gnu_cxx17__normal_iteratorIPKcNS0_12basic_stringIcSt11char_traitsIcESaIcEEEEEEESaISC_EEC5ERKSD_,comdat
	.align	2
	.weak	_ZNSt6vectorINSt7__cxx119sub_matchIN9__gnu_cxx17__normal_iteratorIPKcNS0_12basic_stringIcSt11char_traitsIcESaIcEEEEEEESaISC_EEC2ERKSD_
	.type	_ZNSt6vectorINSt7__cxx119sub_matchIN9__gnu_cxx17__normal_iteratorIPKcNS0_12basic_stringIcSt11char_traitsIcESaIcEEEEEEESaISC_EEC2ERKSD_, %function
_ZNSt6vectorINSt7__cxx119sub_matchIN9__gnu_cxx17__normal_iteratorIPKcNS0_12basic_stringIcSt11char_traitsIcESaIcEEEEEEESaISC_EEC2ERKSD_:
.LFB5621:
	.cfi_startproc
	stp	x29, x30, [sp, -32]!
	.cfi_def_cfa_offset 32
	.cfi_offset 29, -32
	.cfi_offset 30, -24
	mov	x29, sp
	str	x0, [sp, 24]
	str	x1, [sp, 16]
	ldr	x0, [sp, 24]
	ldr	x1, [sp, 16]
	bl	_ZNSt12_Vector_baseINSt7__cxx119sub_matchIN9__gnu_cxx17__normal_iteratorIPKcNS0_12basic_stringIcSt11char_traitsIcESaIcEEEEEEESaISC_EEC2ERKSD_
	nop
	ldp	x29, x30, [sp], 32
	.cfi_restore 30
	.cfi_restore 29
	.cfi_def_cfa_offset 0
	ret
	.cfi_endproc
.LFE5621:
	.size	_ZNSt6vectorINSt7__cxx119sub_matchIN9__gnu_cxx17__normal_iteratorIPKcNS0_12basic_stringIcSt11char_traitsIcESaIcEEEEEEESaISC_EEC2ERKSD_, .-_ZNSt6vectorINSt7__cxx119sub_matchIN9__gnu_cxx17__normal_iteratorIPKcNS0_12basic_stringIcSt11char_traitsIcESaIcEEEEEEESaISC_EEC2ERKSD_
	.weak	_ZNSt6vectorINSt7__cxx119sub_matchIN9__gnu_cxx17__normal_iteratorIPKcNS0_12basic_stringIcSt11char_traitsIcESaIcEEEEEEESaISC_EEC1ERKSD_
	.set	_ZNSt6vectorINSt7__cxx119sub_matchIN9__gnu_cxx17__normal_iteratorIPKcNS0_12basic_stringIcSt11char_traitsIcESaIcEEEEEEESaISC_EEC1ERKSD_,_ZNSt6vectorINSt7__cxx119sub_matchIN9__gnu_cxx17__normal_iteratorIPKcNS0_12basic_stringIcSt11char_traitsIcESaIcEEEEEEESaISC_EEC2ERKSD_
	.section	.text._ZN9__gnu_cxx17__normal_iteratorIPKcNSt7__cxx1112basic_stringIcSt11char_traitsIcESaIcEEEEC2Ev,"axG",@progbits,_ZN9__gnu_cxx17__normal_iteratorIPKcNSt7__cxx1112basic_stringIcSt11char_traitsIcESaIcEEEEC5Ev,comdat
	.align	2
	.weak	_ZN9__gnu_cxx17__normal_iteratorIPKcNSt7__cxx1112basic_stringIcSt11char_traitsIcESaIcEEEEC2Ev
	.type	_ZN9__gnu_cxx17__normal_iteratorIPKcNSt7__cxx1112basic_stringIcSt11char_traitsIcESaIcEEEEC2Ev, %function
_ZN9__gnu_cxx17__normal_iteratorIPKcNSt7__cxx1112basic_stringIcSt11char_traitsIcESaIcEEEEC2Ev:
.LFB5624:
	.cfi_startproc
	sub	sp, sp, #16
	.cfi_def_cfa_offset 16
	str	x0, [sp, 8]
	ldr	x0, [sp, 8]
	str	xzr, [x0]
	nop
	add	sp, sp, 16
	.cfi_def_cfa_offset 0
	ret
	.cfi_endproc
.LFE5624:
	.size	_ZN9__gnu_cxx17__normal_iteratorIPKcNSt7__cxx1112basic_stringIcSt11char_traitsIcESaIcEEEEC2Ev, .-_ZN9__gnu_cxx17__normal_iteratorIPKcNSt7__cxx1112basic_stringIcSt11char_traitsIcESaIcEEEEC2Ev
	.weak	_ZN9__gnu_cxx17__normal_iteratorIPKcNSt7__cxx1112basic_stringIcSt11char_traitsIcESaIcEEEEC1Ev
	.set	_ZN9__gnu_cxx17__normal_iteratorIPKcNSt7__cxx1112basic_stringIcSt11char_traitsIcESaIcEEEEC1Ev,_ZN9__gnu_cxx17__normal_iteratorIPKcNSt7__cxx1112basic_stringIcSt11char_traitsIcESaIcEEEEC2Ev
	.section	.text._ZNSt12_Vector_baseINSt7__cxx119sub_matchIN9__gnu_cxx17__normal_iteratorIPKcNS0_12basic_stringIcSt11char_traitsIcESaIcEEEEEEESaISC_EE13_M_deallocateEPSC_m,"axG",@progbits,_ZNSt12_Vector_baseINSt7__cxx119sub_matchIN9__gnu_cxx17__normal_iteratorIPKcNS0_12basic_stringIcSt11char_traitsIcESaIcEEEEEEESaISC_EE13_M_deallocateEPSC_m,comdat
	.align	2
	.weak	_ZNSt12_Vector_baseINSt7__cxx119sub_matchIN9__gnu_cxx17__normal_iteratorIPKcNS0_12basic_stringIcSt11char_traitsIcESaIcEEEEEEESaISC_EE13_M_deallocateEPSC_m
	.type	_ZNSt12_Vector_baseINSt7__cxx119sub_matchIN9__gnu_cxx17__normal_iteratorIPKcNS0_12basic_stringIcSt11char_traitsIcESaIcEEEEEEESaISC_EE13_M_deallocateEPSC_m, %function
_ZNSt12_Vector_baseINSt7__cxx119sub_matchIN9__gnu_cxx17__normal_iteratorIPKcNS0_12basic_stringIcSt11char_traitsIcESaIcEEEEEEESaISC_EE13_M_deallocateEPSC_m:
.LFB5626:
	.cfi_startproc
	stp	x29, x30, [sp, -48]!
	.cfi_def_cfa_offset 48
	.cfi_offset 29, -48
	.cfi_offset 30, -40
	mov	x29, sp
	str	x0, [sp, 40]
	str	x1, [sp, 32]
	str	x2, [sp, 24]
	ldr	x0, [sp, 32]
	cmp	x0, 0
	beq	.L329
	ldr	x0, [sp, 40]
	ldr	x2, [sp, 24]
	ldr	x1, [sp, 32]
	bl	_ZNSt16allocator_traitsISaINSt7__cxx119sub_matchIN9__gnu_cxx17__normal_iteratorIPKcNS0_12basic_stringIcSt11char_traitsIcESaIcEEEEEEEEE10deallocateERSD_PSC_m
.L329:
	nop
	ldp	x29, x30, [sp], 48
	.cfi_restore 30
	.cfi_restore 29
	.cfi_def_cfa_offset 0
	ret
	.cfi_endproc
.LFE5626:
	.size	_ZNSt12_Vector_baseINSt7__cxx119sub_matchIN9__gnu_cxx17__normal_iteratorIPKcNS0_12basic_stringIcSt11char_traitsIcESaIcEEEEEEESaISC_EE13_M_deallocateEPSC_m, .-_ZNSt12_Vector_baseINSt7__cxx119sub_matchIN9__gnu_cxx17__normal_iteratorIPKcNS0_12basic_stringIcSt11char_traitsIcESaIcEEEEEEESaISC_EE13_M_deallocateEPSC_m
	.section	.text._ZSt8_DestroyIPNSt7__cxx119sub_matchIN9__gnu_cxx17__normal_iteratorIPKcNS0_12basic_stringIcSt11char_traitsIcESaIcEEEEEEEEvT_SE_,"axG",@progbits,_ZSt8_DestroyIPNSt7__cxx119sub_matchIN9__gnu_cxx17__normal_iteratorIPKcNS0_12basic_stringIcSt11char_traitsIcESaIcEEEEEEEEvT_SE_,comdat
	.align	2
	.weak	_ZSt8_DestroyIPNSt7__cxx119sub_matchIN9__gnu_cxx17__normal_iteratorIPKcNS0_12basic_stringIcSt11char_traitsIcESaIcEEEEEEEEvT_SE_
	.type	_ZSt8_DestroyIPNSt7__cxx119sub_matchIN9__gnu_cxx17__normal_iteratorIPKcNS0_12basic_stringIcSt11char_traitsIcESaIcEEEEEEEEvT_SE_, %function
_ZSt8_DestroyIPNSt7__cxx119sub_matchIN9__gnu_cxx17__normal_iteratorIPKcNS0_12basic_stringIcSt11char_traitsIcESaIcEEEEEEEEvT_SE_:
.LFB5627:
	.cfi_startproc
	stp	x29, x30, [sp, -32]!
	.cfi_def_cfa_offset 32
	.cfi_offset 29, -32
	.cfi_offset 30, -24
	mov	x29, sp
	str	x0, [sp, 24]
	str	x1, [sp, 16]
	ldr	x1, [sp, 16]
	ldr	x0, [sp, 24]
	bl	_ZNSt12_Destroy_auxILb1EE9__destroyIPNSt7__cxx119sub_matchIN9__gnu_cxx17__normal_iteratorIPKcNS2_12basic_stringIcSt11char_traitsIcESaIcEEEEEEEEEvT_SG_
	nop
	ldp	x29, x30, [sp], 32
	.cfi_restore 30
	.cfi_restore 29
	.cfi_def_cfa_offset 0
	ret
	.cfi_endproc
.LFE5627:
	.size	_ZSt8_DestroyIPNSt7__cxx119sub_matchIN9__gnu_cxx17__normal_iteratorIPKcNS0_12basic_stringIcSt11char_traitsIcESaIcEEEEEEEEvT_SE_, .-_ZSt8_DestroyIPNSt7__cxx119sub_matchIN9__gnu_cxx17__normal_iteratorIPKcNS0_12basic_stringIcSt11char_traitsIcESaIcEEEEEEEEvT_SE_
	.section	.text._ZNSt8__detail9_ExecutorIN9__gnu_cxx17__normal_iteratorIPKcNSt7__cxx1112basic_stringIcSt11char_traitsIcESaIcEEEEESaINS5_9sub_matchISB_EEENS5_12regex_traitsIcEELb0EE11_State_infoISt17integral_constantIbLb0EESt6vectorISD_SE_EED2Ev,"axG",@progbits,_ZNSt8__detail9_ExecutorIN9__gnu_cxx17__normal_iteratorIPKcNSt7__cxx1112basic_stringIcSt11char_traitsIcESaIcEEEEESaINS5_9sub_matchISB_EEENS5_12regex_traitsIcEELb0EE11_State_infoISt17integral_constantIbLb0EESt6vectorISD_SE_EED5Ev,comdat
	.align	2
	.weak	_ZNSt8__detail9_ExecutorIN9__gnu_cxx17__normal_iteratorIPKcNSt7__cxx1112basic_stringIcSt11char_traitsIcESaIcEEEEESaINS5_9sub_matchISB_EEENS5_12regex_traitsIcEELb0EE11_State_infoISt17integral_constantIbLb0EESt6vectorISD_SE_EED2Ev
	.type	_ZNSt8__detail9_ExecutorIN9__gnu_cxx17__normal_iteratorIPKcNSt7__cxx1112basic_stringIcSt11char_traitsIcESaIcEEEEESaINS5_9sub_matchISB_EEENS5_12regex_traitsIcEELb0EE11_State_infoISt17integral_constantIbLb0EESt6vectorISD_SE_EED2Ev, %function
_ZNSt8__detail9_ExecutorIN9__gnu_cxx17__normal_iteratorIPKcNSt7__cxx1112basic_stringIcSt11char_traitsIcESaIcEEEEESaINS5_9sub_matchISB_EEENS5_12regex_traitsIcEELb0EE11_State_infoISt17integral_constantIbLb0EESt6vectorISD_SE_EED2Ev:
.LFB5635:
	.cfi_startproc
	stp	x29, x30, [sp, -32]!
	.cfi_def_cfa_offset 32
	.cfi_offset 29, -32
	.cfi_offset 30, -24
	mov	x29, sp
	str	x0, [sp, 24]
	ldr	x0, [sp, 24]
	add	x0, x0, 24
	bl	_ZNSt10unique_ptrIA_bSt14default_deleteIS0_EED1Ev
	ldr	x0, [sp, 24]
	bl	_ZNSt6vectorISt4pairIlS_INSt7__cxx119sub_matchIN9__gnu_cxx17__normal_iteratorIPKcNS1_12basic_stringIcSt11char_traitsIcESaIcEEEEEEESaISD_EEESaISG_EED1Ev
	nop
	ldp	x29, x30, [sp], 32
	.cfi_restore 30
	.cfi_restore 29
	.cfi_def_cfa_offset 0
	ret
	.cfi_endproc
.LFE5635:
	.size	_ZNSt8__detail9_ExecutorIN9__gnu_cxx17__normal_iteratorIPKcNSt7__cxx1112basic_stringIcSt11char_traitsIcESaIcEEEEESaINS5_9sub_matchISB_EEENS5_12regex_traitsIcEELb0EE11_State_infoISt17integral_constantIbLb0EESt6vectorISD_SE_EED2Ev, .-_ZNSt8__detail9_ExecutorIN9__gnu_cxx17__normal_iteratorIPKcNSt7__cxx1112basic_stringIcSt11char_traitsIcESaIcEEEEESaINS5_9sub_matchISB_EEENS5_12regex_traitsIcEELb0EE11_State_infoISt17integral_constantIbLb0EESt6vectorISD_SE_EED2Ev
	.weak	_ZNSt8__detail9_ExecutorIN9__gnu_cxx17__normal_iteratorIPKcNSt7__cxx1112basic_stringIcSt11char_traitsIcESaIcEEEEESaINS5_9sub_matchISB_EEENS5_12regex_traitsIcEELb0EE11_State_infoISt17integral_constantIbLb0EESt6vectorISD_SE_EED1Ev
	.set	_ZNSt8__detail9_ExecutorIN9__gnu_cxx17__normal_iteratorIPKcNSt7__cxx1112basic_stringIcSt11char_traitsIcESaIcEEEEESaINS5_9sub_matchISB_EEENS5_12regex_traitsIcEELb0EE11_State_infoISt17integral_constantIbLb0EESt6vectorISD_SE_EED1Ev,_ZNSt8__detail9_ExecutorIN9__gnu_cxx17__normal_iteratorIPKcNSt7__cxx1112basic_stringIcSt11char_traitsIcESaIcEEEEESaINS5_9sub_matchISB_EEENS5_12regex_traitsIcEELb0EE11_State_infoISt17integral_constantIbLb0EESt6vectorISD_SE_EED2Ev
	.section	.text._ZNSt8__detail9_ExecutorIN9__gnu_cxx17__normal_iteratorIPKcNSt7__cxx1112basic_stringIcSt11char_traitsIcESaIcEEEEESaINS5_9sub_matchISB_EEENS5_12regex_traitsIcEELb0EED2Ev,"axG",@progbits,_ZNSt8__detail9_ExecutorIN9__gnu_cxx17__normal_iteratorIPKcNSt7__cxx1112basic_stringIcSt11char_traitsIcESaIcEEEEESaINS5_9sub_matchISB_EEENS5_12regex_traitsIcEELb0EED5Ev,comdat
	.align	2
	.weak	_ZNSt8__detail9_ExecutorIN9__gnu_cxx17__normal_iteratorIPKcNSt7__cxx1112basic_stringIcSt11char_traitsIcESaIcEEEEESaINS5_9sub_matchISB_EEENS5_12regex_traitsIcEELb0EED2Ev
	.type	_ZNSt8__detail9_ExecutorIN9__gnu_cxx17__normal_iteratorIPKcNSt7__cxx1112basic_stringIcSt11char_traitsIcESaIcEEEEESaINS5_9sub_matchISB_EEENS5_12regex_traitsIcEELb0EED2Ev, %function
_ZNSt8__detail9_ExecutorIN9__gnu_cxx17__normal_iteratorIPKcNSt7__cxx1112basic_stringIcSt11char_traitsIcESaIcEEEEESaINS5_9sub_matchISB_EEENS5_12regex_traitsIcEELb0EED2Ev:
.LFB5637:
	.cfi_startproc
	stp	x29, x30, [sp, -32]!
	.cfi_def_cfa_offset 32
	.cfi_offset 29, -32
	.cfi_offset 30, -24
	mov	x29, sp
	str	x0, [sp, 24]
	ldr	x0, [sp, 24]
	add	x0, x0, 96
	bl	_ZNSt8__detail9_ExecutorIN9__gnu_cxx17__normal_iteratorIPKcNSt7__cxx1112basic_stringIcSt11char_traitsIcESaIcEEEEESaINS5_9sub_matchISB_EEENS5_12regex_traitsIcEELb0EE11_State_infoISt17integral_constantIbLb0EESt6vectorISD_SE_EED1Ev
	ldr	x0, [sp, 24]
	add	x0, x0, 72
	bl	_ZNSt6vectorISt4pairIN9__gnu_cxx17__normal_iteratorIPKcNSt7__cxx1112basic_stringIcSt11char_traitsIcESaIcEEEEEiESaISC_EED1Ev
	ldr	x0, [sp, 24]
	bl	_ZNSt6vectorINSt7__cxx119sub_matchIN9__gnu_cxx17__normal_iteratorIPKcNS0_12basic_stringIcSt11char_traitsIcESaIcEEEEEEESaISC_EED1Ev
	nop
	ldp	x29, x30, [sp], 32
	.cfi_restore 30
	.cfi_restore 29
	.cfi_def_cfa_offset 0
	ret
	.cfi_endproc
.LFE5637:
	.size	_ZNSt8__detail9_ExecutorIN9__gnu_cxx17__normal_iteratorIPKcNSt7__cxx1112basic_stringIcSt11char_traitsIcESaIcEEEEESaINS5_9sub_matchISB_EEENS5_12regex_traitsIcEELb0EED2Ev, .-_ZNSt8__detail9_ExecutorIN9__gnu_cxx17__normal_iteratorIPKcNSt7__cxx1112basic_stringIcSt11char_traitsIcESaIcEEEEESaINS5_9sub_matchISB_EEENS5_12regex_traitsIcEELb0EED2Ev
	.weak	_ZNSt8__detail9_ExecutorIN9__gnu_cxx17__normal_iteratorIPKcNSt7__cxx1112basic_stringIcSt11char_traitsIcESaIcEEEEESaINS5_9sub_matchISB_EEENS5_12regex_traitsIcEELb0EED1Ev
	.set	_ZNSt8__detail9_ExecutorIN9__gnu_cxx17__normal_iteratorIPKcNSt7__cxx1112basic_stringIcSt11char_traitsIcESaIcEEEEESaINS5_9sub_matchISB_EEENS5_12regex_traitsIcEELb0EED1Ev,_ZNSt8__detail9_ExecutorIN9__gnu_cxx17__normal_iteratorIPKcNSt7__cxx1112basic_stringIcSt11char_traitsIcESaIcEEEEESaINS5_9sub_matchISB_EEENS5_12regex_traitsIcEELb0EED2Ev
	.section	.text._ZNSt8__detail9_ExecutorIN9__gnu_cxx17__normal_iteratorIPKcNSt7__cxx1112basic_stringIcSt11char_traitsIcESaIcEEEEESaINS5_9sub_matchISB_EEENS5_12regex_traitsIcEELb1EED2Ev,"axG",@progbits,_ZNSt8__detail9_ExecutorIN9__gnu_cxx17__normal_iteratorIPKcNSt7__cxx1112basic_stringIcSt11char_traitsIcESaIcEEEEESaINS5_9sub_matchISB_EEENS5_12regex_traitsIcEELb1EED5Ev,comdat
	.align	2
	.weak	_ZNSt8__detail9_ExecutorIN9__gnu_cxx17__normal_iteratorIPKcNSt7__cxx1112basic_stringIcSt11char_traitsIcESaIcEEEEESaINS5_9sub_matchISB_EEENS5_12regex_traitsIcEELb1EED2Ev
	.type	_ZNSt8__detail9_ExecutorIN9__gnu_cxx17__normal_iteratorIPKcNSt7__cxx1112basic_stringIcSt11char_traitsIcESaIcEEEEESaINS5_9sub_matchISB_EEENS5_12regex_traitsIcEELb1EED2Ev, %function
_ZNSt8__detail9_ExecutorIN9__gnu_cxx17__normal_iteratorIPKcNSt7__cxx1112basic_stringIcSt11char_traitsIcESaIcEEEEESaINS5_9sub_matchISB_EEENS5_12regex_traitsIcEELb1EED2Ev:
.LFB5640:
	.cfi_startproc
	stp	x29, x30, [sp, -32]!
	.cfi_def_cfa_offset 32
	.cfi_offset 29, -32
	.cfi_offset 30, -24
	mov	x29, sp
	str	x0, [sp, 24]
	ldr	x0, [sp, 24]
	add	x0, x0, 72
	bl	_ZNSt6vectorISt4pairIN9__gnu_cxx17__normal_iteratorIPKcNSt7__cxx1112basic_stringIcSt11char_traitsIcESaIcEEEEEiESaISC_EED1Ev
	ldr	x0, [sp, 24]
	bl	_ZNSt6vectorINSt7__cxx119sub_matchIN9__gnu_cxx17__normal_iteratorIPKcNS0_12basic_stringIcSt11char_traitsIcESaIcEEEEEEESaISC_EED1Ev
	nop
	ldp	x29, x30, [sp], 32
	.cfi_restore 30
	.cfi_restore 29
	.cfi_def_cfa_offset 0
	ret
	.cfi_endproc
.LFE5640:
	.size	_ZNSt8__detail9_ExecutorIN9__gnu_cxx17__normal_iteratorIPKcNSt7__cxx1112basic_stringIcSt11char_traitsIcESaIcEEEEESaINS5_9sub_matchISB_EEENS5_12regex_traitsIcEELb1EED2Ev, .-_ZNSt8__detail9_ExecutorIN9__gnu_cxx17__normal_iteratorIPKcNSt7__cxx1112basic_stringIcSt11char_traitsIcESaIcEEEEESaINS5_9sub_matchISB_EEENS5_12regex_traitsIcEELb1EED2Ev
	.weak	_ZNSt8__detail9_ExecutorIN9__gnu_cxx17__normal_iteratorIPKcNSt7__cxx1112basic_stringIcSt11char_traitsIcESaIcEEEEESaINS5_9sub_matchISB_EEENS5_12regex_traitsIcEELb1EED1Ev
	.set	_ZNSt8__detail9_ExecutorIN9__gnu_cxx17__normal_iteratorIPKcNSt7__cxx1112basic_stringIcSt11char_traitsIcESaIcEEEEESaINS5_9sub_matchISB_EEENS5_12regex_traitsIcEELb1EED1Ev,_ZNSt8__detail9_ExecutorIN9__gnu_cxx17__normal_iteratorIPKcNSt7__cxx1112basic_stringIcSt11char_traitsIcESaIcEEEEESaINS5_9sub_matchISB_EEENS5_12regex_traitsIcEELb1EED2Ev
	.section	.text._ZNSt8__detail17__regex_algo_implIN9__gnu_cxx17__normal_iteratorIPKcNSt7__cxx1112basic_stringIcSt11char_traitsIcESaIcEEEEESaINS5_9sub_matchISB_EEEcNS5_12regex_traitsIcEELNS_20_RegexExecutorPolicyE0ELb0EEEbT_SI_RNS5_13match_resultsISI_T0_EERKNS5_11basic_regexIT1_T2_EENSt15regex_constants15match_flag_typeE,"axG",@progbits,_ZNSt8__detail17__regex_algo_implIN9__gnu_cxx17__normal_iteratorIPKcNSt7__cxx1112basic_stringIcSt11char_traitsIcESaIcEEEEESaINS5_9sub_matchISB_EEEcNS5_12regex_traitsIcEELNS_20_RegexExecutorPolicyE0ELb0EEEbT_SI_RNS5_13match_resultsISI_T0_EERKNS5_11basic_regexIT1_T2_EENSt15regex_constants15match_flag_typeE,comdat
	.align	2
	.weak	_ZNSt8__detail17__regex_algo_implIN9__gnu_cxx17__normal_iteratorIPKcNSt7__cxx1112basic_stringIcSt11char_traitsIcESaIcEEEEESaINS5_9sub_matchISB_EEEcNS5_12regex_traitsIcEELNS_20_RegexExecutorPolicyE0ELb0EEEbT_SI_RNS5_13match_resultsISI_T0_EERKNS5_11basic_regexIT1_T2_EENSt15regex_constants15match_flag_typeE
	.type	_ZNSt8__detail17__regex_algo_implIN9__gnu_cxx17__normal_iteratorIPKcNSt7__cxx1112basic_stringIcSt11char_traitsIcESaIcEEEEESaINS5_9sub_matchISB_EEEcNS5_12regex_traitsIcEELNS_20_RegexExecutorPolicyE0ELb0EEEbT_SI_RNS5_13match_resultsISI_T0_EERKNS5_11basic_regexIT1_T2_EENSt15regex_constants15match_flag_typeE, %function
_ZNSt8__detail17__regex_algo_implIN9__gnu_cxx17__normal_iteratorIPKcNSt7__cxx1112basic_stringIcSt11char_traitsIcESaIcEEEEESaINS5_9sub_matchISB_EEEcNS5_12regex_traitsIcEELNS_20_RegexExecutorPolicyE0ELb0EEEbT_SI_RNS5_13match_resultsISI_T0_EERKNS5_11basic_regexIT1_T2_EENSt15regex_constants15match_flag_typeE:
.LFB5632:
	.cfi_startproc
	.cfi_personality 0x9b,DW.ref.__gxx_personality_v0
	.cfi_lsda 0x1b,.LLSDA5632
	stp	x29, x30, [sp, -288]!
	.cfi_def_cfa_offset 288
	.cfi_offset 29, -288
	.cfi_offset 30, -280
	mov	x29, sp
	str	x19, [sp, 16]
	.cfi_offset 19, -272
	str	x0, [sp, 72]
	str	x1, [sp, 64]
	str	x2, [sp, 56]
	str	x3, [sp, 48]
	str	w4, [sp, 44]
	adrp	x0, :got:__stack_chk_guard
	ldr	x0, [x0, #:got_lo12:__stack_chk_guard]
	ldr	x1, [x0]
	str	x1, [sp, 280]
	mov	x1, 0
	ldr	x0, [sp, 48]
	add	x0, x0, 16
	mov	x1, 0
	bl	_ZSteqIKNSt8__detail4_NFAINSt7__cxx1112regex_traitsIcEEEEEbRKSt10shared_ptrIT_EDn
	and	w0, w0, 255
	cmp	w0, 0
	beq	.L335
	mov	w0, 0
	b	.L336
.L335:
	ldr	x0, [sp, 56]
	str	x0, [sp, 96]
	ldr	x0, [sp, 56]
	ldr	x1, [sp, 72]
	str	x1, [x0, 24]
	ldr	x0, [sp, 48]
	add	x0, x0, 16
	bl	_ZNKSt19__shared_ptr_accessIKNSt8__detail4_NFAINSt7__cxx1112regex_traitsIcEEEELN9__gnu_cxx12_Lock_policyE2ELb0ELb0EEptEv
	bl	_ZNKSt8__detail9_NFA_base12_M_sub_countEv
	mov	w1, w0
	ldr	x0, [sp, 56]
.LEHB30:
	bl	_ZNSt7__cxx1113match_resultsIN9__gnu_cxx17__normal_iteratorIPKcNS_12basic_stringIcSt11char_traitsIcESaIcEEEEESaINS_9sub_matchISA_EEEE9_M_resizeEj
	ldr	x0, [sp, 48]
	bl	_ZNKSt7__cxx1111basic_regexIcNS_12regex_traitsIcEEE5flagsEv
	mov	w1, 1024
	bl	_ZNSt15regex_constantsanENS_18syntax_option_typeES0_
	cmp	w0, 0
	beq	.L337
	mov	w0, 1
	b	.L338
.L337:
	mov	w0, 0
.L338:
	cmp	w0, 0
	beq	.L339
	ldr	x1, [sp, 56]
	add	x0, sp, 136
	ldr	w5, [sp, 44]
	ldr	x4, [sp, 48]
	mov	x3, x1
	ldr	x2, [sp, 64]
	ldr	x1, [sp, 72]
	bl	_ZNSt8__detail9_ExecutorIN9__gnu_cxx17__normal_iteratorIPKcNSt7__cxx1112basic_stringIcSt11char_traitsIcESaIcEEEEESaINS5_9sub_matchISB_EEENS5_12regex_traitsIcEELb0EEC1ESB_SB_RSt6vectorISD_SE_ERKNS5_11basic_regexIcSG_EENSt15regex_constants15match_flag_typeE
.LEHE30:
	add	x0, sp, 136
.LEHB31:
	bl	_ZNSt8__detail9_ExecutorIN9__gnu_cxx17__normal_iteratorIPKcNSt7__cxx1112basic_stringIcSt11char_traitsIcESaIcEEEEESaINS5_9sub_matchISB_EEENS5_12regex_traitsIcEELb0EE9_M_searchEv
.LEHE31:
	and	w0, w0, 255
	strb	w0, [sp, 87]
	add	x0, sp, 136
	bl	_ZNSt8__detail9_ExecutorIN9__gnu_cxx17__normal_iteratorIPKcNSt7__cxx1112basic_stringIcSt11char_traitsIcESaIcEEEEESaINS5_9sub_matchISB_EEENS5_12regex_traitsIcEELb0EED1Ev
	b	.L340
.L339:
	ldr	x1, [sp, 56]
	add	x0, sp, 136
	ldr	w5, [sp, 44]
	ldr	x4, [sp, 48]
	mov	x3, x1
	ldr	x2, [sp, 64]
	ldr	x1, [sp, 72]
.LEHB32:
	bl	_ZNSt8__detail9_ExecutorIN9__gnu_cxx17__normal_iteratorIPKcNSt7__cxx1112basic_stringIcSt11char_traitsIcESaIcEEEEESaINS5_9sub_matchISB_EEENS5_12regex_traitsIcEELb1EEC1ESB_SB_RSt6vectorISD_SE_ERKNS5_11basic_regexIcSG_EENSt15regex_constants15match_flag_typeE
.LEHE32:
	add	x0, sp, 136
.LEHB33:
	bl	_ZNSt8__detail9_ExecutorIN9__gnu_cxx17__normal_iteratorIPKcNSt7__cxx1112basic_stringIcSt11char_traitsIcESaIcEEEEESaINS5_9sub_matchISB_EEENS5_12regex_traitsIcEELb1EE9_M_searchEv
.LEHE33:
	and	w0, w0, 255
	strb	w0, [sp, 87]
	add	x0, sp, 136
	bl	_ZNSt8__detail9_ExecutorIN9__gnu_cxx17__normal_iteratorIPKcNSt7__cxx1112basic_stringIcSt11char_traitsIcESaIcEEEEESaINS5_9sub_matchISB_EEENS5_12regex_traitsIcEELb1EED1Ev
.L340:
	ldrb	w0, [sp, 87]
	cmp	w0, 0
	beq	.L341
	ldr	x0, [sp, 96]
	str	x0, [sp, 104]
	ldr	x0, [sp, 104]
	bl	_ZNSt6vectorINSt7__cxx119sub_matchIN9__gnu_cxx17__normal_iteratorIPKcNS0_12basic_stringIcSt11char_traitsIcESaIcEEEEEEESaISC_EE5beginEv
	str	x0, [sp, 88]
	ldr	x0, [sp, 104]
	bl	_ZNSt6vectorINSt7__cxx119sub_matchIN9__gnu_cxx17__normal_iteratorIPKcNS0_12basic_stringIcSt11char_traitsIcESaIcEEEEEEESaISC_EE3endEv
	str	x0, [sp, 136]
	b	.L342
.L344:
	add	x0, sp, 88
	bl	_ZNK9__gnu_cxx17__normal_iteratorIPNSt7__cxx119sub_matchINS0_IPKcNS1_12basic_stringIcSt11char_traitsIcESaIcEEEEEEESt6vectorISB_SaISB_EEEdeEv
	str	x0, [sp, 128]
	ldr	x0, [sp, 128]
	ldrb	w0, [x0, 16]
	eor	w0, w0, 1
	and	w0, w0, 255
	cmp	w0, 0
	beq	.L343
	ldr	x0, [sp, 128]
	ldr	x1, [sp, 64]
	str	x1, [x0, 8]
	ldr	x0, [sp, 128]
	add	x1, x0, 8
	ldr	x0, [sp, 128]
	ldr	x1, [x1]
	str	x1, [x0]
.L343:
	add	x0, sp, 88
	bl	_ZN9__gnu_cxx17__normal_iteratorIPNSt7__cxx119sub_matchINS0_IPKcNS1_12basic_stringIcSt11char_traitsIcESaIcEEEEEEESt6vectorISB_SaISB_EEEppEv
.L342:
	add	x1, sp, 136
	add	x0, sp, 88
	bl	_ZN9__gnu_cxxneIPNSt7__cxx119sub_matchINS_17__normal_iteratorIPKcNS1_12basic_stringIcSt11char_traitsIcESaIcEEEEEEESt6vectorISC_SaISC_EEEEbRKNS3_IT_T0_EESL_
	and	w0, w0, 255
	cmp	w0, 0
	bne	.L344
	ldr	x0, [sp, 56]
	bl	_ZNSt7__cxx1113match_resultsIN9__gnu_cxx17__normal_iteratorIPKcNS_12basic_stringIcSt11char_traitsIcESaIcEEEEESaINS_9sub_matchISA_EEEE9_M_prefixEv
	str	x0, [sp, 112]
	ldr	x0, [sp, 56]
	bl	_ZNSt7__cxx1113match_resultsIN9__gnu_cxx17__normal_iteratorIPKcNS_12basic_stringIcSt11char_traitsIcESaIcEEEEESaINS_9sub_matchISA_EEEE9_M_suffixEv
	str	x0, [sp, 120]
	ldr	x0, [sp, 112]
	ldr	x1, [sp, 72]
	str	x1, [x0]
	mov	x1, 0
	ldr	x0, [sp, 96]
	bl	_ZNSt6vectorINSt7__cxx119sub_matchIN9__gnu_cxx17__normal_iteratorIPKcNS0_12basic_stringIcSt11char_traitsIcESaIcEEEEEEESaISC_EEixEm
	mov	x1, x0
	ldr	x0, [sp, 112]
	ldr	x1, [x1]
	str	x1, [x0, 8]
	ldr	x2, [sp, 112]
	ldr	x0, [sp, 112]
	add	x0, x0, 8
	mov	x1, x0
	mov	x0, x2
	bl	_ZN9__gnu_cxxneIPKcNSt7__cxx1112basic_stringIcSt11char_traitsIcESaIcEEEEEbRKNS_17__normal_iteratorIT_T0_EESE_
	and	w1, w0, 255
	ldr	x0, [sp, 112]
	strb	w1, [x0, 16]
	mov	x1, 0
	ldr	x0, [sp, 96]
	bl	_ZNSt6vectorINSt7__cxx119sub_matchIN9__gnu_cxx17__normal_iteratorIPKcNS0_12basic_stringIcSt11char_traitsIcESaIcEEEEEEESaISC_EEixEm
	mov	x1, x0
	ldr	x0, [sp, 120]
	ldr	x1, [x1, 8]
	str	x1, [x0]
	ldr	x0, [sp, 120]
	ldr	x1, [sp, 64]
	str	x1, [x0, 8]
	ldr	x2, [sp, 120]
	ldr	x0, [sp, 120]
	add	x0, x0, 8
	mov	x1, x0
	mov	x0, x2
	bl	_ZN9__gnu_cxxneIPKcNSt7__cxx1112basic_stringIcSt11char_traitsIcESaIcEEEEEbRKNS_17__normal_iteratorIT_T0_EESE_
	and	w1, w0, 255
	ldr	x0, [sp, 120]
	strb	w1, [x0, 16]
	b	.L345
.L341:
	ldr	x1, [sp, 64]
	ldr	x0, [sp, 56]
.LEHB34:
	bl	_ZNSt7__cxx1113match_resultsIN9__gnu_cxx17__normal_iteratorIPKcNS_12basic_stringIcSt11char_traitsIcESaIcEEEEESaINS_9sub_matchISA_EEEE25_M_establish_failed_matchESA_
.L345:
	ldrb	w0, [sp, 87]
.L336:
	mov	w1, w0
	adrp	x0, :got:__stack_chk_guard
	ldr	x0, [x0, #:got_lo12:__stack_chk_guard]
	ldr	x3, [sp, 280]
	ldr	x2, [x0]
	subs	x3, x3, x2
	mov	x2, 0
	beq	.L348
	b	.L351
.L349:
	mov	x19, x0
	add	x0, sp, 136
	bl	_ZNSt8__detail9_ExecutorIN9__gnu_cxx17__normal_iteratorIPKcNSt7__cxx1112basic_stringIcSt11char_traitsIcESaIcEEEEESaINS5_9sub_matchISB_EEENS5_12regex_traitsIcEELb0EED1Ev
	mov	x0, x19
	bl	_Unwind_Resume
.L350:
	mov	x19, x0
	add	x0, sp, 136
	bl	_ZNSt8__detail9_ExecutorIN9__gnu_cxx17__normal_iteratorIPKcNSt7__cxx1112basic_stringIcSt11char_traitsIcESaIcEEEEESaINS5_9sub_matchISB_EEENS5_12regex_traitsIcEELb1EED1Ev
	mov	x0, x19
	bl	_Unwind_Resume
.LEHE34:
.L351:
	bl	__stack_chk_fail
.L348:
	mov	w0, w1
	ldr	x19, [sp, 16]
	ldp	x29, x30, [sp], 288
	.cfi_restore 30
	.cfi_restore 29
	.cfi_restore 19
	.cfi_def_cfa_offset 0
	ret
	.cfi_endproc
.LFE5632:
	.section	.gcc_except_table
.LLSDA5632:
	.byte	0xff
	.byte	0xff
	.byte	0x1
	.uleb128 .LLSDACSE5632-.LLSDACSB5632
.LLSDACSB5632:
	.uleb128 .LEHB30-.LFB5632
	.uleb128 .LEHE30-.LEHB30
	.uleb128 0
	.uleb128 0
	.uleb128 .LEHB31-.LFB5632
	.uleb128 .LEHE31-.LEHB31
	.uleb128 .L349-.LFB5632
	.uleb128 0
	.uleb128 .LEHB32-.LFB5632
	.uleb128 .LEHE32-.LEHB32
	.uleb128 0
	.uleb128 0
	.uleb128 .LEHB33-.LFB5632
	.uleb128 .LEHE33-.LEHB33
	.uleb128 .L350-.LFB5632
	.uleb128 0
	.uleb128 .LEHB34-.LFB5632
	.uleb128 .LEHE34-.LEHB34
	.uleb128 0
	.uleb128 0
.LLSDACSE5632:
	.section	.text._ZNSt8__detail17__regex_algo_implIN9__gnu_cxx17__normal_iteratorIPKcNSt7__cxx1112basic_stringIcSt11char_traitsIcESaIcEEEEESaINS5_9sub_matchISB_EEEcNS5_12regex_traitsIcEELNS_20_RegexExecutorPolicyE0ELb0EEEbT_SI_RNS5_13match_resultsISI_T0_EERKNS5_11basic_regexIT1_T2_EENSt15regex_constants15match_flag_typeE,"axG",@progbits,_ZNSt8__detail17__regex_algo_implIN9__gnu_cxx17__normal_iteratorIPKcNSt7__cxx1112basic_stringIcSt11char_traitsIcESaIcEEEEESaINS5_9sub_matchISB_EEEcNS5_12regex_traitsIcEELNS_20_RegexExecutorPolicyE0ELb0EEEbT_SI_RNS5_13match_resultsISI_T0_EERKNS5_11basic_regexIT1_T2_EENSt15regex_constants15match_flag_typeE,comdat
	.size	_ZNSt8__detail17__regex_algo_implIN9__gnu_cxx17__normal_iteratorIPKcNSt7__cxx1112basic_stringIcSt11char_traitsIcESaIcEEEEESaINS5_9sub_matchISB_EEEcNS5_12regex_traitsIcEELNS_20_RegexExecutorPolicyE0ELb0EEEbT_SI_RNS5_13match_resultsISI_T0_EERKNS5_11basic_regexIT1_T2_EENSt15regex_constants15match_flag_typeE, .-_ZNSt8__detail17__regex_algo_implIN9__gnu_cxx17__normal_iteratorIPKcNSt7__cxx1112basic_stringIcSt11char_traitsIcESaIcEEEEESaINS5_9sub_matchISB_EEEcNS5_12regex_traitsIcEELNS_20_RegexExecutorPolicyE0ELb0EEEbT_SI_RNS5_13match_resultsISI_T0_EERKNS5_11basic_regexIT1_T2_EENSt15regex_constants15match_flag_typeE
	.section	.text._ZNSt20back_insert_iteratorINSt7__cxx1112basic_stringIcSt11char_traitsIcESaIcEEEEC2ERS5_,"axG",@progbits,_ZNSt20back_insert_iteratorINSt7__cxx1112basic_stringIcSt11char_traitsIcESaIcEEEEC5ERS5_,comdat
	.align	2
	.weak	_ZNSt20back_insert_iteratorINSt7__cxx1112basic_stringIcSt11char_traitsIcESaIcEEEEC2ERS5_
	.type	_ZNSt20back_insert_iteratorINSt7__cxx1112basic_stringIcSt11char_traitsIcESaIcEEEEC2ERS5_, %function
_ZNSt20back_insert_iteratorINSt7__cxx1112basic_stringIcSt11char_traitsIcESaIcEEEEC2ERS5_:
.LFB5643:
	.cfi_startproc
	stp	x29, x30, [sp, -32]!
	.cfi_def_cfa_offset 32
	.cfi_offset 29, -32
	.cfi_offset 30, -24
	mov	x29, sp
	str	x0, [sp, 24]
	str	x1, [sp, 16]
	ldr	x0, [sp, 16]
	bl	_ZSt11__addressofINSt7__cxx1112basic_stringIcSt11char_traitsIcESaIcEEEEPT_RS6_
	mov	x1, x0
	ldr	x0, [sp, 24]
	str	x1, [x0]
	nop
	ldp	x29, x30, [sp], 32
	.cfi_restore 30
	.cfi_restore 29
	.cfi_def_cfa_offset 0
	ret
	.cfi_endproc
.LFE5643:
	.size	_ZNSt20back_insert_iteratorINSt7__cxx1112basic_stringIcSt11char_traitsIcESaIcEEEEC2ERS5_, .-_ZNSt20back_insert_iteratorINSt7__cxx1112basic_stringIcSt11char_traitsIcESaIcEEEEC2ERS5_
	.weak	_ZNSt20back_insert_iteratorINSt7__cxx1112basic_stringIcSt11char_traitsIcESaIcEEEEC1ERS5_
	.set	_ZNSt20back_insert_iteratorINSt7__cxx1112basic_stringIcSt11char_traitsIcESaIcEEEEC1ERS5_,_ZNSt20back_insert_iteratorINSt7__cxx1112basic_stringIcSt11char_traitsIcESaIcEEEEC2ERS5_
	.section	.text._ZNSt7__cxx1112regex_traitsIcEC2Ev,"axG",@progbits,_ZNSt7__cxx1112regex_traitsIcEC5Ev,comdat
	.align	2
	.weak	_ZNSt7__cxx1112regex_traitsIcEC2Ev
	.type	_ZNSt7__cxx1112regex_traitsIcEC2Ev, %function
_ZNSt7__cxx1112regex_traitsIcEC2Ev:
.LFB5647:
	.cfi_startproc
	stp	x29, x30, [sp, -32]!
	.cfi_def_cfa_offset 32
	.cfi_offset 29, -32
	.cfi_offset 30, -24
	mov	x29, sp
	str	x0, [sp, 24]
	ldr	x0, [sp, 24]
	bl	_ZNSt6localeC1Ev
	nop
	ldp	x29, x30, [sp], 32
	.cfi_restore 30
	.cfi_restore 29
	.cfi_def_cfa_offset 0
	ret
	.cfi_endproc
.LFE5647:
	.size	_ZNSt7__cxx1112regex_traitsIcEC2Ev, .-_ZNSt7__cxx1112regex_traitsIcEC2Ev
	.weak	_ZNSt7__cxx1112regex_traitsIcEC1Ev
	.set	_ZNSt7__cxx1112regex_traitsIcEC1Ev,_ZNSt7__cxx1112regex_traitsIcEC2Ev
	.section	.text._ZNKSt7__cxx1112regex_traitsIcE6getlocEv,"axG",@progbits,_ZNKSt7__cxx1112regex_traitsIcE6getlocEv,comdat
	.align	2
	.weak	_ZNKSt7__cxx1112regex_traitsIcE6getlocEv
	.type	_ZNKSt7__cxx1112regex_traitsIcE6getlocEv, %function
_ZNKSt7__cxx1112regex_traitsIcE6getlocEv:
.LFB5649:
	.cfi_startproc
	stp	x29, x30, [sp, -48]!
	.cfi_def_cfa_offset 48
	.cfi_offset 29, -48
	.cfi_offset 30, -40
	mov	x29, sp
	str	x19, [sp, 16]
	.cfi_offset 19, -32
	mov	x19, x8
	str	x0, [sp, 40]
	ldr	x0, [sp, 40]
	mov	x1, x0
	mov	x0, x19
	bl	_ZNSt6localeC1ERKS_
	mov	x0, x19
	ldr	x19, [sp, 16]
	ldp	x29, x30, [sp], 48
	.cfi_restore 30
	.cfi_restore 29
	.cfi_restore 19
	.cfi_def_cfa_offset 0
	ret
	.cfi_endproc
.LFE5649:
	.size	_ZNKSt7__cxx1112regex_traitsIcE6getlocEv, .-_ZNKSt7__cxx1112regex_traitsIcE6getlocEv
	.section	.text._ZNKSt7__cxx1113match_resultsIN9__gnu_cxx17__normal_iteratorIPKcNS_12basic_stringIcSt11char_traitsIcESaIcEEEEESaINS_9sub_matchISA_EEEEixEm,"axG",@progbits,_ZNKSt7__cxx1113match_resultsIN9__gnu_cxx17__normal_iteratorIPKcNS_12basic_stringIcSt11char_traitsIcESaIcEEEEESaINS_9sub_matchISA_EEEEixEm,comdat
	.align	2
	.weak	_ZNKSt7__cxx1113match_resultsIN9__gnu_cxx17__normal_iteratorIPKcNS_12basic_stringIcSt11char_traitsIcESaIcEEEEESaINS_9sub_matchISA_EEEEixEm
	.type	_ZNKSt7__cxx1113match_resultsIN9__gnu_cxx17__normal_iteratorIPKcNS_12basic_stringIcSt11char_traitsIcESaIcEEEEESaINS_9sub_matchISA_EEEEixEm, %function
_ZNKSt7__cxx1113match_resultsIN9__gnu_cxx17__normal_iteratorIPKcNS_12basic_stringIcSt11char_traitsIcESaIcEEEEESaINS_9sub_matchISA_EEEEixEm:
.LFB5650:
	.cfi_startproc
	stp	x29, x30, [sp, -32]!
	.cfi_def_cfa_offset 32
	.cfi_offset 29, -32
	.cfi_offset 30, -24
	mov	x29, sp
	str	x0, [sp, 24]
	str	x1, [sp, 16]
	mov	w0, 0
	cmp	w0, 0
	ldr	x0, [sp, 24]
	bl	_ZNKSt7__cxx1113match_resultsIN9__gnu_cxx17__normal_iteratorIPKcNS_12basic_stringIcSt11char_traitsIcESaIcEEEEESaINS_9sub_matchISA_EEEE4sizeEv
	mov	x1, x0
	ldr	x0, [sp, 16]
	cmp	x0, x1
	bcs	.L358
	ldr	x0, [sp, 24]
	ldr	x1, [sp, 16]
	bl	_ZNKSt6vectorINSt7__cxx119sub_matchIN9__gnu_cxx17__normal_iteratorIPKcNS0_12basic_stringIcSt11char_traitsIcESaIcEEEEEEESaISC_EEixEm
	b	.L360
.L358:
	ldr	x0, [sp, 24]
	bl	_ZNKSt7__cxx1113match_resultsIN9__gnu_cxx17__normal_iteratorIPKcNS_12basic_stringIcSt11char_traitsIcESaIcEEEEESaINS_9sub_matchISA_EEEE16_M_unmatched_subEv
.L360:
	ldp	x29, x30, [sp], 32
	.cfi_restore 30
	.cfi_restore 29
	.cfi_def_cfa_offset 0
	ret
	.cfi_endproc
.LFE5650:
	.size	_ZNKSt7__cxx1113match_resultsIN9__gnu_cxx17__normal_iteratorIPKcNS_12basic_stringIcSt11char_traitsIcESaIcEEEEESaINS_9sub_matchISA_EEEEixEm, .-_ZNKSt7__cxx1113match_resultsIN9__gnu_cxx17__normal_iteratorIPKcNS_12basic_stringIcSt11char_traitsIcESaIcEEEEESaINS_9sub_matchISA_EEEEixEm
	.section	.text._ZSt4copyIN9__gnu_cxx17__normal_iteratorIPKcNSt7__cxx1112basic_stringIcSt11char_traitsIcESaIcEEEEESt20back_insert_iteratorIS9_EET0_T_SE_SD_,"axG",@progbits,_ZSt4copyIN9__gnu_cxx17__normal_iteratorIPKcNSt7__cxx1112basic_stringIcSt11char_traitsIcESaIcEEEEESt20back_insert_iteratorIS9_EET0_T_SE_SD_,comdat
	.align	2
	.weak	_ZSt4copyIN9__gnu_cxx17__normal_iteratorIPKcNSt7__cxx1112basic_stringIcSt11char_traitsIcESaIcEEEEESt20back_insert_iteratorIS9_EET0_T_SE_SD_
	.type	_ZSt4copyIN9__gnu_cxx17__normal_iteratorIPKcNSt7__cxx1112basic_stringIcSt11char_traitsIcESaIcEEEEESt20back_insert_iteratorIS9_EET0_T_SE_SD_, %function
_ZSt4copyIN9__gnu_cxx17__normal_iteratorIPKcNSt7__cxx1112basic_stringIcSt11char_traitsIcESaIcEEEEESt20back_insert_iteratorIS9_EET0_T_SE_SD_:
.LFB5651:
	.cfi_startproc
	stp	x29, x30, [sp, -64]!
	.cfi_def_cfa_offset 64
	.cfi_offset 29, -64
	.cfi_offset 30, -56
	mov	x29, sp
	str	x19, [sp, 16]
	.cfi_offset 19, -48
	str	x0, [sp, 56]
	str	x1, [sp, 48]
	str	x2, [sp, 40]
	ldr	x0, [sp, 56]
	bl	_ZSt12__miter_baseIN9__gnu_cxx17__normal_iteratorIPKcNSt7__cxx1112basic_stringIcSt11char_traitsIcESaIcEEEEEET_SB_
	mov	x19, x0
	ldr	x0, [sp, 48]
	bl	_ZSt12__miter_baseIN9__gnu_cxx17__normal_iteratorIPKcNSt7__cxx1112basic_stringIcSt11char_traitsIcESaIcEEEEEET_SB_
	ldr	x2, [sp, 40]
	mov	x1, x0
	mov	x0, x19
	bl	_ZSt13__copy_move_aILb0EN9__gnu_cxx17__normal_iteratorIPKcNSt7__cxx1112basic_stringIcSt11char_traitsIcESaIcEEEEESt20back_insert_iteratorIS9_EET1_T0_SE_SD_
	ldr	x19, [sp, 16]
	ldp	x29, x30, [sp], 64
	.cfi_restore 30
	.cfi_restore 29
	.cfi_restore 19
	.cfi_def_cfa_offset 0
	ret
	.cfi_endproc
.LFE5651:
	.size	_ZSt4copyIN9__gnu_cxx17__normal_iteratorIPKcNSt7__cxx1112basic_stringIcSt11char_traitsIcESaIcEEEEESt20back_insert_iteratorIS9_EET0_T_SE_SD_, .-_ZSt4copyIN9__gnu_cxx17__normal_iteratorIPKcNSt7__cxx1112basic_stringIcSt11char_traitsIcESaIcEEEEESt20back_insert_iteratorIS9_EET0_T_SE_SD_
	.section	.text._ZNKSt7__cxx1112regex_traitsIcE5valueEci,"axG",@progbits,_ZNKSt7__cxx1112regex_traitsIcE5valueEci,comdat
	.align	2
	.weak	_ZNKSt7__cxx1112regex_traitsIcE5valueEci
	.type	_ZNKSt7__cxx1112regex_traitsIcE5valueEci, %function
_ZNKSt7__cxx1112regex_traitsIcE5valueEci:
.LFB5652:
	.cfi_startproc
	.cfi_personality 0x9b,DW.ref.__gxx_personality_v0
	.cfi_lsda 0x1b,.LLSDA5652
	stp	x29, x30, [sp, -480]!
	.cfi_def_cfa_offset 480
	.cfi_offset 29, -480
	.cfi_offset 30, -472
	mov	x29, sp
	str	x19, [sp, 16]
	.cfi_offset 19, -464
	str	x0, [sp, 40]
	strb	w1, [sp, 39]
	str	w2, [sp, 32]
	adrp	x0, :got:__stack_chk_guard
	ldr	x0, [x0, #:got_lo12:__stack_chk_guard]
	ldr	x1, [x0]
	str	x1, [sp, 472]
	mov	x1, 0
	add	x0, sp, 48
	bl	_ZNSaIcEC1Ev
	add	x1, sp, 48
	add	x0, sp, 56
	mov	x3, x1
	ldrb	w2, [sp, 39]
	mov	x1, 1
.LEHB35:
	bl	_ZNSt7__cxx1112basic_stringIcSt11char_traitsIcESaIcEEC1IS3_EEmcRKS3_
.LEHE35:
	add	x1, sp, 56
	add	x0, sp, 88
	mov	w2, 8
.LEHB36:
	bl	_ZNSt7__cxx1119basic_istringstreamIcSt11char_traitsIcESaIcEEC1ERKNS_12basic_stringIcS2_S3_EESt13_Ios_Openmode
.LEHE36:
	add	x0, sp, 56
	bl	_ZNSt7__cxx1112basic_stringIcSt11char_traitsIcESaIcEED1Ev
	add	x0, sp, 48
	bl	_ZNSaIcED1Ev
	ldr	w0, [sp, 32]
	cmp	w0, 8
	bne	.L364
	add	x2, sp, 88
	adrp	x0, _ZSt3octRSt8ios_base
	add	x1, x0, :lo12:_ZSt3octRSt8ios_base
	mov	x0, x2
.LEHB37:
	bl	_ZNSirsEPFRSt8ios_baseS0_E
	b	.L365
.L364:
	ldr	w0, [sp, 32]
	cmp	w0, 16
	bne	.L365
	add	x2, sp, 88
	adrp	x0, _ZSt3hexRSt8ios_base
	add	x1, x0, :lo12:_ZSt3hexRSt8ios_base
	mov	x0, x2
	bl	_ZNSirsEPFRSt8ios_baseS0_E
.L365:
	add	x1, sp, 48
	add	x0, sp, 88
	bl	_ZNSirsERl
	add	x0, sp, 88
	add	x0, x0, 120
	bl	_ZNKSt9basic_iosIcSt11char_traitsIcEE4failEv
.LEHE37:
	and	w0, w0, 255
	cmp	w0, 0
	beq	.L366
	mov	w19, -1
	b	.L367
.L366:
	ldr	x0, [sp, 48]
	mov	w19, w0
.L367:
	add	x0, sp, 88
	bl	_ZNSt7__cxx1119basic_istringstreamIcSt11char_traitsIcESaIcEED1Ev
	mov	w1, w19
	adrp	x0, :got:__stack_chk_guard
	ldr	x0, [x0, #:got_lo12:__stack_chk_guard]
	ldr	x3, [sp, 472]
	ldr	x2, [x0]
	subs	x3, x3, x2
	mov	x2, 0
	beq	.L372
	b	.L376
.L374:
	mov	x19, x0
	add	x0, sp, 56
	bl	_ZNSt7__cxx1112basic_stringIcSt11char_traitsIcESaIcEED1Ev
	b	.L370
.L373:
	mov	x19, x0
.L370:
	add	x0, sp, 48
	bl	_ZNSaIcED1Ev
	mov	x0, x19
.LEHB38:
	bl	_Unwind_Resume
.L375:
	mov	x19, x0
	add	x0, sp, 88
	bl	_ZNSt7__cxx1119basic_istringstreamIcSt11char_traitsIcESaIcEED1Ev
	mov	x0, x19
	bl	_Unwind_Resume
.LEHE38:
.L376:
	bl	__stack_chk_fail
.L372:
	mov	w0, w1
	ldr	x19, [sp, 16]
	ldp	x29, x30, [sp], 480
	.cfi_restore 30
	.cfi_restore 29
	.cfi_restore 19
	.cfi_def_cfa_offset 0
	ret
	.cfi_endproc
.LFE5652:
	.section	.gcc_except_table
.LLSDA5652:
	.byte	0xff
	.byte	0xff
	.byte	0x1
	.uleb128 .LLSDACSE5652-.LLSDACSB5652
.LLSDACSB5652:
	.uleb128 .LEHB35-.LFB5652
	.uleb128 .LEHE35-.LEHB35
	.uleb128 .L373-.LFB5652
	.uleb128 0
	.uleb128 .LEHB36-.LFB5652
	.uleb128 .LEHE36-.LEHB36
	.uleb128 .L374-.LFB5652
	.uleb128 0
	.uleb128 .LEHB37-.LFB5652
	.uleb128 .LEHE37-.LEHB37
	.uleb128 .L375-.LFB5652
	.uleb128 0
	.uleb128 .LEHB38-.LFB5652
	.uleb128 .LEHE38-.LEHB38
	.uleb128 0
	.uleb128 0
.LLSDACSE5652:
	.section	.text._ZNKSt7__cxx1112regex_traitsIcE5valueEci,"axG",@progbits,_ZNKSt7__cxx1112regex_traitsIcE5valueEci,comdat
	.size	_ZNKSt7__cxx1112regex_traitsIcE5valueEci, .-_ZNKSt7__cxx1112regex_traitsIcE5valueEci
	.section	.text._ZNSt20back_insert_iteratorINSt7__cxx1112basic_stringIcSt11char_traitsIcESaIcEEEEppEi,"axG",@progbits,_ZNSt20back_insert_iteratorINSt7__cxx1112basic_stringIcSt11char_traitsIcESaIcEEEEppEi,comdat
	.align	2
	.weak	_ZNSt20back_insert_iteratorINSt7__cxx1112basic_stringIcSt11char_traitsIcESaIcEEEEppEi
	.type	_ZNSt20back_insert_iteratorINSt7__cxx1112basic_stringIcSt11char_traitsIcESaIcEEEEppEi, %function
_ZNSt20back_insert_iteratorINSt7__cxx1112basic_stringIcSt11char_traitsIcESaIcEEEEppEi:
.LFB5653:
	.cfi_startproc
	sub	sp, sp, #16
	.cfi_def_cfa_offset 16
	str	x0, [sp, 8]
	str	w1, [sp, 4]
	ldr	x0, [sp, 8]
	ldr	x0, [x0]
	add	sp, sp, 16
	.cfi_def_cfa_offset 0
	ret
	.cfi_endproc
.LFE5653:
	.size	_ZNSt20back_insert_iteratorINSt7__cxx1112basic_stringIcSt11char_traitsIcESaIcEEEEppEi, .-_ZNSt20back_insert_iteratorINSt7__cxx1112basic_stringIcSt11char_traitsIcESaIcEEEEppEi
	.section	.text._ZNSt20back_insert_iteratorINSt7__cxx1112basic_stringIcSt11char_traitsIcESaIcEEEEdeEv,"axG",@progbits,_ZNSt20back_insert_iteratorINSt7__cxx1112basic_stringIcSt11char_traitsIcESaIcEEEEdeEv,comdat
	.align	2
	.weak	_ZNSt20back_insert_iteratorINSt7__cxx1112basic_stringIcSt11char_traitsIcESaIcEEEEdeEv
	.type	_ZNSt20back_insert_iteratorINSt7__cxx1112basic_stringIcSt11char_traitsIcESaIcEEEEdeEv, %function
_ZNSt20back_insert_iteratorINSt7__cxx1112basic_stringIcSt11char_traitsIcESaIcEEEEdeEv:
.LFB5654:
	.cfi_startproc
	sub	sp, sp, #16
	.cfi_def_cfa_offset 16
	str	x0, [sp, 8]
	ldr	x0, [sp, 8]
	add	sp, sp, 16
	.cfi_def_cfa_offset 0
	ret
	.cfi_endproc
.LFE5654:
	.size	_ZNSt20back_insert_iteratorINSt7__cxx1112basic_stringIcSt11char_traitsIcESaIcEEEEdeEv, .-_ZNSt20back_insert_iteratorINSt7__cxx1112basic_stringIcSt11char_traitsIcESaIcEEEEdeEv
	.section	.text._ZNSt20back_insert_iteratorINSt7__cxx1112basic_stringIcSt11char_traitsIcESaIcEEEEaSERKc,"axG",@progbits,_ZNSt20back_insert_iteratorINSt7__cxx1112basic_stringIcSt11char_traitsIcESaIcEEEEaSERKc,comdat
	.align	2
	.weak	_ZNSt20back_insert_iteratorINSt7__cxx1112basic_stringIcSt11char_traitsIcESaIcEEEEaSERKc
	.type	_ZNSt20back_insert_iteratorINSt7__cxx1112basic_stringIcSt11char_traitsIcESaIcEEEEaSERKc, %function
_ZNSt20back_insert_iteratorINSt7__cxx1112basic_stringIcSt11char_traitsIcESaIcEEEEaSERKc:
.LFB5655:
	.cfi_startproc
	stp	x29, x30, [sp, -32]!
	.cfi_def_cfa_offset 32
	.cfi_offset 29, -32
	.cfi_offset 30, -24
	mov	x29, sp
	str	x0, [sp, 24]
	str	x1, [sp, 16]
	ldr	x0, [sp, 24]
	ldr	x2, [x0]
	ldr	x0, [sp, 16]
	ldrb	w0, [x0]
	mov	w1, w0
	mov	x0, x2
	bl	_ZNSt7__cxx1112basic_stringIcSt11char_traitsIcESaIcEE9push_backEc
	ldr	x0, [sp, 24]
	ldp	x29, x30, [sp], 32
	.cfi_restore 30
	.cfi_restore 29
	.cfi_def_cfa_offset 0
	ret
	.cfi_endproc
.LFE5655:
	.size	_ZNSt20back_insert_iteratorINSt7__cxx1112basic_stringIcSt11char_traitsIcESaIcEEEEaSERKc, .-_ZNSt20back_insert_iteratorINSt7__cxx1112basic_stringIcSt11char_traitsIcESaIcEEEEaSERKc
	.section	.text._ZNSt20back_insert_iteratorINSt7__cxx1112basic_stringIcSt11char_traitsIcESaIcEEEEaSEOc,"axG",@progbits,_ZNSt20back_insert_iteratorINSt7__cxx1112basic_stringIcSt11char_traitsIcESaIcEEEEaSEOc,comdat
	.align	2
	.weak	_ZNSt20back_insert_iteratorINSt7__cxx1112basic_stringIcSt11char_traitsIcESaIcEEEEaSEOc
	.type	_ZNSt20back_insert_iteratorINSt7__cxx1112basic_stringIcSt11char_traitsIcESaIcEEEEaSEOc, %function
_ZNSt20back_insert_iteratorINSt7__cxx1112basic_stringIcSt11char_traitsIcESaIcEEEEaSEOc:
.LFB5656:
	.cfi_startproc
	stp	x29, x30, [sp, -48]!
	.cfi_def_cfa_offset 48
	.cfi_offset 29, -48
	.cfi_offset 30, -40
	mov	x29, sp
	str	x19, [sp, 16]
	.cfi_offset 19, -32
	str	x0, [sp, 40]
	str	x1, [sp, 32]
	ldr	x0, [sp, 40]
	ldr	x19, [x0]
	ldr	x0, [sp, 32]
	bl	_ZSt4moveIRcEONSt16remove_referenceIT_E4typeEOS2_
	ldrb	w0, [x0]
	mov	w1, w0
	mov	x0, x19
	bl	_ZNSt7__cxx1112basic_stringIcSt11char_traitsIcESaIcEE9push_backEc
	ldr	x0, [sp, 40]
	ldr	x19, [sp, 16]
	ldp	x29, x30, [sp], 48
	.cfi_restore 30
	.cfi_restore 29
	.cfi_restore 19
	.cfi_def_cfa_offset 0
	ret
	.cfi_endproc
.LFE5656:
	.size	_ZNSt20back_insert_iteratorINSt7__cxx1112basic_stringIcSt11char_traitsIcESaIcEEEEaSEOc, .-_ZNSt20back_insert_iteratorINSt7__cxx1112basic_stringIcSt11char_traitsIcESaIcEEEEaSEOc
	.section	.text._ZSt4findIPKccET_S2_S2_RKT0_,"axG",@progbits,_ZSt4findIPKccET_S2_S2_RKT0_,comdat
	.align	2
	.weak	_ZSt4findIPKccET_S2_S2_RKT0_
	.type	_ZSt4findIPKccET_S2_S2_RKT0_, %function
_ZSt4findIPKccET_S2_S2_RKT0_:
.LFB5657:
	.cfi_startproc
	stp	x29, x30, [sp, -48]!
	.cfi_def_cfa_offset 48
	.cfi_offset 29, -48
	.cfi_offset 30, -40
	mov	x29, sp
	str	x0, [sp, 40]
	str	x1, [sp, 32]
	str	x2, [sp, 24]
	ldr	x0, [sp, 24]
	bl	_ZN9__gnu_cxx5__ops17__iter_equals_valIKcEENS0_16_Iter_equals_valIT_EERS4_
	mov	x2, x0
	ldr	x1, [sp, 32]
	ldr	x0, [sp, 40]
	bl	_ZSt9__find_ifIPKcN9__gnu_cxx5__ops16_Iter_equals_valIS0_EEET_S6_S6_T0_
	ldp	x29, x30, [sp], 48
	.cfi_restore 30
	.cfi_restore 29
	.cfi_def_cfa_offset 0
	ret
	.cfi_endproc
.LFE5657:
	.size	_ZSt4findIPKccET_S2_S2_RKT0_, .-_ZSt4findIPKccET_S2_S2_RKT0_
	.section	.text._ZSt4copyIPKcSt20back_insert_iteratorINSt7__cxx1112basic_stringIcSt11char_traitsIcESaIcEEEEET0_T_SB_SA_,"axG",@progbits,_ZSt4copyIPKcSt20back_insert_iteratorINSt7__cxx1112basic_stringIcSt11char_traitsIcESaIcEEEEET0_T_SB_SA_,comdat
	.align	2
	.weak	_ZSt4copyIPKcSt20back_insert_iteratorINSt7__cxx1112basic_stringIcSt11char_traitsIcESaIcEEEEET0_T_SB_SA_
	.type	_ZSt4copyIPKcSt20back_insert_iteratorINSt7__cxx1112basic_stringIcSt11char_traitsIcESaIcEEEEET0_T_SB_SA_, %function
_ZSt4copyIPKcSt20back_insert_iteratorINSt7__cxx1112basic_stringIcSt11char_traitsIcESaIcEEEEET0_T_SB_SA_:
.LFB5658:
	.cfi_startproc
	stp	x29, x30, [sp, -64]!
	.cfi_def_cfa_offset 64
	.cfi_offset 29, -64
	.cfi_offset 30, -56
	mov	x29, sp
	str	x19, [sp, 16]
	.cfi_offset 19, -48
	str	x0, [sp, 56]
	str	x1, [sp, 48]
	str	x2, [sp, 40]
	ldr	x0, [sp, 56]
	bl	_ZSt12__miter_baseIPKcET_S2_
	mov	x19, x0
	ldr	x0, [sp, 48]
	bl	_ZSt12__miter_baseIPKcET_S2_
	ldr	x2, [sp, 40]
	mov	x1, x0
	mov	x0, x19
	bl	_ZSt13__copy_move_aILb0EPKcSt20back_insert_iteratorINSt7__cxx1112basic_stringIcSt11char_traitsIcESaIcEEEEET1_T0_SB_SA_
	ldr	x19, [sp, 16]
	ldp	x29, x30, [sp], 64
	.cfi_restore 30
	.cfi_restore 29
	.cfi_restore 19
	.cfi_def_cfa_offset 0
	ret
	.cfi_endproc
.LFE5658:
	.size	_ZSt4copyIPKcSt20back_insert_iteratorINSt7__cxx1112basic_stringIcSt11char_traitsIcESaIcEEEEET0_T_SB_SA_, .-_ZSt4copyIPKcSt20back_insert_iteratorINSt7__cxx1112basic_stringIcSt11char_traitsIcESaIcEEEEET0_T_SB_SA_
	.section	.text._ZNKSt7__cxx1113match_resultsIN9__gnu_cxx17__normal_iteratorIPKcNS_12basic_stringIcSt11char_traitsIcESaIcEEEEESaINS_9sub_matchISA_EEEE9_M_prefixEv,"axG",@progbits,_ZNKSt7__cxx1113match_resultsIN9__gnu_cxx17__normal_iteratorIPKcNS_12basic_stringIcSt11char_traitsIcESaIcEEEEESaINS_9sub_matchISA_EEEE9_M_prefixEv,comdat
	.align	2
	.weak	_ZNKSt7__cxx1113match_resultsIN9__gnu_cxx17__normal_iteratorIPKcNS_12basic_stringIcSt11char_traitsIcESaIcEEEEESaINS_9sub_matchISA_EEEE9_M_prefixEv
	.type	_ZNKSt7__cxx1113match_resultsIN9__gnu_cxx17__normal_iteratorIPKcNS_12basic_stringIcSt11char_traitsIcESaIcEEEEESaINS_9sub_matchISA_EEEE9_M_prefixEv, %function
_ZNKSt7__cxx1113match_resultsIN9__gnu_cxx17__normal_iteratorIPKcNS_12basic_stringIcSt11char_traitsIcESaIcEEEEESaINS_9sub_matchISA_EEEE9_M_prefixEv:
.LFB5659:
	.cfi_startproc
	stp	x29, x30, [sp, -48]!
	.cfi_def_cfa_offset 48
	.cfi_offset 29, -48
	.cfi_offset 30, -40
	mov	x29, sp
	str	x19, [sp, 16]
	.cfi_offset 19, -32
	str	x0, [sp, 40]
	ldr	x19, [sp, 40]
	ldr	x0, [sp, 40]
	bl	_ZNKSt6vectorINSt7__cxx119sub_matchIN9__gnu_cxx17__normal_iteratorIPKcNS0_12basic_stringIcSt11char_traitsIcESaIcEEEEEEESaISC_EE4sizeEv
	sub	x0, x0, #2
	mov	x1, x0
	mov	x0, x19
	bl	_ZNKSt6vectorINSt7__cxx119sub_matchIN9__gnu_cxx17__normal_iteratorIPKcNS0_12basic_stringIcSt11char_traitsIcESaIcEEEEEEESaISC_EEixEm
	ldr	x19, [sp, 16]
	ldp	x29, x30, [sp], 48
	.cfi_restore 30
	.cfi_restore 29
	.cfi_restore 19
	.cfi_def_cfa_offset 0
	ret
	.cfi_endproc
.LFE5659:
	.size	_ZNKSt7__cxx1113match_resultsIN9__gnu_cxx17__normal_iteratorIPKcNS_12basic_stringIcSt11char_traitsIcESaIcEEEEESaINS_9sub_matchISA_EEEE9_M_prefixEv, .-_ZNKSt7__cxx1113match_resultsIN9__gnu_cxx17__normal_iteratorIPKcNS_12basic_stringIcSt11char_traitsIcESaIcEEEEESaINS_9sub_matchISA_EEEE9_M_prefixEv
	.section	.text._ZNKSt7__cxx1113match_resultsIN9__gnu_cxx17__normal_iteratorIPKcNS_12basic_stringIcSt11char_traitsIcESaIcEEEEESaINS_9sub_matchISA_EEEE9_M_suffixEv,"axG",@progbits,_ZNKSt7__cxx1113match_resultsIN9__gnu_cxx17__normal_iteratorIPKcNS_12basic_stringIcSt11char_traitsIcESaIcEEEEESaINS_9sub_matchISA_EEEE9_M_suffixEv,comdat
	.align	2
	.weak	_ZNKSt7__cxx1113match_resultsIN9__gnu_cxx17__normal_iteratorIPKcNS_12basic_stringIcSt11char_traitsIcESaIcEEEEESaINS_9sub_matchISA_EEEE9_M_suffixEv
	.type	_ZNKSt7__cxx1113match_resultsIN9__gnu_cxx17__normal_iteratorIPKcNS_12basic_stringIcSt11char_traitsIcESaIcEEEEESaINS_9sub_matchISA_EEEE9_M_suffixEv, %function
_ZNKSt7__cxx1113match_resultsIN9__gnu_cxx17__normal_iteratorIPKcNS_12basic_stringIcSt11char_traitsIcESaIcEEEEESaINS_9sub_matchISA_EEEE9_M_suffixEv:
.LFB5660:
	.cfi_startproc
	stp	x29, x30, [sp, -48]!
	.cfi_def_cfa_offset 48
	.cfi_offset 29, -48
	.cfi_offset 30, -40
	mov	x29, sp
	str	x19, [sp, 16]
	.cfi_offset 19, -32
	str	x0, [sp, 40]
	ldr	x19, [sp, 40]
	ldr	x0, [sp, 40]
	bl	_ZNKSt6vectorINSt7__cxx119sub_matchIN9__gnu_cxx17__normal_iteratorIPKcNS0_12basic_stringIcSt11char_traitsIcESaIcEEEEEEESaISC_EE4sizeEv
	sub	x0, x0, #1
	mov	x1, x0
	mov	x0, x19
	bl	_ZNKSt6vectorINSt7__cxx119sub_matchIN9__gnu_cxx17__normal_iteratorIPKcNS0_12basic_stringIcSt11char_traitsIcESaIcEEEEEEESaISC_EEixEm
	ldr	x19, [sp, 16]
	ldp	x29, x30, [sp], 48
	.cfi_restore 30
	.cfi_restore 29
	.cfi_restore 19
	.cfi_def_cfa_offset 0
	ret
	.cfi_endproc
.LFE5660:
	.size	_ZNKSt7__cxx1113match_resultsIN9__gnu_cxx17__normal_iteratorIPKcNS_12basic_stringIcSt11char_traitsIcESaIcEEEEESaINS_9sub_matchISA_EEEE9_M_suffixEv, .-_ZNKSt7__cxx1113match_resultsIN9__gnu_cxx17__normal_iteratorIPKcNS_12basic_stringIcSt11char_traitsIcESaIcEEEEESaINS_9sub_matchISA_EEEE9_M_suffixEv
	.section	.text._ZNKSt7__cxx1113match_resultsIN9__gnu_cxx17__normal_iteratorIPKcNS_12basic_stringIcSt11char_traitsIcESaIcEEEEESaINS_9sub_matchISA_EEEE4sizeEv,"axG",@progbits,_ZNKSt7__cxx1113match_resultsIN9__gnu_cxx17__normal_iteratorIPKcNS_12basic_stringIcSt11char_traitsIcESaIcEEEEESaINS_9sub_matchISA_EEEE4sizeEv,comdat
	.align	2
	.weak	_ZNKSt7__cxx1113match_resultsIN9__gnu_cxx17__normal_iteratorIPKcNS_12basic_stringIcSt11char_traitsIcESaIcEEEEESaINS_9sub_matchISA_EEEE4sizeEv
	.type	_ZNKSt7__cxx1113match_resultsIN9__gnu_cxx17__normal_iteratorIPKcNS_12basic_stringIcSt11char_traitsIcESaIcEEEEESaINS_9sub_matchISA_EEEE4sizeEv, %function
_ZNKSt7__cxx1113match_resultsIN9__gnu_cxx17__normal_iteratorIPKcNS_12basic_stringIcSt11char_traitsIcESaIcEEEEESaINS_9sub_matchISA_EEEE4sizeEv:
.LFB5661:
	.cfi_startproc
	stp	x29, x30, [sp, -32]!
	.cfi_def_cfa_offset 32
	.cfi_offset 29, -32
	.cfi_offset 30, -24
	mov	x29, sp
	str	x0, [sp, 24]
	ldr	x0, [sp, 24]
	bl	_ZNKSt6vectorINSt7__cxx119sub_matchIN9__gnu_cxx17__normal_iteratorIPKcNS0_12basic_stringIcSt11char_traitsIcESaIcEEEEEEESaISC_EE5emptyEv
	and	w0, w0, 255
	cmp	w0, 0
	beq	.L394
	mov	x0, 0
	b	.L396
.L394:
	ldr	x0, [sp, 24]
	bl	_ZNKSt6vectorINSt7__cxx119sub_matchIN9__gnu_cxx17__normal_iteratorIPKcNS0_12basic_stringIcSt11char_traitsIcESaIcEEEEEEESaISC_EE4sizeEv
	sub	x0, x0, #3
.L396:
	ldp	x29, x30, [sp], 32
	.cfi_restore 30
	.cfi_restore 29
	.cfi_def_cfa_offset 0
	ret
	.cfi_endproc
.LFE5661:
	.size	_ZNKSt7__cxx1113match_resultsIN9__gnu_cxx17__normal_iteratorIPKcNS_12basic_stringIcSt11char_traitsIcESaIcEEEEESaINS_9sub_matchISA_EEEE4sizeEv, .-_ZNKSt7__cxx1113match_resultsIN9__gnu_cxx17__normal_iteratorIPKcNS_12basic_stringIcSt11char_traitsIcESaIcEEEEESaINS_9sub_matchISA_EEEE4sizeEv
	.section	.text._ZNSt16allocator_traitsISaIcEE10deallocateERS0_Pcm,"axG",@progbits,_ZNSt16allocator_traitsISaIcEE10deallocateERS0_Pcm,comdat
	.align	2
	.weak	_ZNSt16allocator_traitsISaIcEE10deallocateERS0_Pcm
	.type	_ZNSt16allocator_traitsISaIcEE10deallocateERS0_Pcm, %function
_ZNSt16allocator_traitsISaIcEE10deallocateERS0_Pcm:
.LFB5666:
	.cfi_startproc
	stp	x29, x30, [sp, -48]!
	.cfi_def_cfa_offset 48
	.cfi_offset 29, -48
	.cfi_offset 30, -40
	mov	x29, sp
	str	x0, [sp, 40]
	str	x1, [sp, 32]
	str	x2, [sp, 24]
	ldr	x2, [sp, 24]
	ldr	x1, [sp, 32]
	ldr	x0, [sp, 40]
	bl	_ZN9__gnu_cxx13new_allocatorIcE10deallocateEPcm
	nop
	ldp	x29, x30, [sp], 48
	.cfi_restore 30
	.cfi_restore 29
	.cfi_def_cfa_offset 0
	ret
	.cfi_endproc
.LFE5666:
	.size	_ZNSt16allocator_traitsISaIcEE10deallocateERS0_Pcm, .-_ZNSt16allocator_traitsISaIcEE10deallocateERS0_Pcm
	.section	.text._ZNSt7__cxx1112basic_stringIcSt11char_traitsIcESaIcEE16_M_construct_auxIPcEEvT_S7_St12__false_type,"axG",@progbits,_ZNSt7__cxx1112basic_stringIcSt11char_traitsIcESaIcEE16_M_construct_auxIPcEEvT_S7_St12__false_type,comdat
	.align	2
	.weak	_ZNSt7__cxx1112basic_stringIcSt11char_traitsIcESaIcEE16_M_construct_auxIPcEEvT_S7_St12__false_type
	.type	_ZNSt7__cxx1112basic_stringIcSt11char_traitsIcESaIcEE16_M_construct_auxIPcEEvT_S7_St12__false_type, %function
_ZNSt7__cxx1112basic_stringIcSt11char_traitsIcESaIcEE16_M_construct_auxIPcEEvT_S7_St12__false_type:
.LFB5668:
	.cfi_startproc
	stp	x29, x30, [sp, -64]!
	.cfi_def_cfa_offset 64
	.cfi_offset 29, -64
	.cfi_offset 30, -56
	mov	x29, sp
	str	x0, [sp, 40]
	str	x1, [sp, 32]
	str	x2, [sp, 24]
	strb	w3, [sp, 16]
	adrp	x0, :got:__stack_chk_guard
	ldr	x0, [x0, #:got_lo12:__stack_chk_guard]
	ldr	x1, [x0]
	str	x1, [sp, 56]
	mov	x1, 0
	mov	w3, w4
	ldr	x2, [sp, 24]
	ldr	x1, [sp, 32]
	ldr	x0, [sp, 40]
	bl	_ZNSt7__cxx1112basic_stringIcSt11char_traitsIcESaIcEE12_M_constructIPcEEvT_S7_St20forward_iterator_tag
	nop
	adrp	x0, :got:__stack_chk_guard
	ldr	x0, [x0, #:got_lo12:__stack_chk_guard]
	ldr	x2, [sp, 56]
	ldr	x1, [x0]
	subs	x2, x2, x1
	mov	x1, 0
	beq	.L399
	bl	__stack_chk_fail
.L399:
	ldp	x29, x30, [sp], 64
	.cfi_restore 30
	.cfi_restore 29
	.cfi_def_cfa_offset 0
	ret
	.cfi_endproc
.LFE5668:
	.size	_ZNSt7__cxx1112basic_stringIcSt11char_traitsIcESaIcEE16_M_construct_auxIPcEEvT_S7_St12__false_type, .-_ZNSt7__cxx1112basic_stringIcSt11char_traitsIcESaIcEE16_M_construct_auxIPcEEvT_S7_St12__false_type
	.section	.text._ZNSt16allocator_traitsISaIcEE37select_on_container_copy_constructionERKS0_,"axG",@progbits,_ZNSt16allocator_traitsISaIcEE37select_on_container_copy_constructionERKS0_,comdat
	.align	2
	.weak	_ZNSt16allocator_traitsISaIcEE37select_on_container_copy_constructionERKS0_
	.type	_ZNSt16allocator_traitsISaIcEE37select_on_container_copy_constructionERKS0_, %function
_ZNSt16allocator_traitsISaIcEE37select_on_container_copy_constructionERKS0_:
.LFB5697:
	.cfi_startproc
	stp	x29, x30, [sp, -48]!
	.cfi_def_cfa_offset 48
	.cfi_offset 29, -48
	.cfi_offset 30, -40
	mov	x29, sp
	str	x19, [sp, 16]
	.cfi_offset 19, -32
	mov	x19, x8
	str	x0, [sp, 40]
	ldr	x1, [sp, 40]
	mov	x0, x19
	bl	_ZNSaIcEC1ERKS_
	mov	x0, x19
	ldr	x19, [sp, 16]
	ldp	x29, x30, [sp], 48
	.cfi_restore 30
	.cfi_restore 29
	.cfi_restore 19
	.cfi_def_cfa_offset 0
	ret
	.cfi_endproc
.LFE5697:
	.size	_ZNSt16allocator_traitsISaIcEE37select_on_container_copy_constructionERKS0_, .-_ZNSt16allocator_traitsISaIcEE37select_on_container_copy_constructionERKS0_
	.section	.text._ZN9__gnu_cxx13new_allocatorImE10deallocateEPmm,"axG",@progbits,_ZN9__gnu_cxx13new_allocatorImE10deallocateEPmm,comdat
	.align	2
	.weak	_ZN9__gnu_cxx13new_allocatorImE10deallocateEPmm
	.type	_ZN9__gnu_cxx13new_allocatorImE10deallocateEPmm, %function
_ZN9__gnu_cxx13new_allocatorImE10deallocateEPmm:
.LFB5701:
	.cfi_startproc
	stp	x29, x30, [sp, -48]!
	.cfi_def_cfa_offset 48
	.cfi_offset 29, -48
	.cfi_offset 30, -40
	mov	x29, sp
	str	x0, [sp, 40]
	str	x1, [sp, 32]
	str	x2, [sp, 24]
	ldr	x0, [sp, 24]
	lsl	x0, x0, 3
	mov	x1, x0
	ldr	x0, [sp, 32]
	bl	_ZdlPvm
	ldp	x29, x30, [sp], 48
	.cfi_restore 30
	.cfi_restore 29
	.cfi_def_cfa_offset 0
	ret
	.cfi_endproc
.LFE5701:
	.size	_ZN9__gnu_cxx13new_allocatorImE10deallocateEPmm, .-_ZN9__gnu_cxx13new_allocatorImE10deallocateEPmm
	.section	.text._ZNSt12_Destroy_auxILb1EE9__destroyIPmEEvT_S3_,"axG",@progbits,_ZNSt12_Destroy_auxILb1EE9__destroyIPmEEvT_S3_,comdat
	.align	2
	.weak	_ZNSt12_Destroy_auxILb1EE9__destroyIPmEEvT_S3_
	.type	_ZNSt12_Destroy_auxILb1EE9__destroyIPmEEvT_S3_, %function
_ZNSt12_Destroy_auxILb1EE9__destroyIPmEEvT_S3_:
.LFB5702:
	.cfi_startproc
	sub	sp, sp, #16
	.cfi_def_cfa_offset 16
	str	x0, [sp, 8]
	str	x1, [sp]
	nop
	add	sp, sp, 16
	.cfi_def_cfa_offset 0
	ret
	.cfi_endproc
.LFE5702:
	.size	_ZNSt12_Destroy_auxILb1EE9__destroyIPmEEvT_S3_, .-_ZNSt12_Destroy_auxILb1EE9__destroyIPmEEvT_S3_
	.section	.text._ZSt4moveIRSt6localeEONSt16remove_referenceIT_E4typeEOS3_,"axG",@progbits,_ZSt4moveIRSt6localeEONSt16remove_referenceIT_E4typeEOS3_,comdat
	.align	2
	.weak	_ZSt4moveIRSt6localeEONSt16remove_referenceIT_E4typeEOS3_
	.type	_ZSt4moveIRSt6localeEONSt16remove_referenceIT_E4typeEOS3_, %function
_ZSt4moveIRSt6localeEONSt16remove_referenceIT_E4typeEOS3_:
.LFB5704:
	.cfi_startproc
	sub	sp, sp, #16
	.cfi_def_cfa_offset 16
	str	x0, [sp, 8]
	ldr	x0, [sp, 8]
	add	sp, sp, 16
	.cfi_def_cfa_offset 0
	ret
	.cfi_endproc
.LFE5704:
	.size	_ZSt4moveIRSt6localeEONSt16remove_referenceIT_E4typeEOS3_, .-_ZSt4moveIRSt6localeEONSt16remove_referenceIT_E4typeEOS3_
	.section	.text._ZNSt8__detail8_ScannerIcED2Ev,"axG",@progbits,_ZNSt8__detail8_ScannerIcED5Ev,comdat
	.align	2
	.weak	_ZNSt8__detail8_ScannerIcED2Ev
	.type	_ZNSt8__detail8_ScannerIcED2Ev, %function
_ZNSt8__detail8_ScannerIcED2Ev:
.LFB5712:
	.cfi_startproc
	stp	x29, x30, [sp, -32]!
	.cfi_def_cfa_offset 32
	.cfi_offset 29, -32
	.cfi_offset 30, -24
	mov	x29, sp
	str	x0, [sp, 24]
	ldr	x0, [sp, 24]
	add	x0, x0, 200
	bl	_ZNSt7__cxx1112basic_stringIcSt11char_traitsIcESaIcEED1Ev
	nop
	ldp	x29, x30, [sp], 32
	.cfi_restore 30
	.cfi_restore 29
	.cfi_def_cfa_offset 0
	ret
	.cfi_endproc
.LFE5712:
	.size	_ZNSt8__detail8_ScannerIcED2Ev, .-_ZNSt8__detail8_ScannerIcED2Ev
	.weak	_ZNSt8__detail8_ScannerIcED1Ev
	.set	_ZNSt8__detail8_ScannerIcED1Ev,_ZNSt8__detail8_ScannerIcED2Ev
	.section	.text._ZNSt12__shared_ptrINSt8__detail4_NFAINSt7__cxx1112regex_traitsIcEEEELN9__gnu_cxx12_Lock_policyE2EED2Ev,"axG",@progbits,_ZNSt12__shared_ptrINSt8__detail4_NFAINSt7__cxx1112regex_traitsIcEEEELN9__gnu_cxx12_Lock_policyE2EED5Ev,comdat
	.align	2
	.weak	_ZNSt12__shared_ptrINSt8__detail4_NFAINSt7__cxx1112regex_traitsIcEEEELN9__gnu_cxx12_Lock_policyE2EED2Ev
	.type	_ZNSt12__shared_ptrINSt8__detail4_NFAINSt7__cxx1112regex_traitsIcEEEELN9__gnu_cxx12_Lock_policyE2EED2Ev, %function
_ZNSt12__shared_ptrINSt8__detail4_NFAINSt7__cxx1112regex_traitsIcEEEELN9__gnu_cxx12_Lock_policyE2EED2Ev:
.LFB5716:
	.cfi_startproc
	stp	x29, x30, [sp, -32]!
	.cfi_def_cfa_offset 32
	.cfi_offset 29, -32
	.cfi_offset 30, -24
	mov	x29, sp
	str	x0, [sp, 24]
	ldr	x0, [sp, 24]
	add	x0, x0, 8
	bl	_ZNSt14__shared_countILN9__gnu_cxx12_Lock_policyE2EED1Ev
	nop
	ldp	x29, x30, [sp], 32
	.cfi_restore 30
	.cfi_restore 29
	.cfi_def_cfa_offset 0
	ret
	.cfi_endproc
.LFE5716:
	.size	_ZNSt12__shared_ptrINSt8__detail4_NFAINSt7__cxx1112regex_traitsIcEEEELN9__gnu_cxx12_Lock_policyE2EED2Ev, .-_ZNSt12__shared_ptrINSt8__detail4_NFAINSt7__cxx1112regex_traitsIcEEEELN9__gnu_cxx12_Lock_policyE2EED2Ev
	.weak	_ZNSt12__shared_ptrINSt8__detail4_NFAINSt7__cxx1112regex_traitsIcEEEELN9__gnu_cxx12_Lock_policyE2EED1Ev
	.set	_ZNSt12__shared_ptrINSt8__detail4_NFAINSt7__cxx1112regex_traitsIcEEEELN9__gnu_cxx12_Lock_policyE2EED1Ev,_ZNSt12__shared_ptrINSt8__detail4_NFAINSt7__cxx1112regex_traitsIcEEEELN9__gnu_cxx12_Lock_policyE2EED2Ev
	.section	.text._ZNSt10shared_ptrINSt8__detail4_NFAINSt7__cxx1112regex_traitsIcEEEEED2Ev,"axG",@progbits,_ZNSt10shared_ptrINSt8__detail4_NFAINSt7__cxx1112regex_traitsIcEEEEED5Ev,comdat
	.align	2
	.weak	_ZNSt10shared_ptrINSt8__detail4_NFAINSt7__cxx1112regex_traitsIcEEEEED2Ev
	.type	_ZNSt10shared_ptrINSt8__detail4_NFAINSt7__cxx1112regex_traitsIcEEEEED2Ev, %function
_ZNSt10shared_ptrINSt8__detail4_NFAINSt7__cxx1112regex_traitsIcEEEEED2Ev:
.LFB5718:
	.cfi_startproc
	stp	x29, x30, [sp, -32]!
	.cfi_def_cfa_offset 32
	.cfi_offset 29, -32
	.cfi_offset 30, -24
	mov	x29, sp
	str	x0, [sp, 24]
	ldr	x0, [sp, 24]
	bl	_ZNSt12__shared_ptrINSt8__detail4_NFAINSt7__cxx1112regex_traitsIcEEEELN9__gnu_cxx12_Lock_policyE2EED2Ev
	nop
	ldp	x29, x30, [sp], 32
	.cfi_restore 30
	.cfi_restore 29
	.cfi_def_cfa_offset 0
	ret
	.cfi_endproc
.LFE5718:
	.size	_ZNSt10shared_ptrINSt8__detail4_NFAINSt7__cxx1112regex_traitsIcEEEEED2Ev, .-_ZNSt10shared_ptrINSt8__detail4_NFAINSt7__cxx1112regex_traitsIcEEEEED2Ev
	.weak	_ZNSt10shared_ptrINSt8__detail4_NFAINSt7__cxx1112regex_traitsIcEEEEED1Ev
	.set	_ZNSt10shared_ptrINSt8__detail4_NFAINSt7__cxx1112regex_traitsIcEEEEED1Ev,_ZNSt10shared_ptrINSt8__detail4_NFAINSt7__cxx1112regex_traitsIcEEEEED2Ev
	.section	.text._ZNSt5stackINSt8__detail9_StateSeqINSt7__cxx1112regex_traitsIcEEEESt5dequeIS5_SaIS5_EEED2Ev,"axG",@progbits,_ZNSt5stackINSt8__detail9_StateSeqINSt7__cxx1112regex_traitsIcEEEESt5dequeIS5_SaIS5_EEED5Ev,comdat
	.align	2
	.weak	_ZNSt5stackINSt8__detail9_StateSeqINSt7__cxx1112regex_traitsIcEEEESt5dequeIS5_SaIS5_EEED2Ev
	.type	_ZNSt5stackINSt8__detail9_StateSeqINSt7__cxx1112regex_traitsIcEEEESt5dequeIS5_SaIS5_EEED2Ev, %function
_ZNSt5stackINSt8__detail9_StateSeqINSt7__cxx1112regex_traitsIcEEEESt5dequeIS5_SaIS5_EEED2Ev:
.LFB5721:
	.cfi_startproc
	stp	x29, x30, [sp, -32]!
	.cfi_def_cfa_offset 32
	.cfi_offset 29, -32
	.cfi_offset 30, -24
	mov	x29, sp
	str	x0, [sp, 24]
	ldr	x0, [sp, 24]
	bl	_ZNSt5dequeINSt8__detail9_StateSeqINSt7__cxx1112regex_traitsIcEEEESaIS5_EED1Ev
	nop
	ldp	x29, x30, [sp], 32
	.cfi_restore 30
	.cfi_restore 29
	.cfi_def_cfa_offset 0
	ret
	.cfi_endproc
.LFE5721:
	.size	_ZNSt5stackINSt8__detail9_StateSeqINSt7__cxx1112regex_traitsIcEEEESt5dequeIS5_SaIS5_EEED2Ev, .-_ZNSt5stackINSt8__detail9_StateSeqINSt7__cxx1112regex_traitsIcEEEESt5dequeIS5_SaIS5_EEED2Ev
	.weak	_ZNSt5stackINSt8__detail9_StateSeqINSt7__cxx1112regex_traitsIcEEEESt5dequeIS5_SaIS5_EEED1Ev
	.set	_ZNSt5stackINSt8__detail9_StateSeqINSt7__cxx1112regex_traitsIcEEEESt5dequeIS5_SaIS5_EEED1Ev,_ZNSt5stackINSt8__detail9_StateSeqINSt7__cxx1112regex_traitsIcEEEESt5dequeIS5_SaIS5_EEED2Ev
	.section	.text._ZNSt8__detail9_CompilerINSt7__cxx1112regex_traitsIcEEED2Ev,"axG",@progbits,_ZNSt8__detail9_CompilerINSt7__cxx1112regex_traitsIcEEED5Ev,comdat
	.align	2
	.weak	_ZNSt8__detail9_CompilerINSt7__cxx1112regex_traitsIcEEED2Ev
	.type	_ZNSt8__detail9_CompilerINSt7__cxx1112regex_traitsIcEEED2Ev, %function
_ZNSt8__detail9_CompilerINSt7__cxx1112regex_traitsIcEEED2Ev:
.LFB5723:
	.cfi_startproc
	stp	x29, x30, [sp, -32]!
	.cfi_def_cfa_offset 32
	.cfi_offset 29, -32
	.cfi_offset 30, -24
	mov	x29, sp
	str	x0, [sp, 24]
	ldr	x0, [sp, 24]
	add	x0, x0, 304
	bl	_ZNSt5stackINSt8__detail9_StateSeqINSt7__cxx1112regex_traitsIcEEEESt5dequeIS5_SaIS5_EEED1Ev
	ldr	x0, [sp, 24]
	add	x0, x0, 272
	bl	_ZNSt7__cxx1112basic_stringIcSt11char_traitsIcESaIcEED1Ev
	ldr	x0, [sp, 24]
	add	x0, x0, 256
	bl	_ZNSt10shared_ptrINSt8__detail4_NFAINSt7__cxx1112regex_traitsIcEEEEED1Ev
	ldr	x0, [sp, 24]
	add	x0, x0, 8
	bl	_ZNSt8__detail8_ScannerIcED1Ev
	nop
	ldp	x29, x30, [sp], 32
	.cfi_restore 30
	.cfi_restore 29
	.cfi_def_cfa_offset 0
	ret
	.cfi_endproc
.LFE5723:
	.size	_ZNSt8__detail9_CompilerINSt7__cxx1112regex_traitsIcEEED2Ev, .-_ZNSt8__detail9_CompilerINSt7__cxx1112regex_traitsIcEEED2Ev
	.weak	_ZNSt8__detail9_CompilerINSt7__cxx1112regex_traitsIcEEED1Ev
	.set	_ZNSt8__detail9_CompilerINSt7__cxx1112regex_traitsIcEEED1Ev,_ZNSt8__detail9_CompilerINSt7__cxx1112regex_traitsIcEEED2Ev
	.section	.text._ZNSt8__detail13__compile_nfaINSt7__cxx1112regex_traitsIcEEPKcEENSt9enable_ifIXsrNS_20__is_contiguous_iterIT0_EE5valueESt10shared_ptrIKNS_4_NFAIT_EEEE4typeES8_S8_RKNSC_11locale_typeENSt15regex_constants18syntax_option_typeE,"axG",@progbits,_ZNSt8__detail13__compile_nfaINSt7__cxx1112regex_traitsIcEEPKcEENSt9enable_ifIXsrNS_20__is_contiguous_iterIT0_EE5valueESt10shared_ptrIKNS_4_NFAIT_EEEE4typeES8_S8_RKNSC_11locale_typeENSt15regex_constants18syntax_option_typeE,comdat
	.align	2
	.weak	_ZNSt8__detail13__compile_nfaINSt7__cxx1112regex_traitsIcEEPKcEENSt9enable_ifIXsrNS_20__is_contiguous_iterIT0_EE5valueESt10shared_ptrIKNS_4_NFAIT_EEEE4typeES8_S8_RKNSC_11locale_typeENSt15regex_constants18syntax_option_typeE
	.type	_ZNSt8__detail13__compile_nfaINSt7__cxx1112regex_traitsIcEEPKcEENSt9enable_ifIXsrNS_20__is_contiguous_iterIT0_EE5valueESt10shared_ptrIKNS_4_NFAIT_EEEE4typeES8_S8_RKNSC_11locale_typeENSt15regex_constants18syntax_option_typeE, %function
_ZNSt8__detail13__compile_nfaINSt7__cxx1112regex_traitsIcEEPKcEENSt9enable_ifIXsrNS_20__is_contiguous_iterIT0_EE5valueESt10shared_ptrIKNS_4_NFAIT_EEEE4typeES8_S8_RKNSC_11locale_typeENSt15regex_constants18syntax_option_typeE:
.LFB5705:
	.cfi_startproc
	stp	x29, x30, [sp, -496]!
	.cfi_def_cfa_offset 496
	.cfi_offset 29, -496
	.cfi_offset 30, -488
	mov	x29, sp
	str	x19, [sp, 16]
	.cfi_offset 19, -480
	mov	x19, x8
	str	x0, [sp, 56]
	str	x1, [sp, 48]
	str	x2, [sp, 40]
	str	w3, [sp, 36]
	adrp	x0, :got:__stack_chk_guard
	ldr	x0, [x0, #:got_lo12:__stack_chk_guard]
	ldr	x1, [x0]
	str	x1, [sp, 488]
	mov	x1, 0
	ldr	x1, [sp, 48]
	ldr	x0, [sp, 56]
	sub	x0, x1, x0
	str	x0, [sp, 72]
	ldr	x0, [sp, 72]
	cmp	x0, 0
	beq	.L413
	ldr	x0, [sp, 56]
	bl	_ZSt11__addressofIKcEPT_RS1_
	b	.L414
.L413:
	mov	x0, 0
.L414:
	str	x0, [sp, 80]
	ldr	x1, [sp, 80]
	ldr	x0, [sp, 72]
	add	x1, x1, x0
	add	x0, sp, 88
	ldr	w4, [sp, 36]
	ldr	x3, [sp, 40]
	mov	x2, x1
	ldr	x1, [sp, 80]
	bl	_ZNSt8__detail9_CompilerINSt7__cxx1112regex_traitsIcEEEC1EPKcS6_RKSt6localeNSt15regex_constants18syntax_option_typeE
	add	x0, sp, 88
	mov	x8, x19
	bl	_ZNSt8__detail9_CompilerINSt7__cxx1112regex_traitsIcEEE10_M_get_nfaEv
	add	x0, sp, 88
	bl	_ZNSt8__detail9_CompilerINSt7__cxx1112regex_traitsIcEEED1Ev
	nop
	adrp	x0, :got:__stack_chk_guard
	ldr	x0, [x0, #:got_lo12:__stack_chk_guard]
	ldr	x2, [sp, 488]
	ldr	x1, [x0]
	subs	x2, x2, x1
	mov	x1, 0
	beq	.L416
	bl	__stack_chk_fail
.L416:
	mov	x0, x19
	ldr	x19, [sp, 16]
	ldp	x29, x30, [sp], 496
	.cfi_restore 30
	.cfi_restore 29
	.cfi_restore 19
	.cfi_def_cfa_offset 0
	ret
	.cfi_endproc
.LFE5705:
	.size	_ZNSt8__detail13__compile_nfaINSt7__cxx1112regex_traitsIcEEPKcEENSt9enable_ifIXsrNS_20__is_contiguous_iterIT0_EE5valueESt10shared_ptrIKNS_4_NFAIT_EEEE4typeES8_S8_RKNSC_11locale_typeENSt15regex_constants18syntax_option_typeE, .-_ZNSt8__detail13__compile_nfaINSt7__cxx1112regex_traitsIcEEPKcEENSt9enable_ifIXsrNS_20__is_contiguous_iterIT0_EE5valueESt10shared_ptrIKNS_4_NFAIT_EEEE4typeES8_S8_RKNSC_11locale_typeENSt15regex_constants18syntax_option_typeE
	.section	.text._ZNSt16_Sp_counted_baseILN9__gnu_cxx12_Lock_policyE2EE10_M_destroyEv,"axG",@progbits,_ZNSt16_Sp_counted_baseILN9__gnu_cxx12_Lock_policyE2EE10_M_destroyEv,comdat
	.align	2
	.weak	_ZNSt16_Sp_counted_baseILN9__gnu_cxx12_Lock_policyE2EE10_M_destroyEv
	.type	_ZNSt16_Sp_counted_baseILN9__gnu_cxx12_Lock_policyE2EE10_M_destroyEv, %function
_ZNSt16_Sp_counted_baseILN9__gnu_cxx12_Lock_policyE2EE10_M_destroyEv:
.LFB5725:
	.cfi_startproc
	stp	x29, x30, [sp, -32]!
	.cfi_def_cfa_offset 32
	.cfi_offset 29, -32
	.cfi_offset 30, -24
	mov	x29, sp
	str	x0, [sp, 24]
	ldr	x0, [sp, 24]
	cmp	x0, 0
	beq	.L419
	ldr	x0, [sp, 24]
	ldr	x0, [x0]
	add	x0, x0, 8
	ldr	x1, [x0]
	ldr	x0, [sp, 24]
	blr	x1
.L419:
	nop
	ldp	x29, x30, [sp], 32
	.cfi_restore 30
	.cfi_restore 29
	.cfi_def_cfa_offset 0
	ret
	.cfi_endproc
.LFE5725:
	.size	_ZNSt16_Sp_counted_baseILN9__gnu_cxx12_Lock_policyE2EE10_M_destroyEv, .-_ZNSt16_Sp_counted_baseILN9__gnu_cxx12_Lock_policyE2EE10_M_destroyEv
	.section	.text._ZNSt12_Vector_baseINSt7__cxx119sub_matchIN9__gnu_cxx17__normal_iteratorIPKcNS0_12basic_stringIcSt11char_traitsIcESaIcEEEEEEESaISC_EEC2ERKSD_,"axG",@progbits,_ZNSt12_Vector_baseINSt7__cxx119sub_matchIN9__gnu_cxx17__normal_iteratorIPKcNS0_12basic_stringIcSt11char_traitsIcESaIcEEEEEEESaISC_EEC5ERKSD_,comdat
	.align	2
	.weak	_ZNSt12_Vector_baseINSt7__cxx119sub_matchIN9__gnu_cxx17__normal_iteratorIPKcNS0_12basic_stringIcSt11char_traitsIcESaIcEEEEEEESaISC_EEC2ERKSD_
	.type	_ZNSt12_Vector_baseINSt7__cxx119sub_matchIN9__gnu_cxx17__normal_iteratorIPKcNS0_12basic_stringIcSt11char_traitsIcESaIcEEEEEEESaISC_EEC2ERKSD_, %function
_ZNSt12_Vector_baseINSt7__cxx119sub_matchIN9__gnu_cxx17__normal_iteratorIPKcNS0_12basic_stringIcSt11char_traitsIcESaIcEEEEEEESaISC_EEC2ERKSD_:
.LFB5727:
	.cfi_startproc
	stp	x29, x30, [sp, -32]!
	.cfi_def_cfa_offset 32
	.cfi_offset 29, -32
	.cfi_offset 30, -24
	mov	x29, sp
	str	x0, [sp, 24]
	str	x1, [sp, 16]
	ldr	x0, [sp, 24]
	ldr	x1, [sp, 16]
	bl	_ZNSt12_Vector_baseINSt7__cxx119sub_matchIN9__gnu_cxx17__normal_iteratorIPKcNS0_12basic_stringIcSt11char_traitsIcESaIcEEEEEEESaISC_EE12_Vector_implC1ERKSD_
	nop
	ldp	x29, x30, [sp], 32
	.cfi_restore 30
	.cfi_restore 29
	.cfi_def_cfa_offset 0
	ret
	.cfi_endproc
.LFE5727:
	.size	_ZNSt12_Vector_baseINSt7__cxx119sub_matchIN9__gnu_cxx17__normal_iteratorIPKcNS0_12basic_stringIcSt11char_traitsIcESaIcEEEEEEESaISC_EEC2ERKSD_, .-_ZNSt12_Vector_baseINSt7__cxx119sub_matchIN9__gnu_cxx17__normal_iteratorIPKcNS0_12basic_stringIcSt11char_traitsIcESaIcEEEEEEESaISC_EEC2ERKSD_
	.weak	_ZNSt12_Vector_baseINSt7__cxx119sub_matchIN9__gnu_cxx17__normal_iteratorIPKcNS0_12basic_stringIcSt11char_traitsIcESaIcEEEEEEESaISC_EEC1ERKSD_
	.set	_ZNSt12_Vector_baseINSt7__cxx119sub_matchIN9__gnu_cxx17__normal_iteratorIPKcNS0_12basic_stringIcSt11char_traitsIcESaIcEEEEEEESaISC_EEC1ERKSD_,_ZNSt12_Vector_baseINSt7__cxx119sub_matchIN9__gnu_cxx17__normal_iteratorIPKcNS0_12basic_stringIcSt11char_traitsIcESaIcEEEEEEESaISC_EEC2ERKSD_
	.section	.text._ZNSt16allocator_traitsISaINSt7__cxx119sub_matchIN9__gnu_cxx17__normal_iteratorIPKcNS0_12basic_stringIcSt11char_traitsIcESaIcEEEEEEEEE10deallocateERSD_PSC_m,"axG",@progbits,_ZNSt16allocator_traitsISaINSt7__cxx119sub_matchIN9__gnu_cxx17__normal_iteratorIPKcNS0_12basic_stringIcSt11char_traitsIcESaIcEEEEEEEEE10deallocateERSD_PSC_m,comdat
	.align	2
	.weak	_ZNSt16allocator_traitsISaINSt7__cxx119sub_matchIN9__gnu_cxx17__normal_iteratorIPKcNS0_12basic_stringIcSt11char_traitsIcESaIcEEEEEEEEE10deallocateERSD_PSC_m
	.type	_ZNSt16allocator_traitsISaINSt7__cxx119sub_matchIN9__gnu_cxx17__normal_iteratorIPKcNS0_12basic_stringIcSt11char_traitsIcESaIcEEEEEEEEE10deallocateERSD_PSC_m, %function
_ZNSt16allocator_traitsISaINSt7__cxx119sub_matchIN9__gnu_cxx17__normal_iteratorIPKcNS0_12basic_stringIcSt11char_traitsIcESaIcEEEEEEEEE10deallocateERSD_PSC_m:
.LFB5729:
	.cfi_startproc
	stp	x29, x30, [sp, -48]!
	.cfi_def_cfa_offset 48
	.cfi_offset 29, -48
	.cfi_offset 30, -40
	mov	x29, sp
	str	x0, [sp, 40]
	str	x1, [sp, 32]
	str	x2, [sp, 24]
	ldr	x2, [sp, 24]
	ldr	x1, [sp, 32]
	ldr	x0, [sp, 40]
	bl	_ZN9__gnu_cxx13new_allocatorINSt7__cxx119sub_matchINS_17__normal_iteratorIPKcNS1_12basic_stringIcSt11char_traitsIcESaIcEEEEEEEE10deallocateEPSC_m
	nop
	ldp	x29, x30, [sp], 48
	.cfi_restore 30
	.cfi_restore 29
	.cfi_def_cfa_offset 0
	ret
	.cfi_endproc
.LFE5729:
	.size	_ZNSt16allocator_traitsISaINSt7__cxx119sub_matchIN9__gnu_cxx17__normal_iteratorIPKcNS0_12basic_stringIcSt11char_traitsIcESaIcEEEEEEEEE10deallocateERSD_PSC_m, .-_ZNSt16allocator_traitsISaINSt7__cxx119sub_matchIN9__gnu_cxx17__normal_iteratorIPKcNS0_12basic_stringIcSt11char_traitsIcESaIcEEEEEEEEE10deallocateERSD_PSC_m
	.section	.text._ZNSt12_Destroy_auxILb1EE9__destroyIPNSt7__cxx119sub_matchIN9__gnu_cxx17__normal_iteratorIPKcNS2_12basic_stringIcSt11char_traitsIcESaIcEEEEEEEEEvT_SG_,"axG",@progbits,_ZNSt12_Destroy_auxILb1EE9__destroyIPNSt7__cxx119sub_matchIN9__gnu_cxx17__normal_iteratorIPKcNS2_12basic_stringIcSt11char_traitsIcESaIcEEEEEEEEEvT_SG_,comdat
	.align	2
	.weak	_ZNSt12_Destroy_auxILb1EE9__destroyIPNSt7__cxx119sub_matchIN9__gnu_cxx17__normal_iteratorIPKcNS2_12basic_stringIcSt11char_traitsIcESaIcEEEEEEEEEvT_SG_
	.type	_ZNSt12_Destroy_auxILb1EE9__destroyIPNSt7__cxx119sub_matchIN9__gnu_cxx17__normal_iteratorIPKcNS2_12basic_stringIcSt11char_traitsIcESaIcEEEEEEEEEvT_SG_, %function
_ZNSt12_Destroy_auxILb1EE9__destroyIPNSt7__cxx119sub_matchIN9__gnu_cxx17__normal_iteratorIPKcNS2_12basic_stringIcSt11char_traitsIcESaIcEEEEEEEEEvT_SG_:
.LFB5730:
	.cfi_startproc
	sub	sp, sp, #16
	.cfi_def_cfa_offset 16
	str	x0, [sp, 8]
	str	x1, [sp]
	nop
	add	sp, sp, 16
	.cfi_def_cfa_offset 0
	ret
	.cfi_endproc
.LFE5730:
	.size	_ZNSt12_Destroy_auxILb1EE9__destroyIPNSt7__cxx119sub_matchIN9__gnu_cxx17__normal_iteratorIPKcNS2_12basic_stringIcSt11char_traitsIcESaIcEEEEEEEEEvT_SG_, .-_ZNSt12_Destroy_auxILb1EE9__destroyIPNSt7__cxx119sub_matchIN9__gnu_cxx17__normal_iteratorIPKcNS2_12basic_stringIcSt11char_traitsIcESaIcEEEEEEEEEvT_SG_
	.section	.text._ZSteqIKNSt8__detail4_NFAINSt7__cxx1112regex_traitsIcEEEEEbRKSt10shared_ptrIT_EDn,"axG",@progbits,_ZSteqIKNSt8__detail4_NFAINSt7__cxx1112regex_traitsIcEEEEEbRKSt10shared_ptrIT_EDn,comdat
	.align	2
	.weak	_ZSteqIKNSt8__detail4_NFAINSt7__cxx1112regex_traitsIcEEEEEbRKSt10shared_ptrIT_EDn
	.type	_ZSteqIKNSt8__detail4_NFAINSt7__cxx1112regex_traitsIcEEEEEbRKSt10shared_ptrIT_EDn, %function
_ZSteqIKNSt8__detail4_NFAINSt7__cxx1112regex_traitsIcEEEEEbRKSt10shared_ptrIT_EDn:
.LFB5731:
	.cfi_startproc
	stp	x29, x30, [sp, -32]!
	.cfi_def_cfa_offset 32
	.cfi_offset 29, -32
	.cfi_offset 30, -24
	mov	x29, sp
	str	x0, [sp, 24]
	str	x1, [sp, 16]
	ldr	x0, [sp, 24]
	bl	_ZNKSt12__shared_ptrIKNSt8__detail4_NFAINSt7__cxx1112regex_traitsIcEEEELN9__gnu_cxx12_Lock_policyE2EEcvbEv
	and	w0, w0, 255
	eor	w0, w0, 1
	and	w0, w0, 255
	ldp	x29, x30, [sp], 32
	.cfi_restore 30
	.cfi_restore 29
	.cfi_def_cfa_offset 0
	ret
	.cfi_endproc
.LFE5731:
	.size	_ZSteqIKNSt8__detail4_NFAINSt7__cxx1112regex_traitsIcEEEEEbRKSt10shared_ptrIT_EDn, .-_ZSteqIKNSt8__detail4_NFAINSt7__cxx1112regex_traitsIcEEEEEbRKSt10shared_ptrIT_EDn
	.section	.text._ZNKSt19__shared_ptr_accessIKNSt8__detail4_NFAINSt7__cxx1112regex_traitsIcEEEELN9__gnu_cxx12_Lock_policyE2ELb0ELb0EEptEv,"axG",@progbits,_ZNKSt19__shared_ptr_accessIKNSt8__detail4_NFAINSt7__cxx1112regex_traitsIcEEEELN9__gnu_cxx12_Lock_policyE2ELb0ELb0EEptEv,comdat
	.align	2
	.weak	_ZNKSt19__shared_ptr_accessIKNSt8__detail4_NFAINSt7__cxx1112regex_traitsIcEEEELN9__gnu_cxx12_Lock_policyE2ELb0ELb0EEptEv
	.type	_ZNKSt19__shared_ptr_accessIKNSt8__detail4_NFAINSt7__cxx1112regex_traitsIcEEEELN9__gnu_cxx12_Lock_policyE2ELb0ELb0EEptEv, %function
_ZNKSt19__shared_ptr_accessIKNSt8__detail4_NFAINSt7__cxx1112regex_traitsIcEEEELN9__gnu_cxx12_Lock_policyE2ELb0ELb0EEptEv:
.LFB5732:
	.cfi_startproc
	stp	x29, x30, [sp, -32]!
	.cfi_def_cfa_offset 32
	.cfi_offset 29, -32
	.cfi_offset 30, -24
	mov	x29, sp
	str	x0, [sp, 24]
	ldr	x0, [sp, 24]
	bl	_ZNKSt19__shared_ptr_accessIKNSt8__detail4_NFAINSt7__cxx1112regex_traitsIcEEEELN9__gnu_cxx12_Lock_policyE2ELb0ELb0EE6_M_getEv
	ldp	x29, x30, [sp], 32
	.cfi_restore 30
	.cfi_restore 29
	.cfi_def_cfa_offset 0
	ret
	.cfi_endproc
.LFE5732:
	.size	_ZNKSt19__shared_ptr_accessIKNSt8__detail4_NFAINSt7__cxx1112regex_traitsIcEEEELN9__gnu_cxx12_Lock_policyE2ELb0ELb0EEptEv, .-_ZNKSt19__shared_ptr_accessIKNSt8__detail4_NFAINSt7__cxx1112regex_traitsIcEEEELN9__gnu_cxx12_Lock_policyE2ELb0ELb0EEptEv
	.section	.text._ZNSt7__cxx1113match_resultsIN9__gnu_cxx17__normal_iteratorIPKcNS_12basic_stringIcSt11char_traitsIcESaIcEEEEESaINS_9sub_matchISA_EEEE9_M_resizeEj,"axG",@progbits,_ZNSt7__cxx1113match_resultsIN9__gnu_cxx17__normal_iteratorIPKcNS_12basic_stringIcSt11char_traitsIcESaIcEEEEESaINS_9sub_matchISA_EEEE9_M_resizeEj,comdat
	.align	2
	.weak	_ZNSt7__cxx1113match_resultsIN9__gnu_cxx17__normal_iteratorIPKcNS_12basic_stringIcSt11char_traitsIcESaIcEEEEESaINS_9sub_matchISA_EEEE9_M_resizeEj
	.type	_ZNSt7__cxx1113match_resultsIN9__gnu_cxx17__normal_iteratorIPKcNS_12basic_stringIcSt11char_traitsIcESaIcEEEEESaINS_9sub_matchISA_EEEE9_M_resizeEj, %function
_ZNSt7__cxx1113match_resultsIN9__gnu_cxx17__normal_iteratorIPKcNS_12basic_stringIcSt11char_traitsIcESaIcEEEEESaINS_9sub_matchISA_EEEE9_M_resizeEj:
.LFB5733:
	.cfi_startproc
	stp	x29, x30, [sp, -80]!
	.cfi_def_cfa_offset 80
	.cfi_offset 29, -80
	.cfi_offset 30, -72
	mov	x29, sp
	stp	x19, x20, [sp, 16]
	.cfi_offset 19, -64
	.cfi_offset 20, -56
	str	x0, [sp, 40]
	str	w1, [sp, 36]
	adrp	x0, :got:__stack_chk_guard
	ldr	x0, [x0, #:got_lo12:__stack_chk_guard]
	ldr	x1, [x0]
	str	x1, [sp, 72]
	mov	x1, 0
	ldr	x19, [sp, 40]
	ldr	w0, [sp, 36]
	add	w0, w0, 3
	uxtw	x20, w0
	add	x0, sp, 48
	bl	_ZNSt7__cxx119sub_matchIN9__gnu_cxx17__normal_iteratorIPKcNS_12basic_stringIcSt11char_traitsIcESaIcEEEEEEC1Ev
	add	x0, sp, 48
	mov	x2, x0
	mov	x1, x20
	mov	x0, x19
	bl	_ZNSt6vectorINSt7__cxx119sub_matchIN9__gnu_cxx17__normal_iteratorIPKcNS0_12basic_stringIcSt11char_traitsIcESaIcEEEEEEESaISC_EE6assignEmRKSC_
	nop
	adrp	x0, :got:__stack_chk_guard
	ldr	x0, [x0, #:got_lo12:__stack_chk_guard]
	ldr	x2, [sp, 72]
	ldr	x1, [x0]
	subs	x2, x2, x1
	mov	x1, 0
	beq	.L428
	bl	__stack_chk_fail
.L428:
	ldp	x19, x20, [sp, 16]
	ldp	x29, x30, [sp], 80
	.cfi_restore 30
	.cfi_restore 29
	.cfi_restore 19
	.cfi_restore 20
	.cfi_def_cfa_offset 0
	ret
	.cfi_endproc
.LFE5733:
	.size	_ZNSt7__cxx1113match_resultsIN9__gnu_cxx17__normal_iteratorIPKcNS_12basic_stringIcSt11char_traitsIcESaIcEEEEESaINS_9sub_matchISA_EEEE9_M_resizeEj, .-_ZNSt7__cxx1113match_resultsIN9__gnu_cxx17__normal_iteratorIPKcNS_12basic_stringIcSt11char_traitsIcESaIcEEEEESaINS_9sub_matchISA_EEEE9_M_resizeEj
	.section	.text._ZNKSt7__cxx1111basic_regexIcNS_12regex_traitsIcEEE5flagsEv,"axG",@progbits,_ZNKSt7__cxx1111basic_regexIcNS_12regex_traitsIcEEE5flagsEv,comdat
	.align	2
	.weak	_ZNKSt7__cxx1111basic_regexIcNS_12regex_traitsIcEEE5flagsEv
	.type	_ZNKSt7__cxx1111basic_regexIcNS_12regex_traitsIcEEE5flagsEv, %function
_ZNKSt7__cxx1111basic_regexIcNS_12regex_traitsIcEEE5flagsEv:
.LFB5734:
	.cfi_startproc
	sub	sp, sp, #16
	.cfi_def_cfa_offset 16
	str	x0, [sp, 8]
	ldr	x0, [sp, 8]
	ldr	w0, [x0]
	add	sp, sp, 16
	.cfi_def_cfa_offset 0
	ret
	.cfi_endproc
.LFE5734:
	.size	_ZNKSt7__cxx1111basic_regexIcNS_12regex_traitsIcEEE5flagsEv, .-_ZNKSt7__cxx1111basic_regexIcNS_12regex_traitsIcEEE5flagsEv
	.section	.text._ZNSt12_Vector_baseINSt7__cxx119sub_matchIN9__gnu_cxx17__normal_iteratorIPKcNS0_12basic_stringIcSt11char_traitsIcESaIcEEEEEEESaISC_EEC2Ev,"axG",@progbits,_ZNSt12_Vector_baseINSt7__cxx119sub_matchIN9__gnu_cxx17__normal_iteratorIPKcNS0_12basic_stringIcSt11char_traitsIcESaIcEEEEEEESaISC_EEC5Ev,comdat
	.align	2
	.weak	_ZNSt12_Vector_baseINSt7__cxx119sub_matchIN9__gnu_cxx17__normal_iteratorIPKcNS0_12basic_stringIcSt11char_traitsIcESaIcEEEEEEESaISC_EEC2Ev
	.type	_ZNSt12_Vector_baseINSt7__cxx119sub_matchIN9__gnu_cxx17__normal_iteratorIPKcNS0_12basic_stringIcSt11char_traitsIcESaIcEEEEEEESaISC_EEC2Ev, %function
_ZNSt12_Vector_baseINSt7__cxx119sub_matchIN9__gnu_cxx17__normal_iteratorIPKcNS0_12basic_stringIcSt11char_traitsIcESaIcEEEEEEESaISC_EEC2Ev:
.LFB5739:
	.cfi_startproc
	stp	x29, x30, [sp, -32]!
	.cfi_def_cfa_offset 32
	.cfi_offset 29, -32
	.cfi_offset 30, -24
	mov	x29, sp
	str	x0, [sp, 24]
	ldr	x0, [sp, 24]
	bl	_ZNSt12_Vector_baseINSt7__cxx119sub_matchIN9__gnu_cxx17__normal_iteratorIPKcNS0_12basic_stringIcSt11char_traitsIcESaIcEEEEEEESaISC_EE12_Vector_implC1Ev
	nop
	ldp	x29, x30, [sp], 32
	.cfi_restore 30
	.cfi_restore 29
	.cfi_def_cfa_offset 0
	ret
	.cfi_endproc
.LFE5739:
	.size	_ZNSt12_Vector_baseINSt7__cxx119sub_matchIN9__gnu_cxx17__normal_iteratorIPKcNS0_12basic_stringIcSt11char_traitsIcESaIcEEEEEEESaISC_EEC2Ev, .-_ZNSt12_Vector_baseINSt7__cxx119sub_matchIN9__gnu_cxx17__normal_iteratorIPKcNS0_12basic_stringIcSt11char_traitsIcESaIcEEEEEEESaISC_EEC2Ev
	.weak	_ZNSt12_Vector_baseINSt7__cxx119sub_matchIN9__gnu_cxx17__normal_iteratorIPKcNS0_12basic_stringIcSt11char_traitsIcESaIcEEEEEEESaISC_EEC1Ev
	.set	_ZNSt12_Vector_baseINSt7__cxx119sub_matchIN9__gnu_cxx17__normal_iteratorIPKcNS0_12basic_stringIcSt11char_traitsIcESaIcEEEEEEESaISC_EEC1Ev,_ZNSt12_Vector_baseINSt7__cxx119sub_matchIN9__gnu_cxx17__normal_iteratorIPKcNS0_12basic_stringIcSt11char_traitsIcESaIcEEEEEEESaISC_EEC2Ev
	.section	.text._ZNSt6vectorINSt7__cxx119sub_matchIN9__gnu_cxx17__normal_iteratorIPKcNS0_12basic_stringIcSt11char_traitsIcESaIcEEEEEEESaISC_EEC2Ev,"axG",@progbits,_ZNSt6vectorINSt7__cxx119sub_matchIN9__gnu_cxx17__normal_iteratorIPKcNS0_12basic_stringIcSt11char_traitsIcESaIcEEEEEEESaISC_EEC5Ev,comdat
	.align	2
	.weak	_ZNSt6vectorINSt7__cxx119sub_matchIN9__gnu_cxx17__normal_iteratorIPKcNS0_12basic_stringIcSt11char_traitsIcESaIcEEEEEEESaISC_EEC2Ev
	.type	_ZNSt6vectorINSt7__cxx119sub_matchIN9__gnu_cxx17__normal_iteratorIPKcNS0_12basic_stringIcSt11char_traitsIcESaIcEEEEEEESaISC_EEC2Ev, %function
_ZNSt6vectorINSt7__cxx119sub_matchIN9__gnu_cxx17__normal_iteratorIPKcNS0_12basic_stringIcSt11char_traitsIcESaIcEEEEEEESaISC_EEC2Ev:
.LFB5741:
	.cfi_startproc
	stp	x29, x30, [sp, -32]!
	.cfi_def_cfa_offset 32
	.cfi_offset 29, -32
	.cfi_offset 30, -24
	mov	x29, sp
	str	x0, [sp, 24]
	ldr	x0, [sp, 24]
	bl	_ZNSt12_Vector_baseINSt7__cxx119sub_matchIN9__gnu_cxx17__normal_iteratorIPKcNS0_12basic_stringIcSt11char_traitsIcESaIcEEEEEEESaISC_EEC2Ev
	nop
	ldp	x29, x30, [sp], 32
	.cfi_restore 30
	.cfi_restore 29
	.cfi_def_cfa_offset 0
	ret
	.cfi_endproc
.LFE5741:
	.size	_ZNSt6vectorINSt7__cxx119sub_matchIN9__gnu_cxx17__normal_iteratorIPKcNS0_12basic_stringIcSt11char_traitsIcESaIcEEEEEEESaISC_EEC2Ev, .-_ZNSt6vectorINSt7__cxx119sub_matchIN9__gnu_cxx17__normal_iteratorIPKcNS0_12basic_stringIcSt11char_traitsIcESaIcEEEEEEESaISC_EEC2Ev
	.weak	_ZNSt6vectorINSt7__cxx119sub_matchIN9__gnu_cxx17__normal_iteratorIPKcNS0_12basic_stringIcSt11char_traitsIcESaIcEEEEEEESaISC_EEC1Ev
	.set	_ZNSt6vectorINSt7__cxx119sub_matchIN9__gnu_cxx17__normal_iteratorIPKcNS0_12basic_stringIcSt11char_traitsIcESaIcEEEEEEESaISC_EEC1Ev,_ZNSt6vectorINSt7__cxx119sub_matchIN9__gnu_cxx17__normal_iteratorIPKcNS0_12basic_stringIcSt11char_traitsIcESaIcEEEEEEESaISC_EEC2Ev
	.section	.text._ZNSt8__detail9_ExecutorIN9__gnu_cxx17__normal_iteratorIPKcNSt7__cxx1112basic_stringIcSt11char_traitsIcESaIcEEEEESaINS5_9sub_matchISB_EEENS5_12regex_traitsIcEELb0EEC2ESB_SB_RSt6vectorISD_SE_ERKNS5_11basic_regexIcSG_EENSt15regex_constants15match_flag_typeE,"axG",@progbits,_ZNSt8__detail9_ExecutorIN9__gnu_cxx17__normal_iteratorIPKcNSt7__cxx1112basic_stringIcSt11char_traitsIcESaIcEEEEESaINS5_9sub_matchISB_EEENS5_12regex_traitsIcEELb0EEC5ESB_SB_RSt6vectorISD_SE_ERKNS5_11basic_regexIcSG_EENSt15regex_constants15match_flag_typeE,comdat
	.align	2
	.weak	_ZNSt8__detail9_ExecutorIN9__gnu_cxx17__normal_iteratorIPKcNSt7__cxx1112basic_stringIcSt11char_traitsIcESaIcEEEEESaINS5_9sub_matchISB_EEENS5_12regex_traitsIcEELb0EEC2ESB_SB_RSt6vectorISD_SE_ERKNS5_11basic_regexIcSG_EENSt15regex_constants15match_flag_typeE
	.type	_ZNSt8__detail9_ExecutorIN9__gnu_cxx17__normal_iteratorIPKcNSt7__cxx1112basic_stringIcSt11char_traitsIcESaIcEEEEESaINS5_9sub_matchISB_EEENS5_12regex_traitsIcEELb0EEC2ESB_SB_RSt6vectorISD_SE_ERKNS5_11basic_regexIcSG_EENSt15regex_constants15match_flag_typeE, %function
_ZNSt8__detail9_ExecutorIN9__gnu_cxx17__normal_iteratorIPKcNSt7__cxx1112basic_stringIcSt11char_traitsIcESaIcEEEEESaINS5_9sub_matchISB_EEENS5_12regex_traitsIcEELb0EEC2ESB_SB_RSt6vectorISD_SE_ERKNS5_11basic_regexIcSG_EENSt15regex_constants15match_flag_typeE:
.LFB5743:
	.cfi_startproc
	.cfi_personality 0x9b,DW.ref.__gxx_personality_v0
	.cfi_lsda 0x1b,.LLSDA5743
	stp	x29, x30, [sp, -96]!
	.cfi_def_cfa_offset 96
	.cfi_offset 29, -96
	.cfi_offset 30, -88
	mov	x29, sp
	stp	x19, x20, [sp, 16]
	.cfi_offset 19, -80
	.cfi_offset 20, -72
	str	x0, [sp, 72]
	str	x1, [sp, 64]
	str	x2, [sp, 56]
	str	x3, [sp, 48]
	str	x4, [sp, 40]
	str	w5, [sp, 36]
	adrp	x0, :got:__stack_chk_guard
	ldr	x0, [x0, #:got_lo12:__stack_chk_guard]
	ldr	x1, [x0]
	str	x1, [sp, 88]
	mov	x1, 0
	ldr	x0, [sp, 72]
	bl	_ZNSt6vectorINSt7__cxx119sub_matchIN9__gnu_cxx17__normal_iteratorIPKcNS0_12basic_stringIcSt11char_traitsIcESaIcEEEEEEESaISC_EEC1Ev
	ldr	x0, [sp, 72]
	add	x0, x0, 24
	bl	_ZN9__gnu_cxx17__normal_iteratorIPKcNSt7__cxx1112basic_stringIcSt11char_traitsIcESaIcEEEEC1Ev
	ldr	x0, [sp, 72]
	ldr	x1, [sp, 64]
	str	x1, [x0, 32]
	ldr	x0, [sp, 72]
	add	x0, x0, 40
	ldr	x1, [sp, 56]
	str	x1, [x0]
	ldr	x0, [sp, 72]
	ldr	x1, [sp, 40]
	str	x1, [x0, 48]
	ldr	x0, [sp, 40]
	add	x0, x0, 16
	bl	_ZNKSt19__shared_ptr_accessIKNSt8__detail4_NFAINSt7__cxx1112regex_traitsIcEEEELN9__gnu_cxx12_Lock_policyE2ELb0ELb0EEdeEv
	mov	x1, x0
	ldr	x0, [sp, 72]
	str	x1, [x0, 56]
	ldr	x0, [sp, 72]
	ldr	x1, [sp, 48]
	str	x1, [x0, 64]
	ldr	x0, [sp, 72]
	add	x19, x0, 72
	ldr	x0, [sp, 72]
	ldr	x0, [x0, 56]
	add	x0, x0, 56
	bl	_ZNKSt6vectorINSt8__detail6_StateIcEESaIS2_EE4sizeEv
	mov	x20, x0
	add	x0, sp, 80
	bl	_ZNSaISt4pairIN9__gnu_cxx17__normal_iteratorIPKcNSt7__cxx1112basic_stringIcSt11char_traitsIcESaIcEEEEEiEEC1Ev
	add	x0, sp, 80
	mov	x2, x0
	mov	x1, x20
	mov	x0, x19
.LEHB39:
	bl	_ZNSt6vectorISt4pairIN9__gnu_cxx17__normal_iteratorIPKcNSt7__cxx1112basic_stringIcSt11char_traitsIcESaIcEEEEEiESaISC_EEC1EmRKSD_
.LEHE39:
	add	x0, sp, 80
	bl	_ZNSaISt4pairIN9__gnu_cxx17__normal_iteratorIPKcNSt7__cxx1112basic_stringIcSt11char_traitsIcESaIcEEEEEiEED1Ev
	ldr	x0, [sp, 72]
	add	x19, x0, 96
	ldr	x0, [sp, 72]
	ldr	x0, [x0, 56]
	bl	_ZNKSt8__detail9_NFA_base8_M_startEv
	mov	x20, x0
	ldr	x0, [sp, 72]
	ldr	x0, [x0, 56]
	add	x0, x0, 56
	bl	_ZNKSt6vectorINSt8__detail6_StateIcEESaIS2_EE4sizeEv
	mov	x2, x0
	mov	x1, x20
	mov	x0, x19
.LEHB40:
	bl	_ZNSt8__detail9_ExecutorIN9__gnu_cxx17__normal_iteratorIPKcNSt7__cxx1112basic_stringIcSt11char_traitsIcESaIcEEEEESaINS5_9sub_matchISB_EEENS5_12regex_traitsIcEELb0EE11_State_infoISt17integral_constantIbLb0EESt6vectorISD_SE_EEC1Elm
.LEHE40:
	mov	w1, 128
	ldr	w0, [sp, 36]
	bl	_ZNSt15regex_constantsanENS_15match_flag_typeES0_
	cmp	w0, 0
	beq	.L434
	mov	w0, 1
	bl	_ZNSt15regex_constantscoENS_15match_flag_typeE
	mov	w1, w0
	ldr	w0, [sp, 36]
	bl	_ZNSt15regex_constantsanENS_15match_flag_typeES0_
	mov	w19, w0
	mov	w0, 4
	bl	_ZNSt15regex_constantscoENS_15match_flag_typeE
	mov	w1, w0
	mov	w0, w19
	bl	_ZNSt15regex_constantsanENS_15match_flag_typeES0_
	b	.L435
.L434:
	ldr	w0, [sp, 36]
.L435:
	ldr	x1, [sp, 72]
	str	w0, [x1, 136]
	nop
	adrp	x0, :got:__stack_chk_guard
	ldr	x0, [x0, #:got_lo12:__stack_chk_guard]
	ldr	x2, [sp, 88]
	ldr	x1, [x0]
	subs	x2, x2, x1
	mov	x1, 0
	beq	.L439
	b	.L442
.L440:
	mov	x19, x0
	add	x0, sp, 80
	bl	_ZNSaISt4pairIN9__gnu_cxx17__normal_iteratorIPKcNSt7__cxx1112basic_stringIcSt11char_traitsIcESaIcEEEEEiEED1Ev
	b	.L437
.L441:
	mov	x19, x0
	ldr	x0, [sp, 72]
	add	x0, x0, 72
	bl	_ZNSt6vectorISt4pairIN9__gnu_cxx17__normal_iteratorIPKcNSt7__cxx1112basic_stringIcSt11char_traitsIcESaIcEEEEEiESaISC_EED1Ev
.L437:
	ldr	x0, [sp, 72]
	bl	_ZNSt6vectorINSt7__cxx119sub_matchIN9__gnu_cxx17__normal_iteratorIPKcNS0_12basic_stringIcSt11char_traitsIcESaIcEEEEEEESaISC_EED1Ev
	mov	x0, x19
.LEHB41:
	bl	_Unwind_Resume
.LEHE41:
.L442:
	bl	__stack_chk_fail
.L439:
	ldp	x19, x20, [sp, 16]
	ldp	x29, x30, [sp], 96
	.cfi_restore 30
	.cfi_restore 29
	.cfi_restore 19
	.cfi_restore 20
	.cfi_def_cfa_offset 0
	ret
	.cfi_endproc
.LFE5743:
	.section	.gcc_except_table
.LLSDA5743:
	.byte	0xff
	.byte	0xff
	.byte	0x1
	.uleb128 .LLSDACSE5743-.LLSDACSB5743
.LLSDACSB5743:
	.uleb128 .LEHB39-.LFB5743
	.uleb128 .LEHE39-.LEHB39
	.uleb128 .L440-.LFB5743
	.uleb128 0
	.uleb128 .LEHB40-.LFB5743
	.uleb128 .LEHE40-.LEHB40
	.uleb128 .L441-.LFB5743
	.uleb128 0
	.uleb128 .LEHB41-.LFB5743
	.uleb128 .LEHE41-.LEHB41
	.uleb128 0
	.uleb128 0
.LLSDACSE5743:
	.section	.text._ZNSt8__detail9_ExecutorIN9__gnu_cxx17__normal_iteratorIPKcNSt7__cxx1112basic_stringIcSt11char_traitsIcESaIcEEEEESaINS5_9sub_matchISB_EEENS5_12regex_traitsIcEELb0EEC2ESB_SB_RSt6vectorISD_SE_ERKNS5_11basic_regexIcSG_EENSt15regex_constants15match_flag_typeE,"axG",@progbits,_ZNSt8__detail9_ExecutorIN9__gnu_cxx17__normal_iteratorIPKcNSt7__cxx1112basic_stringIcSt11char_traitsIcESaIcEEEEESaINS5_9sub_matchISB_EEENS5_12regex_traitsIcEELb0EEC5ESB_SB_RSt6vectorISD_SE_ERKNS5_11basic_regexIcSG_EENSt15regex_constants15match_flag_typeE,comdat
	.size	_ZNSt8__detail9_ExecutorIN9__gnu_cxx17__normal_iteratorIPKcNSt7__cxx1112basic_stringIcSt11char_traitsIcESaIcEEEEESaINS5_9sub_matchISB_EEENS5_12regex_traitsIcEELb0EEC2ESB_SB_RSt6vectorISD_SE_ERKNS5_11basic_regexIcSG_EENSt15regex_constants15match_flag_typeE, .-_ZNSt8__detail9_ExecutorIN9__gnu_cxx17__normal_iteratorIPKcNSt7__cxx1112basic_stringIcSt11char_traitsIcESaIcEEEEESaINS5_9sub_matchISB_EEENS5_12regex_traitsIcEELb0EEC2ESB_SB_RSt6vectorISD_SE_ERKNS5_11basic_regexIcSG_EENSt15regex_constants15match_flag_typeE
	.weak	_ZNSt8__detail9_ExecutorIN9__gnu_cxx17__normal_iteratorIPKcNSt7__cxx1112basic_stringIcSt11char_traitsIcESaIcEEEEESaINS5_9sub_matchISB_EEENS5_12regex_traitsIcEELb0EEC1ESB_SB_RSt6vectorISD_SE_ERKNS5_11basic_regexIcSG_EENSt15regex_constants15match_flag_typeE
	.set	_ZNSt8__detail9_ExecutorIN9__gnu_cxx17__normal_iteratorIPKcNSt7__cxx1112basic_stringIcSt11char_traitsIcESaIcEEEEESaINS5_9sub_matchISB_EEENS5_12regex_traitsIcEELb0EEC1ESB_SB_RSt6vectorISD_SE_ERKNS5_11basic_regexIcSG_EENSt15regex_constants15match_flag_typeE,_ZNSt8__detail9_ExecutorIN9__gnu_cxx17__normal_iteratorIPKcNSt7__cxx1112basic_stringIcSt11char_traitsIcESaIcEEEEESaINS5_9sub_matchISB_EEENS5_12regex_traitsIcEELb0EEC2ESB_SB_RSt6vectorISD_SE_ERKNS5_11basic_regexIcSG_EENSt15regex_constants15match_flag_typeE
	.section	.text._ZNSt6vectorISt4pairIN9__gnu_cxx17__normal_iteratorIPKcNSt7__cxx1112basic_stringIcSt11char_traitsIcESaIcEEEEEiESaISC_EED2Ev,"axG",@progbits,_ZNSt6vectorISt4pairIN9__gnu_cxx17__normal_iteratorIPKcNSt7__cxx1112basic_stringIcSt11char_traitsIcESaIcEEEEEiESaISC_EED5Ev,comdat
	.align	2
	.weak	_ZNSt6vectorISt4pairIN9__gnu_cxx17__normal_iteratorIPKcNSt7__cxx1112basic_stringIcSt11char_traitsIcESaIcEEEEEiESaISC_EED2Ev
	.type	_ZNSt6vectorISt4pairIN9__gnu_cxx17__normal_iteratorIPKcNSt7__cxx1112basic_stringIcSt11char_traitsIcESaIcEEEEEiESaISC_EED2Ev, %function
_ZNSt6vectorISt4pairIN9__gnu_cxx17__normal_iteratorIPKcNSt7__cxx1112basic_stringIcSt11char_traitsIcESaIcEEEEEiESaISC_EED2Ev:
.LFB5746:
	.cfi_startproc
	.cfi_personality 0x9b,DW.ref.__gxx_personality_v0
	.cfi_lsda 0x1b,.LLSDA5746
	stp	x29, x30, [sp, -48]!
	.cfi_def_cfa_offset 48
	.cfi_offset 29, -48
	.cfi_offset 30, -40
	mov	x29, sp
	stp	x19, x20, [sp, 16]
	.cfi_offset 19, -32
	.cfi_offset 20, -24
	str	x0, [sp, 40]
	ldr	x0, [sp, 40]
	ldr	x19, [x0]
	ldr	x0, [sp, 40]
	ldr	x20, [x0, 8]
	ldr	x0, [sp, 40]
	bl	_ZNSt12_Vector_baseISt4pairIN9__gnu_cxx17__normal_iteratorIPKcNSt7__cxx1112basic_stringIcSt11char_traitsIcESaIcEEEEEiESaISC_EE19_M_get_Tp_allocatorEv
	mov	x2, x0
	mov	x1, x20
	mov	x0, x19
	bl	_ZSt8_DestroyIPSt4pairIN9__gnu_cxx17__normal_iteratorIPKcNSt7__cxx1112basic_stringIcSt11char_traitsIcESaIcEEEEEiESC_EvT_SE_RSaIT0_E
	ldr	x0, [sp, 40]
	bl	_ZNSt12_Vector_baseISt4pairIN9__gnu_cxx17__normal_iteratorIPKcNSt7__cxx1112basic_stringIcSt11char_traitsIcESaIcEEEEEiESaISC_EED2Ev
	nop
	ldp	x19, x20, [sp, 16]
	ldp	x29, x30, [sp], 48
	.cfi_restore 30
	.cfi_restore 29
	.cfi_restore 19
	.cfi_restore 20
	.cfi_def_cfa_offset 0
	ret
	.cfi_endproc
.LFE5746:
	.section	.gcc_except_table
.LLSDA5746:
	.byte	0xff
	.byte	0xff
	.byte	0x1
	.uleb128 .LLSDACSE5746-.LLSDACSB5746
.LLSDACSB5746:
.LLSDACSE5746:
	.section	.text._ZNSt6vectorISt4pairIN9__gnu_cxx17__normal_iteratorIPKcNSt7__cxx1112basic_stringIcSt11char_traitsIcESaIcEEEEEiESaISC_EED2Ev,"axG",@progbits,_ZNSt6vectorISt4pairIN9__gnu_cxx17__normal_iteratorIPKcNSt7__cxx1112basic_stringIcSt11char_traitsIcESaIcEEEEEiESaISC_EED5Ev,comdat
	.size	_ZNSt6vectorISt4pairIN9__gnu_cxx17__normal_iteratorIPKcNSt7__cxx1112basic_stringIcSt11char_traitsIcESaIcEEEEEiESaISC_EED2Ev, .-_ZNSt6vectorISt4pairIN9__gnu_cxx17__normal_iteratorIPKcNSt7__cxx1112basic_stringIcSt11char_traitsIcESaIcEEEEEiESaISC_EED2Ev
	.weak	_ZNSt6vectorISt4pairIN9__gnu_cxx17__normal_iteratorIPKcNSt7__cxx1112basic_stringIcSt11char_traitsIcESaIcEEEEEiESaISC_EED1Ev
	.set	_ZNSt6vectorISt4pairIN9__gnu_cxx17__normal_iteratorIPKcNSt7__cxx1112basic_stringIcSt11char_traitsIcESaIcEEEEEiESaISC_EED1Ev,_ZNSt6vectorISt4pairIN9__gnu_cxx17__normal_iteratorIPKcNSt7__cxx1112basic_stringIcSt11char_traitsIcESaIcEEEEEiESaISC_EED2Ev
	.section	.text._ZNSt6vectorISt4pairIlS_INSt7__cxx119sub_matchIN9__gnu_cxx17__normal_iteratorIPKcNS1_12basic_stringIcSt11char_traitsIcESaIcEEEEEEESaISD_EEESaISG_EED2Ev,"axG",@progbits,_ZNSt6vectorISt4pairIlS_INSt7__cxx119sub_matchIN9__gnu_cxx17__normal_iteratorIPKcNS1_12basic_stringIcSt11char_traitsIcESaIcEEEEEEESaISD_EEESaISG_EED5Ev,comdat
	.align	2
	.weak	_ZNSt6vectorISt4pairIlS_INSt7__cxx119sub_matchIN9__gnu_cxx17__normal_iteratorIPKcNS1_12basic_stringIcSt11char_traitsIcESaIcEEEEEEESaISD_EEESaISG_EED2Ev
	.type	_ZNSt6vectorISt4pairIlS_INSt7__cxx119sub_matchIN9__gnu_cxx17__normal_iteratorIPKcNS1_12basic_stringIcSt11char_traitsIcESaIcEEEEEEESaISD_EEESaISG_EED2Ev, %function
_ZNSt6vectorISt4pairIlS_INSt7__cxx119sub_matchIN9__gnu_cxx17__normal_iteratorIPKcNS1_12basic_stringIcSt11char_traitsIcESaIcEEEEEEESaISD_EEESaISG_EED2Ev:
.LFB5749:
	.cfi_startproc
	.cfi_personality 0x9b,DW.ref.__gxx_personality_v0
	.cfi_lsda 0x1b,.LLSDA5749
	stp	x29, x30, [sp, -48]!
	.cfi_def_cfa_offset 48
	.cfi_offset 29, -48
	.cfi_offset 30, -40
	mov	x29, sp
	stp	x19, x20, [sp, 16]
	.cfi_offset 19, -32
	.cfi_offset 20, -24
	str	x0, [sp, 40]
	ldr	x0, [sp, 40]
	ldr	x19, [x0]
	ldr	x0, [sp, 40]
	ldr	x20, [x0, 8]
	ldr	x0, [sp, 40]
	bl	_ZNSt12_Vector_baseISt4pairIlSt6vectorINSt7__cxx119sub_matchIN9__gnu_cxx17__normal_iteratorIPKcNS2_12basic_stringIcSt11char_traitsIcESaIcEEEEEEESaISE_EEESaISH_EE19_M_get_Tp_allocatorEv
	mov	x2, x0
	mov	x1, x20
	mov	x0, x19
	bl	_ZSt8_DestroyIPSt4pairIlSt6vectorINSt7__cxx119sub_matchIN9__gnu_cxx17__normal_iteratorIPKcNS2_12basic_stringIcSt11char_traitsIcESaIcEEEEEEESaISE_EEESH_EvT_SJ_RSaIT0_E
	ldr	x0, [sp, 40]
	bl	_ZNSt12_Vector_baseISt4pairIlSt6vectorINSt7__cxx119sub_matchIN9__gnu_cxx17__normal_iteratorIPKcNS2_12basic_stringIcSt11char_traitsIcESaIcEEEEEEESaISE_EEESaISH_EED2Ev
	nop
	ldp	x19, x20, [sp, 16]
	ldp	x29, x30, [sp], 48
	.cfi_restore 30
	.cfi_restore 29
	.cfi_restore 19
	.cfi_restore 20
	.cfi_def_cfa_offset 0
	ret
	.cfi_endproc
.LFE5749:
	.section	.gcc_except_table
.LLSDA5749:
	.byte	0xff
	.byte	0xff
	.byte	0x1
	.uleb128 .LLSDACSE5749-.LLSDACSB5749
.LLSDACSB5749:
.LLSDACSE5749:
	.section	.text._ZNSt6vectorISt4pairIlS_INSt7__cxx119sub_matchIN9__gnu_cxx17__normal_iteratorIPKcNS1_12basic_stringIcSt11char_traitsIcESaIcEEEEEEESaISD_EEESaISG_EED2Ev,"axG",@progbits,_ZNSt6vectorISt4pairIlS_INSt7__cxx119sub_matchIN9__gnu_cxx17__normal_iteratorIPKcNS1_12basic_stringIcSt11char_traitsIcESaIcEEEEEEESaISD_EEESaISG_EED5Ev,comdat
	.size	_ZNSt6vectorISt4pairIlS_INSt7__cxx119sub_matchIN9__gnu_cxx17__normal_iteratorIPKcNS1_12basic_stringIcSt11char_traitsIcESaIcEEEEEEESaISD_EEESaISG_EED2Ev, .-_ZNSt6vectorISt4pairIlS_INSt7__cxx119sub_matchIN9__gnu_cxx17__normal_iteratorIPKcNS1_12basic_stringIcSt11char_traitsIcESaIcEEEEEEESaISD_EEESaISG_EED2Ev
	.weak	_ZNSt6vectorISt4pairIlS_INSt7__cxx119sub_matchIN9__gnu_cxx17__normal_iteratorIPKcNS1_12basic_stringIcSt11char_traitsIcESaIcEEEEEEESaISD_EEESaISG_EED1Ev
	.set	_ZNSt6vectorISt4pairIlS_INSt7__cxx119sub_matchIN9__gnu_cxx17__normal_iteratorIPKcNS1_12basic_stringIcSt11char_traitsIcESaIcEEEEEEESaISD_EEESaISG_EED1Ev,_ZNSt6vectorISt4pairIlS_INSt7__cxx119sub_matchIN9__gnu_cxx17__normal_iteratorIPKcNS1_12basic_stringIcSt11char_traitsIcESaIcEEEEEEESaISD_EEESaISG_EED2Ev
	.section	.text._ZNSt10unique_ptrIA_bSt14default_deleteIS0_EED2Ev,"axG",@progbits,_ZNSt10unique_ptrIA_bSt14default_deleteIS0_EED5Ev,comdat
	.align	2
	.weak	_ZNSt10unique_ptrIA_bSt14default_deleteIS0_EED2Ev
	.type	_ZNSt10unique_ptrIA_bSt14default_deleteIS0_EED2Ev, %function
_ZNSt10unique_ptrIA_bSt14default_deleteIS0_EED2Ev:
.LFB5752:
	.cfi_startproc
	stp	x29, x30, [sp, -48]!
	.cfi_def_cfa_offset 48
	.cfi_offset 29, -48
	.cfi_offset 30, -40
	mov	x29, sp
	str	x0, [sp, 24]
	ldr	x0, [sp, 24]
	bl	_ZNSt15__uniq_ptr_implIbSt14default_deleteIA_bEE6_M_ptrEv
	str	x0, [sp, 40]
	ldr	x0, [sp, 40]
	ldr	x0, [x0]
	cmp	x0, 0
	beq	.L446
	ldr	x0, [sp, 24]
	bl	_ZNSt10unique_ptrIA_bSt14default_deleteIS0_EE11get_deleterEv
	mov	x2, x0
	ldr	x0, [sp, 40]
	ldr	x0, [x0]
	mov	x1, x0
	mov	x0, x2
	bl	_ZNKSt14default_deleteIA_bEclIbEENSt9enable_ifIXsrSt14is_convertibleIPA_T_PS0_E5valueEvE4typeEPS5_
.L446:
	ldr	x0, [sp, 40]
	str	xzr, [x0]
	nop
	ldp	x29, x30, [sp], 48
	.cfi_restore 30
	.cfi_restore 29
	.cfi_def_cfa_offset 0
	ret
	.cfi_endproc
.LFE5752:
	.size	_ZNSt10unique_ptrIA_bSt14default_deleteIS0_EED2Ev, .-_ZNSt10unique_ptrIA_bSt14default_deleteIS0_EED2Ev
	.weak	_ZNSt10unique_ptrIA_bSt14default_deleteIS0_EED1Ev
	.set	_ZNSt10unique_ptrIA_bSt14default_deleteIS0_EED1Ev,_ZNSt10unique_ptrIA_bSt14default_deleteIS0_EED2Ev
	.section	.text._ZNSt8__detail9_ExecutorIN9__gnu_cxx17__normal_iteratorIPKcNSt7__cxx1112basic_stringIcSt11char_traitsIcESaIcEEEEESaINS5_9sub_matchISB_EEENS5_12regex_traitsIcEELb0EE9_M_searchEv,"axG",@progbits,_ZNSt8__detail9_ExecutorIN9__gnu_cxx17__normal_iteratorIPKcNSt7__cxx1112basic_stringIcSt11char_traitsIcESaIcEEEEESaINS5_9sub_matchISB_EEENS5_12regex_traitsIcEELb0EE9_M_searchEv,comdat
	.align	2
	.weak	_ZNSt8__detail9_ExecutorIN9__gnu_cxx17__normal_iteratorIPKcNSt7__cxx1112basic_stringIcSt11char_traitsIcESaIcEEEEESaINS5_9sub_matchISB_EEENS5_12regex_traitsIcEELb0EE9_M_searchEv
	.type	_ZNSt8__detail9_ExecutorIN9__gnu_cxx17__normal_iteratorIPKcNSt7__cxx1112basic_stringIcSt11char_traitsIcESaIcEEEEESaINS5_9sub_matchISB_EEENS5_12regex_traitsIcEELb0EE9_M_searchEv, %function
_ZNSt8__detail9_ExecutorIN9__gnu_cxx17__normal_iteratorIPKcNSt7__cxx1112basic_stringIcSt11char_traitsIcESaIcEEEEESaINS5_9sub_matchISB_EEENS5_12regex_traitsIcEELb0EE9_M_searchEv:
.LFB5755:
	.cfi_startproc
	stp	x29, x30, [sp, -32]!
	.cfi_def_cfa_offset 32
	.cfi_offset 29, -32
	.cfi_offset 30, -24
	mov	x29, sp
	str	x0, [sp, 24]
	ldr	x0, [sp, 24]
	bl	_ZNSt8__detail9_ExecutorIN9__gnu_cxx17__normal_iteratorIPKcNSt7__cxx1112basic_stringIcSt11char_traitsIcESaIcEEEEESaINS5_9sub_matchISB_EEENS5_12regex_traitsIcEELb0EE20_M_search_from_firstEv
	and	w0, w0, 255
	cmp	w0, 0
	beq	.L448
	mov	w0, 1
	b	.L449
.L448:
