	.arch armv8-a
	.file	"main.cpp"
	.text
	.section	.text._ZNKSt9type_info4nameEv,"axG",@progbits,_ZNKSt9type_info4nameEv,comdat
	.align	2
	.weak	_ZNKSt9type_info4nameEv
	.type	_ZNKSt9type_info4nameEv, %function
_ZNKSt9type_info4nameEv:
.LFB18:
	.cfi_startproc
	sub	sp, sp, #16
	.cfi_def_cfa_offset 16
	str	x0, [sp, 8]
	ldr	x0, [sp, 8]
	ldr	x0, [x0, 8]
	ldrb	w0, [x0]
	cmp	w0, 42
	bne	.L2
	ldr	x0, [sp, 8]
	ldr	x0, [x0, 8]
	add	x0, x0, 1
	b	.L4
.L2:
	ldr	x0, [sp, 8]
	ldr	x0, [x0, 8]
.L4:
	add	sp, sp, 16
	.cfi_def_cfa_offset 0
	ret
	.cfi_endproc
.LFE18:
	.size	_ZNKSt9type_info4nameEv, .-_ZNKSt9type_info4nameEv
	.section	.text._ZnwmPv,"axG",@progbits,_ZnwmPv,comdat
	.align	2
	.weak	_ZnwmPv
	.type	_ZnwmPv, %function
_ZnwmPv:
.LFB38:
	.cfi_startproc
	sub	sp, sp, #16
	.cfi_def_cfa_offset 16
	str	x0, [sp, 8]
	str	x1, [sp]
	ldr	x0, [sp]
	add	sp, sp, 16
	.cfi_def_cfa_offset 0
	ret
	.cfi_endproc
.LFE38:
	.size	_ZnwmPv, .-_ZnwmPv
	.section	.text._ZdlPvS_,"axG",@progbits,_ZdlPvS_,comdat
	.align	2
	.weak	_ZdlPvS_
	.type	_ZdlPvS_, %function
_ZdlPvS_:
.LFB40:
	.cfi_startproc
	sub	sp, sp, #16
	.cfi_def_cfa_offset 16
	str	x0, [sp, 8]
	str	x1, [sp]
	nop
	add	sp, sp, 16
	.cfi_def_cfa_offset 0
	ret
	.cfi_endproc
.LFE40:
	.size	_ZdlPvS_, .-_ZdlPvS_
	.section	.text._ZNSt11char_traitsIcE2ltERKcS2_,"axG",@progbits,_ZNSt11char_traitsIcE2ltERKcS2_,comdat
	.align	2
	.weak	_ZNSt11char_traitsIcE2ltERKcS2_
	.type	_ZNSt11char_traitsIcE2ltERKcS2_, %function
_ZNSt11char_traitsIcE2ltERKcS2_:
.LFB446:
	.cfi_startproc
	sub	sp, sp, #16
	.cfi_def_cfa_offset 16
	str	x0, [sp, 8]
	str	x1, [sp]
	ldr	x0, [sp, 8]
	ldrb	w1, [x0]
	ldr	x0, [sp]
	ldrb	w0, [x0]
	cmp	w1, w0
	cset	w0, cc
	and	w0, w0, 255
	add	sp, sp, 16
	.cfi_def_cfa_offset 0
	ret
	.cfi_endproc
.LFE446:
	.size	_ZNSt11char_traitsIcE2ltERKcS2_, .-_ZNSt11char_traitsIcE2ltERKcS2_
	.section	.text._ZNSt11char_traitsIcE7compareEPKcS2_m,"axG",@progbits,_ZNSt11char_traitsIcE7compareEPKcS2_m,comdat
	.align	2
	.weak	_ZNSt11char_traitsIcE7compareEPKcS2_m
	.type	_ZNSt11char_traitsIcE7compareEPKcS2_m, %function
_ZNSt11char_traitsIcE7compareEPKcS2_m:
.LFB447:
	.cfi_startproc
	stp	x29, x30, [sp, -64]!
	.cfi_def_cfa_offset 64
	.cfi_offset 29, -64
	.cfi_offset 30, -56
	mov	x29, sp
	str	x0, [sp, 40]
	str	x1, [sp, 32]
	str	x2, [sp, 24]
	ldr	x0, [sp, 24]
	cmp	x0, 0
	bne	.L11
	mov	w0, 0
	b	.L12
.L11:
	mov	w0, 0
	cmp	w0, 0
	beq	.L13
	str	xzr, [sp, 56]
	b	.L14
.L17:
	ldr	x1, [sp, 40]
	ldr	x0, [sp, 56]
	add	x2, x1, x0
	ldr	x1, [sp, 32]
	ldr	x0, [sp, 56]
	add	x0, x1, x0
	mov	x1, x0
	mov	x0, x2
	bl	_ZNSt11char_traitsIcE2ltERKcS2_
	and	w0, w0, 255
	cmp	w0, 0
	beq	.L15
	mov	w0, -1
	b	.L12
.L15:
	ldr	x1, [sp, 32]
	ldr	x0, [sp, 56]
	add	x2, x1, x0
	ldr	x1, [sp, 40]
	ldr	x0, [sp, 56]
	add	x0, x1, x0
	mov	x1, x0
	mov	x0, x2
	bl	_ZNSt11char_traitsIcE2ltERKcS2_
	and	w0, w0, 255
	cmp	w0, 0
	beq	.L16
	mov	w0, 1
	b	.L12
.L16:
	ldr	x0, [sp, 56]
	add	x0, x0, 1
	str	x0, [sp, 56]
.L14:
	ldr	x1, [sp, 56]
	ldr	x0, [sp, 24]
	cmp	x1, x0
	bcc	.L17
	mov	w0, 0
	b	.L12
.L13:
	ldr	x2, [sp, 24]
	ldr	x1, [sp, 32]
	ldr	x0, [sp, 40]
	bl	memcmp
	nop
.L12:
	ldp	x29, x30, [sp], 64
	.cfi_restore 30
	.cfi_restore 29
	.cfi_def_cfa_offset 0
	ret
	.cfi_endproc
.LFE447:
	.size	_ZNSt11char_traitsIcE7compareEPKcS2_m, .-_ZNSt11char_traitsIcE7compareEPKcS2_m
	.section	.text._ZNSt11char_traitsIcE6lengthEPKc,"axG",@progbits,_ZNSt11char_traitsIcE6lengthEPKc,comdat
	.align	2
	.weak	_ZNSt11char_traitsIcE6lengthEPKc
	.type	_ZNSt11char_traitsIcE6lengthEPKc, %function
_ZNSt11char_traitsIcE6lengthEPKc:
.LFB449:
	.cfi_startproc
	stp	x29, x30, [sp, -48]!
	.cfi_def_cfa_offset 48
	.cfi_offset 29, -48
	.cfi_offset 30, -40
	mov	x29, sp
	str	x0, [sp, 24]
	ldr	x0, [sp, 24]
	str	x0, [sp, 40]
	mov	w0, 0
	cmp	w0, 0
	beq	.L20
	ldr	x0, [sp, 24]
	bl	_ZN9__gnu_cxx11char_traitsIcE6lengthEPKc
	b	.L21
.L20:
	ldr	x0, [sp, 24]
	bl	strlen
	nop
.L21:
	ldp	x29, x30, [sp], 48
	.cfi_restore 30
	.cfi_restore 29
	.cfi_def_cfa_offset 0
	ret
	.cfi_endproc
.LFE449:
	.size	_ZNSt11char_traitsIcE6lengthEPKc, .-_ZNSt11char_traitsIcE6lengthEPKc
	.local	_ZStL8__ioinit
	.comm	_ZStL8__ioinit,1,8
	.section	.text._ZN5boost36throw_exception_assert_compatibilityERKSt9exception,"axG",@progbits,_ZN5boost36throw_exception_assert_compatibilityERKSt9exception,comdat
	.align	2
	.weak	_ZN5boost36throw_exception_assert_compatibilityERKSt9exception
	.type	_ZN5boost36throw_exception_assert_compatibilityERKSt9exception, %function
_ZN5boost36throw_exception_assert_compatibilityERKSt9exception:
.LFB1779:
	.cfi_startproc
	sub	sp, sp, #16
	.cfi_def_cfa_offset 16
	str	x0, [sp, 8]
	nop
	add	sp, sp, 16
	.cfi_def_cfa_offset 0
	ret
	.cfi_endproc
.LFE1779:
	.size	_ZN5boost36throw_exception_assert_compatibilityERKSt9exception, .-_ZN5boost36throw_exception_assert_compatibilityERKSt9exception
	.section	.text._ZN5boost9exceptionC2Ev,"axG",@progbits,_ZN5boost9exceptionC5Ev,comdat
	.align	2
	.weak	_ZN5boost9exceptionC2Ev
	.type	_ZN5boost9exceptionC2Ev, %function
_ZN5boost9exceptionC2Ev:
.LFB1801:
	.cfi_startproc
	stp	x29, x30, [sp, -32]!
	.cfi_def_cfa_offset 32
	.cfi_offset 29, -32
	.cfi_offset 30, -24
	mov	x29, sp
	str	x0, [sp, 24]
	adrp	x0, _ZTVN5boost9exceptionE+16
	add	x1, x0, :lo12:_ZTVN5boost9exceptionE+16
	ldr	x0, [sp, 24]
	str	x1, [x0]
	ldr	x0, [sp, 24]
	add	x0, x0, 8
	bl	_ZN5boost16exception_detail12refcount_ptrINS0_20error_info_containerEEC1Ev
	ldr	x0, [sp, 24]
	str	xzr, [x0, 16]
	ldr	x0, [sp, 24]
	str	xzr, [x0, 24]
	ldr	x0, [sp, 24]
	mov	w1, -1
	str	w1, [x0, 32]
	nop
	ldp	x29, x30, [sp], 32
	.cfi_restore 30
	.cfi_restore 29
	.cfi_def_cfa_offset 0
	ret
	.cfi_endproc
.LFE1801:
	.size	_ZN5boost9exceptionC2Ev, .-_ZN5boost9exceptionC2Ev
	.weak	_ZN5boost9exceptionC1Ev
	.set	_ZN5boost9exceptionC1Ev,_ZN5boost9exceptionC2Ev
	.section	.text._ZN5boost9exceptionD2Ev,"axG",@progbits,_ZN5boost9exceptionD5Ev,comdat
	.align	2
	.weak	_ZN5boost9exceptionD2Ev
	.type	_ZN5boost9exceptionD2Ev, %function
_ZN5boost9exceptionD2Ev:
.LFB1804:
	.cfi_startproc
	stp	x29, x30, [sp, -32]!
	.cfi_def_cfa_offset 32
	.cfi_offset 29, -32
	.cfi_offset 30, -24
	mov	x29, sp
	str	x0, [sp, 24]
	adrp	x0, _ZTVN5boost9exceptionE+16
	add	x1, x0, :lo12:_ZTVN5boost9exceptionE+16
	ldr	x0, [sp, 24]
	str	x1, [x0]
	ldr	x0, [sp, 24]
	add	x0, x0, 8
	bl	_ZN5boost16exception_detail12refcount_ptrINS0_20error_info_containerEED1Ev
	nop
	ldp	x29, x30, [sp], 32
	.cfi_restore 30
	.cfi_restore 29
	.cfi_def_cfa_offset 0
	ret
	.cfi_endproc
.LFE1804:
	.size	_ZN5boost9exceptionD2Ev, .-_ZN5boost9exceptionD2Ev
	.weak	_ZN5boost9exceptionD1Ev
	.set	_ZN5boost9exceptionD1Ev,_ZN5boost9exceptionD2Ev
	.section	.text._ZN5boost9exceptionD0Ev,"axG",@progbits,_ZN5boost9exceptionD5Ev,comdat
	.align	2
	.weak	_ZN5boost9exceptionD0Ev
	.type	_ZN5boost9exceptionD0Ev, %function
_ZN5boost9exceptionD0Ev:
.LFB1806:
	.cfi_startproc
	stp	x29, x30, [sp, -32]!
	.cfi_def_cfa_offset 32
	.cfi_offset 29, -32
	.cfi_offset 30, -24
	mov	x29, sp
	str	x0, [sp, 24]
	ldr	x0, [sp, 24]
	bl	_ZN5boost9exceptionD1Ev
	mov	x1, 40
	ldr	x0, [sp, 24]
	bl	_ZdlPvm
	ldp	x29, x30, [sp], 32
	.cfi_restore 30
	.cfi_restore 29
	.cfi_def_cfa_offset 0
	ret
	.cfi_endproc
.LFE1806:
	.size	_ZN5boost9exceptionD0Ev, .-_ZN5boost9exceptionD0Ev
	.section	.text._ZN5boost16exception_detail10clone_baseD2Ev,"axG",@progbits,_ZN5boost16exception_detail10clone_baseD5Ev,comdat
	.align	2
	.weak	_ZN5boost16exception_detail10clone_baseD2Ev
	.type	_ZN5boost16exception_detail10clone_baseD2Ev, %function
_ZN5boost16exception_detail10clone_baseD2Ev:
.LFB1814:
	.cfi_startproc
	sub	sp, sp, #16
	.cfi_def_cfa_offset 16
	str	x0, [sp, 8]
	adrp	x0, _ZTVN5boost16exception_detail10clone_baseE+16
	add	x1, x0, :lo12:_ZTVN5boost16exception_detail10clone_baseE+16
	ldr	x0, [sp, 8]
	str	x1, [x0]
	nop
	add	sp, sp, 16
	.cfi_def_cfa_offset 0
	ret
	.cfi_endproc
.LFE1814:
	.size	_ZN5boost16exception_detail10clone_baseD2Ev, .-_ZN5boost16exception_detail10clone_baseD2Ev
	.weak	_ZN5boost16exception_detail10clone_baseD1Ev
	.set	_ZN5boost16exception_detail10clone_baseD1Ev,_ZN5boost16exception_detail10clone_baseD2Ev
	.section	.text._ZN5boost16exception_detail10clone_baseD0Ev,"axG",@progbits,_ZN5boost16exception_detail10clone_baseD5Ev,comdat
	.align	2
	.weak	_ZN5boost16exception_detail10clone_baseD0Ev
	.type	_ZN5boost16exception_detail10clone_baseD0Ev, %function
_ZN5boost16exception_detail10clone_baseD0Ev:
.LFB1816:
	.cfi_startproc
	stp	x29, x30, [sp, -32]!
	.cfi_def_cfa_offset 32
	.cfi_offset 29, -32
	.cfi_offset 30, -24
	mov	x29, sp
	str	x0, [sp, 24]
	ldr	x0, [sp, 24]
	bl	_ZN5boost16exception_detail10clone_baseD1Ev
	mov	x1, 8
	ldr	x0, [sp, 24]
	bl	_ZdlPvm
	ldp	x29, x30, [sp], 32
	.cfi_restore 30
	.cfi_restore 29
	.cfi_def_cfa_offset 0
	ret
	.cfi_endproc
.LFE1816:
	.size	_ZN5boost16exception_detail10clone_baseD0Ev, .-_ZN5boost16exception_detail10clone_baseD0Ev
	.section	.text._ZN5boost16exception_detail20copy_boost_exceptionEPNS_9exceptionEPKS1_,"axG",@progbits,_ZN5boost16exception_detail20copy_boost_exceptionEPNS_9exceptionEPKS1_,comdat
	.align	2
	.weak	_ZN5boost16exception_detail20copy_boost_exceptionEPNS_9exceptionEPKS1_
	.type	_ZN5boost16exception_detail20copy_boost_exceptionEPNS_9exceptionEPKS1_, %function
_ZN5boost16exception_detail20copy_boost_exceptionEPNS_9exceptionEPKS1_:
.LFB1817:
	.cfi_startproc
	.cfi_personality 0x9b,DW.ref.__gxx_personality_v0
	.cfi_lsda 0x1b,.LLSDA1817
	stp	x29, x30, [sp, -80]!
	.cfi_def_cfa_offset 80
	.cfi_offset 29, -80
	.cfi_offset 30, -72
	mov	x29, sp
	str	x19, [sp, 16]
	.cfi_offset 19, -64
	str	x0, [sp, 40]
	str	x1, [sp, 32]
	adrp	x0, :got:__stack_chk_guard
	ldr	x0, [x0, #:got_lo12:__stack_chk_guard]
	ldr	x1, [x0]
	str	x1, [sp, 72]
	mov	x1, 0
	add	x0, sp, 48
	bl	_ZN5boost16exception_detail12refcount_ptrINS0_20error_info_containerEEC1Ev
	ldr	x0, [sp, 32]
	add	x0, x0, 8
	bl	_ZNK5boost16exception_detail12refcount_ptrINS0_20error_info_containerEE3getEv
	str	x0, [sp, 64]
	ldr	x0, [sp, 64]
	cmp	x0, 0
	beq	.L29
	ldr	x0, [sp, 64]
	ldr	x0, [x0]
	add	x0, x0, 40
	ldr	x1, [x0]
	add	x0, sp, 56
	mov	x8, x0
	ldr	x0, [sp, 64]
.LEHB0:
	blr	x1
.LEHE0:
	add	x1, sp, 56
	add	x0, sp, 48
.LEHB1:
	bl	_ZN5boost16exception_detail12refcount_ptrINS0_20error_info_containerEEaSERKS3_
.LEHE1:
	add	x0, sp, 56
	bl	_ZN5boost16exception_detail12refcount_ptrINS0_20error_info_containerEED1Ev
.L29:
	ldr	x0, [sp, 32]
	ldr	x1, [x0, 24]
	ldr	x0, [sp, 40]
	str	x1, [x0, 24]
	ldr	x0, [sp, 32]
	ldr	w1, [x0, 32]
	ldr	x0, [sp, 40]
	str	w1, [x0, 32]
	ldr	x0, [sp, 32]
	ldr	x1, [x0, 16]
	ldr	x0, [sp, 40]
	str	x1, [x0, 16]
	ldr	x0, [sp, 40]
	add	x0, x0, 8
	add	x1, sp, 48
.LEHB2:
	bl	_ZN5boost16exception_detail12refcount_ptrINS0_20error_info_containerEEaSERKS3_
.LEHE2:
	add	x0, sp, 48
	bl	_ZN5boost16exception_detail12refcount_ptrINS0_20error_info_containerEED1Ev
	adrp	x0, :got:__stack_chk_guard
	ldr	x0, [x0, #:got_lo12:__stack_chk_guard]
	ldr	x2, [sp, 72]
	ldr	x1, [x0]
	subs	x2, x2, x1
	mov	x1, 0
	beq	.L32
	b	.L35
.L34:
	mov	x19, x0
	add	x0, sp, 56
	bl	_ZN5boost16exception_detail12refcount_ptrINS0_20error_info_containerEED1Ev
	b	.L31
.L33:
	mov	x19, x0
.L31:
	add	x0, sp, 48
	bl	_ZN5boost16exception_detail12refcount_ptrINS0_20error_info_containerEED1Ev
	mov	x0, x19
.LEHB3:
	bl	_Unwind_Resume
.LEHE3:
.L35:
	bl	__stack_chk_fail
.L32:
	ldr	x19, [sp, 16]
	ldp	x29, x30, [sp], 80
	.cfi_restore 30
	.cfi_restore 29
	.cfi_restore 19
	.cfi_def_cfa_offset 0
	ret
	.cfi_endproc
.LFE1817:
	.global	__gxx_personality_v0
	.section	.gcc_except_table._ZN5boost16exception_detail20copy_boost_exceptionEPNS_9exceptionEPKS1_,"aG",@progbits,_ZN5boost16exception_detail20copy_boost_exceptionEPNS_9exceptionEPKS1_,comdat
.LLSDA1817:
	.byte	0xff
	.byte	0xff
	.byte	0x1
	.uleb128 .LLSDACSE1817-.LLSDACSB1817
.LLSDACSB1817:
	.uleb128 .LEHB0-.LFB1817
	.uleb128 .LEHE0-.LEHB0
	.uleb128 .L33-.LFB1817
	.uleb128 0
	.uleb128 .LEHB1-.LFB1817
	.uleb128 .LEHE1-.LEHB1
	.uleb128 .L34-.LFB1817
	.uleb128 0
	.uleb128 .LEHB2-.LFB1817
	.uleb128 .LEHE2-.LEHB2
	.uleb128 .L33-.LFB1817
	.uleb128 0
	.uleb128 .LEHB3-.LFB1817
	.uleb128 .LEHE3-.LEHB3
	.uleb128 0
	.uleb128 0
.LLSDACSE1817:
	.section	.text._ZN5boost16exception_detail20copy_boost_exceptionEPNS_9exceptionEPKS1_,"axG",@progbits,_ZN5boost16exception_detail20copy_boost_exceptionEPNS_9exceptionEPKS1_,comdat
	.size	_ZN5boost16exception_detail20copy_boost_exceptionEPNS_9exceptionEPKS1_, .-_ZN5boost16exception_detail20copy_boost_exceptionEPNS_9exceptionEPKS1_
	.section	.text._ZN5boost4core21scoped_demangled_nameC2EPKc,"axG",@progbits,_ZN5boost4core21scoped_demangled_nameC5EPKc,comdat
	.align	2
	.weak	_ZN5boost4core21scoped_demangled_nameC2EPKc
	.type	_ZN5boost4core21scoped_demangled_nameC2EPKc, %function
_ZN5boost4core21scoped_demangled_nameC2EPKc:
.LFB1869:
	.cfi_startproc
	stp	x29, x30, [sp, -32]!
	.cfi_def_cfa_offset 32
	.cfi_offset 29, -32
	.cfi_offset 30, -24
	mov	x29, sp
	str	x0, [sp, 24]
	str	x1, [sp, 16]
	ldr	x0, [sp, 16]
	bl	_ZN5boost4core14demangle_allocEPKc
	mov	x1, x0
	ldr	x0, [sp, 24]
	str	x1, [x0]
	nop
	ldp	x29, x30, [sp], 32
	.cfi_restore 30
	.cfi_restore 29
	.cfi_def_cfa_offset 0
	ret
	.cfi_endproc
.LFE1869:
	.size	_ZN5boost4core21scoped_demangled_nameC2EPKc, .-_ZN5boost4core21scoped_demangled_nameC2EPKc
	.weak	_ZN5boost4core21scoped_demangled_nameC1EPKc
	.set	_ZN5boost4core21scoped_demangled_nameC1EPKc,_ZN5boost4core21scoped_demangled_nameC2EPKc
	.section	.text._ZN5boost4core21scoped_demangled_nameD2Ev,"axG",@progbits,_ZN5boost4core21scoped_demangled_nameD5Ev,comdat
	.align	2
	.weak	_ZN5boost4core21scoped_demangled_nameD2Ev
	.type	_ZN5boost4core21scoped_demangled_nameD2Ev, %function
_ZN5boost4core21scoped_demangled_nameD2Ev:
.LFB1872:
	.cfi_startproc
	stp	x29, x30, [sp, -32]!
	.cfi_def_cfa_offset 32
	.cfi_offset 29, -32
	.cfi_offset 30, -24
	mov	x29, sp
	str	x0, [sp, 24]
	ldr	x0, [sp, 24]
	ldr	x0, [x0]
	bl	_ZN5boost4core13demangle_freeEPKc
	nop
	ldp	x29, x30, [sp], 32
	.cfi_restore 30
	.cfi_restore 29
	.cfi_def_cfa_offset 0
	ret
	.cfi_endproc
.LFE1872:
	.size	_ZN5boost4core21scoped_demangled_nameD2Ev, .-_ZN5boost4core21scoped_demangled_nameD2Ev
	.weak	_ZN5boost4core21scoped_demangled_nameD1Ev
	.set	_ZN5boost4core21scoped_demangled_nameD1Ev,_ZN5boost4core21scoped_demangled_nameD2Ev
	.section	.text._ZNK5boost4core21scoped_demangled_name3getEv,"axG",@progbits,_ZNK5boost4core21scoped_demangled_name3getEv,comdat
	.align	2
	.weak	_ZNK5boost4core21scoped_demangled_name3getEv
	.type	_ZNK5boost4core21scoped_demangled_name3getEv, %function
_ZNK5boost4core21scoped_demangled_name3getEv:
.LFB1874:
	.cfi_startproc
	sub	sp, sp, #16
	.cfi_def_cfa_offset 16
	str	x0, [sp, 8]
	ldr	x0, [sp, 8]
	ldr	x0, [x0]
	add	sp, sp, 16
	.cfi_def_cfa_offset 0
	ret
	.cfi_endproc
.LFE1874:
	.size	_ZNK5boost4core21scoped_demangled_name3getEv, .-_ZNK5boost4core21scoped_demangled_name3getEv
	.section	.text._ZN5boost4core14demangle_allocEPKc,"axG",@progbits,_ZN5boost4core14demangle_allocEPKc,comdat
	.align	2
	.weak	_ZN5boost4core14demangle_allocEPKc
	.type	_ZN5boost4core14demangle_allocEPKc, %function
_ZN5boost4core14demangle_allocEPKc:
.LFB1875:
	.cfi_startproc
	.cfi_personality 0x9b,DW.ref.__gxx_personality_v0
	.cfi_lsda 0x1b,.LLSDA1875
	stp	x29, x30, [sp, -64]!
	.cfi_def_cfa_offset 64
	.cfi_offset 29, -64
	.cfi_offset 30, -56
	mov	x29, sp
	str	x0, [sp, 24]
	adrp	x0, :got:__stack_chk_guard
	ldr	x0, [x0, #:got_lo12:__stack_chk_guard]
	ldr	x1, [x0]
	str	x1, [sp, 56]
	mov	x1, 0
	str	wzr, [sp, 44]
	str	xzr, [sp, 48]
	add	x1, sp, 44
	add	x0, sp, 48
	mov	x3, x1
	mov	x2, x0
	mov	x1, 0
	ldr	x0, [sp, 24]
	bl	__cxa_demangle
	mov	x1, x0
	adrp	x0, :got:__stack_chk_guard
	ldr	x0, [x0, #:got_lo12:__stack_chk_guard]
	ldr	x3, [sp, 56]
	ldr	x2, [x0]
	subs	x3, x3, x2
	mov	x2, 0
	beq	.L42
	bl	__stack_chk_fail
.L42:
	mov	x0, x1
	ldp	x29, x30, [sp], 64
	.cfi_restore 30
	.cfi_restore 29
	.cfi_def_cfa_offset 0
	ret
	.cfi_endproc
.LFE1875:
	.section	.gcc_except_table._ZN5boost4core14demangle_allocEPKc,"aG",@progbits,_ZN5boost4core14demangle_allocEPKc,comdat
.LLSDA1875:
	.byte	0xff
	.byte	0xff
	.byte	0x1
	.uleb128 .LLSDACSE1875-.LLSDACSB1875
.LLSDACSB1875:
.LLSDACSE1875:
	.section	.text._ZN5boost4core14demangle_allocEPKc,"axG",@progbits,_ZN5boost4core14demangle_allocEPKc,comdat
	.size	_ZN5boost4core14demangle_allocEPKc, .-_ZN5boost4core14demangle_allocEPKc
	.section	.text._ZN5boost4core13demangle_freeEPKc,"axG",@progbits,_ZN5boost4core13demangle_freeEPKc,comdat
	.align	2
	.weak	_ZN5boost4core13demangle_freeEPKc
	.type	_ZN5boost4core13demangle_freeEPKc, %function
_ZN5boost4core13demangle_freeEPKc:
.LFB1876:
	.cfi_startproc
	stp	x29, x30, [sp, -32]!
	.cfi_def_cfa_offset 32
	.cfi_offset 29, -32
	.cfi_offset 30, -24
	mov	x29, sp
	str	x0, [sp, 24]
	ldr	x0, [sp, 24]
	bl	free
	nop
	ldp	x29, x30, [sp], 32
	.cfi_restore 30
	.cfi_restore 29
	.cfi_def_cfa_offset 0
	ret
	.cfi_endproc
.LFE1876:
	.size	_ZN5boost4core13demangle_freeEPKc, .-_ZN5boost4core13demangle_freeEPKc
	.section	.text._ZN5boost9typeindex14stl_type_indexC2ERKSt9type_info,"axG",@progbits,_ZN5boost9typeindex14stl_type_indexC5ERKSt9type_info,comdat
	.align	2
	.weak	_ZN5boost9typeindex14stl_type_indexC2ERKSt9type_info
	.type	_ZN5boost9typeindex14stl_type_indexC2ERKSt9type_info, %function
_ZN5boost9typeindex14stl_type_indexC2ERKSt9type_info:
.LFB1886:
	.cfi_startproc
	sub	sp, sp, #16
	.cfi_def_cfa_offset 16
	str	x0, [sp, 8]
	str	x1, [sp]
	ldr	x0, [sp, 8]
	ldr	x1, [sp]
	str	x1, [x0]
	nop
	add	sp, sp, 16
	.cfi_def_cfa_offset 0
	ret
	.cfi_endproc
.LFE1886:
	.size	_ZN5boost9typeindex14stl_type_indexC2ERKSt9type_info, .-_ZN5boost9typeindex14stl_type_indexC2ERKSt9type_info
	.weak	_ZN5boost9typeindex14stl_type_indexC1ERKSt9type_info
	.set	_ZN5boost9typeindex14stl_type_indexC1ERKSt9type_info,_ZN5boost9typeindex14stl_type_indexC2ERKSt9type_info
	.weak	_ZZNK5boost9typeindex14stl_type_index11pretty_nameB5cxx11EvE14cvr_saver_name
	.section	.rodata._ZZNK5boost9typeindex14stl_type_index11pretty_nameB5cxx11EvE14cvr_saver_name,"aG",@progbits,_ZZNK5boost9typeindex14stl_type_index11pretty_nameB5cxx11EvE14cvr_saver_name,comdat
	.align	3
	.type	_ZZNK5boost9typeindex14stl_type_index11pretty_nameB5cxx11EvE14cvr_saver_name, %gnu_unique_object
	.size	_ZZNK5boost9typeindex14stl_type_index11pretty_nameB5cxx11EvE14cvr_saver_name, 37
_ZZNK5boost9typeindex14stl_type_index11pretty_nameB5cxx11EvE14cvr_saver_name:
	.string	"boost::typeindex::detail::cvr_saver<"
	.section	.rodata
	.align	3
.LC0:
	.string	"Type name demangling failed"
	.section	.text._ZNK5boost9typeindex14stl_type_index11pretty_nameB5cxx11Ev,"axG",@progbits,_ZNK5boost9typeindex14stl_type_index11pretty_nameB5cxx11Ev,comdat
	.align	2
	.weak	_ZNK5boost9typeindex14stl_type_index11pretty_nameB5cxx11Ev
	.type	_ZNK5boost9typeindex14stl_type_index11pretty_nameB5cxx11Ev, %function
_ZNK5boost9typeindex14stl_type_index11pretty_nameB5cxx11Ev:
.LFB1891:
	.cfi_startproc
	.cfi_personality 0x9b,DW.ref.__gxx_personality_v0
	.cfi_lsda 0x1b,.LLSDA1891
	stp	x29, x30, [sp, -128]!
	.cfi_def_cfa_offset 128
	.cfi_offset 29, -128
	.cfi_offset 30, -120
	mov	x29, sp
	str	x19, [sp, 16]
	.cfi_offset 19, -112
	mov	x19, x8
	str	x0, [sp, 40]
	adrp	x0, :got:__stack_chk_guard
	ldr	x0, [x0, #:got_lo12:__stack_chk_guard]
	ldr	x1, [x0]
	str	x1, [sp, 120]
	mov	x1, 0
	ldr	x0, [sp, 40]
	ldr	x0, [x0]
	bl	_ZNKSt9type_info4nameEv
	mov	x1, x0
	add	x0, sp, 56
	bl	_ZN5boost4core21scoped_demangled_nameC1EPKc
	add	x0, sp, 56
	bl	_ZNK5boost4core21scoped_demangled_name3getEv
	str	x0, [sp, 64]
	ldr	x0, [sp, 64]
	cmp	x0, 0
	bne	.L46
	add	x2, sp, 104
	adrp	x0, .LC0
	add	x1, x0, :lo12:.LC0
	mov	x0, x2
.LEHB4:
	bl	_ZNSt13runtime_errorC1EPKc
.LEHE4:
	add	x0, sp, 104
.LEHB5:
	bl	_ZN5boost15throw_exceptionISt13runtime_errorEEvRKT_
.LEHE5:
.L46:
	ldr	x0, [sp, 64]
	bl	strlen
	str	x0, [sp, 96]
	ldr	x1, [sp, 64]
	ldr	x0, [sp, 96]
	add	x0, x1, x0
	str	x0, [sp, 72]
	ldr	x0, [sp, 96]
	cmp	x0, 36
	bls	.L47
	adrp	x0, _ZZNK5boost9typeindex14stl_type_index11pretty_nameB5cxx11EvE14cvr_saver_name
	add	x1, x0, :lo12:_ZZNK5boost9typeindex14stl_type_index11pretty_nameB5cxx11EvE14cvr_saver_name
	ldr	x0, [sp, 64]
	bl	strstr
	str	x0, [sp, 80]
	ldr	x0, [sp, 80]
	cmp	x0, 0
	beq	.L47
	ldr	x0, [sp, 80]
	add	x0, x0, 36
	str	x0, [sp, 80]
	b	.L48
.L49:
	ldr	x0, [sp, 80]
	add	x0, x0, 1
	str	x0, [sp, 80]
.L48:
	ldr	x0, [sp, 80]
	ldrb	w0, [x0]
	cmp	w0, 32
	beq	.L49
	ldr	x0, [sp, 72]
	sub	x0, x0, #1
	str	x0, [sp, 88]
	b	.L50
.L52:
	ldr	x0, [sp, 88]
	sub	x0, x0, #1
	str	x0, [sp, 88]
.L50:
	ldr	x1, [sp, 88]
	ldr	x0, [sp, 80]
	cmp	x1, x0
	bls	.L53
	ldr	x0, [sp, 88]
	ldrb	w0, [x0]
	cmp	w0, 62
	bne	.L52
	b	.L53
.L55:
	ldr	x0, [sp, 88]
	sub	x0, x0, #1
	str	x0, [sp, 88]
.L53:
	ldr	x1, [sp, 88]
	ldr	x0, [sp, 80]
	cmp	x1, x0
	bls	.L54
	ldr	x0, [sp, 88]
	sub	x0, x0, #1
	ldrb	w0, [x0]
	cmp	w0, 32
	beq	.L55
.L54:
	ldr	x1, [sp, 80]
	ldr	x0, [sp, 88]
	cmp	x1, x0
	bcs	.L47
	ldr	x0, [sp, 80]
	str	x0, [sp, 64]
	ldr	x0, [sp, 88]
	str	x0, [sp, 72]
.L47:
	add	x0, sp, 48
	bl	_ZNSaIcEC1Ev
	add	x0, sp, 48
	mov	x3, x0
	ldr	x2, [sp, 72]
	ldr	x1, [sp, 64]
	mov	x0, x19
.LEHB6:
	bl	_ZNSt7__cxx1112basic_stringIcSt11char_traitsIcESaIcEEC1IPKcvEET_S8_RKS3_
.LEHE6:
	add	x0, sp, 48
	bl	_ZNSaIcED1Ev
	add	x0, sp, 56
	bl	_ZN5boost4core21scoped_demangled_nameD1Ev
	nop
	adrp	x0, :got:__stack_chk_guard
	ldr	x0, [x0, #:got_lo12:__stack_chk_guard]
	ldr	x2, [sp, 120]
	ldr	x1, [x0]
	subs	x2, x2, x1
	mov	x1, 0
	beq	.L60
	b	.L64
.L62:
	mov	x19, x0
	add	x0, sp, 104
	bl	_ZNSt13runtime_errorD1Ev
	b	.L58
.L63:
	mov	x19, x0
	add	x0, sp, 48
	bl	_ZNSaIcED1Ev
	b	.L58
.L61:
	mov	x19, x0
.L58:
	add	x0, sp, 56
	bl	_ZN5boost4core21scoped_demangled_nameD1Ev
	mov	x0, x19
.LEHB7:
	bl	_Unwind_Resume
.LEHE7:
.L64:
	bl	__stack_chk_fail
.L60:
	mov	x0, x19
	ldr	x19, [sp, 16]
	ldp	x29, x30, [sp], 128
	.cfi_restore 30
	.cfi_restore 29
	.cfi_restore 19
	.cfi_def_cfa_offset 0
	ret
	.cfi_endproc
.LFE1891:
	.section	.gcc_except_table._ZNK5boost9typeindex14stl_type_index11pretty_nameB5cxx11Ev,"aG",@progbits,_ZNK5boost9typeindex14stl_type_index11pretty_nameB5cxx11Ev,comdat
.LLSDA1891:
	.byte	0xff
	.byte	0xff
	.byte	0x1
	.uleb128 .LLSDACSE1891-.LLSDACSB1891
.LLSDACSB1891:
	.uleb128 .LEHB4-.LFB1891
	.uleb128 .LEHE4-.LEHB4
	.uleb128 .L61-.LFB1891
	.uleb128 0
	.uleb128 .LEHB5-.LFB1891
	.uleb128 .LEHE5-.LEHB5
	.uleb128 .L62-.LFB1891
	.uleb128 0
	.uleb128 .LEHB6-.LFB1891
	.uleb128 .LEHE6-.LEHB6
	.uleb128 .L63-.LFB1891
	.uleb128 0
	.uleb128 .LEHB7-.LFB1891
	.uleb128 .LEHE7-.LEHB7
	.uleb128 0
	.uleb128 0
.LLSDACSE1891:
	.section	.text._ZNK5boost9typeindex14stl_type_index11pretty_nameB5cxx11Ev,"axG",@progbits,_ZNK5boost9typeindex14stl_type_index11pretty_nameB5cxx11Ev,comdat
	.size	_ZNK5boost9typeindex14stl_type_index11pretty_nameB5cxx11Ev, .-_ZNK5boost9typeindex14stl_type_index11pretty_nameB5cxx11Ev
	.section	.text._ZNKSt6chrono8durationIlSt5ratioILl1ELl1000000000EEE5countEv,"axG",@progbits,_ZNKSt6chrono8durationIlSt5ratioILl1ELl1000000000EEE5countEv,comdat
	.align	2
	.weak	_ZNKSt6chrono8durationIlSt5ratioILl1ELl1000000000EEE5countEv
	.type	_ZNKSt6chrono8durationIlSt5ratioILl1ELl1000000000EEE5countEv, %function
_ZNKSt6chrono8durationIlSt5ratioILl1ELl1000000000EEE5countEv:
.LFB2529:
	.cfi_startproc
	sub	sp, sp, #16
	.cfi_def_cfa_offset 16
	str	x0, [sp, 8]
	ldr	x0, [sp, 8]
	ldr	x0, [x0]
	add	sp, sp, 16
	.cfi_def_cfa_offset 0
	ret
	.cfi_endproc
.LFE2529:
	.size	_ZNKSt6chrono8durationIlSt5ratioILl1ELl1000000000EEE5countEv, .-_ZNKSt6chrono8durationIlSt5ratioILl1ELl1000000000EEE5countEv
	.section	.text._ZNSt6chrono8durationIlSt5ratioILl1ELl1000000000EEEC1IlvEERKT_,"axG",@progbits,_ZNSt6chrono8durationIlSt5ratioILl1ELl1000000000EEEC1IlvEERKT_,comdat
	.align	2
	.weak	_ZNSt6chrono8durationIlSt5ratioILl1ELl1000000000EEEC1IlvEERKT_
	.type	_ZNSt6chrono8durationIlSt5ratioILl1ELl1000000000EEEC1IlvEERKT_, %function
_ZNSt6chrono8durationIlSt5ratioILl1ELl1000000000EEEC1IlvEERKT_:
.LFB2534:
	.cfi_startproc
	sub	sp, sp, #16
	.cfi_def_cfa_offset 16
	str	x0, [sp, 8]
	str	x1, [sp]
	ldr	x0, [sp]
	ldr	x1, [x0]
	ldr	x0, [sp, 8]
	str	x1, [x0]
	nop
	add	sp, sp, 16
	.cfi_def_cfa_offset 0
	ret
	.cfi_endproc
.LFE2534:
	.size	_ZNSt6chrono8durationIlSt5ratioILl1ELl1000000000EEEC1IlvEERKT_, .-_ZNSt6chrono8durationIlSt5ratioILl1ELl1000000000EEEC1IlvEERKT_
	.section	.text._ZNSt6chrono15duration_valuesIlE4zeroEv,"axG",@progbits,_ZNSt6chrono15duration_valuesIlE4zeroEv,comdat
	.align	2
	.weak	_ZNSt6chrono15duration_valuesIlE4zeroEv
	.type	_ZNSt6chrono15duration_valuesIlE4zeroEv, %function
_ZNSt6chrono15duration_valuesIlE4zeroEv:
.LFB2536:
	.cfi_startproc
	mov	x0, 0
	ret
	.cfi_endproc
.LFE2536:
	.size	_ZNSt6chrono15duration_valuesIlE4zeroEv, .-_ZNSt6chrono15duration_valuesIlE4zeroEv
	.section	.text._ZNSt6chrono8durationIlSt5ratioILl1ELl1EEEC1IlvEERKT_,"axG",@progbits,_ZNSt6chrono8durationIlSt5ratioILl1ELl1EEEC1IlvEERKT_,comdat
	.align	2
	.weak	_ZNSt6chrono8durationIlSt5ratioILl1ELl1EEEC1IlvEERKT_
	.type	_ZNSt6chrono8durationIlSt5ratioILl1ELl1EEEC1IlvEERKT_, %function
_ZNSt6chrono8durationIlSt5ratioILl1ELl1EEEC1IlvEERKT_:
.LFB2555:
	.cfi_startproc
	sub	sp, sp, #16
	.cfi_def_cfa_offset 16
	str	x0, [sp, 8]
	str	x1, [sp]
	ldr	x0, [sp]
	ldr	x1, [x0]
	ldr	x0, [sp, 8]
	str	x1, [x0]
	nop
	add	sp, sp, 16
	.cfi_def_cfa_offset 0
	ret
	.cfi_endproc
.LFE2555:
	.size	_ZNSt6chrono8durationIlSt5ratioILl1ELl1EEEC1IlvEERKT_, .-_ZNSt6chrono8durationIlSt5ratioILl1ELl1EEEC1IlvEERKT_
	.section	.text._ZN9FieldInfoC2ERKNSt7__cxx1112basic_stringIcSt11char_traitsIcESaIcEEE9ValueTypei,"axG",@progbits,_ZN9FieldInfoC5ERKNSt7__cxx1112basic_stringIcSt11char_traitsIcESaIcEEE9ValueTypei,comdat
	.align	2
	.weak	_ZN9FieldInfoC2ERKNSt7__cxx1112basic_stringIcSt11char_traitsIcESaIcEEE9ValueTypei
	.type	_ZN9FieldInfoC2ERKNSt7__cxx1112basic_stringIcSt11char_traitsIcESaIcEEE9ValueTypei, %function
_ZN9FieldInfoC2ERKNSt7__cxx1112basic_stringIcSt11char_traitsIcESaIcEEE9ValueTypei:
.LFB2923:
	.cfi_startproc
	stp	x29, x30, [sp, -48]!
	.cfi_def_cfa_offset 48
	.cfi_offset 29, -48
	.cfi_offset 30, -40
	mov	x29, sp
	str	x0, [sp, 40]
	str	x1, [sp, 32]
	str	w2, [sp, 28]
	str	w3, [sp, 24]
	ldr	x0, [sp, 40]
	ldr	x1, [sp, 32]
	bl	_ZNSt7__cxx1112basic_stringIcSt11char_traitsIcESaIcEEC1ERKS4_
	ldr	x0, [sp, 40]
	ldr	w1, [sp, 28]
	str	w1, [x0, 32]
	ldr	x0, [sp, 40]
	ldr	w1, [sp, 24]
	str	w1, [x0, 36]
	nop
	ldp	x29, x30, [sp], 48
	.cfi_restore 30
	.cfi_restore 29
	.cfi_def_cfa_offset 0
	ret
	.cfi_endproc
.LFE2923:
	.size	_ZN9FieldInfoC2ERKNSt7__cxx1112basic_stringIcSt11char_traitsIcESaIcEEE9ValueTypei, .-_ZN9FieldInfoC2ERKNSt7__cxx1112basic_stringIcSt11char_traitsIcESaIcEEE9ValueTypei
	.weak	_ZN9FieldInfoC1ERKNSt7__cxx1112basic_stringIcSt11char_traitsIcESaIcEEE9ValueTypei
	.set	_ZN9FieldInfoC1ERKNSt7__cxx1112basic_stringIcSt11char_traitsIcESaIcEEE9ValueTypei,_ZN9FieldInfoC2ERKNSt7__cxx1112basic_stringIcSt11char_traitsIcESaIcEEE9ValueTypei
	.text
	.align	2
	.global	_Z25ConvertUtf8StringToStringRKNSt7__cxx1112basic_stringIcSt11char_traitsIcESaIcEEERS4_
	.type	_Z25ConvertUtf8StringToStringRKNSt7__cxx1112basic_stringIcSt11char_traitsIcESaIcEEERS4_, %function
_Z25ConvertUtf8StringToStringRKNSt7__cxx1112basic_stringIcSt11char_traitsIcESaIcEEERS4_:
.LFB2936:
	.cfi_startproc
	stp	x29, x30, [sp, -32]!
	.cfi_def_cfa_offset 32
	.cfi_offset 29, -32
	.cfi_offset 30, -24
	mov	x29, sp
	str	x0, [sp, 24]
	str	x1, [sp, 16]
	ldr	x1, [sp, 24]
	ldr	x0, [sp, 16]
	bl	_ZNSt7__cxx1112basic_stringIcSt11char_traitsIcESaIcEEaSERKS4_
	nop
	ldp	x29, x30, [sp], 32
	.cfi_restore 30
	.cfi_restore 29
	.cfi_def_cfa_offset 0
	ret
	.cfi_endproc
.LFE2936:
	.size	_Z25ConvertUtf8StringToStringRKNSt7__cxx1112basic_stringIcSt11char_traitsIcESaIcEEERS4_, .-_Z25ConvertUtf8StringToStringRKNSt7__cxx1112basic_stringIcSt11char_traitsIcESaIcEEERS4_
	.align	2
	.global	_Z25ConvertStringToUTF8StringRKNSt7__cxx1112basic_stringIcSt11char_traitsIcESaIcEEERS4_
	.type	_Z25ConvertStringToUTF8StringRKNSt7__cxx1112basic_stringIcSt11char_traitsIcESaIcEEERS4_, %function
_Z25ConvertStringToUTF8StringRKNSt7__cxx1112basic_stringIcSt11char_traitsIcESaIcEEERS4_:
.LFB2937:
	.cfi_startproc
	stp	x29, x30, [sp, -32]!
	.cfi_def_cfa_offset 32
	.cfi_offset 29, -32
	.cfi_offset 30, -24
	mov	x29, sp
	str	x0, [sp, 24]
	str	x1, [sp, 16]
	ldr	x1, [sp, 24]
	ldr	x0, [sp, 16]
	bl	_ZNSt7__cxx1112basic_stringIcSt11char_traitsIcESaIcEEaSERKS4_
	nop
	ldp	x29, x30, [sp], 32
	.cfi_restore 30
	.cfi_restore 29
	.cfi_def_cfa_offset 0
	ret
	.cfi_endproc
.LFE2937:
	.size	_Z25ConvertStringToUTF8StringRKNSt7__cxx1112basic_stringIcSt11char_traitsIcESaIcEEERS4_, .-_Z25ConvertStringToUTF8StringRKNSt7__cxx1112basic_stringIcSt11char_traitsIcESaIcEEERS4_
	.section	.rodata
	.align	3
.LC1:
	.string	"date type is not match"
	.section	.text._ZN15SetFieldValueFn19CheckColumnDataTypeEP12sqlite3_stmtii,"axG",@progbits,_ZN15SetFieldValueFn19CheckColumnDataTypeEP12sqlite3_stmtii,comdat
	.align	2
	.weak	_ZN15SetFieldValueFn19CheckColumnDataTypeEP12sqlite3_stmtii
	.type	_ZN15SetFieldValueFn19CheckColumnDataTypeEP12sqlite3_stmtii, %function
_ZN15SetFieldValueFn19CheckColumnDataTypeEP12sqlite3_stmtii:
.LFB2938:
	.cfi_startproc
	.cfi_personality 0x9b,DW.ref.__gxx_personality_v0
	.cfi_lsda 0x1b,.LLSDA2938
	stp	x29, x30, [sp, -80]!
	.cfi_def_cfa_offset 80
	.cfi_offset 29, -80
	.cfi_offset 30, -72
	mov	x29, sp
	stp	x19, x20, [sp, 16]
	.cfi_offset 19, -64
	.cfi_offset 20, -56
	str	x0, [sp, 56]
	str	x1, [sp, 48]
	str	w2, [sp, 44]
	str	w3, [sp, 40]
	ldr	w1, [sp, 44]
	ldr	x0, [sp, 48]
.LEHB8:
	bl	sqlite3_column_type
.LEHE8:
	str	w0, [sp, 76]
	ldr	w1, [sp, 76]
	ldr	w0, [sp, 40]
	cmp	w1, w0
	beq	.L78
	mov	x0, 16
	bl	__cxa_allocate_exception
	mov	x19, x0
	adrp	x0, .LC1
	add	x1, x0, :lo12:.LC1
	mov	x0, x19
.LEHB9:
	bl	_ZNSt13runtime_errorC1EPKc
.LEHE9:
	adrp	x0, :got:_ZNSt13runtime_errorD1Ev
	ldr	x2, [x0, #:got_lo12:_ZNSt13runtime_errorD1Ev]
	adrp	x0, :got:_ZTISt13runtime_error
	ldr	x1, [x0, #:got_lo12:_ZTISt13runtime_error]
	mov	x0, x19
.LEHB10:
	bl	__cxa_throw
.L77:
	mov	x20, x0
	mov	x0, x19
	bl	__cxa_free_exception
	mov	x0, x20
	bl	_Unwind_Resume
.LEHE10:
.L78:
	nop
	ldp	x19, x20, [sp, 16]
	ldp	x29, x30, [sp], 80
	.cfi_restore 30
	.cfi_restore 29
	.cfi_restore 19
	.cfi_restore 20
	.cfi_def_cfa_offset 0
	ret
	.cfi_endproc
.LFE2938:
	.section	.gcc_except_table._ZN15SetFieldValueFn19CheckColumnDataTypeEP12sqlite3_stmtii,"aG",@progbits,_ZN15SetFieldValueFn19CheckColumnDataTypeEP12sqlite3_stmtii,comdat
.LLSDA2938:
	.byte	0xff
	.byte	0xff
	.byte	0x1
	.uleb128 .LLSDACSE2938-.LLSDACSB2938
.LLSDACSB2938:
	.uleb128 .LEHB8-.LFB2938
	.uleb128 .LEHE8-.LEHB8
	.uleb128 0
	.uleb128 0
	.uleb128 .LEHB9-.LFB2938
	.uleb128 .LEHE9-.LEHB9
	.uleb128 .L77-.LFB2938
	.uleb128 0
	.uleb128 .LEHB10-.LFB2938
	.uleb128 .LEHE10-.LEHB10
	.uleb128 0
	.uleb128 0
.LLSDACSE2938:
	.section	.text._ZN15SetFieldValueFn19CheckColumnDataTypeEP12sqlite3_stmtii,"axG",@progbits,_ZN15SetFieldValueFn19CheckColumnDataTypeEP12sqlite3_stmtii,comdat
	.size	_ZN15SetFieldValueFn19CheckColumnDataTypeEP12sqlite3_stmtii, .-_ZN15SetFieldValueFn19CheckColumnDataTypeEP12sqlite3_stmtii
	.section	.text._ZN9ConditionD2Ev,"axG",@progbits,_ZN9ConditionD5Ev,comdat
	.align	2
	.weak	_ZN9ConditionD2Ev
	.type	_ZN9ConditionD2Ev, %function
_ZN9ConditionD2Ev:
.LFB2956:
	.cfi_startproc
	stp	x29, x30, [sp, -32]!
	.cfi_def_cfa_offset 32
	.cfi_offset 29, -32
	.cfi_offset 30, -24
	mov	x29, sp
	str	x0, [sp, 24]
	ldr	x0, [sp, 24]
	bl	_ZNSt7__cxx1112basic_stringIcSt11char_traitsIcESaIcEED1Ev
	nop
	ldp	x29, x30, [sp], 32
	.cfi_restore 30
	.cfi_restore 29
	.cfi_def_cfa_offset 0
	ret
	.cfi_endproc
.LFE2956:
	.size	_ZN9ConditionD2Ev, .-_ZN9ConditionD2Ev
	.weak	_ZN9ConditionD1Ev
	.set	_ZN9ConditionD1Ev,_ZN9ConditionD2Ev
	.section	.rodata
	.align	3
.LC2:
	.string	" > "
	.align	3
.LC3:
	.string	" < "
	.align	3
.LC4:
	.string	" = "
	.align	3
.LC5:
	.string	" like "
	.align	3
.LC6:
	.string	" NOT IN "
	.align	3
.LC7:
	.string	" IN "
	.align	3
.LC8:
	.string	" "
	.section	.text._ZN9Condition15GetStrByConTypeB5cxx11E12CondtionType,"axG",@progbits,_ZN9Condition15GetStrByConTypeB5cxx11E12CondtionType,comdat
	.align	2
	.weak	_ZN9Condition15GetStrByConTypeB5cxx11E12CondtionType
	.type	_ZN9Condition15GetStrByConTypeB5cxx11E12CondtionType, %function
_ZN9Condition15GetStrByConTypeB5cxx11E12CondtionType:
.LFB2962:
	.cfi_startproc
	.cfi_personality 0x9b,DW.ref.__gxx_personality_v0
	.cfi_lsda 0x1b,.LLSDA2962
	stp	x29, x30, [sp, -64]!
	.cfi_def_cfa_offset 64
	.cfi_offset 29, -64
	.cfi_offset 30, -56
	mov	x29, sp
	str	x19, [sp, 16]
	.cfi_offset 19, -48
	mov	x19, x8
	str	x0, [sp, 40]
	str	w1, [sp, 36]
	adrp	x0, :got:__stack_chk_guard
	ldr	x0, [x0, #:got_lo12:__stack_chk_guard]
	ldr	x1, [x0]
	str	x1, [sp, 56]
	mov	x1, 0
	ldr	w0, [sp, 36]
	cmp	w0, 5
	beq	.L81
	ldr	w0, [sp, 36]
	cmp	w0, 5
	bgt	.L82
	ldr	w0, [sp, 36]
	cmp	w0, 4
	beq	.L83
	ldr	w0, [sp, 36]
	cmp	w0, 4
	bgt	.L82
	ldr	w0, [sp, 36]
	cmp	w0, 3
	beq	.L84
	ldr	w0, [sp, 36]
	cmp	w0, 3
	bgt	.L82
	ldr	w0, [sp, 36]
	cmp	w0, 2
	beq	.L85
	ldr	w0, [sp, 36]
	cmp	w0, 2
	bgt	.L82
	ldr	w0, [sp, 36]
	cmp	w0, 0
	beq	.L86
	ldr	w0, [sp, 36]
	cmp	w0, 1
	beq	.L87
	b	.L82
.L86:
	add	x0, sp, 48
	bl	_ZNSaIcEC1Ev
	add	x0, sp, 48
	mov	x2, x0
	adrp	x0, .LC2
	add	x1, x0, :lo12:.LC2
	mov	x0, x19
.LEHB11:
	bl	_ZNSt7__cxx1112basic_stringIcSt11char_traitsIcESaIcEEC1IS3_EEPKcRKS3_
.LEHE11:
	add	x0, sp, 48
	bl	_ZNSaIcED1Ev
	b	.L80
.L87:
	add	x0, sp, 48
	bl	_ZNSaIcEC1Ev
	add	x0, sp, 48
	mov	x2, x0
	adrp	x0, .LC3
	add	x1, x0, :lo12:.LC3
	mov	x0, x19
.LEHB12:
	bl	_ZNSt7__cxx1112basic_stringIcSt11char_traitsIcESaIcEEC1IS3_EEPKcRKS3_
.LEHE12:
	add	x0, sp, 48
	bl	_ZNSaIcED1Ev
	b	.L80
.L85:
	add	x0, sp, 48
	bl	_ZNSaIcEC1Ev
	add	x0, sp, 48
	mov	x2, x0
	adrp	x0, .LC4
	add	x1, x0, :lo12:.LC4
	mov	x0, x19
.LEHB13:
	bl	_ZNSt7__cxx1112basic_stringIcSt11char_traitsIcESaIcEEC1IS3_EEPKcRKS3_
.LEHE13:
	add	x0, sp, 48
	bl	_ZNSaIcED1Ev
	b	.L80
.L84:
	add	x0, sp, 48
	bl	_ZNSaIcEC1Ev
	add	x0, sp, 48
	mov	x2, x0
	adrp	x0, .LC5
	add	x1, x0, :lo12:.LC5
	mov	x0, x19
.LEHB14:
	bl	_ZNSt7__cxx1112basic_stringIcSt11char_traitsIcESaIcEEC1IS3_EEPKcRKS3_
.LEHE14:
	add	x0, sp, 48
	bl	_ZNSaIcED1Ev
	b	.L80
.L83:
	add	x0, sp, 48
	bl	_ZNSaIcEC1Ev
	add	x0, sp, 48
	mov	x2, x0
	adrp	x0, .LC6
	add	x1, x0, :lo12:.LC6
	mov	x0, x19
.LEHB15:
	bl	_ZNSt7__cxx1112basic_stringIcSt11char_traitsIcESaIcEEC1IS3_EEPKcRKS3_
.LEHE15:
	add	x0, sp, 48
	bl	_ZNSaIcED1Ev
	b	.L80
.L81:
	add	x0, sp, 48
	bl	_ZNSaIcEC1Ev
	add	x0, sp, 48
	mov	x2, x0
	adrp	x0, .LC7
	add	x1, x0, :lo12:.LC7
	mov	x0, x19
.LEHB16:
	bl	_ZNSt7__cxx1112basic_stringIcSt11char_traitsIcESaIcEEC1IS3_EEPKcRKS3_
.LEHE16:
	add	x0, sp, 48
	bl	_ZNSaIcED1Ev
	b	.L80
.L82:
	add	x0, sp, 48
	bl	_ZNSaIcEC1Ev
	add	x0, sp, 48
	mov	x2, x0
	adrp	x0, .LC8
	add	x1, x0, :lo12:.LC8
	mov	x0, x19
.LEHB17:
	bl	_ZNSt7__cxx1112basic_stringIcSt11char_traitsIcESaIcEEC1IS3_EEPKcRKS3_
.LEHE17:
	add	x0, sp, 48
	bl	_ZNSaIcED1Ev
	b	.L80
.L97:
	mov	x19, x0
	add	x0, sp, 48
	bl	_ZNSaIcED1Ev
	mov	x0, x19
.LEHB18:
	bl	_Unwind_Resume
.L98:
	mov	x19, x0
	add	x0, sp, 48
	bl	_ZNSaIcED1Ev
	mov	x0, x19
	bl	_Unwind_Resume
.L99:
	mov	x19, x0
	add	x0, sp, 48
	bl	_ZNSaIcED1Ev
	mov	x0, x19
	bl	_Unwind_Resume
.L100:
	mov	x19, x0
	add	x0, sp, 48
	bl	_ZNSaIcED1Ev
	mov	x0, x19
	bl	_Unwind_Resume
.L101:
	mov	x19, x0
	add	x0, sp, 48
	bl	_ZNSaIcED1Ev
	mov	x0, x19
	bl	_Unwind_Resume
.L102:
	mov	x19, x0
	add	x0, sp, 48
	bl	_ZNSaIcED1Ev
	mov	x0, x19
	bl	_Unwind_Resume
.L103:
	mov	x19, x0
	add	x0, sp, 48
	bl	_ZNSaIcED1Ev
	mov	x0, x19
	bl	_Unwind_Resume
.LEHE18:
.L80:
	adrp	x0, :got:__stack_chk_guard
	ldr	x0, [x0, #:got_lo12:__stack_chk_guard]
	ldr	x2, [sp, 56]
	ldr	x1, [x0]
	subs	x2, x2, x1
	mov	x1, 0
	beq	.L96
	bl	__stack_chk_fail
.L96:
	mov	x0, x19
	ldr	x19, [sp, 16]
	ldp	x29, x30, [sp], 64
	.cfi_restore 30
	.cfi_restore 29
	.cfi_restore 19
	.cfi_def_cfa_offset 0
	ret
	.cfi_endproc
.LFE2962:
	.section	.gcc_except_table._ZN9Condition15GetStrByConTypeB5cxx11E12CondtionType,"aG",@progbits,_ZN9Condition15GetStrByConTypeB5cxx11E12CondtionType,comdat
.LLSDA2962:
	.byte	0xff
	.byte	0xff
	.byte	0x1
	.uleb128 .LLSDACSE2962-.LLSDACSB2962
.LLSDACSB2962:
	.uleb128 .LEHB11-.LFB2962
	.uleb128 .LEHE11-.LEHB11
	.uleb128 .L97-.LFB2962
	.uleb128 0
	.uleb128 .LEHB12-.LFB2962
	.uleb128 .LEHE12-.LEHB12
	.uleb128 .L98-.LFB2962
	.uleb128 0
	.uleb128 .LEHB13-.LFB2962
	.uleb128 .LEHE13-.LEHB13
	.uleb128 .L99-.LFB2962
	.uleb128 0
	.uleb128 .LEHB14-.LFB2962
	.uleb128 .LEHE14-.LEHB14
	.uleb128 .L100-.LFB2962
	.uleb128 0
	.uleb128 .LEHB15-.LFB2962
	.uleb128 .LEHE15-.LEHB15
	.uleb128 .L101-.LFB2962
	.uleb128 0
	.uleb128 .LEHB16-.LFB2962
	.uleb128 .LEHE16-.LEHB16
	.uleb128 .L102-.LFB2962
	.uleb128 0
	.uleb128 .LEHB17-.LFB2962
	.uleb128 .LEHE17-.LEHB17
	.uleb128 .L103-.LFB2962
	.uleb128 0
	.uleb128 .LEHB18-.LFB2962
	.uleb128 .LEHE18-.LEHB18
	.uleb128 0
	.uleb128 0
.LLSDACSE2962:
	.section	.text._ZN9Condition15GetStrByConTypeB5cxx11E12CondtionType,"axG",@progbits,_ZN9Condition15GetStrByConTypeB5cxx11E12CondtionType,comdat
	.size	_ZN9Condition15GetStrByConTypeB5cxx11E12CondtionType, .-_ZN9Condition15GetStrByConTypeB5cxx11E12CondtionType
	.section	.text._ZSt3minImERKT_S2_S2_,"axG",@progbits,_ZSt3minImERKT_S2_S2_,comdat
	.align	2
	.weak	_ZSt3minImERKT_S2_S2_
	.type	_ZSt3minImERKT_S2_S2_, %function
_ZSt3minImERKT_S2_S2_:
.LFB3371:
	.cfi_startproc
	sub	sp, sp, #16
	.cfi_def_cfa_offset 16
	str	x0, [sp, 8]
	str	x1, [sp]
	ldr	x0, [sp]
	ldr	x1, [x0]
	ldr	x0, [sp, 8]
	ldr	x0, [x0]
	cmp	x1, x0
	bcs	.L105
	ldr	x0, [sp]
	b	.L106
.L105:
	ldr	x0, [sp, 8]
.L106:
	add	sp, sp, 16
	.cfi_def_cfa_offset 0
	ret
	.cfi_endproc
.LFE3371:
	.size	_ZSt3minImERKT_S2_S2_, .-_ZSt3minImERKT_S2_S2_
	.section	.rodata
	.align	3
	.type	_ZN6__pstl9execution2v1L3seqE, %object
	.size	_ZN6__pstl9execution2v1L3seqE, 1
_ZN6__pstl9execution2v1L3seqE:
	.zero	1
	.align	3
	.type	_ZN6__pstl9execution2v1L3parE, %object
	.size	_ZN6__pstl9execution2v1L3parE, 1
_ZN6__pstl9execution2v1L3parE:
	.zero	1
	.align	3
	.type	_ZN6__pstl9execution2v1L9par_unseqE, %object
	.size	_ZN6__pstl9execution2v1L9par_unseqE, 1
_ZN6__pstl9execution2v1L9par_unseqE:
	.zero	1
	.align	3
	.type	_ZN6__pstl9execution2v1L5unseqE, %object
	.size	_ZN6__pstl9execution2v1L5unseqE, 1
_ZN6__pstl9execution2v1L5unseqE:
	.zero	1
	.section	.text._ZN8SqliteDBC2Ev,"axG",@progbits,_ZN8SqliteDBC5Ev,comdat
	.align	2
	.weak	_ZN8SqliteDBC2Ev
	.type	_ZN8SqliteDBC2Ev, %function
_ZN8SqliteDBC2Ev:
.LFB3854:
	.cfi_startproc
	sub	sp, sp, #16
	.cfi_def_cfa_offset 16
	str	x0, [sp, 8]
	ldr	x0, [sp, 8]
	str	xzr, [x0]
	ldr	x0, [sp, 8]
	str	xzr, [x0, 8]
	nop
	add	sp, sp, 16
	.cfi_def_cfa_offset 0
	ret
	.cfi_endproc
.LFE3854:
	.size	_ZN8SqliteDBC2Ev, .-_ZN8SqliteDBC2Ev
	.weak	_ZN8SqliteDBC1Ev
	.set	_ZN8SqliteDBC1Ev,_ZN8SqliteDBC2Ev
	.section	.text._ZN8SqliteDBD2Ev,"axG",@progbits,_ZN8SqliteDBD5Ev,comdat
	.align	2
	.weak	_ZN8SqliteDBD2Ev
	.type	_ZN8SqliteDBD2Ev, %function
_ZN8SqliteDBD2Ev:
.LFB3857:
	.cfi_startproc
	.cfi_personality 0x9b,DW.ref.__gxx_personality_v0
	.cfi_lsda 0x1b,.LLSDA3857
	stp	x29, x30, [sp, -32]!
	.cfi_def_cfa_offset 32
	.cfi_offset 29, -32
	.cfi_offset 30, -24
	mov	x29, sp
	str	x0, [sp, 24]
	ldr	x0, [sp, 24]
	bl	_ZN8SqliteDB5closeEv
	nop
	ldp	x29, x30, [sp], 32
	.cfi_restore 30
	.cfi_restore 29
	.cfi_def_cfa_offset 0
	ret
	.cfi_endproc
.LFE3857:
	.section	.gcc_except_table._ZN8SqliteDBD2Ev,"aG",@progbits,_ZN8SqliteDBD5Ev,comdat
.LLSDA3857:
	.byte	0xff
	.byte	0xff
	.byte	0x1
	.uleb128 .LLSDACSE3857-.LLSDACSB3857
.LLSDACSB3857:
.LLSDACSE3857:
	.section	.text._ZN8SqliteDBD2Ev,"axG",@progbits,_ZN8SqliteDBD5Ev,comdat
	.size	_ZN8SqliteDBD2Ev, .-_ZN8SqliteDBD2Ev
	.weak	_ZN8SqliteDBD1Ev
	.set	_ZN8SqliteDBD1Ev,_ZN8SqliteDBD2Ev
	.section	.rodata
	.align	3
.LC9:
	.string	"SQL error: Can't open database '"
	.align	3
.LC10:
	.string	"'"
	.section	.text._ZN8SqliteDB4OpenERKNSt7__cxx1112basic_stringIcSt11char_traitsIcESaIcEEE,"axG",@progbits,_ZN8SqliteDB4OpenERKNSt7__cxx1112basic_stringIcSt11char_traitsIcESaIcEEE,comdat
	.align	2
	.weak	_ZN8SqliteDB4OpenERKNSt7__cxx1112basic_stringIcSt11char_traitsIcESaIcEEE
	.type	_ZN8SqliteDB4OpenERKNSt7__cxx1112basic_stringIcSt11char_traitsIcESaIcEEE, %function
_ZN8SqliteDB4OpenERKNSt7__cxx1112basic_stringIcSt11char_traitsIcESaIcEEE:
.LFB3859:
	.cfi_startproc
	.cfi_personality 0x9b,DW.ref.__gxx_personality_v0
	.cfi_lsda 0x1b,.LLSDA3859
	stp	x29, x30, [sp, -192]!
	.cfi_def_cfa_offset 192
	.cfi_offset 29, -192
	.cfi_offset 30, -184
	mov	x29, sp
	stp	x19, x20, [sp, 16]
	.cfi_offset 19, -176
	.cfi_offset 20, -168
	str	x0, [sp, 40]
	str	x1, [sp, 32]
	adrp	x0, :got:__stack_chk_guard
	ldr	x0, [x0, #:got_lo12:__stack_chk_guard]
	ldr	x1, [x0]
	str	x1, [sp, 184]
	mov	x1, 0
	add	x0, sp, 56
	bl	_ZNSt7__cxx1112basic_stringIcSt11char_traitsIcESaIcEEC1Ev
	add	x0, sp, 56
	mov	x1, x0
	ldr	x0, [sp, 32]
.LEHB19:
	bl	_Z25ConvertStringToUTF8StringRKNSt7__cxx1112basic_stringIcSt11char_traitsIcESaIcEEERS4_
	add	x0, sp, 56
	bl	_ZNKSt7__cxx1112basic_stringIcSt11char_traitsIcESaIcEE5c_strEv
	mov	x2, x0
	ldr	x0, [sp, 40]
	mov	x1, x0
	mov	x0, x2
	bl	sqlite3_open
	cmp	w0, 0
	cset	w0, ne
	and	w0, w0, 255
	cmp	w0, 0
	beq	.L110
	ldr	x0, [sp, 40]
	bl	_ZN8SqliteDB5closeEv
.LEHE19:
	mov	x0, 16
	bl	__cxa_allocate_exception
	mov	x19, x0
	add	x0, sp, 48
	bl	_ZNSaIcEC1Ev
	add	x0, sp, 48
	add	x3, sp, 88
	mov	x2, x0
	adrp	x0, .LC9
	add	x1, x0, :lo12:.LC9
	mov	x0, x3
.LEHB20:
	bl	_ZNSt7__cxx1112basic_stringIcSt11char_traitsIcESaIcEEC1IS3_EEPKcRKS3_
.LEHE20:
	ldr	x0, [sp, 40]
	ldr	x0, [x0]
.LEHB21:
	bl	sqlite3_errmsg
	mov	x2, x0
	add	x0, sp, 88
	add	x1, sp, 120
	mov	x8, x1
	mov	x1, x2
	bl	_ZStplIcSt11char_traitsIcESaIcEENSt7__cxx1112basic_stringIT_T0_T1_EEOS8_PKS5_
.LEHE21:
	add	x2, sp, 120
	add	x0, sp, 152
	mov	x8, x0
	adrp	x0, .LC10
	add	x1, x0, :lo12:.LC10
	mov	x0, x2
.LEHB22:
	bl	_ZStplIcSt11char_traitsIcESaIcEENSt7__cxx1112basic_stringIT_T0_T1_EEOS8_PKS5_
.LEHE22:
	add	x0, sp, 152
	mov	x1, x0
	mov	x0, x19
.LEHB23:
	bl	_ZNSt13runtime_errorC1ERKNSt7__cxx1112basic_stringIcSt11char_traitsIcESaIcEEE
.LEHE23:
	add	x0, sp, 152
	bl	_ZNSt7__cxx1112basic_stringIcSt11char_traitsIcESaIcEED1Ev
	add	x0, sp, 120
	bl	_ZNSt7__cxx1112basic_stringIcSt11char_traitsIcESaIcEED1Ev
	add	x0, sp, 88
	bl	_ZNSt7__cxx1112basic_stringIcSt11char_traitsIcESaIcEED1Ev
	add	x0, sp, 48
	bl	_ZNSaIcED1Ev
	adrp	x0, :got:_ZNSt13runtime_errorD1Ev
	ldr	x2, [x0, #:got_lo12:_ZNSt13runtime_errorD1Ev]
	adrp	x0, :got:_ZTISt13runtime_error
	ldr	x1, [x0, #:got_lo12:_ZTISt13runtime_error]
	mov	x0, x19
.LEHB24:
	bl	__cxa_throw
.LEHE24:
.L110:
	ldr	x0, [sp, 40]
	str	xzr, [x0, 8]
	add	x0, sp, 56
	bl	_ZNSt7__cxx1112basic_stringIcSt11char_traitsIcESaIcEED1Ev
	adrp	x0, :got:__stack_chk_guard
	ldr	x0, [x0, #:got_lo12:__stack_chk_guard]
	ldr	x2, [sp, 184]
	ldr	x1, [x0]
	subs	x2, x2, x1
	mov	x1, 0
	beq	.L116
	b	.L122
.L121:
	mov	x20, x0
	add	x0, sp, 152
	bl	_ZNSt7__cxx1112basic_stringIcSt11char_traitsIcESaIcEED1Ev
	b	.L112
.L120:
	mov	x20, x0
.L112:
	add	x0, sp, 120
	bl	_ZNSt7__cxx1112basic_stringIcSt11char_traitsIcESaIcEED1Ev
	b	.L113
.L119:
	mov	x20, x0
.L113:
	add	x0, sp, 88
	bl	_ZNSt7__cxx1112basic_stringIcSt11char_traitsIcESaIcEED1Ev
	b	.L114
.L118:
	mov	x20, x0
.L114:
	add	x0, sp, 48
	bl	_ZNSaIcED1Ev
	mov	x0, x19
	bl	__cxa_free_exception
	mov	x19, x20
	b	.L115
.L117:
	mov	x19, x0
.L115:
	add	x0, sp, 56
	bl	_ZNSt7__cxx1112basic_stringIcSt11char_traitsIcESaIcEED1Ev
	mov	x0, x19
.LEHB25:
	bl	_Unwind_Resume
.LEHE25:
.L122:
	bl	__stack_chk_fail
.L116:
	ldp	x19, x20, [sp, 16]
	ldp	x29, x30, [sp], 192
	.cfi_restore 30
	.cfi_restore 29
	.cfi_restore 19
	.cfi_restore 20
	.cfi_def_cfa_offset 0
	ret
	.cfi_endproc
.LFE3859:
	.section	.gcc_except_table._ZN8SqliteDB4OpenERKNSt7__cxx1112basic_stringIcSt11char_traitsIcESaIcEEE,"aG",@progbits,_ZN8SqliteDB4OpenERKNSt7__cxx1112basic_stringIcSt11char_traitsIcESaIcEEE,comdat
.LLSDA3859:
	.byte	0xff
	.byte	0xff
	.byte	0x1
	.uleb128 .LLSDACSE3859-.LLSDACSB3859
.LLSDACSB3859:
	.uleb128 .LEHB19-.LFB3859
	.uleb128 .LEHE19-.LEHB19
	.uleb128 .L117-.LFB3859
	.uleb128 0
	.uleb128 .LEHB20-.LFB3859
	.uleb128 .LEHE20-.LEHB20
	.uleb128 .L118-.LFB3859
	.uleb128 0
	.uleb128 .LEHB21-.LFB3859
	.uleb128 .LEHE21-.LEHB21
	.uleb128 .L119-.LFB3859
	.uleb128 0
	.uleb128 .LEHB22-.LFB3859
	.uleb128 .LEHE22-.LEHB22
	.uleb128 .L120-.LFB3859
	.uleb128 0
	.uleb128 .LEHB23-.LFB3859
	.uleb128 .LEHE23-.LEHB23
	.uleb128 .L121-.LFB3859
	.uleb128 0
	.uleb128 .LEHB24-.LFB3859
	.uleb128 .LEHE24-.LEHB24
	.uleb128 .L117-.LFB3859
	.uleb128 0
	.uleb128 .LEHB25-.LFB3859
	.uleb128 .LEHE25-.LEHB25
	.uleb128 0
	.uleb128 0
.LLSDACSE3859:
	.section	.text._ZN8SqliteDB4OpenERKNSt7__cxx1112basic_stringIcSt11char_traitsIcESaIcEEE,"axG",@progbits,_ZN8SqliteDB4OpenERKNSt7__cxx1112basic_stringIcSt11char_traitsIcESaIcEEE,comdat
	.size	_ZN8SqliteDB4OpenERKNSt7__cxx1112basic_stringIcSt11char_traitsIcESaIcEEE, .-_ZN8SqliteDB4OpenERKNSt7__cxx1112basic_stringIcSt11char_traitsIcESaIcEEE
	.section	.rodata
	.align	3
.LC11:
	.string	"begin transaction;"
	.section	.text._ZN8SqliteDB10BeginTransEv,"axG",@progbits,_ZN8SqliteDB10BeginTransEv,comdat
	.align	2
	.weak	_ZN8SqliteDB10BeginTransEv
	.type	_ZN8SqliteDB10BeginTransEv, %function
_ZN8SqliteDB10BeginTransEv:
.LFB3861:
	.cfi_startproc
	.cfi_personality 0x9b,DW.ref.__gxx_personality_v0
	.cfi_lsda 0x1b,.LLSDA3861
	stp	x29, x30, [sp, -96]!
	.cfi_def_cfa_offset 96
	.cfi_offset 29, -96
	.cfi_offset 30, -88
	mov	x29, sp
	str	x19, [sp, 16]
	.cfi_offset 19, -80
	str	x0, [sp, 40]
	adrp	x0, :got:__stack_chk_guard
	ldr	x0, [x0, #:got_lo12:__stack_chk_guard]
	ldr	x1, [x0]
	str	x1, [sp, 88]
	mov	x1, 0
	add	x0, sp, 48
	bl	_ZNSaIcEC1Ev
	add	x0, sp, 48
	add	x3, sp, 56
	mov	x2, x0
	adrp	x0, .LC11
	add	x1, x0, :lo12:.LC11
	mov	x0, x3
.LEHB26:
	bl	_ZNSt7__cxx1112basic_stringIcSt11char_traitsIcESaIcEEC1IS3_EEPKcRKS3_
.LEHE26:
	add	x0, sp, 56
	mov	x1, x0
	ldr	x0, [sp, 40]
.LEHB27:
	bl	_ZN8SqliteDB7ExecuteERKNSt7__cxx1112basic_stringIcSt11char_traitsIcESaIcEEE
.LEHE27:
	add	x0, sp, 56
	bl	_ZNSt7__cxx1112basic_stringIcSt11char_traitsIcESaIcEED1Ev
	add	x0, sp, 48
	bl	_ZNSaIcED1Ev
	nop
	adrp	x0, :got:__stack_chk_guard
	ldr	x0, [x0, #:got_lo12:__stack_chk_guard]
	ldr	x2, [sp, 88]
	ldr	x1, [x0]
	subs	x2, x2, x1
	mov	x1, 0
	beq	.L126
	b	.L129
.L128:
	mov	x19, x0
	add	x0, sp, 56
	bl	_ZNSt7__cxx1112basic_stringIcSt11char_traitsIcESaIcEED1Ev
	b	.L125
.L127:
	mov	x19, x0
.L125:
	add	x0, sp, 48
	bl	_ZNSaIcED1Ev
	mov	x0, x19
.LEHB28:
	bl	_Unwind_Resume
.LEHE28:
.L129:
	bl	__stack_chk_fail
.L126:
	ldr	x19, [sp, 16]
	ldp	x29, x30, [sp], 96
	.cfi_restore 30
	.cfi_restore 29
	.cfi_restore 19
	.cfi_def_cfa_offset 0
	ret
	.cfi_endproc
.LFE3861:
	.section	.gcc_except_table._ZN8SqliteDB10BeginTransEv,"aG",@progbits,_ZN8SqliteDB10BeginTransEv,comdat
.LLSDA3861:
	.byte	0xff
	.byte	0xff
	.byte	0x1
	.uleb128 .LLSDACSE3861-.LLSDACSB3861
.LLSDACSB3861:
	.uleb128 .LEHB26-.LFB3861
	.uleb128 .LEHE26-.LEHB26
	.uleb128 .L127-.LFB3861
	.uleb128 0
	.uleb128 .LEHB27-.LFB3861
	.uleb128 .LEHE27-.LEHB27
	.uleb128 .L128-.LFB3861
	.uleb128 0
	.uleb128 .LEHB28-.LFB3861
	.uleb128 .LEHE28-.LEHB28
	.uleb128 0
	.uleb128 0
.LLSDACSE3861:
	.section	.text._ZN8SqliteDB10BeginTransEv,"axG",@progbits,_ZN8SqliteDB10BeginTransEv,comdat
	.size	_ZN8SqliteDB10BeginTransEv, .-_ZN8SqliteDB10BeginTransEv
	.section	.rodata
	.align	3
.LC12:
	.string	"commit transaction;"
	.section	.text._ZN8SqliteDB6CommitEv,"axG",@progbits,_ZN8SqliteDB6CommitEv,comdat
	.align	2
	.weak	_ZN8SqliteDB6CommitEv
	.type	_ZN8SqliteDB6CommitEv, %function
_ZN8SqliteDB6CommitEv:
.LFB3862:
	.cfi_startproc
	.cfi_personality 0x9b,DW.ref.__gxx_personality_v0
	.cfi_lsda 0x1b,.LLSDA3862
	stp	x29, x30, [sp, -96]!
	.cfi_def_cfa_offset 96
	.cfi_offset 29, -96
	.cfi_offset 30, -88
	mov	x29, sp
	str	x19, [sp, 16]
	.cfi_offset 19, -80
	str	x0, [sp, 40]
	adrp	x0, :got:__stack_chk_guard
	ldr	x0, [x0, #:got_lo12:__stack_chk_guard]
	ldr	x1, [x0]
	str	x1, [sp, 88]
	mov	x1, 0
	add	x0, sp, 48
	bl	_ZNSaIcEC1Ev
	add	x0, sp, 48
	add	x3, sp, 56
	mov	x2, x0
	adrp	x0, .LC12
	add	x1, x0, :lo12:.LC12
	mov	x0, x3
.LEHB29:
	bl	_ZNSt7__cxx1112basic_stringIcSt11char_traitsIcESaIcEEC1IS3_EEPKcRKS3_
.LEHE29:
	add	x0, sp, 56
	mov	x1, x0
	ldr	x0, [sp, 40]
.LEHB30:
	bl	_ZN8SqliteDB7ExecuteERKNSt7__cxx1112basic_stringIcSt11char_traitsIcESaIcEEE
.LEHE30:
	add	x0, sp, 56
	bl	_ZNSt7__cxx1112basic_stringIcSt11char_traitsIcESaIcEED1Ev
	add	x0, sp, 48
	bl	_ZNSaIcED1Ev
	nop
	adrp	x0, :got:__stack_chk_guard
	ldr	x0, [x0, #:got_lo12:__stack_chk_guard]
	ldr	x2, [sp, 88]
	ldr	x1, [x0]
	subs	x2, x2, x1
	mov	x1, 0
	beq	.L133
	b	.L136
.L135:
	mov	x19, x0
	add	x0, sp, 56
	bl	_ZNSt7__cxx1112basic_stringIcSt11char_traitsIcESaIcEED1Ev
	b	.L132
.L134:
	mov	x19, x0
.L132:
	add	x0, sp, 48
	bl	_ZNSaIcED1Ev
	mov	x0, x19
.LEHB31:
	bl	_Unwind_Resume
.LEHE31:
.L136:
	bl	__stack_chk_fail
.L133:
	ldr	x19, [sp, 16]
	ldp	x29, x30, [sp], 96
	.cfi_restore 30
	.cfi_restore 29
	.cfi_restore 19
	.cfi_def_cfa_offset 0
	ret
	.cfi_endproc
.LFE3862:
	.section	.gcc_except_table._ZN8SqliteDB6CommitEv,"aG",@progbits,_ZN8SqliteDB6CommitEv,comdat
.LLSDA3862:
	.byte	0xff
	.byte	0xff
	.byte	0x1
	.uleb128 .LLSDACSE3862-.LLSDACSB3862
.LLSDACSB3862:
	.uleb128 .LEHB29-.LFB3862
	.uleb128 .LEHE29-.LEHB29
	.uleb128 .L134-.LFB3862
	.uleb128 0
	.uleb128 .LEHB30-.LFB3862
	.uleb128 .LEHE30-.LEHB30
	.uleb128 .L135-.LFB3862
	.uleb128 0
	.uleb128 .LEHB31-.LFB3862
	.uleb128 .LEHE31-.LEHB31
	.uleb128 0
	.uleb128 0
.LLSDACSE3862:
	.section	.text._ZN8SqliteDB6CommitEv,"axG",@progbits,_ZN8SqliteDB6CommitEv,comdat
	.size	_ZN8SqliteDB6CommitEv, .-_ZN8SqliteDB6CommitEv
	.section	.rodata
	.align	3
.LC13:
	.string	"SQL error: Prepare failed! '"
	.section	.text._ZN8SqliteDB7PrepareERKNSt7__cxx1112basic_stringIcSt11char_traitsIcESaIcEEE,"axG",@progbits,_ZN8SqliteDB7PrepareERKNSt7__cxx1112basic_stringIcSt11char_traitsIcESaIcEEE,comdat
	.align	2
	.weak	_ZN8SqliteDB7PrepareERKNSt7__cxx1112basic_stringIcSt11char_traitsIcESaIcEEE
	.type	_ZN8SqliteDB7PrepareERKNSt7__cxx1112basic_stringIcSt11char_traitsIcESaIcEEE, %function
_ZN8SqliteDB7PrepareERKNSt7__cxx1112basic_stringIcSt11char_traitsIcESaIcEEE:
.LFB3869:
	.cfi_startproc
	.cfi_personality 0x9b,DW.ref.__gxx_personality_v0
	.cfi_lsda 0x1b,.LLSDA3869
	stp	x29, x30, [sp, -160]!
	.cfi_def_cfa_offset 160
	.cfi_offset 29, -160
	.cfi_offset 30, -152
	mov	x29, sp
	stp	x19, x20, [sp, 16]
	.cfi_offset 19, -144
	.cfi_offset 20, -136
	str	x0, [sp, 40]
	str	x1, [sp, 32]
	adrp	x0, :got:__stack_chk_guard
	ldr	x0, [x0, #:got_lo12:__stack_chk_guard]
	ldr	x1, [x0]
	str	x1, [sp, 152]
	mov	x1, 0
	ldr	x0, [sp, 40]
	ldr	x19, [x0]
	ldr	x0, [sp, 32]
	bl	_ZNKSt7__cxx1112basic_stringIcSt11char_traitsIcESaIcEE4dataEv
	mov	x1, x0
	ldr	x0, [sp, 40]
	add	x0, x0, 8
	mov	x4, 0
	mov	x3, x0
	mov	w2, -1
	mov	x0, x19
.LEHB32:
	bl	sqlite3_prepare_v2
.LEHE32:
	mov	w1, w0
	ldr	x0, [sp, 40]
	str	w1, [x0, 16]
	ldr	x0, [sp, 40]
	ldr	w0, [x0, 16]
	cmp	w0, 0
	beq	.L148
	mov	x0, 16
	bl	__cxa_allocate_exception
	mov	x19, x0
	add	x0, sp, 48
	bl	_ZNSaIcEC1Ev
	add	x0, sp, 48
	add	x3, sp, 56
	mov	x2, x0
	adrp	x0, .LC13
	add	x1, x0, :lo12:.LC13
	mov	x0, x3
.LEHB33:
	bl	_ZNSt7__cxx1112basic_stringIcSt11char_traitsIcESaIcEEC1IS3_EEPKcRKS3_
.LEHE33:
	ldr	x0, [sp, 40]
	ldr	x0, [x0]
.LEHB34:
	bl	sqlite3_errmsg
	mov	x2, x0
	add	x0, sp, 56
	add	x1, sp, 88
	mov	x8, x1
	mov	x1, x2
	bl	_ZStplIcSt11char_traitsIcESaIcEENSt7__cxx1112basic_stringIT_T0_T1_EEOS8_PKS5_
.LEHE34:
	add	x2, sp, 88
	add	x0, sp, 120
	mov	x8, x0
	adrp	x0, .LC10
	add	x1, x0, :lo12:.LC10
	mov	x0, x2
.LEHB35:
	bl	_ZStplIcSt11char_traitsIcESaIcEENSt7__cxx1112basic_stringIT_T0_T1_EEOS8_PKS5_
.LEHE35:
	add	x0, sp, 120
	mov	x1, x0
	mov	x0, x19
.LEHB36:
	bl	_ZNSt13runtime_errorC1ERKNSt7__cxx1112basic_stringIcSt11char_traitsIcESaIcEEE
.LEHE36:
	add	x0, sp, 120
	bl	_ZNSt7__cxx1112basic_stringIcSt11char_traitsIcESaIcEED1Ev
	add	x0, sp, 88
	bl	_ZNSt7__cxx1112basic_stringIcSt11char_traitsIcESaIcEED1Ev
	add	x0, sp, 56
	bl	_ZNSt7__cxx1112basic_stringIcSt11char_traitsIcESaIcEED1Ev
	add	x0, sp, 48
	bl	_ZNSaIcED1Ev
	adrp	x0, :got:_ZNSt13runtime_errorD1Ev
	ldr	x2, [x0, #:got_lo12:_ZNSt13runtime_errorD1Ev]
	adrp	x0, :got:_ZTISt13runtime_error
	ldr	x1, [x0, #:got_lo12:_ZTISt13runtime_error]
	mov	x0, x19
.LEHB37:
	bl	__cxa_throw
.L147:
	mov	x20, x0
	add	x0, sp, 120
	bl	_ZNSt7__cxx1112basic_stringIcSt11char_traitsIcESaIcEED1Ev
	b	.L140
.L146:
	mov	x20, x0
.L140:
	add	x0, sp, 88
	bl	_ZNSt7__cxx1112basic_stringIcSt11char_traitsIcESaIcEED1Ev
	b	.L141
.L145:
	mov	x20, x0
.L141:
	add	x0, sp, 56
	bl	_ZNSt7__cxx1112basic_stringIcSt11char_traitsIcESaIcEED1Ev
	b	.L142
.L144:
	mov	x20, x0
.L142:
	add	x0, sp, 48
	bl	_ZNSaIcED1Ev
	mov	x0, x19
	bl	__cxa_free_exception
	mov	x0, x20
	bl	_Unwind_Resume
.LEHE37:
.L148:
	nop
	adrp	x0, :got:__stack_chk_guard
	ldr	x0, [x0, #:got_lo12:__stack_chk_guard]
	ldr	x2, [sp, 152]
	ldr	x1, [x0]
	subs	x2, x2, x1
	mov	x1, 0
	beq	.L143
	bl	__stack_chk_fail
.L143:
	ldp	x19, x20, [sp, 16]
	ldp	x29, x30, [sp], 160
	.cfi_restore 30
	.cfi_restore 29
	.cfi_restore 19
	.cfi_restore 20
	.cfi_def_cfa_offset 0
	ret
	.cfi_endproc
.LFE3869:
	.section	.gcc_except_table._ZN8SqliteDB7PrepareERKNSt7__cxx1112basic_stringIcSt11char_traitsIcESaIcEEE,"aG",@progbits,_ZN8SqliteDB7PrepareERKNSt7__cxx1112basic_stringIcSt11char_traitsIcESaIcEEE,comdat
.LLSDA3869:
	.byte	0xff
	.byte	0xff
	.byte	0x1
	.uleb128 .LLSDACSE3869-.LLSDACSB3869
.LLSDACSB3869:
	.uleb128 .LEHB32-.LFB3869
	.uleb128 .LEHE32-.LEHB32
	.uleb128 0
	.uleb128 0
	.uleb128 .LEHB33-.LFB3869
	.uleb128 .LEHE33-.LEHB33
	.uleb128 .L144-.LFB3869
	.uleb128 0
	.uleb128 .LEHB34-.LFB3869
	.uleb128 .LEHE34-.LEHB34
	.uleb128 .L145-.LFB3869
	.uleb128 0
	.uleb128 .LEHB35-.LFB3869
	.uleb128 .LEHE35-.LEHB35
	.uleb128 .L146-.LFB3869
	.uleb128 0
	.uleb128 .LEHB36-.LFB3869
	.uleb128 .LEHE36-.LEHB36
	.uleb128 .L147-.LFB3869
	.uleb128 0
	.uleb128 .LEHB37-.LFB3869
	.uleb128 .LEHE37-.LEHB37
	.uleb128 0
	.uleb128 0
.LLSDACSE3869:
	.section	.text._ZN8SqliteDB7PrepareERKNSt7__cxx1112basic_stringIcSt11char_traitsIcESaIcEEE,"axG",@progbits,_ZN8SqliteDB7PrepareERKNSt7__cxx1112basic_stringIcSt11char_traitsIcESaIcEEE,comdat
	.size	_ZN8SqliteDB7PrepareERKNSt7__cxx1112basic_stringIcSt11char_traitsIcESaIcEEE, .-_ZN8SqliteDB7PrepareERKNSt7__cxx1112basic_stringIcSt11char_traitsIcESaIcEEE
	.section	.rodata
	.align	3
.LC14:
	.string	"SQL error: execute PrepareSQL failed! '"
	.section	.text._ZN8SqliteDB18ExecuteParparseSQLEv,"axG",@progbits,_ZN8SqliteDB18ExecuteParparseSQLEv,comdat
	.align	2
	.weak	_ZN8SqliteDB18ExecuteParparseSQLEv
	.type	_ZN8SqliteDB18ExecuteParparseSQLEv, %function
_ZN8SqliteDB18ExecuteParparseSQLEv:
.LFB3870:
	.cfi_startproc
	.cfi_personality 0x9b,DW.ref.__gxx_personality_v0
	.cfi_lsda 0x1b,.LLSDA3870
	stp	x29, x30, [sp, -160]!
	.cfi_def_cfa_offset 160
	.cfi_offset 29, -160
	.cfi_offset 30, -152
	mov	x29, sp
	stp	x19, x20, [sp, 16]
	.cfi_offset 19, -144
	.cfi_offset 20, -136
	str	x0, [sp, 40]
	adrp	x0, :got:__stack_chk_guard
	ldr	x0, [x0, #:got_lo12:__stack_chk_guard]
	ldr	x1, [x0]
	str	x1, [sp, 152]
	mov	x1, 0
	ldr	x0, [sp, 40]
	ldr	x0, [x0, 8]
.LEHB38:
	bl	sqlite3_step
	mov	w1, w0
	ldr	x0, [sp, 40]
	str	w1, [x0, 16]
	ldr	x0, [sp, 40]
	ldr	x0, [x0, 8]
	bl	sqlite3_reset
.LEHE38:
	ldr	x0, [sp, 40]
	ldr	w0, [x0, 16]
	cmp	w0, 101
	beq	.L160
	mov	x0, 16
	bl	__cxa_allocate_exception
	mov	x19, x0
	add	x0, sp, 48
	bl	_ZNSaIcEC1Ev
	add	x0, sp, 48
	add	x3, sp, 56
	mov	x2, x0
	adrp	x0, .LC14
	add	x1, x0, :lo12:.LC14
	mov	x0, x3
.LEHB39:
	bl	_ZNSt7__cxx1112basic_stringIcSt11char_traitsIcESaIcEEC1IS3_EEPKcRKS3_
.LEHE39:
	ldr	x0, [sp, 40]
	ldr	x0, [x0]
.LEHB40:
	bl	sqlite3_errmsg
	mov	x2, x0
	add	x0, sp, 56
	add	x1, sp, 88
	mov	x8, x1
	mov	x1, x2
	bl	_ZStplIcSt11char_traitsIcESaIcEENSt7__cxx1112basic_stringIT_T0_T1_EEOS8_PKS5_
.LEHE40:
	add	x2, sp, 88
	add	x0, sp, 120
	mov	x8, x0
	adrp	x0, .LC10
	add	x1, x0, :lo12:.LC10
	mov	x0, x2
.LEHB41:
	bl	_ZStplIcSt11char_traitsIcESaIcEENSt7__cxx1112basic_stringIT_T0_T1_EEOS8_PKS5_
.LEHE41:
	add	x0, sp, 120
	mov	x1, x0
	mov	x0, x19
.LEHB42:
	bl	_ZNSt13runtime_errorC1ERKNSt7__cxx1112basic_stringIcSt11char_traitsIcESaIcEEE
.LEHE42:
	add	x0, sp, 120
	bl	_ZNSt7__cxx1112basic_stringIcSt11char_traitsIcESaIcEED1Ev
	add	x0, sp, 88
	bl	_ZNSt7__cxx1112basic_stringIcSt11char_traitsIcESaIcEED1Ev
	add	x0, sp, 56
	bl	_ZNSt7__cxx1112basic_stringIcSt11char_traitsIcESaIcEED1Ev
	add	x0, sp, 48
	bl	_ZNSaIcED1Ev
	adrp	x0, :got:_ZNSt13runtime_errorD1Ev
	ldr	x2, [x0, #:got_lo12:_ZNSt13runtime_errorD1Ev]
	adrp	x0, :got:_ZTISt13runtime_error
	ldr	x1, [x0, #:got_lo12:_ZTISt13runtime_error]
	mov	x0, x19
.LEHB43:
	bl	__cxa_throw
.L159:
	mov	x20, x0
	add	x0, sp, 120
	bl	_ZNSt7__cxx1112basic_stringIcSt11char_traitsIcESaIcEED1Ev
	b	.L152
.L158:
	mov	x20, x0
.L152:
	add	x0, sp, 88
	bl	_ZNSt7__cxx1112basic_stringIcSt11char_traitsIcESaIcEED1Ev
	b	.L153
.L157:
	mov	x20, x0
.L153:
	add	x0, sp, 56
	bl	_ZNSt7__cxx1112basic_stringIcSt11char_traitsIcESaIcEED1Ev
	b	.L154
.L156:
	mov	x20, x0
.L154:
	add	x0, sp, 48
	bl	_ZNSaIcED1Ev
	mov	x0, x19
	bl	__cxa_free_exception
	mov	x0, x20
	bl	_Unwind_Resume
.LEHE43:
.L160:
	nop
	adrp	x0, :got:__stack_chk_guard
	ldr	x0, [x0, #:got_lo12:__stack_chk_guard]
	ldr	x2, [sp, 152]
	ldr	x1, [x0]
	subs	x2, x2, x1
	mov	x1, 0
	beq	.L155
	bl	__stack_chk_fail
.L155:
	ldp	x19, x20, [sp, 16]
	ldp	x29, x30, [sp], 160
	.cfi_restore 30
	.cfi_restore 29
	.cfi_restore 19
	.cfi_restore 20
	.cfi_def_cfa_offset 0
	ret
	.cfi_endproc
.LFE3870:
	.section	.gcc_except_table._ZN8SqliteDB18ExecuteParparseSQLEv,"aG",@progbits,_ZN8SqliteDB18ExecuteParparseSQLEv,comdat
.LLSDA3870:
	.byte	0xff
	.byte	0xff
	.byte	0x1
	.uleb128 .LLSDACSE3870-.LLSDACSB3870
.LLSDACSB3870:
	.uleb128 .LEHB38-.LFB3870
	.uleb128 .LEHE38-.LEHB38
	.uleb128 0
	.uleb128 0
	.uleb128 .LEHB39-.LFB3870
	.uleb128 .LEHE39-.LEHB39
	.uleb128 .L156-.LFB3870
	.uleb128 0
	.uleb128 .LEHB40-.LFB3870
	.uleb128 .LEHE40-.LEHB40
	.uleb128 .L157-.LFB3870
	.uleb128 0
	.uleb128 .LEHB41-.LFB3870
	.uleb128 .LEHE41-.LEHB41
	.uleb128 .L158-.LFB3870
	.uleb128 0
	.uleb128 .LEHB42-.LFB3870
	.uleb128 .LEHE42-.LEHB42
	.uleb128 .L159-.LFB3870
	.uleb128 0
	.uleb128 .LEHB43-.LFB3870
	.uleb128 .LEHE43-.LEHB43
	.uleb128 0
	.uleb128 0
.LLSDACSE3870:
	.section	.text._ZN8SqliteDB18ExecuteParparseSQLEv,"axG",@progbits,_ZN8SqliteDB18ExecuteParparseSQLEv,comdat
	.size	_ZN8SqliteDB18ExecuteParparseSQLEv, .-_ZN8SqliteDB18ExecuteParparseSQLEv
	.section	.rodata
	.align	3
.LC15:
	.string	"SQL error: '"
	.align	3
.LC16:
	.string	"' at '"
	.section	.text._ZN8SqliteDB7ExecuteERKNSt7__cxx1112basic_stringIcSt11char_traitsIcESaIcEEE,"axG",@progbits,_ZN8SqliteDB7ExecuteERKNSt7__cxx1112basic_stringIcSt11char_traitsIcESaIcEEE,comdat
	.align	2
	.weak	_ZN8SqliteDB7ExecuteERKNSt7__cxx1112basic_stringIcSt11char_traitsIcESaIcEEE
	.type	_ZN8SqliteDB7ExecuteERKNSt7__cxx1112basic_stringIcSt11char_traitsIcESaIcEEE, %function
_ZN8SqliteDB7ExecuteERKNSt7__cxx1112basic_stringIcSt11char_traitsIcESaIcEEE:
.LFB3871:
	.cfi_startproc
	.cfi_personality 0x9b,DW.ref.__gxx_personality_v0
	.cfi_lsda 0x1b,.LLSDA3871
	stp	x29, x30, [sp, -256]!
	.cfi_def_cfa_offset 256
	.cfi_offset 29, -256
	.cfi_offset 30, -248
	mov	x29, sp
	stp	x19, x20, [sp, 16]
	.cfi_offset 19, -240
	.cfi_offset 20, -232
	str	x0, [sp, 40]
	str	x1, [sp, 32]
	adrp	x0, :got:__stack_chk_guard
	ldr	x0, [x0, #:got_lo12:__stack_chk_guard]
	ldr	x1, [x0]
	str	x1, [sp, 248]
	mov	x1, 0
	str	xzr, [sp, 64]
	str	wzr, [sp, 60]
	str	xzr, [sp, 80]
	b	.L162
.L165:
	ldr	x0, [sp, 40]
	ldr	x19, [x0]
	ldr	x0, [sp, 32]
	bl	_ZNKSt7__cxx1112basic_stringIcSt11char_traitsIcESaIcEE5c_strEv
	mov	x1, x0
	add	x0, sp, 64
	mov	x4, x0
	mov	x3, 0
	mov	x2, 0
	mov	x0, x19
.LEHB44:
	bl	sqlite3_exec
	str	w0, [sp, 60]
	ldr	w0, [sp, 60]
	cmp	w0, 5
	bne	.L182
	mov	w0, 20
	str	w0, [sp, 56]
	add	x1, sp, 56
	add	x0, sp, 72
	bl	_ZNSt6chrono8durationIlSt5ratioILl1ELl1000000EEEC1IivEERKT_
	add	x0, sp, 72
	bl	_ZNSt11this_thread9sleep_forIlSt5ratioILl1ELl1000000EEEEvRKNSt6chrono8durationIT_T0_EE
.LEHE44:
	ldr	x0, [sp, 80]
	add	x0, x0, 1
	str	x0, [sp, 80]
.L162:
	ldr	x0, [sp, 80]
	cmp	x0, 15
	bls	.L165
	b	.L164
.L182:
	nop
.L164:
	ldr	w0, [sp, 60]
	cmp	w0, 0
	beq	.L183
	add	x0, sp, 72
	bl	_ZNSaIcEC1Ev
	add	x0, sp, 72
	add	x3, sp, 120
	mov	x2, x0
	adrp	x0, .LC15
	add	x1, x0, :lo12:.LC15
	mov	x0, x3
.LEHB45:
	bl	_ZNSt7__cxx1112basic_stringIcSt11char_traitsIcESaIcEEC1IS3_EEPKcRKS3_
.LEHE45:
	ldr	x1, [sp, 64]
	add	x0, sp, 120
	add	x2, sp, 152
	mov	x8, x2
.LEHB46:
	bl	_ZStplIcSt11char_traitsIcESaIcEENSt7__cxx1112basic_stringIT_T0_T1_EEOS8_PKS5_
.LEHE46:
	add	x2, sp, 152
	add	x0, sp, 184
	mov	x8, x0
	adrp	x0, .LC16
	add	x1, x0, :lo12:.LC16
	mov	x0, x2
.LEHB47:
	bl	_ZStplIcSt11char_traitsIcESaIcEENSt7__cxx1112basic_stringIT_T0_T1_EEOS8_PKS5_
.LEHE47:
	add	x0, sp, 184
	add	x1, sp, 216
	mov	x8, x1
	ldr	x1, [sp, 32]
.LEHB48:
	bl	_ZStplIcSt11char_traitsIcESaIcEENSt7__cxx1112basic_stringIT_T0_T1_EEOS8_RKS8_
.LEHE48:
	add	x2, sp, 216
	add	x0, sp, 88
	mov	x8, x0
	adrp	x0, .LC10
	add	x1, x0, :lo12:.LC10
	mov	x0, x2
.LEHB49:
	bl	_ZStplIcSt11char_traitsIcESaIcEENSt7__cxx1112basic_stringIT_T0_T1_EEOS8_PKS5_
.LEHE49:
	add	x0, sp, 216
	bl	_ZNSt7__cxx1112basic_stringIcSt11char_traitsIcESaIcEED1Ev
	add	x0, sp, 184
	bl	_ZNSt7__cxx1112basic_stringIcSt11char_traitsIcESaIcEED1Ev
	add	x0, sp, 152
	bl	_ZNSt7__cxx1112basic_stringIcSt11char_traitsIcESaIcEED1Ev
	add	x0, sp, 120
	bl	_ZNSt7__cxx1112basic_stringIcSt11char_traitsIcESaIcEED1Ev
	add	x0, sp, 72
	bl	_ZNSaIcED1Ev
	ldr	x0, [sp, 64]
.LEHB50:
	bl	sqlite3_free
.LEHE50:
	mov	x0, 16
	bl	__cxa_allocate_exception
	mov	x19, x0
	add	x0, sp, 88
	mov	x1, x0
	mov	x0, x19
.LEHB51:
	bl	_ZNSt13runtime_errorC1ERKNSt7__cxx1112basic_stringIcSt11char_traitsIcESaIcEEE
.LEHE51:
	adrp	x0, :got:_ZNSt13runtime_errorD1Ev
	ldr	x2, [x0, #:got_lo12:_ZNSt13runtime_errorD1Ev]
	adrp	x0, :got:_ZTISt13runtime_error
	ldr	x1, [x0, #:got_lo12:_ZTISt13runtime_error]
	mov	x0, x19
.LEHB52:
	bl	__cxa_throw
.LEHE52:
.L179:
	mov	x19, x0
	add	x0, sp, 216
	bl	_ZNSt7__cxx1112basic_stringIcSt11char_traitsIcESaIcEED1Ev
	b	.L168
.L178:
	mov	x19, x0
.L168:
	add	x0, sp, 184
	bl	_ZNSt7__cxx1112basic_stringIcSt11char_traitsIcESaIcEED1Ev
	b	.L169
.L177:
	mov	x19, x0
.L169:
	add	x0, sp, 152
	bl	_ZNSt7__cxx1112basic_stringIcSt11char_traitsIcESaIcEED1Ev
	b	.L170
.L176:
	mov	x19, x0
.L170:
	add	x0, sp, 120
	bl	_ZNSt7__cxx1112basic_stringIcSt11char_traitsIcESaIcEED1Ev
	b	.L171
.L175:
	mov	x19, x0
.L171:
	add	x0, sp, 72
	bl	_ZNSaIcED1Ev
	mov	x0, x19
.LEHB53:
	bl	_Unwind_Resume
.L181:
	mov	x20, x0
	mov	x0, x19
	bl	__cxa_free_exception
	mov	x19, x20
	b	.L173
.L180:
	mov	x19, x0
.L173:
	add	x0, sp, 88
	bl	_ZNSt7__cxx1112basic_stringIcSt11char_traitsIcESaIcEED1Ev
	mov	x0, x19
	bl	_Unwind_Resume
.LEHE53:
.L183:
	nop
	adrp	x0, :got:__stack_chk_guard
	ldr	x0, [x0, #:got_lo12:__stack_chk_guard]
	ldr	x2, [sp, 248]
	ldr	x1, [x0]
	subs	x2, x2, x1
	mov	x1, 0
	beq	.L174
	bl	__stack_chk_fail
.L174:
	ldp	x19, x20, [sp, 16]
	ldp	x29, x30, [sp], 256
	.cfi_restore 30
	.cfi_restore 29
	.cfi_restore 19
	.cfi_restore 20
	.cfi_def_cfa_offset 0
	ret
	.cfi_endproc
.LFE3871:
	.section	.gcc_except_table._ZN8SqliteDB7ExecuteERKNSt7__cxx1112basic_stringIcSt11char_traitsIcESaIcEEE,"aG",@progbits,_ZN8SqliteDB7ExecuteERKNSt7__cxx1112basic_stringIcSt11char_traitsIcESaIcEEE,comdat
.LLSDA3871:
	.byte	0xff
	.byte	0xff
	.byte	0x1
	.uleb128 .LLSDACSE3871-.LLSDACSB3871
.LLSDACSB3871:
	.uleb128 .LEHB44-.LFB3871
	.uleb128 .LEHE44-.LEHB44
	.uleb128 0
	.uleb128 0
	.uleb128 .LEHB45-.LFB3871
	.uleb128 .LEHE45-.LEHB45
	.uleb128 .L175-.LFB3871
	.uleb128 0
	.uleb128 .LEHB46-.LFB3871
	.uleb128 .LEHE46-.LEHB46
	.uleb128 .L176-.LFB3871
	.uleb128 0
	.uleb128 .LEHB47-.LFB3871
	.uleb128 .LEHE47-.LEHB47
	.uleb128 .L177-.LFB3871
	.uleb128 0
	.uleb128 .LEHB48-.LFB3871
	.uleb128 .LEHE48-.LEHB48
	.uleb128 .L178-.LFB3871
	.uleb128 0
	.uleb128 .LEHB49-.LFB3871
	.uleb128 .LEHE49-.LEHB49
	.uleb128 .L179-.LFB3871
	.uleb128 0
	.uleb128 .LEHB50-.LFB3871
	.uleb128 .LEHE50-.LEHB50
	.uleb128 .L180-.LFB3871
	.uleb128 0
	.uleb128 .LEHB51-.LFB3871
	.uleb128 .LEHE51-.LEHB51
	.uleb128 .L181-.LFB3871
	.uleb128 0
	.uleb128 .LEHB52-.LFB3871
	.uleb128 .LEHE52-.LEHB52
	.uleb128 .L180-.LFB3871
	.uleb128 0
	.uleb128 .LEHB53-.LFB3871
	.uleb128 .LEHE53-.LEHB53
	.uleb128 0
	.uleb128 0
.LLSDACSE3871:
	.section	.text._ZN8SqliteDB7ExecuteERKNSt7__cxx1112basic_stringIcSt11char_traitsIcESaIcEEE,"axG",@progbits,_ZN8SqliteDB7ExecuteERKNSt7__cxx1112basic_stringIcSt11char_traitsIcESaIcEEE,comdat
	.size	_ZN8SqliteDB7ExecuteERKNSt7__cxx1112basic_stringIcSt11char_traitsIcESaIcEEE, .-_ZN8SqliteDB7ExecuteERKNSt7__cxx1112basic_stringIcSt11char_traitsIcESaIcEEE
	.section	.text._ZN8SqliteDB13CloseDBHandleEv,"axG",@progbits,_ZN8SqliteDB13CloseDBHandleEv,comdat
	.align	2
	.weak	_ZN8SqliteDB13CloseDBHandleEv
	.type	_ZN8SqliteDB13CloseDBHandleEv, %function
_ZN8SqliteDB13CloseDBHandleEv:
.LFB3884:
	.cfi_startproc
	stp	x29, x30, [sp, -48]!
	.cfi_def_cfa_offset 48
	.cfi_offset 29, -48
	.cfi_offset 30, -40
	mov	x29, sp
	str	x0, [sp, 24]
	ldr	x0, [sp, 24]
	ldr	x0, [x0]
	bl	sqlite3_close
	str	w0, [sp, 36]
	b	.L185
.L188:
	str	wzr, [sp, 36]
	ldr	x0, [sp, 24]
	ldr	x0, [x0]
	mov	x1, 0
	bl	sqlite3_next_stmt
	str	x0, [sp, 40]
	ldr	x0, [sp, 40]
	cmp	x0, 0
	beq	.L190
	ldr	x0, [sp, 40]
	bl	sqlite3_finalize
	str	w0, [sp, 36]
	ldr	w0, [sp, 36]
	cmp	w0, 0
	bne	.L185
	ldr	x0, [sp, 24]
	ldr	x0, [x0]
	bl	sqlite3_close
	str	w0, [sp, 36]
.L185:
	ldr	w0, [sp, 36]
	cmp	w0, 5
	beq	.L188
	b	.L187
.L190:
	nop
.L187:
	ldr	w0, [sp, 36]
	ldp	x29, x30, [sp], 48
	.cfi_restore 30
	.cfi_restore 29
	.cfi_def_cfa_offset 0
	ret
	.cfi_endproc
.LFE3884:
	.size	_ZN8SqliteDB13CloseDBHandleEv, .-_ZN8SqliteDB13CloseDBHandleEv
	.section	.text._ZN8SqliteDB5closeEv,"axG",@progbits,_ZN8SqliteDB5closeEv,comdat
	.align	2
	.weak	_ZN8SqliteDB5closeEv
	.type	_ZN8SqliteDB5closeEv, %function
_ZN8SqliteDB5closeEv:
.LFB3885:
	.cfi_startproc
	stp	x29, x30, [sp, -48]!
	.cfi_def_cfa_offset 48
	.cfi_offset 29, -48
	.cfi_offset 30, -40
	mov	x29, sp
	str	x0, [sp, 24]
	ldr	x0, [sp, 24]
	ldr	x0, [x0]
	cmp	x0, 0
	bne	.L192
	mov	w0, 1
	b	.L193
.L192:
	ldr	x0, [sp, 24]
	ldr	x0, [x0, 8]
	cmp	x0, 0
	beq	.L194
	ldr	x0, [sp, 24]
	ldr	x0, [x0, 8]
	bl	sqlite3_finalize
.L194:
	ldr	x0, [sp, 24]
	bl	_ZN8SqliteDB13CloseDBHandleEv
	mov	w1, w0
	ldr	x0, [sp, 24]
	str	w1, [x0, 16]
	ldr	x0, [sp, 24]
	ldr	w0, [x0, 16]
	cmp	w0, 0
	cset	w0, eq
	strb	w0, [sp, 47]
	ldr	x0, [sp, 24]
	str	xzr, [x0, 8]
	ldr	x0, [sp, 24]
	str	xzr, [x0]
	ldrb	w0, [sp, 47]
.L193:
	ldp	x29, x30, [sp], 48
	.cfi_restore 30
	.cfi_restore 29
	.cfi_def_cfa_offset 0
	ret
	.cfi_endproc
.LFE3885:
	.size	_ZN8SqliteDB5closeEv, .-_ZN8SqliteDB5closeEv
	.section	.rodata
	.align	3
.LC17:
	.string	"m_id"
	.align	3
.LC18:
	.string	"m_iAge"
	.align	3
.LC19:
	.string	"m_dHeight"
	.align	3
.LC20:
	.string	"m_strName"
	.section	.text._Z12StructSchemaI12SimpleStructEDav,"axG",@progbits,_Z12StructSchemaI12SimpleStructEDav,comdat
	.align	2
	.weak	_Z12StructSchemaI12SimpleStructEDav
	.type	_Z12StructSchemaI12SimpleStructEDav, %function
_Z12StructSchemaI12SimpleStructEDav:
.LFB3886:
	.cfi_startproc
	stp	x29, x30, [sp, -208]!
	.cfi_def_cfa_offset 208
	.cfi_offset 29, -208
	.cfi_offset 30, -200
	mov	x29, sp
	str	x19, [sp, 16]
	.cfi_offset 19, -192
	mov	x19, x8
	adrp	x0, :got:__stack_chk_guard
	ldr	x0, [x0, #:got_lo12:__stack_chk_guard]
	ldr	x1, [x0]
	str	x1, [sp, 200]
	mov	x1, 0
	str	xzr, [sp, 40]
	str	xzr, [sp, 48]
	add	x0, sp, 48
	add	x3, sp, 40
	add	x1, sp, 104
	mov	x8, x1
	mov	x2, x0
	adrp	x0, .LC17
	add	x1, x0, :lo12:.LC17
	mov	x0, x3
	bl	_ZSt10make_tupleIJmRA5_KcM12SimpleStructiEESt5tupleIJDpNSt25__strip_reference_wrapperINSt5decayIT_E4typeEE6__typeEEEDpOS8_
	mov	x0, 4
	str	x0, [sp, 56]
	mov	x0, 4
	str	x0, [sp, 64]
	add	x0, sp, 64
	add	x3, sp, 56
	add	x1, sp, 128
	mov	x8, x1
	mov	x2, x0
	adrp	x0, .LC18
	add	x1, x0, :lo12:.LC18
	mov	x0, x3
	bl	_ZSt10make_tupleIJmRA7_KcM12SimpleStructiEESt5tupleIJDpNSt25__strip_reference_wrapperINSt5decayIT_E4typeEE6__typeEEEDpOS8_
	mov	x0, 8
	str	x0, [sp, 72]
	mov	x0, 8
	str	x0, [sp, 80]
	add	x0, sp, 80
	add	x3, sp, 72
	add	x1, sp, 152
	mov	x8, x1
	mov	x2, x0
	adrp	x0, .LC19
	add	x1, x0, :lo12:.LC19
	mov	x0, x3
	bl	_ZSt10make_tupleIJmRA10_KcM12SimpleStructdEESt5tupleIJDpNSt25__strip_reference_wrapperINSt5decayIT_E4typeEE6__typeEEEDpOS8_
	mov	x0, 16
	str	x0, [sp, 88]
	mov	x0, 16
	str	x0, [sp, 96]
	add	x0, sp, 96
	add	x3, sp, 88
	add	x1, sp, 176
	mov	x8, x1
	mov	x2, x0
	adrp	x0, .LC20
	add	x1, x0, :lo12:.LC20
	mov	x0, x3
	bl	_ZSt10make_tupleIJmRA10_KcM12SimpleStructNSt7__cxx1112basic_stringIcSt11char_traitsIcESaIcEEEEESt5tupleIJDpNSt25__strip_reference_wrapperINSt5decayIT_E4typeEE6__typeEEEDpOSE_
	add	x3, sp, 176
	add	x2, sp, 152
	add	x1, sp, 128
	add	x0, sp, 104
	mov	x8, x19
	bl	_ZSt10make_tupleIJSt5tupleIJmPKcM12SimpleStructiEES5_S0_IJmS2_MS3_dEES0_IJmS2_MS3_NSt7__cxx1112basic_stringIcSt11char_traitsIcESaIcEEEEEEES0_IJDpNSt25__strip_reference_wrapperINSt5decayIT_E4typeEE6__typeEEEDpOSI_
	adrp	x0, :got:__stack_chk_guard
	ldr	x0, [x0, #:got_lo12:__stack_chk_guard]
	ldr	x2, [sp, 200]
	ldr	x1, [x0]
	subs	x2, x2, x1
	mov	x1, 0
	beq	.L197
	bl	__stack_chk_fail
.L197:
	mov	x0, x19
	ldr	x19, [sp, 16]
	ldp	x29, x30, [sp], 208
	.cfi_restore 30
	.cfi_restore 29
	.cfi_restore 19
	.cfi_def_cfa_offset 0
	ret
	.cfi_endproc
.LFE3886:
	.size	_Z12StructSchemaI12SimpleStructEDav, .-_Z12StructSchemaI12SimpleStructEDav
	.section	.rodata
	.align	3
.LC21:
	.string	"SimpleStruct"
	.section	.text._Z12GetTableNameI12SimpleStructENSt7__cxx1112basic_stringIcSt11char_traitsIcESaIcEEEv,"axG",@progbits,_Z12GetTableNameI12SimpleStructENSt7__cxx1112basic_stringIcSt11char_traitsIcESaIcEEEv,comdat
	.align	2
	.weak	_Z12GetTableNameI12SimpleStructENSt7__cxx1112basic_stringIcSt11char_traitsIcESaIcEEEv
	.type	_Z12GetTableNameI12SimpleStructENSt7__cxx1112basic_stringIcSt11char_traitsIcESaIcEEEv, %function
_Z12GetTableNameI12SimpleStructENSt7__cxx1112basic_stringIcSt11char_traitsIcESaIcEEEv:
.LFB3909:
	.cfi_startproc
	.cfi_personality 0x9b,DW.ref.__gxx_personality_v0
	.cfi_lsda 0x1b,.LLSDA3909
	stp	x29, x30, [sp, -48]!
	.cfi_def_cfa_offset 48
	.cfi_offset 29, -48
	.cfi_offset 30, -40
	mov	x29, sp
	str	x19, [sp, 16]
	.cfi_offset 19, -32
	mov	x19, x8
	adrp	x0, :got:__stack_chk_guard
	ldr	x0, [x0, #:got_lo12:__stack_chk_guard]
	ldr	x1, [x0]
	str	x1, [sp, 40]
	mov	x1, 0
	add	x0, sp, 32
	bl	_ZNSaIcEC1Ev
	add	x0, sp, 32
	mov	x2, x0
	adrp	x0, .LC21
	add	x1, x0, :lo12:.LC21
	mov	x0, x19
.LEHB54:
	bl	_ZNSt7__cxx1112basic_stringIcSt11char_traitsIcESaIcEEC1IS3_EEPKcRKS3_
.LEHE54:
	add	x0, sp, 32
	bl	_ZNSaIcED1Ev
	adrp	x0, :got:__stack_chk_guard
	ldr	x0, [x0, #:got_lo12:__stack_chk_guard]
	ldr	x2, [sp, 40]
	ldr	x1, [x0]
	subs	x2, x2, x1
	mov	x1, 0
	beq	.L201
	b	.L203
.L202:
	mov	x19, x0
	add	x0, sp, 32
	bl	_ZNSaIcED1Ev
	mov	x0, x19
.LEHB55:
	bl	_Unwind_Resume
.LEHE55:
.L203:
	bl	__stack_chk_fail
.L201:
	mov	x0, x19
	ldr	x19, [sp, 16]
	ldp	x29, x30, [sp], 48
	.cfi_restore 30
	.cfi_restore 29
	.cfi_restore 19
	.cfi_def_cfa_offset 0
	ret
	.cfi_endproc
.LFE3909:
	.section	.gcc_except_table._Z12GetTableNameI12SimpleStructENSt7__cxx1112basic_stringIcSt11char_traitsIcESaIcEEEv,"aG",@progbits,_Z12GetTableNameI12SimpleStructENSt7__cxx1112basic_stringIcSt11char_traitsIcESaIcEEEv,comdat
.LLSDA3909:
	.byte	0xff
	.byte	0xff
	.byte	0x1
	.uleb128 .LLSDACSE3909-.LLSDACSB3909
.LLSDACSB3909:
	.uleb128 .LEHB54-.LFB3909
	.uleb128 .LEHE54-.LEHB54
	.uleb128 .L202-.LFB3909
	.uleb128 0
	.uleb128 .LEHB55-.LFB3909
	.uleb128 .LEHE55-.LEHB55
	.uleb128 0
	.uleb128 0
.LLSDACSE3909:
	.section	.text._Z12GetTableNameI12SimpleStructENSt7__cxx1112basic_stringIcSt11char_traitsIcESaIcEEEv,"axG",@progbits,_Z12GetTableNameI12SimpleStructENSt7__cxx1112basic_stringIcSt11char_traitsIcESaIcEEEv,comdat
	.size	_Z12GetTableNameI12SimpleStructENSt7__cxx1112basic_stringIcSt11char_traitsIcESaIcEEEv, .-_Z12GetTableNameI12SimpleStructENSt7__cxx1112basic_stringIcSt11char_traitsIcESaIcEEEv
	.section	.text._ZN14FieldContraintD2Ev,"axG",@progbits,_ZN14FieldContraintD5Ev,comdat
	.align	2
	.weak	_ZN14FieldContraintD2Ev
	.type	_ZN14FieldContraintD2Ev, %function
_ZN14FieldContraintD2Ev:
.LFB3912:
	.cfi_startproc
	stp	x29, x30, [sp, -32]!
	.cfi_def_cfa_offset 32
	.cfi_offset 29, -32
	.cfi_offset 30, -24
	mov	x29, sp
	str	x0, [sp, 24]
	ldr	x0, [sp, 24]
	add	x0, x0, 32
	bl	_ZNSt7__cxx1112basic_stringIcSt11char_traitsIcESaIcEED1Ev
	ldr	x0, [sp, 24]
	bl	_ZNSt7__cxx1112basic_stringIcSt11char_traitsIcESaIcEED1Ev
	nop
	ldp	x29, x30, [sp], 32
	.cfi_restore 30
	.cfi_restore 29
	.cfi_def_cfa_offset 0
	ret
	.cfi_endproc
.LFE3912:
	.size	_ZN14FieldContraintD2Ev, .-_ZN14FieldContraintD2Ev
	.weak	_ZN14FieldContraintD1Ev
	.set	_ZN14FieldContraintD1Ev,_ZN14FieldContraintD2Ev
	.section	.text._ZN14FieldContraintC2ERKS_,"axG",@progbits,_ZN14FieldContraintC5ERKS_,comdat
	.align	2
	.weak	_ZN14FieldContraintC2ERKS_
	.type	_ZN14FieldContraintC2ERKS_, %function
_ZN14FieldContraintC2ERKS_:
.LFB3915:
	.cfi_startproc
	.cfi_personality 0x9b,DW.ref.__gxx_personality_v0
	.cfi_lsda 0x1b,.LLSDA3915
	stp	x29, x30, [sp, -48]!
	.cfi_def_cfa_offset 48
	.cfi_offset 29, -48
	.cfi_offset 30, -40
	mov	x29, sp
	str	x19, [sp, 16]
	.cfi_offset 19, -32
	str	x0, [sp, 40]
	str	x1, [sp, 32]
	ldr	x0, [sp, 40]
	ldr	x1, [sp, 32]
.LEHB56:
	bl	_ZNSt7__cxx1112basic_stringIcSt11char_traitsIcESaIcEEC1ERKS4_
.LEHE56:
	ldr	x0, [sp, 40]
	add	x2, x0, 32
	ldr	x0, [sp, 32]
	add	x0, x0, 32
	mov	x1, x0
	mov	x0, x2
.LEHB57:
	bl	_ZNSt7__cxx1112basic_stringIcSt11char_traitsIcESaIcEEC1ERKS4_
.LEHE57:
	b	.L208
.L207:
	mov	x19, x0
	ldr	x0, [sp, 40]
	bl	_ZNSt7__cxx1112basic_stringIcSt11char_traitsIcESaIcEED1Ev
	mov	x0, x19
.LEHB58:
	bl	_Unwind_Resume
.LEHE58:
.L208:
	ldr	x19, [sp, 16]
	ldp	x29, x30, [sp], 48
	.cfi_restore 30
	.cfi_restore 29
	.cfi_restore 19
	.cfi_def_cfa_offset 0
	ret
	.cfi_endproc
.LFE3915:
	.section	.gcc_except_table._ZN14FieldContraintC2ERKS_,"aG",@progbits,_ZN14FieldContraintC5ERKS_,comdat
.LLSDA3915:
	.byte	0xff
	.byte	0xff
	.byte	0x1
	.uleb128 .LLSDACSE3915-.LLSDACSB3915
.LLSDACSB3915:
	.uleb128 .LEHB56-.LFB3915
	.uleb128 .LEHE56-.LEHB56
	.uleb128 0
	.uleb128 0
	.uleb128 .LEHB57-.LFB3915
	.uleb128 .LEHE57-.LEHB57
	.uleb128 .L207-.LFB3915
	.uleb128 0
	.uleb128 .LEHB58-.LFB3915
	.uleb128 .LEHE58-.LEHB58
	.uleb128 0
	.uleb128 0
.LLSDACSE3915:
	.section	.text._ZN14FieldContraintC2ERKS_,"axG",@progbits,_ZN14FieldContraintC5ERKS_,comdat
	.size	_ZN14FieldContraintC2ERKS_, .-_ZN14FieldContraintC2ERKS_
	.weak	_ZN14FieldContraintC1ERKS_
	.set	_ZN14FieldContraintC1ERKS_,_ZN14FieldContraintC2ERKS_
	.section	.text._ZN12SimpleStructD2Ev,"axG",@progbits,_ZN12SimpleStructD5Ev,comdat
	.align	2
	.weak	_ZN12SimpleStructD2Ev
	.type	_ZN12SimpleStructD2Ev, %function
_ZN12SimpleStructD2Ev:
.LFB3918:
	.cfi_startproc
	stp	x29, x30, [sp, -32]!
	.cfi_def_cfa_offset 32
	.cfi_offset 29, -32
	.cfi_offset 30, -24
	mov	x29, sp
	str	x0, [sp, 24]
	ldr	x0, [sp, 24]
	add	x0, x0, 16
	bl	_ZNSt7__cxx1112basic_stringIcSt11char_traitsIcESaIcEED1Ev
	nop
	ldp	x29, x30, [sp], 32
	.cfi_restore 30
	.cfi_restore 29
	.cfi_def_cfa_offset 0
	ret
	.cfi_endproc
.LFE3918:
	.size	_ZN12SimpleStructD2Ev, .-_ZN12SimpleStructD2Ev
	.weak	_ZN12SimpleStructD1Ev
	.set	_ZN12SimpleStructD1Ev,_ZN12SimpleStructD2Ev
	.section	.text._ZNSt12_Vector_baseI12SimpleStructSaIS0_EE12_Vector_implD2Ev,"axG",@progbits,_ZNSt12_Vector_baseI12SimpleStructSaIS0_EE12_Vector_implD5Ev,comdat
	.align	2
	.weak	_ZNSt12_Vector_baseI12SimpleStructSaIS0_EE12_Vector_implD2Ev
	.type	_ZNSt12_Vector_baseI12SimpleStructSaIS0_EE12_Vector_implD2Ev, %function
_ZNSt12_Vector_baseI12SimpleStructSaIS0_EE12_Vector_implD2Ev:
.LFB3924:
	.cfi_startproc
	stp	x29, x30, [sp, -32]!
	.cfi_def_cfa_offset 32
	.cfi_offset 29, -32
	.cfi_offset 30, -24
	mov	x29, sp
	str	x0, [sp, 24]
	ldr	x0, [sp, 24]
	bl	_ZNSaI12SimpleStructED2Ev
	nop
	ldp	x29, x30, [sp], 32
	.cfi_restore 30
	.cfi_restore 29
	.cfi_def_cfa_offset 0
	ret
	.cfi_endproc
.LFE3924:
	.size	_ZNSt12_Vector_baseI12SimpleStructSaIS0_EE12_Vector_implD2Ev, .-_ZNSt12_Vector_baseI12SimpleStructSaIS0_EE12_Vector_implD2Ev
	.weak	_ZNSt12_Vector_baseI12SimpleStructSaIS0_EE12_Vector_implD1Ev
	.set	_ZNSt12_Vector_baseI12SimpleStructSaIS0_EE12_Vector_implD1Ev,_ZNSt12_Vector_baseI12SimpleStructSaIS0_EE12_Vector_implD2Ev
	.section	.text._ZNSt12_Vector_baseI12SimpleStructSaIS0_EEC2Ev,"axG",@progbits,_ZNSt12_Vector_baseI12SimpleStructSaIS0_EEC5Ev,comdat
	.align	2
	.weak	_ZNSt12_Vector_baseI12SimpleStructSaIS0_EEC2Ev
	.type	_ZNSt12_Vector_baseI12SimpleStructSaIS0_EEC2Ev, %function
_ZNSt12_Vector_baseI12SimpleStructSaIS0_EEC2Ev:
.LFB3926:
	.cfi_startproc
	stp	x29, x30, [sp, -32]!
	.cfi_def_cfa_offset 32
	.cfi_offset 29, -32
	.cfi_offset 30, -24
	mov	x29, sp
	str	x0, [sp, 24]
	ldr	x0, [sp, 24]
	bl	_ZNSt12_Vector_baseI12SimpleStructSaIS0_EE12_Vector_implC1Ev
	nop
	ldp	x29, x30, [sp], 32
	.cfi_restore 30
	.cfi_restore 29
	.cfi_def_cfa_offset 0
	ret
	.cfi_endproc
.LFE3926:
	.size	_ZNSt12_Vector_baseI12SimpleStructSaIS0_EEC2Ev, .-_ZNSt12_Vector_baseI12SimpleStructSaIS0_EEC2Ev
	.weak	_ZNSt12_Vector_baseI12SimpleStructSaIS0_EEC1Ev
	.set	_ZNSt12_Vector_baseI12SimpleStructSaIS0_EEC1Ev,_ZNSt12_Vector_baseI12SimpleStructSaIS0_EEC2Ev
	.section	.text._ZNSt6vectorI12SimpleStructSaIS0_EEC2Ev,"axG",@progbits,_ZNSt6vectorI12SimpleStructSaIS0_EEC5Ev,comdat
	.align	2
	.weak	_ZNSt6vectorI12SimpleStructSaIS0_EEC2Ev
	.type	_ZNSt6vectorI12SimpleStructSaIS0_EEC2Ev, %function
_ZNSt6vectorI12SimpleStructSaIS0_EEC2Ev:
.LFB3928:
	.cfi_startproc
	stp	x29, x30, [sp, -32]!
	.cfi_def_cfa_offset 32
	.cfi_offset 29, -32
	.cfi_offset 30, -24
	mov	x29, sp
	str	x0, [sp, 24]
	ldr	x0, [sp, 24]
	bl	_ZNSt12_Vector_baseI12SimpleStructSaIS0_EEC2Ev
	nop
	ldp	x29, x30, [sp], 32
	.cfi_restore 30
	.cfi_restore 29
	.cfi_def_cfa_offset 0
	ret
	.cfi_endproc
.LFE3928:
	.size	_ZNSt6vectorI12SimpleStructSaIS0_EEC2Ev, .-_ZNSt6vectorI12SimpleStructSaIS0_EEC2Ev
	.weak	_ZNSt6vectorI12SimpleStructSaIS0_EEC1Ev
	.set	_ZNSt6vectorI12SimpleStructSaIS0_EEC1Ev,_ZNSt6vectorI12SimpleStructSaIS0_EEC2Ev
	.section	.text._ZN12SimpleStructC2ERKS_,"axG",@progbits,_ZN12SimpleStructC5ERKS_,comdat
	.align	2
	.weak	_ZN12SimpleStructC2ERKS_
	.type	_ZN12SimpleStructC2ERKS_, %function
_ZN12SimpleStructC2ERKS_:
.LFB3931:
	.cfi_startproc
	stp	x29, x30, [sp, -32]!
	.cfi_def_cfa_offset 32
	.cfi_offset 29, -32
	.cfi_offset 30, -24
	mov	x29, sp
	str	x0, [sp, 24]
	str	x1, [sp, 16]
	ldr	x0, [sp, 16]
	ldr	w1, [x0]
	ldr	x0, [sp, 24]
	str	w1, [x0]
	ldr	x0, [sp, 16]
	ldr	w1, [x0, 4]
	ldr	x0, [sp, 24]
	str	w1, [x0, 4]
	ldr	x0, [sp, 16]
	ldr	d0, [x0, 8]
	ldr	x0, [sp, 24]
	str	d0, [x0, 8]
	ldr	x0, [sp, 24]
	add	x2, x0, 16
	ldr	x0, [sp, 16]
	add	x0, x0, 16
	mov	x1, x0
	mov	x0, x2
	bl	_ZNSt7__cxx1112basic_stringIcSt11char_traitsIcESaIcEEC1ERKS4_
	nop
	ldp	x29, x30, [sp], 32
	.cfi_restore 30
	.cfi_restore 29
	.cfi_def_cfa_offset 0
	ret
	.cfi_endproc
.LFE3931:
	.size	_ZN12SimpleStructC2ERKS_, .-_ZN12SimpleStructC2ERKS_
	.weak	_ZN12SimpleStructC1ERKS_
	.set	_ZN12SimpleStructC1ERKS_,_ZN12SimpleStructC2ERKS_
	.section	.rodata
	.align	3
.LC22:
	.string	"rm -rf test.db"
	.align	3
.LC23:
	.string	"test.db"
	.align	3
.LC24:
	.string	"yao"
	.align	3
.LC25:
	.string	"98"
	.align	3
.LC26:
	.string	"\345\223\210\345\223\210"
	.align	3
.LC27:
	.string	"\346\210\220\345\212\237"
	.text
	.align	2
	.global	main
	.type	main, %function
main:
.LFB3910:
	.cfi_startproc
	.cfi_personality 0x9b,DW.ref.__gxx_personality_v0
	.cfi_lsda 0x1b,.LLSDA3910
	stp	x29, x30, [sp, -368]!
	.cfi_def_cfa_offset 368
	.cfi_offset 29, -368
	.cfi_offset 30, -360
	mov	x29, sp
	stp	x19, x20, [sp, 16]
	str	x21, [sp, 32]
	.cfi_offset 19, -352
	.cfi_offset 20, -344
	.cfi_offset 21, -336
	adrp	x0, :got:__stack_chk_guard
	ldr	x0, [x0, #:got_lo12:__stack_chk_guard]
	ldr	x1, [x0]
	str	x1, [sp, 360]
	mov	x1, 0
	adrp	x0, .LC22
	add	x0, x0, :lo12:.LC22
.LEHB59:
	bl	system
.LEHE59:
	add	x0, sp, 96
	bl	_ZNSaIcEC1Ev
	add	x0, sp, 96
	add	x3, sp, 120
	mov	x2, x0
	adrp	x0, .LC23
	add	x1, x0, :lo12:.LC23
	mov	x0, x3
.LEHB60:
	bl	_ZNSt7__cxx1112basic_stringIcSt11char_traitsIcESaIcEEC1IS3_EEPKcRKS3_
.LEHE60:
	add	x0, sp, 96
	bl	_ZNSaIcED1Ev
	add	x0, sp, 72
	bl	_ZN8SqliteDBC1Ev
	add	x1, sp, 120
	add	x0, sp, 72
.LEHB61:
	bl	_ZN8SqliteDB4OpenERKNSt7__cxx1112basic_stringIcSt11char_traitsIcESaIcEEE
	add	x0, sp, 72
	bl	_ZN8SqliteDB10BeginTransEv
	add	x0, sp, 232
	mov	w2, 273
	mov	x1, 0
	bl	_ZN14FieldContraintC1I12SimpleStructiEEMT_T0_i
.LEHE61:
	add	x1, sp, 232
	add	x0, sp, 296
.LEHB62:
	bl	_ZN14FieldContraintC1ERKS_
.LEHE62:
	add	x0, sp, 296
	mov	x20, x0
	mov	x21, 1
	add	x0, sp, 56
	bl	_ZNSaI14FieldContraintEC1Ev
	add	x1, sp, 56
	add	x0, sp, 96
	mov	x3, x1
	mov	x1, x20
	mov	x2, x21
.LEHB63:
	bl	_ZNSt6vectorI14FieldContraintSaIS0_EEC1ESt16initializer_listIS0_ERKS1_
.LEHE63:
	add	x1, sp, 96
	add	x0, sp, 72
.LEHB64:
	bl	_ZN8SqliteDB21CreateTableIfNotExistI12SimpleStructEEvRKSt6vectorI14FieldContraintSaIS3_EE
.LEHE64:
	add	x0, sp, 96
	bl	_ZNSt6vectorI14FieldContraintSaIS0_EED1Ev
	add	x0, sp, 56
	bl	_ZNSaI14FieldContraintED1Ev
	add	x19, sp, 296
	add	x19, x19, 64
.L216:
	add	x0, sp, 296
	cmp	x19, x0
	beq	.L215
	sub	x19, x19, #64
	mov	x0, x19
	bl	_ZN14FieldContraintD1Ev
	b	.L216
.L215:
	stp	xzr, xzr, [sp, 184]
	stp	xzr, xzr, [sp, 200]
	stp	xzr, xzr, [sp, 216]
	fmov	d0, 1.2e+1
	str	d0, [sp, 192]
	add	x0, sp, 96
	bl	_ZNSaIcEC1Ev
	add	x1, sp, 96
	add	x0, sp, 184
	add	x3, x0, 16
	mov	x2, x1
	adrp	x0, .LC24
	add	x1, x0, :lo12:.LC24
	mov	x0, x3
.LEHB65:
	bl	_ZNSt7__cxx1112basic_stringIcSt11char_traitsIcESaIcEEC1IS3_EEPKcRKS3_
.LEHE65:
	add	x0, sp, 96
	bl	_ZNSaIcED1Ev
	add	x0, sp, 184
	mov	x1, x0
	adrp	x0, :got:_ZSt4cout
	ldr	x0, [x0, #:got_lo12:_ZSt4cout]
.LEHB66:
	bl	_ZNSolsEPKv
	mov	x2, x0
	adrp	x0, :got:_ZSt4endlIcSt11char_traitsIcEERSt13basic_ostreamIT_T0_ES6_
	ldr	x1, [x0, #:got_lo12:_ZSt4endlIcSt11char_traitsIcEERSt13basic_ostreamIT_T0_ES6_]
	mov	x0, x2
	bl	_ZNSolsEPFRSoS_E
	add	x0, sp, 184
	add	x0, x0, 4
	mov	x1, x0
	adrp	x0, :got:_ZSt4cout
	ldr	x0, [x0, #:got_lo12:_ZSt4cout]
	bl	_ZNSolsEPKv
	mov	x2, x0
	adrp	x0, :got:_ZSt4endlIcSt11char_traitsIcEERSt13basic_ostreamIT_T0_ES6_
	ldr	x1, [x0, #:got_lo12:_ZSt4endlIcSt11char_traitsIcEERSt13basic_ostreamIT_T0_ES6_]
	mov	x0, x2
	bl	_ZNSolsEPFRSoS_E
	add	x0, sp, 184
	add	x0, x0, 16
	mov	x1, x0
	adrp	x0, :got:_ZSt4cout
	ldr	x0, [x0, #:got_lo12:_ZSt4cout]
	bl	_ZNSolsEPKv
	mov	x2, x0
	adrp	x0, :got:_ZSt4endlIcSt11char_traitsIcEERSt13basic_ostreamIT_T0_ES6_
	ldr	x1, [x0, #:got_lo12:_ZSt4endlIcSt11char_traitsIcEERSt13basic_ostreamIT_T0_ES6_]
	mov	x0, x2
	bl	_ZNSolsEPFRSoS_E
	mov	w0, 1
	mov	w1, w0
	adrp	x0, :got:_ZSt4cout
	ldr	x0, [x0, #:got_lo12:_ZSt4cout]
	bl	_ZNSolsEb
	mov	x2, x0
	adrp	x0, :got:_ZSt4endlIcSt11char_traitsIcEERSt13basic_ostreamIT_T0_ES6_
	ldr	x1, [x0, #:got_lo12:_ZSt4endlIcSt11char_traitsIcEERSt13basic_ostreamIT_T0_ES6_]
	mov	x0, x2
	bl	_ZNSolsEPFRSoS_E
	add	x1, sp, 184
	add	x0, sp, 72
	bl	_ZN8SqliteDB6InsertIR12SimpleStructEEvOT_
.LEHE66:
	add	x0, sp, 96
	bl	_ZNSaIcEC1Ev
	add	x0, sp, 96
	add	x3, sp, 296
	mov	x2, x0
	adrp	x0, .LC25
	add	x1, x0, :lo12:.LC25
	mov	x0, x3
.LEHB67:
	bl	_ZNSt7__cxx1112basic_stringIcSt11char_traitsIcESaIcEEC1IS3_EEPKcRKS3_
.LEHE67:
	add	x1, sp, 296
	add	x0, sp, 152
	mov	x3, x1
	mov	w2, 0
	mov	x1, 4
.LEHB68:
	bl	_ZN9ConditionC1I12SimpleStructiEEMT_T0_12CondtionTypeRKNSt7__cxx1112basic_stringIcSt11char_traitsIcESaIcEEE
.LEHE68:
	add	x0, sp, 296
	bl	_ZNSt7__cxx1112basic_stringIcSt11char_traitsIcESaIcEED1Ev
	add	x0, sp, 96
	bl	_ZNSaIcED1Ev
	add	x0, sp, 96
	bl	_ZNSt6vectorI12SimpleStructSaIS0_EEC1Ev
	add	x2, sp, 96
	add	x1, sp, 152
	add	x0, sp, 72
.LEHB69:
	bl	_ZN8SqliteDB5QuaryI12SimpleStructSt6vectorIS1_SaIS1_EEEEvRK9ConditionRT0_
	add	x0, sp, 96
	str	x0, [sp, 64]
	ldr	x0, [sp, 64]
	bl	_ZNSt6vectorI12SimpleStructSaIS0_EE5beginEv
	str	x0, [sp, 48]
	ldr	x0, [sp, 64]
	bl	_ZNSt6vectorI12SimpleStructSaIS0_EE3endEv
	str	x0, [sp, 56]
	b	.L217
.L218:
	add	x0, sp, 48
	bl	_ZNK9__gnu_cxx17__normal_iteratorIP12SimpleStructSt6vectorIS1_SaIS1_EEEdeEv
	mov	x1, x0
	add	x0, sp, 296
	bl	_ZN12SimpleStructC1ERKS_
.LEHE69:
	ldr	w0, [sp, 296]
	mov	w1, w0
	adrp	x0, :got:_ZSt4cout
	ldr	x0, [x0, #:got_lo12:_ZSt4cout]
.LEHB70:
	bl	_ZNSolsEi
	mov	x2, x0
	adrp	x0, :got:_ZSt4endlIcSt11char_traitsIcEERSt13basic_ostreamIT_T0_ES6_
	ldr	x1, [x0, #:got_lo12:_ZSt4endlIcSt11char_traitsIcEERSt13basic_ostreamIT_T0_ES6_]
	mov	x0, x2
	bl	_ZNSolsEPFRSoS_E
	add	x0, sp, 296
	add	x0, x0, 16
	mov	x1, x0
	adrp	x0, :got:_ZSt4cout
	ldr	x0, [x0, #:got_lo12:_ZSt4cout]
	bl	_ZStlsIcSt11char_traitsIcESaIcEERSt13basic_ostreamIT_T0_ES7_RKNSt7__cxx1112basic_stringIS4_S5_T1_EE
	mov	x2, x0
	adrp	x0, :got:_ZSt4endlIcSt11char_traitsIcEERSt13basic_ostreamIT_T0_ES6_
	ldr	x1, [x0, #:got_lo12:_ZSt4endlIcSt11char_traitsIcEERSt13basic_ostreamIT_T0_ES6_]
	mov	x0, x2
	bl	_ZNSolsEPFRSoS_E
.LEHE70:
	add	x0, sp, 296
	bl	_ZN12SimpleStructD1Ev
	add	x0, sp, 48
	bl	_ZN9__gnu_cxx17__normal_iteratorIP12SimpleStructSt6vectorIS1_SaIS1_EEEppEv
.L217:
	add	x1, sp, 56
	add	x0, sp, 48
	bl	_ZN9__gnu_cxxneIP12SimpleStructSt6vectorIS1_SaIS1_EEEEbRKNS_17__normal_iteratorIT_T0_EESB_
	and	w0, w0, 255
	cmp	w0, 0
	bne	.L218
	add	x0, sp, 512
	stp	xzr, xzr, [x0, -216]
	add	x0, sp, 512
	stp	xzr, xzr, [x0, -200]
	add	x0, sp, 512
	stp	xzr, xzr, [x0, -184]
	mov	w0, 1
	str	w0, [sp, 300]
	fmov	d0, 1.0e+0
	str	d0, [sp, 304]
	add	x0, sp, 56
	bl	_ZNSaIcEC1Ev
	add	x1, sp, 56
	add	x0, sp, 296
	add	x3, x0, 16
	mov	x2, x1
	adrp	x0, .LC26
	add	x1, x0, :lo12:.LC26
	mov	x0, x3
.LEHB71:
	bl	_ZNSt7__cxx1112basic_stringIcSt11char_traitsIcESaIcEEC1IS3_EEPKcRKS3_
.LEHE71:
	add	x0, sp, 56
	bl	_ZNSaIcED1Ev
	add	x1, sp, 296
	add	x0, sp, 72
	mov	x2, 0
.LEHB72:
	bl	_ZN8SqliteDB6UpdateIR12SimpleStructiEEvOT_MNSt5decayIS3_E4typeET0_
	add	x0, sp, 72
	bl	_ZN8SqliteDB6CommitEv
	adrp	x0, .LC27
	add	x1, x0, :lo12:.LC27
	adrp	x0, :got:_ZSt4cout
	ldr	x0, [x0, #:got_lo12:_ZSt4cout]
	bl	_ZStlsISt11char_traitsIcEERSt13basic_ostreamIcT_ES5_PKc
	mov	x2, x0
	adrp	x0, :got:_ZSt4endlIcSt11char_traitsIcEERSt13basic_ostreamIT_T0_ES6_
	ldr	x1, [x0, #:got_lo12:_ZSt4endlIcSt11char_traitsIcEERSt13basic_ostreamIT_T0_ES6_]
	mov	x0, x2
	bl	_ZNSolsEPFRSoS_E
.LEHE72:
	mov	w19, 0
	add	x0, sp, 296
	bl	_ZN12SimpleStructD1Ev
	add	x0, sp, 96
	bl	_ZNSt6vectorI12SimpleStructSaIS0_EED1Ev
	add	x0, sp, 152
	bl	_ZN9ConditionD1Ev
	add	x0, sp, 184
	bl	_ZN12SimpleStructD1Ev
	add	x0, sp, 232
	bl	_ZN14FieldContraintD1Ev
	add	x0, sp, 72
	bl	_ZN8SqliteDBD1Ev
	add	x0, sp, 120
	bl	_ZNSt7__cxx1112basic_stringIcSt11char_traitsIcESaIcEED1Ev
	mov	w1, w19
	adrp	x0, :got:__stack_chk_guard
	ldr	x0, [x0, #:got_lo12:__stack_chk_guard]
	ldr	x3, [sp, 360]
	ldr	x2, [x0]
	subs	x3, x3, x2
	mov	x2, 0
	beq	.L235
	b	.L249
.L236:
	mov	x19, x0
	add	x0, sp, 96
	bl	_ZNSaIcED1Ev
	mov	x0, x19
.LEHB73:
	bl	_Unwind_Resume
.L240:
	mov	x19, x0
	add	x0, sp, 96
	bl	_ZNSt6vectorI14FieldContraintSaIS0_EED1Ev
	b	.L222
.L239:
	mov	x19, x0
.L222:
	add	x0, sp, 56
	bl	_ZNSaI14FieldContraintED1Ev
	mov	x20, x19
	add	x19, sp, 296
	add	x19, x19, 64
.L224:
	add	x0, sp, 296
	cmp	x19, x0
	beq	.L223
	sub	x19, x19, #64
	mov	x0, x19
	bl	_ZN14FieldContraintD1Ev
	b	.L224
.L223:
	mov	x19, x20
	b	.L225
.L241:
	mov	x19, x0
	add	x0, sp, 96
	bl	_ZNSaIcED1Ev
	b	.L225
.L244:
	mov	x19, x0
	add	x0, sp, 296
	bl	_ZNSt7__cxx1112basic_stringIcSt11char_traitsIcESaIcEED1Ev
	b	.L228
.L243:
	mov	x19, x0
.L228:
	add	x0, sp, 96
	bl	_ZNSaIcED1Ev
	b	.L229
.L246:
	mov	x19, x0
	add	x0, sp, 296
	bl	_ZN12SimpleStructD1Ev
	b	.L231
.L247:
	mov	x19, x0
	add	x0, sp, 56
	bl	_ZNSaIcED1Ev
	b	.L231
.L248:
	mov	x19, x0
	add	x0, sp, 296
	bl	_ZN12SimpleStructD1Ev
	b	.L231
.L245:
	mov	x19, x0
.L231:
	add	x0, sp, 96
	bl	_ZNSt6vectorI12SimpleStructSaIS0_EED1Ev
	add	x0, sp, 152
	bl	_ZN9ConditionD1Ev
	b	.L229
.L242:
	mov	x19, x0
.L229:
	add	x0, sp, 184
	bl	_ZN12SimpleStructD1Ev
	b	.L225
.L238:
	mov	x19, x0
.L225:
	add	x0, sp, 232
	bl	_ZN14FieldContraintD1Ev
	b	.L234
.L237:
	mov	x19, x0
.L234:
	add	x0, sp, 72
	bl	_ZN8SqliteDBD1Ev
	add	x0, sp, 120
	bl	_ZNSt7__cxx1112basic_stringIcSt11char_traitsIcESaIcEED1Ev
	mov	x0, x19
	bl	_Unwind_Resume
.LEHE73:
.L249:
	bl	__stack_chk_fail
.L235:
	mov	w0, w1
	ldp	x19, x20, [sp, 16]
	ldr	x21, [sp, 32]
	ldp	x29, x30, [sp], 368
	.cfi_restore 30
	.cfi_restore 29
	.cfi_restore 21
	.cfi_restore 19
	.cfi_restore 20
	.cfi_def_cfa_offset 0
	ret
	.cfi_endproc
.LFE3910:
	.section	.gcc_except_table,"a",@progbits
.LLSDA3910:
	.byte	0xff
	.byte	0xff
	.byte	0x1
	.uleb128 .LLSDACSE3910-.LLSDACSB3910
.LLSDACSB3910:
	.uleb128 .LEHB59-.LFB3910
	.uleb128 .LEHE59-.LEHB59
	.uleb128 0
	.uleb128 0
	.uleb128 .LEHB60-.LFB3910
	.uleb128 .LEHE60-.LEHB60
	.uleb128 .L236-.LFB3910
	.uleb128 0
	.uleb128 .LEHB61-.LFB3910
	.uleb128 .LEHE61-.LEHB61
	.uleb128 .L237-.LFB3910
	.uleb128 0
	.uleb128 .LEHB62-.LFB3910
	.uleb128 .LEHE62-.LEHB62
	.uleb128 .L238-.LFB3910
	.uleb128 0
	.uleb128 .LEHB63-.LFB3910
	.uleb128 .LEHE63-.LEHB63
	.uleb128 .L239-.LFB3910
	.uleb128 0
	.uleb128 .LEHB64-.LFB3910
	.uleb128 .LEHE64-.LEHB64
	.uleb128 .L240-.LFB3910
	.uleb128 0
	.uleb128 .LEHB65-.LFB3910
	.uleb128 .LEHE65-.LEHB65
	.uleb128 .L241-.LFB3910
	.uleb128 0
	.uleb128 .LEHB66-.LFB3910
	.uleb128 .LEHE66-.LEHB66
	.uleb128 .L242-.LFB3910
	.uleb128 0
	.uleb128 .LEHB67-.LFB3910
	.uleb128 .LEHE67-.LEHB67
	.uleb128 .L243-.LFB3910
	.uleb128 0
	.uleb128 .LEHB68-.LFB3910
	.uleb128 .LEHE68-.LEHB68
	.uleb128 .L244-.LFB3910
	.uleb128 0
	.uleb128 .LEHB69-.LFB3910
	.uleb128 .LEHE69-.LEHB69
	.uleb128 .L245-.LFB3910
	.uleb128 0
	.uleb128 .LEHB70-.LFB3910
	.uleb128 .LEHE70-.LEHB70
	.uleb128 .L246-.LFB3910
	.uleb128 0
	.uleb128 .LEHB71-.LFB3910
	.uleb128 .LEHE71-.LEHB71
	.uleb128 .L247-.LFB3910
	.uleb128 0
	.uleb128 .LEHB72-.LFB3910
	.uleb128 .LEHE72-.LEHB72
	.uleb128 .L248-.LFB3910
	.uleb128 0
	.uleb128 .LEHB73-.LFB3910
	.uleb128 .LEHE73-.LEHB73
	.uleb128 0
	.uleb128 0
.LLSDACSE3910:
	.text
	.size	main, .-main
	.section	.text._ZN9__gnu_cxx11char_traitsIcE2eqERKcS3_,"axG",@progbits,_ZN9__gnu_cxx11char_traitsIcE2eqERKcS3_,comdat
	.align	2
	.weak	_ZN9__gnu_cxx11char_traitsIcE2eqERKcS3_
	.type	_ZN9__gnu_cxx11char_traitsIcE2eqERKcS3_, %function
_ZN9__gnu_cxx11char_traitsIcE2eqERKcS3_:
.LFB3934:
	.cfi_startproc
	sub	sp, sp, #16
	.cfi_def_cfa_offset 16
	str	x0, [sp, 8]
	str	x1, [sp]
	ldr	x0, [sp, 8]
	ldrb	w1, [x0]
	ldr	x0, [sp]
	ldrb	w0, [x0]
	cmp	w1, w0
	cset	w0, eq
	and	w0, w0, 255
	add	sp, sp, 16
	.cfi_def_cfa_offset 0
	ret
	.cfi_endproc
.LFE3934:
	.size	_ZN9__gnu_cxx11char_traitsIcE2eqERKcS3_, .-_ZN9__gnu_cxx11char_traitsIcE2eqERKcS3_
	.section	.text._ZN9__gnu_cxx11char_traitsIcE6lengthEPKc,"axG",@progbits,_ZN9__gnu_cxx11char_traitsIcE6lengthEPKc,comdat
	.align	2
	.weak	_ZN9__gnu_cxx11char_traitsIcE6lengthEPKc
	.type	_ZN9__gnu_cxx11char_traitsIcE6lengthEPKc, %function
_ZN9__gnu_cxx11char_traitsIcE6lengthEPKc:
.LFB3933:
	.cfi_startproc
	stp	x29, x30, [sp, -64]!
	.cfi_def_cfa_offset 64
	.cfi_offset 29, -64
	.cfi_offset 30, -56
	mov	x29, sp
	str	x0, [sp, 24]
	adrp	x0, :got:__stack_chk_guard
	ldr	x0, [x0, #:got_lo12:__stack_chk_guard]
	ldr	x1, [x0]
	str	x1, [sp, 56]
	mov	x1, 0
	str	xzr, [sp, 48]
	b	.L253
.L254:
	ldr	x0, [sp, 48]
	add	x0, x0, 1
	str	x0, [sp, 48]
.L253:
	ldr	x1, [sp, 24]
	ldr	x0, [sp, 48]
	add	x0, x1, x0
	strb	wzr, [sp, 47]
	add	x1, sp, 47
	bl	_ZN9__gnu_cxx11char_traitsIcE2eqERKcS3_
	and	w0, w0, 255
	eor	w0, w0, 1
	and	w0, w0, 255
	cmp	w0, 0
	bne	.L254
	ldr	x0, [sp, 48]
	mov	x1, x0
	adrp	x0, :got:__stack_chk_guard
	ldr	x0, [x0, #:got_lo12:__stack_chk_guard]
	ldr	x3, [sp, 56]
	ldr	x2, [x0]
	subs	x3, x3, x2
	mov	x2, 0
	beq	.L256
	bl	__stack_chk_fail
.L256:
	mov	x0, x1
	ldp	x29, x30, [sp], 64
	.cfi_restore 30
	.cfi_restore 29
	.cfi_def_cfa_offset 0
	ret
	.cfi_endproc
.LFE3933:
	.size	_ZN9__gnu_cxx11char_traitsIcE6lengthEPKc, .-_ZN9__gnu_cxx11char_traitsIcE6lengthEPKc
	.section	.text._ZNSt7__cxx1112basic_stringIcSt11char_traitsIcESaIcEE12_Alloc_hiderD2Ev,"axG",@progbits,_ZNSt7__cxx1112basic_stringIcSt11char_traitsIcESaIcEE12_Alloc_hiderD5Ev,comdat
	.align	2
	.weak	_ZNSt7__cxx1112basic_stringIcSt11char_traitsIcESaIcEE12_Alloc_hiderD2Ev
	.type	_ZNSt7__cxx1112basic_stringIcSt11char_traitsIcESaIcEE12_Alloc_hiderD2Ev, %function
_ZNSt7__cxx1112basic_stringIcSt11char_traitsIcESaIcEE12_Alloc_hiderD2Ev:
.LFB4041:
	.cfi_startproc
	stp	x29, x30, [sp, -32]!
	.cfi_def_cfa_offset 32
	.cfi_offset 29, -32
	.cfi_offset 30, -24
	mov	x29, sp
	str	x0, [sp, 24]
	ldr	x0, [sp, 24]
	bl	_ZNSaIcED2Ev
	nop
	ldp	x29, x30, [sp], 32
	.cfi_restore 30
	.cfi_restore 29
	.cfi_def_cfa_offset 0
	ret
	.cfi_endproc
.LFE4041:
	.size	_ZNSt7__cxx1112basic_stringIcSt11char_traitsIcESaIcEE12_Alloc_hiderD2Ev, .-_ZNSt7__cxx1112basic_stringIcSt11char_traitsIcESaIcEE12_Alloc_hiderD2Ev
	.weak	_ZNSt7__cxx1112basic_stringIcSt11char_traitsIcESaIcEE12_Alloc_hiderD1Ev
	.set	_ZNSt7__cxx1112basic_stringIcSt11char_traitsIcESaIcEE12_Alloc_hiderD1Ev,_ZNSt7__cxx1112basic_stringIcSt11char_traitsIcESaIcEE12_Alloc_hiderD2Ev
	.section	.text._ZN5boost16exception_detail12refcount_ptrINS0_20error_info_containerEEC2Ev,"axG",@progbits,_ZN5boost16exception_detail12refcount_ptrINS0_20error_info_containerEEC5Ev,comdat
	.align	2
	.weak	_ZN5boost16exception_detail12refcount_ptrINS0_20error_info_containerEEC2Ev
	.type	_ZN5boost16exception_detail12refcount_ptrINS0_20error_info_containerEEC2Ev, %function
_ZN5boost16exception_detail12refcount_ptrINS0_20error_info_containerEEC2Ev:
.LFB4194:
	.cfi_startproc
	sub	sp, sp, #16
	.cfi_def_cfa_offset 16
	str	x0, [sp, 8]
	ldr	x0, [sp, 8]
	str	xzr, [x0]
	nop
	add	sp, sp, 16
	.cfi_def_cfa_offset 0
	ret
	.cfi_endproc
.LFE4194:
	.size	_ZN5boost16exception_detail12refcount_ptrINS0_20error_info_containerEEC2Ev, .-_ZN5boost16exception_detail12refcount_ptrINS0_20error_info_containerEEC2Ev
	.weak	_ZN5boost16exception_detail12refcount_ptrINS0_20error_info_containerEEC1Ev
	.set	_ZN5boost16exception_detail12refcount_ptrINS0_20error_info_containerEEC1Ev,_ZN5boost16exception_detail12refcount_ptrINS0_20error_info_containerEEC2Ev
	.section	.text._ZN5boost16exception_detail12refcount_ptrINS0_20error_info_containerEED2Ev,"axG",@progbits,_ZN5boost16exception_detail12refcount_ptrINS0_20error_info_containerEED5Ev,comdat
	.align	2
	.weak	_ZN5boost16exception_detail12refcount_ptrINS0_20error_info_containerEED2Ev
	.type	_ZN5boost16exception_detail12refcount_ptrINS0_20error_info_containerEED2Ev, %function
_ZN5boost16exception_detail12refcount_ptrINS0_20error_info_containerEED2Ev:
.LFB4197:
	.cfi_startproc
	.cfi_personality 0x9b,DW.ref.__gxx_personality_v0
	.cfi_lsda 0x1b,.LLSDA4197
	stp	x29, x30, [sp, -32]!
	.cfi_def_cfa_offset 32
	.cfi_offset 29, -32
	.cfi_offset 30, -24
	mov	x29, sp
	str	x0, [sp, 24]
	ldr	x0, [sp, 24]
	bl	_ZN5boost16exception_detail12refcount_ptrINS0_20error_info_containerEE7releaseEv
	nop
	ldp	x29, x30, [sp], 32
	.cfi_restore 30
	.cfi_restore 29
	.cfi_def_cfa_offset 0
	ret
	.cfi_endproc
.LFE4197:
	.section	.gcc_except_table
.LLSDA4197:
	.byte	0xff
	.byte	0xff
	.byte	0x1
	.uleb128 .LLSDACSE4197-.LLSDACSB4197
.LLSDACSB4197:
.LLSDACSE4197:
	.section	.text._ZN5boost16exception_detail12refcount_ptrINS0_20error_info_containerEED2Ev,"axG",@progbits,_ZN5boost16exception_detail12refcount_ptrINS0_20error_info_containerEED5Ev,comdat
	.size	_ZN5boost16exception_detail12refcount_ptrINS0_20error_info_containerEED2Ev, .-_ZN5boost16exception_detail12refcount_ptrINS0_20error_info_containerEED2Ev
	.weak	_ZN5boost16exception_detail12refcount_ptrINS0_20error_info_containerEED1Ev
	.set	_ZN5boost16exception_detail12refcount_ptrINS0_20error_info_containerEED1Ev,_ZN5boost16exception_detail12refcount_ptrINS0_20error_info_containerEED2Ev
	.section	.text._ZNK5boost16exception_detail12refcount_ptrINS0_20error_info_containerEE3getEv,"axG",@progbits,_ZNK5boost16exception_detail12refcount_ptrINS0_20error_info_containerEE3getEv,comdat
	.align	2
	.weak	_ZNK5boost16exception_detail12refcount_ptrINS0_20error_info_containerEE3getEv
	.type	_ZNK5boost16exception_detail12refcount_ptrINS0_20error_info_containerEE3getEv, %function
_ZNK5boost16exception_detail12refcount_ptrINS0_20error_info_containerEE3getEv:
.LFB4199:
	.cfi_startproc
	sub	sp, sp, #16
	.cfi_def_cfa_offset 16
	str	x0, [sp, 8]
	ldr	x0, [sp, 8]
	ldr	x0, [x0]
	add	sp, sp, 16
	.cfi_def_cfa_offset 0
	ret
	.cfi_endproc
.LFE4199:
	.size	_ZNK5boost16exception_detail12refcount_ptrINS0_20error_info_containerEE3getEv, .-_ZNK5boost16exception_detail12refcount_ptrINS0_20error_info_containerEE3getEv
	.section	.text._ZN5boost16exception_detail12refcount_ptrINS0_20error_info_containerEEaSERKS3_,"axG",@progbits,_ZN5boost16exception_detail12refcount_ptrINS0_20error_info_containerEEaSERKS3_,comdat
	.align	2
	.weak	_ZN5boost16exception_detail12refcount_ptrINS0_20error_info_containerEEaSERKS3_
	.type	_ZN5boost16exception_detail12refcount_ptrINS0_20error_info_containerEEaSERKS3_, %function
_ZN5boost16exception_detail12refcount_ptrINS0_20error_info_containerEEaSERKS3_:
.LFB4200:
	.cfi_startproc
	stp	x29, x30, [sp, -32]!
	.cfi_def_cfa_offset 32
	.cfi_offset 29, -32
	.cfi_offset 30, -24
	mov	x29, sp
	str	x0, [sp, 24]
	str	x1, [sp, 16]
	ldr	x0, [sp, 16]
	ldr	x0, [x0]
	mov	x1, x0
	ldr	x0, [sp, 24]
	bl	_ZN5boost16exception_detail12refcount_ptrINS0_20error_info_containerEE5adoptEPS2_
	ldr	x0, [sp, 24]
	ldp	x29, x30, [sp], 32
	.cfi_restore 30
	.cfi_restore 29
	.cfi_def_cfa_offset 0
	ret
	.cfi_endproc
.LFE4200:
	.size	_ZN5boost16exception_detail12refcount_ptrINS0_20error_info_containerEEaSERKS3_, .-_ZN5boost16exception_detail12refcount_ptrINS0_20error_info_containerEEaSERKS3_
	.section	.text._ZNSt7__cxx1112basic_stringIcSt11char_traitsIcESaIcEEC2IS3_EEPKcRKS3_,"axG",@progbits,_ZNSt7__cxx1112basic_stringIcSt11char_traitsIcESaIcEEC5IS3_EEPKcRKS3_,comdat
	.align	2
	.weak	_ZNSt7__cxx1112basic_stringIcSt11char_traitsIcESaIcEEC2IS3_EEPKcRKS3_
	.type	_ZNSt7__cxx1112basic_stringIcSt11char_traitsIcESaIcEEC2IS3_EEPKcRKS3_, %function
_ZNSt7__cxx1112basic_stringIcSt11char_traitsIcESaIcEEC2IS3_EEPKcRKS3_:
.LFB4202:
	.cfi_startproc
	.cfi_personality 0x9b,DW.ref.__gxx_personality_v0
	.cfi_lsda 0x1b,.LLSDA4202
	stp	x29, x30, [sp, -96]!
	.cfi_def_cfa_offset 96
	.cfi_offset 29, -96
	.cfi_offset 30, -88
	mov	x29, sp
	stp	x19, x20, [sp, 16]
	.cfi_offset 19, -80
	.cfi_offset 20, -72
	str	x0, [sp, 56]
	str	x1, [sp, 48]
	str	x2, [sp, 40]
	adrp	x0, :got:__stack_chk_guard
	ldr	x0, [x0, #:got_lo12:__stack_chk_guard]
	ldr	x1, [x0]
	str	x1, [sp, 88]
	mov	x1, 0
	ldr	x19, [sp, 56]
	ldr	x0, [sp, 56]
.LEHB74:
	bl	_ZNSt7__cxx1112basic_stringIcSt11char_traitsIcESaIcEE13_M_local_dataEv
	ldr	x2, [sp, 40]
	mov	x1, x0
	mov	x0, x19
	bl	_ZNSt7__cxx1112basic_stringIcSt11char_traitsIcESaIcEE12_Alloc_hiderC1EPcRKS3_
.LEHE74:
	ldr	x0, [sp, 48]
	cmp	x0, 0
	beq	.L265
	ldr	x0, [sp, 48]
.LEHB75:
	bl	_ZNSt11char_traitsIcE6lengthEPKc
	mov	x1, x0
	ldr	x0, [sp, 48]
	add	x0, x0, x1
	b	.L266
.L265:
	mov	x0, 1
.L266:
	str	x0, [sp, 80]
	mov	w3, w20
	ldr	x2, [sp, 80]
	ldr	x1, [sp, 48]
	ldr	x0, [sp, 56]
	bl	_ZNSt7__cxx1112basic_stringIcSt11char_traitsIcESaIcEE12_M_constructIPKcEEvT_S8_St20forward_iterator_tag
.LEHE75:
	b	.L270
.L269:
	mov	x19, x0
	ldr	x0, [sp, 56]
	bl	_ZNSt7__cxx1112basic_stringIcSt11char_traitsIcESaIcEE12_Alloc_hiderD1Ev
	mov	x0, x19
.LEHB76:
	bl	_Unwind_Resume
.LEHE76:
.L270:
	adrp	x0, :got:__stack_chk_guard
	ldr	x0, [x0, #:got_lo12:__stack_chk_guard]
	ldr	x2, [sp, 88]
	ldr	x1, [x0]
	subs	x2, x2, x1
	mov	x1, 0
	beq	.L268
	bl	__stack_chk_fail
.L268:
	ldp	x19, x20, [sp, 16]
	ldp	x29, x30, [sp], 96
	.cfi_restore 30
	.cfi_restore 29
	.cfi_restore 19
	.cfi_restore 20
	.cfi_def_cfa_offset 0
	ret
	.cfi_endproc
.LFE4202:
	.section	.gcc_except_table
.LLSDA4202:
	.byte	0xff
	.byte	0xff
	.byte	0x1
	.uleb128 .LLSDACSE4202-.LLSDACSB4202
.LLSDACSB4202:
	.uleb128 .LEHB74-.LFB4202
	.uleb128 .LEHE74-.LEHB74
	.uleb128 0
	.uleb128 0
	.uleb128 .LEHB75-.LFB4202
	.uleb128 .LEHE75-.LEHB75
	.uleb128 .L269-.LFB4202
	.uleb128 0
	.uleb128 .LEHB76-.LFB4202
	.uleb128 .LEHE76-.LEHB76
	.uleb128 0
	.uleb128 0
.LLSDACSE4202:
	.section	.text._ZNSt7__cxx1112basic_stringIcSt11char_traitsIcESaIcEEC2IS3_EEPKcRKS3_,"axG",@progbits,_ZNSt7__cxx1112basic_stringIcSt11char_traitsIcESaIcEEC5IS3_EEPKcRKS3_,comdat
	.size	_ZNSt7__cxx1112basic_stringIcSt11char_traitsIcESaIcEEC2IS3_EEPKcRKS3_, .-_ZNSt7__cxx1112basic_stringIcSt11char_traitsIcESaIcEEC2IS3_EEPKcRKS3_
	.weak	_ZNSt7__cxx1112basic_stringIcSt11char_traitsIcESaIcEEC1IS3_EEPKcRKS3_
	.set	_ZNSt7__cxx1112basic_stringIcSt11char_traitsIcESaIcEEC1IS3_EEPKcRKS3_,_ZNSt7__cxx1112basic_stringIcSt11char_traitsIcESaIcEEC2IS3_EEPKcRKS3_
	.section	.text._ZN5boost10wrapexceptISt13runtime_errorED2Ev,"axG",@progbits,_ZN5boost10wrapexceptISt13runtime_errorED5Ev,comdat
	.align	2
	.weak	_ZN5boost10wrapexceptISt13runtime_errorED2Ev
	.type	_ZN5boost10wrapexceptISt13runtime_errorED2Ev, %function
_ZN5boost10wrapexceptISt13runtime_errorED2Ev:
.LFB4206:
	.cfi_startproc
	stp	x29, x30, [sp, -32]!
	.cfi_def_cfa_offset 32
	.cfi_offset 29, -32
	.cfi_offset 30, -24
	mov	x29, sp
	str	x0, [sp, 24]
	adrp	x0, _ZTVN5boost10wrapexceptISt13runtime_errorEE+16
	add	x1, x0, :lo12:_ZTVN5boost10wrapexceptISt13runtime_errorEE+16
	ldr	x0, [sp, 24]
	str	x1, [x0]
	adrp	x0, _ZTVN5boost10wrapexceptISt13runtime_errorEE+64
	add	x1, x0, :lo12:_ZTVN5boost10wrapexceptISt13runtime_errorEE+64
	ldr	x0, [sp, 24]
	str	x1, [x0, 8]
	adrp	x0, _ZTVN5boost10wrapexceptISt13runtime_errorEE+104
	add	x1, x0, :lo12:_ZTVN5boost10wrapexceptISt13runtime_errorEE+104
	ldr	x0, [sp, 24]
	str	x1, [x0, 24]
	ldr	x0, [sp, 24]
	add	x0, x0, 24
	bl	_ZN5boost9exceptionD2Ev
	ldr	x0, [sp, 24]
	add	x0, x0, 8
	bl	_ZNSt13runtime_errorD2Ev
	ldr	x0, [sp, 24]
	bl	_ZN5boost16exception_detail10clone_baseD2Ev
	nop
	ldp	x29, x30, [sp], 32
	.cfi_restore 30
	.cfi_restore 29
	.cfi_def_cfa_offset 0
	ret
	.cfi_endproc
.LFE4206:
	.size	_ZN5boost10wrapexceptISt13runtime_errorED2Ev, .-_ZN5boost10wrapexceptISt13runtime_errorED2Ev
	.weak	_ZN5boost10wrapexceptISt13runtime_errorED1Ev
	.set	_ZN5boost10wrapexceptISt13runtime_errorED1Ev,_ZN5boost10wrapexceptISt13runtime_errorED2Ev
	.set	.LTHUNK1,_ZN5boost10wrapexceptISt13runtime_errorED1Ev
	.align	2
	.weak	_ZThn8_N5boost10wrapexceptISt13runtime_errorED1Ev
	.type	_ZThn8_N5boost10wrapexceptISt13runtime_errorED1Ev, %function
_ZThn8_N5boost10wrapexceptISt13runtime_errorED1Ev:
.LFB5259:
	.cfi_startproc
	sub	x0, x0, #8
	b	.LTHUNK1
	.cfi_endproc
.LFE5259:
	.size	_ZThn8_N5boost10wrapexceptISt13runtime_errorED1Ev, .-_ZThn8_N5boost10wrapexceptISt13runtime_errorED1Ev
	.set	.LTHUNK0,_ZN5boost10wrapexceptISt13runtime_errorED1Ev
	.align	2
	.weak	_ZThn24_N5boost10wrapexceptISt13runtime_errorED1Ev
	.type	_ZThn24_N5boost10wrapexceptISt13runtime_errorED1Ev, %function
_ZThn24_N5boost10wrapexceptISt13runtime_errorED1Ev:
.LFB5260:
	.cfi_startproc
	sub	x0, x0, #24
	b	.LTHUNK0
	.cfi_endproc
.LFE5260:
	.size	_ZThn24_N5boost10wrapexceptISt13runtime_errorED1Ev, .-_ZThn24_N5boost10wrapexceptISt13runtime_errorED1Ev
	.section	.text._ZN5boost10wrapexceptISt13runtime_errorED0Ev,"axG",@progbits,_ZN5boost10wrapexceptISt13runtime_errorED5Ev,comdat
	.align	2
	.weak	_ZN5boost10wrapexceptISt13runtime_errorED0Ev
	.type	_ZN5boost10wrapexceptISt13runtime_errorED0Ev, %function
_ZN5boost10wrapexceptISt13runtime_errorED0Ev:
.LFB4208:
	.cfi_startproc
	stp	x29, x30, [sp, -32]!
	.cfi_def_cfa_offset 32
	.cfi_offset 29, -32
	.cfi_offset 30, -24
	mov	x29, sp
	str	x0, [sp, 24]
	ldr	x0, [sp, 24]
	bl	_ZN5boost10wrapexceptISt13runtime_errorED1Ev
	mov	x1, 64
	ldr	x0, [sp, 24]
	bl	_ZdlPvm
	ldp	x29, x30, [sp], 32
	.cfi_restore 30
	.cfi_restore 29
	.cfi_def_cfa_offset 0
	ret
	.cfi_endproc
.LFE4208:
	.size	_ZN5boost10wrapexceptISt13runtime_errorED0Ev, .-_ZN5boost10wrapexceptISt13runtime_errorED0Ev
	.set	.LTHUNK3,_ZN5boost10wrapexceptISt13runtime_errorED0Ev
	.align	2
	.weak	_ZThn8_N5boost10wrapexceptISt13runtime_errorED0Ev
	.type	_ZThn8_N5boost10wrapexceptISt13runtime_errorED0Ev, %function
_ZThn8_N5boost10wrapexceptISt13runtime_errorED0Ev:
.LFB5261:
	.cfi_startproc
	sub	x0, x0, #8
	b	.LTHUNK3
	.cfi_endproc
.LFE5261:
	.size	_ZThn8_N5boost10wrapexceptISt13runtime_errorED0Ev, .-_ZThn8_N5boost10wrapexceptISt13runtime_errorED0Ev
	.set	.LTHUNK2,_ZN5boost10wrapexceptISt13runtime_errorED0Ev
	.align	2
	.weak	_ZThn24_N5boost10wrapexceptISt13runtime_errorED0Ev
	.type	_ZThn24_N5boost10wrapexceptISt13runtime_errorED0Ev, %function
_ZThn24_N5boost10wrapexceptISt13runtime_errorED0Ev:
.LFB5262:
	.cfi_startproc
	sub	x0, x0, #24
	b	.LTHUNK2
	.cfi_endproc
.LFE5262:
	.size	_ZThn24_N5boost10wrapexceptISt13runtime_errorED0Ev, .-_ZThn24_N5boost10wrapexceptISt13runtime_errorED0Ev
	.section	.text._ZN5boost15throw_exceptionISt13runtime_errorEEvRKT_,"axG",@progbits,_ZN5boost15throw_exceptionISt13runtime_errorEEvRKT_,comdat
	.align	2
	.weak	_ZN5boost15throw_exceptionISt13runtime_errorEEvRKT_
	.type	_ZN5boost15throw_exceptionISt13runtime_errorEEvRKT_, %function
_ZN5boost15throw_exceptionISt13runtime_errorEEvRKT_:
.LFB4204:
	.cfi_startproc
	.cfi_personality 0x9b,DW.ref.__gxx_personality_v0
	.cfi_lsda 0x1b,.LLSDA4204
	stp	x29, x30, [sp, -48]!
	.cfi_def_cfa_offset 48
	.cfi_offset 29, -48
	.cfi_offset 30, -40
	mov	x29, sp
	stp	x19, x20, [sp, 16]
	.cfi_offset 19, -32
	.cfi_offset 20, -24
	str	x0, [sp, 40]
	ldr	x0, [sp, 40]
	bl	_ZN5boost36throw_exception_assert_compatibilityERKSt9exception
	mov	x0, 64
	bl	__cxa_allocate_exception
	mov	x19, x0
	ldr	x1, [sp, 40]
	mov	x0, x19
.LEHB77:
	bl	_ZN5boost10wrapexceptISt13runtime_errorEC1ERKS1_
.LEHE77:
	adrp	x0, _ZN5boost10wrapexceptISt13runtime_errorED1Ev
	add	x2, x0, :lo12:_ZN5boost10wrapexceptISt13runtime_errorED1Ev
	adrp	x0, _ZTIN5boost10wrapexceptISt13runtime_errorEE
	add	x1, x0, :lo12:_ZTIN5boost10wrapexceptISt13runtime_errorEE
	mov	x0, x19
.LEHB78:
	bl	__cxa_throw
.L275:
	mov	x20, x0
	mov	x0, x19
	bl	__cxa_free_exception
	mov	x0, x20
	bl	_Unwind_Resume
.LEHE78:
	.cfi_endproc
.LFE4204:
	.section	.gcc_except_table
.LLSDA4204:
	.byte	0xff
	.byte	0xff
	.byte	0x1
	.uleb128 .LLSDACSE4204-.LLSDACSB4204
.LLSDACSB4204:
	.uleb128 .LEHB77-.LFB4204
	.uleb128 .LEHE77-.LEHB77
	.uleb128 .L275-.LFB4204
	.uleb128 0
	.uleb128 .LEHB78-.LFB4204
	.uleb128 .LEHE78-.LEHB78
	.uleb128 0
	.uleb128 0
.LLSDACSE4204:
	.section	.text._ZN5boost15throw_exceptionISt13runtime_errorEEvRKT_,"axG",@progbits,_ZN5boost15throw_exceptionISt13runtime_errorEEvRKT_,comdat
	.size	_ZN5boost15throw_exceptionISt13runtime_errorEEvRKT_, .-_ZN5boost15throw_exceptionISt13runtime_errorEEvRKT_
	.section	.text._ZNSt7__cxx1112basic_stringIcSt11char_traitsIcESaIcEEC2IPKcvEET_S8_RKS3_,"axG",@progbits,_ZNSt7__cxx1112basic_stringIcSt11char_traitsIcESaIcEEC5IPKcvEET_S8_RKS3_,comdat
	.align	2
	.weak	_ZNSt7__cxx1112basic_stringIcSt11char_traitsIcESaIcEEC2IPKcvEET_S8_RKS3_
	.type	_ZNSt7__cxx1112basic_stringIcSt11char_traitsIcESaIcEEC2IPKcvEET_S8_RKS3_, %function
_ZNSt7__cxx1112basic_stringIcSt11char_traitsIcESaIcEEC2IPKcvEET_S8_RKS3_:
.LFB4210:
	.cfi_startproc
	.cfi_personality 0x9b,DW.ref.__gxx_personality_v0
	.cfi_lsda 0x1b,.LLSDA4210
	stp	x29, x30, [sp, -64]!
	.cfi_def_cfa_offset 64
	.cfi_offset 29, -64
	.cfi_offset 30, -56
	mov	x29, sp
	str	x19, [sp, 16]
	.cfi_offset 19, -48
	str	x0, [sp, 56]
	str	x1, [sp, 48]
	str	x2, [sp, 40]
	str	x3, [sp, 32]
	ldr	x19, [sp, 56]
	ldr	x0, [sp, 56]
.LEHB79:
	bl	_ZNSt7__cxx1112basic_stringIcSt11char_traitsIcESaIcEE13_M_local_dataEv
	ldr	x2, [sp, 32]
	mov	x1, x0
	mov	x0, x19
	bl	_ZNSt7__cxx1112basic_stringIcSt11char_traitsIcESaIcEE12_Alloc_hiderC1EPcRKS3_
.LEHE79:
	ldr	x2, [sp, 40]
	ldr	x1, [sp, 48]
	ldr	x0, [sp, 56]
.LEHB80:
	bl	_ZNSt7__cxx1112basic_stringIcSt11char_traitsIcESaIcEE12_M_constructIPKcEEvT_S8_
.LEHE80:
	b	.L279
.L278:
	mov	x19, x0
	ldr	x0, [sp, 56]
	bl	_ZNSt7__cxx1112basic_stringIcSt11char_traitsIcESaIcEE12_Alloc_hiderD1Ev
	mov	x0, x19
.LEHB81:
	bl	_Unwind_Resume
.LEHE81:
.L279:
	ldr	x19, [sp, 16]
	ldp	x29, x30, [sp], 64
	.cfi_restore 30
	.cfi_restore 29
	.cfi_restore 19
	.cfi_def_cfa_offset 0
	ret
	.cfi_endproc
.LFE4210:
	.section	.gcc_except_table
.LLSDA4210:
	.byte	0xff
	.byte	0xff
	.byte	0x1
	.uleb128 .LLSDACSE4210-.LLSDACSB4210
.LLSDACSB4210:
	.uleb128 .LEHB79-.LFB4210
	.uleb128 .LEHE79-.LEHB79
	.uleb128 0
	.uleb128 0
	.uleb128 .LEHB80-.LFB4210
	.uleb128 .LEHE80-.LEHB80
	.uleb128 .L278-.LFB4210
	.uleb128 0
	.uleb128 .LEHB81-.LFB4210
	.uleb128 .LEHE81-.LEHB81
	.uleb128 0
	.uleb128 0
.LLSDACSE4210:
	.section	.text._ZNSt7__cxx1112basic_stringIcSt11char_traitsIcESaIcEEC2IPKcvEET_S8_RKS3_,"axG",@progbits,_ZNSt7__cxx1112basic_stringIcSt11char_traitsIcESaIcEEC5IPKcvEET_S8_RKS3_,comdat
	.size	_ZNSt7__cxx1112basic_stringIcSt11char_traitsIcESaIcEEC2IPKcvEET_S8_RKS3_, .-_ZNSt7__cxx1112basic_stringIcSt11char_traitsIcESaIcEEC2IPKcvEET_S8_RKS3_
	.weak	_ZNSt7__cxx1112basic_stringIcSt11char_traitsIcESaIcEEC1IPKcvEET_S8_RKS3_
	.set	_ZNSt7__cxx1112basic_stringIcSt11char_traitsIcESaIcEEC1IPKcvEET_S8_RKS3_,_ZNSt7__cxx1112basic_stringIcSt11char_traitsIcESaIcEEC2IPKcvEET_S8_RKS3_
	.section	.text._ZNKSt6chrono8durationIlSt5ratioILl1ELl1EEE5countEv,"axG",@progbits,_ZNKSt6chrono8durationIlSt5ratioILl1ELl1EEE5countEv,comdat
	.align	2
	.weak	_ZNKSt6chrono8durationIlSt5ratioILl1ELl1EEE5countEv
	.type	_ZNKSt6chrono8durationIlSt5ratioILl1ELl1EEE5countEv, %function
_ZNKSt6chrono8durationIlSt5ratioILl1ELl1EEE5countEv:
.LFB4216:
	.cfi_startproc
	sub	sp, sp, #16
	.cfi_def_cfa_offset 16
	str	x0, [sp, 8]
	ldr	x0, [sp, 8]
	ldr	x0, [x0]
	add	sp, sp, 16
	.cfi_def_cfa_offset 0
	ret
	.cfi_endproc
.LFE4216:
	.size	_ZNKSt6chrono8durationIlSt5ratioILl1ELl1EEE5countEv, .-_ZNKSt6chrono8durationIlSt5ratioILl1ELl1EEE5countEv
	.section	.text._ZStplIcSt11char_traitsIcESaIcEENSt7__cxx1112basic_stringIT_T0_T1_EEOS8_RKS8_,"axG",@progbits,_ZStplIcSt11char_traitsIcESaIcEENSt7__cxx1112basic_stringIT_T0_T1_EEOS8_RKS8_,comdat
	.align	2
	.weak	_ZStplIcSt11char_traitsIcESaIcEENSt7__cxx1112basic_stringIT_T0_T1_EEOS8_RKS8_
	.type	_ZStplIcSt11char_traitsIcESaIcEENSt7__cxx1112basic_stringIT_T0_T1_EEOS8_RKS8_, %function
_ZStplIcSt11char_traitsIcESaIcEENSt7__cxx1112basic_stringIT_T0_T1_EEOS8_RKS8_:
.LFB4245:
	.cfi_startproc
	stp	x29, x30, [sp, -48]!
	.cfi_def_cfa_offset 48
	.cfi_offset 29, -48
	.cfi_offset 30, -40
	mov	x29, sp
	str	x19, [sp, 16]
	.cfi_offset 19, -32
	mov	x19, x8
	str	x0, [sp, 40]
	str	x1, [sp, 32]
	ldr	x1, [sp, 32]
	ldr	x0, [sp, 40]
	bl	_ZNSt7__cxx1112basic_stringIcSt11char_traitsIcESaIcEE6appendERKS4_
	bl	_ZSt4moveIRNSt7__cxx1112basic_stringIcSt11char_traitsIcESaIcEEEEONSt16remove_referenceIT_E4typeEOS8_
	mov	x1, x0
	mov	x0, x19
	bl	_ZNSt7__cxx1112basic_stringIcSt11char_traitsIcESaIcEEC1EOS4_
	mov	x0, x19
	ldr	x19, [sp, 16]
	ldp	x29, x30, [sp], 48
	.cfi_restore 30
	.cfi_restore 29
	.cfi_restore 19
	.cfi_def_cfa_offset 0
	ret
	.cfi_endproc
.LFE4245:
	.size	_ZStplIcSt11char_traitsIcESaIcEENSt7__cxx1112basic_stringIT_T0_T1_EEOS8_RKS8_, .-_ZStplIcSt11char_traitsIcESaIcEENSt7__cxx1112basic_stringIT_T0_T1_EEOS8_RKS8_
	.section	.text._ZSt3maxImERKT_S2_S2_,"axG",@progbits,_ZSt3maxImERKT_S2_S2_,comdat
	.align	2
	.weak	_ZSt3maxImERKT_S2_S2_
	.type	_ZSt3maxImERKT_S2_S2_, %function
_ZSt3maxImERKT_S2_S2_:
.LFB4246:
	.cfi_startproc
	sub	sp, sp, #16
	.cfi_def_cfa_offset 16
	str	x0, [sp, 8]
	str	x1, [sp]
	ldr	x0, [sp, 8]
	ldr	x1, [x0]
	ldr	x0, [sp]
	ldr	x0, [x0]
	cmp	x1, x0
	bcs	.L285
	ldr	x0, [sp]
	b	.L286
.L285:
	ldr	x0, [sp, 8]
.L286:
	add	sp, sp, 16
	.cfi_def_cfa_offset 0
	ret
	.cfi_endproc
.LFE4246:
	.size	_ZSt3maxImERKT_S2_S2_, .-_ZSt3maxImERKT_S2_S2_
	.section	.text._ZStplIcSt11char_traitsIcESaIcEENSt7__cxx1112basic_stringIT_T0_T1_EEOS8_PKS5_,"axG",@progbits,_ZStplIcSt11char_traitsIcESaIcEENSt7__cxx1112basic_stringIT_T0_T1_EEOS8_PKS5_,comdat
	.align	2
	.weak	_ZStplIcSt11char_traitsIcESaIcEENSt7__cxx1112basic_stringIT_T0_T1_EEOS8_PKS5_
	.type	_ZStplIcSt11char_traitsIcESaIcEENSt7__cxx1112basic_stringIT_T0_T1_EEOS8_PKS5_, %function
_ZStplIcSt11char_traitsIcESaIcEENSt7__cxx1112basic_stringIT_T0_T1_EEOS8_PKS5_:
.LFB4257:
	.cfi_startproc
	stp	x29, x30, [sp, -48]!
	.cfi_def_cfa_offset 48
	.cfi_offset 29, -48
	.cfi_offset 30, -40
	mov	x29, sp
	str	x19, [sp, 16]
	.cfi_offset 19, -32
	mov	x19, x8
	str	x0, [sp, 40]
	str	x1, [sp, 32]
	ldr	x1, [sp, 32]
	ldr	x0, [sp, 40]
	bl	_ZNSt7__cxx1112basic_stringIcSt11char_traitsIcESaIcEE6appendEPKc
	bl	_ZSt4moveIRNSt7__cxx1112basic_stringIcSt11char_traitsIcESaIcEEEEONSt16remove_referenceIT_E4typeEOS8_
	mov	x1, x0
	mov	x0, x19
	bl	_ZNSt7__cxx1112basic_stringIcSt11char_traitsIcESaIcEEC1EOS4_
	mov	x0, x19
	ldr	x19, [sp, 16]
	ldp	x29, x30, [sp], 48
	.cfi_restore 30
	.cfi_restore 29
	.cfi_restore 19
	.cfi_def_cfa_offset 0
	ret
	.cfi_endproc
.LFE4257:
	.size	_ZStplIcSt11char_traitsIcESaIcEENSt7__cxx1112basic_stringIT_T0_T1_EEOS8_PKS5_, .-_ZStplIcSt11char_traitsIcESaIcEENSt7__cxx1112basic_stringIT_T0_T1_EEOS8_PKS5_
	.section	.text._ZNSt6chrono8durationIlSt5ratioILl1ELl1000000EEEC2IivEERKT_,"axG",@progbits,_ZNSt6chrono8durationIlSt5ratioILl1ELl1000000EEEC5IivEERKT_,comdat
	.align	2
	.weak	_ZNSt6chrono8durationIlSt5ratioILl1ELl1000000EEEC2IivEERKT_
	.type	_ZNSt6chrono8durationIlSt5ratioILl1ELl1000000EEEC2IivEERKT_, %function
_ZNSt6chrono8durationIlSt5ratioILl1ELl1000000EEEC2IivEERKT_:
.LFB4259:
	.cfi_startproc
	sub	sp, sp, #16
	.cfi_def_cfa_offset 16
	str	x0, [sp, 8]
	str	x1, [sp]
	ldr	x0, [sp]
	ldr	w0, [x0]
	sxtw	x1, w0
	ldr	x0, [sp, 8]
	str	x1, [x0]
	nop
	add	sp, sp, 16
	.cfi_def_cfa_offset 0
	ret
	.cfi_endproc
.LFE4259:
	.size	_ZNSt6chrono8durationIlSt5ratioILl1ELl1000000EEEC2IivEERKT_, .-_ZNSt6chrono8durationIlSt5ratioILl1ELl1000000EEEC2IivEERKT_
	.weak	_ZNSt6chrono8durationIlSt5ratioILl1ELl1000000EEEC1IivEERKT_
	.set	_ZNSt6chrono8durationIlSt5ratioILl1ELl1000000EEEC1IivEERKT_,_ZNSt6chrono8durationIlSt5ratioILl1ELl1000000EEEC2IivEERKT_
	.section	.text._ZNSt6chronoleIlSt5ratioILl1ELl1000000EElS2_EEbRKNS_8durationIT_T0_EERKNS3_IT1_T2_EE,"axG",@progbits,_ZNSt6chronoleIlSt5ratioILl1ELl1000000EElS2_EEbRKNS_8durationIT_T0_EERKNS3_IT1_T2_EE,comdat
	.align	2
	.weak	_ZNSt6chronoleIlSt5ratioILl1ELl1000000EElS2_EEbRKNS_8durationIT_T0_EERKNS3_IT1_T2_EE
	.type	_ZNSt6chronoleIlSt5ratioILl1ELl1000000EElS2_EEbRKNS_8durationIT_T0_EERKNS3_IT1_T2_EE, %function
_ZNSt6chronoleIlSt5ratioILl1ELl1000000EElS2_EEbRKNS_8durationIT_T0_EERKNS3_IT1_T2_EE:
.LFB4262:
	.cfi_startproc
	stp	x29, x30, [sp, -32]!
	.cfi_def_cfa_offset 32
	.cfi_offset 29, -32
	.cfi_offset 30, -24
	mov	x29, sp
	str	x0, [sp, 24]
	str	x1, [sp, 16]
	ldr	x1, [sp, 24]
	ldr	x0, [sp, 16]
	bl	_ZNSt6chronoltIlSt5ratioILl1ELl1000000EElS2_EEbRKNS_8durationIT_T0_EERKNS3_IT1_T2_EE
	and	w0, w0, 255
	eor	w0, w0, 1
	and	w0, w0, 255
	ldp	x29, x30, [sp], 32
	.cfi_restore 30
	.cfi_restore 29
	.cfi_def_cfa_offset 0
	ret
	.cfi_endproc
.LFE4262:
	.size	_ZNSt6chronoleIlSt5ratioILl1ELl1000000EElS2_EEbRKNS_8durationIT_T0_EERKNS3_IT1_T2_EE, .-_ZNSt6chronoleIlSt5ratioILl1ELl1000000EElS2_EEbRKNS_8durationIT_T0_EERKNS3_IT1_T2_EE
	.section	.text._ZNSt6chrono8durationIlSt5ratioILl1ELl1000000EEE4zeroEv,"axG",@progbits,_ZNSt6chrono8durationIlSt5ratioILl1ELl1000000EEE4zeroEv,comdat
	.align	2
	.weak	_ZNSt6chrono8durationIlSt5ratioILl1ELl1000000EEE4zeroEv
	.type	_ZNSt6chrono8durationIlSt5ratioILl1ELl1000000EEE4zeroEv, %function
_ZNSt6chrono8durationIlSt5ratioILl1ELl1000000EEE4zeroEv:
.LFB4263:
	.cfi_startproc
	stp	x29, x30, [sp, -48]!
	.cfi_def_cfa_offset 48
	.cfi_offset 29, -48
	.cfi_offset 30, -40
	mov	x29, sp
	adrp	x0, :got:__stack_chk_guard
	ldr	x0, [x0, #:got_lo12:__stack_chk_guard]
	ldr	x1, [x0]
	str	x1, [sp, 40]
	mov	x1, 0
	bl	_ZNSt6chrono15duration_valuesIlE4zeroEv
	str	x0, [sp, 24]
	add	x1, sp, 24
	add	x0, sp, 32
	bl	_ZNSt6chrono8durationIlSt5ratioILl1ELl1000000EEEC1IlvEERKT_
	ldr	x0, [sp, 32]
	mov	x1, x0
	adrp	x0, :got:__stack_chk_guard
	ldr	x0, [x0, #:got_lo12:__stack_chk_guard]
	ldr	x3, [sp, 40]
	ldr	x2, [x0]
	subs	x3, x3, x2
	mov	x2, 0
	beq	.L294
	bl	__stack_chk_fail
.L294:
	mov	x0, x1
	ldp	x29, x30, [sp], 48
	.cfi_restore 30
	.cfi_restore 29
	.cfi_def_cfa_offset 0
	ret
	.cfi_endproc
.LFE4263:
	.size	_ZNSt6chrono8durationIlSt5ratioILl1ELl1000000EEE4zeroEv, .-_ZNSt6chrono8durationIlSt5ratioILl1ELl1000000EEE4zeroEv
	.section	.text._ZNSt6chrono13duration_castINS_8durationIlSt5ratioILl1ELl1EEEElS2_ILl1ELl1000000EEEENSt9enable_ifIXsrNS_13__is_durationIT_EE5valueES8_E4typeERKNS1_IT0_T1_EE,"axG",@progbits,_ZNSt6chrono13duration_castINS_8durationIlSt5ratioILl1ELl1EEEElS2_ILl1ELl1000000EEEENSt9enable_ifIXsrNS_13__is_durationIT_EE5valueES8_E4typeERKNS1_IT0_T1_EE,comdat
	.align	2
	.weak	_ZNSt6chrono13duration_castINS_8durationIlSt5ratioILl1ELl1EEEElS2_ILl1ELl1000000EEEENSt9enable_ifIXsrNS_13__is_durationIT_EE5valueES8_E4typeERKNS1_IT0_T1_EE
	.type	_ZNSt6chrono13duration_castINS_8durationIlSt5ratioILl1ELl1EEEElS2_ILl1ELl1000000EEEENSt9enable_ifIXsrNS_13__is_durationIT_EE5valueES8_E4typeERKNS1_IT0_T1_EE, %function
_ZNSt6chrono13duration_castINS_8durationIlSt5ratioILl1ELl1EEEElS2_ILl1ELl1000000EEEENSt9enable_ifIXsrNS_13__is_durationIT_EE5valueES8_E4typeERKNS1_IT0_T1_EE:
.LFB4264:
	.cfi_startproc
	stp	x29, x30, [sp, -32]!
	.cfi_def_cfa_offset 32
	.cfi_offset 29, -32
	.cfi_offset 30, -24
	mov	x29, sp
	str	x0, [sp, 24]
	ldr	x0, [sp, 24]
	bl	_ZNSt6chrono20__duration_cast_implINS_8durationIlSt5ratioILl1ELl1EEEES2_ILl1ELl1000000EElLb1ELb0EE6__castIlS5_EES4_RKNS1_IT_T0_EE
	ldp	x29, x30, [sp], 32
	.cfi_restore 30
	.cfi_restore 29
	.cfi_def_cfa_offset 0
	ret
	.cfi_endproc
.LFE4264:
	.size	_ZNSt6chrono13duration_castINS_8durationIlSt5ratioILl1ELl1EEEElS2_ILl1ELl1000000EEEENSt9enable_ifIXsrNS_13__is_durationIT_EE5valueES8_E4typeERKNS1_IT0_T1_EE, .-_ZNSt6chrono13duration_castINS_8durationIlSt5ratioILl1ELl1EEEElS2_ILl1ELl1000000EEEENSt9enable_ifIXsrNS_13__is_durationIT_EE5valueES8_E4typeERKNS1_IT0_T1_EE
	.section	.text._ZNSt6chrono13duration_castINS_8durationIlSt5ratioILl1ELl1000000000EEEElS2_ILl1ELl1000000EEEENSt9enable_ifIXsrNS_13__is_durationIT_EE5valueES8_E4typeERKNS1_IT0_T1_EE,"axG",@progbits,_ZNSt6chrono13duration_castINS_8durationIlSt5ratioILl1ELl1000000000EEEElS2_ILl1ELl1000000EEEENSt9enable_ifIXsrNS_13__is_durationIT_EE5valueES8_E4typeERKNS1_IT0_T1_EE,comdat
	.align	2
	.weak	_ZNSt6chrono13duration_castINS_8durationIlSt5ratioILl1ELl1000000000EEEElS2_ILl1ELl1000000EEEENSt9enable_ifIXsrNS_13__is_durationIT_EE5valueES8_E4typeERKNS1_IT0_T1_EE
	.type	_ZNSt6chrono13duration_castINS_8durationIlSt5ratioILl1ELl1000000000EEEElS2_ILl1ELl1000000EEEENSt9enable_ifIXsrNS_13__is_durationIT_EE5valueES8_E4typeERKNS1_IT0_T1_EE, %function
_ZNSt6chrono13duration_castINS_8durationIlSt5ratioILl1ELl1000000000EEEElS2_ILl1ELl1000000EEEENSt9enable_ifIXsrNS_13__is_durationIT_EE5valueES8_E4typeERKNS1_IT0_T1_EE:
.LFB4265:
	.cfi_startproc
	stp	x29, x30, [sp, -32]!
	.cfi_def_cfa_offset 32
	.cfi_offset 29, -32
	.cfi_offset 30, -24
	mov	x29, sp
	str	x0, [sp, 24]
	ldr	x0, [sp, 24]
	bl	_ZNSt6chrono20__duration_cast_implINS_8durationIlSt5ratioILl1ELl1000000000EEEES2_ILl1000ELl1EElLb0ELb1EE6__castIlS2_ILl1ELl1000000EEEES4_RKNS1_IT_T0_EE
	ldp	x29, x30, [sp], 32
	.cfi_restore 30
	.cfi_restore 29
	.cfi_def_cfa_offset 0
	ret
	.cfi_endproc
.LFE4265:
	.size	_ZNSt6chrono13duration_castINS_8durationIlSt5ratioILl1ELl1000000000EEEElS2_ILl1ELl1000000EEEENSt9enable_ifIXsrNS_13__is_durationIT_EE5valueES8_E4typeERKNS1_IT0_T1_EE, .-_ZNSt6chrono13duration_castINS_8durationIlSt5ratioILl1ELl1000000000EEEElS2_ILl1ELl1000000EEEENSt9enable_ifIXsrNS_13__is_durationIT_EE5valueES8_E4typeERKNS1_IT0_T1_EE
	.section	.text._ZNKSt6chrono8durationIlSt5ratioILl1ELl1000000EEE5countEv,"axG",@progbits,_ZNKSt6chrono8durationIlSt5ratioILl1ELl1000000EEE5countEv,comdat
	.align	2
	.weak	_ZNKSt6chrono8durationIlSt5ratioILl1ELl1000000EEE5countEv
	.type	_ZNKSt6chrono8durationIlSt5ratioILl1ELl1000000EEE5countEv, %function
_ZNKSt6chrono8durationIlSt5ratioILl1ELl1000000EEE5countEv:
.LFB4268:
	.cfi_startproc
	sub	sp, sp, #16
	.cfi_def_cfa_offset 16
	str	x0, [sp, 8]
	ldr	x0, [sp, 8]
	ldr	x0, [x0]
	add	sp, sp, 16
	.cfi_def_cfa_offset 0
	ret
	.cfi_endproc
.LFE4268:
	.size	_ZNKSt6chrono8durationIlSt5ratioILl1ELl1000000EEE5countEv, .-_ZNKSt6chrono8durationIlSt5ratioILl1ELl1000000EEE5countEv
	.section	.text._ZNSt6chronomiIlSt5ratioILl1ELl1000000EElS1_ILl1ELl1EEEENSt11common_typeIJNS_8durationIT_T0_EENS5_IT1_T2_EEEE4typeERKS8_RKSB_,"axG",@progbits,_ZNSt6chronomiIlSt5ratioILl1ELl1000000EElS1_ILl1ELl1EEEENSt11common_typeIJNS_8durationIT_T0_EENS5_IT1_T2_EEEE4typeERKS8_RKSB_,comdat
	.align	2
	.weak	_ZNSt6chronomiIlSt5ratioILl1ELl1000000EElS1_ILl1ELl1EEEENSt11common_typeIJNS_8durationIT_T0_EENS5_IT1_T2_EEEE4typeERKS8_RKSB_
	.type	_ZNSt6chronomiIlSt5ratioILl1ELl1000000EElS1_ILl1ELl1EEEENSt11common_typeIJNS_8durationIT_T0_EENS5_IT1_T2_EEEE4typeERKS8_RKSB_, %function
_ZNSt6chronomiIlSt5ratioILl1ELl1000000EElS1_ILl1ELl1EEEENSt11common_typeIJNS_8durationIT_T0_EENS5_IT1_T2_EEEE4typeERKS8_RKSB_:
.LFB4266:
	.cfi_startproc
	stp	x29, x30, [sp, -96]!
	.cfi_def_cfa_offset 96
	.cfi_offset 29, -96
	.cfi_offset 30, -88
	mov	x29, sp
	str	x19, [sp, 16]
	.cfi_offset 19, -80
	str	x0, [sp, 40]
	str	x1, [sp, 32]
	adrp	x0, :got:__stack_chk_guard
	ldr	x0, [x0, #:got_lo12:__stack_chk_guard]
	ldr	x1, [x0]
	str	x1, [sp, 88]
	mov	x1, 0
	ldr	x0, [sp, 40]
	ldr	x0, [x0]
	str	x0, [sp, 56]
	add	x0, sp, 56
	bl	_ZNKSt6chrono8durationIlSt5ratioILl1ELl1000000EEE5countEv
	mov	x19, x0
	add	x0, sp, 64
	ldr	x1, [sp, 32]
	bl	_ZNSt6chrono8durationIlSt5ratioILl1ELl1000000EEEC1IlS1_ILl1ELl1EEvEERKNS0_IT_T0_EE
	add	x0, sp, 64
	bl	_ZNKSt6chrono8durationIlSt5ratioILl1ELl1000000EEE5countEv
	sub	x0, x19, x0
	str	x0, [sp, 72]
	add	x1, sp, 72
	add	x0, sp, 80
	bl	_ZNSt6chrono8durationIlSt5ratioILl1ELl1000000EEEC1IlvEERKT_
	ldr	x0, [sp, 80]
	mov	x1, x0
	adrp	x0, :got:__stack_chk_guard
	ldr	x0, [x0, #:got_lo12:__stack_chk_guard]
	ldr	x3, [sp, 88]
	ldr	x2, [x0]
	subs	x3, x3, x2
	mov	x2, 0
	beq	.L303
	bl	__stack_chk_fail
.L303:
	mov	x0, x1
	ldr	x19, [sp, 16]
	ldp	x29, x30, [sp], 96
	.cfi_restore 30
	.cfi_restore 29
	.cfi_restore 19
	.cfi_def_cfa_offset 0
	ret
	.cfi_endproc
.LFE4266:
	.size	_ZNSt6chronomiIlSt5ratioILl1ELl1000000EElS1_ILl1ELl1EEEENSt11common_typeIJNS_8durationIT_T0_EENS5_IT1_T2_EEEE4typeERKS8_RKSB_, .-_ZNSt6chronomiIlSt5ratioILl1ELl1000000EElS1_ILl1ELl1EEEENSt11common_typeIJNS_8durationIT_T0_EENS5_IT1_T2_EEEE4typeERKS8_RKSB_
	.section	.text._ZNSt11this_thread9sleep_forIlSt5ratioILl1ELl1000000EEEEvRKNSt6chrono8durationIT_T0_EE,"axG",@progbits,_ZNSt11this_thread9sleep_forIlSt5ratioILl1ELl1000000EEEEvRKNSt6chrono8durationIT_T0_EE,comdat
	.align	2
	.weak	_ZNSt11this_thread9sleep_forIlSt5ratioILl1ELl1000000EEEEvRKNSt6chrono8durationIT_T0_EE
	.type	_ZNSt11this_thread9sleep_forIlSt5ratioILl1ELl1000000EEEEvRKNSt6chrono8durationIT_T0_EE, %function
_ZNSt11this_thread9sleep_forIlSt5ratioILl1ELl1000000EEEEvRKNSt6chrono8durationIT_T0_EE:
.LFB4261:
	.cfi_startproc
	stp	x29, x30, [sp, -80]!
	.cfi_def_cfa_offset 80
	.cfi_offset 29, -80
	.cfi_offset 30, -72
	mov	x29, sp
	str	x0, [sp, 24]
	adrp	x0, :got:__stack_chk_guard
	ldr	x0, [x0, #:got_lo12:__stack_chk_guard]
	ldr	x1, [x0]
	str	x1, [sp, 72]
	mov	x1, 0
	bl	_ZNSt6chrono8durationIlSt5ratioILl1ELl1000000EEE4zeroEv
	str	x0, [sp, 56]
	add	x0, sp, 56
	mov	x1, x0
	ldr	x0, [sp, 24]
	bl	_ZNSt6chronoleIlSt5ratioILl1ELl1000000EElS2_EEbRKNS_8durationIT_T0_EERKNS3_IT1_T2_EE
	and	w0, w0, 255
	cmp	w0, 0
	bne	.L311
	ldr	x0, [sp, 24]
	bl	_ZNSt6chrono13duration_castINS_8durationIlSt5ratioILl1ELl1EEEElS2_ILl1ELl1000000EEEENSt9enable_ifIXsrNS_13__is_durationIT_EE5valueES8_E4typeERKNS1_IT0_T1_EE
	str	x0, [sp, 40]
	add	x0, sp, 40
	mov	x1, x0
	ldr	x0, [sp, 24]
	bl	_ZNSt6chronomiIlSt5ratioILl1ELl1000000EElS1_ILl1ELl1EEEENSt11common_typeIJNS_8durationIT_T0_EENS5_IT1_T2_EEEE4typeERKS8_RKSB_
	str	x0, [sp, 56]
	add	x0, sp, 56
	bl	_ZNSt6chrono13duration_castINS_8durationIlSt5ratioILl1ELl1000000000EEEElS2_ILl1ELl1000000EEEENSt9enable_ifIXsrNS_13__is_durationIT_EE5valueES8_E4typeERKNS1_IT0_T1_EE
	str	x0, [sp, 48]
	add	x0, sp, 40
	bl	_ZNKSt6chrono8durationIlSt5ratioILl1ELl1EEE5countEv
	str	x0, [sp, 56]
	add	x0, sp, 48
	bl	_ZNKSt6chrono8durationIlSt5ratioILl1ELl1000000000EEE5countEv
	str	x0, [sp, 64]
	nop
.L309:
	add	x1, sp, 56
	add	x0, sp, 56
	bl	nanosleep
	cmn	w0, #1
	bne	.L307
	bl	__errno_location
	ldr	w0, [x0]
	cmp	w0, 4
	bne	.L307
	mov	w0, 1
	b	.L308
.L307:
	mov	w0, 0
.L308:
	cmp	w0, 0
	bne	.L309
	b	.L304
.L311:
	nop
.L304:
	adrp	x0, :got:__stack_chk_guard
	ldr	x0, [x0, #:got_lo12:__stack_chk_guard]
	ldr	x2, [sp, 72]
	ldr	x1, [x0]
	subs	x2, x2, x1
	mov	x1, 0
	beq	.L310
	bl	__stack_chk_fail
.L310:
	ldp	x29, x30, [sp], 80
	.cfi_restore 30
	.cfi_restore 29
	.cfi_def_cfa_offset 0
	ret
	.cfi_endproc
.LFE4261:
	.size	_ZNSt11this_thread9sleep_forIlSt5ratioILl1ELl1000000EEEEvRKNSt6chrono8durationIT_T0_EE, .-_ZNSt11this_thread9sleep_forIlSt5ratioILl1ELl1000000EEEEvRKNSt6chrono8durationIT_T0_EE
	.section	.text._ZSt10make_tupleIJmRA5_KcM12SimpleStructiEESt5tupleIJDpNSt25__strip_reference_wrapperINSt5decayIT_E4typeEE6__typeEEEDpOS8_,"axG",@progbits,_ZSt10make_tupleIJmRA5_KcM12SimpleStructiEESt5tupleIJDpNSt25__strip_reference_wrapperINSt5decayIT_E4typeEE6__typeEEEDpOS8_,comdat
	.align	2
	.weak	_ZSt10make_tupleIJmRA5_KcM12SimpleStructiEESt5tupleIJDpNSt25__strip_reference_wrapperINSt5decayIT_E4typeEE6__typeEEEDpOS8_
	.type	_ZSt10make_tupleIJmRA5_KcM12SimpleStructiEESt5tupleIJDpNSt25__strip_reference_wrapperINSt5decayIT_E4typeEE6__typeEEEDpOS8_, %function
_ZSt10make_tupleIJmRA5_KcM12SimpleStructiEESt5tupleIJDpNSt25__strip_reference_wrapperINSt5decayIT_E4typeEE6__typeEEEDpOS8_:
.LFB4269:
	.cfi_startproc
	stp	x29, x30, [sp, -80]!
	.cfi_def_cfa_offset 80
	.cfi_offset 29, -80
	.cfi_offset 30, -72
	mov	x29, sp
	stp	x19, x20, [sp, 16]
	str	x21, [sp, 32]
	.cfi_offset 19, -64
	.cfi_offset 20, -56
	.cfi_offset 21, -48
	mov	x19, x8
	str	x0, [sp, 72]
	str	x1, [sp, 64]
	str	x2, [sp, 56]
	ldr	x0, [sp, 72]
	bl	_ZSt7forwardImEOT_RNSt16remove_referenceIS0_E4typeE
	mov	x20, x0
	ldr	x0, [sp, 64]
	bl	_ZSt7forwardIRA5_KcEOT_RNSt16remove_referenceIS3_E4typeE
	mov	x21, x0
	ldr	x0, [sp, 56]
	bl	_ZSt7forwardIM12SimpleStructiEOT_RNSt16remove_referenceIS2_E4typeE
	mov	x3, x0
	mov	x2, x21
	mov	x1, x20
	mov	x0, x19
	bl	_ZNSt5tupleIJmPKcM12SimpleStructiEEC1IJmRA5_S0_S3_ELb1ELb1EEEDpOT_
	mov	x0, x19
	ldp	x19, x20, [sp, 16]
	ldr	x21, [sp, 32]
	ldp	x29, x30, [sp], 80
	.cfi_restore 30
	.cfi_restore 29
	.cfi_restore 21
	.cfi_restore 19
	.cfi_restore 20
	.cfi_def_cfa_offset 0
	ret
	.cfi_endproc
.LFE4269:
	.size	_ZSt10make_tupleIJmRA5_KcM12SimpleStructiEESt5tupleIJDpNSt25__strip_reference_wrapperINSt5decayIT_E4typeEE6__typeEEEDpOS8_, .-_ZSt10make_tupleIJmRA5_KcM12SimpleStructiEESt5tupleIJDpNSt25__strip_reference_wrapperINSt5decayIT_E4typeEE6__typeEEEDpOS8_
	.section	.text._ZSt10make_tupleIJmRA7_KcM12SimpleStructiEESt5tupleIJDpNSt25__strip_reference_wrapperINSt5decayIT_E4typeEE6__typeEEEDpOS8_,"axG",@progbits,_ZSt10make_tupleIJmRA7_KcM12SimpleStructiEESt5tupleIJDpNSt25__strip_reference_wrapperINSt5decayIT_E4typeEE6__typeEEEDpOS8_,comdat
	.align	2
	.weak	_ZSt10make_tupleIJmRA7_KcM12SimpleStructiEESt5tupleIJDpNSt25__strip_reference_wrapperINSt5decayIT_E4typeEE6__typeEEEDpOS8_
	.type	_ZSt10make_tupleIJmRA7_KcM12SimpleStructiEESt5tupleIJDpNSt25__strip_reference_wrapperINSt5decayIT_E4typeEE6__typeEEEDpOS8_, %function
_ZSt10make_tupleIJmRA7_KcM12SimpleStructiEESt5tupleIJDpNSt25__strip_reference_wrapperINSt5decayIT_E4typeEE6__typeEEEDpOS8_:
.LFB4281:
	.cfi_startproc
	stp	x29, x30, [sp, -80]!
	.cfi_def_cfa_offset 80
	.cfi_offset 29, -80
	.cfi_offset 30, -72
	mov	x29, sp
	stp	x19, x20, [sp, 16]
	str	x21, [sp, 32]
	.cfi_offset 19, -64
	.cfi_offset 20, -56
	.cfi_offset 21, -48
	mov	x19, x8
	str	x0, [sp, 72]
	str	x1, [sp, 64]
	str	x2, [sp, 56]
	ldr	x0, [sp, 72]
	bl	_ZSt7forwardImEOT_RNSt16remove_referenceIS0_E4typeE
	mov	x20, x0
	ldr	x0, [sp, 64]
	bl	_ZSt7forwardIRA7_KcEOT_RNSt16remove_referenceIS3_E4typeE
	mov	x21, x0
	ldr	x0, [sp, 56]
	bl	_ZSt7forwardIM12SimpleStructiEOT_RNSt16remove_referenceIS2_E4typeE
	mov	x3, x0
	mov	x2, x21
	mov	x1, x20
	mov	x0, x19
	bl	_ZNSt5tupleIJmPKcM12SimpleStructiEEC1IJmRA7_S0_S3_ELb1ELb1EEEDpOT_
	mov	x0, x19
	ldp	x19, x20, [sp, 16]
	ldr	x21, [sp, 32]
	ldp	x29, x30, [sp], 80
	.cfi_restore 30
	.cfi_restore 29
	.cfi_restore 21
	.cfi_restore 19
	.cfi_restore 20
	.cfi_def_cfa_offset 0
	ret
	.cfi_endproc
.LFE4281:
	.size	_ZSt10make_tupleIJmRA7_KcM12SimpleStructiEESt5tupleIJDpNSt25__strip_reference_wrapperINSt5decayIT_E4typeEE6__typeEEEDpOS8_, .-_ZSt10make_tupleIJmRA7_KcM12SimpleStructiEESt5tupleIJDpNSt25__strip_reference_wrapperINSt5decayIT_E4typeEE6__typeEEEDpOS8_
	.section	.text._ZSt10make_tupleIJmRA10_KcM12SimpleStructdEESt5tupleIJDpNSt25__strip_reference_wrapperINSt5decayIT_E4typeEE6__typeEEEDpOS8_,"axG",@progbits,_ZSt10make_tupleIJmRA10_KcM12SimpleStructdEESt5tupleIJDpNSt25__strip_reference_wrapperINSt5decayIT_E4typeEE6__typeEEEDpOS8_,comdat
	.align	2
	.weak	_ZSt10make_tupleIJmRA10_KcM12SimpleStructdEESt5tupleIJDpNSt25__strip_reference_wrapperINSt5decayIT_E4typeEE6__typeEEEDpOS8_
	.type	_ZSt10make_tupleIJmRA10_KcM12SimpleStructdEESt5tupleIJDpNSt25__strip_reference_wrapperINSt5decayIT_E4typeEE6__typeEEEDpOS8_, %function
_ZSt10make_tupleIJmRA10_KcM12SimpleStructdEESt5tupleIJDpNSt25__strip_reference_wrapperINSt5decayIT_E4typeEE6__typeEEEDpOS8_:
.LFB4286:
	.cfi_startproc
	stp	x29, x30, [sp, -80]!
	.cfi_def_cfa_offset 80
	.cfi_offset 29, -80
	.cfi_offset 30, -72
	mov	x29, sp
	stp	x19, x20, [sp, 16]
	str	x21, [sp, 32]
	.cfi_offset 19, -64
	.cfi_offset 20, -56
	.cfi_offset 21, -48
	mov	x19, x8
	str	x0, [sp, 72]
	str	x1, [sp, 64]
	str	x2, [sp, 56]
	ldr	x0, [sp, 72]
	bl	_ZSt7forwardImEOT_RNSt16remove_referenceIS0_E4typeE
	mov	x20, x0
	ldr	x0, [sp, 64]
	bl	_ZSt7forwardIRA10_KcEOT_RNSt16remove_referenceIS3_E4typeE
	mov	x21, x0
	ldr	x0, [sp, 56]
	bl	_ZSt7forwardIM12SimpleStructdEOT_RNSt16remove_referenceIS2_E4typeE
	mov	x3, x0
	mov	x2, x21
	mov	x1, x20
	mov	x0, x19
	bl	_ZNSt5tupleIJmPKcM12SimpleStructdEEC1IJmRA10_S0_S3_ELb1ELb1EEEDpOT_
	mov	x0, x19
	ldp	x19, x20, [sp, 16]
	ldr	x21, [sp, 32]
	ldp	x29, x30, [sp], 80
	.cfi_restore 30
	.cfi_restore 29
	.cfi_restore 21
	.cfi_restore 19
	.cfi_restore 20
	.cfi_def_cfa_offset 0
	ret
	.cfi_endproc
.LFE4286:
	.size	_ZSt10make_tupleIJmRA10_KcM12SimpleStructdEESt5tupleIJDpNSt25__strip_reference_wrapperINSt5decayIT_E4typeEE6__typeEEEDpOS8_, .-_ZSt10make_tupleIJmRA10_KcM12SimpleStructdEESt5tupleIJDpNSt25__strip_reference_wrapperINSt5decayIT_E4typeEE6__typeEEEDpOS8_
	.section	.text._ZSt10make_tupleIJmRA10_KcM12SimpleStructNSt7__cxx1112basic_stringIcSt11char_traitsIcESaIcEEEEESt5tupleIJDpNSt25__strip_reference_wrapperINSt5decayIT_E4typeEE6__typeEEEDpOSE_,"axG",@progbits,_ZSt10make_tupleIJmRA10_KcM12SimpleStructNSt7__cxx1112basic_stringIcSt11char_traitsIcESaIcEEEEESt5tupleIJDpNSt25__strip_reference_wrapperINSt5decayIT_E4typeEE6__typeEEEDpOSE_,comdat
	.align	2
	.weak	_ZSt10make_tupleIJmRA10_KcM12SimpleStructNSt7__cxx1112basic_stringIcSt11char_traitsIcESaIcEEEEESt5tupleIJDpNSt25__strip_reference_wrapperINSt5decayIT_E4typeEE6__typeEEEDpOSE_
	.type	_ZSt10make_tupleIJmRA10_KcM12SimpleStructNSt7__cxx1112basic_stringIcSt11char_traitsIcESaIcEEEEESt5tupleIJDpNSt25__strip_reference_wrapperINSt5decayIT_E4typeEE6__typeEEEDpOSE_, %function
_ZSt10make_tupleIJmRA10_KcM12SimpleStructNSt7__cxx1112basic_stringIcSt11char_traitsIcESaIcEEEEESt5tupleIJDpNSt25__strip_reference_wrapperINSt5decayIT_E4typeEE6__typeEEEDpOSE_:
.LFB4297:
	.cfi_startproc
	stp	x29, x30, [sp, -80]!
	.cfi_def_cfa_offset 80
	.cfi_offset 29, -80
	.cfi_offset 30, -72
	mov	x29, sp
	stp	x19, x20, [sp, 16]
	str	x21, [sp, 32]
	.cfi_offset 19, -64
	.cfi_offset 20, -56
	.cfi_offset 21, -48
	mov	x19, x8
	str	x0, [sp, 72]
	str	x1, [sp, 64]
	str	x2, [sp, 56]
	ldr	x0, [sp, 72]
	bl	_ZSt7forwardImEOT_RNSt16remove_referenceIS0_E4typeE
	mov	x20, x0
	ldr	x0, [sp, 64]
	bl	_ZSt7forwardIRA10_KcEOT_RNSt16remove_referenceIS3_E4typeE
	mov	x21, x0
	ldr	x0, [sp, 56]
	bl	_ZSt7forwardIM12SimpleStructNSt7__cxx1112basic_stringIcSt11char_traitsIcESaIcEEEEOT_RNSt16remove_referenceIS8_E4typeE
	mov	x3, x0
	mov	x2, x21
	mov	x1, x20
	mov	x0, x19
	bl	_ZNSt5tupleIJmPKcM12SimpleStructNSt7__cxx1112basic_stringIcSt11char_traitsIcESaIcEEEEEC1IJmRA10_S0_S9_ELb1ELb1EEEDpOT_
	mov	x0, x19
	ldp	x19, x20, [sp, 16]
	ldr	x21, [sp, 32]
	ldp	x29, x30, [sp], 80
	.cfi_restore 30
	.cfi_restore 29
	.cfi_restore 21
	.cfi_restore 19
	.cfi_restore 20
	.cfi_def_cfa_offset 0
	ret
	.cfi_endproc
.LFE4297:
	.size	_ZSt10make_tupleIJmRA10_KcM12SimpleStructNSt7__cxx1112basic_stringIcSt11char_traitsIcESaIcEEEEESt5tupleIJDpNSt25__strip_reference_wrapperINSt5decayIT_E4typeEE6__typeEEEDpOSE_, .-_ZSt10make_tupleIJmRA10_KcM12SimpleStructNSt7__cxx1112basic_stringIcSt11char_traitsIcESaIcEEEEESt5tupleIJDpNSt25__strip_reference_wrapperINSt5decayIT_E4typeEE6__typeEEEDpOSE_
	.section	.text._ZSt10make_tupleIJSt5tupleIJmPKcM12SimpleStructiEES5_S0_IJmS2_MS3_dEES0_IJmS2_MS3_NSt7__cxx1112basic_stringIcSt11char_traitsIcESaIcEEEEEEES0_IJDpNSt25__strip_reference_wrapperINSt5decayIT_E4typeEE6__typeEEEDpOSI_,"axG",@progbits,_ZSt10make_tupleIJSt5tupleIJmPKcM12SimpleStructiEES5_S0_IJmS2_MS3_dEES0_IJmS2_MS3_NSt7__cxx1112basic_stringIcSt11char_traitsIcESaIcEEEEEEES0_IJDpNSt25__strip_reference_wrapperINSt5decayIT_E4typeEE6__typeEEEDpOSI_,comdat
	.align	2
	.weak	_ZSt10make_tupleIJSt5tupleIJmPKcM12SimpleStructiEES5_S0_IJmS2_MS3_dEES0_IJmS2_MS3_NSt7__cxx1112basic_stringIcSt11char_traitsIcESaIcEEEEEEES0_IJDpNSt25__strip_reference_wrapperINSt5decayIT_E4typeEE6__typeEEEDpOSI_
	.type	_ZSt10make_tupleIJSt5tupleIJmPKcM12SimpleStructiEES5_S0_IJmS2_MS3_dEES0_IJmS2_MS3_NSt7__cxx1112basic_stringIcSt11char_traitsIcESaIcEEEEEEES0_IJDpNSt25__strip_reference_wrapperINSt5decayIT_E4typeEE6__typeEEEDpOSI_, %function
_ZSt10make_tupleIJSt5tupleIJmPKcM12SimpleStructiEES5_S0_IJmS2_MS3_dEES0_IJmS2_MS3_NSt7__cxx1112basic_stringIcSt11char_traitsIcESaIcEEEEEEES0_IJDpNSt25__strip_reference_wrapperINSt5decayIT_E4typeEE6__typeEEEDpOSI_:
.LFB4308:
	.cfi_startproc
	stp	x29, x30, [sp, -80]!
	.cfi_def_cfa_offset 80
	.cfi_offset 29, -80
	.cfi_offset 30, -72
	mov	x29, sp
	stp	x19, x20, [sp, 16]
	stp	x21, x22, [sp, 32]
	.cfi_offset 19, -64
	.cfi_offset 20, -56
	.cfi_offset 21, -48
	.cfi_offset 22, -40
	mov	x19, x8
	str	x0, [sp, 72]
	str	x1, [sp, 64]
	str	x2, [sp, 56]
	str	x3, [sp, 48]
	ldr	x0, [sp, 72]
	bl	_ZSt7forwardISt5tupleIJmPKcM12SimpleStructiEEEOT_RNSt16remove_referenceIS6_E4typeE
	mov	x20, x0
	ldr	x0, [sp, 64]
	bl	_ZSt7forwardISt5tupleIJmPKcM12SimpleStructiEEEOT_RNSt16remove_referenceIS6_E4typeE
	mov	x21, x0
	ldr	x0, [sp, 56]
	bl	_ZSt7forwardISt5tupleIJmPKcM12SimpleStructdEEEOT_RNSt16remove_referenceIS6_E4typeE
	mov	x22, x0
	ldr	x0, [sp, 48]
	bl	_ZSt7forwardISt5tupleIJmPKcM12SimpleStructNSt7__cxx1112basic_stringIcSt11char_traitsIcESaIcEEEEEEOT_RNSt16remove_referenceISC_E4typeE
	mov	x4, x0
	mov	x3, x22
	mov	x2, x21
	mov	x1, x20
	mov	x0, x19
	bl	_ZNSt5tupleIJS_IJmPKcM12SimpleStructiEES4_S_IJmS1_MS2_dEES_IJmS1_MS2_NSt7__cxx1112basic_stringIcSt11char_traitsIcESaIcEEEEEEEC1IJS4_S4_S6_SE_ELb1ELb1EEEDpOT_
	mov	x0, x19
	ldp	x19, x20, [sp, 16]
	ldp	x21, x22, [sp, 32]
	ldp	x29, x30, [sp], 80
	.cfi_restore 30
	.cfi_restore 29
	.cfi_restore 21
	.cfi_restore 22
	.cfi_restore 19
	.cfi_restore 20
	.cfi_def_cfa_offset 0
	ret
	.cfi_endproc
.LFE4308:
	.size	_ZSt10make_tupleIJSt5tupleIJmPKcM12SimpleStructiEES5_S0_IJmS2_MS3_dEES0_IJmS2_MS3_NSt7__cxx1112basic_stringIcSt11char_traitsIcESaIcEEEEEEES0_IJDpNSt25__strip_reference_wrapperINSt5decayIT_E4typeEE6__typeEEEDpOSI_, .-_ZSt10make_tupleIJSt5tupleIJmPKcM12SimpleStructiEES5_S0_IJmS2_MS3_dEES0_IJmS2_MS3_NSt7__cxx1112basic_stringIcSt11char_traitsIcESaIcEEEEEEES0_IJDpNSt25__strip_reference_wrapperINSt5decayIT_E4typeEE6__typeEEEDpOSI_
	.section	.text._ZN9FieldInfoD2Ev,"axG",@progbits,_ZN9FieldInfoD5Ev,comdat
	.align	2
	.weak	_ZN9FieldInfoD2Ev
	.type	_ZN9FieldInfoD2Ev, %function
_ZN9FieldInfoD2Ev:
.LFB4323:
	.cfi_startproc
	stp	x29, x30, [sp, -32]!
	.cfi_def_cfa_offset 32
	.cfi_offset 29, -32
	.cfi_offset 30, -24
	mov	x29, sp
	str	x0, [sp, 24]
	ldr	x0, [sp, 24]
	bl	_ZNSt7__cxx1112basic_stringIcSt11char_traitsIcESaIcEED1Ev
	nop
	ldp	x29, x30, [sp], 32
	.cfi_restore 30
	.cfi_restore 29
	.cfi_def_cfa_offset 0
	ret
	.cfi_endproc
.LFE4323:
	.size	_ZN9FieldInfoD2Ev, .-_ZN9FieldInfoD2Ev
	.weak	_ZN9FieldInfoD1Ev
	.set	_ZN9FieldInfoD1Ev,_ZN9FieldInfoD2Ev
	.section	.rodata
	.align	3
.LC28:
	.string	" PRIMARY KEY"
	.align	3
.LC29:
	.string	" NOT NULL"
	.align	3
.LC30:
	.string	" UNIQUE"
	.section	.text._ZN14FieldContraintC2I12SimpleStructiEEMT_T0_i,"axG",@progbits,_ZN14FieldContraintC5I12SimpleStructiEEMT_T0_i,comdat
	.align	2
	.weak	_ZN14FieldContraintC2I12SimpleStructiEEMT_T0_i
	.type	_ZN14FieldContraintC2I12SimpleStructiEEMT_T0_i, %function
_ZN14FieldContraintC2I12SimpleStructiEEMT_T0_i:
.LFB4325:
	.cfi_startproc
	.cfi_personality 0x9b,DW.ref.__gxx_personality_v0
	.cfi_lsda 0x1b,.LLSDA4325
	stp	x29, x30, [sp, -128]!
	.cfi_def_cfa_offset 128
	.cfi_offset 29, -128
	.cfi_offset 30, -120
	mov	x29, sp
	str	x19, [sp, 16]
	.cfi_offset 19, -112
	str	x0, [sp, 56]
	str	x1, [sp, 48]
	str	w2, [sp, 44]
	adrp	x0, :got:__stack_chk_guard
	ldr	x0, [x0, #:got_lo12:__stack_chk_guard]
	ldr	x1, [x0]
	str	x1, [sp, 120]
	mov	x1, 0
	ldr	x0, [sp, 56]
	bl	_ZNSt7__cxx1112basic_stringIcSt11char_traitsIcESaIcEEC1Ev
	ldr	x0, [sp, 56]
	add	x0, x0, 32
	bl	_ZNSt7__cxx1112basic_stringIcSt11char_traitsIcESaIcEEC1Ev
	bl	_ZN5boost9typeindex16type_id_with_cvrIM12SimpleStructiEENS0_14stl_type_indexEv
	str	x0, [sp, 72]
	add	x0, sp, 72
	mov	x1, x0
	adrp	x0, :got:_ZSt4cout
	ldr	x0, [x0, #:got_lo12:_ZSt4cout]
.LEHB82:
	bl	_ZN5boost9typeindexlsIcSt11char_traitsIcENS0_14stl_type_indexESt9type_infoEERSt13basic_ostreamIT_T0_ESA_RKNS0_17type_index_facadeIT1_T2_EE
	mov	x2, x0
	adrp	x0, :got:_ZSt4endlIcSt11char_traitsIcEERSt13basic_ostreamIT_T0_ES6_
	ldr	x1, [x0, #:got_lo12:_ZSt4endlIcSt11char_traitsIcEERSt13basic_ostreamIT_T0_ES6_]
	mov	x0, x2
	bl	_ZNSolsEPFRSoS_E
	add	x0, sp, 80
	mov	x8, x0
	ldr	x0, [sp, 48]
	bl	_Z18GetStructFieldInfoI12SimpleStructiE9FieldInfoMT_T0_
.LEHE82:
	ldr	x0, [sp, 56]
	add	x1, sp, 80
.LEHB83:
	bl	_ZNSt7__cxx1112basic_stringIcSt11char_traitsIcESaIcEEaSERKS4_
	ldr	w0, [sp, 44]
	and	w0, w0, 1
	cmp	w0, 0
	beq	.L324
	ldr	x0, [sp, 56]
	add	x2, x0, 32
	adrp	x0, .LC28
	add	x1, x0, :lo12:.LC28
	mov	x0, x2
	bl	_ZNSt7__cxx1112basic_stringIcSt11char_traitsIcESaIcEE6appendEPKc
.L324:
	ldr	w0, [sp, 44]
	and	w0, w0, 16
	cmp	w0, 0
	beq	.L325
	ldr	x0, [sp, 56]
	add	x2, x0, 32
	adrp	x0, .LC29
	add	x1, x0, :lo12:.LC29
	mov	x0, x2
	bl	_ZNSt7__cxx1112basic_stringIcSt11char_traitsIcESaIcEE6appendEPKc
.L325:
	ldr	w0, [sp, 44]
	and	w0, w0, 256
	cmp	w0, 0
	beq	.L326
	ldr	x0, [sp, 56]
	add	x2, x0, 32
	adrp	x0, .LC30
	add	x1, x0, :lo12:.LC30
	mov	x0, x2
	bl	_ZNSt7__cxx1112basic_stringIcSt11char_traitsIcESaIcEE6appendEPKc
.LEHE83:
.L326:
	add	x0, sp, 80
	bl	_ZN9FieldInfoD1Ev
	nop
	adrp	x0, :got:__stack_chk_guard
	ldr	x0, [x0, #:got_lo12:__stack_chk_guard]
	ldr	x2, [sp, 120]
	ldr	x1, [x0]
	subs	x2, x2, x1
	mov	x1, 0
	beq	.L329
	b	.L332
.L331:
	mov	x19, x0
	add	x0, sp, 80
	bl	_ZN9FieldInfoD1Ev
	b	.L328
.L330:
	mov	x19, x0
.L328:
	ldr	x0, [sp, 56]
	add	x0, x0, 32
	bl	_ZNSt7__cxx1112basic_stringIcSt11char_traitsIcESaIcEED1Ev
	ldr	x0, [sp, 56]
	bl	_ZNSt7__cxx1112basic_stringIcSt11char_traitsIcESaIcEED1Ev
	mov	x0, x19
.LEHB84:
	bl	_Unwind_Resume
.LEHE84:
.L332:
	bl	__stack_chk_fail
.L329:
	ldr	x19, [sp, 16]
	ldp	x29, x30, [sp], 128
	.cfi_restore 30
	.cfi_restore 29
	.cfi_restore 19
	.cfi_def_cfa_offset 0
	ret
	.cfi_endproc
.LFE4325:
	.section	.gcc_except_table
.LLSDA4325:
	.byte	0xff
	.byte	0xff
	.byte	0x1
	.uleb128 .LLSDACSE4325-.LLSDACSB4325
.LLSDACSB4325:
	.uleb128 .LEHB82-.LFB4325
	.uleb128 .LEHE82-.LEHB82
	.uleb128 .L330-.LFB4325
	.uleb128 0
	.uleb128 .LEHB83-.LFB4325
	.uleb128 .LEHE83-.LEHB83
	.uleb128 .L331-.LFB4325
	.uleb128 0
	.uleb128 .LEHB84-.LFB4325
	.uleb128 .LEHE84-.LEHB84
	.uleb128 0
	.uleb128 0
.LLSDACSE4325:
	.section	.text._ZN14FieldContraintC2I12SimpleStructiEEMT_T0_i,"axG",@progbits,_ZN14FieldContraintC5I12SimpleStructiEEMT_T0_i,comdat
	.size	_ZN14FieldContraintC2I12SimpleStructiEEMT_T0_i, .-_ZN14FieldContraintC2I12SimpleStructiEEMT_T0_i
	.weak	_ZN14FieldContraintC1I12SimpleStructiEEMT_T0_i
	.set	_ZN14FieldContraintC1I12SimpleStructiEEMT_T0_i,_ZN14FieldContraintC2I12SimpleStructiEEMT_T0_i
	.section	.text._ZNSaI14FieldContraintEC2Ev,"axG",@progbits,_ZNSaI14FieldContraintEC5Ev,comdat
	.align	2
	.weak	_ZNSaI14FieldContraintEC2Ev
	.type	_ZNSaI14FieldContraintEC2Ev, %function
_ZNSaI14FieldContraintEC2Ev:
.LFB4328:
	.cfi_startproc
	stp	x29, x30, [sp, -32]!
	.cfi_def_cfa_offset 32
	.cfi_offset 29, -32
	.cfi_offset 30, -24
	mov	x29, sp
	str	x0, [sp, 24]
	ldr	x0, [sp, 24]
	bl	_ZN9__gnu_cxx13new_allocatorI14FieldContraintEC2Ev
	nop
	ldp	x29, x30, [sp], 32
	.cfi_restore 30
	.cfi_restore 29
	.cfi_def_cfa_offset 0
	ret
	.cfi_endproc
.LFE4328:
	.size	_ZNSaI14FieldContraintEC2Ev, .-_ZNSaI14FieldContraintEC2Ev
	.weak	_ZNSaI14FieldContraintEC1Ev
	.set	_ZNSaI14FieldContraintEC1Ev,_ZNSaI14FieldContraintEC2Ev
	.section	.text._ZNSaI14FieldContraintED2Ev,"axG",@progbits,_ZNSaI14FieldContraintED5Ev,comdat
	.align	2
	.weak	_ZNSaI14FieldContraintED2Ev
	.type	_ZNSaI14FieldContraintED2Ev, %function
_ZNSaI14FieldContraintED2Ev:
.LFB4331:
	.cfi_startproc
	stp	x29, x30, [sp, -32]!
	.cfi_def_cfa_offset 32
	.cfi_offset 29, -32
	.cfi_offset 30, -24
	mov	x29, sp
	str	x0, [sp, 24]
	ldr	x0, [sp, 24]
	bl	_ZN9__gnu_cxx13new_allocatorI14FieldContraintED2Ev
	nop
	ldp	x29, x30, [sp], 32
	.cfi_restore 30
	.cfi_restore 29
	.cfi_def_cfa_offset 0
	ret
	.cfi_endproc
.LFE4331:
	.size	_ZNSaI14FieldContraintED2Ev, .-_ZNSaI14FieldContraintED2Ev
	.weak	_ZNSaI14FieldContraintED1Ev
	.set	_ZNSaI14FieldContraintED1Ev,_ZNSaI14FieldContraintED2Ev
	.section	.text._ZNSt6vectorI14FieldContraintSaIS0_EEC2ESt16initializer_listIS0_ERKS1_,"axG",@progbits,_ZNSt6vectorI14FieldContraintSaIS0_EEC5ESt16initializer_listIS0_ERKS1_,comdat
	.align	2
	.weak	_ZNSt6vectorI14FieldContraintSaIS0_EEC2ESt16initializer_listIS0_ERKS1_
	.type	_ZNSt6vectorI14FieldContraintSaIS0_EEC2ESt16initializer_listIS0_ERKS1_, %function
_ZNSt6vectorI14FieldContraintSaIS0_EEC2ESt16initializer_listIS0_ERKS1_:
.LFB4334:
	.cfi_startproc
	.cfi_personality 0x9b,DW.ref.__gxx_personality_v0
	.cfi_lsda 0x1b,.LLSDA4334
	stp	x29, x30, [sp, -80]!
	.cfi_def_cfa_offset 80
	.cfi_offset 29, -80
	.cfi_offset 30, -72
	mov	x29, sp
	stp	x19, x20, [sp, 16]
	.cfi_offset 19, -64
	.cfi_offset 20, -56
	str	x0, [sp, 56]
	stp	x1, x2, [sp, 40]
	str	x3, [sp, 32]
	adrp	x0, :got:__stack_chk_guard
	ldr	x0, [x0, #:got_lo12:__stack_chk_guard]
	ldr	x1, [x0]
	str	x1, [sp, 72]
	mov	x1, 0
	ldr	x0, [sp, 56]
	ldr	x1, [sp, 32]
	bl	_ZNSt12_Vector_baseI14FieldContraintSaIS0_EEC2ERKS1_
	add	x0, sp, 40
	bl	_ZNKSt16initializer_listI14FieldContraintE5beginEv
	mov	x19, x0
	add	x0, sp, 40
	bl	_ZNKSt16initializer_listI14FieldContraintE3endEv
	mov	w3, w20
	mov	x2, x0
	mov	x1, x19
	ldr	x0, [sp, 56]
.LEHB85:
	bl	_ZNSt6vectorI14FieldContraintSaIS0_EE19_M_range_initializeIPKS0_EEvT_S6_St20forward_iterator_tag
.LEHE85:
	b	.L339
.L338:
	mov	x19, x0
	ldr	x0, [sp, 56]
	bl	_ZNSt12_Vector_baseI14FieldContraintSaIS0_EED2Ev
	mov	x0, x19
.LEHB86:
	bl	_Unwind_Resume
.LEHE86:
.L339:
	adrp	x0, :got:__stack_chk_guard
	ldr	x0, [x0, #:got_lo12:__stack_chk_guard]
	ldr	x2, [sp, 72]
	ldr	x1, [x0]
	subs	x2, x2, x1
	mov	x1, 0
	beq	.L337
	bl	__stack_chk_fail
.L337:
	ldp	x19, x20, [sp, 16]
	ldp	x29, x30, [sp], 80
	.cfi_restore 30
	.cfi_restore 29
	.cfi_restore 19
	.cfi_restore 20
	.cfi_def_cfa_offset 0
	ret
	.cfi_endproc
.LFE4334:
	.section	.gcc_except_table
.LLSDA4334:
	.byte	0xff
	.byte	0xff
	.byte	0x1
	.uleb128 .LLSDACSE4334-.LLSDACSB4334
.LLSDACSB4334:
	.uleb128 .LEHB85-.LFB4334
	.uleb128 .LEHE85-.LEHB85
	.uleb128 .L338-.LFB4334
	.uleb128 0
	.uleb128 .LEHB86-.LFB4334
	.uleb128 .LEHE86-.LEHB86
	.uleb128 0
	.uleb128 0
.LLSDACSE4334:
	.section	.text._ZNSt6vectorI14FieldContraintSaIS0_EEC2ESt16initializer_listIS0_ERKS1_,"axG",@progbits,_ZNSt6vectorI14FieldContraintSaIS0_EEC5ESt16initializer_listIS0_ERKS1_,comdat
	.size	_ZNSt6vectorI14FieldContraintSaIS0_EEC2ESt16initializer_listIS0_ERKS1_, .-_ZNSt6vectorI14FieldContraintSaIS0_EEC2ESt16initializer_listIS0_ERKS1_
	.weak	_ZNSt6vectorI14FieldContraintSaIS0_EEC1ESt16initializer_listIS0_ERKS1_
	.set	_ZNSt6vectorI14FieldContraintSaIS0_EEC1ESt16initializer_listIS0_ERKS1_,_ZNSt6vectorI14FieldContraintSaIS0_EEC2ESt16initializer_listIS0_ERKS1_
	.section	.text._ZNSt6vectorI14FieldContraintSaIS0_EED2Ev,"axG",@progbits,_ZNSt6vectorI14FieldContraintSaIS0_EED5Ev,comdat
	.align	2
	.weak	_ZNSt6vectorI14FieldContraintSaIS0_EED2Ev
	.type	_ZNSt6vectorI14FieldContraintSaIS0_EED2Ev, %function
_ZNSt6vectorI14FieldContraintSaIS0_EED2Ev:
.LFB4337:
	.cfi_startproc
	.cfi_personality 0x9b,DW.ref.__gxx_personality_v0
	.cfi_lsda 0x1b,.LLSDA4337
	stp	x29, x30, [sp, -48]!
	.cfi_def_cfa_offset 48
	.cfi_offset 29, -48
	.cfi_offset 30, -40
	mov	x29, sp
	stp	x19, x20, [sp, 16]
	.cfi_offset 19, -32
	.cfi_offset 20, -24
	str	x0, [sp, 40]
	ldr	x0, [sp, 40]
	ldr	x19, [x0]
	ldr	x0, [sp, 40]
	ldr	x20, [x0, 8]
	ldr	x0, [sp, 40]
	bl	_ZNSt12_Vector_baseI14FieldContraintSaIS0_EE19_M_get_Tp_allocatorEv
	mov	x2, x0
	mov	x1, x20
	mov	x0, x19
	bl	_ZSt8_DestroyIP14FieldContraintS0_EvT_S2_RSaIT0_E
	ldr	x0, [sp, 40]
	bl	_ZNSt12_Vector_baseI14FieldContraintSaIS0_EED2Ev
	nop
	ldp	x19, x20, [sp, 16]
	ldp	x29, x30, [sp], 48
	.cfi_restore 30
	.cfi_restore 29
	.cfi_restore 19
	.cfi_restore 20
	.cfi_def_cfa_offset 0
	ret
	.cfi_endproc
.LFE4337:
	.section	.gcc_except_table
.LLSDA4337:
	.byte	0xff
	.byte	0xff
	.byte	0x1
	.uleb128 .LLSDACSE4337-.LLSDACSB4337
.LLSDACSB4337:
.LLSDACSE4337:
	.section	.text._ZNSt6vectorI14FieldContraintSaIS0_EED2Ev,"axG",@progbits,_ZNSt6vectorI14FieldContraintSaIS0_EED5Ev,comdat
	.size	_ZNSt6vectorI14FieldContraintSaIS0_EED2Ev, .-_ZNSt6vectorI14FieldContraintSaIS0_EED2Ev
	.weak	_ZNSt6vectorI14FieldContraintSaIS0_EED1Ev
	.set	_ZNSt6vectorI14FieldContraintSaIS0_EED1Ev,_ZNSt6vectorI14FieldContraintSaIS0_EED2Ev
	.section	.text._ZN8SqliteDB21CreateTableIfNotExistI12SimpleStructEEvRKSt6vectorI14FieldContraintSaIS3_EE,"axG",@progbits,_ZN8SqliteDB21CreateTableIfNotExistI12SimpleStructEEvRKSt6vectorI14FieldContraintSaIS3_EE,comdat
	.align	2
	.weak	_ZN8SqliteDB21CreateTableIfNotExistI12SimpleStructEEvRKSt6vectorI14FieldContraintSaIS3_EE
	.type	_ZN8SqliteDB21CreateTableIfNotExistI12SimpleStructEEvRKSt6vectorI14FieldContraintSaIS3_EE, %function
_ZN8SqliteDB21CreateTableIfNotExistI12SimpleStructEEvRKSt6vectorI14FieldContraintSaIS3_EE:
.LFB4339:
	.cfi_startproc
	.cfi_personality 0x9b,DW.ref.__gxx_personality_v0
	.cfi_lsda 0x1b,.LLSDA4339
	stp	x29, x30, [sp, -96]!
	.cfi_def_cfa_offset 96
	.cfi_offset 29, -96
	.cfi_offset 30, -88
	mov	x29, sp
	str	x19, [sp, 16]
	.cfi_offset 19, -80
	str	x0, [sp, 40]
	str	x1, [sp, 32]
	adrp	x0, :got:__stack_chk_guard
	ldr	x0, [x0, #:got_lo12:__stack_chk_guard]
	ldr	x1, [x0]
	str	x1, [sp, 88]
	mov	x1, 0
	add	x0, sp, 56
	mov	x8, x0
	ldr	x1, [sp, 32]
	ldr	x0, [sp, 40]
.LEHB87:
	bl	_ZN8SqliteDB16GenUtf8CreateSqlI12SimpleStructEENSt7__cxx1112basic_stringIcSt11char_traitsIcESaIcEEERKSt6vectorI14FieldContraintSaIS9_EE
.LEHE87:
	add	x0, sp, 56
	str	x0, [sp, 48]
	ldr	x1, [sp, 48]
	ldr	x0, [sp, 40]
.LEHB88:
	bl	_ZN8SqliteDB7ExecuteERKNSt7__cxx1112basic_stringIcSt11char_traitsIcESaIcEEE
.LEHE88:
	add	x0, sp, 56
	bl	_ZNSt7__cxx1112basic_stringIcSt11char_traitsIcESaIcEED1Ev
	adrp	x0, :got:__stack_chk_guard
	ldr	x0, [x0, #:got_lo12:__stack_chk_guard]
	ldr	x2, [sp, 88]
	ldr	x1, [x0]
	subs	x2, x2, x1
	mov	x1, 0
	beq	.L343
	b	.L345
.L344:
	mov	x19, x0
	add	x0, sp, 56
	bl	_ZNSt7__cxx1112basic_stringIcSt11char_traitsIcESaIcEED1Ev
	mov	x0, x19
.LEHB89:
	bl	_Unwind_Resume
.LEHE89:
.L345:
	bl	__stack_chk_fail
.L343:
	ldr	x19, [sp, 16]
	ldp	x29, x30, [sp], 96
	.cfi_restore 30
	.cfi_restore 29
	.cfi_restore 19
	.cfi_def_cfa_offset 0
	ret
	.cfi_endproc
.LFE4339:
	.section	.gcc_except_table
.LLSDA4339:
	.byte	0xff
	.byte	0xff
	.byte	0x1
	.uleb128 .LLSDACSE4339-.LLSDACSB4339
.LLSDACSB4339:
	.uleb128 .LEHB87-.LFB4339
	.uleb128 .LEHE87-.LEHB87
	.uleb128 0
	.uleb128 0
	.uleb128 .LEHB88-.LFB4339
	.uleb128 .LEHE88-.LEHB88
	.uleb128 .L344-.LFB4339
	.uleb128 0
	.uleb128 .LEHB89-.LFB4339
	.uleb128 .LEHE89-.LEHB89
	.uleb128 0
	.uleb128 0
.LLSDACSE4339:
	.section	.text._ZN8SqliteDB21CreateTableIfNotExistI12SimpleStructEEvRKSt6vectorI14FieldContraintSaIS3_EE,"axG",@progbits,_ZN8SqliteDB21CreateTableIfNotExistI12SimpleStructEEvRKSt6vectorI14FieldContraintSaIS3_EE,comdat
	.size	_ZN8SqliteDB21CreateTableIfNotExistI12SimpleStructEEvRKSt6vectorI14FieldContraintSaIS3_EE, .-_ZN8SqliteDB21CreateTableIfNotExistI12SimpleStructEEvRKSt6vectorI14FieldContraintSaIS3_EE
	.weak	_ZZN8SqliteDB6InsertIR12SimpleStructEEvOT_E19strUtf8PreInsertSqlB5cxx11
	.section	.bss._ZZN8SqliteDB6InsertIR12SimpleStructEEvOT_E19strUtf8PreInsertSqlB5cxx11,"awG",@nobits,_ZZN8SqliteDB6InsertIR12SimpleStructEEvOT_E19strUtf8PreInsertSqlB5cxx11,comdat
	.align	3
	.type	_ZZN8SqliteDB6InsertIR12SimpleStructEEvOT_E19strUtf8PreInsertSqlB5cxx11, %gnu_unique_object
	.size	_ZZN8SqliteDB6InsertIR12SimpleStructEEvOT_E19strUtf8PreInsertSqlB5cxx11, 8
_ZZN8SqliteDB6InsertIR12SimpleStructEEvOT_E19strUtf8PreInsertSqlB5cxx11:
	.zero	8
	.weak	_ZGRZN8SqliteDB6InsertIR12SimpleStructEEvOT_E19strUtf8PreInsertSqlB5cxx11_
	.section	.bss._ZGRZN8SqliteDB6InsertIR12SimpleStructEEvOT_E19strUtf8PreInsertSqlB5cxx11_,"awG",@nobits,_ZGRZN8SqliteDB6InsertIR12SimpleStructEEvOT_E19strUtf8PreInsertSqlB5cxx11_,comdat
	.align	3
	.type	_ZGRZN8SqliteDB6InsertIR12SimpleStructEEvOT_E19strUtf8PreInsertSqlB5cxx11_, %gnu_unique_object
	.size	_ZGRZN8SqliteDB6InsertIR12SimpleStructEEvOT_E19strUtf8PreInsertSqlB5cxx11_, 32
_ZGRZN8SqliteDB6InsertIR12SimpleStructEEvOT_E19strUtf8PreInsertSqlB5cxx11_:
	.zero	32
	.weak	_ZGVZN8SqliteDB6InsertIR12SimpleStructEEvOT_E19strUtf8PreInsertSqlB5cxx11
	.section	.bss._ZGVZN8SqliteDB6InsertIR12SimpleStructEEvOT_E19strUtf8PreInsertSqlB5cxx11,"awG",@nobits,_ZGVZN8SqliteDB6InsertIR12SimpleStructEEvOT_E19strUtf8PreInsertSqlB5cxx11,comdat
	.align	3
	.type	_ZGVZN8SqliteDB6InsertIR12SimpleStructEEvOT_E19strUtf8PreInsertSqlB5cxx11, %gnu_unique_object
	.size	_ZGVZN8SqliteDB6InsertIR12SimpleStructEEvOT_E19strUtf8PreInsertSqlB5cxx11, 8
_ZGVZN8SqliteDB6InsertIR12SimpleStructEEvOT_E19strUtf8PreInsertSqlB5cxx11:
	.zero	8
	.section	.text._ZN8SqliteDB6InsertIR12SimpleStructEEvOT_,"axG",@progbits,_ZN8SqliteDB6InsertIR12SimpleStructEEvOT_,comdat
	.align	2
	.weak	_ZN8SqliteDB6InsertIR12SimpleStructEEvOT_
	.type	_ZN8SqliteDB6InsertIR12SimpleStructEEvOT_, %function
_ZN8SqliteDB6InsertIR12SimpleStructEEvOT_:
.LFB4344:
	.cfi_startproc
	.cfi_personality 0x9b,DW.ref.__gxx_personality_v0
	.cfi_lsda 0x1b,.LLSDA4344
	stp	x29, x30, [sp, -64]!
	.cfi_def_cfa_offset 64
	.cfi_offset 29, -64
	.cfi_offset 30, -56
	mov	x29, sp
	stp	x19, x20, [sp, 16]
	.cfi_offset 19, -48
	.cfi_offset 20, -40
	str	x0, [sp, 40]
	str	x1, [sp, 32]
	adrp	x0, :got:__stack_chk_guard
	ldr	x0, [x0, #:got_lo12:__stack_chk_guard]
	ldr	x1, [x0]
	str	x1, [sp, 56]
	mov	x1, 0
	adrp	x0, _ZGVZN8SqliteDB6InsertIR12SimpleStructEEvOT_E19strUtf8PreInsertSqlB5cxx11
	add	x0, x0, :lo12:_ZGVZN8SqliteDB6InsertIR12SimpleStructEEvOT_E19strUtf8PreInsertSqlB5cxx11
	ldar	x0, [x0]
	and	x0, x0, 1
	cmp	x0, 0
	cset	w0, eq
	and	w0, w0, 255
	cmp	w0, 0
	beq	.L347
	adrp	x0, _ZGVZN8SqliteDB6InsertIR12SimpleStructEEvOT_E19strUtf8PreInsertSqlB5cxx11
	add	x0, x0, :lo12:_ZGVZN8SqliteDB6InsertIR12SimpleStructEEvOT_E19strUtf8PreInsertSqlB5cxx11
	bl	__cxa_guard_acquire
	cmp	w0, 0
	cset	w0, ne
	and	w0, w0, 255
	cmp	w0, 0
	beq	.L347
	mov	w19, 0
	adrp	x0, _ZGRZN8SqliteDB6InsertIR12SimpleStructEEvOT_E19strUtf8PreInsertSqlB5cxx11_
	add	x0, x0, :lo12:_ZGRZN8SqliteDB6InsertIR12SimpleStructEEvOT_E19strUtf8PreInsertSqlB5cxx11_
	mov	x8, x0
	ldr	x0, [sp, 40]
.LEHB90:
	bl	_ZN8SqliteDB16GenUtf8InsertSqlI12SimpleStructEENSt7__cxx1112basic_stringIcSt11char_traitsIcESaIcEEEv
.LEHE90:
	adrp	x0, __dso_handle
	add	x2, x0, :lo12:__dso_handle
	adrp	x0, _ZGRZN8SqliteDB6InsertIR12SimpleStructEEvOT_E19strUtf8PreInsertSqlB5cxx11_
	add	x1, x0, :lo12:_ZGRZN8SqliteDB6InsertIR12SimpleStructEEvOT_E19strUtf8PreInsertSqlB5cxx11_
	adrp	x0, :got:_ZNSt7__cxx1112basic_stringIcSt11char_traitsIcESaIcEED1Ev
	ldr	x0, [x0, #:got_lo12:_ZNSt7__cxx1112basic_stringIcSt11char_traitsIcESaIcEED1Ev]
	bl	__cxa_atexit
	adrp	x0, _ZZN8SqliteDB6InsertIR12SimpleStructEEvOT_E19strUtf8PreInsertSqlB5cxx11
	add	x0, x0, :lo12:_ZZN8SqliteDB6InsertIR12SimpleStructEEvOT_E19strUtf8PreInsertSqlB5cxx11
	adrp	x1, _ZGRZN8SqliteDB6InsertIR12SimpleStructEEvOT_E19strUtf8PreInsertSqlB5cxx11_
	add	x1, x1, :lo12:_ZGRZN8SqliteDB6InsertIR12SimpleStructEEvOT_E19strUtf8PreInsertSqlB5cxx11_
	str	x1, [x0]
	adrp	x0, _ZGVZN8SqliteDB6InsertIR12SimpleStructEEvOT_E19strUtf8PreInsertSqlB5cxx11
	add	x0, x0, :lo12:_ZGVZN8SqliteDB6InsertIR12SimpleStructEEvOT_E19strUtf8PreInsertSqlB5cxx11
	bl	__cxa_guard_release
.L347:
	adrp	x0, _ZZN8SqliteDB6InsertIR12SimpleStructEEvOT_E19strUtf8PreInsertSqlB5cxx11
	add	x0, x0, :lo12:_ZZN8SqliteDB6InsertIR12SimpleStructEEvOT_E19strUtf8PreInsertSqlB5cxx11
	ldr	x0, [x0]
	mov	x1, x0
	ldr	x0, [sp, 40]
.LEHB91:
	bl	_ZN8SqliteDB7PrepareERKNSt7__cxx1112basic_stringIcSt11char_traitsIcESaIcEEE
	ldr	x0, [sp, 40]
	ldr	x3, [x0]
	ldr	x0, [sp, 40]
	ldr	x0, [x0, 8]
	ldr	x2, [sp, 32]
	mov	x1, x0
	mov	x0, x3
	bl	_Z12BindFieldValIR12SimpleStructEvP7sqlite3P12sqlite3_stmtOT_
	ldr	x0, [sp, 40]
	bl	_ZN8SqliteDB18ExecuteParparseSQLEv
	nop
	adrp	x0, :got:__stack_chk_guard
	ldr	x0, [x0, #:got_lo12:__stack_chk_guard]
	ldr	x2, [sp, 56]
	ldr	x1, [x0]
	subs	x2, x2, x1
	mov	x1, 0
	beq	.L350
	b	.L352
.L351:
	mov	x20, x0
	cmp	w19, 0
	bne	.L349
	adrp	x0, _ZGVZN8SqliteDB6InsertIR12SimpleStructEEvOT_E19strUtf8PreInsertSqlB5cxx11
	add	x0, x0, :lo12:_ZGVZN8SqliteDB6InsertIR12SimpleStructEEvOT_E19strUtf8PreInsertSqlB5cxx11
	bl	__cxa_guard_abort
.L349:
	mov	x0, x20
	bl	_Unwind_Resume
.LEHE91:
.L352:
	bl	__stack_chk_fail
.L350:
	ldp	x19, x20, [sp, 16]
	ldp	x29, x30, [sp], 64
	.cfi_restore 30
	.cfi_restore 29
	.cfi_restore 19
	.cfi_restore 20
	.cfi_def_cfa_offset 0
	ret
	.cfi_endproc
.LFE4344:
	.section	.gcc_except_table
.LLSDA4344:
	.byte	0xff
	.byte	0xff
	.byte	0x1
	.uleb128 .LLSDACSE4344-.LLSDACSB4344
.LLSDACSB4344:
	.uleb128 .LEHB90-.LFB4344
	.uleb128 .LEHE90-.LEHB90
	.uleb128 .L351-.LFB4344
	.uleb128 0
	.uleb128 .LEHB91-.LFB4344
	.uleb128 .LEHE91-.LEHB91
	.uleb128 0
	.uleb128 0
.LLSDACSE4344:
	.section	.text._ZN8SqliteDB6InsertIR12SimpleStructEEvOT_,"axG",@progbits,_ZN8SqliteDB6InsertIR12SimpleStructEEvOT_,comdat
	.size	_ZN8SqliteDB6InsertIR12SimpleStructEEvOT_, .-_ZN8SqliteDB6InsertIR12SimpleStructEEvOT_
	.weak	_ZZN9ConditionC4I12SimpleStructiEEMT_T0_12CondtionTypeRKNSt7__cxx1112basic_stringIcSt11char_traitsIcESaIcEEEE9fieldInfo
	.section	.bss._ZZN9ConditionC4I12SimpleStructiEEMT_T0_12CondtionTypeRKNSt7__cxx1112basic_stringIcSt11char_traitsIcESaIcEEEE9fieldInfo,"awG",@nobits,_ZZN9ConditionC4I12SimpleStructiEEMT_T0_12CondtionTypeRKNSt7__cxx1112basic_stringIcSt11char_traitsIcESaIcEEEE9fieldInfo,comdat
	.align	3
	.type	_ZZN9ConditionC4I12SimpleStructiEEMT_T0_12CondtionTypeRKNSt7__cxx1112basic_stringIcSt11char_traitsIcESaIcEEEE9fieldInfo, %gnu_unique_object
	.size	_ZZN9ConditionC4I12SimpleStructiEEMT_T0_12CondtionTypeRKNSt7__cxx1112basic_stringIcSt11char_traitsIcESaIcEEEE9fieldInfo, 40
_ZZN9ConditionC4I12SimpleStructiEEMT_T0_12CondtionTypeRKNSt7__cxx1112basic_stringIcSt11char_traitsIcESaIcEEEE9fieldInfo:
	.zero	40
	.weak	_ZGVZN9ConditionC4I12SimpleStructiEEMT_T0_12CondtionTypeRKNSt7__cxx1112basic_stringIcSt11char_traitsIcESaIcEEEE9fieldInfo
	.section	.bss._ZGVZN9ConditionC4I12SimpleStructiEEMT_T0_12CondtionTypeRKNSt7__cxx1112basic_stringIcSt11char_traitsIcESaIcEEEE9fieldInfo,"awG",@nobits,_ZGVZN9ConditionC4I12SimpleStructiEEMT_T0_12CondtionTypeRKNSt7__cxx1112basic_stringIcSt11char_traitsIcESaIcEEEE9fieldInfo,comdat
	.align	3
	.type	_ZGVZN9ConditionC4I12SimpleStructiEEMT_T0_12CondtionTypeRKNSt7__cxx1112basic_stringIcSt11char_traitsIcESaIcEEEE9fieldInfo, %gnu_unique_object
	.size	_ZGVZN9ConditionC4I12SimpleStructiEEMT_T0_12CondtionTypeRKNSt7__cxx1112basic_stringIcSt11char_traitsIcESaIcEEEE9fieldInfo, 8
_ZGVZN9ConditionC4I12SimpleStructiEEMT_T0_12CondtionTypeRKNSt7__cxx1112basic_stringIcSt11char_traitsIcESaIcEEEE9fieldInfo:
	.zero	8
	.section	.text._ZN9ConditionC2I12SimpleStructiEEMT_T0_12CondtionTypeRKNSt7__cxx1112basic_stringIcSt11char_traitsIcESaIcEEE,"axG",@progbits,_ZN9ConditionC5I12SimpleStructiEEMT_T0_12CondtionTypeRKNSt7__cxx1112basic_stringIcSt11char_traitsIcESaIcEEE,comdat
	.align	2
	.weak	_ZN9ConditionC2I12SimpleStructiEEMT_T0_12CondtionTypeRKNSt7__cxx1112basic_stringIcSt11char_traitsIcESaIcEEE
	.type	_ZN9ConditionC2I12SimpleStructiEEMT_T0_12CondtionTypeRKNSt7__cxx1112basic_stringIcSt11char_traitsIcESaIcEEE, %function
_ZN9ConditionC2I12SimpleStructiEEMT_T0_12CondtionTypeRKNSt7__cxx1112basic_stringIcSt11char_traitsIcESaIcEEE:
.LFB4349:
	.cfi_startproc
	.cfi_personality 0x9b,DW.ref.__gxx_personality_v0
	.cfi_lsda 0x1b,.LLSDA4349
	stp	x29, x30, [sp, -240]!
	.cfi_def_cfa_offset 240
	.cfi_offset 29, -240
	.cfi_offset 30, -232
	mov	x29, sp
	stp	x19, x20, [sp, 16]
	.cfi_offset 19, -224
	.cfi_offset 20, -216
	str	x0, [sp, 56]
	str	x1, [sp, 48]
	str	w2, [sp, 44]
	str	x3, [sp, 32]
	adrp	x0, :got:__stack_chk_guard
	ldr	x0, [x0, #:got_lo12:__stack_chk_guard]
	ldr	x1, [x0]
	str	x1, [sp, 232]
	mov	x1, 0
	ldr	x0, [sp, 56]
	bl	_ZNSt7__cxx1112basic_stringIcSt11char_traitsIcESaIcEEC1Ev
	adrp	x0, _ZGVZN9ConditionC4I12SimpleStructiEEMT_T0_12CondtionTypeRKNSt7__cxx1112basic_stringIcSt11char_traitsIcESaIcEEEE9fieldInfo
	add	x0, x0, :lo12:_ZGVZN9ConditionC4I12SimpleStructiEEMT_T0_12CondtionTypeRKNSt7__cxx1112basic_stringIcSt11char_traitsIcESaIcEEEE9fieldInfo
	ldar	x0, [x0]
	and	x0, x0, 1
	cmp	x0, 0
	cset	w0, eq
	and	w0, w0, 255
	cmp	w0, 0
	beq	.L354
	adrp	x0, _ZGVZN9ConditionC4I12SimpleStructiEEMT_T0_12CondtionTypeRKNSt7__cxx1112basic_stringIcSt11char_traitsIcESaIcEEEE9fieldInfo
	add	x0, x0, :lo12:_ZGVZN9ConditionC4I12SimpleStructiEEMT_T0_12CondtionTypeRKNSt7__cxx1112basic_stringIcSt11char_traitsIcESaIcEEEE9fieldInfo
	bl	__cxa_guard_acquire
	cmp	w0, 0
	cset	w0, ne
	and	w0, w0, 255
	cmp	w0, 0
	beq	.L354
	mov	w19, 0
	adrp	x0, _ZZN9ConditionC4I12SimpleStructiEEMT_T0_12CondtionTypeRKNSt7__cxx1112basic_stringIcSt11char_traitsIcESaIcEEEE9fieldInfo
	add	x0, x0, :lo12:_ZZN9ConditionC4I12SimpleStructiEEMT_T0_12CondtionTypeRKNSt7__cxx1112basic_stringIcSt11char_traitsIcESaIcEEEE9fieldInfo
	mov	x8, x0
	ldr	x0, [sp, 48]
.LEHB92:
	bl	_Z18GetStructFieldInfoI12SimpleStructiE9FieldInfoMT_T0_
.LEHE92:
	adrp	x0, __dso_handle
	add	x2, x0, :lo12:__dso_handle
	adrp	x0, _ZZN9ConditionC4I12SimpleStructiEEMT_T0_12CondtionTypeRKNSt7__cxx1112basic_stringIcSt11char_traitsIcESaIcEEEE9fieldInfo
	add	x1, x0, :lo12:_ZZN9ConditionC4I12SimpleStructiEEMT_T0_12CondtionTypeRKNSt7__cxx1112basic_stringIcSt11char_traitsIcESaIcEEEE9fieldInfo
	adrp	x0, _ZN9FieldInfoD1Ev
	add	x0, x0, :lo12:_ZN9FieldInfoD1Ev
	bl	__cxa_atexit
	adrp	x0, _ZGVZN9ConditionC4I12SimpleStructiEEMT_T0_12CondtionTypeRKNSt7__cxx1112basic_stringIcSt11char_traitsIcESaIcEEEE9fieldInfo
	add	x0, x0, :lo12:_ZGVZN9ConditionC4I12SimpleStructiEEMT_T0_12CondtionTypeRKNSt7__cxx1112basic_stringIcSt11char_traitsIcESaIcEEEE9fieldInfo
	bl	__cxa_guard_release
.L354:
	adrp	x0, _ZZN9ConditionC4I12SimpleStructiEEMT_T0_12CondtionTypeRKNSt7__cxx1112basic_stringIcSt11char_traitsIcESaIcEEEE9fieldInfo
	add	x0, x0, :lo12:_ZZN9ConditionC4I12SimpleStructiEEMT_T0_12CondtionTypeRKNSt7__cxx1112basic_stringIcSt11char_traitsIcESaIcEEEE9fieldInfo
	ldr	w0, [x0, 32]
	cmp	w0, 4
	bne	.L355
	add	x0, sp, 200
	mov	x8, x0
	ldr	w1, [sp, 44]
	ldr	x0, [sp, 56]
.LEHB93:
	bl	_ZN9Condition15GetStrByConTypeB5cxx11E12CondtionType
.LEHE93:
	add	x0, sp, 200
	add	x1, sp, 168
	mov	x8, x1
	mov	x1, x0
	adrp	x0, _ZZN9ConditionC4I12SimpleStructiEEMT_T0_12CondtionTypeRKNSt7__cxx1112basic_stringIcSt11char_traitsIcESaIcEEEE9fieldInfo
	add	x0, x0, :lo12:_ZZN9ConditionC4I12SimpleStructiEEMT_T0_12CondtionTypeRKNSt7__cxx1112basic_stringIcSt11char_traitsIcESaIcEEEE9fieldInfo
.LEHB94:
	bl	_ZStplIcSt11char_traitsIcESaIcEENSt7__cxx1112basic_stringIT_T0_T1_EERKS8_OS8_
.LEHE94:
	add	x2, sp, 168
	add	x0, sp, 136
	mov	x8, x0
	adrp	x0, .LC10
	add	x1, x0, :lo12:.LC10
	mov	x0, x2
.LEHB95:
	bl	_ZStplIcSt11char_traitsIcESaIcEENSt7__cxx1112basic_stringIT_T0_T1_EEOS8_PKS5_
.LEHE95:
	add	x0, sp, 136
	add	x1, sp, 104
	mov	x8, x1
	ldr	x1, [sp, 32]
.LEHB96:
	bl	_ZStplIcSt11char_traitsIcESaIcEENSt7__cxx1112basic_stringIT_T0_T1_EEOS8_RKS8_
.LEHE96:
	add	x2, sp, 104
	add	x0, sp, 72
	mov	x8, x0
	adrp	x0, .LC10
	add	x1, x0, :lo12:.LC10
	mov	x0, x2
.LEHB97:
	bl	_ZStplIcSt11char_traitsIcESaIcEENSt7__cxx1112basic_stringIT_T0_T1_EEOS8_PKS5_
.LEHE97:
	ldr	x0, [sp, 56]
	add	x1, sp, 72
	bl	_ZNSt7__cxx1112basic_stringIcSt11char_traitsIcESaIcEEaSEOS4_
	add	x0, sp, 72
	bl	_ZNSt7__cxx1112basic_stringIcSt11char_traitsIcESaIcEED1Ev
	add	x0, sp, 104
	bl	_ZNSt7__cxx1112basic_stringIcSt11char_traitsIcESaIcEED1Ev
	add	x0, sp, 136
	bl	_ZNSt7__cxx1112basic_stringIcSt11char_traitsIcESaIcEED1Ev
	add	x0, sp, 168
	bl	_ZNSt7__cxx1112basic_stringIcSt11char_traitsIcESaIcEED1Ev
	add	x0, sp, 200
	bl	_ZNSt7__cxx1112basic_stringIcSt11char_traitsIcESaIcEED1Ev
	b	.L353
.L355:
	add	x0, sp, 200
	mov	x8, x0
	ldr	w1, [sp, 44]
	ldr	x0, [sp, 56]
.LEHB98:
	bl	_ZN9Condition15GetStrByConTypeB5cxx11E12CondtionType
.LEHE98:
	add	x0, sp, 200
	add	x1, sp, 168
	mov	x8, x1
	mov	x1, x0
	adrp	x0, _ZZN9ConditionC4I12SimpleStructiEEMT_T0_12CondtionTypeRKNSt7__cxx1112basic_stringIcSt11char_traitsIcESaIcEEEE9fieldInfo
	add	x0, x0, :lo12:_ZZN9ConditionC4I12SimpleStructiEEMT_T0_12CondtionTypeRKNSt7__cxx1112basic_stringIcSt11char_traitsIcESaIcEEEE9fieldInfo
.LEHB99:
	bl	_ZStplIcSt11char_traitsIcESaIcEENSt7__cxx1112basic_stringIT_T0_T1_EERKS8_OS8_
.LEHE99:
	add	x0, sp, 168
	add	x1, sp, 136
	mov	x8, x1
	ldr	x1, [sp, 32]
.LEHB100:
	bl	_ZStplIcSt11char_traitsIcESaIcEENSt7__cxx1112basic_stringIT_T0_T1_EEOS8_RKS8_
.LEHE100:
	ldr	x0, [sp, 56]
	add	x1, sp, 136
	bl	_ZNSt7__cxx1112basic_stringIcSt11char_traitsIcESaIcEEaSEOS4_
	add	x0, sp, 136
	bl	_ZNSt7__cxx1112basic_stringIcSt11char_traitsIcESaIcEED1Ev
	add	x0, sp, 168
	bl	_ZNSt7__cxx1112basic_stringIcSt11char_traitsIcESaIcEED1Ev
	add	x0, sp, 200
	bl	_ZNSt7__cxx1112basic_stringIcSt11char_traitsIcESaIcEED1Ev
	b	.L353
.L367:
	mov	x20, x0
	cmp	w19, 0
	bne	.L358
	adrp	x0, _ZGVZN9ConditionC4I12SimpleStructiEEMT_T0_12CondtionTypeRKNSt7__cxx1112basic_stringIcSt11char_traitsIcESaIcEEEE9fieldInfo
	add	x0, x0, :lo12:_ZGVZN9ConditionC4I12SimpleStructiEEMT_T0_12CondtionTypeRKNSt7__cxx1112basic_stringIcSt11char_traitsIcESaIcEEEE9fieldInfo
	bl	__cxa_guard_abort
.L358:
	mov	x19, x20
	b	.L359
.L372:
	mov	x19, x0
	add	x0, sp, 104
	bl	_ZNSt7__cxx1112basic_stringIcSt11char_traitsIcESaIcEED1Ev
	b	.L361
.L371:
	mov	x19, x0
.L361:
	add	x0, sp, 136
	bl	_ZNSt7__cxx1112basic_stringIcSt11char_traitsIcESaIcEED1Ev
	b	.L362
.L370:
	mov	x19, x0
.L362:
	add	x0, sp, 168
	bl	_ZNSt7__cxx1112basic_stringIcSt11char_traitsIcESaIcEED1Ev
	b	.L363
.L369:
	mov	x19, x0
.L363:
	add	x0, sp, 200
	bl	_ZNSt7__cxx1112basic_stringIcSt11char_traitsIcESaIcEED1Ev
	b	.L359
.L374:
	mov	x19, x0
	add	x0, sp, 168
	bl	_ZNSt7__cxx1112basic_stringIcSt11char_traitsIcESaIcEED1Ev
	b	.L365
.L373:
	mov	x19, x0
.L365:
	add	x0, sp, 200
	bl	_ZNSt7__cxx1112basic_stringIcSt11char_traitsIcESaIcEED1Ev
	b	.L359
.L368:
	mov	x19, x0
.L359:
	ldr	x0, [sp, 56]
	bl	_ZNSt7__cxx1112basic_stringIcSt11char_traitsIcESaIcEED1Ev
	mov	x0, x19
.LEHB101:
	bl	_Unwind_Resume
.LEHE101:
.L353:
	adrp	x0, :got:__stack_chk_guard
	ldr	x0, [x0, #:got_lo12:__stack_chk_guard]
	ldr	x2, [sp, 232]
	ldr	x1, [x0]
	subs	x2, x2, x1
	mov	x1, 0
	beq	.L366
	bl	__stack_chk_fail
.L366:
	ldp	x19, x20, [sp, 16]
	ldp	x29, x30, [sp], 240
	.cfi_restore 30
	.cfi_restore 29
	.cfi_restore 19
	.cfi_restore 20
	.cfi_def_cfa_offset 0
	ret
	.cfi_endproc
.LFE4349:
	.section	.gcc_except_table
.LLSDA4349:
	.byte	0xff
	.byte	0xff
	.byte	0x1
	.uleb128 .LLSDACSE4349-.LLSDACSB4349
.LLSDACSB4349:
	.uleb128 .LEHB92-.LFB4349
	.uleb128 .LEHE92-.LEHB92
	.uleb128 .L367-.LFB4349
	.uleb128 0
	.uleb128 .LEHB93-.LFB4349
	.uleb128 .LEHE93-.LEHB93
	.uleb128 .L368-.LFB4349
	.uleb128 0
	.uleb128 .LEHB94-.LFB4349
	.uleb128 .LEHE94-.LEHB94
	.uleb128 .L369-.LFB4349
	.uleb128 0
	.uleb128 .LEHB95-.LFB4349
	.uleb128 .LEHE95-.LEHB95
	.uleb128 .L370-.LFB4349
	.uleb128 0
	.uleb128 .LEHB96-.LFB4349
	.uleb128 .LEHE96-.LEHB96
	.uleb128 .L371-.LFB4349
	.uleb128 0
	.uleb128 .LEHB97-.LFB4349
	.uleb128 .LEHE97-.LEHB97
	.uleb128 .L372-.LFB4349
	.uleb128 0
	.uleb128 .LEHB98-.LFB4349
	.uleb128 .LEHE98-.LEHB98
	.uleb128 .L368-.LFB4349
	.uleb128 0
	.uleb128 .LEHB99-.LFB4349
	.uleb128 .LEHE99-.LEHB99
	.uleb128 .L373-.LFB4349
	.uleb128 0
	.uleb128 .LEHB100-.LFB4349
	.uleb128 .LEHE100-.LEHB100
	.uleb128 .L374-.LFB4349
	.uleb128 0
	.uleb128 .LEHB101-.LFB4349
	.uleb128 .LEHE101-.LEHB101
	.uleb128 0
	.uleb128 0
.LLSDACSE4349:
	.section	.text._ZN9ConditionC2I12SimpleStructiEEMT_T0_12CondtionTypeRKNSt7__cxx1112basic_stringIcSt11char_traitsIcESaIcEEE,"axG",@progbits,_ZN9ConditionC5I12SimpleStructiEEMT_T0_12CondtionTypeRKNSt7__cxx1112basic_stringIcSt11char_traitsIcESaIcEEE,comdat
	.size	_ZN9ConditionC2I12SimpleStructiEEMT_T0_12CondtionTypeRKNSt7__cxx1112basic_stringIcSt11char_traitsIcESaIcEEE, .-_ZN9ConditionC2I12SimpleStructiEEMT_T0_12CondtionTypeRKNSt7__cxx1112basic_stringIcSt11char_traitsIcESaIcEEE
	.weak	_ZN9ConditionC1I12SimpleStructiEEMT_T0_12CondtionTypeRKNSt7__cxx1112basic_stringIcSt11char_traitsIcESaIcEEE
	.set	_ZN9ConditionC1I12SimpleStructiEEMT_T0_12CondtionTypeRKNSt7__cxx1112basic_stringIcSt11char_traitsIcESaIcEEE,_ZN9ConditionC2I12SimpleStructiEEMT_T0_12CondtionTypeRKNSt7__cxx1112basic_stringIcSt11char_traitsIcESaIcEEE
	.section	.text._ZNSt12_Vector_baseI12SimpleStructSaIS0_EE12_Vector_implC2Ev,"axG",@progbits,_ZNSt12_Vector_baseI12SimpleStructSaIS0_EE12_Vector_implC5Ev,comdat
	.align	2
	.weak	_ZNSt12_Vector_baseI12SimpleStructSaIS0_EE12_Vector_implC2Ev
	.type	_ZNSt12_Vector_baseI12SimpleStructSaIS0_EE12_Vector_implC2Ev, %function
_ZNSt12_Vector_baseI12SimpleStructSaIS0_EE12_Vector_implC2Ev:
.LFB4352:
	.cfi_startproc
	stp	x29, x30, [sp, -32]!
	.cfi_def_cfa_offset 32
	.cfi_offset 29, -32
	.cfi_offset 30, -24
	mov	x29, sp
	str	x0, [sp, 24]
	ldr	x0, [sp, 24]
	bl	_ZNSaI12SimpleStructEC2Ev
	ldr	x0, [sp, 24]
	bl	_ZNSt12_Vector_baseI12SimpleStructSaIS0_EE17_Vector_impl_dataC2Ev
	nop
	ldp	x29, x30, [sp], 32
	.cfi_restore 30
	.cfi_restore 29
	.cfi_def_cfa_offset 0
	ret
	.cfi_endproc
.LFE4352:
	.size	_ZNSt12_Vector_baseI12SimpleStructSaIS0_EE12_Vector_implC2Ev, .-_ZNSt12_Vector_baseI12SimpleStructSaIS0_EE12_Vector_implC2Ev
	.weak	_ZNSt12_Vector_baseI12SimpleStructSaIS0_EE12_Vector_implC1Ev
	.set	_ZNSt12_Vector_baseI12SimpleStructSaIS0_EE12_Vector_implC1Ev,_ZNSt12_Vector_baseI12SimpleStructSaIS0_EE12_Vector_implC2Ev
	.section	.text._ZNSaI12SimpleStructED2Ev,"axG",@progbits,_ZNSaI12SimpleStructED5Ev,comdat
	.align	2
	.weak	_ZNSaI12SimpleStructED2Ev
	.type	_ZNSaI12SimpleStructED2Ev, %function
_ZNSaI12SimpleStructED2Ev:
.LFB4355:
	.cfi_startproc
	stp	x29, x30, [sp, -32]!
	.cfi_def_cfa_offset 32
	.cfi_offset 29, -32
	.cfi_offset 30, -24
	mov	x29, sp
	str	x0, [sp, 24]
	ldr	x0, [sp, 24]
	bl	_ZN9__gnu_cxx13new_allocatorI12SimpleStructED2Ev
	nop
	ldp	x29, x30, [sp], 32
	.cfi_restore 30
	.cfi_restore 29
	.cfi_def_cfa_offset 0
	ret
	.cfi_endproc
.LFE4355:
	.size	_ZNSaI12SimpleStructED2Ev, .-_ZNSaI12SimpleStructED2Ev
	.weak	_ZNSaI12SimpleStructED1Ev
	.set	_ZNSaI12SimpleStructED1Ev,_ZNSaI12SimpleStructED2Ev
	.section	.text._ZNSt12_Vector_baseI12SimpleStructSaIS0_EED2Ev,"axG",@progbits,_ZNSt12_Vector_baseI12SimpleStructSaIS0_EED5Ev,comdat
	.align	2
	.weak	_ZNSt12_Vector_baseI12SimpleStructSaIS0_EED2Ev
	.type	_ZNSt12_Vector_baseI12SimpleStructSaIS0_EED2Ev, %function
_ZNSt12_Vector_baseI12SimpleStructSaIS0_EED2Ev:
.LFB4358:
	.cfi_startproc
	.cfi_personality 0x9b,DW.ref.__gxx_personality_v0
	.cfi_lsda 0x1b,.LLSDA4358
	stp	x29, x30, [sp, -32]!
	.cfi_def_cfa_offset 32
	.cfi_offset 29, -32
	.cfi_offset 30, -24
	mov	x29, sp
	str	x0, [sp, 24]
	ldr	x0, [sp, 24]
	ldr	x3, [x0]
	ldr	x0, [sp, 24]
	ldr	x1, [x0, 16]
	ldr	x0, [sp, 24]
	ldr	x0, [x0]
	sub	x0, x1, x0
	asr	x1, x0, 4
	mov	x0, -6148914691236517206
	movk	x0, 0xaaab, lsl 0
	mul	x0, x1, x0
	mov	x2, x0
	mov	x1, x3
	ldr	x0, [sp, 24]
	bl	_ZNSt12_Vector_baseI12SimpleStructSaIS0_EE13_M_deallocateEPS0_m
	ldr	x0, [sp, 24]
	bl	_ZNSt12_Vector_baseI12SimpleStructSaIS0_EE12_Vector_implD1Ev
	nop
	ldp	x29, x30, [sp], 32
	.cfi_restore 30
	.cfi_restore 29
	.cfi_def_cfa_offset 0
	ret
	.cfi_endproc
.LFE4358:
	.section	.gcc_except_table
.LLSDA4358:
	.byte	0xff
	.byte	0xff
	.byte	0x1
	.uleb128 .LLSDACSE4358-.LLSDACSB4358
.LLSDACSB4358:
.LLSDACSE4358:
	.section	.text._ZNSt12_Vector_baseI12SimpleStructSaIS0_EED2Ev,"axG",@progbits,_ZNSt12_Vector_baseI12SimpleStructSaIS0_EED5Ev,comdat
	.size	_ZNSt12_Vector_baseI12SimpleStructSaIS0_EED2Ev, .-_ZNSt12_Vector_baseI12SimpleStructSaIS0_EED2Ev
	.weak	_ZNSt12_Vector_baseI12SimpleStructSaIS0_EED1Ev
	.set	_ZNSt12_Vector_baseI12SimpleStructSaIS0_EED1Ev,_ZNSt12_Vector_baseI12SimpleStructSaIS0_EED2Ev
	.section	.text._ZNSt6vectorI12SimpleStructSaIS0_EED2Ev,"axG",@progbits,_ZNSt6vectorI12SimpleStructSaIS0_EED5Ev,comdat
	.align	2
	.weak	_ZNSt6vectorI12SimpleStructSaIS0_EED2Ev
	.type	_ZNSt6vectorI12SimpleStructSaIS0_EED2Ev, %function
_ZNSt6vectorI12SimpleStructSaIS0_EED2Ev:
.LFB4361:
	.cfi_startproc
	.cfi_personality 0x9b,DW.ref.__gxx_personality_v0
	.cfi_lsda 0x1b,.LLSDA4361
	stp	x29, x30, [sp, -48]!
	.cfi_def_cfa_offset 48
	.cfi_offset 29, -48
	.cfi_offset 30, -40
	mov	x29, sp
	stp	x19, x20, [sp, 16]
	.cfi_offset 19, -32
	.cfi_offset 20, -24
	str	x0, [sp, 40]
	ldr	x0, [sp, 40]
	ldr	x19, [x0]
	ldr	x0, [sp, 40]
	ldr	x20, [x0, 8]
	ldr	x0, [sp, 40]
	bl	_ZNSt12_Vector_baseI12SimpleStructSaIS0_EE19_M_get_Tp_allocatorEv
	mov	x2, x0
	mov	x1, x20
	mov	x0, x19
	bl	_ZSt8_DestroyIP12SimpleStructS0_EvT_S2_RSaIT0_E
	ldr	x0, [sp, 40]
	bl	_ZNSt12_Vector_baseI12SimpleStructSaIS0_EED2Ev
	nop
	ldp	x19, x20, [sp, 16]
	ldp	x29, x30, [sp], 48
	.cfi_restore 30
	.cfi_restore 29
	.cfi_restore 19
	.cfi_restore 20
	.cfi_def_cfa_offset 0
	ret
	.cfi_endproc
.LFE4361:
	.section	.gcc_except_table
.LLSDA4361:
	.byte	0xff
	.byte	0xff
	.byte	0x1
	.uleb128 .LLSDACSE4361-.LLSDACSB4361
.LLSDACSB4361:
.LLSDACSE4361:
	.section	.text._ZNSt6vectorI12SimpleStructSaIS0_EED2Ev,"axG",@progbits,_ZNSt6vectorI12SimpleStructSaIS0_EED5Ev,comdat
	.size	_ZNSt6vectorI12SimpleStructSaIS0_EED2Ev, .-_ZNSt6vectorI12SimpleStructSaIS0_EED2Ev
	.weak	_ZNSt6vectorI12SimpleStructSaIS0_EED1Ev
	.set	_ZNSt6vectorI12SimpleStructSaIS0_EED1Ev,_ZNSt6vectorI12SimpleStructSaIS0_EED2Ev
	.section	.text._ZN8SqliteDB5QuaryI12SimpleStructSt6vectorIS1_SaIS1_EEEEvRK9ConditionRT0_,"axG",@progbits,_ZN8SqliteDB5QuaryI12SimpleStructSt6vectorIS1_SaIS1_EEEEvRK9ConditionRT0_,comdat
	.align	2
	.weak	_ZN8SqliteDB5QuaryI12SimpleStructSt6vectorIS1_SaIS1_EEEEvRK9ConditionRT0_
	.type	_ZN8SqliteDB5QuaryI12SimpleStructSt6vectorIS1_SaIS1_EEEEvRK9ConditionRT0_, %function
_ZN8SqliteDB5QuaryI12SimpleStructSt6vectorIS1_SaIS1_EEEEvRK9ConditionRT0_:
.LFB4363:
	.cfi_startproc
	.cfi_personality 0x9b,DW.ref.__gxx_personality_v0
	.cfi_lsda 0x1b,.LLSDA4363
	stp	x29, x30, [sp, -112]!
	.cfi_def_cfa_offset 112
	.cfi_offset 29, -112
	.cfi_offset 30, -104
	mov	x29, sp
	str	x19, [sp, 16]
	.cfi_offset 19, -96
	str	x0, [sp, 56]
	str	x1, [sp, 48]
	str	x2, [sp, 40]
	adrp	x0, :got:__stack_chk_guard
	ldr	x0, [x0, #:got_lo12:__stack_chk_guard]
	ldr	x1, [x0]
	str	x1, [sp, 104]
	mov	x1, 0
	add	x0, sp, 72
	mov	x8, x0
	ldr	x1, [sp, 48]
	ldr	x0, [sp, 56]
.LEHB102:
	bl	_ZN8SqliteDB16GenUtf8SelectSqlI12SimpleStructEENSt7__cxx1112basic_stringIcSt11char_traitsIcESaIcEEERK9Condition
.LEHE102:
	add	x0, sp, 72
	str	x0, [sp, 64]
	ldr	x1, [sp, 64]
	ldr	x0, [sp, 56]
.LEHB103:
	bl	_ZN8SqliteDB7PrepareERKNSt7__cxx1112basic_stringIcSt11char_traitsIcESaIcEEE
	ldr	x1, [sp, 40]
	ldr	x0, [sp, 56]
	bl	_ZN8SqliteDB4GetTI12SimpleStructSt6vectorIS1_SaIS1_EEEEvRT0_
.LEHE103:
	add	x0, sp, 72
	bl	_ZNSt7__cxx1112basic_stringIcSt11char_traitsIcESaIcEED1Ev
	adrp	x0, :got:__stack_chk_guard
	ldr	x0, [x0, #:got_lo12:__stack_chk_guard]
	ldr	x2, [sp, 104]
	ldr	x1, [x0]
	subs	x2, x2, x1
	mov	x1, 0
	beq	.L381
	b	.L383
.L382:
	mov	x19, x0
	add	x0, sp, 72
	bl	_ZNSt7__cxx1112basic_stringIcSt11char_traitsIcESaIcEED1Ev
	mov	x0, x19
.LEHB104:
	bl	_Unwind_Resume
.LEHE104:
.L383:
	bl	__stack_chk_fail
.L381:
	ldr	x19, [sp, 16]
	ldp	x29, x30, [sp], 112
	.cfi_restore 30
	.cfi_restore 29
	.cfi_restore 19
	.cfi_def_cfa_offset 0
	ret
	.cfi_endproc
.LFE4363:
	.section	.gcc_except_table
.LLSDA4363:
	.byte	0xff
	.byte	0xff
	.byte	0x1
	.uleb128 .LLSDACSE4363-.LLSDACSB4363
.LLSDACSB4363:
	.uleb128 .LEHB102-.LFB4363
	.uleb128 .LEHE102-.LEHB102
	.uleb128 0
	.uleb128 0
	.uleb128 .LEHB103-.LFB4363
	.uleb128 .LEHE103-.LEHB103
	.uleb128 .L382-.LFB4363
	.uleb128 0
	.uleb128 .LEHB104-.LFB4363
	.uleb128 .LEHE104-.LEHB104
	.uleb128 0
	.uleb128 0
.LLSDACSE4363:
	.section	.text._ZN8SqliteDB5QuaryI12SimpleStructSt6vectorIS1_SaIS1_EEEEvRK9ConditionRT0_,"axG",@progbits,_ZN8SqliteDB5QuaryI12SimpleStructSt6vectorIS1_SaIS1_EEEEvRK9ConditionRT0_,comdat
	.size	_ZN8SqliteDB5QuaryI12SimpleStructSt6vectorIS1_SaIS1_EEEEvRK9ConditionRT0_, .-_ZN8SqliteDB5QuaryI12SimpleStructSt6vectorIS1_SaIS1_EEEEvRK9ConditionRT0_
	.section	.text._ZNSt6vectorI12SimpleStructSaIS0_EE5beginEv,"axG",@progbits,_ZNSt6vectorI12SimpleStructSaIS0_EE5beginEv,comdat
	.align	2
	.weak	_ZNSt6vectorI12SimpleStructSaIS0_EE5beginEv
	.type	_ZNSt6vectorI12SimpleStructSaIS0_EE5beginEv, %function
_ZNSt6vectorI12SimpleStructSaIS0_EE5beginEv:
.LFB4364:
	.cfi_startproc
	stp	x29, x30, [sp, -48]!
	.cfi_def_cfa_offset 48
	.cfi_offset 29, -48
	.cfi_offset 30, -40
	mov	x29, sp
	str	x0, [sp, 24]
	adrp	x0, :got:__stack_chk_guard
	ldr	x0, [x0, #:got_lo12:__stack_chk_guard]
	ldr	x1, [x0]
	str	x1, [sp, 40]
	mov	x1, 0
	ldr	x1, [sp, 24]
	add	x0, sp, 32
	bl	_ZN9__gnu_cxx17__normal_iteratorIP12SimpleStructSt6vectorIS1_SaIS1_EEEC1ERKS2_
	ldr	x0, [sp, 32]
	mov	x1, x0
	adrp	x0, :got:__stack_chk_guard
	ldr	x0, [x0, #:got_lo12:__stack_chk_guard]
	ldr	x3, [sp, 40]
	ldr	x2, [x0]
	subs	x3, x3, x2
	mov	x2, 0
	beq	.L386
	bl	__stack_chk_fail
.L386:
	mov	x0, x1
	ldp	x29, x30, [sp], 48
	.cfi_restore 30
	.cfi_restore 29
	.cfi_def_cfa_offset 0
	ret
	.cfi_endproc
.LFE4364:
	.size	_ZNSt6vectorI12SimpleStructSaIS0_EE5beginEv, .-_ZNSt6vectorI12SimpleStructSaIS0_EE5beginEv
	.section	.text._ZNSt6vectorI12SimpleStructSaIS0_EE3endEv,"axG",@progbits,_ZNSt6vectorI12SimpleStructSaIS0_EE3endEv,comdat
	.align	2
	.weak	_ZNSt6vectorI12SimpleStructSaIS0_EE3endEv
	.type	_ZNSt6vectorI12SimpleStructSaIS0_EE3endEv, %function
_ZNSt6vectorI12SimpleStructSaIS0_EE3endEv:
.LFB4365:
	.cfi_startproc
	stp	x29, x30, [sp, -48]!
	.cfi_def_cfa_offset 48
	.cfi_offset 29, -48
	.cfi_offset 30, -40
	mov	x29, sp
	str	x0, [sp, 24]
	adrp	x0, :got:__stack_chk_guard
	ldr	x0, [x0, #:got_lo12:__stack_chk_guard]
	ldr	x1, [x0]
	str	x1, [sp, 40]
	mov	x1, 0
	ldr	x0, [sp, 24]
	add	x1, x0, 8
	add	x0, sp, 32
	bl	_ZN9__gnu_cxx17__normal_iteratorIP12SimpleStructSt6vectorIS1_SaIS1_EEEC1ERKS2_
	ldr	x0, [sp, 32]
	mov	x1, x0
	adrp	x0, :got:__stack_chk_guard
	ldr	x0, [x0, #:got_lo12:__stack_chk_guard]
	ldr	x3, [sp, 40]
	ldr	x2, [x0]
	subs	x3, x3, x2
	mov	x2, 0
	beq	.L389
	bl	__stack_chk_fail
.L389:
	mov	x0, x1
	ldp	x29, x30, [sp], 48
	.cfi_restore 30
	.cfi_restore 29
	.cfi_def_cfa_offset 0
	ret
	.cfi_endproc
.LFE4365:
	.size	_ZNSt6vectorI12SimpleStructSaIS0_EE3endEv, .-_ZNSt6vectorI12SimpleStructSaIS0_EE3endEv
	.section	.text._ZN9__gnu_cxxneIP12SimpleStructSt6vectorIS1_SaIS1_EEEEbRKNS_17__normal_iteratorIT_T0_EESB_,"axG",@progbits,_ZN9__gnu_cxxneIP12SimpleStructSt6vectorIS1_SaIS1_EEEEbRKNS_17__normal_iteratorIT_T0_EESB_,comdat
	.align	2
	.weak	_ZN9__gnu_cxxneIP12SimpleStructSt6vectorIS1_SaIS1_EEEEbRKNS_17__normal_iteratorIT_T0_EESB_
	.type	_ZN9__gnu_cxxneIP12SimpleStructSt6vectorIS1_SaIS1_EEEEbRKNS_17__normal_iteratorIT_T0_EESB_, %function
_ZN9__gnu_cxxneIP12SimpleStructSt6vectorIS1_SaIS1_EEEEbRKNS_17__normal_iteratorIT_T0_EESB_:
.LFB4366:
	.cfi_startproc
	stp	x29, x30, [sp, -48]!
	.cfi_def_cfa_offset 48
	.cfi_offset 29, -48
	.cfi_offset 30, -40
	mov	x29, sp
	str	x19, [sp, 16]
	.cfi_offset 19, -32
	str	x0, [sp, 40]
	str	x1, [sp, 32]
	ldr	x0, [sp, 40]
	bl	_ZNK9__gnu_cxx17__normal_iteratorIP12SimpleStructSt6vectorIS1_SaIS1_EEE4baseEv
	ldr	x19, [x0]
	ldr	x0, [sp, 32]
	bl	_ZNK9__gnu_cxx17__normal_iteratorIP12SimpleStructSt6vectorIS1_SaIS1_EEE4baseEv
	ldr	x0, [x0]
	cmp	x19, x0
	cset	w0, ne
	and	w0, w0, 255
	ldr	x19, [sp, 16]
	ldp	x29, x30, [sp], 48
	.cfi_restore 30
	.cfi_restore 29
	.cfi_restore 19
	.cfi_def_cfa_offset 0
	ret
	.cfi_endproc
.LFE4366:
	.size	_ZN9__gnu_cxxneIP12SimpleStructSt6vectorIS1_SaIS1_EEEEbRKNS_17__normal_iteratorIT_T0_EESB_, .-_ZN9__gnu_cxxneIP12SimpleStructSt6vectorIS1_SaIS1_EEEEbRKNS_17__normal_iteratorIT_T0_EESB_
	.section	.text._ZN9__gnu_cxx17__normal_iteratorIP12SimpleStructSt6vectorIS1_SaIS1_EEEppEv,"axG",@progbits,_ZN9__gnu_cxx17__normal_iteratorIP12SimpleStructSt6vectorIS1_SaIS1_EEEppEv,comdat
	.align	2
	.weak	_ZN9__gnu_cxx17__normal_iteratorIP12SimpleStructSt6vectorIS1_SaIS1_EEEppEv
	.type	_ZN9__gnu_cxx17__normal_iteratorIP12SimpleStructSt6vectorIS1_SaIS1_EEEppEv, %function
_ZN9__gnu_cxx17__normal_iteratorIP12SimpleStructSt6vectorIS1_SaIS1_EEEppEv:
.LFB4367:
	.cfi_startproc
	sub	sp, sp, #16
	.cfi_def_cfa_offset 16
	str	x0, [sp, 8]
	ldr	x0, [sp, 8]
	ldr	x0, [x0]
	add	x1, x0, 48
	ldr	x0, [sp, 8]
	str	x1, [x0]
	ldr	x0, [sp, 8]
	add	sp, sp, 16
	.cfi_def_cfa_offset 0
	ret
	.cfi_endproc
.LFE4367:
	.size	_ZN9__gnu_cxx17__normal_iteratorIP12SimpleStructSt6vectorIS1_SaIS1_EEEppEv, .-_ZN9__gnu_cxx17__normal_iteratorIP12SimpleStructSt6vectorIS1_SaIS1_EEEppEv
	.section	.text._ZNK9__gnu_cxx17__normal_iteratorIP12SimpleStructSt6vectorIS1_SaIS1_EEEdeEv,"axG",@progbits,_ZNK9__gnu_cxx17__normal_iteratorIP12SimpleStructSt6vectorIS1_SaIS1_EEEdeEv,comdat
	.align	2
	.weak	_ZNK9__gnu_cxx17__normal_iteratorIP12SimpleStructSt6vectorIS1_SaIS1_EEEdeEv
	.type	_ZNK9__gnu_cxx17__normal_iteratorIP12SimpleStructSt6vectorIS1_SaIS1_EEEdeEv, %function
_ZNK9__gnu_cxx17__normal_iteratorIP12SimpleStructSt6vectorIS1_SaIS1_EEEdeEv:
.LFB4368:
	.cfi_startproc
	sub	sp, sp, #16
	.cfi_def_cfa_offset 16
	str	x0, [sp, 8]
	ldr	x0, [sp, 8]
	ldr	x0, [x0]
	add	sp, sp, 16
	.cfi_def_cfa_offset 0
	ret
	.cfi_endproc
.LFE4368:
	.size	_ZNK9__gnu_cxx17__normal_iteratorIP12SimpleStructSt6vectorIS1_SaIS1_EEEdeEv, .-_ZNK9__gnu_cxx17__normal_iteratorIP12SimpleStructSt6vectorIS1_SaIS1_EEEdeEv
	.weak	_ZZN8SqliteDB6UpdateIR12SimpleStructiEEvOT_MNSt5decayIS3_E4typeET0_E19strUtf8UpdatePreSqlB5cxx11
	.section	.bss._ZZN8SqliteDB6UpdateIR12SimpleStructiEEvOT_MNSt5decayIS3_E4typeET0_E19strUtf8UpdatePreSqlB5cxx11,"awG",@nobits,_ZZN8SqliteDB6UpdateIR12SimpleStructiEEvOT_MNSt5decayIS3_E4typeET0_E19strUtf8UpdatePreSqlB5cxx11,comdat
	.align	3
	.type	_ZZN8SqliteDB6UpdateIR12SimpleStructiEEvOT_MNSt5decayIS3_E4typeET0_E19strUtf8UpdatePreSqlB5cxx11, %gnu_unique_object
	.size	_ZZN8SqliteDB6UpdateIR12SimpleStructiEEvOT_MNSt5decayIS3_E4typeET0_E19strUtf8UpdatePreSqlB5cxx11, 8
_ZZN8SqliteDB6UpdateIR12SimpleStructiEEvOT_MNSt5decayIS3_E4typeET0_E19strUtf8UpdatePreSqlB5cxx11:
	.zero	8
	.weak	_ZGRZN8SqliteDB6UpdateIR12SimpleStructiEEvOT_MNSt5decayIS3_E4typeET0_E19strUtf8UpdatePreSqlB5cxx11_
	.section	.bss._ZGRZN8SqliteDB6UpdateIR12SimpleStructiEEvOT_MNSt5decayIS3_E4typeET0_E19strUtf8UpdatePreSqlB5cxx11_,"awG",@nobits,_ZGRZN8SqliteDB6UpdateIR12SimpleStructiEEvOT_MNSt5decayIS3_E4typeET0_E19strUtf8UpdatePreSqlB5cxx11_,comdat
	.align	3
	.type	_ZGRZN8SqliteDB6UpdateIR12SimpleStructiEEvOT_MNSt5decayIS3_E4typeET0_E19strUtf8UpdatePreSqlB5cxx11_, %gnu_unique_object
	.size	_ZGRZN8SqliteDB6UpdateIR12SimpleStructiEEvOT_MNSt5decayIS3_E4typeET0_E19strUtf8UpdatePreSqlB5cxx11_, 32
_ZGRZN8SqliteDB6UpdateIR12SimpleStructiEEvOT_MNSt5decayIS3_E4typeET0_E19strUtf8UpdatePreSqlB5cxx11_:
	.zero	32
	.weak	_ZGVZN8SqliteDB6UpdateIR12SimpleStructiEEvOT_MNSt5decayIS3_E4typeET0_E19strUtf8UpdatePreSqlB5cxx11
	.section	.bss._ZGVZN8SqliteDB6UpdateIR12SimpleStructiEEvOT_MNSt5decayIS3_E4typeET0_E19strUtf8UpdatePreSqlB5cxx11,"awG",@nobits,_ZGVZN8SqliteDB6UpdateIR12SimpleStructiEEvOT_MNSt5decayIS3_E4typeET0_E19strUtf8UpdatePreSqlB5cxx11,comdat
	.align	3
	.type	_ZGVZN8SqliteDB6UpdateIR12SimpleStructiEEvOT_MNSt5decayIS3_E4typeET0_E19strUtf8UpdatePreSqlB5cxx11, %gnu_unique_object
	.size	_ZGVZN8SqliteDB6UpdateIR12SimpleStructiEEvOT_MNSt5decayIS3_E4typeET0_E19strUtf8UpdatePreSqlB5cxx11, 8
_ZGVZN8SqliteDB6UpdateIR12SimpleStructiEEvOT_MNSt5decayIS3_E4typeET0_E19strUtf8UpdatePreSqlB5cxx11:
	.zero	8
	.section	.text._ZN8SqliteDB6UpdateIR12SimpleStructiEEvOT_MNSt5decayIS3_E4typeET0_,"axG",@progbits,_ZN8SqliteDB6UpdateIR12SimpleStructiEEvOT_MNSt5decayIS3_E4typeET0_,comdat
	.align	2
	.weak	_ZN8SqliteDB6UpdateIR12SimpleStructiEEvOT_MNSt5decayIS3_E4typeET0_
	.type	_ZN8SqliteDB6UpdateIR12SimpleStructiEEvOT_MNSt5decayIS3_E4typeET0_, %function
_ZN8SqliteDB6UpdateIR12SimpleStructiEEvOT_MNSt5decayIS3_E4typeET0_:
.LFB4370:
	.cfi_startproc
	.cfi_personality 0x9b,DW.ref.__gxx_personality_v0
	.cfi_lsda 0x1b,.LLSDA4370
	stp	x29, x30, [sp, -80]!
	.cfi_def_cfa_offset 80
	.cfi_offset 29, -80
	.cfi_offset 30, -72
	mov	x29, sp
	stp	x19, x20, [sp, 16]
	.cfi_offset 19, -64
	.cfi_offset 20, -56
	str	x0, [sp, 56]
	str	x1, [sp, 48]
	str	x2, [sp, 40]
	adrp	x0, :got:__stack_chk_guard
	ldr	x0, [x0, #:got_lo12:__stack_chk_guard]
	ldr	x1, [x0]
	str	x1, [sp, 72]
	mov	x1, 0
	adrp	x0, _ZGVZN8SqliteDB6UpdateIR12SimpleStructiEEvOT_MNSt5decayIS3_E4typeET0_E19strUtf8UpdatePreSqlB5cxx11
	add	x0, x0, :lo12:_ZGVZN8SqliteDB6UpdateIR12SimpleStructiEEvOT_MNSt5decayIS3_E4typeET0_E19strUtf8UpdatePreSqlB5cxx11
	ldar	x0, [x0]
	and	x0, x0, 1
	cmp	x0, 0
	cset	w0, eq
	and	w0, w0, 255
	cmp	w0, 0
	beq	.L397
	adrp	x0, _ZGVZN8SqliteDB6UpdateIR12SimpleStructiEEvOT_MNSt5decayIS3_E4typeET0_E19strUtf8UpdatePreSqlB5cxx11
	add	x0, x0, :lo12:_ZGVZN8SqliteDB6UpdateIR12SimpleStructiEEvOT_MNSt5decayIS3_E4typeET0_E19strUtf8UpdatePreSqlB5cxx11
	bl	__cxa_guard_acquire
	cmp	w0, 0
	cset	w0, ne
	and	w0, w0, 255
	cmp	w0, 0
	beq	.L397
	mov	w19, 0
	adrp	x0, _ZGRZN8SqliteDB6UpdateIR12SimpleStructiEEvOT_MNSt5decayIS3_E4typeET0_E19strUtf8UpdatePreSqlB5cxx11_
	add	x0, x0, :lo12:_ZGRZN8SqliteDB6UpdateIR12SimpleStructiEEvOT_MNSt5decayIS3_E4typeET0_E19strUtf8UpdatePreSqlB5cxx11_
	mov	x8, x0
	ldr	x2, [sp, 40]
	ldr	x1, [sp, 48]
	ldr	x0, [sp, 56]
.LEHB105:
	bl	_ZN8SqliteDB19GenUtf8UpdatePreSqlIR12SimpleStructiEENSt7__cxx1112basic_stringIcSt11char_traitsIcESaIcEEEOT_MNSt5decayIS9_E4typeET0_
.LEHE105:
	adrp	x0, __dso_handle
	add	x2, x0, :lo12:__dso_handle
	adrp	x0, _ZGRZN8SqliteDB6UpdateIR12SimpleStructiEEvOT_MNSt5decayIS3_E4typeET0_E19strUtf8UpdatePreSqlB5cxx11_
	add	x1, x0, :lo12:_ZGRZN8SqliteDB6UpdateIR12SimpleStructiEEvOT_MNSt5decayIS3_E4typeET0_E19strUtf8UpdatePreSqlB5cxx11_
	adrp	x0, :got:_ZNSt7__cxx1112basic_stringIcSt11char_traitsIcESaIcEED1Ev
	ldr	x0, [x0, #:got_lo12:_ZNSt7__cxx1112basic_stringIcSt11char_traitsIcESaIcEED1Ev]
	bl	__cxa_atexit
	adrp	x0, _ZZN8SqliteDB6UpdateIR12SimpleStructiEEvOT_MNSt5decayIS3_E4typeET0_E19strUtf8UpdatePreSqlB5cxx11
	add	x0, x0, :lo12:_ZZN8SqliteDB6UpdateIR12SimpleStructiEEvOT_MNSt5decayIS3_E4typeET0_E19strUtf8UpdatePreSqlB5cxx11
	adrp	x1, _ZGRZN8SqliteDB6UpdateIR12SimpleStructiEEvOT_MNSt5decayIS3_E4typeET0_E19strUtf8UpdatePreSqlB5cxx11_
	add	x1, x1, :lo12:_ZGRZN8SqliteDB6UpdateIR12SimpleStructiEEvOT_MNSt5decayIS3_E4typeET0_E19strUtf8UpdatePreSqlB5cxx11_
	str	x1, [x0]
	adrp	x0, _ZGVZN8SqliteDB6UpdateIR12SimpleStructiEEvOT_MNSt5decayIS3_E4typeET0_E19strUtf8UpdatePreSqlB5cxx11
	add	x0, x0, :lo12:_ZGVZN8SqliteDB6UpdateIR12SimpleStructiEEvOT_MNSt5decayIS3_E4typeET0_E19strUtf8UpdatePreSqlB5cxx11
	bl	__cxa_guard_release
.L397:
	adrp	x0, _ZZN8SqliteDB6UpdateIR12SimpleStructiEEvOT_MNSt5decayIS3_E4typeET0_E19strUtf8UpdatePreSqlB5cxx11
	add	x0, x0, :lo12:_ZZN8SqliteDB6UpdateIR12SimpleStructiEEvOT_MNSt5decayIS3_E4typeET0_E19strUtf8UpdatePreSqlB5cxx11
	ldr	x0, [x0]
	mov	x1, x0
	ldr	x0, [sp, 56]
.LEHB106:
	bl	_ZN8SqliteDB7PrepareERKNSt7__cxx1112basic_stringIcSt11char_traitsIcESaIcEEE
	ldr	x0, [sp, 56]
	ldr	x3, [x0]
	ldr	x0, [sp, 56]
	ldr	x0, [x0, 8]
	ldr	x2, [sp, 48]
	mov	x1, x0
	mov	x0, x3
	bl	_Z12BindFieldValIR12SimpleStructEvP7sqlite3P12sqlite3_stmtOT_
	ldr	x0, [sp, 56]
	bl	_ZN8SqliteDB18ExecuteParparseSQLEv
	nop
	adrp	x0, :got:__stack_chk_guard
	ldr	x0, [x0, #:got_lo12:__stack_chk_guard]
	ldr	x2, [sp, 72]
	ldr	x1, [x0]
	subs	x2, x2, x1
	mov	x1, 0
	beq	.L400
	b	.L402
.L401:
	mov	x20, x0
	cmp	w19, 0
	bne	.L399
	adrp	x0, _ZGVZN8SqliteDB6UpdateIR12SimpleStructiEEvOT_MNSt5decayIS3_E4typeET0_E19strUtf8UpdatePreSqlB5cxx11
	add	x0, x0, :lo12:_ZGVZN8SqliteDB6UpdateIR12SimpleStructiEEvOT_MNSt5decayIS3_E4typeET0_E19strUtf8UpdatePreSqlB5cxx11
	bl	__cxa_guard_abort
.L399:
	mov	x0, x20
	bl	_Unwind_Resume
.LEHE106:
.L402:
	bl	__stack_chk_fail
.L400:
	ldp	x19, x20, [sp, 16]
	ldp	x29, x30, [sp], 80
	.cfi_restore 30
	.cfi_restore 29
	.cfi_restore 19
	.cfi_restore 20
	.cfi_def_cfa_offset 0
	ret
	.cfi_endproc
.LFE4370:
	.section	.gcc_except_table
.LLSDA4370:
	.byte	0xff
	.byte	0xff
	.byte	0x1
	.uleb128 .LLSDACSE4370-.LLSDACSB4370
.LLSDACSB4370:
	.uleb128 .LEHB105-.LFB4370
	.uleb128 .LEHE105-.LEHB105
	.uleb128 .L401-.LFB4370
	.uleb128 0
	.uleb128 .LEHB106-.LFB4370
	.uleb128 .LEHE106-.LEHB106
	.uleb128 0
	.uleb128 0
.LLSDACSE4370:
	.section	.text._ZN8SqliteDB6UpdateIR12SimpleStructiEEvOT_MNSt5decayIS3_E4typeET0_,"axG",@progbits,_ZN8SqliteDB6UpdateIR12SimpleStructiEEvOT_MNSt5decayIS3_E4typeET0_,comdat
	.size	_ZN8SqliteDB6UpdateIR12SimpleStructiEEvOT_MNSt5decayIS3_E4typeET0_, .-_ZN8SqliteDB6UpdateIR12SimpleStructiEEvOT_MNSt5decayIS3_E4typeET0_
	.section	.text._ZNSt7__cxx1112basic_stringIcSt11char_traitsIcESaIcEE12_M_constructIPKcEEvT_S8_,"axG",@progbits,_ZNSt7__cxx1112basic_stringIcSt11char_traitsIcESaIcEE12_M_constructIPKcEEvT_S8_,comdat
	.align	2
	.weak	_ZNSt7__cxx1112basic_stringIcSt11char_traitsIcESaIcEE12_M_constructIPKcEEvT_S8_
	.type	_ZNSt7__cxx1112basic_stringIcSt11char_traitsIcESaIcEE12_M_constructIPKcEEvT_S8_, %function
_ZNSt7__cxx1112basic_stringIcSt11char_traitsIcESaIcEE12_M_constructIPKcEEvT_S8_:
.LFB4404:
	.cfi_startproc
	stp	x29, x30, [sp, -48]!
	.cfi_def_cfa_offset 48
	.cfi_offset 29, -48
	.cfi_offset 30, -40
	mov	x29, sp
	str	x0, [sp, 40]
	str	x1, [sp, 32]
	str	x2, [sp, 24]
	ldr	x2, [sp, 24]
	ldr	x1, [sp, 32]
	ldr	x0, [sp, 40]
	bl	_ZNSt7__cxx1112basic_stringIcSt11char_traitsIcESaIcEE16_M_construct_auxIPKcEEvT_S8_St12__false_type
	nop
	ldp	x29, x30, [sp], 48
	.cfi_restore 30
	.cfi_restore 29
	.cfi_def_cfa_offset 0
	ret
	.cfi_endproc
.LFE4404:
	.size	_ZNSt7__cxx1112basic_stringIcSt11char_traitsIcESaIcEE12_M_constructIPKcEEvT_S8_, .-_ZNSt7__cxx1112basic_stringIcSt11char_traitsIcESaIcEE12_M_constructIPKcEEvT_S8_
	.section	.text._ZSt4moveIRNSt7__cxx1112basic_stringIcSt11char_traitsIcESaIcEEEEONSt16remove_referenceIT_E4typeEOS8_,"axG",@progbits,_ZSt4moveIRNSt7__cxx1112basic_stringIcSt11char_traitsIcESaIcEEEEONSt16remove_referenceIT_E4typeEOS8_,comdat
	.align	2
	.weak	_ZSt4moveIRNSt7__cxx1112basic_stringIcSt11char_traitsIcESaIcEEEEONSt16remove_referenceIT_E4typeEOS8_
	.type	_ZSt4moveIRNSt7__cxx1112basic_stringIcSt11char_traitsIcESaIcEEEEONSt16remove_referenceIT_E4typeEOS8_, %function
_ZSt4moveIRNSt7__cxx1112basic_stringIcSt11char_traitsIcESaIcEEEEONSt16remove_referenceIT_E4typeEOS8_:
.LFB4443:
	.cfi_startproc
	sub	sp, sp, #16
	.cfi_def_cfa_offset 16
	str	x0, [sp, 8]
	ldr	x0, [sp, 8]
	add	sp, sp, 16
	.cfi_def_cfa_offset 0
	ret
	.cfi_endproc
.LFE4443:
	.size	_ZSt4moveIRNSt7__cxx1112basic_stringIcSt11char_traitsIcESaIcEEEEONSt16remove_referenceIT_E4typeEOS8_, .-_ZSt4moveIRNSt7__cxx1112basic_stringIcSt11char_traitsIcESaIcEEEEONSt16remove_referenceIT_E4typeEOS8_
	.section	.text._ZN5boost16exception_detail12refcount_ptrINS0_20error_info_containerEE7releaseEv,"axG",@progbits,_ZN5boost16exception_detail12refcount_ptrINS0_20error_info_containerEE7releaseEv,comdat
	.align	2
	.weak	_ZN5boost16exception_detail12refcount_ptrINS0_20error_info_containerEE7releaseEv
	.type	_ZN5boost16exception_detail12refcount_ptrINS0_20error_info_containerEE7releaseEv, %function
_ZN5boost16exception_detail12refcount_ptrINS0_20error_info_containerEE7releaseEv:
.LFB4446:
	.cfi_startproc
	stp	x29, x30, [sp, -32]!
	.cfi_def_cfa_offset 32
	.cfi_offset 29, -32
	.cfi_offset 30, -24
	mov	x29, sp
	str	x0, [sp, 24]
	ldr	x0, [sp, 24]
	ldr	x0, [x0]
	cmp	x0, 0
	beq	.L407
	ldr	x0, [sp, 24]
	ldr	x0, [x0]
	ldr	x0, [x0]
	add	x0, x0, 32
	ldr	x1, [x0]
	ldr	x0, [sp, 24]
	ldr	x0, [x0]
	blr	x1
	and	w0, w0, 255
	cmp	w0, 0
	beq	.L407
	mov	w0, 1
	b	.L408
.L407:
	mov	w0, 0
.L408:
	cmp	w0, 0
	beq	.L410
	ldr	x0, [sp, 24]
	str	xzr, [x0]
.L410:
	nop
	ldp	x29, x30, [sp], 32
	.cfi_restore 30
	.cfi_restore 29
	.cfi_def_cfa_offset 0
	ret
	.cfi_endproc
.LFE4446:
	.size	_ZN5boost16exception_detail12refcount_ptrINS0_20error_info_containerEE7releaseEv, .-_ZN5boost16exception_detail12refcount_ptrINS0_20error_info_containerEE7releaseEv
	.section	.text._ZN5boost16exception_detail12refcount_ptrINS0_20error_info_containerEE5adoptEPS2_,"axG",@progbits,_ZN5boost16exception_detail12refcount_ptrINS0_20error_info_containerEE5adoptEPS2_,comdat
	.align	2
	.weak	_ZN5boost16exception_detail12refcount_ptrINS0_20error_info_containerEE5adoptEPS2_
	.type	_ZN5boost16exception_detail12refcount_ptrINS0_20error_info_containerEE5adoptEPS2_, %function
_ZN5boost16exception_detail12refcount_ptrINS0_20error_info_containerEE5adoptEPS2_:
.LFB4447:
	.cfi_startproc
	stp	x29, x30, [sp, -32]!
	.cfi_def_cfa_offset 32
	.cfi_offset 29, -32
	.cfi_offset 30, -24
	mov	x29, sp
	str	x0, [sp, 24]
	str	x1, [sp, 16]
	ldr	x0, [sp, 24]
	bl	_ZN5boost16exception_detail12refcount_ptrINS0_20error_info_containerEE7releaseEv
	ldr	x0, [sp, 24]
	ldr	x1, [sp, 16]
	str	x1, [x0]
	ldr	x0, [sp, 24]
	bl	_ZN5boost16exception_detail12refcount_ptrINS0_20error_info_containerEE7add_refEv
	nop
	ldp	x29, x30, [sp], 32
	.cfi_restore 30
	.cfi_restore 29
	.cfi_def_cfa_offset 0
	ret
	.cfi_endproc
.LFE4447:
	.size	_ZN5boost16exception_detail12refcount_ptrINS0_20error_info_containerEE5adoptEPS2_, .-_ZN5boost16exception_detail12refcount_ptrINS0_20error_info_containerEE5adoptEPS2_
	.section	.text._ZSt8distanceIPKcENSt15iterator_traitsIT_E15difference_typeES3_S3_,"axG",@progbits,_ZSt8distanceIPKcENSt15iterator_traitsIT_E15difference_typeES3_S3_,comdat
	.align	2
	.weak	_ZSt8distanceIPKcENSt15iterator_traitsIT_E15difference_typeES3_S3_
	.type	_ZSt8distanceIPKcENSt15iterator_traitsIT_E15difference_typeES3_S3_, %function
_ZSt8distanceIPKcENSt15iterator_traitsIT_E15difference_typeES3_S3_:
.LFB4449:
	.cfi_startproc
	stp	x29, x30, [sp, -48]!
	.cfi_def_cfa_offset 48
	.cfi_offset 29, -48
	.cfi_offset 30, -40
	mov	x29, sp
	stp	x19, x20, [sp, 16]
	.cfi_offset 19, -32
	.cfi_offset 20, -24
	str	x0, [sp, 40]
	str	x1, [sp, 32]
	ldr	x19, [sp, 40]
	add	x0, sp, 40
	bl	_ZSt19__iterator_categoryIPKcENSt15iterator_traitsIT_E17iterator_categoryERKS3_
	mov	w2, w20
	ldr	x1, [sp, 32]
	mov	x0, x19
	bl	_ZSt10__distanceIPKcENSt15iterator_traitsIT_E15difference_typeES3_S3_St26random_access_iterator_tag
	ldp	x19, x20, [sp, 16]
	ldp	x29, x30, [sp], 48
	.cfi_restore 30
	.cfi_restore 29
	.cfi_restore 19
	.cfi_restore 20
	.cfi_def_cfa_offset 0
	ret
	.cfi_endproc
.LFE4449:
	.size	_ZSt8distanceIPKcENSt15iterator_traitsIT_E15difference_typeES3_S3_, .-_ZSt8distanceIPKcENSt15iterator_traitsIT_E15difference_typeES3_S3_
	.section	.rodata
	.align	3
.LC31:
	.string	"basic_string::_M_construct null not valid"
	.section	.text._ZNSt7__cxx1112basic_stringIcSt11char_traitsIcESaIcEE12_M_constructIPKcEEvT_S8_St20forward_iterator_tag,"axG",@progbits,_ZNSt7__cxx1112basic_stringIcSt11char_traitsIcESaIcEE12_M_constructIPKcEEvT_S8_St20forward_iterator_tag,comdat
	.align	2
	.weak	_ZNSt7__cxx1112basic_stringIcSt11char_traitsIcESaIcEE12_M_constructIPKcEEvT_S8_St20forward_iterator_tag
	.type	_ZNSt7__cxx1112basic_stringIcSt11char_traitsIcESaIcEE12_M_constructIPKcEEvT_S8_St20forward_iterator_tag, %function
_ZNSt7__cxx1112basic_stringIcSt11char_traitsIcESaIcEE12_M_constructIPKcEEvT_S8_St20forward_iterator_tag:
.LFB4448:
	.cfi_startproc
	.cfi_personality 0x9b,DW.ref.__gxx_personality_v0
	.cfi_lsda 0x1b,.LLSDA4448
	stp	x29, x30, [sp, -80]!
	.cfi_def_cfa_offset 80
	.cfi_offset 29, -80
	.cfi_offset 30, -72
	mov	x29, sp
	str	x19, [sp, 16]
	.cfi_offset 19, -64
	str	x0, [sp, 56]
	str	x1, [sp, 48]
	str	x2, [sp, 40]
	strb	w3, [sp, 32]
	adrp	x0, :got:__stack_chk_guard
	ldr	x0, [x0, #:got_lo12:__stack_chk_guard]
	ldr	x1, [x0]
	str	x1, [sp, 72]
	mov	x1, 0
	ldr	x0, [sp, 48]
	bl	_ZN9__gnu_cxx17__is_null_pointerIKcEEbPT_
	and	w0, w0, 255
	cmp	w0, 0
	beq	.L415
	ldr	x1, [sp, 48]
	ldr	x0, [sp, 40]
	cmp	x1, x0
	beq	.L415
	mov	w0, 1
	b	.L416
.L415:
	mov	w0, 0
.L416:
	cmp	w0, 0
	beq	.L417
	adrp	x0, .LC31
	add	x0, x0, :lo12:.LC31
.LEHB107:
	bl	_ZSt19__throw_logic_errorPKc
.L417:
	ldr	x1, [sp, 40]
	ldr	x0, [sp, 48]
	bl	_ZSt8distanceIPKcENSt15iterator_traitsIT_E15difference_typeES3_S3_
	str	x0, [sp, 64]
	ldr	x0, [sp, 64]
	cmp	x0, 15
	bls	.L418
	add	x0, sp, 64
	mov	x2, 0
	mov	x1, x0
	ldr	x0, [sp, 56]
	bl	_ZNSt7__cxx1112basic_stringIcSt11char_traitsIcESaIcEE9_M_createERmm
	mov	x1, x0
	ldr	x0, [sp, 56]
	bl	_ZNSt7__cxx1112basic_stringIcSt11char_traitsIcESaIcEE7_M_dataEPc
	ldr	x0, [sp, 64]
	mov	x1, x0
	ldr	x0, [sp, 56]
	bl	_ZNSt7__cxx1112basic_stringIcSt11char_traitsIcESaIcEE11_M_capacityEm
.LEHE107:
.L418:
	ldr	x0, [sp, 56]
.LEHB108:
	bl	_ZNKSt7__cxx1112basic_stringIcSt11char_traitsIcESaIcEE7_M_dataEv
.LEHE108:
	ldr	x2, [sp, 40]
	ldr	x1, [sp, 48]
	bl	_ZNSt7__cxx1112basic_stringIcSt11char_traitsIcESaIcEE13_S_copy_charsEPcPKcS7_
	ldr	x0, [sp, 64]
	mov	x1, x0
	ldr	x0, [sp, 56]
.LEHB109:
	bl	_ZNSt7__cxx1112basic_stringIcSt11char_traitsIcESaIcEE13_M_set_lengthEm
.LEHE109:
	nop
	adrp	x0, :got:__stack_chk_guard
	ldr	x0, [x0, #:got_lo12:__stack_chk_guard]
	ldr	x2, [sp, 72]
	ldr	x1, [x0]
	subs	x2, x2, x1
	mov	x1, 0
	beq	.L421
	b	.L424
.L422:
	bl	__cxa_begin_catch
	ldr	x0, [sp, 56]
.LEHB110:
	bl	_ZNSt7__cxx1112basic_stringIcSt11char_traitsIcESaIcEE10_M_disposeEv
	bl	__cxa_rethrow
.LEHE110:
.L423:
	mov	x19, x0
	bl	__cxa_end_catch
	mov	x0, x19
.LEHB111:
	bl	_Unwind_Resume
.LEHE111:
.L424:
	bl	__stack_chk_fail
.L421:
	ldr	x19, [sp, 16]
	ldp	x29, x30, [sp], 80
	.cfi_restore 30
	.cfi_restore 29
	.cfi_restore 19
	.cfi_def_cfa_offset 0
	ret
	.cfi_endproc
.LFE4448:
	.section	.gcc_except_table
	.align	2
.LLSDA4448:
	.byte	0xff
	.byte	0x9b
	.uleb128 .LLSDATT4448-.LLSDATTD4448
.LLSDATTD4448:
	.byte	0x1
	.uleb128 .LLSDACSE4448-.LLSDACSB4448
.LLSDACSB4448:
	.uleb128 .LEHB107-.LFB4448
	.uleb128 .LEHE107-.LEHB107
	.uleb128 0
	.uleb128 0
	.uleb128 .LEHB108-.LFB4448
	.uleb128 .LEHE108-.LEHB108
	.uleb128 .L422-.LFB4448
	.uleb128 0x1
	.uleb128 .LEHB109-.LFB4448
	.uleb128 .LEHE109-.LEHB109
	.uleb128 0
	.uleb128 0
	.uleb128 .LEHB110-.LFB4448
	.uleb128 .LEHE110-.LEHB110
	.uleb128 .L423-.LFB4448
	.uleb128 0
	.uleb128 .LEHB111-.LFB4448
	.uleb128 .LEHE111-.LEHB111
	.uleb128 0
	.uleb128 0
.LLSDACSE4448:
	.byte	0x1
	.byte	0
	.align	2
	.4byte	0

.LLSDATT4448:
	.section	.text._ZNSt7__cxx1112basic_stringIcSt11char_traitsIcESaIcEE12_M_constructIPKcEEvT_S8_St20forward_iterator_tag,"axG",@progbits,_ZNSt7__cxx1112basic_stringIcSt11char_traitsIcESaIcEE12_M_constructIPKcEEvT_S8_St20forward_iterator_tag,comdat
	.size	_ZNSt7__cxx1112basic_stringIcSt11char_traitsIcESaIcEE12_M_constructIPKcEEvT_S8_St20forward_iterator_tag, .-_ZNSt7__cxx1112basic_stringIcSt11char_traitsIcESaIcEE12_M_constructIPKcEEvT_S8_St20forward_iterator_tag
	.section	.text._ZN5boost16exception_detail10clone_baseC2Ev,"axG",@progbits,_ZN5boost16exception_detail10clone_baseC5Ev,comdat
	.align	2
	.weak	_ZN5boost16exception_detail10clone_baseC2Ev
	.type	_ZN5boost16exception_detail10clone_baseC2Ev, %function
_ZN5boost16exception_detail10clone_baseC2Ev:
.LFB4452:
	.cfi_startproc
	sub	sp, sp, #16
	.cfi_def_cfa_offset 16
	str	x0, [sp, 8]
	adrp	x0, _ZTVN5boost16exception_detail10clone_baseE+16
	add	x1, x0, :lo12:_ZTVN5boost16exception_detail10clone_baseE+16
	ldr	x0, [sp, 8]
	str	x1, [x0]
	nop
	add	sp, sp, 16
	.cfi_def_cfa_offset 0
	ret
	.cfi_endproc
.LFE4452:
	.size	_ZN5boost16exception_detail10clone_baseC2Ev, .-_ZN5boost16exception_detail10clone_baseC2Ev
	.weak	_ZN5boost16exception_detail10clone_baseC1Ev
	.set	_ZN5boost16exception_detail10clone_baseC1Ev,_ZN5boost16exception_detail10clone_baseC2Ev
	.section	.text._ZN5boost10wrapexceptISt13runtime_errorEC2ERKS1_,"axG",@progbits,_ZN5boost10wrapexceptISt13runtime_errorEC5ERKS1_,comdat
	.align	2
	.weak	_ZN5boost10wrapexceptISt13runtime_errorEC2ERKS1_
	.type	_ZN5boost10wrapexceptISt13runtime_errorEC2ERKS1_, %function
_ZN5boost10wrapexceptISt13runtime_errorEC2ERKS1_:
.LFB4454:
	.cfi_startproc
	stp	x29, x30, [sp, -32]!
	.cfi_def_cfa_offset 32
	.cfi_offset 29, -32
	.cfi_offset 30, -24
	mov	x29, sp
	str	x0, [sp, 24]
	str	x1, [sp, 16]
	ldr	x0, [sp, 24]
	bl	_ZN5boost16exception_detail10clone_baseC2Ev
	ldr	x0, [sp, 24]
	add	x0, x0, 8
	ldr	x1, [sp, 16]
	bl	_ZNSt13runtime_errorC2ERKS_
	ldr	x0, [sp, 24]
	add	x0, x0, 24
	bl	_ZN5boost9exceptionC2Ev
	adrp	x0, _ZTVN5boost10wrapexceptISt13runtime_errorEE+16
	add	x1, x0, :lo12:_ZTVN5boost10wrapexceptISt13runtime_errorEE+16
	ldr	x0, [sp, 24]
	str	x1, [x0]
	adrp	x0, _ZTVN5boost10wrapexceptISt13runtime_errorEE+64
	add	x1, x0, :lo12:_ZTVN5boost10wrapexceptISt13runtime_errorEE+64
	ldr	x0, [sp, 24]
	str	x1, [x0, 8]
	adrp	x0, _ZTVN5boost10wrapexceptISt13runtime_errorEE+104
	add	x1, x0, :lo12:_ZTVN5boost10wrapexceptISt13runtime_errorEE+104
	ldr	x0, [sp, 24]
	str	x1, [x0, 24]
	ldr	x1, [sp, 16]
	ldr	x0, [sp, 24]
	bl	_ZN5boost10wrapexceptISt13runtime_errorE9copy_fromEPKv
	nop
	ldp	x29, x30, [sp], 32
	.cfi_restore 30
	.cfi_restore 29
	.cfi_def_cfa_offset 0
	ret
	.cfi_endproc
.LFE4454:
	.size	_ZN5boost10wrapexceptISt13runtime_errorEC2ERKS1_, .-_ZN5boost10wrapexceptISt13runtime_errorEC2ERKS1_
	.weak	_ZN5boost10wrapexceptISt13runtime_errorEC1ERKS1_
	.set	_ZN5boost10wrapexceptISt13runtime_errorEC1ERKS1_,_ZN5boost10wrapexceptISt13runtime_errorEC2ERKS1_
	.section	.text._ZSt7forwardImEOT_RNSt16remove_referenceIS0_E4typeE,"axG",@progbits,_ZSt7forwardImEOT_RNSt16remove_referenceIS0_E4typeE,comdat
	.align	2
	.weak	_ZSt7forwardImEOT_RNSt16remove_referenceIS0_E4typeE
	.type	_ZSt7forwardImEOT_RNSt16remove_referenceIS0_E4typeE, %function
_ZSt7forwardImEOT_RNSt16remove_referenceIS0_E4typeE:
.LFB4473:
	.cfi_startproc
	sub	sp, sp, #16
	.cfi_def_cfa_offset 16
	str	x0, [sp, 8]
	ldr	x0, [sp, 8]
	add	sp, sp, 16
	.cfi_def_cfa_offset 0
	ret
	.cfi_endproc
.LFE4473:
	.size	_ZSt7forwardImEOT_RNSt16remove_referenceIS0_E4typeE, .-_ZSt7forwardImEOT_RNSt16remove_referenceIS0_E4typeE
	.section	.text._ZNSt6chronoltIlSt5ratioILl1ELl1000000EElS2_EEbRKNS_8durationIT_T0_EERKNS3_IT1_T2_EE,"axG",@progbits,_ZNSt6chronoltIlSt5ratioILl1ELl1000000EElS2_EEbRKNS_8durationIT_T0_EERKNS3_IT1_T2_EE,comdat
	.align	2
	.weak	_ZNSt6chronoltIlSt5ratioILl1ELl1000000EElS2_EEbRKNS_8durationIT_T0_EERKNS3_IT1_T2_EE
	.type	_ZNSt6chronoltIlSt5ratioILl1ELl1000000EElS2_EEbRKNS_8durationIT_T0_EERKNS3_IT1_T2_EE, %function
_ZNSt6chronoltIlSt5ratioILl1ELl1000000EElS2_EEbRKNS_8durationIT_T0_EERKNS3_IT1_T2_EE:
.LFB4474:
	.cfi_startproc
	stp	x29, x30, [sp, -80]!
	.cfi_def_cfa_offset 80
	.cfi_offset 29, -80
	.cfi_offset 30, -72
	mov	x29, sp
	str	x19, [sp, 16]
	.cfi_offset 19, -64
	str	x0, [sp, 40]
	str	x1, [sp, 32]
	adrp	x0, :got:__stack_chk_guard
	ldr	x0, [x0, #:got_lo12:__stack_chk_guard]
	ldr	x1, [x0]
	str	x1, [sp, 72]
	mov	x1, 0
	ldr	x0, [sp, 40]
	ldr	x0, [x0]
	str	x0, [sp, 56]
	add	x0, sp, 56
	bl	_ZNKSt6chrono8durationIlSt5ratioILl1ELl1000000EEE5countEv
	mov	x19, x0
	ldr	x0, [sp, 32]
	ldr	x0, [x0]
	str	x0, [sp, 64]
	add	x0, sp, 64
	bl	_ZNKSt6chrono8durationIlSt5ratioILl1ELl1000000EEE5countEv
	cmp	x19, x0
	cset	w0, lt
	and	w0, w0, 255
	mov	w1, w0
	adrp	x0, :got:__stack_chk_guard
	ldr	x0, [x0, #:got_lo12:__stack_chk_guard]
	ldr	x3, [sp, 72]
	ldr	x2, [x0]
	subs	x3, x3, x2
	mov	x2, 0
	beq	.L431
	bl	__stack_chk_fail
.L431:
	mov	w0, w1
	ldr	x19, [sp, 16]
	ldp	x29, x30, [sp], 80
	.cfi_restore 30
	.cfi_restore 29
	.cfi_restore 19
	.cfi_def_cfa_offset 0
	ret
	.cfi_endproc
.LFE4474:
	.size	_ZNSt6chronoltIlSt5ratioILl1ELl1000000EElS2_EEbRKNS_8durationIT_T0_EERKNS3_IT1_T2_EE, .-_ZNSt6chronoltIlSt5ratioILl1ELl1000000EElS2_EEbRKNS_8durationIT_T0_EERKNS3_IT1_T2_EE
	.section	.text._ZNSt6chrono8durationIlSt5ratioILl1ELl1000000EEEC2IlvEERKT_,"axG",@progbits,_ZNSt6chrono8durationIlSt5ratioILl1ELl1000000EEEC5IlvEERKT_,comdat
	.align	2
	.weak	_ZNSt6chrono8durationIlSt5ratioILl1ELl1000000EEEC2IlvEERKT_
	.type	_ZNSt6chrono8durationIlSt5ratioILl1ELl1000000EEEC2IlvEERKT_, %function
_ZNSt6chrono8durationIlSt5ratioILl1ELl1000000EEEC2IlvEERKT_:
.LFB4476:
	.cfi_startproc
	sub	sp, sp, #16
	.cfi_def_cfa_offset 16
	str	x0, [sp, 8]
	str	x1, [sp]
	ldr	x0, [sp]
	ldr	x1, [x0]
	ldr	x0, [sp, 8]
	str	x1, [x0]
	nop
	add	sp, sp, 16
	.cfi_def_cfa_offset 0
	ret
	.cfi_endproc
.LFE4476:
	.size	_ZNSt6chrono8durationIlSt5ratioILl1ELl1000000EEEC2IlvEERKT_, .-_ZNSt6chrono8durationIlSt5ratioILl1ELl1000000EEEC2IlvEERKT_
	.weak	_ZNSt6chrono8durationIlSt5ratioILl1ELl1000000EEEC1IlvEERKT_
	.set	_ZNSt6chrono8durationIlSt5ratioILl1ELl1000000EEEC1IlvEERKT_,_ZNSt6chrono8durationIlSt5ratioILl1ELl1000000EEEC2IlvEERKT_
	.section	.text._ZNSt6chrono20__duration_cast_implINS_8durationIlSt5ratioILl1ELl1EEEES2_ILl1ELl1000000EElLb1ELb0EE6__castIlS5_EES4_RKNS1_IT_T0_EE,"axG",@progbits,_ZNSt6chrono20__duration_cast_implINS_8durationIlSt5ratioILl1ELl1EEEES2_ILl1ELl1000000EElLb1ELb0EE6__castIlS5_EES4_RKNS1_IT_T0_EE,comdat
	.align	2
	.weak	_ZNSt6chrono20__duration_cast_implINS_8durationIlSt5ratioILl1ELl1EEEES2_ILl1ELl1000000EElLb1ELb0EE6__castIlS5_EES4_RKNS1_IT_T0_EE
	.type	_ZNSt6chrono20__duration_cast_implINS_8durationIlSt5ratioILl1ELl1EEEES2_ILl1ELl1000000EElLb1ELb0EE6__castIlS5_EES4_RKNS1_IT_T0_EE, %function
_ZNSt6chrono20__duration_cast_implINS_8durationIlSt5ratioILl1ELl1EEEES2_ILl1ELl1000000EElLb1ELb0EE6__castIlS5_EES4_RKNS1_IT_T0_EE:
.LFB4478:
	.cfi_startproc
	stp	x29, x30, [sp, -64]!
	.cfi_def_cfa_offset 64
	.cfi_offset 29, -64
	.cfi_offset 30, -56
	mov	x29, sp
	str	x0, [sp, 24]
	adrp	x0, :got:__stack_chk_guard
	ldr	x0, [x0, #:got_lo12:__stack_chk_guard]
	ldr	x1, [x0]
	str	x1, [sp, 56]
	mov	x1, 0
	ldr	x0, [sp, 24]
	bl	_ZNKSt6chrono8durationIlSt5ratioILl1ELl1000000EEE5countEv
	mov	x1, 13531
	movk	x1, 0xd7b6, lsl 16
	movk	x1, 0xde82, lsl 32
	movk	x1, 0x431b, lsl 48
	smulh	x1, x0, x1
	asr	x1, x1, 18
	asr	x0, x0, 63
	sub	x0, x1, x0
	str	x0, [sp, 40]
	add	x1, sp, 40
	add	x0, sp, 48
	bl	_ZNSt6chrono8durationIlSt5ratioILl1ELl1EEEC1IlvEERKT_
	ldr	x0, [sp, 48]
	mov	x1, x0
	adrp	x0, :got:__stack_chk_guard
	ldr	x0, [x0, #:got_lo12:__stack_chk_guard]
	ldr	x3, [sp, 56]
	ldr	x2, [x0]
	subs	x3, x3, x2
	mov	x2, 0
	beq	.L435
	bl	__stack_chk_fail
.L435:
	mov	x0, x1
	ldp	x29, x30, [sp], 64
	.cfi_restore 30
	.cfi_restore 29
	.cfi_def_cfa_offset 0
	ret
	.cfi_endproc
.LFE4478:
	.size	_ZNSt6chrono20__duration_cast_implINS_8durationIlSt5ratioILl1ELl1EEEES2_ILl1ELl1000000EElLb1ELb0EE6__castIlS5_EES4_RKNS1_IT_T0_EE, .-_ZNSt6chrono20__duration_cast_implINS_8durationIlSt5ratioILl1ELl1EEEES2_ILl1ELl1000000EElLb1ELb0EE6__castIlS5_EES4_RKNS1_IT_T0_EE
	.section	.text._ZNSt6chrono20__duration_cast_implINS_8durationIlSt5ratioILl1ELl1000000000EEEES2_ILl1000ELl1EElLb0ELb1EE6__castIlS2_ILl1ELl1000000EEEES4_RKNS1_IT_T0_EE,"axG",@progbits,_ZNSt6chrono20__duration_cast_implINS_8durationIlSt5ratioILl1ELl1000000000EEEES2_ILl1000ELl1EElLb0ELb1EE6__castIlS2_ILl1ELl1000000EEEES4_RKNS1_IT_T0_EE,comdat
	.align	2
	.weak	_ZNSt6chrono20__duration_cast_implINS_8durationIlSt5ratioILl1ELl1000000000EEEES2_ILl1000ELl1EElLb0ELb1EE6__castIlS2_ILl1ELl1000000EEEES4_RKNS1_IT_T0_EE
	.type	_ZNSt6chrono20__duration_cast_implINS_8durationIlSt5ratioILl1ELl1000000000EEEES2_ILl1000ELl1EElLb0ELb1EE6__castIlS2_ILl1ELl1000000EEEES4_RKNS1_IT_T0_EE, %function
_ZNSt6chrono20__duration_cast_implINS_8durationIlSt5ratioILl1ELl1000000000EEEES2_ILl1000ELl1EElLb0ELb1EE6__castIlS2_ILl1ELl1000000EEEES4_RKNS1_IT_T0_EE:
.LFB4479:
	.cfi_startproc
	stp	x29, x30, [sp, -64]!
	.cfi_def_cfa_offset 64
	.cfi_offset 29, -64
	.cfi_offset 30, -56
	mov	x29, sp
	str	x0, [sp, 24]
	adrp	x0, :got:__stack_chk_guard
	ldr	x0, [x0, #:got_lo12:__stack_chk_guard]
	ldr	x1, [x0]
	str	x1, [sp, 56]
	mov	x1, 0
	ldr	x0, [sp, 24]
	bl	_ZNKSt6chrono8durationIlSt5ratioILl1ELl1000000EEE5countEv
	mov	x1, x0
	mov	x0, x1
	lsl	x0, x0, 5
	sub	x0, x0, x1
	lsl	x0, x0, 2
	add	x0, x0, x1
	lsl	x0, x0, 3
	str	x0, [sp, 40]
	add	x1, sp, 40
	add	x0, sp, 48
	bl	_ZNSt6chrono8durationIlSt5ratioILl1ELl1000000000EEEC1IlvEERKT_
	ldr	x0, [sp, 48]
	mov	x1, x0
	adrp	x0, :got:__stack_chk_guard
	ldr	x0, [x0, #:got_lo12:__stack_chk_guard]
	ldr	x3, [sp, 56]
	ldr	x2, [x0]
	subs	x3, x3, x2
	mov	x2, 0
	beq	.L438
	bl	__stack_chk_fail
.L438:
	mov	x0, x1
	ldp	x29, x30, [sp], 64
	.cfi_restore 30
	.cfi_restore 29
	.cfi_def_cfa_offset 0
	ret
	.cfi_endproc
.LFE4479:
	.size	_ZNSt6chrono20__duration_cast_implINS_8durationIlSt5ratioILl1ELl1000000000EEEES2_ILl1000ELl1EElLb0ELb1EE6__castIlS2_ILl1ELl1000000EEEES4_RKNS1_IT_T0_EE, .-_ZNSt6chrono20__duration_cast_implINS_8durationIlSt5ratioILl1ELl1000000000EEEES2_ILl1000ELl1EElLb0ELb1EE6__castIlS2_ILl1ELl1000000EEEES4_RKNS1_IT_T0_EE
	.section	.text._ZNSt6chrono8durationIlSt5ratioILl1ELl1000000EEEC2IlS1_ILl1ELl1EEvEERKNS0_IT_T0_EE,"axG",@progbits,_ZNSt6chrono8durationIlSt5ratioILl1ELl1000000EEEC5IlS1_ILl1ELl1EEvEERKNS0_IT_T0_EE,comdat
	.align	2
	.weak	_ZNSt6chrono8durationIlSt5ratioILl1ELl1000000EEEC2IlS1_ILl1ELl1EEvEERKNS0_IT_T0_EE
	.type	_ZNSt6chrono8durationIlSt5ratioILl1ELl1000000EEEC2IlS1_ILl1ELl1EEvEERKNS0_IT_T0_EE, %function
_ZNSt6chrono8durationIlSt5ratioILl1ELl1000000EEEC2IlS1_ILl1ELl1EEvEERKNS0_IT_T0_EE:
.LFB4481:
	.cfi_startproc
	stp	x29, x30, [sp, -48]!
	.cfi_def_cfa_offset 48
	.cfi_offset 29, -48
	.cfi_offset 30, -40
	mov	x29, sp
	str	x0, [sp, 24]
	str	x1, [sp, 16]
	adrp	x0, :got:__stack_chk_guard
	ldr	x0, [x0, #:got_lo12:__stack_chk_guard]
	ldr	x1, [x0]
	str	x1, [sp, 40]
	mov	x1, 0
	ldr	x0, [sp, 16]
	bl	_ZNSt6chrono13duration_castINS_8durationIlSt5ratioILl1ELl1000000EEEElS2_ILl1ELl1EEEENSt9enable_ifIXsrNS_13__is_durationIT_EE5valueES8_E4typeERKNS1_IT0_T1_EE
	str	x0, [sp, 32]
	add	x0, sp, 32
	bl	_ZNKSt6chrono8durationIlSt5ratioILl1ELl1000000EEE5countEv
	mov	x1, x0
	ldr	x0, [sp, 24]
	str	x1, [x0]
	nop
	adrp	x0, :got:__stack_chk_guard
	ldr	x0, [x0, #:got_lo12:__stack_chk_guard]
	ldr	x2, [sp, 40]
	ldr	x1, [x0]
	subs	x2, x2, x1
	mov	x1, 0
	beq	.L440
	bl	__stack_chk_fail
.L440:
	ldp	x29, x30, [sp], 48
	.cfi_restore 30
	.cfi_restore 29
	.cfi_def_cfa_offset 0
	ret
	.cfi_endproc
.LFE4481:
	.size	_ZNSt6chrono8durationIlSt5ratioILl1ELl1000000EEEC2IlS1_ILl1ELl1EEvEERKNS0_IT_T0_EE, .-_ZNSt6chrono8durationIlSt5ratioILl1ELl1000000EEEC2IlS1_ILl1ELl1EEvEERKNS0_IT_T0_EE
	.weak	_ZNSt6chrono8durationIlSt5ratioILl1ELl1000000EEEC1IlS1_ILl1ELl1EEvEERKNS0_IT_T0_EE
	.set	_ZNSt6chrono8durationIlSt5ratioILl1ELl1000000EEEC1IlS1_ILl1ELl1EEvEERKNS0_IT_T0_EE,_ZNSt6chrono8durationIlSt5ratioILl1ELl1000000EEEC2IlS1_ILl1ELl1EEvEERKNS0_IT_T0_EE
	.section	.text._ZSt7forwardIRA5_KcEOT_RNSt16remove_referenceIS3_E4typeE,"axG",@progbits,_ZSt7forwardIRA5_KcEOT_RNSt16remove_referenceIS3_E4typeE,comdat
	.align	2
	.weak	_ZSt7forwardIRA5_KcEOT_RNSt16remove_referenceIS3_E4typeE
	.type	_ZSt7forwardIRA5_KcEOT_RNSt16remove_referenceIS3_E4typeE, %function
_ZSt7forwardIRA5_KcEOT_RNSt16remove_referenceIS3_E4typeE:
.LFB4483:
	.cfi_startproc
	sub	sp, sp, #16
	.cfi_def_cfa_offset 16
	str	x0, [sp, 8]
	ldr	x0, [sp, 8]
	add	sp, sp, 16
	.cfi_def_cfa_offset 0
	ret
	.cfi_endproc
.LFE4483:
	.size	_ZSt7forwardIRA5_KcEOT_RNSt16remove_referenceIS3_E4typeE, .-_ZSt7forwardIRA5_KcEOT_RNSt16remove_referenceIS3_E4typeE
	.section	.text._ZSt7forwardIM12SimpleStructiEOT_RNSt16remove_referenceIS2_E4typeE,"axG",@progbits,_ZSt7forwardIM12SimpleStructiEOT_RNSt16remove_referenceIS2_E4typeE,comdat
	.align	2
	.weak	_ZSt7forwardIM12SimpleStructiEOT_RNSt16remove_referenceIS2_E4typeE
	.type	_ZSt7forwardIM12SimpleStructiEOT_RNSt16remove_referenceIS2_E4typeE, %function
_ZSt7forwardIM12SimpleStructiEOT_RNSt16remove_referenceIS2_E4typeE:
.LFB4484:
	.cfi_startproc
	sub	sp, sp, #16
	.cfi_def_cfa_offset 16
	str	x0, [sp, 8]
	ldr	x0, [sp, 8]
	add	sp, sp, 16
	.cfi_def_cfa_offset 0
	ret
	.cfi_endproc
.LFE4484:
	.size	_ZSt7forwardIM12SimpleStructiEOT_RNSt16remove_referenceIS2_E4typeE, .-_ZSt7forwardIM12SimpleStructiEOT_RNSt16remove_referenceIS2_E4typeE
	.section	.text._ZNSt5tupleIJmPKcM12SimpleStructiEEC2IJmRA5_S0_S3_ELb1ELb1EEEDpOT_,"axG",@progbits,_ZNSt5tupleIJmPKcM12SimpleStructiEEC5IJmRA5_S0_S3_ELb1ELb1EEEDpOT_,comdat
	.align	2
	.weak	_ZNSt5tupleIJmPKcM12SimpleStructiEEC2IJmRA5_S0_S3_ELb1ELb1EEEDpOT_
	.type	_ZNSt5tupleIJmPKcM12SimpleStructiEEC2IJmRA5_S0_S3_ELb1ELb1EEEDpOT_, %function
_ZNSt5tupleIJmPKcM12SimpleStructiEEC2IJmRA5_S0_S3_ELb1ELb1EEEDpOT_:
.LFB4486:
	.cfi_startproc
	.cfi_personality 0x9b,DW.ref.__gxx_personality_v0
	.cfi_lsda 0x1b,.LLSDA4486
	stp	x29, x30, [sp, -80]!
	.cfi_def_cfa_offset 80
	.cfi_offset 29, -80
	.cfi_offset 30, -72
	mov	x29, sp
	stp	x19, x20, [sp, 16]
	str	x21, [sp, 32]
	.cfi_offset 19, -64
	.cfi_offset 20, -56
	.cfi_offset 21, -48
	str	x0, [sp, 72]
	str	x1, [sp, 64]
	str	x2, [sp, 56]
	str	x3, [sp, 48]
	ldr	x19, [sp, 72]
	ldr	x0, [sp, 64]
	bl	_ZSt7forwardImEOT_RNSt16remove_referenceIS0_E4typeE
	mov	x20, x0
	ldr	x0, [sp, 56]
	bl	_ZSt7forwardIRA5_KcEOT_RNSt16remove_referenceIS3_E4typeE
	mov	x21, x0
	ldr	x0, [sp, 48]
	bl	_ZSt7forwardIM12SimpleStructiEOT_RNSt16remove_referenceIS2_E4typeE
	mov	x3, x0
	mov	x2, x21
	mov	x1, x20
	mov	x0, x19
	bl	_ZNSt11_Tuple_implILm0EJmPKcM12SimpleStructiEEC2ImJRA5_S0_S3_EvEEOT_DpOT0_
	nop
	ldp	x19, x20, [sp, 16]
	ldr	x21, [sp, 32]
	ldp	x29, x30, [sp], 80
	.cfi_restore 30
	.cfi_restore 29
	.cfi_restore 21
	.cfi_restore 19
	.cfi_restore 20
	.cfi_def_cfa_offset 0
	ret
	.cfi_endproc
.LFE4486:
	.section	.gcc_except_table
.LLSDA4486:
	.byte	0xff
	.byte	0xff
	.byte	0x1
	.uleb128 .LLSDACSE4486-.LLSDACSB4486
.LLSDACSB4486:
.LLSDACSE4486:
	.section	.text._ZNSt5tupleIJmPKcM12SimpleStructiEEC2IJmRA5_S0_S3_ELb1ELb1EEEDpOT_,"axG",@progbits,_ZNSt5tupleIJmPKcM12SimpleStructiEEC5IJmRA5_S0_S3_ELb1ELb1EEEDpOT_,comdat
	.size	_ZNSt5tupleIJmPKcM12SimpleStructiEEC2IJmRA5_S0_S3_ELb1ELb1EEEDpOT_, .-_ZNSt5tupleIJmPKcM12SimpleStructiEEC2IJmRA5_S0_S3_ELb1ELb1EEEDpOT_
	.weak	_ZNSt5tupleIJmPKcM12SimpleStructiEEC1IJmRA5_S0_S3_ELb1ELb1EEEDpOT_
	.set	_ZNSt5tupleIJmPKcM12SimpleStructiEEC1IJmRA5_S0_S3_ELb1ELb1EEEDpOT_,_ZNSt5tupleIJmPKcM12SimpleStructiEEC2IJmRA5_S0_S3_ELb1ELb1EEEDpOT_
	.section	.text._ZSt7forwardIRA7_KcEOT_RNSt16remove_referenceIS3_E4typeE,"axG",@progbits,_ZSt7forwardIRA7_KcEOT_RNSt16remove_referenceIS3_E4typeE,comdat
	.align	2
	.weak	_ZSt7forwardIRA7_KcEOT_RNSt16remove_referenceIS3_E4typeE
	.type	_ZSt7forwardIRA7_KcEOT_RNSt16remove_referenceIS3_E4typeE, %function
_ZSt7forwardIRA7_KcEOT_RNSt16remove_referenceIS3_E4typeE:
.LFB4488:
	.cfi_startproc
	sub	sp, sp, #16
	.cfi_def_cfa_offset 16
	str	x0, [sp, 8]
	ldr	x0, [sp, 8]
	add	sp, sp, 16
	.cfi_def_cfa_offset 0
	ret
	.cfi_endproc
.LFE4488:
	.size	_ZSt7forwardIRA7_KcEOT_RNSt16remove_referenceIS3_E4typeE, .-_ZSt7forwardIRA7_KcEOT_RNSt16remove_referenceIS3_E4typeE
	.section	.text._ZNSt5tupleIJmPKcM12SimpleStructiEEC2IJmRA7_S0_S3_ELb1ELb1EEEDpOT_,"axG",@progbits,_ZNSt5tupleIJmPKcM12SimpleStructiEEC5IJmRA7_S0_S3_ELb1ELb1EEEDpOT_,comdat
	.align	2
	.weak	_ZNSt5tupleIJmPKcM12SimpleStructiEEC2IJmRA7_S0_S3_ELb1ELb1EEEDpOT_
	.type	_ZNSt5tupleIJmPKcM12SimpleStructiEEC2IJmRA7_S0_S3_ELb1ELb1EEEDpOT_, %function
_ZNSt5tupleIJmPKcM12SimpleStructiEEC2IJmRA7_S0_S3_ELb1ELb1EEEDpOT_:
.LFB4490:
	.cfi_startproc
	.cfi_personality 0x9b,DW.ref.__gxx_personality_v0
	.cfi_lsda 0x1b,.LLSDA4490
	stp	x29, x30, [sp, -80]!
	.cfi_def_cfa_offset 80
	.cfi_offset 29, -80
	.cfi_offset 30, -72
	mov	x29, sp
	stp	x19, x20, [sp, 16]
	str	x21, [sp, 32]
	.cfi_offset 19, -64
	.cfi_offset 20, -56
	.cfi_offset 21, -48
	str	x0, [sp, 72]
	str	x1, [sp, 64]
	str	x2, [sp, 56]
	str	x3, [sp, 48]
	ldr	x19, [sp, 72]
	ldr	x0, [sp, 64]
	bl	_ZSt7forwardImEOT_RNSt16remove_referenceIS0_E4typeE
	mov	x20, x0
	ldr	x0, [sp, 56]
	bl	_ZSt7forwardIRA7_KcEOT_RNSt16remove_referenceIS3_E4typeE
	mov	x21, x0
	ldr	x0, [sp, 48]
	bl	_ZSt7forwardIM12SimpleStructiEOT_RNSt16remove_referenceIS2_E4typeE
	mov	x3, x0
	mov	x2, x21
	mov	x1, x20
	mov	x0, x19
	bl	_ZNSt11_Tuple_implILm0EJmPKcM12SimpleStructiEEC2ImJRA7_S0_S3_EvEEOT_DpOT0_
	nop
	ldp	x19, x20, [sp, 16]
	ldr	x21, [sp, 32]
	ldp	x29, x30, [sp], 80
	.cfi_restore 30
	.cfi_restore 29
	.cfi_restore 21
	.cfi_restore 19
	.cfi_restore 20
	.cfi_def_cfa_offset 0
	ret
	.cfi_endproc
.LFE4490:
	.section	.gcc_except_table
.LLSDA4490:
	.byte	0xff
	.byte	0xff
	.byte	0x1
	.uleb128 .LLSDACSE4490-.LLSDACSB4490
.LLSDACSB4490:
.LLSDACSE4490:
	.section	.text._ZNSt5tupleIJmPKcM12SimpleStructiEEC2IJmRA7_S0_S3_ELb1ELb1EEEDpOT_,"axG",@progbits,_ZNSt5tupleIJmPKcM12SimpleStructiEEC5IJmRA7_S0_S3_ELb1ELb1EEEDpOT_,comdat
	.size	_ZNSt5tupleIJmPKcM12SimpleStructiEEC2IJmRA7_S0_S3_ELb1ELb1EEEDpOT_, .-_ZNSt5tupleIJmPKcM12SimpleStructiEEC2IJmRA7_S0_S3_ELb1ELb1EEEDpOT_
	.weak	_ZNSt5tupleIJmPKcM12SimpleStructiEEC1IJmRA7_S0_S3_ELb1ELb1EEEDpOT_
	.set	_ZNSt5tupleIJmPKcM12SimpleStructiEEC1IJmRA7_S0_S3_ELb1ELb1EEEDpOT_,_ZNSt5tupleIJmPKcM12SimpleStructiEEC2IJmRA7_S0_S3_ELb1ELb1EEEDpOT_
	.section	.text._ZSt7forwardIRA10_KcEOT_RNSt16remove_referenceIS3_E4typeE,"axG",@progbits,_ZSt7forwardIRA10_KcEOT_RNSt16remove_referenceIS3_E4typeE,comdat
	.align	2
	.weak	_ZSt7forwardIRA10_KcEOT_RNSt16remove_referenceIS3_E4typeE
	.type	_ZSt7forwardIRA10_KcEOT_RNSt16remove_referenceIS3_E4typeE, %function
_ZSt7forwardIRA10_KcEOT_RNSt16remove_referenceIS3_E4typeE:
.LFB4492:
	.cfi_startproc
	sub	sp, sp, #16
	.cfi_def_cfa_offset 16
	str	x0, [sp, 8]
	ldr	x0, [sp, 8]
	add	sp, sp, 16
	.cfi_def_cfa_offset 0
	ret
	.cfi_endproc
.LFE4492:
	.size	_ZSt7forwardIRA10_KcEOT_RNSt16remove_referenceIS3_E4typeE, .-_ZSt7forwardIRA10_KcEOT_RNSt16remove_referenceIS3_E4typeE
	.section	.text._ZSt7forwardIM12SimpleStructdEOT_RNSt16remove_referenceIS2_E4typeE,"axG",@progbits,_ZSt7forwardIM12SimpleStructdEOT_RNSt16remove_referenceIS2_E4typeE,comdat
	.align	2
	.weak	_ZSt7forwardIM12SimpleStructdEOT_RNSt16remove_referenceIS2_E4typeE
	.type	_ZSt7forwardIM12SimpleStructdEOT_RNSt16remove_referenceIS2_E4typeE, %function
_ZSt7forwardIM12SimpleStructdEOT_RNSt16remove_referenceIS2_E4typeE:
.LFB4493:
	.cfi_startproc
	sub	sp, sp, #16
	.cfi_def_cfa_offset 16
	str	x0, [sp, 8]
	ldr	x0, [sp, 8]
	add	sp, sp, 16
	.cfi_def_cfa_offset 0
	ret
	.cfi_endproc
.LFE4493:
	.size	_ZSt7forwardIM12SimpleStructdEOT_RNSt16remove_referenceIS2_E4typeE, .-_ZSt7forwardIM12SimpleStructdEOT_RNSt16remove_referenceIS2_E4typeE
	.section	.text._ZNSt5tupleIJmPKcM12SimpleStructdEEC2IJmRA10_S0_S3_ELb1ELb1EEEDpOT_,"axG",@progbits,_ZNSt5tupleIJmPKcM12SimpleStructdEEC5IJmRA10_S0_S3_ELb1ELb1EEEDpOT_,comdat
	.align	2
	.weak	_ZNSt5tupleIJmPKcM12SimpleStructdEEC2IJmRA10_S0_S3_ELb1ELb1EEEDpOT_
	.type	_ZNSt5tupleIJmPKcM12SimpleStructdEEC2IJmRA10_S0_S3_ELb1ELb1EEEDpOT_, %function
_ZNSt5tupleIJmPKcM12SimpleStructdEEC2IJmRA10_S0_S3_ELb1ELb1EEEDpOT_:
.LFB4495:
	.cfi_startproc
	.cfi_personality 0x9b,DW.ref.__gxx_personality_v0
	.cfi_lsda 0x1b,.LLSDA4495
	stp	x29, x30, [sp, -80]!
	.cfi_def_cfa_offset 80
	.cfi_offset 29, -80
	.cfi_offset 30, -72
	mov	x29, sp
	stp	x19, x20, [sp, 16]
	str	x21, [sp, 32]
	.cfi_offset 19, -64
	.cfi_offset 20, -56
	.cfi_offset 21, -48
	str	x0, [sp, 72]
	str	x1, [sp, 64]
	str	x2, [sp, 56]
	str	x3, [sp, 48]
	ldr	x19, [sp, 72]
	ldr	x0, [sp, 64]
	bl	_ZSt7forwardImEOT_RNSt16remove_referenceIS0_E4typeE
	mov	x20, x0
	ldr	x0, [sp, 56]
	bl	_ZSt7forwardIRA10_KcEOT_RNSt16remove_referenceIS3_E4typeE
	mov	x21, x0
	ldr	x0, [sp, 48]
	bl	_ZSt7forwardIM12SimpleStructdEOT_RNSt16remove_referenceIS2_E4typeE
	mov	x3, x0
	mov	x2, x21
	mov	x1, x20
	mov	x0, x19
	bl	_ZNSt11_Tuple_implILm0EJmPKcM12SimpleStructdEEC2ImJRA10_S0_S3_EvEEOT_DpOT0_
	nop
	ldp	x19, x20, [sp, 16]
	ldr	x21, [sp, 32]
	ldp	x29, x30, [sp], 80
	.cfi_restore 30
	.cfi_restore 29
	.cfi_restore 21
	.cfi_restore 19
	.cfi_restore 20
	.cfi_def_cfa_offset 0
	ret
	.cfi_endproc
.LFE4495:
	.section	.gcc_except_table
.LLSDA4495:
	.byte	0xff
	.byte	0xff
	.byte	0x1
	.uleb128 .LLSDACSE4495-.LLSDACSB4495
.LLSDACSB4495:
.LLSDACSE4495:
	.section	.text._ZNSt5tupleIJmPKcM12SimpleStructdEEC2IJmRA10_S0_S3_ELb1ELb1EEEDpOT_,"axG",@progbits,_ZNSt5tupleIJmPKcM12SimpleStructdEEC5IJmRA10_S0_S3_ELb1ELb1EEEDpOT_,comdat
	.size	_ZNSt5tupleIJmPKcM12SimpleStructdEEC2IJmRA10_S0_S3_ELb1ELb1EEEDpOT_, .-_ZNSt5tupleIJmPKcM12SimpleStructdEEC2IJmRA10_S0_S3_ELb1ELb1EEEDpOT_
	.weak	_ZNSt5tupleIJmPKcM12SimpleStructdEEC1IJmRA10_S0_S3_ELb1ELb1EEEDpOT_
	.set	_ZNSt5tupleIJmPKcM12SimpleStructdEEC1IJmRA10_S0_S3_ELb1ELb1EEEDpOT_,_ZNSt5tupleIJmPKcM12SimpleStructdEEC2IJmRA10_S0_S3_ELb1ELb1EEEDpOT_
	.section	.text._ZSt7forwardIM12SimpleStructNSt7__cxx1112basic_stringIcSt11char_traitsIcESaIcEEEEOT_RNSt16remove_referenceIS8_E4typeE,"axG",@progbits,_ZSt7forwardIM12SimpleStructNSt7__cxx1112basic_stringIcSt11char_traitsIcESaIcEEEEOT_RNSt16remove_referenceIS8_E4typeE,comdat
	.align	2
	.weak	_ZSt7forwardIM12SimpleStructNSt7__cxx1112basic_stringIcSt11char_traitsIcESaIcEEEEOT_RNSt16remove_referenceIS8_E4typeE
	.type	_ZSt7forwardIM12SimpleStructNSt7__cxx1112basic_stringIcSt11char_traitsIcESaIcEEEEOT_RNSt16remove_referenceIS8_E4typeE, %function
_ZSt7forwardIM12SimpleStructNSt7__cxx1112basic_stringIcSt11char_traitsIcESaIcEEEEOT_RNSt16remove_referenceIS8_E4typeE:
.LFB4497:
	.cfi_startproc
	sub	sp, sp, #16
	.cfi_def_cfa_offset 16
	str	x0, [sp, 8]
	ldr	x0, [sp, 8]
	add	sp, sp, 16
	.cfi_def_cfa_offset 0
	ret
	.cfi_endproc
.LFE4497:
	.size	_ZSt7forwardIM12SimpleStructNSt7__cxx1112basic_stringIcSt11char_traitsIcESaIcEEEEOT_RNSt16remove_referenceIS8_E4typeE, .-_ZSt7forwardIM12SimpleStructNSt7__cxx1112basic_stringIcSt11char_traitsIcESaIcEEEEOT_RNSt16remove_referenceIS8_E4typeE
	.section	.text._ZNSt5tupleIJmPKcM12SimpleStructNSt7__cxx1112basic_stringIcSt11char_traitsIcESaIcEEEEEC2IJmRA10_S0_S9_ELb1ELb1EEEDpOT_,"axG",@progbits,_ZNSt5tupleIJmPKcM12SimpleStructNSt7__cxx1112basic_stringIcSt11char_traitsIcESaIcEEEEEC5IJmRA10_S0_S9_ELb1ELb1EEEDpOT_,comdat
	.align	2
	.weak	_ZNSt5tupleIJmPKcM12SimpleStructNSt7__cxx1112basic_stringIcSt11char_traitsIcESaIcEEEEEC2IJmRA10_S0_S9_ELb1ELb1EEEDpOT_
	.type	_ZNSt5tupleIJmPKcM12SimpleStructNSt7__cxx1112basic_stringIcSt11char_traitsIcESaIcEEEEEC2IJmRA10_S0_S9_ELb1ELb1EEEDpOT_, %function
_ZNSt5tupleIJmPKcM12SimpleStructNSt7__cxx1112basic_stringIcSt11char_traitsIcESaIcEEEEEC2IJmRA10_S0_S9_ELb1ELb1EEEDpOT_:
.LFB4499:
	.cfi_startproc
	.cfi_personality 0x9b,DW.ref.__gxx_personality_v0
	.cfi_lsda 0x1b,.LLSDA4499
	stp	x29, x30, [sp, -80]!
	.cfi_def_cfa_offset 80
	.cfi_offset 29, -80
	.cfi_offset 30, -72
	mov	x29, sp
	stp	x19, x20, [sp, 16]
	str	x21, [sp, 32]
	.cfi_offset 19, -64
	.cfi_offset 20, -56
	.cfi_offset 21, -48
	str	x0, [sp, 72]
	str	x1, [sp, 64]
	str	x2, [sp, 56]
	str	x3, [sp, 48]
	ldr	x19, [sp, 72]
	ldr	x0, [sp, 64]
	bl	_ZSt7forwardImEOT_RNSt16remove_referenceIS0_E4typeE
	mov	x20, x0
	ldr	x0, [sp, 56]
	bl	_ZSt7forwardIRA10_KcEOT_RNSt16remove_referenceIS3_E4typeE
	mov	x21, x0
	ldr	x0, [sp, 48]
	bl	_ZSt7forwardIM12SimpleStructNSt7__cxx1112basic_stringIcSt11char_traitsIcESaIcEEEEOT_RNSt16remove_referenceIS8_E4typeE
	mov	x3, x0
	mov	x2, x21
	mov	x1, x20
	mov	x0, x19
	bl	_ZNSt11_Tuple_implILm0EJmPKcM12SimpleStructNSt7__cxx1112basic_stringIcSt11char_traitsIcESaIcEEEEEC2ImJRA10_S0_S9_EvEEOT_DpOT0_
	nop
	ldp	x19, x20, [sp, 16]
	ldr	x21, [sp, 32]
	ldp	x29, x30, [sp], 80
	.cfi_restore 30
	.cfi_restore 29
	.cfi_restore 21
	.cfi_restore 19
	.cfi_restore 20
	.cfi_def_cfa_offset 0
	ret
	.cfi_endproc
.LFE4499:
	.section	.gcc_except_table
.LLSDA4499:
	.byte	0xff
	.byte	0xff
	.byte	0x1
	.uleb128 .LLSDACSE4499-.LLSDACSB4499
.LLSDACSB4499:
.LLSDACSE4499:
	.section	.text._ZNSt5tupleIJmPKcM12SimpleStructNSt7__cxx1112basic_stringIcSt11char_traitsIcESaIcEEEEEC2IJmRA10_S0_S9_ELb1ELb1EEEDpOT_,"axG",@progbits,_ZNSt5tupleIJmPKcM12SimpleStructNSt7__cxx1112basic_stringIcSt11char_traitsIcESaIcEEEEEC5IJmRA10_S0_S9_ELb1ELb1EEEDpOT_,comdat
	.size	_ZNSt5tupleIJmPKcM12SimpleStructNSt7__cxx1112basic_stringIcSt11char_traitsIcESaIcEEEEEC2IJmRA10_S0_S9_ELb1ELb1EEEDpOT_, .-_ZNSt5tupleIJmPKcM12SimpleStructNSt7__cxx1112basic_stringIcSt11char_traitsIcESaIcEEEEEC2IJmRA10_S0_S9_ELb1ELb1EEEDpOT_
	.weak	_ZNSt5tupleIJmPKcM12SimpleStructNSt7__cxx1112basic_stringIcSt11char_traitsIcESaIcEEEEEC1IJmRA10_S0_S9_ELb1ELb1EEEDpOT_
	.set	_ZNSt5tupleIJmPKcM12SimpleStructNSt7__cxx1112basic_stringIcSt11char_traitsIcESaIcEEEEEC1IJmRA10_S0_S9_ELb1ELb1EEEDpOT_,_ZNSt5tupleIJmPKcM12SimpleStructNSt7__cxx1112basic_stringIcSt11char_traitsIcESaIcEEEEEC2IJmRA10_S0_S9_ELb1ELb1EEEDpOT_
	.section	.text._ZSt7forwardISt5tupleIJmPKcM12SimpleStructiEEEOT_RNSt16remove_referenceIS6_E4typeE,"axG",@progbits,_ZSt7forwardISt5tupleIJmPKcM12SimpleStructiEEEOT_RNSt16remove_referenceIS6_E4typeE,comdat
	.align	2
	.weak	_ZSt7forwardISt5tupleIJmPKcM12SimpleStructiEEEOT_RNSt16remove_referenceIS6_E4typeE
	.type	_ZSt7forwardISt5tupleIJmPKcM12SimpleStructiEEEOT_RNSt16remove_referenceIS6_E4typeE, %function
_ZSt7forwardISt5tupleIJmPKcM12SimpleStructiEEEOT_RNSt16remove_referenceIS6_E4typeE:
.LFB4501:
	.cfi_startproc
	sub	sp, sp, #16
	.cfi_def_cfa_offset 16
	str	x0, [sp, 8]
	ldr	x0, [sp, 8]
	add	sp, sp, 16
	.cfi_def_cfa_offset 0
	ret
	.cfi_endproc
.LFE4501:
	.size	_ZSt7forwardISt5tupleIJmPKcM12SimpleStructiEEEOT_RNSt16remove_referenceIS6_E4typeE, .-_ZSt7forwardISt5tupleIJmPKcM12SimpleStructiEEEOT_RNSt16remove_referenceIS6_E4typeE
	.section	.text._ZSt7forwardISt5tupleIJmPKcM12SimpleStructdEEEOT_RNSt16remove_referenceIS6_E4typeE,"axG",@progbits,_ZSt7forwardISt5tupleIJmPKcM12SimpleStructdEEEOT_RNSt16remove_referenceIS6_E4typeE,comdat
	.align	2
	.weak	_ZSt7forwardISt5tupleIJmPKcM12SimpleStructdEEEOT_RNSt16remove_referenceIS6_E4typeE
	.type	_ZSt7forwardISt5tupleIJmPKcM12SimpleStructdEEEOT_RNSt16remove_referenceIS6_E4typeE, %function
_ZSt7forwardISt5tupleIJmPKcM12SimpleStructdEEEOT_RNSt16remove_referenceIS6_E4typeE:
.LFB4502:
	.cfi_startproc
	sub	sp, sp, #16
	.cfi_def_cfa_offset 16
	str	x0, [sp, 8]
	ldr	x0, [sp, 8]
	add	sp, sp, 16
	.cfi_def_cfa_offset 0
	ret
	.cfi_endproc
.LFE4502:
	.size	_ZSt7forwardISt5tupleIJmPKcM12SimpleStructdEEEOT_RNSt16remove_referenceIS6_E4typeE, .-_ZSt7forwardISt5tupleIJmPKcM12SimpleStructdEEEOT_RNSt16remove_referenceIS6_E4typeE
	.section	.text._ZSt7forwardISt5tupleIJmPKcM12SimpleStructNSt7__cxx1112basic_stringIcSt11char_traitsIcESaIcEEEEEEOT_RNSt16remove_referenceISC_E4typeE,"axG",@progbits,_ZSt7forwardISt5tupleIJmPKcM12SimpleStructNSt7__cxx1112basic_stringIcSt11char_traitsIcESaIcEEEEEEOT_RNSt16remove_referenceISC_E4typeE,comdat
	.align	2
	.weak	_ZSt7forwardISt5tupleIJmPKcM12SimpleStructNSt7__cxx1112basic_stringIcSt11char_traitsIcESaIcEEEEEEOT_RNSt16remove_referenceISC_E4typeE
	.type	_ZSt7forwardISt5tupleIJmPKcM12SimpleStructNSt7__cxx1112basic_stringIcSt11char_traitsIcESaIcEEEEEEOT_RNSt16remove_referenceISC_E4typeE, %function
_ZSt7forwardISt5tupleIJmPKcM12SimpleStructNSt7__cxx1112basic_stringIcSt11char_traitsIcESaIcEEEEEEOT_RNSt16remove_referenceISC_E4typeE:
.LFB4503:
	.cfi_startproc
	sub	sp, sp, #16
	.cfi_def_cfa_offset 16
	str	x0, [sp, 8]
	ldr	x0, [sp, 8]
	add	sp, sp, 16
	.cfi_def_cfa_offset 0
	ret
	.cfi_endproc
.LFE4503:
	.size	_ZSt7forwardISt5tupleIJmPKcM12SimpleStructNSt7__cxx1112basic_stringIcSt11char_traitsIcESaIcEEEEEEOT_RNSt16remove_referenceISC_E4typeE, .-_ZSt7forwardISt5tupleIJmPKcM12SimpleStructNSt7__cxx1112basic_stringIcSt11char_traitsIcESaIcEEEEEEOT_RNSt16remove_referenceISC_E4typeE
	.section	.text._ZNSt5tupleIJS_IJmPKcM12SimpleStructiEES4_S_IJmS1_MS2_dEES_IJmS1_MS2_NSt7__cxx1112basic_stringIcSt11char_traitsIcESaIcEEEEEEEC2IJS4_S4_S6_SE_ELb1ELb1EEEDpOT_,"axG",@progbits,_ZNSt5tupleIJS_IJmPKcM12SimpleStructiEES4_S_IJmS1_MS2_dEES_IJmS1_MS2_NSt7__cxx1112basic_stringIcSt11char_traitsIcESaIcEEEEEEEC5IJS4_S4_S6_SE_ELb1ELb1EEEDpOT_,comdat
	.align	2
	.weak	_ZNSt5tupleIJS_IJmPKcM12SimpleStructiEES4_S_IJmS1_MS2_dEES_IJmS1_MS2_NSt7__cxx1112basic_stringIcSt11char_traitsIcESaIcEEEEEEEC2IJS4_S4_S6_SE_ELb1ELb1EEEDpOT_
	.type	_ZNSt5tupleIJS_IJmPKcM12SimpleStructiEES4_S_IJmS1_MS2_dEES_IJmS1_MS2_NSt7__cxx1112basic_stringIcSt11char_traitsIcESaIcEEEEEEEC2IJS4_S4_S6_SE_ELb1ELb1EEEDpOT_, %function
_ZNSt5tupleIJS_IJmPKcM12SimpleStructiEES4_S_IJmS1_MS2_dEES_IJmS1_MS2_NSt7__cxx1112basic_stringIcSt11char_traitsIcESaIcEEEEEEEC2IJS4_S4_S6_SE_ELb1ELb1EEEDpOT_:
.LFB4505:
	.cfi_startproc
	.cfi_personality 0x9b,DW.ref.__gxx_personality_v0
	.cfi_lsda 0x1b,.LLSDA4505
	stp	x29, x30, [sp, -96]!
	.cfi_def_cfa_offset 96
	.cfi_offset 29, -96
	.cfi_offset 30, -88
	mov	x29, sp
	stp	x19, x20, [sp, 16]
	stp	x21, x22, [sp, 32]
	.cfi_offset 19, -80
	.cfi_offset 20, -72
	.cfi_offset 21, -64
	.cfi_offset 22, -56
	str	x0, [sp, 88]
	str	x1, [sp, 80]
	str	x2, [sp, 72]
	str	x3, [sp, 64]
	str	x4, [sp, 56]
	ldr	x19, [sp, 88]
	ldr	x0, [sp, 80]
	bl	_ZSt7forwardISt5tupleIJmPKcM12SimpleStructiEEEOT_RNSt16remove_referenceIS6_E4typeE
	mov	x20, x0
	ldr	x0, [sp, 72]
	bl	_ZSt7forwardISt5tupleIJmPKcM12SimpleStructiEEEOT_RNSt16remove_referenceIS6_E4typeE
	mov	x21, x0
	ldr	x0, [sp, 64]
	bl	_ZSt7forwardISt5tupleIJmPKcM12SimpleStructdEEEOT_RNSt16remove_referenceIS6_E4typeE
	mov	x22, x0
	ldr	x0, [sp, 56]
	bl	_ZSt7forwardISt5tupleIJmPKcM12SimpleStructNSt7__cxx1112basic_stringIcSt11char_traitsIcESaIcEEEEEEOT_RNSt16remove_referenceISC_E4typeE
	mov	x4, x0
	mov	x3, x22
	mov	x2, x21
	mov	x1, x20
	mov	x0, x19
	bl	_ZNSt11_Tuple_implILm0EJSt5tupleIJmPKcM12SimpleStructiEES5_S0_IJmS2_MS3_dEES0_IJmS2_MS3_NSt7__cxx1112basic_stringIcSt11char_traitsIcESaIcEEEEEEEC2IS5_JS5_S7_SF_EvEEOT_DpOT0_
	nop
	ldp	x19, x20, [sp, 16]
	ldp	x21, x22, [sp, 32]
	ldp	x29, x30, [sp], 96
	.cfi_restore 30
	.cfi_restore 29
	.cfi_restore 21
	.cfi_restore 22
	.cfi_restore 19
	.cfi_restore 20
	.cfi_def_cfa_offset 0
	ret
	.cfi_endproc
.LFE4505:
	.section	.gcc_except_table
.LLSDA4505:
	.byte	0xff
	.byte	0xff
	.byte	0x1
	.uleb128 .LLSDACSE4505-.LLSDACSB4505
.LLSDACSB4505:
.LLSDACSE4505:
	.section	.text._ZNSt5tupleIJS_IJmPKcM12SimpleStructiEES4_S_IJmS1_MS2_dEES_IJmS1_MS2_NSt7__cxx1112basic_stringIcSt11char_traitsIcESaIcEEEEEEEC2IJS4_S4_S6_SE_ELb1ELb1EEEDpOT_,"axG",@progbits,_ZNSt5tupleIJS_IJmPKcM12SimpleStructiEES4_S_IJmS1_MS2_dEES_IJmS1_MS2_NSt7__cxx1112basic_stringIcSt11char_traitsIcESaIcEEEEEEEC5IJS4_S4_S6_SE_ELb1ELb1EEEDpOT_,comdat
	.size	_ZNSt5tupleIJS_IJmPKcM12SimpleStructiEES4_S_IJmS1_MS2_dEES_IJmS1_MS2_NSt7__cxx1112basic_stringIcSt11char_traitsIcESaIcEEEEEEEC2IJS4_S4_S6_SE_ELb1ELb1EEEDpOT_, .-_ZNSt5tupleIJS_IJmPKcM12SimpleStructiEES4_S_IJmS1_MS2_dEES_IJmS1_MS2_NSt7__cxx1112basic_stringIcSt11char_traitsIcESaIcEEEEEEEC2IJS4_S4_S6_SE_ELb1ELb1EEEDpOT_
	.weak	_ZNSt5tupleIJS_IJmPKcM12SimpleStructiEES4_S_IJmS1_MS2_dEES_IJmS1_MS2_NSt7__cxx1112basic_stringIcSt11char_traitsIcESaIcEEEEEEEC1IJS4_S4_S6_SE_ELb1ELb1EEEDpOT_
	.set	_ZNSt5tupleIJS_IJmPKcM12SimpleStructiEES4_S_IJmS1_MS2_dEES_IJmS1_MS2_NSt7__cxx1112basic_stringIcSt11char_traitsIcESaIcEEEEEEEC1IJS4_S4_S6_SE_ELb1ELb1EEEDpOT_,_ZNSt5tupleIJS_IJmPKcM12SimpleStructiEES4_S_IJmS1_MS2_dEES_IJmS1_MS2_NSt7__cxx1112basic_stringIcSt11char_traitsIcESaIcEEEEEEEC2IJS4_S4_S6_SE_ELb1ELb1EEEDpOT_
	.section	.text._ZN5boost9typeindex16type_id_with_cvrIM12SimpleStructiEENS0_14stl_type_indexEv,"axG",@progbits,_ZN5boost9typeindex16type_id_with_cvrIM12SimpleStructiEENS0_14stl_type_indexEv,comdat
	.align	2
	.weak	_ZN5boost9typeindex16type_id_with_cvrIM12SimpleStructiEENS0_14stl_type_indexEv
	.type	_ZN5boost9typeindex16type_id_with_cvrIM12SimpleStructiEENS0_14stl_type_indexEv, %function
_ZN5boost9typeindex16type_id_with_cvrIM12SimpleStructiEENS0_14stl_type_indexEv:
.LFB4507:
	.cfi_startproc
	stp	x29, x30, [sp, -16]!
	.cfi_def_cfa_offset 16
	.cfi_offset 29, -16
	.cfi_offset 30, -8
	mov	x29, sp
	bl	_ZN5boost9typeindex14stl_type_index16type_id_with_cvrIM12SimpleStructiEES1_v
	ldp	x29, x30, [sp], 16
	.cfi_restore 30
	.cfi_restore 29
	.cfi_def_cfa_offset 0
	ret
	.cfi_endproc
.LFE4507:
	.size	_ZN5boost9typeindex16type_id_with_cvrIM12SimpleStructiEENS0_14stl_type_indexEv, .-_ZN5boost9typeindex16type_id_with_cvrIM12SimpleStructiEENS0_14stl_type_indexEv
	.section	.text._ZN5boost9typeindexlsIcSt11char_traitsIcENS0_14stl_type_indexESt9type_infoEERSt13basic_ostreamIT_T0_ESA_RKNS0_17type_index_facadeIT1_T2_EE,"axG",@progbits,_ZN5boost9typeindexlsIcSt11char_traitsIcENS0_14stl_type_indexESt9type_infoEERSt13basic_ostreamIT_T0_ESA_RKNS0_17type_index_facadeIT1_T2_EE,comdat
	.align	2
	.weak	_ZN5boost9typeindexlsIcSt11char_traitsIcENS0_14stl_type_indexESt9type_infoEERSt13basic_ostreamIT_T0_ESA_RKNS0_17type_index_facadeIT1_T2_EE
	.type	_ZN5boost9typeindexlsIcSt11char_traitsIcENS0_14stl_type_indexESt9type_infoEERSt13basic_ostreamIT_T0_ESA_RKNS0_17type_index_facadeIT1_T2_EE, %function
_ZN5boost9typeindexlsIcSt11char_traitsIcENS0_14stl_type_indexESt9type_infoEERSt13basic_ostreamIT_T0_ESA_RKNS0_17type_index_facadeIT1_T2_EE:
.LFB4508:
	.cfi_startproc
	.cfi_personality 0x9b,DW.ref.__gxx_personality_v0
	.cfi_lsda 0x1b,.LLSDA4508
	stp	x29, x30, [sp, -96]!
	.cfi_def_cfa_offset 96
	.cfi_offset 29, -96
	.cfi_offset 30, -88
	mov	x29, sp
	str	x19, [sp, 16]
	.cfi_offset 19, -80
	str	x0, [sp, 40]
	str	x1, [sp, 32]
	adrp	x0, :got:__stack_chk_guard
	ldr	x0, [x0, #:got_lo12:__stack_chk_guard]
	ldr	x1, [x0]
	str	x1, [sp, 88]
	mov	x1, 0
	add	x0, sp, 56
	mov	x8, x0
	ldr	x0, [sp, 32]
.LEHB112:
	bl	_ZNK5boost9typeindex14stl_type_index11pretty_nameB5cxx11Ev
.LEHE112:
	add	x0, sp, 56
	mov	x1, x0
	ldr	x0, [sp, 40]
.LEHB113:
	bl	_ZStlsIcSt11char_traitsIcESaIcEERSt13basic_ostreamIT_T0_ES7_RKNSt7__cxx1112basic_stringIS4_S5_T1_EE
.LEHE113:
	add	x0, sp, 56
	bl	_ZNSt7__cxx1112basic_stringIcSt11char_traitsIcESaIcEED1Ev
	ldr	x0, [sp, 40]
	mov	x1, x0
	adrp	x0, :got:__stack_chk_guard
	ldr	x0, [x0, #:got_lo12:__stack_chk_guard]
	ldr	x3, [sp, 88]
	ldr	x2, [x0]
	subs	x3, x3, x2
	mov	x2, 0
	beq	.L469
	b	.L471
.L470:
	mov	x19, x0
	add	x0, sp, 56
	bl	_ZNSt7__cxx1112basic_stringIcSt11char_traitsIcESaIcEED1Ev
	mov	x0, x19
.LEHB114:
	bl	_Unwind_Resume
.LEHE114:
.L471:
	bl	__stack_chk_fail
.L469:
	mov	x0, x1
	ldr	x19, [sp, 16]
	ldp	x29, x30, [sp], 96
	.cfi_restore 30
	.cfi_restore 29
	.cfi_restore 19
	.cfi_def_cfa_offset 0
	ret
	.cfi_endproc
.LFE4508:
	.section	.gcc_except_table
.LLSDA4508:
	.byte	0xff
	.byte	0xff
	.byte	0x1
	.uleb128 .LLSDACSE4508-.LLSDACSB4508
.LLSDACSB4508:
	.uleb128 .LEHB112-.LFB4508
	.uleb128 .LEHE112-.LEHB112
	.uleb128 0
	.uleb128 0
	.uleb128 .LEHB113-.LFB4508
	.uleb128 .LEHE113-.LEHB113
	.uleb128 .L470-.LFB4508
	.uleb128 0
	.uleb128 .LEHB114-.LFB4508
	.uleb128 .LEHE114-.LEHB114
	.uleb128 0
	.uleb128 0
.LLSDACSE4508:
	.section	.text._ZN5boost9typeindexlsIcSt11char_traitsIcENS0_14stl_type_indexESt9type_infoEERSt13basic_ostreamIT_T0_ESA_RKNS0_17type_index_facadeIT1_T2_EE,"axG",@progbits,_ZN5boost9typeindexlsIcSt11char_traitsIcENS0_14stl_type_indexESt9type_infoEERSt13basic_ostreamIT_T0_ESA_RKNS0_17type_index_facadeIT1_T2_EE,comdat
	.size	_ZN5boost9typeindexlsIcSt11char_traitsIcENS0_14stl_type_indexESt9type_infoEERSt13basic_ostreamIT_T0_ESA_RKNS0_17type_index_facadeIT1_T2_EE, .-_ZN5boost9typeindexlsIcSt11char_traitsIcENS0_14stl_type_indexESt9type_infoEERSt13basic_ostreamIT_T0_ESA_RKNS0_17type_index_facadeIT1_T2_EE
	.section	.text._ZN9FieldInfoC2EOS_,"axG",@progbits,_ZN9FieldInfoC5EOS_,comdat
	.align	2
	.weak	_ZN9FieldInfoC2EOS_
	.type	_ZN9FieldInfoC2EOS_, %function
_ZN9FieldInfoC2EOS_:
.LFB4512:
	.cfi_startproc
	stp	x29, x30, [sp, -32]!
	.cfi_def_cfa_offset 32
	.cfi_offset 29, -32
	.cfi_offset 30, -24
	mov	x29, sp
	str	x0, [sp, 24]
	str	x1, [sp, 16]
	ldr	x0, [sp, 24]
	ldr	x1, [sp, 16]
	bl	_ZNSt7__cxx1112basic_stringIcSt11char_traitsIcESaIcEEC1EOS4_
	ldr	x0, [sp, 16]
	ldr	w1, [x0, 32]
	ldr	x0, [sp, 24]
	str	w1, [x0, 32]
	ldr	x0, [sp, 16]
	ldr	w1, [x0, 36]
	ldr	x0, [sp, 24]
	str	w1, [x0, 36]
	nop
	ldp	x29, x30, [sp], 32
	.cfi_restore 30
	.cfi_restore 29
	.cfi_def_cfa_offset 0
	ret
	.cfi_endproc
.LFE4512:
	.size	_ZN9FieldInfoC2EOS_, .-_ZN9FieldInfoC2EOS_
	.weak	_ZN9FieldInfoC1EOS_
	.set	_ZN9FieldInfoC1EOS_,_ZN9FieldInfoC2EOS_
	.section	.rodata
	.align	3
.LC32:
	.string	""
	.section	.text._Z18GetStructFieldInfoI12SimpleStructiE9FieldInfoMT_T0_,"axG",@progbits,_Z18GetStructFieldInfoI12SimpleStructiE9FieldInfoMT_T0_,comdat
	.align	2
	.weak	_Z18GetStructFieldInfoI12SimpleStructiE9FieldInfoMT_T0_
	.type	_Z18GetStructFieldInfoI12SimpleStructiE9FieldInfoMT_T0_, %function
_Z18GetStructFieldInfoI12SimpleStructiE9FieldInfoMT_T0_:
.LFB4509:
	.cfi_startproc
	.cfi_personality 0x9b,DW.ref.__gxx_personality_v0
	.cfi_lsda 0x1b,.LLSDA4509
	stp	x29, x30, [sp, -208]!
	.cfi_def_cfa_offset 208
	.cfi_offset 29, -208
	.cfi_offset 30, -200
	mov	x29, sp
	stp	x19, x20, [sp, 16]
	.cfi_offset 19, -192
	.cfi_offset 20, -184
	mov	x19, x8
	str	x0, [sp, 40]
	adrp	x0, :got:__stack_chk_guard
	ldr	x0, [x0, #:got_lo12:__stack_chk_guard]
	ldr	x1, [x0]
	str	x1, [sp, 200]
	mov	x1, 0
	add	x0, sp, 72
	mov	x8, x0
.LEHB115:
	bl	_Z12StructSchemaI12SimpleStructEDav
.LEHE115:
	add	x0, sp, 56
	bl	_ZNSaIcEC1Ev
	add	x0, sp, 56
	add	x3, sp, 168
	mov	x2, x0
	adrp	x0, .LC32
	add	x1, x0, :lo12:.LC32
	mov	x0, x3
.LEHB116:
	bl	_ZNSt7__cxx1112basic_stringIcSt11char_traitsIcESaIcEEC1IS3_EEPKcRKS3_
.LEHE116:
	add	x0, sp, 168
	mov	w3, 0
	mov	w2, 0
	mov	x1, x0
	mov	x0, x19
.LEHB117:
	bl	_ZN9FieldInfoC1ERKNSt7__cxx1112basic_stringIcSt11char_traitsIcESaIcEEE9ValueTypei
.LEHE117:
	add	x0, sp, 168
	bl	_ZNSt7__cxx1112basic_stringIcSt11char_traitsIcESaIcEED1Ev
	add	x0, sp, 56
	bl	_ZNSaIcED1Ev
	add	x0, sp, 40
	str	x0, [sp, 56]
	str	x19, [sp, 64]
	add	x1, sp, 56
	add	x0, sp, 72
.LEHB118:
	bl	_ZN6detail12ForEachTupleIZ18GetStructFieldInfoI12SimpleStructiE9FieldInfoMT_T0_EUlmOS4_E_RSt5tupleIJS9_IJmPKcMS2_iEESD_S9_IJmSB_MS2_dEES9_IJmSB_MS2_NSt7__cxx1112basic_stringIcSt11char_traitsIcESaIcEEEEEEEEEvOS5_S7_
.LEHE118:
	b	.L482
.L480:
	mov	x19, x0
	add	x0, sp, 168
	bl	_ZNSt7__cxx1112basic_stringIcSt11char_traitsIcESaIcEED1Ev
	b	.L476
.L479:
	mov	x19, x0
.L476:
	add	x0, sp, 56
	bl	_ZNSaIcED1Ev
	mov	x0, x19
.LEHB119:
	bl	_Unwind_Resume
.L481:
	mov	x20, x0
	mov	x0, x19
	bl	_ZN9FieldInfoD1Ev
	mov	x0, x20
	bl	_Unwind_Resume
.LEHE119:
.L482:
	adrp	x0, :got:__stack_chk_guard
	ldr	x0, [x0, #:got_lo12:__stack_chk_guard]
	ldr	x2, [sp, 200]
	ldr	x1, [x0]
	subs	x2, x2, x1
	mov	x1, 0
	beq	.L478
	bl	__stack_chk_fail
.L478:
	mov	x0, x19
	ldp	x19, x20, [sp, 16]
	ldp	x29, x30, [sp], 208
	.cfi_restore 30
	.cfi_restore 29
	.cfi_restore 19
	.cfi_restore 20
	.cfi_def_cfa_offset 0
	ret
	.cfi_endproc
.LFE4509:
	.section	.gcc_except_table
.LLSDA4509:
	.byte	0xff
	.byte	0xff
	.byte	0x1
	.uleb128 .LLSDACSE4509-.LLSDACSB4509
.LLSDACSB4509:
	.uleb128 .LEHB115-.LFB4509
	.uleb128 .LEHE115-.LEHB115
	.uleb128 0
	.uleb128 0
	.uleb128 .LEHB116-.LFB4509
	.uleb128 .LEHE116-.LEHB116
	.uleb128 .L479-.LFB4509
	.uleb128 0
	.uleb128 .LEHB117-.LFB4509
	.uleb128 .LEHE117-.LEHB117
	.uleb128 .L480-.LFB4509
	.uleb128 0
	.uleb128 .LEHB118-.LFB4509
	.uleb128 .LEHE118-.LEHB118
	.uleb128 .L481-.LFB4509
	.uleb128 0
	.uleb128 .LEHB119-.LFB4509
	.uleb128 .LEHE119-.LEHB119
	.uleb128 0
	.uleb128 0
.LLSDACSE4509:
	.section	.text._Z18GetStructFieldInfoI12SimpleStructiE9FieldInfoMT_T0_,"axG",@progbits,_Z18GetStructFieldInfoI12SimpleStructiE9FieldInfoMT_T0_,comdat
	.size	_Z18GetStructFieldInfoI12SimpleStructiE9FieldInfoMT_T0_, .-_Z18GetStructFieldInfoI12SimpleStructiE9FieldInfoMT_T0_
	.section	.text._ZN9__gnu_cxx13new_allocatorI14FieldContraintEC2Ev,"axG",@progbits,_ZN9__gnu_cxx13new_allocatorI14FieldContraintEC5Ev,comdat
	.align	2
	.weak	_ZN9__gnu_cxx13new_allocatorI14FieldContraintEC2Ev
	.type	_ZN9__gnu_cxx13new_allocatorI14FieldContraintEC2Ev, %function
_ZN9__gnu_cxx13new_allocatorI14FieldContraintEC2Ev:
.LFB4515:
	.cfi_startproc
	sub	sp, sp, #16
	.cfi_def_cfa_offset 16
	str	x0, [sp, 8]
	nop
	add	sp, sp, 16
	.cfi_def_cfa_offset 0
	ret
	.cfi_endproc
.LFE4515:
	.size	_ZN9__gnu_cxx13new_allocatorI14FieldContraintEC2Ev, .-_ZN9__gnu_cxx13new_allocatorI14FieldContraintEC2Ev
	.weak	_ZN9__gnu_cxx13new_allocatorI14FieldContraintEC1Ev
	.set	_ZN9__gnu_cxx13new_allocatorI14FieldContraintEC1Ev,_ZN9__gnu_cxx13new_allocatorI14FieldContraintEC2Ev
	.section	.text._ZN9__gnu_cxx13new_allocatorI14FieldContraintED2Ev,"axG",@progbits,_ZN9__gnu_cxx13new_allocatorI14FieldContraintED5Ev,comdat
	.align	2
	.weak	_ZN9__gnu_cxx13new_allocatorI14FieldContraintED2Ev
	.type	_ZN9__gnu_cxx13new_allocatorI14FieldContraintED2Ev, %function
_ZN9__gnu_cxx13new_allocatorI14FieldContraintED2Ev:
.LFB4518:
	.cfi_startproc
	sub	sp, sp, #16
	.cfi_def_cfa_offset 16
	str	x0, [sp, 8]
	nop
	add	sp, sp, 16
	.cfi_def_cfa_offset 0
	ret
	.cfi_endproc
.LFE4518:
	.size	_ZN9__gnu_cxx13new_allocatorI14FieldContraintED2Ev, .-_ZN9__gnu_cxx13new_allocatorI14FieldContraintED2Ev
	.weak	_ZN9__gnu_cxx13new_allocatorI14FieldContraintED1Ev
	.set	_ZN9__gnu_cxx13new_allocatorI14FieldContraintED1Ev,_ZN9__gnu_cxx13new_allocatorI14FieldContraintED2Ev
	.section	.text._ZNSt12_Vector_baseI14FieldContraintSaIS0_EE12_Vector_implD2Ev,"axG",@progbits,_ZNSt12_Vector_baseI14FieldContraintSaIS0_EE12_Vector_implD5Ev,comdat
	.align	2
	.weak	_ZNSt12_Vector_baseI14FieldContraintSaIS0_EE12_Vector_implD2Ev
	.type	_ZNSt12_Vector_baseI14FieldContraintSaIS0_EE12_Vector_implD2Ev, %function
_ZNSt12_Vector_baseI14FieldContraintSaIS0_EE12_Vector_implD2Ev:
.LFB4522:
	.cfi_startproc
	stp	x29, x30, [sp, -32]!
	.cfi_def_cfa_offset 32
	.cfi_offset 29, -32
	.cfi_offset 30, -24
	mov	x29, sp
	str	x0, [sp, 24]
	ldr	x0, [sp, 24]
	bl	_ZNSaI14FieldContraintED2Ev
	nop
	ldp	x29, x30, [sp], 32
	.cfi_restore 30
	.cfi_restore 29
	.cfi_def_cfa_offset 0
	ret
	.cfi_endproc
.LFE4522:
	.size	_ZNSt12_Vector_baseI14FieldContraintSaIS0_EE12_Vector_implD2Ev, .-_ZNSt12_Vector_baseI14FieldContraintSaIS0_EE12_Vector_implD2Ev
	.weak	_ZNSt12_Vector_baseI14FieldContraintSaIS0_EE12_Vector_implD1Ev
	.set	_ZNSt12_Vector_baseI14FieldContraintSaIS0_EE12_Vector_implD1Ev,_ZNSt12_Vector_baseI14FieldContraintSaIS0_EE12_Vector_implD2Ev
	.section	.text._ZNSt12_Vector_baseI14FieldContraintSaIS0_EEC2ERKS1_,"axG",@progbits,_ZNSt12_Vector_baseI14FieldContraintSaIS0_EEC5ERKS1_,comdat
	.align	2
	.weak	_ZNSt12_Vector_baseI14FieldContraintSaIS0_EEC2ERKS1_
	.type	_ZNSt12_Vector_baseI14FieldContraintSaIS0_EEC2ERKS1_, %function
_ZNSt12_Vector_baseI14FieldContraintSaIS0_EEC2ERKS1_:
.LFB4524:
	.cfi_startproc
	stp	x29, x30, [sp, -32]!
	.cfi_def_cfa_offset 32
	.cfi_offset 29, -32
	.cfi_offset 30, -24
	mov	x29, sp
	str	x0, [sp, 24]
	str	x1, [sp, 16]
	ldr	x0, [sp, 24]
	ldr	x1, [sp, 16]
	bl	_ZNSt12_Vector_baseI14FieldContraintSaIS0_EE12_Vector_implC1ERKS1_
	nop
	ldp	x29, x30, [sp], 32
	.cfi_restore 30
	.cfi_restore 29
	.cfi_def_cfa_offset 0
	ret
	.cfi_endproc
.LFE4524:
	.size	_ZNSt12_Vector_baseI14FieldContraintSaIS0_EEC2ERKS1_, .-_ZNSt12_Vector_baseI14FieldContraintSaIS0_EEC2ERKS1_
	.weak	_ZNSt12_Vector_baseI14FieldContraintSaIS0_EEC1ERKS1_
	.set	_ZNSt12_Vector_baseI14FieldContraintSaIS0_EEC1ERKS1_,_ZNSt12_Vector_baseI14FieldContraintSaIS0_EEC2ERKS1_
	.section	.text._ZNSt12_Vector_baseI14FieldContraintSaIS0_EED2Ev,"axG",@progbits,_ZNSt12_Vector_baseI14FieldContraintSaIS0_EED5Ev,comdat
	.align	2
	.weak	_ZNSt12_Vector_baseI14FieldContraintSaIS0_EED2Ev
	.type	_ZNSt12_Vector_baseI14FieldContraintSaIS0_EED2Ev, %function
_ZNSt12_Vector_baseI14FieldContraintSaIS0_EED2Ev:
.LFB4527:
	.cfi_startproc
	.cfi_personality 0x9b,DW.ref.__gxx_personality_v0
	.cfi_lsda 0x1b,.LLSDA4527
	stp	x29, x30, [sp, -32]!
	.cfi_def_cfa_offset 32
	.cfi_offset 29, -32
	.cfi_offset 30, -24
	mov	x29, sp
	str	x0, [sp, 24]
	ldr	x0, [sp, 24]
	ldr	x3, [x0]
	ldr	x0, [sp, 24]
	ldr	x1, [x0, 16]
	ldr	x0, [sp, 24]
	ldr	x0, [x0]
	sub	x0, x1, x0
	asr	x0, x0, 6
	mov	x2, x0
	mov	x1, x3
	ldr	x0, [sp, 24]
	bl	_ZNSt12_Vector_baseI14FieldContraintSaIS0_EE13_M_deallocateEPS0_m
	ldr	x0, [sp, 24]
	bl	_ZNSt12_Vector_baseI14FieldContraintSaIS0_EE12_Vector_implD1Ev
	nop
	ldp	x29, x30, [sp], 32
	.cfi_restore 30
	.cfi_restore 29
	.cfi_def_cfa_offset 0
	ret
	.cfi_endproc
.LFE4527:
	.section	.gcc_except_table
.LLSDA4527:
	.byte	0xff
	.byte	0xff
	.byte	0x1
	.uleb128 .LLSDACSE4527-.LLSDACSB4527
.LLSDACSB4527:
.LLSDACSE4527:
	.section	.text._ZNSt12_Vector_baseI14FieldContraintSaIS0_EED2Ev,"axG",@progbits,_ZNSt12_Vector_baseI14FieldContraintSaIS0_EED5Ev,comdat
	.size	_ZNSt12_Vector_baseI14FieldContraintSaIS0_EED2Ev, .-_ZNSt12_Vector_baseI14FieldContraintSaIS0_EED2Ev
	.weak	_ZNSt12_Vector_baseI14FieldContraintSaIS0_EED1Ev
	.set	_ZNSt12_Vector_baseI14FieldContraintSaIS0_EED1Ev,_ZNSt12_Vector_baseI14FieldContraintSaIS0_EED2Ev
	.section	.text._ZNKSt16initializer_listI14FieldContraintE5beginEv,"axG",@progbits,_ZNKSt16initializer_listI14FieldContraintE5beginEv,comdat
	.align	2
	.weak	_ZNKSt16initializer_listI14FieldContraintE5beginEv
	.type	_ZNKSt16initializer_listI14FieldContraintE5beginEv, %function
_ZNKSt16initializer_listI14FieldContraintE5beginEv:
.LFB4529:
	.cfi_startproc
	sub	sp, sp, #16
	.cfi_def_cfa_offset 16
	str	x0, [sp, 8]
	ldr	x0, [sp, 8]
	ldr	x0, [x0]
	add	sp, sp, 16
	.cfi_def_cfa_offset 0
	ret
	.cfi_endproc
.LFE4529:
	.size	_ZNKSt16initializer_listI14FieldContraintE5beginEv, .-_ZNKSt16initializer_listI14FieldContraintE5beginEv
	.section	.text._ZNKSt16initializer_listI14FieldContraintE3endEv,"axG",@progbits,_ZNKSt16initializer_listI14FieldContraintE3endEv,comdat
	.align	2
	.weak	_ZNKSt16initializer_listI14FieldContraintE3endEv
	.type	_ZNKSt16initializer_listI14FieldContraintE3endEv, %function
_ZNKSt16initializer_listI14FieldContraintE3endEv:
.LFB4530:
	.cfi_startproc
	stp	x29, x30, [sp, -48]!
	.cfi_def_cfa_offset 48
	.cfi_offset 29, -48
	.cfi_offset 30, -40
	mov	x29, sp
	str	x19, [sp, 16]
	.cfi_offset 19, -32
	str	x0, [sp, 40]
	ldr	x0, [sp, 40]
	bl	_ZNKSt16initializer_listI14FieldContraintE5beginEv
	mov	x19, x0
	ldr	x0, [sp, 40]
	bl	_ZNKSt16initializer_listI14FieldContraintE4sizeEv
	lsl	x0, x0, 6
	add	x0, x19, x0
	ldr	x19, [sp, 16]
	ldp	x29, x30, [sp], 48
	.cfi_restore 30
	.cfi_restore 29
	.cfi_restore 19
	.cfi_def_cfa_offset 0
	ret
	.cfi_endproc
.LFE4530:
	.size	_ZNKSt16initializer_listI14FieldContraintE3endEv, .-_ZNKSt16initializer_listI14FieldContraintE3endEv
	.section	.text._ZSt8distanceIPK14FieldContraintENSt15iterator_traitsIT_E15difference_typeES4_S4_,"axG",@progbits,_ZSt8distanceIPK14FieldContraintENSt15iterator_traitsIT_E15difference_typeES4_S4_,comdat
	.align	2
	.weak	_ZSt8distanceIPK14FieldContraintENSt15iterator_traitsIT_E15difference_typeES4_S4_
	.type	_ZSt8distanceIPK14FieldContraintENSt15iterator_traitsIT_E15difference_typeES4_S4_, %function
_ZSt8distanceIPK14FieldContraintENSt15iterator_traitsIT_E15difference_typeES4_S4_:
.LFB4532:
	.cfi_startproc
	stp	x29, x30, [sp, -48]!
	.cfi_def_cfa_offset 48
	.cfi_offset 29, -48
	.cfi_offset 30, -40
	mov	x29, sp
	stp	x19, x20, [sp, 16]
	.cfi_offset 19, -32
	.cfi_offset 20, -24
	str	x0, [sp, 40]
	str	x1, [sp, 32]
	ldr	x19, [sp, 40]
	add	x0, sp, 40
	bl	_ZSt19__iterator_categoryIPK14FieldContraintENSt15iterator_traitsIT_E17iterator_categoryERKS4_
	mov	w2, w20
	ldr	x1, [sp, 32]
	mov	x0, x19
	bl	_ZSt10__distanceIPK14FieldContraintENSt15iterator_traitsIT_E15difference_typeES4_S4_St26random_access_iterator_tag
	ldp	x19, x20, [sp, 16]
	ldp	x29, x30, [sp], 48
	.cfi_restore 30
	.cfi_restore 29
	.cfi_restore 19
	.cfi_restore 20
	.cfi_def_cfa_offset 0
	ret
	.cfi_endproc
.LFE4532:
	.size	_ZSt8distanceIPK14FieldContraintENSt15iterator_traitsIT_E15difference_typeES4_S4_, .-_ZSt8distanceIPK14FieldContraintENSt15iterator_traitsIT_E15difference_typeES4_S4_
	.section	.text._ZNSt6vectorI14FieldContraintSaIS0_EE19_M_range_initializeIPKS0_EEvT_S6_St20forward_iterator_tag,"axG",@progbits,_ZNSt6vectorI14FieldContraintSaIS0_EE19_M_range_initializeIPKS0_EEvT_S6_St20forward_iterator_tag,comdat
	.align	2
	.weak	_ZNSt6vectorI14FieldContraintSaIS0_EE19_M_range_initializeIPKS0_EEvT_S6_St20forward_iterator_tag
	.type	_ZNSt6vectorI14FieldContraintSaIS0_EE19_M_range_initializeIPKS0_EEvT_S6_St20forward_iterator_tag, %function
_ZNSt6vectorI14FieldContraintSaIS0_EE19_M_range_initializeIPKS0_EEvT_S6_St20forward_iterator_tag:
.LFB4531:
	.cfi_startproc
	stp	x29, x30, [sp, -80]!
	.cfi_def_cfa_offset 80
	.cfi_offset 29, -80
	.cfi_offset 30, -72
	mov	x29, sp
	str	x19, [sp, 16]
	.cfi_offset 19, -64
	str	x0, [sp, 56]
	str	x1, [sp, 48]
	str	x2, [sp, 40]
	strb	w3, [sp, 32]
	ldr	x1, [sp, 40]
	ldr	x0, [sp, 48]
	bl	_ZSt8distanceIPK14FieldContraintENSt15iterator_traitsIT_E15difference_typeES4_S4_
	str	x0, [sp, 72]
	ldr	x19, [sp, 56]
	ldr	x0, [sp, 56]
	bl	_ZNSt12_Vector_baseI14FieldContraintSaIS0_EE19_M_get_Tp_allocatorEv
	mov	x1, x0
	ldr	x0, [sp, 72]
	bl	_ZNSt6vectorI14FieldContraintSaIS0_EE17_S_check_init_lenEmRKS1_
	mov	x1, x0
	mov	x0, x19
	bl	_ZNSt12_Vector_baseI14FieldContraintSaIS0_EE11_M_allocateEm
	mov	x1, x0
	ldr	x0, [sp, 56]
	str	x1, [x0]
	ldr	x0, [sp, 56]
	ldr	x1, [x0]
	ldr	x0, [sp, 72]
	lsl	x0, x0, 6
	add	x1, x1, x0
	ldr	x0, [sp, 56]
	str	x1, [x0, 16]
	ldr	x0, [sp, 56]
	ldr	x19, [x0]
	ldr	x0, [sp, 56]
	bl	_ZNSt12_Vector_baseI14FieldContraintSaIS0_EE19_M_get_Tp_allocatorEv
	mov	x3, x0
	mov	x2, x19
	ldr	x1, [sp, 40]
	ldr	x0, [sp, 48]
	bl	_ZSt22__uninitialized_copy_aIPK14FieldContraintPS0_S0_ET0_T_S5_S4_RSaIT1_E
	mov	x1, x0
	ldr	x0, [sp, 56]
	str	x1, [x0, 8]
	nop
	ldr	x19, [sp, 16]
	ldp	x29, x30, [sp], 80
	.cfi_restore 30
	.cfi_restore 29
	.cfi_restore 19
	.cfi_def_cfa_offset 0
	ret
	.cfi_endproc
.LFE4531:
	.size	_ZNSt6vectorI14FieldContraintSaIS0_EE19_M_range_initializeIPKS0_EEvT_S6_St20forward_iterator_tag, .-_ZNSt6vectorI14FieldContraintSaIS0_EE19_M_range_initializeIPKS0_EEvT_S6_St20forward_iterator_tag
	.section	.text._ZNSt12_Vector_baseI14FieldContraintSaIS0_EE19_M_get_Tp_allocatorEv,"axG",@progbits,_ZNSt12_Vector_baseI14FieldContraintSaIS0_EE19_M_get_Tp_allocatorEv,comdat
	.align	2
	.weak	_ZNSt12_Vector_baseI14FieldContraintSaIS0_EE19_M_get_Tp_allocatorEv
	.type	_ZNSt12_Vector_baseI14FieldContraintSaIS0_EE19_M_get_Tp_allocatorEv, %function
_ZNSt12_Vector_baseI14FieldContraintSaIS0_EE19_M_get_Tp_allocatorEv:
.LFB4533:
	.cfi_startproc
	sub	sp, sp, #16
	.cfi_def_cfa_offset 16
	str	x0, [sp, 8]
	ldr	x0, [sp, 8]
	add	sp, sp, 16
	.cfi_def_cfa_offset 0
	ret
	.cfi_endproc
.LFE4533:
	.size	_ZNSt12_Vector_baseI14FieldContraintSaIS0_EE19_M_get_Tp_allocatorEv, .-_ZNSt12_Vector_baseI14FieldContraintSaIS0_EE19_M_get_Tp_allocatorEv
	.section	.text._ZSt8_DestroyIP14FieldContraintS0_EvT_S2_RSaIT0_E,"axG",@progbits,_ZSt8_DestroyIP14FieldContraintS0_EvT_S2_RSaIT0_E,comdat
	.align	2
	.weak	_ZSt8_DestroyIP14FieldContraintS0_EvT_S2_RSaIT0_E
	.type	_ZSt8_DestroyIP14FieldContraintS0_EvT_S2_RSaIT0_E, %function
_ZSt8_DestroyIP14FieldContraintS0_EvT_S2_RSaIT0_E:
.LFB4534:
	.cfi_startproc
	stp	x29, x30, [sp, -48]!
	.cfi_def_cfa_offset 48
	.cfi_offset 29, -48
	.cfi_offset 30, -40
	mov	x29, sp
	str	x0, [sp, 40]
	str	x1, [sp, 32]
	str	x2, [sp, 24]
	ldr	x1, [sp, 32]
	ldr	x0, [sp, 40]
	bl	_ZSt8_DestroyIP14FieldContraintEvT_S2_
	nop
	ldp	x29, x30, [sp], 48
	.cfi_restore 30
	.cfi_restore 29
	.cfi_def_cfa_offset 0
	ret
	.cfi_endproc
.LFE4534:
	.size	_ZSt8_DestroyIP14FieldContraintS0_EvT_S2_RSaIT0_E, .-_ZSt8_DestroyIP14FieldContraintS0_EvT_S2_RSaIT0_E
	.weak	_ZZN8SqliteDB16GenUtf8CreateSqlI12SimpleStructEENSt7__cxx1112basic_stringIcSt11char_traitsIcESaIcEEERKSt6vectorI14FieldContraintSaIS9_EEE11vecFileInfo
	.section	.bss._ZZN8SqliteDB16GenUtf8CreateSqlI12SimpleStructEENSt7__cxx1112basic_stringIcSt11char_traitsIcESaIcEEERKSt6vectorI14FieldContraintSaIS9_EEE11vecFileInfo,"awG",@nobits,_ZZN8SqliteDB16GenUtf8CreateSqlI12SimpleStructEENSt7__cxx1112basic_stringIcSt11char_traitsIcESaIcEEERKSt6vectorI14FieldContraintSaIS9_EEE11vecFileInfo,comdat
	.align	3
	.type	_ZZN8SqliteDB16GenUtf8CreateSqlI12SimpleStructEENSt7__cxx1112basic_stringIcSt11char_traitsIcESaIcEEERKSt6vectorI14FieldContraintSaIS9_EEE11vecFileInfo, %gnu_unique_object
	.size	_ZZN8SqliteDB16GenUtf8CreateSqlI12SimpleStructEENSt7__cxx1112basic_stringIcSt11char_traitsIcESaIcEEERKSt6vectorI14FieldContraintSaIS9_EEE11vecFileInfo, 24
_ZZN8SqliteDB16GenUtf8CreateSqlI12SimpleStructEENSt7__cxx1112basic_stringIcSt11char_traitsIcESaIcEEERKSt6vectorI14FieldContraintSaIS9_EEE11vecFileInfo:
	.zero	24
	.weak	_ZGVZN8SqliteDB16GenUtf8CreateSqlI12SimpleStructEENSt7__cxx1112basic_stringIcSt11char_traitsIcESaIcEEERKSt6vectorI14FieldContraintSaIS9_EEE11vecFileInfo
	.section	.bss._ZGVZN8SqliteDB16GenUtf8CreateSqlI12SimpleStructEENSt7__cxx1112basic_stringIcSt11char_traitsIcESaIcEEERKSt6vectorI14FieldContraintSaIS9_EEE11vecFileInfo,"awG",@nobits,_ZGVZN8SqliteDB16GenUtf8CreateSqlI12SimpleStructEENSt7__cxx1112basic_stringIcSt11char_traitsIcESaIcEEERKSt6vectorI14FieldContraintSaIS9_EEE11vecFileInfo,comdat
	.align	3
	.type	_ZGVZN8SqliteDB16GenUtf8CreateSqlI12SimpleStructEENSt7__cxx1112basic_stringIcSt11char_traitsIcESaIcEEERKSt6vectorI14FieldContraintSaIS9_EEE11vecFileInfo, %gnu_unique_object
	.size	_ZGVZN8SqliteDB16GenUtf8CreateSqlI12SimpleStructEENSt7__cxx1112basic_stringIcSt11char_traitsIcESaIcEEERKSt6vectorI14FieldContraintSaIS9_EEE11vecFileInfo, 8
_ZGVZN8SqliteDB16GenUtf8CreateSqlI12SimpleStructEENSt7__cxx1112basic_stringIcSt11char_traitsIcESaIcEEERKSt6vectorI14FieldContraintSaIS9_EEE11vecFileInfo:
	.zero	8
	.weak	_ZZN8SqliteDB16GenUtf8CreateSqlI12SimpleStructEENSt7__cxx1112basic_stringIcSt11char_traitsIcESaIcEEERKSt6vectorI14FieldContraintSaIS9_EEE12strTableNameB5cxx11
	.section	.bss._ZZN8SqliteDB16GenUtf8CreateSqlI12SimpleStructEENSt7__cxx1112basic_stringIcSt11char_traitsIcESaIcEEERKSt6vectorI14FieldContraintSaIS9_EEE12strTableNameB5cxx11,"awG",@nobits,_ZZN8SqliteDB16GenUtf8CreateSqlI12SimpleStructEENSt7__cxx1112basic_stringIcSt11char_traitsIcESaIcEEERKSt6vectorI14FieldContraintSaIS9_EEE12strTableNameB5cxx11,comdat
	.align	3
	.type	_ZZN8SqliteDB16GenUtf8CreateSqlI12SimpleStructEENSt7__cxx1112basic_stringIcSt11char_traitsIcESaIcEEERKSt6vectorI14FieldContraintSaIS9_EEE12strTableNameB5cxx11, %gnu_unique_object
	.size	_ZZN8SqliteDB16GenUtf8CreateSqlI12SimpleStructEENSt7__cxx1112basic_stringIcSt11char_traitsIcESaIcEEERKSt6vectorI14FieldContraintSaIS9_EEE12strTableNameB5cxx11, 32
_ZZN8SqliteDB16GenUtf8CreateSqlI12SimpleStructEENSt7__cxx1112basic_stringIcSt11char_traitsIcESaIcEEERKSt6vectorI14FieldContraintSaIS9_EEE12strTableNameB5cxx11:
	.zero	32
	.weak	_ZGVZN8SqliteDB16GenUtf8CreateSqlI12SimpleStructEENSt7__cxx1112basic_stringIcSt11char_traitsIcESaIcEEERKSt6vectorI14FieldContraintSaIS9_EEE12strTableNameB5cxx11
	.section	.bss._ZGVZN8SqliteDB16GenUtf8CreateSqlI12SimpleStructEENSt7__cxx1112basic_stringIcSt11char_traitsIcESaIcEEERKSt6vectorI14FieldContraintSaIS9_EEE12strTableNameB5cxx11,"awG",@nobits,_ZGVZN8SqliteDB16GenUtf8CreateSqlI12SimpleStructEENSt7__cxx1112basic_stringIcSt11char_traitsIcESaIcEEERKSt6vectorI14FieldContraintSaIS9_EEE12strTableNameB5cxx11,comdat
	.align	3
	.type	_ZGVZN8SqliteDB16GenUtf8CreateSqlI12SimpleStructEENSt7__cxx1112basic_stringIcSt11char_traitsIcESaIcEEERKSt6vectorI14FieldContraintSaIS9_EEE12strTableNameB5cxx11, %gnu_unique_object
	.size	_ZGVZN8SqliteDB16GenUtf8CreateSqlI12SimpleStructEENSt7__cxx1112basic_stringIcSt11char_traitsIcESaIcEEERKSt6vectorI14FieldContraintSaIS9_EEE12strTableNameB5cxx11, 8
_ZGVZN8SqliteDB16GenUtf8CreateSqlI12SimpleStructEENSt7__cxx1112basic_stringIcSt11char_traitsIcESaIcEEERKSt6vectorI14FieldContraintSaIS9_EEE12strTableNameB5cxx11:
	.zero	8
	.section	.text._ZZN8SqliteDB16GenUtf8CreateSqlI12SimpleStructEENSt7__cxx1112basic_stringIcSt11char_traitsIcESaIcEEERKSt6vectorI14FieldContraintSaIS9_EEENKUlRKS9_E_clESF_,"axG",@progbits,_ZZN8SqliteDB16GenUtf8CreateSqlI12SimpleStructEENSt7__cxx1112basic_stringIcSt11char_traitsIcESaIcEEERKSt6vectorI14FieldContraintSaIS9_EEENKUlRKS9_E_clESF_,comdat
	.align	2
