	.arch armv8-a
	.file	"main.cpp"
	.text
	.section	.text._ZNSt11char_traitsIcE6lengthEPKc,"axG",@progbits,_ZNSt11char_traitsIcE6lengthEPKc,comdat
	.align	2
	.weak	_ZNSt11char_traitsIcE6lengthEPKc
	.type	_ZNSt11char_traitsIcE6lengthEPKc, %function
_ZNSt11char_traitsIcE6lengthEPKc:
.LFB449:
	.cfi_startproc
	stp	x29, x30, [sp, -48]!
	.cfi_def_cfa_offset 48
	.cfi_offset 29, -48
	.cfi_offset 30, -40
	mov	x29, sp
	str	x0, [sp, 24]
	ldr	x0, [sp, 24]
	str	x0, [sp, 40]
	mov	w0, 0
	cmp	w0, 0
	beq	.L3
	ldr	x0, [sp, 24]
	bl	_ZN9__gnu_cxx11char_traitsIcE6lengthEPKc
	b	.L4
.L3:
	ldr	x0, [sp, 24]
	bl	strlen
	nop
.L4:
	ldp	x29, x30, [sp], 48
	.cfi_restore 30
	.cfi_restore 29
	.cfi_def_cfa_offset 0
	ret
	.cfi_endproc
.LFE449:
	.size	_ZNSt11char_traitsIcE6lengthEPKc, .-_ZNSt11char_traitsIcE6lengthEPKc
	.local	_ZStL8__ioinit
	.comm	_ZStL8__ioinit,1,8
	.section	.text._ZNSt8__detail15_Hash_node_baseC2Ev,"axG",@progbits,_ZNSt8__detail15_Hash_node_baseC5Ev,comdat
	.align	2
	.weak	_ZNSt8__detail15_Hash_node_baseC2Ev
	.type	_ZNSt8__detail15_Hash_node_baseC2Ev, %function
_ZNSt8__detail15_Hash_node_baseC2Ev:
.LFB2009:
	.cfi_startproc
	sub	sp, sp, #16
	.cfi_def_cfa_offset 16
	str	x0, [sp, 8]
	ldr	x0, [sp, 8]
	str	xzr, [x0]
	nop
	add	sp, sp, 16
	.cfi_def_cfa_offset 0
	ret
	.cfi_endproc
.LFE2009:
	.size	_ZNSt8__detail15_Hash_node_baseC2Ev, .-_ZNSt8__detail15_Hash_node_baseC2Ev
	.weak	_ZNSt8__detail15_Hash_node_baseC1Ev
	.set	_ZNSt8__detail15_Hash_node_baseC1Ev,_ZNSt8__detail15_Hash_node_baseC2Ev
	.section	.text._ZNSt8__detail20_Prime_rehash_policyC2Ef,"axG",@progbits,_ZNSt8__detail20_Prime_rehash_policyC5Ef,comdat
	.align	2
	.weak	_ZNSt8__detail20_Prime_rehash_policyC2Ef
	.type	_ZNSt8__detail20_Prime_rehash_policyC2Ef, %function
_ZNSt8__detail20_Prime_rehash_policyC2Ef:
.LFB2037:
	.cfi_startproc
	sub	sp, sp, #16
	.cfi_def_cfa_offset 16
	str	x0, [sp, 8]
	str	s0, [sp, 4]
	ldr	x0, [sp, 8]
	ldr	s0, [sp, 4]
	str	s0, [x0]
	ldr	x0, [sp, 8]
	str	xzr, [x0, 8]
	nop
	add	sp, sp, 16
	.cfi_def_cfa_offset 0
	ret
	.cfi_endproc
.LFE2037:
	.size	_ZNSt8__detail20_Prime_rehash_policyC2Ef, .-_ZNSt8__detail20_Prime_rehash_policyC2Ef
	.weak	_ZNSt8__detail20_Prime_rehash_policyC1Ef
	.set	_ZNSt8__detail20_Prime_rehash_policyC1Ef,_ZNSt8__detail20_Prime_rehash_policyC2Ef
	.section	.text._ZNSt8__detail15_Hash_code_baseIccNS_9_IdentityESt4hashIcENS_18_Mod_range_hashingENS_20_Default_ranged_hashELb0EEC2Ev,"axG",@progbits,_ZNSt8__detail15_Hash_code_baseIccNS_9_IdentityESt4hashIcENS_18_Mod_range_hashingENS_20_Default_ranged_hashELb0EEC5Ev,comdat
	.align	2
	.weak	_ZNSt8__detail15_Hash_code_baseIccNS_9_IdentityESt4hashIcENS_18_Mod_range_hashingENS_20_Default_ranged_hashELb0EEC2Ev
	.type	_ZNSt8__detail15_Hash_code_baseIccNS_9_IdentityESt4hashIcENS_18_Mod_range_hashingENS_20_Default_ranged_hashELb0EEC2Ev, %function
_ZNSt8__detail15_Hash_code_baseIccNS_9_IdentityESt4hashIcENS_18_Mod_range_hashingENS_20_Default_ranged_hashELb0EEC2Ev:
.LFB2456:
	.cfi_startproc
	stp	x29, x30, [sp, -32]!
	.cfi_def_cfa_offset 32
	.cfi_offset 29, -32
	.cfi_offset 30, -24
	mov	x29, sp
	str	x0, [sp, 24]
	ldr	x0, [sp, 24]
	bl	_ZNSt8__detail21_Hashtable_ebo_helperILi1ESt4hashIcELb1EEC2Ev
	nop
	ldp	x29, x30, [sp], 32
	.cfi_restore 30
	.cfi_restore 29
	.cfi_def_cfa_offset 0
	ret
	.cfi_endproc
.LFE2456:
	.size	_ZNSt8__detail15_Hash_code_baseIccNS_9_IdentityESt4hashIcENS_18_Mod_range_hashingENS_20_Default_ranged_hashELb0EEC2Ev, .-_ZNSt8__detail15_Hash_code_baseIccNS_9_IdentityESt4hashIcENS_18_Mod_range_hashingENS_20_Default_ranged_hashELb0EEC2Ev
	.weak	_ZNSt8__detail15_Hash_code_baseIccNS_9_IdentityESt4hashIcENS_18_Mod_range_hashingENS_20_Default_ranged_hashELb0EEC1Ev
	.set	_ZNSt8__detail15_Hash_code_baseIccNS_9_IdentityESt4hashIcENS_18_Mod_range_hashingENS_20_Default_ranged_hashELb0EEC1Ev,_ZNSt8__detail15_Hash_code_baseIccNS_9_IdentityESt4hashIcENS_18_Mod_range_hashingENS_20_Default_ranged_hashELb0EEC2Ev
	.section	.text._ZNSt8__detail15_Hashtable_baseIccNS_9_IdentityESt8equal_toIcESt4hashIcENS_18_Mod_range_hashingENS_20_Default_ranged_hashENS_17_Hashtable_traitsILb0ELb1ELb1EEEEC2Ev,"axG",@progbits,_ZNSt8__detail15_Hashtable_baseIccNS_9_IdentityESt8equal_toIcESt4hashIcENS_18_Mod_range_hashingENS_20_Default_ranged_hashENS_17_Hashtable_traitsILb0ELb1ELb1EEEEC5Ev,comdat
	.align	2
	.weak	_ZNSt8__detail15_Hashtable_baseIccNS_9_IdentityESt8equal_toIcESt4hashIcENS_18_Mod_range_hashingENS_20_Default_ranged_hashENS_17_Hashtable_traitsILb0ELb1ELb1EEEEC2Ev
	.type	_ZNSt8__detail15_Hashtable_baseIccNS_9_IdentityESt8equal_toIcESt4hashIcENS_18_Mod_range_hashingENS_20_Default_ranged_hashENS_17_Hashtable_traitsILb0ELb1ELb1EEEEC2Ev, %function
_ZNSt8__detail15_Hashtable_baseIccNS_9_IdentityESt8equal_toIcESt4hashIcENS_18_Mod_range_hashingENS_20_Default_ranged_hashENS_17_Hashtable_traitsILb0ELb1ELb1EEEEC2Ev:
.LFB2458:
	.cfi_startproc
	stp	x29, x30, [sp, -32]!
	.cfi_def_cfa_offset 32
	.cfi_offset 29, -32
	.cfi_offset 30, -24
	mov	x29, sp
	str	x0, [sp, 24]
	ldr	x0, [sp, 24]
	bl	_ZNSt8__detail15_Hash_code_baseIccNS_9_IdentityESt4hashIcENS_18_Mod_range_hashingENS_20_Default_ranged_hashELb0EEC2Ev
	ldr	x0, [sp, 24]
	bl	_ZNSt8__detail21_Hashtable_ebo_helperILi0ESt8equal_toIcELb1EEC2Ev
	nop
	ldp	x29, x30, [sp], 32
	.cfi_restore 30
	.cfi_restore 29
	.cfi_def_cfa_offset 0
	ret
	.cfi_endproc
.LFE2458:
	.size	_ZNSt8__detail15_Hashtable_baseIccNS_9_IdentityESt8equal_toIcESt4hashIcENS_18_Mod_range_hashingENS_20_Default_ranged_hashENS_17_Hashtable_traitsILb0ELb1ELb1EEEEC2Ev, .-_ZNSt8__detail15_Hashtable_baseIccNS_9_IdentityESt8equal_toIcESt4hashIcENS_18_Mod_range_hashingENS_20_Default_ranged_hashENS_17_Hashtable_traitsILb0ELb1ELb1EEEEC2Ev
	.weak	_ZNSt8__detail15_Hashtable_baseIccNS_9_IdentityESt8equal_toIcESt4hashIcENS_18_Mod_range_hashingENS_20_Default_ranged_hashENS_17_Hashtable_traitsILb0ELb1ELb1EEEEC1Ev
	.set	_ZNSt8__detail15_Hashtable_baseIccNS_9_IdentityESt8equal_toIcESt4hashIcENS_18_Mod_range_hashingENS_20_Default_ranged_hashENS_17_Hashtable_traitsILb0ELb1ELb1EEEEC1Ev,_ZNSt8__detail15_Hashtable_baseIccNS_9_IdentityESt8equal_toIcESt4hashIcENS_18_Mod_range_hashingENS_20_Default_ranged_hashENS_17_Hashtable_traitsILb0ELb1ELb1EEEEC2Ev
	.section	.text._ZNSt8__detail21_Hashtable_ebo_helperILi0ESaINS_10_Hash_nodeIcLb0EEEELb1EED2Ev,"axG",@progbits,_ZNSt8__detail21_Hashtable_ebo_helperILi0ESaINS_10_Hash_nodeIcLb0EEEELb1EED5Ev,comdat
	.align	2
	.weak	_ZNSt8__detail21_Hashtable_ebo_helperILi0ESaINS_10_Hash_nodeIcLb0EEEELb1EED2Ev
	.type	_ZNSt8__detail21_Hashtable_ebo_helperILi0ESaINS_10_Hash_nodeIcLb0EEEELb1EED2Ev, %function
_ZNSt8__detail21_Hashtable_ebo_helperILi0ESaINS_10_Hash_nodeIcLb0EEEELb1EED2Ev:
.LFB2462:
	.cfi_startproc
	stp	x29, x30, [sp, -32]!
	.cfi_def_cfa_offset 32
	.cfi_offset 29, -32
	.cfi_offset 30, -24
	mov	x29, sp
	str	x0, [sp, 24]
	ldr	x0, [sp, 24]
	bl	_ZNSaINSt8__detail10_Hash_nodeIcLb0EEEED2Ev
	nop
	ldp	x29, x30, [sp], 32
	.cfi_restore 30
	.cfi_restore 29
	.cfi_def_cfa_offset 0
	ret
	.cfi_endproc
.LFE2462:
	.size	_ZNSt8__detail21_Hashtable_ebo_helperILi0ESaINS_10_Hash_nodeIcLb0EEEELb1EED2Ev, .-_ZNSt8__detail21_Hashtable_ebo_helperILi0ESaINS_10_Hash_nodeIcLb0EEEELb1EED2Ev
	.weak	_ZNSt8__detail21_Hashtable_ebo_helperILi0ESaINS_10_Hash_nodeIcLb0EEEELb1EED1Ev
	.set	_ZNSt8__detail21_Hashtable_ebo_helperILi0ESaINS_10_Hash_nodeIcLb0EEEELb1EED1Ev,_ZNSt8__detail21_Hashtable_ebo_helperILi0ESaINS_10_Hash_nodeIcLb0EEEELb1EED2Ev
	.section	.text._ZNSt8__detail16_Hashtable_allocISaINS_10_Hash_nodeIcLb0EEEEEC2Ev,"axG",@progbits,_ZNSt8__detail16_Hashtable_allocISaINS_10_Hash_nodeIcLb0EEEEEC5Ev,comdat
	.align	2
	.weak	_ZNSt8__detail16_Hashtable_allocISaINS_10_Hash_nodeIcLb0EEEEEC2Ev
	.type	_ZNSt8__detail16_Hashtable_allocISaINS_10_Hash_nodeIcLb0EEEEEC2Ev, %function
_ZNSt8__detail16_Hashtable_allocISaINS_10_Hash_nodeIcLb0EEEEEC2Ev:
.LFB2464:
	.cfi_startproc
	stp	x29, x30, [sp, -32]!
	.cfi_def_cfa_offset 32
	.cfi_offset 29, -32
	.cfi_offset 30, -24
	mov	x29, sp
	str	x0, [sp, 24]
	ldr	x0, [sp, 24]
	bl	_ZNSt8__detail21_Hashtable_ebo_helperILi0ESaINS_10_Hash_nodeIcLb0EEEELb1EEC2Ev
	nop
	ldp	x29, x30, [sp], 32
	.cfi_restore 30
	.cfi_restore 29
	.cfi_def_cfa_offset 0
	ret
	.cfi_endproc
.LFE2464:
	.size	_ZNSt8__detail16_Hashtable_allocISaINS_10_Hash_nodeIcLb0EEEEEC2Ev, .-_ZNSt8__detail16_Hashtable_allocISaINS_10_Hash_nodeIcLb0EEEEEC2Ev
	.weak	_ZNSt8__detail16_Hashtable_allocISaINS_10_Hash_nodeIcLb0EEEEEC1Ev
	.set	_ZNSt8__detail16_Hashtable_allocISaINS_10_Hash_nodeIcLb0EEEEEC1Ev,_ZNSt8__detail16_Hashtable_allocISaINS_10_Hash_nodeIcLb0EEEEEC2Ev
	.section	.text._ZNSt8__detail16_Hashtable_allocISaINS_10_Hash_nodeIcLb0EEEEED2Ev,"axG",@progbits,_ZNSt8__detail16_Hashtable_allocISaINS_10_Hash_nodeIcLb0EEEEED5Ev,comdat
	.align	2
	.weak	_ZNSt8__detail16_Hashtable_allocISaINS_10_Hash_nodeIcLb0EEEEED2Ev
	.type	_ZNSt8__detail16_Hashtable_allocISaINS_10_Hash_nodeIcLb0EEEEED2Ev, %function
_ZNSt8__detail16_Hashtable_allocISaINS_10_Hash_nodeIcLb0EEEEED2Ev:
.LFB2467:
	.cfi_startproc
	stp	x29, x30, [sp, -32]!
	.cfi_def_cfa_offset 32
	.cfi_offset 29, -32
	.cfi_offset 30, -24
	mov	x29, sp
	str	x0, [sp, 24]
	ldr	x0, [sp, 24]
	bl	_ZNSt8__detail21_Hashtable_ebo_helperILi0ESaINS_10_Hash_nodeIcLb0EEEELb1EED2Ev
	nop
	ldp	x29, x30, [sp], 32
	.cfi_restore 30
	.cfi_restore 29
	.cfi_def_cfa_offset 0
	ret
	.cfi_endproc
.LFE2467:
	.size	_ZNSt8__detail16_Hashtable_allocISaINS_10_Hash_nodeIcLb0EEEEED2Ev, .-_ZNSt8__detail16_Hashtable_allocISaINS_10_Hash_nodeIcLb0EEEEED2Ev
	.weak	_ZNSt8__detail16_Hashtable_allocISaINS_10_Hash_nodeIcLb0EEEEED1Ev
	.set	_ZNSt8__detail16_Hashtable_allocISaINS_10_Hash_nodeIcLb0EEEEED1Ev,_ZNSt8__detail16_Hashtable_allocISaINS_10_Hash_nodeIcLb0EEEEED2Ev
	.section	.text._ZNSt10_HashtableIccSaIcENSt8__detail9_IdentityESt8equal_toIcESt4hashIcENS1_18_Mod_range_hashingENS1_20_Default_ranged_hashENS1_20_Prime_rehash_policyENS1_17_Hashtable_traitsILb0ELb1ELb1EEEEC2Ev,"axG",@progbits,_ZNSt10_HashtableIccSaIcENSt8__detail9_IdentityESt8equal_toIcESt4hashIcENS1_18_Mod_range_hashingENS1_20_Default_ranged_hashENS1_20_Prime_rehash_policyENS1_17_Hashtable_traitsILb0ELb1ELb1EEEEC5Ev,comdat
	.align	2
	.weak	_ZNSt10_HashtableIccSaIcENSt8__detail9_IdentityESt8equal_toIcESt4hashIcENS1_18_Mod_range_hashingENS1_20_Default_ranged_hashENS1_20_Prime_rehash_policyENS1_17_Hashtable_traitsILb0ELb1ELb1EEEEC2Ev
	.type	_ZNSt10_HashtableIccSaIcENSt8__detail9_IdentityESt8equal_toIcESt4hashIcENS1_18_Mod_range_hashingENS1_20_Default_ranged_hashENS1_20_Prime_rehash_policyENS1_17_Hashtable_traitsILb0ELb1ELb1EEEEC2Ev, %function
_ZNSt10_HashtableIccSaIcENSt8__detail9_IdentityESt8equal_toIcESt4hashIcENS1_18_Mod_range_hashingENS1_20_Default_ranged_hashENS1_20_Prime_rehash_policyENS1_17_Hashtable_traitsILb0ELb1ELb1EEEEC2Ev:
.LFB2469:
	.cfi_startproc
	stp	x29, x30, [sp, -32]!
	.cfi_def_cfa_offset 32
	.cfi_offset 29, -32
	.cfi_offset 30, -24
	mov	x29, sp
	str	x0, [sp, 24]
	ldr	x0, [sp, 24]
	bl	_ZNSt8__detail15_Hashtable_baseIccNS_9_IdentityESt8equal_toIcESt4hashIcENS_18_Mod_range_hashingENS_20_Default_ranged_hashENS_17_Hashtable_traitsILb0ELb1ELb1EEEEC2Ev
	ldr	x0, [sp, 24]
	bl	_ZNSt8__detail16_Hashtable_allocISaINS_10_Hash_nodeIcLb0EEEEEC2Ev
	ldr	x0, [sp, 24]
	add	x1, x0, 48
	ldr	x0, [sp, 24]
	str	x1, [x0]
	ldr	x0, [sp, 24]
	mov	x1, 1
	str	x1, [x0, 8]
	ldr	x0, [sp, 24]
	add	x0, x0, 16
	bl	_ZNSt8__detail15_Hash_node_baseC1Ev
	ldr	x0, [sp, 24]
	str	xzr, [x0, 24]
	ldr	x0, [sp, 24]
	add	x0, x0, 32
	fmov	s0, 1.0e+0
	bl	_ZNSt8__detail20_Prime_rehash_policyC1Ef
	ldr	x0, [sp, 24]
	str	xzr, [x0, 48]
	nop
	ldp	x29, x30, [sp], 32
	.cfi_restore 30
	.cfi_restore 29
	.cfi_def_cfa_offset 0
	ret
	.cfi_endproc
.LFE2469:
	.size	_ZNSt10_HashtableIccSaIcENSt8__detail9_IdentityESt8equal_toIcESt4hashIcENS1_18_Mod_range_hashingENS1_20_Default_ranged_hashENS1_20_Prime_rehash_policyENS1_17_Hashtable_traitsILb0ELb1ELb1EEEEC2Ev, .-_ZNSt10_HashtableIccSaIcENSt8__detail9_IdentityESt8equal_toIcESt4hashIcENS1_18_Mod_range_hashingENS1_20_Default_ranged_hashENS1_20_Prime_rehash_policyENS1_17_Hashtable_traitsILb0ELb1ELb1EEEEC2Ev
	.weak	_ZNSt10_HashtableIccSaIcENSt8__detail9_IdentityESt8equal_toIcESt4hashIcENS1_18_Mod_range_hashingENS1_20_Default_ranged_hashENS1_20_Prime_rehash_policyENS1_17_Hashtable_traitsILb0ELb1ELb1EEEEC1Ev
	.set	_ZNSt10_HashtableIccSaIcENSt8__detail9_IdentityESt8equal_toIcESt4hashIcENS1_18_Mod_range_hashingENS1_20_Default_ranged_hashENS1_20_Prime_rehash_policyENS1_17_Hashtable_traitsILb0ELb1ELb1EEEEC1Ev,_ZNSt10_HashtableIccSaIcENSt8__detail9_IdentityESt8equal_toIcESt4hashIcENS1_18_Mod_range_hashingENS1_20_Default_ranged_hashENS1_20_Prime_rehash_policyENS1_17_Hashtable_traitsILb0ELb1ELb1EEEEC2Ev
	.section	.text._ZNSt13unordered_setIcSt4hashIcESt8equal_toIcESaIcEEC2Ev,"axG",@progbits,_ZNSt13unordered_setIcSt4hashIcESt8equal_toIcESaIcEEC5Ev,comdat
	.align	2
	.weak	_ZNSt13unordered_setIcSt4hashIcESt8equal_toIcESaIcEEC2Ev
	.type	_ZNSt13unordered_setIcSt4hashIcESt8equal_toIcESaIcEEC2Ev, %function
_ZNSt13unordered_setIcSt4hashIcESt8equal_toIcESaIcEEC2Ev:
.LFB2471:
	.cfi_startproc
	stp	x29, x30, [sp, -32]!
	.cfi_def_cfa_offset 32
	.cfi_offset 29, -32
	.cfi_offset 30, -24
	mov	x29, sp
	str	x0, [sp, 24]
	ldr	x0, [sp, 24]
	bl	_ZNSt10_HashtableIccSaIcENSt8__detail9_IdentityESt8equal_toIcESt4hashIcENS1_18_Mod_range_hashingENS1_20_Default_ranged_hashENS1_20_Prime_rehash_policyENS1_17_Hashtable_traitsILb0ELb1ELb1EEEEC1Ev
	nop
	ldp	x29, x30, [sp], 32
	.cfi_restore 30
	.cfi_restore 29
	.cfi_def_cfa_offset 0
	ret
	.cfi_endproc
.LFE2471:
	.size	_ZNSt13unordered_setIcSt4hashIcESt8equal_toIcESaIcEEC2Ev, .-_ZNSt13unordered_setIcSt4hashIcESt8equal_toIcESaIcEEC2Ev
	.weak	_ZNSt13unordered_setIcSt4hashIcESt8equal_toIcESaIcEEC1Ev
	.set	_ZNSt13unordered_setIcSt4hashIcESt8equal_toIcESaIcEEC1Ev,_ZNSt13unordered_setIcSt4hashIcESt8equal_toIcESaIcEEC2Ev
	.section	.text._ZNSt13unordered_setIcSt4hashIcESt8equal_toIcESaIcEED2Ev,"axG",@progbits,_ZNSt13unordered_setIcSt4hashIcESt8equal_toIcESaIcEED5Ev,comdat
	.align	2
	.weak	_ZNSt13unordered_setIcSt4hashIcESt8equal_toIcESaIcEED2Ev
	.type	_ZNSt13unordered_setIcSt4hashIcESt8equal_toIcESaIcEED2Ev, %function
_ZNSt13unordered_setIcSt4hashIcESt8equal_toIcESaIcEED2Ev:
.LFB2474:
	.cfi_startproc
	stp	x29, x30, [sp, -32]!
	.cfi_def_cfa_offset 32
	.cfi_offset 29, -32
	.cfi_offset 30, -24
	mov	x29, sp
	str	x0, [sp, 24]
	ldr	x0, [sp, 24]
	bl	_ZNSt10_HashtableIccSaIcENSt8__detail9_IdentityESt8equal_toIcESt4hashIcENS1_18_Mod_range_hashingENS1_20_Default_ranged_hashENS1_20_Prime_rehash_policyENS1_17_Hashtable_traitsILb0ELb1ELb1EEEED1Ev
	nop
	ldp	x29, x30, [sp], 32
	.cfi_restore 30
	.cfi_restore 29
	.cfi_def_cfa_offset 0
	ret
	.cfi_endproc
.LFE2474:
	.size	_ZNSt13unordered_setIcSt4hashIcESt8equal_toIcESaIcEED2Ev, .-_ZNSt13unordered_setIcSt4hashIcESt8equal_toIcESaIcEED2Ev
	.weak	_ZNSt13unordered_setIcSt4hashIcESt8equal_toIcESaIcEED1Ev
	.set	_ZNSt13unordered_setIcSt4hashIcESt8equal_toIcESaIcEED1Ev,_ZNSt13unordered_setIcSt4hashIcESt8equal_toIcESaIcEED2Ev
	.section	.rodata
	.align	3
.LC0:
	.string	"asdfg"
	.text
	.align	2
	.global	main
	.type	main, %function
main:
.LFB2447:
	.cfi_startproc
	.cfi_personality 0x9b,DW.ref.__gxx_personality_v0
	.cfi_lsda 0x1b,.LLSDA2447
	stp	x29, x30, [sp, -144]!
	.cfi_def_cfa_offset 144
	.cfi_offset 29, -144
	.cfi_offset 30, -136
	mov	x29, sp
	str	x19, [sp, 16]
	.cfi_offset 19, -128
	str	w0, [sp, 44]
	str	x1, [sp, 32]
	adrp	x0, :got:__stack_chk_guard
	ldr	x0, [x0, #:got_lo12:__stack_chk_guard]
	ldr	x1, [x0]
	str	x1, [sp, 136]
	mov	x1, 0
	add	x0, sp, 48
	bl	_ZNSaIcEC1Ev
	add	x0, sp, 48
	add	x3, sp, 104
	mov	x2, x0
	adrp	x0, .LC0
	add	x1, x0, :lo12:.LC0
	mov	x0, x3
.LEHB0:
	bl	_ZNSt7__cxx1112basic_stringIcSt11char_traitsIcESaIcEEC1IS3_EEPKcRKS3_
.LEHE0:
	add	x0, sp, 48
	bl	_ZNSaIcED1Ev
	add	x0, sp, 48
	bl	_ZNSt13unordered_setIcSt4hashIcESt8equal_toIcESaIcEEC1Ev
	mov	w19, 0
	add	x0, sp, 48
	bl	_ZNSt13unordered_setIcSt4hashIcESt8equal_toIcESaIcEED1Ev
	add	x0, sp, 104
	bl	_ZNSt7__cxx1112basic_stringIcSt11char_traitsIcESaIcEED1Ev
	mov	w1, w19
	adrp	x0, :got:__stack_chk_guard
	ldr	x0, [x0, #:got_lo12:__stack_chk_guard]
	ldr	x3, [sp, 136]
	ldr	x2, [x0]
	subs	x3, x3, x2
	mov	x2, 0
	beq	.L18
	b	.L20
.L19:
	mov	x19, x0
	add	x0, sp, 48
	bl	_ZNSaIcED1Ev
	mov	x0, x19
.LEHB1:
	bl	_Unwind_Resume
.LEHE1:
.L20:
	bl	__stack_chk_fail
.L18:
	mov	w0, w1
	ldr	x19, [sp, 16]
	ldp	x29, x30, [sp], 144
	.cfi_restore 30
	.cfi_restore 29
	.cfi_restore 19
	.cfi_def_cfa_offset 0
	ret
	.cfi_endproc
.LFE2447:
	.global	__gxx_personality_v0
	.section	.gcc_except_table,"a",@progbits
.LLSDA2447:
	.byte	0xff
	.byte	0xff
	.byte	0x1
	.uleb128 .LLSDACSE2447-.LLSDACSB2447
.LLSDACSB2447:
	.uleb128 .LEHB0-.LFB2447
	.uleb128 .LEHE0-.LEHB0
	.uleb128 .L19-.LFB2447
	.uleb128 0
	.uleb128 .LEHB1-.LFB2447
	.uleb128 .LEHE1-.LEHB1
	.uleb128 0
	.uleb128 0
.LLSDACSE2447:
	.text
	.size	main, .-main
	.section	.text._ZN9__gnu_cxx11char_traitsIcE2eqERKcS3_,"axG",@progbits,_ZN9__gnu_cxx11char_traitsIcE2eqERKcS3_,comdat
	.align	2
	.weak	_ZN9__gnu_cxx11char_traitsIcE2eqERKcS3_
	.type	_ZN9__gnu_cxx11char_traitsIcE2eqERKcS3_, %function
_ZN9__gnu_cxx11char_traitsIcE2eqERKcS3_:
.LFB2477:
	.cfi_startproc
	sub	sp, sp, #16
	.cfi_def_cfa_offset 16
	str	x0, [sp, 8]
	str	x1, [sp]
	ldr	x0, [sp, 8]
	ldrb	w1, [x0]
	ldr	x0, [sp]
	ldrb	w0, [x0]
	cmp	w1, w0
	cset	w0, eq
	and	w0, w0, 255
	add	sp, sp, 16
	.cfi_def_cfa_offset 0
	ret
	.cfi_endproc
.LFE2477:
	.size	_ZN9__gnu_cxx11char_traitsIcE2eqERKcS3_, .-_ZN9__gnu_cxx11char_traitsIcE2eqERKcS3_
	.section	.text._ZN9__gnu_cxx11char_traitsIcE6lengthEPKc,"axG",@progbits,_ZN9__gnu_cxx11char_traitsIcE6lengthEPKc,comdat
	.align	2
	.weak	_ZN9__gnu_cxx11char_traitsIcE6lengthEPKc
	.type	_ZN9__gnu_cxx11char_traitsIcE6lengthEPKc, %function
_ZN9__gnu_cxx11char_traitsIcE6lengthEPKc:
.LFB2476:
	.cfi_startproc
	stp	x29, x30, [sp, -64]!
	.cfi_def_cfa_offset 64
	.cfi_offset 29, -64
	.cfi_offset 30, -56
	mov	x29, sp
	str	x0, [sp, 24]
	adrp	x0, :got:__stack_chk_guard
	ldr	x0, [x0, #:got_lo12:__stack_chk_guard]
	ldr	x1, [x0]
	str	x1, [sp, 56]
	mov	x1, 0
	str	xzr, [sp, 48]
	b	.L24
.L25:
	ldr	x0, [sp, 48]
	add	x0, x0, 1
	str	x0, [sp, 48]
.L24:
	ldr	x1, [sp, 24]
	ldr	x0, [sp, 48]
	add	x0, x1, x0
	strb	wzr, [sp, 47]
	add	x1, sp, 47
	bl	_ZN9__gnu_cxx11char_traitsIcE2eqERKcS3_
	and	w0, w0, 255
	eor	w0, w0, 1
	and	w0, w0, 255
	cmp	w0, 0
	bne	.L25
	ldr	x0, [sp, 48]
	mov	x1, x0
	adrp	x0, :got:__stack_chk_guard
	ldr	x0, [x0, #:got_lo12:__stack_chk_guard]
	ldr	x3, [sp, 56]
	ldr	x2, [x0]
	subs	x3, x3, x2
	mov	x2, 0
	beq	.L27
	bl	__stack_chk_fail
.L27:
	mov	x0, x1
	ldp	x29, x30, [sp], 64
	.cfi_restore 30
	.cfi_restore 29
	.cfi_def_cfa_offset 0
	ret
	.cfi_endproc
.LFE2476:
	.size	_ZN9__gnu_cxx11char_traitsIcE6lengthEPKc, .-_ZN9__gnu_cxx11char_traitsIcE6lengthEPKc
	.section	.text._ZNSt7__cxx1112basic_stringIcSt11char_traitsIcESaIcEE12_Alloc_hiderD2Ev,"axG",@progbits,_ZNSt7__cxx1112basic_stringIcSt11char_traitsIcESaIcEE12_Alloc_hiderD5Ev,comdat
	.align	2
	.weak	_ZNSt7__cxx1112basic_stringIcSt11char_traitsIcESaIcEE12_Alloc_hiderD2Ev
	.type	_ZNSt7__cxx1112basic_stringIcSt11char_traitsIcESaIcEE12_Alloc_hiderD2Ev, %function
_ZNSt7__cxx1112basic_stringIcSt11char_traitsIcESaIcEE12_Alloc_hiderD2Ev:
.LFB2584:
	.cfi_startproc
	stp	x29, x30, [sp, -32]!
	.cfi_def_cfa_offset 32
	.cfi_offset 29, -32
	.cfi_offset 30, -24
	mov	x29, sp
	str	x0, [sp, 24]
	ldr	x0, [sp, 24]
	bl	_ZNSaIcED2Ev
	nop
	ldp	x29, x30, [sp], 32
	.cfi_restore 30
	.cfi_restore 29
	.cfi_def_cfa_offset 0
	ret
	.cfi_endproc
.LFE2584:
	.size	_ZNSt7__cxx1112basic_stringIcSt11char_traitsIcESaIcEE12_Alloc_hiderD2Ev, .-_ZNSt7__cxx1112basic_stringIcSt11char_traitsIcESaIcEE12_Alloc_hiderD2Ev
	.weak	_ZNSt7__cxx1112basic_stringIcSt11char_traitsIcESaIcEE12_Alloc_hiderD1Ev
	.set	_ZNSt7__cxx1112basic_stringIcSt11char_traitsIcESaIcEE12_Alloc_hiderD1Ev,_ZNSt7__cxx1112basic_stringIcSt11char_traitsIcESaIcEE12_Alloc_hiderD2Ev
	.section	.text._ZNSt7__cxx1112basic_stringIcSt11char_traitsIcESaIcEEC2IS3_EEPKcRKS3_,"axG",@progbits,_ZNSt7__cxx1112basic_stringIcSt11char_traitsIcESaIcEEC5IS3_EEPKcRKS3_,comdat
	.align	2
	.weak	_ZNSt7__cxx1112basic_stringIcSt11char_traitsIcESaIcEEC2IS3_EEPKcRKS3_
	.type	_ZNSt7__cxx1112basic_stringIcSt11char_traitsIcESaIcEEC2IS3_EEPKcRKS3_, %function
_ZNSt7__cxx1112basic_stringIcSt11char_traitsIcESaIcEEC2IS3_EEPKcRKS3_:
.LFB2745:
	.cfi_startproc
	.cfi_personality 0x9b,DW.ref.__gxx_personality_v0
	.cfi_lsda 0x1b,.LLSDA2745
	stp	x29, x30, [sp, -96]!
	.cfi_def_cfa_offset 96
	.cfi_offset 29, -96
	.cfi_offset 30, -88
	mov	x29, sp
	stp	x19, x20, [sp, 16]
	.cfi_offset 19, -80
	.cfi_offset 20, -72
	str	x0, [sp, 56]
	str	x1, [sp, 48]
	str	x2, [sp, 40]
	adrp	x0, :got:__stack_chk_guard
	ldr	x0, [x0, #:got_lo12:__stack_chk_guard]
	ldr	x1, [x0]
	str	x1, [sp, 88]
	mov	x1, 0
	ldr	x19, [sp, 56]
	ldr	x0, [sp, 56]
.LEHB2:
	bl	_ZNSt7__cxx1112basic_stringIcSt11char_traitsIcESaIcEE13_M_local_dataEv
	ldr	x2, [sp, 40]
	mov	x1, x0
	mov	x0, x19
	bl	_ZNSt7__cxx1112basic_stringIcSt11char_traitsIcESaIcEE12_Alloc_hiderC1EPcRKS3_
.LEHE2:
	ldr	x0, [sp, 48]
	cmp	x0, 0
	beq	.L30
	ldr	x0, [sp, 48]
.LEHB3:
	bl	_ZNSt11char_traitsIcE6lengthEPKc
	mov	x1, x0
	ldr	x0, [sp, 48]
	add	x0, x0, x1
	b	.L31
.L30:
	mov	x0, 1
.L31:
	str	x0, [sp, 80]
	mov	w3, w20
	ldr	x2, [sp, 80]
	ldr	x1, [sp, 48]
	ldr	x0, [sp, 56]
	bl	_ZNSt7__cxx1112basic_stringIcSt11char_traitsIcESaIcEE12_M_constructIPKcEEvT_S8_St20forward_iterator_tag
.LEHE3:
	b	.L35
.L34:
	mov	x19, x0
	ldr	x0, [sp, 56]
	bl	_ZNSt7__cxx1112basic_stringIcSt11char_traitsIcESaIcEE12_Alloc_hiderD1Ev
	mov	x0, x19
.LEHB4:
	bl	_Unwind_Resume
.LEHE4:
.L35:
	adrp	x0, :got:__stack_chk_guard
	ldr	x0, [x0, #:got_lo12:__stack_chk_guard]
	ldr	x2, [sp, 88]
	ldr	x1, [x0]
	subs	x2, x2, x1
	mov	x1, 0
	beq	.L33
	bl	__stack_chk_fail
.L33:
	ldp	x19, x20, [sp, 16]
	ldp	x29, x30, [sp], 96
	.cfi_restore 30
	.cfi_restore 29
	.cfi_restore 19
	.cfi_restore 20
	.cfi_def_cfa_offset 0
	ret
	.cfi_endproc
.LFE2745:
	.section	.gcc_except_table
.LLSDA2745:
	.byte	0xff
	.byte	0xff
	.byte	0x1
	.uleb128 .LLSDACSE2745-.LLSDACSB2745
.LLSDACSB2745:
	.uleb128 .LEHB2-.LFB2745
	.uleb128 .LEHE2-.LEHB2
	.uleb128 0
	.uleb128 0
	.uleb128 .LEHB3-.LFB2745
	.uleb128 .LEHE3-.LEHB3
	.uleb128 .L34-.LFB2745
	.uleb128 0
	.uleb128 .LEHB4-.LFB2745
	.uleb128 .LEHE4-.LEHB4
	.uleb128 0
	.uleb128 0
.LLSDACSE2745:
	.section	.text._ZNSt7__cxx1112basic_stringIcSt11char_traitsIcESaIcEEC2IS3_EEPKcRKS3_,"axG",@progbits,_ZNSt7__cxx1112basic_stringIcSt11char_traitsIcESaIcEEC5IS3_EEPKcRKS3_,comdat
	.size	_ZNSt7__cxx1112basic_stringIcSt11char_traitsIcESaIcEEC2IS3_EEPKcRKS3_, .-_ZNSt7__cxx1112basic_stringIcSt11char_traitsIcESaIcEEC2IS3_EEPKcRKS3_
	.weak	_ZNSt7__cxx1112basic_stringIcSt11char_traitsIcESaIcEEC1IS3_EEPKcRKS3_
	.set	_ZNSt7__cxx1112basic_stringIcSt11char_traitsIcESaIcEEC1IS3_EEPKcRKS3_,_ZNSt7__cxx1112basic_stringIcSt11char_traitsIcESaIcEEC2IS3_EEPKcRKS3_
	.section	.text._ZNSt8__detail21_Hashtable_ebo_helperILi1ESt4hashIcELb1EEC2Ev,"axG",@progbits,_ZNSt8__detail21_Hashtable_ebo_helperILi1ESt4hashIcELb1EEC5Ev,comdat
	.align	2
	.weak	_ZNSt8__detail21_Hashtable_ebo_helperILi1ESt4hashIcELb1EEC2Ev
	.type	_ZNSt8__detail21_Hashtable_ebo_helperILi1ESt4hashIcELb1EEC2Ev, %function
_ZNSt8__detail21_Hashtable_ebo_helperILi1ESt4hashIcELb1EEC2Ev:
.LFB2748:
	.cfi_startproc
	sub	sp, sp, #16
	.cfi_def_cfa_offset 16
	str	x0, [sp, 8]
	nop
	add	sp, sp, 16
	.cfi_def_cfa_offset 0
	ret
	.cfi_endproc
.LFE2748:
	.size	_ZNSt8__detail21_Hashtable_ebo_helperILi1ESt4hashIcELb1EEC2Ev, .-_ZNSt8__detail21_Hashtable_ebo_helperILi1ESt4hashIcELb1EEC2Ev
	.weak	_ZNSt8__detail21_Hashtable_ebo_helperILi1ESt4hashIcELb1EEC1Ev
	.set	_ZNSt8__detail21_Hashtable_ebo_helperILi1ESt4hashIcELb1EEC1Ev,_ZNSt8__detail21_Hashtable_ebo_helperILi1ESt4hashIcELb1EEC2Ev
	.section	.text._ZNSt8__detail21_Hashtable_ebo_helperILi0ESt8equal_toIcELb1EEC2Ev,"axG",@progbits,_ZNSt8__detail21_Hashtable_ebo_helperILi0ESt8equal_toIcELb1EEC5Ev,comdat
	.align	2
	.weak	_ZNSt8__detail21_Hashtable_ebo_helperILi0ESt8equal_toIcELb1EEC2Ev
	.type	_ZNSt8__detail21_Hashtable_ebo_helperILi0ESt8equal_toIcELb1EEC2Ev, %function
_ZNSt8__detail21_Hashtable_ebo_helperILi0ESt8equal_toIcELb1EEC2Ev:
.LFB2751:
	.cfi_startproc
	sub	sp, sp, #16
	.cfi_def_cfa_offset 16
	str	x0, [sp, 8]
	nop
	add	sp, sp, 16
	.cfi_def_cfa_offset 0
	ret
	.cfi_endproc
.LFE2751:
	.size	_ZNSt8__detail21_Hashtable_ebo_helperILi0ESt8equal_toIcELb1EEC2Ev, .-_ZNSt8__detail21_Hashtable_ebo_helperILi0ESt8equal_toIcELb1EEC2Ev
	.weak	_ZNSt8__detail21_Hashtable_ebo_helperILi0ESt8equal_toIcELb1EEC1Ev
	.set	_ZNSt8__detail21_Hashtable_ebo_helperILi0ESt8equal_toIcELb1EEC1Ev,_ZNSt8__detail21_Hashtable_ebo_helperILi0ESt8equal_toIcELb1EEC2Ev
	.section	.text._ZNSt8__detail21_Hashtable_ebo_helperILi0ESaINS_10_Hash_nodeIcLb0EEEELb1EEC2Ev,"axG",@progbits,_ZNSt8__detail21_Hashtable_ebo_helperILi0ESaINS_10_Hash_nodeIcLb0EEEELb1EEC5Ev,comdat
	.align	2
	.weak	_ZNSt8__detail21_Hashtable_ebo_helperILi0ESaINS_10_Hash_nodeIcLb0EEEELb1EEC2Ev
	.type	_ZNSt8__detail21_Hashtable_ebo_helperILi0ESaINS_10_Hash_nodeIcLb0EEEELb1EEC2Ev, %function
_ZNSt8__detail21_Hashtable_ebo_helperILi0ESaINS_10_Hash_nodeIcLb0EEEELb1EEC2Ev:
.LFB2754:
	.cfi_startproc
	stp	x29, x30, [sp, -32]!
	.cfi_def_cfa_offset 32
	.cfi_offset 29, -32
	.cfi_offset 30, -24
	mov	x29, sp
	str	x0, [sp, 24]
	ldr	x0, [sp, 24]
	bl	_ZNSaINSt8__detail10_Hash_nodeIcLb0EEEEC2Ev
	nop
	ldp	x29, x30, [sp], 32
	.cfi_restore 30
	.cfi_restore 29
	.cfi_def_cfa_offset 0
	ret
	.cfi_endproc
.LFE2754:
	.size	_ZNSt8__detail21_Hashtable_ebo_helperILi0ESaINS_10_Hash_nodeIcLb0EEEELb1EEC2Ev, .-_ZNSt8__detail21_Hashtable_ebo_helperILi0ESaINS_10_Hash_nodeIcLb0EEEELb1EEC2Ev
	.weak	_ZNSt8__detail21_Hashtable_ebo_helperILi0ESaINS_10_Hash_nodeIcLb0EEEELb1EEC1Ev
	.set	_ZNSt8__detail21_Hashtable_ebo_helperILi0ESaINS_10_Hash_nodeIcLb0EEEELb1EEC1Ev,_ZNSt8__detail21_Hashtable_ebo_helperILi0ESaINS_10_Hash_nodeIcLb0EEEELb1EEC2Ev
	.section	.text._ZNSaINSt8__detail10_Hash_nodeIcLb0EEEED2Ev,"axG",@progbits,_ZNSaINSt8__detail10_Hash_nodeIcLb0EEEED5Ev,comdat
	.align	2
	.weak	_ZNSaINSt8__detail10_Hash_nodeIcLb0EEEED2Ev
	.type	_ZNSaINSt8__detail10_Hash_nodeIcLb0EEEED2Ev, %function
_ZNSaINSt8__detail10_Hash_nodeIcLb0EEEED2Ev:
.LFB2757:
	.cfi_startproc
	stp	x29, x30, [sp, -32]!
	.cfi_def_cfa_offset 32
	.cfi_offset 29, -32
	.cfi_offset 30, -24
	mov	x29, sp
	str	x0, [sp, 24]
	ldr	x0, [sp, 24]
	bl	_ZN9__gnu_cxx13new_allocatorINSt8__detail10_Hash_nodeIcLb0EEEED2Ev
	nop
	ldp	x29, x30, [sp], 32
	.cfi_restore 30
	.cfi_restore 29
	.cfi_def_cfa_offset 0
	ret
	.cfi_endproc
.LFE2757:
	.size	_ZNSaINSt8__detail10_Hash_nodeIcLb0EEEED2Ev, .-_ZNSaINSt8__detail10_Hash_nodeIcLb0EEEED2Ev
	.weak	_ZNSaINSt8__detail10_Hash_nodeIcLb0EEEED1Ev
	.set	_ZNSaINSt8__detail10_Hash_nodeIcLb0EEEED1Ev,_ZNSaINSt8__detail10_Hash_nodeIcLb0EEEED2Ev
	.section	.text._ZNSt10_HashtableIccSaIcENSt8__detail9_IdentityESt8equal_toIcESt4hashIcENS1_18_Mod_range_hashingENS1_20_Default_ranged_hashENS1_20_Prime_rehash_policyENS1_17_Hashtable_traitsILb0ELb1ELb1EEEED2Ev,"axG",@progbits,_ZNSt10_HashtableIccSaIcENSt8__detail9_IdentityESt8equal_toIcESt4hashIcENS1_18_Mod_range_hashingENS1_20_Default_ranged_hashENS1_20_Prime_rehash_policyENS1_17_Hashtable_traitsILb0ELb1ELb1EEEED5Ev,comdat
	.align	2
	.weak	_ZNSt10_HashtableIccSaIcENSt8__detail9_IdentityESt8equal_toIcESt4hashIcENS1_18_Mod_range_hashingENS1_20_Default_ranged_hashENS1_20_Prime_rehash_policyENS1_17_Hashtable_traitsILb0ELb1ELb1EEEED2Ev
	.type	_ZNSt10_HashtableIccSaIcENSt8__detail9_IdentityESt8equal_toIcESt4hashIcENS1_18_Mod_range_hashingENS1_20_Default_ranged_hashENS1_20_Prime_rehash_policyENS1_17_Hashtable_traitsILb0ELb1ELb1EEEED2Ev, %function
_ZNSt10_HashtableIccSaIcENSt8__detail9_IdentityESt8equal_toIcESt4hashIcENS1_18_Mod_range_hashingENS1_20_Default_ranged_hashENS1_20_Prime_rehash_policyENS1_17_Hashtable_traitsILb0ELb1ELb1EEEED2Ev:
.LFB2760:
	.cfi_startproc
	.cfi_personality 0x9b,DW.ref.__gxx_personality_v0
	.cfi_lsda 0x1b,.LLSDA2760
	stp	x29, x30, [sp, -32]!
	.cfi_def_cfa_offset 32
	.cfi_offset 29, -32
	.cfi_offset 30, -24
	mov	x29, sp
	str	x0, [sp, 24]
	ldr	x0, [sp, 24]
	bl	_ZNSt10_HashtableIccSaIcENSt8__detail9_IdentityESt8equal_toIcESt4hashIcENS1_18_Mod_range_hashingENS1_20_Default_ranged_hashENS1_20_Prime_rehash_policyENS1_17_Hashtable_traitsILb0ELb1ELb1EEEE5clearEv
	ldr	x0, [sp, 24]
	bl	_ZNSt10_HashtableIccSaIcENSt8__detail9_IdentityESt8equal_toIcESt4hashIcENS1_18_Mod_range_hashingENS1_20_Default_ranged_hashENS1_20_Prime_rehash_policyENS1_17_Hashtable_traitsILb0ELb1ELb1EEEE21_M_deallocate_bucketsEv
	ldr	x0, [sp, 24]
	bl	_ZNSt8__detail16_Hashtable_allocISaINS_10_Hash_nodeIcLb0EEEEED2Ev
	nop
	ldp	x29, x30, [sp], 32
	.cfi_restore 30
	.cfi_restore 29
	.cfi_def_cfa_offset 0
	ret
	.cfi_endproc
.LFE2760:
	.section	.gcc_except_table
.LLSDA2760:
	.byte	0xff
	.byte	0xff
	.byte	0x1
	.uleb128 .LLSDACSE2760-.LLSDACSB2760
.LLSDACSB2760:
.LLSDACSE2760:
	.section	.text._ZNSt10_HashtableIccSaIcENSt8__detail9_IdentityESt8equal_toIcESt4hashIcENS1_18_Mod_range_hashingENS1_20_Default_ranged_hashENS1_20_Prime_rehash_policyENS1_17_Hashtable_traitsILb0ELb1ELb1EEEED2Ev,"axG",@progbits,_ZNSt10_HashtableIccSaIcENSt8__detail9_IdentityESt8equal_toIcESt4hashIcENS1_18_Mod_range_hashingENS1_20_Default_ranged_hashENS1_20_Prime_rehash_policyENS1_17_Hashtable_traitsILb0ELb1ELb1EEEED5Ev,comdat
	.size	_ZNSt10_HashtableIccSaIcENSt8__detail9_IdentityESt8equal_toIcESt4hashIcENS1_18_Mod_range_hashingENS1_20_Default_ranged_hashENS1_20_Prime_rehash_policyENS1_17_Hashtable_traitsILb0ELb1ELb1EEEED2Ev, .-_ZNSt10_HashtableIccSaIcENSt8__detail9_IdentityESt8equal_toIcESt4hashIcENS1_18_Mod_range_hashingENS1_20_Default_ranged_hashENS1_20_Prime_rehash_policyENS1_17_Hashtable_traitsILb0ELb1ELb1EEEED2Ev
	.weak	_ZNSt10_HashtableIccSaIcENSt8__detail9_IdentityESt8equal_toIcESt4hashIcENS1_18_Mod_range_hashingENS1_20_Default_ranged_hashENS1_20_Prime_rehash_policyENS1_17_Hashtable_traitsILb0ELb1ELb1EEEED1Ev
	.set	_ZNSt10_HashtableIccSaIcENSt8__detail9_IdentityESt8equal_toIcESt4hashIcENS1_18_Mod_range_hashingENS1_20_Default_ranged_hashENS1_20_Prime_rehash_policyENS1_17_Hashtable_traitsILb0ELb1ELb1EEEED1Ev,_ZNSt10_HashtableIccSaIcENSt8__detail9_IdentityESt8equal_toIcESt4hashIcENS1_18_Mod_range_hashingENS1_20_Default_ranged_hashENS1_20_Prime_rehash_policyENS1_17_Hashtable_traitsILb0ELb1ELb1EEEED2Ev
	.section	.text._ZSt8distanceIPKcENSt15iterator_traitsIT_E15difference_typeES3_S3_,"axG",@progbits,_ZSt8distanceIPKcENSt15iterator_traitsIT_E15difference_typeES3_S3_,comdat
	.align	2
	.weak	_ZSt8distanceIPKcENSt15iterator_traitsIT_E15difference_typeES3_S3_
	.type	_ZSt8distanceIPKcENSt15iterator_traitsIT_E15difference_typeES3_S3_, %function
_ZSt8distanceIPKcENSt15iterator_traitsIT_E15difference_typeES3_S3_:
.LFB2842:
	.cfi_startproc
	stp	x29, x30, [sp, -48]!
	.cfi_def_cfa_offset 48
	.cfi_offset 29, -48
	.cfi_offset 30, -40
	mov	x29, sp
	stp	x19, x20, [sp, 16]
	.cfi_offset 19, -32
	.cfi_offset 20, -24
	str	x0, [sp, 40]
	str	x1, [sp, 32]
	ldr	x19, [sp, 40]
	add	x0, sp, 40
	bl	_ZSt19__iterator_categoryIPKcENSt15iterator_traitsIT_E17iterator_categoryERKS3_
	mov	w2, w20
	ldr	x1, [sp, 32]
	mov	x0, x19
	bl	_ZSt10__distanceIPKcENSt15iterator_traitsIT_E15difference_typeES3_S3_St26random_access_iterator_tag
	ldp	x19, x20, [sp, 16]
	ldp	x29, x30, [sp], 48
	.cfi_restore 30
	.cfi_restore 29
	.cfi_restore 19
	.cfi_restore 20
	.cfi_def_cfa_offset 0
	ret
	.cfi_endproc
.LFE2842:
	.size	_ZSt8distanceIPKcENSt15iterator_traitsIT_E15difference_typeES3_S3_, .-_ZSt8distanceIPKcENSt15iterator_traitsIT_E15difference_typeES3_S3_
	.section	.rodata
	.align	3
.LC1:
	.string	"basic_string::_M_construct null not valid"
	.section	.text._ZNSt7__cxx1112basic_stringIcSt11char_traitsIcESaIcEE12_M_constructIPKcEEvT_S8_St20forward_iterator_tag,"axG",@progbits,_ZNSt7__cxx1112basic_stringIcSt11char_traitsIcESaIcEE12_M_constructIPKcEEvT_S8_St20forward_iterator_tag,comdat
	.align	2
	.weak	_ZNSt7__cxx1112basic_stringIcSt11char_traitsIcESaIcEE12_M_constructIPKcEEvT_S8_St20forward_iterator_tag
	.type	_ZNSt7__cxx1112basic_stringIcSt11char_traitsIcESaIcEE12_M_constructIPKcEEvT_S8_St20forward_iterator_tag, %function
_ZNSt7__cxx1112basic_stringIcSt11char_traitsIcESaIcEE12_M_constructIPKcEEvT_S8_St20forward_iterator_tag:
.LFB2841:
	.cfi_startproc
	.cfi_personality 0x9b,DW.ref.__gxx_personality_v0
	.cfi_lsda 0x1b,.LLSDA2841
	stp	x29, x30, [sp, -80]!
	.cfi_def_cfa_offset 80
	.cfi_offset 29, -80
	.cfi_offset 30, -72
	mov	x29, sp
	str	x19, [sp, 16]
	.cfi_offset 19, -64
	str	x0, [sp, 56]
	str	x1, [sp, 48]
	str	x2, [sp, 40]
	strb	w3, [sp, 32]
	adrp	x0, :got:__stack_chk_guard
	ldr	x0, [x0, #:got_lo12:__stack_chk_guard]
	ldr	x1, [x0]
	str	x1, [sp, 72]
	mov	x1, 0
	ldr	x0, [sp, 48]
	bl	_ZN9__gnu_cxx17__is_null_pointerIKcEEbPT_
	and	w0, w0, 255
	cmp	w0, 0
	beq	.L44
	ldr	x1, [sp, 48]
	ldr	x0, [sp, 40]
	cmp	x1, x0
	beq	.L44
	mov	w0, 1
	b	.L45
.L44:
	mov	w0, 0
.L45:
	cmp	w0, 0
	beq	.L46
	adrp	x0, .LC1
	add	x0, x0, :lo12:.LC1
.LEHB5:
	bl	_ZSt19__throw_logic_errorPKc
.L46:
	ldr	x1, [sp, 40]
	ldr	x0, [sp, 48]
	bl	_ZSt8distanceIPKcENSt15iterator_traitsIT_E15difference_typeES3_S3_
	str	x0, [sp, 64]
	ldr	x0, [sp, 64]
	cmp	x0, 15
	bls	.L47
	add	x0, sp, 64
	mov	x2, 0
	mov	x1, x0
	ldr	x0, [sp, 56]
	bl	_ZNSt7__cxx1112basic_stringIcSt11char_traitsIcESaIcEE9_M_createERmm
	mov	x1, x0
	ldr	x0, [sp, 56]
	bl	_ZNSt7__cxx1112basic_stringIcSt11char_traitsIcESaIcEE7_M_dataEPc
	ldr	x0, [sp, 64]
	mov	x1, x0
	ldr	x0, [sp, 56]
	bl	_ZNSt7__cxx1112basic_stringIcSt11char_traitsIcESaIcEE11_M_capacityEm
.LEHE5:
.L47:
	ldr	x0, [sp, 56]
.LEHB6:
	bl	_ZNKSt7__cxx1112basic_stringIcSt11char_traitsIcESaIcEE7_M_dataEv
.LEHE6:
	ldr	x2, [sp, 40]
	ldr	x1, [sp, 48]
	bl	_ZNSt7__cxx1112basic_stringIcSt11char_traitsIcESaIcEE13_S_copy_charsEPcPKcS7_
	ldr	x0, [sp, 64]
	mov	x1, x0
	ldr	x0, [sp, 56]
.LEHB7:
	bl	_ZNSt7__cxx1112basic_stringIcSt11char_traitsIcESaIcEE13_M_set_lengthEm
.LEHE7:
	nop
	adrp	x0, :got:__stack_chk_guard
	ldr	x0, [x0, #:got_lo12:__stack_chk_guard]
	ldr	x2, [sp, 72]
	ldr	x1, [x0]
	subs	x2, x2, x1
	mov	x1, 0
	beq	.L50
	b	.L53
.L51:
	bl	__cxa_begin_catch
	ldr	x0, [sp, 56]
.LEHB8:
	bl	_ZNSt7__cxx1112basic_stringIcSt11char_traitsIcESaIcEE10_M_disposeEv
	bl	__cxa_rethrow
.LEHE8:
.L52:
	mov	x19, x0
	bl	__cxa_end_catch
	mov	x0, x19
.LEHB9:
	bl	_Unwind_Resume
.LEHE9:
.L53:
	bl	__stack_chk_fail
.L50:
	ldr	x19, [sp, 16]
	ldp	x29, x30, [sp], 80
	.cfi_restore 30
	.cfi_restore 29
	.cfi_restore 19
	.cfi_def_cfa_offset 0
	ret
	.cfi_endproc
.LFE2841:
	.section	.gcc_except_table
	.align	2
.LLSDA2841:
	.byte	0xff
	.byte	0x9b
	.uleb128 .LLSDATT2841-.LLSDATTD2841
.LLSDATTD2841:
	.byte	0x1
	.uleb128 .LLSDACSE2841-.LLSDACSB2841
.LLSDACSB2841:
	.uleb128 .LEHB5-.LFB2841
	.uleb128 .LEHE5-.LEHB5
	.uleb128 0
	.uleb128 0
	.uleb128 .LEHB6-.LFB2841
	.uleb128 .LEHE6-.LEHB6
	.uleb128 .L51-.LFB2841
	.uleb128 0x1
	.uleb128 .LEHB7-.LFB2841
	.uleb128 .LEHE7-.LEHB7
	.uleb128 0
	.uleb128 0
	.uleb128 .LEHB8-.LFB2841
	.uleb128 .LEHE8-.LEHB8
	.uleb128 .L52-.LFB2841
	.uleb128 0
	.uleb128 .LEHB9-.LFB2841
	.uleb128 .LEHE9-.LEHB9
	.uleb128 0
	.uleb128 0
.LLSDACSE2841:
	.byte	0x1
	.byte	0
	.align	2
	.4byte	0

.LLSDATT2841:
	.section	.text._ZNSt7__cxx1112basic_stringIcSt11char_traitsIcESaIcEE12_M_constructIPKcEEvT_S8_St20forward_iterator_tag,"axG",@progbits,_ZNSt7__cxx1112basic_stringIcSt11char_traitsIcESaIcEE12_M_constructIPKcEEvT_S8_St20forward_iterator_tag,comdat
	.size	_ZNSt7__cxx1112basic_stringIcSt11char_traitsIcESaIcEE12_M_constructIPKcEEvT_S8_St20forward_iterator_tag, .-_ZNSt7__cxx1112basic_stringIcSt11char_traitsIcESaIcEE12_M_constructIPKcEEvT_S8_St20forward_iterator_tag
	.section	.text._ZNSaINSt8__detail10_Hash_nodeIcLb0EEEEC2Ev,"axG",@progbits,_ZNSaINSt8__detail10_Hash_nodeIcLb0EEEEC5Ev,comdat
	.align	2
	.weak	_ZNSaINSt8__detail10_Hash_nodeIcLb0EEEEC2Ev
	.type	_ZNSaINSt8__detail10_Hash_nodeIcLb0EEEEC2Ev, %function
_ZNSaINSt8__detail10_Hash_nodeIcLb0EEEEC2Ev:
.LFB2844:
	.cfi_startproc
	stp	x29, x30, [sp, -32]!
	.cfi_def_cfa_offset 32
	.cfi_offset 29, -32
	.cfi_offset 30, -24
	mov	x29, sp
	str	x0, [sp, 24]
	ldr	x0, [sp, 24]
	bl	_ZN9__gnu_cxx13new_allocatorINSt8__detail10_Hash_nodeIcLb0EEEEC2Ev
	nop
	ldp	x29, x30, [sp], 32
	.cfi_restore 30
	.cfi_restore 29
	.cfi_def_cfa_offset 0
	ret
	.cfi_endproc
.LFE2844:
	.size	_ZNSaINSt8__detail10_Hash_nodeIcLb0EEEEC2Ev, .-_ZNSaINSt8__detail10_Hash_nodeIcLb0EEEEC2Ev
	.weak	_ZNSaINSt8__detail10_Hash_nodeIcLb0EEEEC1Ev
	.set	_ZNSaINSt8__detail10_Hash_nodeIcLb0EEEEC1Ev,_ZNSaINSt8__detail10_Hash_nodeIcLb0EEEEC2Ev
	.section	.text._ZN9__gnu_cxx13new_allocatorINSt8__detail10_Hash_nodeIcLb0EEEED2Ev,"axG",@progbits,_ZN9__gnu_cxx13new_allocatorINSt8__detail10_Hash_nodeIcLb0EEEED5Ev,comdat
	.align	2
	.weak	_ZN9__gnu_cxx13new_allocatorINSt8__detail10_Hash_nodeIcLb0EEEED2Ev
	.type	_ZN9__gnu_cxx13new_allocatorINSt8__detail10_Hash_nodeIcLb0EEEED2Ev, %function
_ZN9__gnu_cxx13new_allocatorINSt8__detail10_Hash_nodeIcLb0EEEED2Ev:
.LFB2847:
	.cfi_startproc
	sub	sp, sp, #16
	.cfi_def_cfa_offset 16
	str	x0, [sp, 8]
	nop
	add	sp, sp, 16
	.cfi_def_cfa_offset 0
	ret
	.cfi_endproc
.LFE2847:
	.size	_ZN9__gnu_cxx13new_allocatorINSt8__detail10_Hash_nodeIcLb0EEEED2Ev, .-_ZN9__gnu_cxx13new_allocatorINSt8__detail10_Hash_nodeIcLb0EEEED2Ev
	.weak	_ZN9__gnu_cxx13new_allocatorINSt8__detail10_Hash_nodeIcLb0EEEED1Ev
	.set	_ZN9__gnu_cxx13new_allocatorINSt8__detail10_Hash_nodeIcLb0EEEED1Ev,_ZN9__gnu_cxx13new_allocatorINSt8__detail10_Hash_nodeIcLb0EEEED2Ev
	.section	.text._ZNSt10_HashtableIccSaIcENSt8__detail9_IdentityESt8equal_toIcESt4hashIcENS1_18_Mod_range_hashingENS1_20_Default_ranged_hashENS1_20_Prime_rehash_policyENS1_17_Hashtable_traitsILb0ELb1ELb1EEEE5clearEv,"axG",@progbits,_ZNSt10_HashtableIccSaIcENSt8__detail9_IdentityESt8equal_toIcESt4hashIcENS1_18_Mod_range_hashingENS1_20_Default_ranged_hashENS1_20_Prime_rehash_policyENS1_17_Hashtable_traitsILb0ELb1ELb1EEEE5clearEv,comdat
	.align	2
	.weak	_ZNSt10_HashtableIccSaIcENSt8__detail9_IdentityESt8equal_toIcESt4hashIcENS1_18_Mod_range_hashingENS1_20_Default_ranged_hashENS1_20_Prime_rehash_policyENS1_17_Hashtable_traitsILb0ELb1ELb1EEEE5clearEv
	.type	_ZNSt10_HashtableIccSaIcENSt8__detail9_IdentityESt8equal_toIcESt4hashIcENS1_18_Mod_range_hashingENS1_20_Default_ranged_hashENS1_20_Prime_rehash_policyENS1_17_Hashtable_traitsILb0ELb1ELb1EEEE5clearEv, %function
_ZNSt10_HashtableIccSaIcENSt8__detail9_IdentityESt8equal_toIcESt4hashIcENS1_18_Mod_range_hashingENS1_20_Default_ranged_hashENS1_20_Prime_rehash_policyENS1_17_Hashtable_traitsILb0ELb1ELb1EEEE5clearEv:
.LFB2849:
	.cfi_startproc
	.cfi_personality 0x9b,DW.ref.__gxx_personality_v0
	.cfi_lsda 0x1b,.LLSDA2849
	stp	x29, x30, [sp, -32]!
	.cfi_def_cfa_offset 32
	.cfi_offset 29, -32
	.cfi_offset 30, -24
	mov	x29, sp
	str	x0, [sp, 24]
	ldr	x0, [sp, 24]
	bl	_ZNKSt10_HashtableIccSaIcENSt8__detail9_IdentityESt8equal_toIcESt4hashIcENS1_18_Mod_range_hashingENS1_20_Default_ranged_hashENS1_20_Prime_rehash_policyENS1_17_Hashtable_traitsILb0ELb1ELb1EEEE8_M_beginEv
	mov	x1, x0
	ldr	x0, [sp, 24]
	bl	_ZNSt8__detail16_Hashtable_allocISaINS_10_Hash_nodeIcLb0EEEEE19_M_deallocate_nodesEPS2_
	ldr	x0, [sp, 24]
	ldr	x1, [x0]
	ldr	x0, [sp, 24]
	ldr	x0, [x0, 8]
	lsl	x0, x0, 3
	mov	x3, x1
	mov	x2, x0
	mov	w1, 0
	mov	x0, x3
	bl	memset
	ldr	x0, [sp, 24]
	str	xzr, [x0, 24]
	ldr	x0, [sp, 24]
	str	xzr, [x0, 16]
	nop
	ldp	x29, x30, [sp], 32
	.cfi_restore 30
	.cfi_restore 29
	.cfi_def_cfa_offset 0
	ret
	.cfi_endproc
.LFE2849:
	.section	.gcc_except_table
.LLSDA2849:
	.byte	0xff
	.byte	0xff
	.byte	0x1
	.uleb128 .LLSDACSE2849-.LLSDACSB2849
.LLSDACSB2849:
.LLSDACSE2849:
	.section	.text._ZNSt10_HashtableIccSaIcENSt8__detail9_IdentityESt8equal_toIcESt4hashIcENS1_18_Mod_range_hashingENS1_20_Default_ranged_hashENS1_20_Prime_rehash_policyENS1_17_Hashtable_traitsILb0ELb1ELb1EEEE5clearEv,"axG",@progbits,_ZNSt10_HashtableIccSaIcENSt8__detail9_IdentityESt8equal_toIcESt4hashIcENS1_18_Mod_range_hashingENS1_20_Default_ranged_hashENS1_20_Prime_rehash_policyENS1_17_Hashtable_traitsILb0ELb1ELb1EEEE5clearEv,comdat
	.size	_ZNSt10_HashtableIccSaIcENSt8__detail9_IdentityESt8equal_toIcESt4hashIcENS1_18_Mod_range_hashingENS1_20_Default_ranged_hashENS1_20_Prime_rehash_policyENS1_17_Hashtable_traitsILb0ELb1ELb1EEEE5clearEv, .-_ZNSt10_HashtableIccSaIcENSt8__detail9_IdentityESt8equal_toIcESt4hashIcENS1_18_Mod_range_hashingENS1_20_Default_ranged_hashENS1_20_Prime_rehash_policyENS1_17_Hashtable_traitsILb0ELb1ELb1EEEE5clearEv
	.section	.text._ZNSt10_HashtableIccSaIcENSt8__detail9_IdentityESt8equal_toIcESt4hashIcENS1_18_Mod_range_hashingENS1_20_Default_ranged_hashENS1_20_Prime_rehash_policyENS1_17_Hashtable_traitsILb0ELb1ELb1EEEE21_M_deallocate_bucketsEv,"axG",@progbits,_ZNSt10_HashtableIccSaIcENSt8__detail9_IdentityESt8equal_toIcESt4hashIcENS1_18_Mod_range_hashingENS1_20_Default_ranged_hashENS1_20_Prime_rehash_policyENS1_17_Hashtable_traitsILb0ELb1ELb1EEEE21_M_deallocate_bucketsEv,comdat
	.align	2
	.weak	_ZNSt10_HashtableIccSaIcENSt8__detail9_IdentityESt8equal_toIcESt4hashIcENS1_18_Mod_range_hashingENS1_20_Default_ranged_hashENS1_20_Prime_rehash_policyENS1_17_Hashtable_traitsILb0ELb1ELb1EEEE21_M_deallocate_bucketsEv
	.type	_ZNSt10_HashtableIccSaIcENSt8__detail9_IdentityESt8equal_toIcESt4hashIcENS1_18_Mod_range_hashingENS1_20_Default_ranged_hashENS1_20_Prime_rehash_policyENS1_17_Hashtable_traitsILb0ELb1ELb1EEEE21_M_deallocate_bucketsEv, %function
_ZNSt10_HashtableIccSaIcENSt8__detail9_IdentityESt8equal_toIcESt4hashIcENS1_18_Mod_range_hashingENS1_20_Default_ranged_hashENS1_20_Prime_rehash_policyENS1_17_Hashtable_traitsILb0ELb1ELb1EEEE21_M_deallocate_bucketsEv:
.LFB2850:
	.cfi_startproc
	stp	x29, x30, [sp, -32]!
	.cfi_def_cfa_offset 32
	.cfi_offset 29, -32
	.cfi_offset 30, -24
	mov	x29, sp
	str	x0, [sp, 24]
	ldr	x0, [sp, 24]
	ldr	x1, [x0]
	ldr	x0, [sp, 24]
	ldr	x0, [x0, 8]
	mov	x2, x0
	ldr	x0, [sp, 24]
	bl	_ZNSt10_HashtableIccSaIcENSt8__detail9_IdentityESt8equal_toIcESt4hashIcENS1_18_Mod_range_hashingENS1_20_Default_ranged_hashENS1_20_Prime_rehash_policyENS1_17_Hashtable_traitsILb0ELb1ELb1EEEE21_M_deallocate_bucketsEPPNS1_15_Hash_node_baseEm
	nop
	ldp	x29, x30, [sp], 32
	.cfi_restore 30
	.cfi_restore 29
	.cfi_def_cfa_offset 0
	ret
	.cfi_endproc
.LFE2850:
	.size	_ZNSt10_HashtableIccSaIcENSt8__detail9_IdentityESt8equal_toIcESt4hashIcENS1_18_Mod_range_hashingENS1_20_Default_ranged_hashENS1_20_Prime_rehash_policyENS1_17_Hashtable_traitsILb0ELb1ELb1EEEE21_M_deallocate_bucketsEv, .-_ZNSt10_HashtableIccSaIcENSt8__detail9_IdentityESt8equal_toIcESt4hashIcENS1_18_Mod_range_hashingENS1_20_Default_ranged_hashENS1_20_Prime_rehash_policyENS1_17_Hashtable_traitsILb0ELb1ELb1EEEE21_M_deallocate_bucketsEv
	.section	.text._ZN9__gnu_cxx17__is_null_pointerIKcEEbPT_,"axG",@progbits,_ZN9__gnu_cxx17__is_null_pointerIKcEEbPT_,comdat
	.align	2
	.weak	_ZN9__gnu_cxx17__is_null_pointerIKcEEbPT_
	.type	_ZN9__gnu_cxx17__is_null_pointerIKcEEbPT_, %function
_ZN9__gnu_cxx17__is_null_pointerIKcEEbPT_:
.LFB2885:
	.cfi_startproc
	sub	sp, sp, #16
	.cfi_def_cfa_offset 16
	str	x0, [sp, 8]
	ldr	x0, [sp, 8]
	cmp	x0, 0
	cset	w0, eq
	and	w0, w0, 255
	add	sp, sp, 16
	.cfi_def_cfa_offset 0
	ret
	.cfi_endproc
.LFE2885:
	.size	_ZN9__gnu_cxx17__is_null_pointerIKcEEbPT_, .-_ZN9__gnu_cxx17__is_null_pointerIKcEEbPT_
	.section	.text._ZSt19__iterator_categoryIPKcENSt15iterator_traitsIT_E17iterator_categoryERKS3_,"axG",@progbits,_ZSt19__iterator_categoryIPKcENSt15iterator_traitsIT_E17iterator_categoryERKS3_,comdat
	.align	2
	.weak	_ZSt19__iterator_categoryIPKcENSt15iterator_traitsIT_E17iterator_categoryERKS3_
	.type	_ZSt19__iterator_categoryIPKcENSt15iterator_traitsIT_E17iterator_categoryERKS3_, %function
_ZSt19__iterator_categoryIPKcENSt15iterator_traitsIT_E17iterator_categoryERKS3_:
.LFB2886:
	.cfi_startproc
	sub	sp, sp, #16
	.cfi_def_cfa_offset 16
	str	x0, [sp, 8]
	mov	w0, w1
	add	sp, sp, 16
	.cfi_def_cfa_offset 0
	ret
	.cfi_endproc
.LFE2886:
	.size	_ZSt19__iterator_categoryIPKcENSt15iterator_traitsIT_E17iterator_categoryERKS3_, .-_ZSt19__iterator_categoryIPKcENSt15iterator_traitsIT_E17iterator_categoryERKS3_
	.section	.text._ZSt10__distanceIPKcENSt15iterator_traitsIT_E15difference_typeES3_S3_St26random_access_iterator_tag,"axG",@progbits,_ZSt10__distanceIPKcENSt15iterator_traitsIT_E15difference_typeES3_S3_St26random_access_iterator_tag,comdat
	.align	2
	.weak	_ZSt10__distanceIPKcENSt15iterator_traitsIT_E15difference_typeES3_S3_St26random_access_iterator_tag
	.type	_ZSt10__distanceIPKcENSt15iterator_traitsIT_E15difference_typeES3_S3_St26random_access_iterator_tag, %function
_ZSt10__distanceIPKcENSt15iterator_traitsIT_E15difference_typeES3_S3_St26random_access_iterator_tag:
.LFB2887:
	.cfi_startproc
	sub	sp, sp, #32
	.cfi_def_cfa_offset 32
	str	x0, [sp, 24]
	str	x1, [sp, 16]
	strb	w2, [sp, 8]
	ldr	x1, [sp, 16]
	ldr	x0, [sp, 24]
	sub	x0, x1, x0
	add	sp, sp, 32
	.cfi_def_cfa_offset 0
	ret
	.cfi_endproc
.LFE2887:
	.size	_ZSt10__distanceIPKcENSt15iterator_traitsIT_E15difference_typeES3_S3_St26random_access_iterator_tag, .-_ZSt10__distanceIPKcENSt15iterator_traitsIT_E15difference_typeES3_S3_St26random_access_iterator_tag
	.section	.text._ZN9__gnu_cxx13new_allocatorINSt8__detail10_Hash_nodeIcLb0EEEEC2Ev,"axG",@progbits,_ZN9__gnu_cxx13new_allocatorINSt8__detail10_Hash_nodeIcLb0EEEEC5Ev,comdat
	.align	2
	.weak	_ZN9__gnu_cxx13new_allocatorINSt8__detail10_Hash_nodeIcLb0EEEEC2Ev
	.type	_ZN9__gnu_cxx13new_allocatorINSt8__detail10_Hash_nodeIcLb0EEEEC2Ev, %function
_ZN9__gnu_cxx13new_allocatorINSt8__detail10_Hash_nodeIcLb0EEEEC2Ev:
.LFB2890:
	.cfi_startproc
	sub	sp, sp, #16
	.cfi_def_cfa_offset 16
	str	x0, [sp, 8]
	nop
	add	sp, sp, 16
	.cfi_def_cfa_offset 0
	ret
	.cfi_endproc
.LFE2890:
	.size	_ZN9__gnu_cxx13new_allocatorINSt8__detail10_Hash_nodeIcLb0EEEEC2Ev, .-_ZN9__gnu_cxx13new_allocatorINSt8__detail10_Hash_nodeIcLb0EEEEC2Ev
	.weak	_ZN9__gnu_cxx13new_allocatorINSt8__detail10_Hash_nodeIcLb0EEEEC1Ev
	.set	_ZN9__gnu_cxx13new_allocatorINSt8__detail10_Hash_nodeIcLb0EEEEC1Ev,_ZN9__gnu_cxx13new_allocatorINSt8__detail10_Hash_nodeIcLb0EEEEC2Ev
	.section	.text._ZNKSt10_HashtableIccSaIcENSt8__detail9_IdentityESt8equal_toIcESt4hashIcENS1_18_Mod_range_hashingENS1_20_Default_ranged_hashENS1_20_Prime_rehash_policyENS1_17_Hashtable_traitsILb0ELb1ELb1EEEE8_M_beginEv,"axG",@progbits,_ZNKSt10_HashtableIccSaIcENSt8__detail9_IdentityESt8equal_toIcESt4hashIcENS1_18_Mod_range_hashingENS1_20_Default_ranged_hashENS1_20_Prime_rehash_policyENS1_17_Hashtable_traitsILb0ELb1ELb1EEEE8_M_beginEv,comdat
	.align	2
	.weak	_ZNKSt10_HashtableIccSaIcENSt8__detail9_IdentityESt8equal_toIcESt4hashIcENS1_18_Mod_range_hashingENS1_20_Default_ranged_hashENS1_20_Prime_rehash_policyENS1_17_Hashtable_traitsILb0ELb1ELb1EEEE8_M_beginEv
	.type	_ZNKSt10_HashtableIccSaIcENSt8__detail9_IdentityESt8equal_toIcESt4hashIcENS1_18_Mod_range_hashingENS1_20_Default_ranged_hashENS1_20_Prime_rehash_policyENS1_17_Hashtable_traitsILb0ELb1ELb1EEEE8_M_beginEv, %function
_ZNKSt10_HashtableIccSaIcENSt8__detail9_IdentityESt8equal_toIcESt4hashIcENS1_18_Mod_range_hashingENS1_20_Default_ranged_hashENS1_20_Prime_rehash_policyENS1_17_Hashtable_traitsILb0ELb1ELb1EEEE8_M_beginEv:
.LFB2892:
	.cfi_startproc
	sub	sp, sp, #16
	.cfi_def_cfa_offset 16
	str	x0, [sp, 8]
	ldr	x0, [sp, 8]
	ldr	x0, [x0, 16]
	add	sp, sp, 16
	.cfi_def_cfa_offset 0
	ret
	.cfi_endproc
.LFE2892:
	.size	_ZNKSt10_HashtableIccSaIcENSt8__detail9_IdentityESt8equal_toIcESt4hashIcENS1_18_Mod_range_hashingENS1_20_Default_ranged_hashENS1_20_Prime_rehash_policyENS1_17_Hashtable_traitsILb0ELb1ELb1EEEE8_M_beginEv, .-_ZNKSt10_HashtableIccSaIcENSt8__detail9_IdentityESt8equal_toIcESt4hashIcENS1_18_Mod_range_hashingENS1_20_Default_ranged_hashENS1_20_Prime_rehash_policyENS1_17_Hashtable_traitsILb0ELb1ELb1EEEE8_M_beginEv
	.section	.text._ZNSt8__detail16_Hashtable_allocISaINS_10_Hash_nodeIcLb0EEEEE19_M_deallocate_nodesEPS2_,"axG",@progbits,_ZNSt8__detail16_Hashtable_allocISaINS_10_Hash_nodeIcLb0EEEEE19_M_deallocate_nodesEPS2_,comdat
	.align	2
	.weak	_ZNSt8__detail16_Hashtable_allocISaINS_10_Hash_nodeIcLb0EEEEE19_M_deallocate_nodesEPS2_
	.type	_ZNSt8__detail16_Hashtable_allocISaINS_10_Hash_nodeIcLb0EEEEE19_M_deallocate_nodesEPS2_, %function
_ZNSt8__detail16_Hashtable_allocISaINS_10_Hash_nodeIcLb0EEEEE19_M_deallocate_nodesEPS2_:
.LFB2893:
	.cfi_startproc
	stp	x29, x30, [sp, -48]!
	.cfi_def_cfa_offset 48
	.cfi_offset 29, -48
	.cfi_offset 30, -40
	mov	x29, sp
	str	x0, [sp, 24]
	str	x1, [sp, 16]
	b	.L68
.L69:
	ldr	x0, [sp, 16]
	str	x0, [sp, 40]
	ldr	x0, [sp, 16]
	bl	_ZNKSt8__detail10_Hash_nodeIcLb0EE7_M_nextEv
	str	x0, [sp, 16]
	ldr	x1, [sp, 40]
	ldr	x0, [sp, 24]
	bl	_ZNSt8__detail16_Hashtable_allocISaINS_10_Hash_nodeIcLb0EEEEE18_M_deallocate_nodeEPS2_
.L68:
	ldr	x0, [sp, 16]
	cmp	x0, 0
	bne	.L69
	nop
	nop
	ldp	x29, x30, [sp], 48
	.cfi_restore 30
	.cfi_restore 29
	.cfi_def_cfa_offset 0
	ret
	.cfi_endproc
.LFE2893:
	.size	_ZNSt8__detail16_Hashtable_allocISaINS_10_Hash_nodeIcLb0EEEEE19_M_deallocate_nodesEPS2_, .-_ZNSt8__detail16_Hashtable_allocISaINS_10_Hash_nodeIcLb0EEEEE19_M_deallocate_nodesEPS2_
	.section	.text._ZNSt10_HashtableIccSaIcENSt8__detail9_IdentityESt8equal_toIcESt4hashIcENS1_18_Mod_range_hashingENS1_20_Default_ranged_hashENS1_20_Prime_rehash_policyENS1_17_Hashtable_traitsILb0ELb1ELb1EEEE21_M_deallocate_bucketsEPPNS1_15_Hash_node_baseEm,"axG",@progbits,_ZNSt10_HashtableIccSaIcENSt8__detail9_IdentityESt8equal_toIcESt4hashIcENS1_18_Mod_range_hashingENS1_20_Default_ranged_hashENS1_20_Prime_rehash_policyENS1_17_Hashtable_traitsILb0ELb1ELb1EEEE21_M_deallocate_bucketsEPPNS1_15_Hash_node_baseEm,comdat
	.align	2
	.weak	_ZNSt10_HashtableIccSaIcENSt8__detail9_IdentityESt8equal_toIcESt4hashIcENS1_18_Mod_range_hashingENS1_20_Default_ranged_hashENS1_20_Prime_rehash_policyENS1_17_Hashtable_traitsILb0ELb1ELb1EEEE21_M_deallocate_bucketsEPPNS1_15_Hash_node_baseEm
	.type	_ZNSt10_HashtableIccSaIcENSt8__detail9_IdentityESt8equal_toIcESt4hashIcENS1_18_Mod_range_hashingENS1_20_Default_ranged_hashENS1_20_Prime_rehash_policyENS1_17_Hashtable_traitsILb0ELb1ELb1EEEE21_M_deallocate_bucketsEPPNS1_15_Hash_node_baseEm, %function
_ZNSt10_HashtableIccSaIcENSt8__detail9_IdentityESt8equal_toIcESt4hashIcENS1_18_Mod_range_hashingENS1_20_Default_ranged_hashENS1_20_Prime_rehash_policyENS1_17_Hashtable_traitsILb0ELb1ELb1EEEE21_M_deallocate_bucketsEPPNS1_15_Hash_node_baseEm:
.LFB2894:
	.cfi_startproc
	stp	x29, x30, [sp, -48]!
	.cfi_def_cfa_offset 48
	.cfi_offset 29, -48
	.cfi_offset 30, -40
	mov	x29, sp
	str	x0, [sp, 40]
	str	x1, [sp, 32]
	str	x2, [sp, 24]
	ldr	x1, [sp, 32]
	ldr	x0, [sp, 40]
	bl	_ZNKSt10_HashtableIccSaIcENSt8__detail9_IdentityESt8equal_toIcESt4hashIcENS1_18_Mod_range_hashingENS1_20_Default_ranged_hashENS1_20_Prime_rehash_policyENS1_17_Hashtable_traitsILb0ELb1ELb1EEEE21_M_uses_single_bucketEPPNS1_15_Hash_node_baseE
	and	w0, w0, 255
	cmp	w0, 0
	bne	.L73
	ldr	x2, [sp, 24]
	ldr	x1, [sp, 32]
	ldr	x0, [sp, 40]
	bl	_ZNSt8__detail16_Hashtable_allocISaINS_10_Hash_nodeIcLb0EEEEE21_M_deallocate_bucketsEPPNS_15_Hash_node_baseEm
	b	.L70
.L73:
	nop
.L70:
	ldp	x29, x30, [sp], 48
	.cfi_restore 30
	.cfi_restore 29
	.cfi_def_cfa_offset 0
	ret
	.cfi_endproc
.LFE2894:
	.size	_ZNSt10_HashtableIccSaIcENSt8__detail9_IdentityESt8equal_toIcESt4hashIcENS1_18_Mod_range_hashingENS1_20_Default_ranged_hashENS1_20_Prime_rehash_policyENS1_17_Hashtable_traitsILb0ELb1ELb1EEEE21_M_deallocate_bucketsEPPNS1_15_Hash_node_baseEm, .-_ZNSt10_HashtableIccSaIcENSt8__detail9_IdentityESt8equal_toIcESt4hashIcENS1_18_Mod_range_hashingENS1_20_Default_ranged_hashENS1_20_Prime_rehash_policyENS1_17_Hashtable_traitsILb0ELb1ELb1EEEE21_M_deallocate_bucketsEPPNS1_15_Hash_node_baseEm
	.section	.text._ZNKSt8__detail10_Hash_nodeIcLb0EE7_M_nextEv,"axG",@progbits,_ZNKSt8__detail10_Hash_nodeIcLb0EE7_M_nextEv,comdat
	.align	2
	.weak	_ZNKSt8__detail10_Hash_nodeIcLb0EE7_M_nextEv
	.type	_ZNKSt8__detail10_Hash_nodeIcLb0EE7_M_nextEv, %function
_ZNKSt8__detail10_Hash_nodeIcLb0EE7_M_nextEv:
.LFB2935:
	.cfi_startproc
	sub	sp, sp, #16
	.cfi_def_cfa_offset 16
	str	x0, [sp, 8]
	ldr	x0, [sp, 8]
	ldr	x0, [x0]
	add	sp, sp, 16
	.cfi_def_cfa_offset 0
	ret
	.cfi_endproc
.LFE2935:
	.size	_ZNKSt8__detail10_Hash_nodeIcLb0EE7_M_nextEv, .-_ZNKSt8__detail10_Hash_nodeIcLb0EE7_M_nextEv
	.section	.text._ZNSt8__detail16_Hashtable_allocISaINS_10_Hash_nodeIcLb0EEEEE18_M_deallocate_nodeEPS2_,"axG",@progbits,_ZNSt8__detail16_Hashtable_allocISaINS_10_Hash_nodeIcLb0EEEEE18_M_deallocate_nodeEPS2_,comdat
	.align	2
	.weak	_ZNSt8__detail16_Hashtable_allocISaINS_10_Hash_nodeIcLb0EEEEE18_M_deallocate_nodeEPS2_
	.type	_ZNSt8__detail16_Hashtable_allocISaINS_10_Hash_nodeIcLb0EEEEE18_M_deallocate_nodeEPS2_, %function
_ZNSt8__detail16_Hashtable_allocISaINS_10_Hash_nodeIcLb0EEEEE18_M_deallocate_nodeEPS2_:
.LFB2936:
	.cfi_startproc
	stp	x29, x30, [sp, -48]!
	.cfi_def_cfa_offset 48
	.cfi_offset 29, -48
	.cfi_offset 30, -40
	mov	x29, sp
	str	x19, [sp, 16]
	.cfi_offset 19, -32
	str	x0, [sp, 40]
	str	x1, [sp, 32]
	ldr	x0, [sp, 40]
	bl	_ZNSt8__detail16_Hashtable_allocISaINS_10_Hash_nodeIcLb0EEEEE17_M_node_allocatorEv
	mov	x19, x0
	ldr	x0, [sp, 32]
	add	x0, x0, 8
	bl	_ZNSt8__detail21_Hash_node_value_baseIcE9_M_valptrEv
	mov	x1, x0
	mov	x0, x19
	bl	_ZNSt16allocator_traitsISaINSt8__detail10_Hash_nodeIcLb0EEEEE7destroyIcEEvRS3_PT_
	ldr	x1, [sp, 32]
	ldr	x0, [sp, 40]
	bl	_ZNSt8__detail16_Hashtable_allocISaINS_10_Hash_nodeIcLb0EEEEE22_M_deallocate_node_ptrEPS2_
	nop
	ldr	x19, [sp, 16]
	ldp	x29, x30, [sp], 48
	.cfi_restore 30
	.cfi_restore 29
	.cfi_restore 19
	.cfi_def_cfa_offset 0
	ret
	.cfi_endproc
.LFE2936:
	.size	_ZNSt8__detail16_Hashtable_allocISaINS_10_Hash_nodeIcLb0EEEEE18_M_deallocate_nodeEPS2_, .-_ZNSt8__detail16_Hashtable_allocISaINS_10_Hash_nodeIcLb0EEEEE18_M_deallocate_nodeEPS2_
	.section	.text._ZNKSt10_HashtableIccSaIcENSt8__detail9_IdentityESt8equal_toIcESt4hashIcENS1_18_Mod_range_hashingENS1_20_Default_ranged_hashENS1_20_Prime_rehash_policyENS1_17_Hashtable_traitsILb0ELb1ELb1EEEE21_M_uses_single_bucketEPPNS1_15_Hash_node_baseE,"axG",@progbits,_ZNKSt10_HashtableIccSaIcENSt8__detail9_IdentityESt8equal_toIcESt4hashIcENS1_18_Mod_range_hashingENS1_20_Default_ranged_hashENS1_20_Prime_rehash_policyENS1_17_Hashtable_traitsILb0ELb1ELb1EEEE21_M_uses_single_bucketEPPNS1_15_Hash_node_baseE,comdat
	.align	2
	.weak	_ZNKSt10_HashtableIccSaIcENSt8__detail9_IdentityESt8equal_toIcESt4hashIcENS1_18_Mod_range_hashingENS1_20_Default_ranged_hashENS1_20_Prime_rehash_policyENS1_17_Hashtable_traitsILb0ELb1ELb1EEEE21_M_uses_single_bucketEPPNS1_15_Hash_node_baseE
	.type	_ZNKSt10_HashtableIccSaIcENSt8__detail9_IdentityESt8equal_toIcESt4hashIcENS1_18_Mod_range_hashingENS1_20_Default_ranged_hashENS1_20_Prime_rehash_policyENS1_17_Hashtable_traitsILb0ELb1ELb1EEEE21_M_uses_single_bucketEPPNS1_15_Hash_node_baseE, %function
_ZNKSt10_HashtableIccSaIcENSt8__detail9_IdentityESt8equal_toIcESt4hashIcENS1_18_Mod_range_hashingENS1_20_Default_ranged_hashENS1_20_Prime_rehash_policyENS1_17_Hashtable_traitsILb0ELb1ELb1EEEE21_M_uses_single_bucketEPPNS1_15_Hash_node_baseE:
.LFB2937:
	.cfi_startproc
	sub	sp, sp, #16
	.cfi_def_cfa_offset 16
	str	x0, [sp, 8]
	str	x1, [sp]
	ldr	x0, [sp, 8]
	add	x0, x0, 48
	ldr	x1, [sp]
	cmp	x1, x0
	cset	w0, eq
	and	w0, w0, 255
	and	x0, x0, 255
	cmp	x0, 0
	cset	w0, ne
	and	w0, w0, 255
	add	sp, sp, 16
	.cfi_def_cfa_offset 0
	ret
	.cfi_endproc
.LFE2937:
	.size	_ZNKSt10_HashtableIccSaIcENSt8__detail9_IdentityESt8equal_toIcESt4hashIcENS1_18_Mod_range_hashingENS1_20_Default_ranged_hashENS1_20_Prime_rehash_policyENS1_17_Hashtable_traitsILb0ELb1ELb1EEEE21_M_uses_single_bucketEPPNS1_15_Hash_node_baseE, .-_ZNKSt10_HashtableIccSaIcENSt8__detail9_IdentityESt8equal_toIcESt4hashIcENS1_18_Mod_range_hashingENS1_20_Default_ranged_hashENS1_20_Prime_rehash_policyENS1_17_Hashtable_traitsILb0ELb1ELb1EEEE21_M_uses_single_bucketEPPNS1_15_Hash_node_baseE
	.section	.text._ZNSt8__detail16_Hashtable_allocISaINS_10_Hash_nodeIcLb0EEEEE21_M_deallocate_bucketsEPPNS_15_Hash_node_baseEm,"axG",@progbits,_ZNSt8__detail16_Hashtable_allocISaINS_10_Hash_nodeIcLb0EEEEE21_M_deallocate_bucketsEPPNS_15_Hash_node_baseEm,comdat
	.align	2
	.weak	_ZNSt8__detail16_Hashtable_allocISaINS_10_Hash_nodeIcLb0EEEEE21_M_deallocate_bucketsEPPNS_15_Hash_node_baseEm
	.type	_ZNSt8__detail16_Hashtable_allocISaINS_10_Hash_nodeIcLb0EEEEE21_M_deallocate_bucketsEPPNS_15_Hash_node_baseEm, %function
_ZNSt8__detail16_Hashtable_allocISaINS_10_Hash_nodeIcLb0EEEEE21_M_deallocate_bucketsEPPNS_15_Hash_node_baseEm:
.LFB2938:
	.cfi_startproc
	.cfi_personality 0x9b,DW.ref.__gxx_personality_v0
	.cfi_lsda 0x1b,.LLSDA2938
	stp	x29, x30, [sp, -96]!
	.cfi_def_cfa_offset 96
	.cfi_offset 29, -96
	.cfi_offset 30, -88
	mov	x29, sp
	str	x19, [sp, 16]
	.cfi_offset 19, -80
	str	x0, [sp, 56]
	str	x1, [sp, 48]
	str	x2, [sp, 40]
	adrp	x0, :got:__stack_chk_guard
	ldr	x0, [x0, #:got_lo12:__stack_chk_guard]
	ldr	x1, [x0]
	str	x1, [sp, 88]
	mov	x1, 0
	ldr	x0, [sp, 48]
	bl	_ZNSt14pointer_traitsIPPNSt8__detail15_Hash_node_baseEE10pointer_toERS2_
	str	x0, [sp, 80]
	ldr	x0, [sp, 56]
.LEHB10:
	bl	_ZNSt8__detail16_Hashtable_allocISaINS_10_Hash_nodeIcLb0EEEEE17_M_node_allocatorEv
.LEHE10:
	mov	x1, x0
	add	x0, sp, 72
	bl	_ZNSaIPNSt8__detail15_Hash_node_baseEEC1INS_10_Hash_nodeIcLb0EEEEERKSaIT_E
	add	x0, sp, 72
	ldr	x2, [sp, 40]
	ldr	x1, [sp, 80]
.LEHB11:
	bl	_ZNSt16allocator_traitsISaIPNSt8__detail15_Hash_node_baseEEE10deallocateERS3_PS2_m
.LEHE11:
	add	x0, sp, 72
	bl	_ZNSaIPNSt8__detail15_Hash_node_baseEED1Ev
	adrp	x0, :got:__stack_chk_guard
	ldr	x0, [x0, #:got_lo12:__stack_chk_guard]
	ldr	x2, [sp, 88]
	ldr	x1, [x0]
	subs	x2, x2, x1
	mov	x1, 0
	beq	.L81
	b	.L83
.L82:
	mov	x19, x0
	add	x0, sp, 72
	bl	_ZNSaIPNSt8__detail15_Hash_node_baseEED1Ev
	mov	x0, x19
.LEHB12:
	bl	_Unwind_Resume
.LEHE12:
.L83:
	bl	__stack_chk_fail
.L81:
	ldr	x19, [sp, 16]
	ldp	x29, x30, [sp], 96
	.cfi_restore 30
	.cfi_restore 29
	.cfi_restore 19
	.cfi_def_cfa_offset 0
	ret
	.cfi_endproc
.LFE2938:
	.section	.gcc_except_table
.LLSDA2938:
	.byte	0xff
	.byte	0xff
	.byte	0x1
	.uleb128 .LLSDACSE2938-.LLSDACSB2938
.LLSDACSB2938:
	.uleb128 .LEHB10-.LFB2938
	.uleb128 .LEHE10-.LEHB10
	.uleb128 0
	.uleb128 0
	.uleb128 .LEHB11-.LFB2938
	.uleb128 .LEHE11-.LEHB11
	.uleb128 .L82-.LFB2938
	.uleb128 0
	.uleb128 .LEHB12-.LFB2938
	.uleb128 .LEHE12-.LEHB12
	.uleb128 0
	.uleb128 0
.LLSDACSE2938:
	.section	.text._ZNSt8__detail16_Hashtable_allocISaINS_10_Hash_nodeIcLb0EEEEE21_M_deallocate_bucketsEPPNS_15_Hash_node_baseEm,"axG",@progbits,_ZNSt8__detail16_Hashtable_allocISaINS_10_Hash_nodeIcLb0EEEEE21_M_deallocate_bucketsEPPNS_15_Hash_node_baseEm,comdat
	.size	_ZNSt8__detail16_Hashtable_allocISaINS_10_Hash_nodeIcLb0EEEEE21_M_deallocate_bucketsEPPNS_15_Hash_node_baseEm, .-_ZNSt8__detail16_Hashtable_allocISaINS_10_Hash_nodeIcLb0EEEEE21_M_deallocate_bucketsEPPNS_15_Hash_node_baseEm
	.section	.text._ZNSt8__detail16_Hashtable_allocISaINS_10_Hash_nodeIcLb0EEEEE17_M_node_allocatorEv,"axG",@progbits,_ZNSt8__detail16_Hashtable_allocISaINS_10_Hash_nodeIcLb0EEEEE17_M_node_allocatorEv,comdat
	.align	2
	.weak	_ZNSt8__detail16_Hashtable_allocISaINS_10_Hash_nodeIcLb0EEEEE17_M_node_allocatorEv
	.type	_ZNSt8__detail16_Hashtable_allocISaINS_10_Hash_nodeIcLb0EEEEE17_M_node_allocatorEv, %function
_ZNSt8__detail16_Hashtable_allocISaINS_10_Hash_nodeIcLb0EEEEE17_M_node_allocatorEv:
.LFB2979:
	.cfi_startproc
	stp	x29, x30, [sp, -32]!
	.cfi_def_cfa_offset 32
	.cfi_offset 29, -32
	.cfi_offset 30, -24
	mov	x29, sp
	str	x0, [sp, 24]
	ldr	x0, [sp, 24]
	bl	_ZNSt8__detail21_Hashtable_ebo_helperILi0ESaINS_10_Hash_nodeIcLb0EEEELb1EE6_M_getEv
	ldp	x29, x30, [sp], 32
	.cfi_restore 30
	.cfi_restore 29
	.cfi_def_cfa_offset 0
	ret
	.cfi_endproc
.LFE2979:
	.size	_ZNSt8__detail16_Hashtable_allocISaINS_10_Hash_nodeIcLb0EEEEE17_M_node_allocatorEv, .-_ZNSt8__detail16_Hashtable_allocISaINS_10_Hash_nodeIcLb0EEEEE17_M_node_allocatorEv
	.section	.text._ZNSt8__detail21_Hash_node_value_baseIcE9_M_valptrEv,"axG",@progbits,_ZNSt8__detail21_Hash_node_value_baseIcE9_M_valptrEv,comdat
	.align	2
	.weak	_ZNSt8__detail21_Hash_node_value_baseIcE9_M_valptrEv
	.type	_ZNSt8__detail21_Hash_node_value_baseIcE9_M_valptrEv, %function
_ZNSt8__detail21_Hash_node_value_baseIcE9_M_valptrEv:
.LFB2980:
	.cfi_startproc
	stp	x29, x30, [sp, -32]!
	.cfi_def_cfa_offset 32
	.cfi_offset 29, -32
	.cfi_offset 30, -24
	mov	x29, sp
	str	x0, [sp, 24]
	ldr	x0, [sp, 24]
	bl	_ZN9__gnu_cxx16__aligned_bufferIcE6_M_ptrEv
	ldp	x29, x30, [sp], 32
	.cfi_restore 30
	.cfi_restore 29
	.cfi_def_cfa_offset 0
	ret
	.cfi_endproc
.LFE2980:
	.size	_ZNSt8__detail21_Hash_node_value_baseIcE9_M_valptrEv, .-_ZNSt8__detail21_Hash_node_value_baseIcE9_M_valptrEv
	.section	.text._ZNSt16allocator_traitsISaINSt8__detail10_Hash_nodeIcLb0EEEEE7destroyIcEEvRS3_PT_,"axG",@progbits,_ZNSt16allocator_traitsISaINSt8__detail10_Hash_nodeIcLb0EEEEE7destroyIcEEvRS3_PT_,comdat
	.align	2
	.weak	_ZNSt16allocator_traitsISaINSt8__detail10_Hash_nodeIcLb0EEEEE7destroyIcEEvRS3_PT_
	.type	_ZNSt16allocator_traitsISaINSt8__detail10_Hash_nodeIcLb0EEEEE7destroyIcEEvRS3_PT_, %function
_ZNSt16allocator_traitsISaINSt8__detail10_Hash_nodeIcLb0EEEEE7destroyIcEEvRS3_PT_:
.LFB2981:
	.cfi_startproc
	stp	x29, x30, [sp, -32]!
	.cfi_def_cfa_offset 32
	.cfi_offset 29, -32
	.cfi_offset 30, -24
	mov	x29, sp
	str	x0, [sp, 24]
	str	x1, [sp, 16]
	ldr	x1, [sp, 16]
	ldr	x0, [sp, 24]
	bl	_ZN9__gnu_cxx13new_allocatorINSt8__detail10_Hash_nodeIcLb0EEEE7destroyIcEEvPT_
	nop
	ldp	x29, x30, [sp], 32
	.cfi_restore 30
	.cfi_restore 29
	.cfi_def_cfa_offset 0
	ret
	.cfi_endproc
.LFE2981:
	.size	_ZNSt16allocator_traitsISaINSt8__detail10_Hash_nodeIcLb0EEEEE7destroyIcEEvRS3_PT_, .-_ZNSt16allocator_traitsISaINSt8__detail10_Hash_nodeIcLb0EEEEE7destroyIcEEvRS3_PT_
	.section	.text._ZNSt8__detail16_Hashtable_allocISaINS_10_Hash_nodeIcLb0EEEEE22_M_deallocate_node_ptrEPS2_,"axG",@progbits,_ZNSt8__detail16_Hashtable_allocISaINS_10_Hash_nodeIcLb0EEEEE22_M_deallocate_node_ptrEPS2_,comdat
	.align	2
	.weak	_ZNSt8__detail16_Hashtable_allocISaINS_10_Hash_nodeIcLb0EEEEE22_M_deallocate_node_ptrEPS2_
	.type	_ZNSt8__detail16_Hashtable_allocISaINS_10_Hash_nodeIcLb0EEEEE22_M_deallocate_node_ptrEPS2_, %function
_ZNSt8__detail16_Hashtable_allocISaINS_10_Hash_nodeIcLb0EEEEE22_M_deallocate_node_ptrEPS2_:
.LFB2982:
	.cfi_startproc
	stp	x29, x30, [sp, -48]!
	.cfi_def_cfa_offset 48
	.cfi_offset 29, -48
	.cfi_offset 30, -40
	mov	x29, sp
	str	x0, [sp, 24]
	str	x1, [sp, 16]
	ldr	x0, [sp, 16]
	bl	_ZNSt14pointer_traitsIPNSt8__detail10_Hash_nodeIcLb0EEEE10pointer_toERS2_
	str	x0, [sp, 40]
	ldr	x0, [sp, 24]
	bl	_ZNSt8__detail16_Hashtable_allocISaINS_10_Hash_nodeIcLb0EEEEE17_M_node_allocatorEv
	mov	x2, 1
	ldr	x1, [sp, 40]
	bl	_ZNSt16allocator_traitsISaINSt8__detail10_Hash_nodeIcLb0EEEEE10deallocateERS3_PS2_m
	nop
	ldp	x29, x30, [sp], 48
	.cfi_restore 30
	.cfi_restore 29
	.cfi_def_cfa_offset 0
	ret
	.cfi_endproc
.LFE2982:
	.size	_ZNSt8__detail16_Hashtable_allocISaINS_10_Hash_nodeIcLb0EEEEE22_M_deallocate_node_ptrEPS2_, .-_ZNSt8__detail16_Hashtable_allocISaINS_10_Hash_nodeIcLb0EEEEE22_M_deallocate_node_ptrEPS2_
	.section	.text._ZNSt14pointer_traitsIPPNSt8__detail15_Hash_node_baseEE10pointer_toERS2_,"axG",@progbits,_ZNSt14pointer_traitsIPPNSt8__detail15_Hash_node_baseEE10pointer_toERS2_,comdat
	.align	2
	.weak	_ZNSt14pointer_traitsIPPNSt8__detail15_Hash_node_baseEE10pointer_toERS2_
	.type	_ZNSt14pointer_traitsIPPNSt8__detail15_Hash_node_baseEE10pointer_toERS2_, %function
_ZNSt14pointer_traitsIPPNSt8__detail15_Hash_node_baseEE10pointer_toERS2_:
.LFB2983:
	.cfi_startproc
	stp	x29, x30, [sp, -32]!
	.cfi_def_cfa_offset 32
	.cfi_offset 29, -32
	.cfi_offset 30, -24
	mov	x29, sp
	str	x0, [sp, 24]
	ldr	x0, [sp, 24]
	bl	_ZSt9addressofIPNSt8__detail15_Hash_node_baseEEPT_RS3_
	ldp	x29, x30, [sp], 32
	.cfi_restore 30
	.cfi_restore 29
	.cfi_def_cfa_offset 0
	ret
	.cfi_endproc
.LFE2983:
	.size	_ZNSt14pointer_traitsIPPNSt8__detail15_Hash_node_baseEE10pointer_toERS2_, .-_ZNSt14pointer_traitsIPPNSt8__detail15_Hash_node_baseEE10pointer_toERS2_
	.section	.text._ZNSaIPNSt8__detail15_Hash_node_baseEEC2INS_10_Hash_nodeIcLb0EEEEERKSaIT_E,"axG",@progbits,_ZNSaIPNSt8__detail15_Hash_node_baseEEC5INS_10_Hash_nodeIcLb0EEEEERKSaIT_E,comdat
	.align	2
	.weak	_ZNSaIPNSt8__detail15_Hash_node_baseEEC2INS_10_Hash_nodeIcLb0EEEEERKSaIT_E
	.type	_ZNSaIPNSt8__detail15_Hash_node_baseEEC2INS_10_Hash_nodeIcLb0EEEEERKSaIT_E, %function
_ZNSaIPNSt8__detail15_Hash_node_baseEEC2INS_10_Hash_nodeIcLb0EEEEERKSaIT_E:
.LFB2985:
	.cfi_startproc
	stp	x29, x30, [sp, -32]!
	.cfi_def_cfa_offset 32
	.cfi_offset 29, -32
	.cfi_offset 30, -24
	mov	x29, sp
	str	x0, [sp, 24]
	str	x1, [sp, 16]
	ldr	x0, [sp, 24]
	bl	_ZN9__gnu_cxx13new_allocatorIPNSt8__detail15_Hash_node_baseEEC2Ev
	nop
	ldp	x29, x30, [sp], 32
	.cfi_restore 30
	.cfi_restore 29
	.cfi_def_cfa_offset 0
	ret
	.cfi_endproc
.LFE2985:
	.size	_ZNSaIPNSt8__detail15_Hash_node_baseEEC2INS_10_Hash_nodeIcLb0EEEEERKSaIT_E, .-_ZNSaIPNSt8__detail15_Hash_node_baseEEC2INS_10_Hash_nodeIcLb0EEEEERKSaIT_E
	.weak	_ZNSaIPNSt8__detail15_Hash_node_baseEEC1INS_10_Hash_nodeIcLb0EEEEERKSaIT_E
	.set	_ZNSaIPNSt8__detail15_Hash_node_baseEEC1INS_10_Hash_nodeIcLb0EEEEERKSaIT_E,_ZNSaIPNSt8__detail15_Hash_node_baseEEC2INS_10_Hash_nodeIcLb0EEEEERKSaIT_E
	.section	.text._ZNSaIPNSt8__detail15_Hash_node_baseEED2Ev,"axG",@progbits,_ZNSaIPNSt8__detail15_Hash_node_baseEED5Ev,comdat
	.align	2
	.weak	_ZNSaIPNSt8__detail15_Hash_node_baseEED2Ev
	.type	_ZNSaIPNSt8__detail15_Hash_node_baseEED2Ev, %function
_ZNSaIPNSt8__detail15_Hash_node_baseEED2Ev:
.LFB2988:
	.cfi_startproc
	stp	x29, x30, [sp, -32]!
	.cfi_def_cfa_offset 32
	.cfi_offset 29, -32
	.cfi_offset 30, -24
	mov	x29, sp
	str	x0, [sp, 24]
	ldr	x0, [sp, 24]
	bl	_ZN9__gnu_cxx13new_allocatorIPNSt8__detail15_Hash_node_baseEED2Ev
	nop
	ldp	x29, x30, [sp], 32
	.cfi_restore 30
	.cfi_restore 29
	.cfi_def_cfa_offset 0
	ret
	.cfi_endproc
.LFE2988:
	.size	_ZNSaIPNSt8__detail15_Hash_node_baseEED2Ev, .-_ZNSaIPNSt8__detail15_Hash_node_baseEED2Ev
	.weak	_ZNSaIPNSt8__detail15_Hash_node_baseEED1Ev
	.set	_ZNSaIPNSt8__detail15_Hash_node_baseEED1Ev,_ZNSaIPNSt8__detail15_Hash_node_baseEED2Ev
	.section	.text._ZNSt16allocator_traitsISaIPNSt8__detail15_Hash_node_baseEEE10deallocateERS3_PS2_m,"axG",@progbits,_ZNSt16allocator_traitsISaIPNSt8__detail15_Hash_node_baseEEE10deallocateERS3_PS2_m,comdat
	.align	2
	.weak	_ZNSt16allocator_traitsISaIPNSt8__detail15_Hash_node_baseEEE10deallocateERS3_PS2_m
	.type	_ZNSt16allocator_traitsISaIPNSt8__detail15_Hash_node_baseEEE10deallocateERS3_PS2_m, %function
_ZNSt16allocator_traitsISaIPNSt8__detail15_Hash_node_baseEEE10deallocateERS3_PS2_m:
.LFB2990:
	.cfi_startproc
	stp	x29, x30, [sp, -48]!
	.cfi_def_cfa_offset 48
	.cfi_offset 29, -48
	.cfi_offset 30, -40
	mov	x29, sp
	str	x0, [sp, 40]
	str	x1, [sp, 32]
	str	x2, [sp, 24]
	ldr	x2, [sp, 24]
	ldr	x1, [sp, 32]
	ldr	x0, [sp, 40]
	bl	_ZN9__gnu_cxx13new_allocatorIPNSt8__detail15_Hash_node_baseEE10deallocateEPS3_m
	nop
	ldp	x29, x30, [sp], 48
	.cfi_restore 30
	.cfi_restore 29
	.cfi_def_cfa_offset 0
	ret
	.cfi_endproc
.LFE2990:
	.size	_ZNSt16allocator_traitsISaIPNSt8__detail15_Hash_node_baseEEE10deallocateERS3_PS2_m, .-_ZNSt16allocator_traitsISaIPNSt8__detail15_Hash_node_baseEEE10deallocateERS3_PS2_m
	.section	.text._ZNSt8__detail21_Hashtable_ebo_helperILi0ESaINS_10_Hash_nodeIcLb0EEEELb1EE6_M_getEv,"axG",@progbits,_ZNSt8__detail21_Hashtable_ebo_helperILi0ESaINS_10_Hash_nodeIcLb0EEEELb1EE6_M_getEv,comdat
	.align	2
	.weak	_ZNSt8__detail21_Hashtable_ebo_helperILi0ESaINS_10_Hash_nodeIcLb0EEEELb1EE6_M_getEv
	.type	_ZNSt8__detail21_Hashtable_ebo_helperILi0ESaINS_10_Hash_nodeIcLb0EEEELb1EE6_M_getEv, %function
_ZNSt8__detail21_Hashtable_ebo_helperILi0ESaINS_10_Hash_nodeIcLb0EEEELb1EE6_M_getEv:
.LFB3014:
	.cfi_startproc
	sub	sp, sp, #16
	.cfi_def_cfa_offset 16
	str	x0, [sp, 8]
	ldr	x0, [sp, 8]
	add	sp, sp, 16
	.cfi_def_cfa_offset 0
	ret
	.cfi_endproc
.LFE3014:
	.size	_ZNSt8__detail21_Hashtable_ebo_helperILi0ESaINS_10_Hash_nodeIcLb0EEEELb1EE6_M_getEv, .-_ZNSt8__detail21_Hashtable_ebo_helperILi0ESaINS_10_Hash_nodeIcLb0EEEELb1EE6_M_getEv
	.section	.text._ZN9__gnu_cxx16__aligned_bufferIcE6_M_ptrEv,"axG",@progbits,_ZN9__gnu_cxx16__aligned_bufferIcE6_M_ptrEv,comdat
	.align	2
	.weak	_ZN9__gnu_cxx16__aligned_bufferIcE6_M_ptrEv
	.type	_ZN9__gnu_cxx16__aligned_bufferIcE6_M_ptrEv, %function
_ZN9__gnu_cxx16__aligned_bufferIcE6_M_ptrEv:
.LFB3015:
	.cfi_startproc
	stp	x29, x30, [sp, -32]!
	.cfi_def_cfa_offset 32
	.cfi_offset 29, -32
	.cfi_offset 30, -24
	mov	x29, sp
	str	x0, [sp, 24]
	ldr	x0, [sp, 24]
	bl	_ZN9__gnu_cxx16__aligned_bufferIcE7_M_addrEv
	ldp	x29, x30, [sp], 32
	.cfi_restore 30
	.cfi_restore 29
	.cfi_def_cfa_offset 0
	ret
	.cfi_endproc
.LFE3015:
	.size	_ZN9__gnu_cxx16__aligned_bufferIcE6_M_ptrEv, .-_ZN9__gnu_cxx16__aligned_bufferIcE6_M_ptrEv
	.section	.text._ZN9__gnu_cxx13new_allocatorINSt8__detail10_Hash_nodeIcLb0EEEE7destroyIcEEvPT_,"axG",@progbits,_ZN9__gnu_cxx13new_allocatorINSt8__detail10_Hash_nodeIcLb0EEEE7destroyIcEEvPT_,comdat
	.align	2
	.weak	_ZN9__gnu_cxx13new_allocatorINSt8__detail10_Hash_nodeIcLb0EEEE7destroyIcEEvPT_
	.type	_ZN9__gnu_cxx13new_allocatorINSt8__detail10_Hash_nodeIcLb0EEEE7destroyIcEEvPT_, %function
_ZN9__gnu_cxx13new_allocatorINSt8__detail10_Hash_nodeIcLb0EEEE7destroyIcEEvPT_:
.LFB3016:
	.cfi_startproc
	sub	sp, sp, #16
	.cfi_def_cfa_offset 16
	str	x0, [sp, 8]
	str	x1, [sp]
	nop
	add	sp, sp, 16
	.cfi_def_cfa_offset 0
	ret
	.cfi_endproc
.LFE3016:
	.size	_ZN9__gnu_cxx13new_allocatorINSt8__detail10_Hash_nodeIcLb0EEEE7destroyIcEEvPT_, .-_ZN9__gnu_cxx13new_allocatorINSt8__detail10_Hash_nodeIcLb0EEEE7destroyIcEEvPT_
	.section	.text._ZNSt14pointer_traitsIPNSt8__detail10_Hash_nodeIcLb0EEEE10pointer_toERS2_,"axG",@progbits,_ZNSt14pointer_traitsIPNSt8__detail10_Hash_nodeIcLb0EEEE10pointer_toERS2_,comdat
	.align	2
	.weak	_ZNSt14pointer_traitsIPNSt8__detail10_Hash_nodeIcLb0EEEE10pointer_toERS2_
	.type	_ZNSt14pointer_traitsIPNSt8__detail10_Hash_nodeIcLb0EEEE10pointer_toERS2_, %function
_ZNSt14pointer_traitsIPNSt8__detail10_Hash_nodeIcLb0EEEE10pointer_toERS2_:
.LFB3017:
	.cfi_startproc
	stp	x29, x30, [sp, -32]!
	.cfi_def_cfa_offset 32
	.cfi_offset 29, -32
	.cfi_offset 30, -24
	mov	x29, sp
	str	x0, [sp, 24]
	ldr	x0, [sp, 24]
	bl	_ZSt9addressofINSt8__detail10_Hash_nodeIcLb0EEEEPT_RS3_
	ldp	x29, x30, [sp], 32
	.cfi_restore 30
	.cfi_restore 29
	.cfi_def_cfa_offset 0
	ret
	.cfi_endproc
.LFE3017:
	.size	_ZNSt14pointer_traitsIPNSt8__detail10_Hash_nodeIcLb0EEEE10pointer_toERS2_, .-_ZNSt14pointer_traitsIPNSt8__detail10_Hash_nodeIcLb0EEEE10pointer_toERS2_
	.section	.text._ZNSt16allocator_traitsISaINSt8__detail10_Hash_nodeIcLb0EEEEE10deallocateERS3_PS2_m,"axG",@progbits,_ZNSt16allocator_traitsISaINSt8__detail10_Hash_nodeIcLb0EEEEE10deallocateERS3_PS2_m,comdat
	.align	2
	.weak	_ZNSt16allocator_traitsISaINSt8__detail10_Hash_nodeIcLb0EEEEE10deallocateERS3_PS2_m
	.type	_ZNSt16allocator_traitsISaINSt8__detail10_Hash_nodeIcLb0EEEEE10deallocateERS3_PS2_m, %function
_ZNSt16allocator_traitsISaINSt8__detail10_Hash_nodeIcLb0EEEEE10deallocateERS3_PS2_m:
.LFB3018:
	.cfi_startproc
	stp	x29, x30, [sp, -48]!
	.cfi_def_cfa_offset 48
	.cfi_offset 29, -48
	.cfi_offset 30, -40
	mov	x29, sp
	str	x0, [sp, 40]
	str	x1, [sp, 32]
	str	x2, [sp, 24]
	ldr	x2, [sp, 24]
	ldr	x1, [sp, 32]
	ldr	x0, [sp, 40]
	bl	_ZN9__gnu_cxx13new_allocatorINSt8__detail10_Hash_nodeIcLb0EEEE10deallocateEPS3_m
	nop
	ldp	x29, x30, [sp], 48
	.cfi_restore 30
	.cfi_restore 29
	.cfi_def_cfa_offset 0
	ret
	.cfi_endproc
.LFE3018:
	.size	_ZNSt16allocator_traitsISaINSt8__detail10_Hash_nodeIcLb0EEEEE10deallocateERS3_PS2_m, .-_ZNSt16allocator_traitsISaINSt8__detail10_Hash_nodeIcLb0EEEEE10deallocateERS3_PS2_m
	.section	.text._ZSt9addressofIPNSt8__detail15_Hash_node_baseEEPT_RS3_,"axG",@progbits,_ZSt9addressofIPNSt8__detail15_Hash_node_baseEEPT_RS3_,comdat
	.align	2
	.weak	_ZSt9addressofIPNSt8__detail15_Hash_node_baseEEPT_RS3_
	.type	_ZSt9addressofIPNSt8__detail15_Hash_node_baseEEPT_RS3_, %function
_ZSt9addressofIPNSt8__detail15_Hash_node_baseEEPT_RS3_:
.LFB3019:
	.cfi_startproc
	stp	x29, x30, [sp, -32]!
	.cfi_def_cfa_offset 32
	.cfi_offset 29, -32
	.cfi_offset 30, -24
	mov	x29, sp
	str	x0, [sp, 24]
	ldr	x0, [sp, 24]
	bl	_ZSt11__addressofIPNSt8__detail15_Hash_node_baseEEPT_RS3_
	ldp	x29, x30, [sp], 32
	.cfi_restore 30
	.cfi_restore 29
	.cfi_def_cfa_offset 0
	ret
	.cfi_endproc
.LFE3019:
	.size	_ZSt9addressofIPNSt8__detail15_Hash_node_baseEEPT_RS3_, .-_ZSt9addressofIPNSt8__detail15_Hash_node_baseEEPT_RS3_
	.section	.text._ZN9__gnu_cxx13new_allocatorIPNSt8__detail15_Hash_node_baseEEC2Ev,"axG",@progbits,_ZN9__gnu_cxx13new_allocatorIPNSt8__detail15_Hash_node_baseEEC5Ev,comdat
	.align	2
	.weak	_ZN9__gnu_cxx13new_allocatorIPNSt8__detail15_Hash_node_baseEEC2Ev
	.type	_ZN9__gnu_cxx13new_allocatorIPNSt8__detail15_Hash_node_baseEEC2Ev, %function
_ZN9__gnu_cxx13new_allocatorIPNSt8__detail15_Hash_node_baseEEC2Ev:
.LFB3021:
	.cfi_startproc
	sub	sp, sp, #16
	.cfi_def_cfa_offset 16
	str	x0, [sp, 8]
	nop
	add	sp, sp, 16
	.cfi_def_cfa_offset 0
	ret
	.cfi_endproc
.LFE3021:
	.size	_ZN9__gnu_cxx13new_allocatorIPNSt8__detail15_Hash_node_baseEEC2Ev, .-_ZN9__gnu_cxx13new_allocatorIPNSt8__detail15_Hash_node_baseEEC2Ev
	.weak	_ZN9__gnu_cxx13new_allocatorIPNSt8__detail15_Hash_node_baseEEC1Ev
	.set	_ZN9__gnu_cxx13new_allocatorIPNSt8__detail15_Hash_node_baseEEC1Ev,_ZN9__gnu_cxx13new_allocatorIPNSt8__detail15_Hash_node_baseEEC2Ev
	.section	.text._ZN9__gnu_cxx13new_allocatorIPNSt8__detail15_Hash_node_baseEED2Ev,"axG",@progbits,_ZN9__gnu_cxx13new_allocatorIPNSt8__detail15_Hash_node_baseEED5Ev,comdat
	.align	2
	.weak	_ZN9__gnu_cxx13new_allocatorIPNSt8__detail15_Hash_node_baseEED2Ev
	.type	_ZN9__gnu_cxx13new_allocatorIPNSt8__detail15_Hash_node_baseEED2Ev, %function
_ZN9__gnu_cxx13new_allocatorIPNSt8__detail15_Hash_node_baseEED2Ev:
.LFB3024:
	.cfi_startproc
	sub	sp, sp, #16
	.cfi_def_cfa_offset 16
	str	x0, [sp, 8]
	nop
	add	sp, sp, 16
	.cfi_def_cfa_offset 0
	ret
	.cfi_endproc
.LFE3024:
	.size	_ZN9__gnu_cxx13new_allocatorIPNSt8__detail15_Hash_node_baseEED2Ev, .-_ZN9__gnu_cxx13new_allocatorIPNSt8__detail15_Hash_node_baseEED2Ev
	.weak	_ZN9__gnu_cxx13new_allocatorIPNSt8__detail15_Hash_node_baseEED1Ev
	.set	_ZN9__gnu_cxx13new_allocatorIPNSt8__detail15_Hash_node_baseEED1Ev,_ZN9__gnu_cxx13new_allocatorIPNSt8__detail15_Hash_node_baseEED2Ev
	.section	.text._ZN9__gnu_cxx13new_allocatorIPNSt8__detail15_Hash_node_baseEE10deallocateEPS3_m,"axG",@progbits,_ZN9__gnu_cxx13new_allocatorIPNSt8__detail15_Hash_node_baseEE10deallocateEPS3_m,comdat
	.align	2
	.weak	_ZN9__gnu_cxx13new_allocatorIPNSt8__detail15_Hash_node_baseEE10deallocateEPS3_m
	.type	_ZN9__gnu_cxx13new_allocatorIPNSt8__detail15_Hash_node_baseEE10deallocateEPS3_m, %function
_ZN9__gnu_cxx13new_allocatorIPNSt8__detail15_Hash_node_baseEE10deallocateEPS3_m:
.LFB3026:
	.cfi_startproc
	stp	x29, x30, [sp, -48]!
	.cfi_def_cfa_offset 48
	.cfi_offset 29, -48
	.cfi_offset 30, -40
	mov	x29, sp
	str	x0, [sp, 40]
	str	x1, [sp, 32]
	str	x2, [sp, 24]
	ldr	x0, [sp, 24]
	lsl	x0, x0, 3
	mov	x1, x0
	ldr	x0, [sp, 32]
	bl	_ZdlPvm
	ldp	x29, x30, [sp], 48
	.cfi_restore 30
	.cfi_restore 29
	.cfi_def_cfa_offset 0
	ret
	.cfi_endproc
.LFE3026:
	.size	_ZN9__gnu_cxx13new_allocatorIPNSt8__detail15_Hash_node_baseEE10deallocateEPS3_m, .-_ZN9__gnu_cxx13new_allocatorIPNSt8__detail15_Hash_node_baseEE10deallocateEPS3_m
	.section	.text._ZN9__gnu_cxx16__aligned_bufferIcE7_M_addrEv,"axG",@progbits,_ZN9__gnu_cxx16__aligned_bufferIcE7_M_addrEv,comdat
	.align	2
	.weak	_ZN9__gnu_cxx16__aligned_bufferIcE7_M_addrEv
	.type	_ZN9__gnu_cxx16__aligned_bufferIcE7_M_addrEv, %function
_ZN9__gnu_cxx16__aligned_bufferIcE7_M_addrEv:
.LFB3039:
	.cfi_startproc
	sub	sp, sp, #16
	.cfi_def_cfa_offset 16
	str	x0, [sp, 8]
	ldr	x0, [sp, 8]
	add	sp, sp, 16
	.cfi_def_cfa_offset 0
	ret
	.cfi_endproc
.LFE3039:
	.size	_ZN9__gnu_cxx16__aligned_bufferIcE7_M_addrEv, .-_ZN9__gnu_cxx16__aligned_bufferIcE7_M_addrEv
	.section	.text._ZSt9addressofINSt8__detail10_Hash_nodeIcLb0EEEEPT_RS3_,"axG",@progbits,_ZSt9addressofINSt8__detail10_Hash_nodeIcLb0EEEEPT_RS3_,comdat
	.align	2
	.weak	_ZSt9addressofINSt8__detail10_Hash_nodeIcLb0EEEEPT_RS3_
	.type	_ZSt9addressofINSt8__detail10_Hash_nodeIcLb0EEEEPT_RS3_, %function
_ZSt9addressofINSt8__detail10_Hash_nodeIcLb0EEEEPT_RS3_:
.LFB3040:
	.cfi_startproc
	stp	x29, x30, [sp, -32]!
	.cfi_def_cfa_offset 32
	.cfi_offset 29, -32
	.cfi_offset 30, -24
	mov	x29, sp
	str	x0, [sp, 24]
	ldr	x0, [sp, 24]
	bl	_ZSt11__addressofINSt8__detail10_Hash_nodeIcLb0EEEEPT_RS3_
	ldp	x29, x30, [sp], 32
	.cfi_restore 30
	.cfi_restore 29
	.cfi_def_cfa_offset 0
	ret
	.cfi_endproc
.LFE3040:
	.size	_ZSt9addressofINSt8__detail10_Hash_nodeIcLb0EEEEPT_RS3_, .-_ZSt9addressofINSt8__detail10_Hash_nodeIcLb0EEEEPT_RS3_
	.section	.text._ZN9__gnu_cxx13new_allocatorINSt8__detail10_Hash_nodeIcLb0EEEE10deallocateEPS3_m,"axG",@progbits,_ZN9__gnu_cxx13new_allocatorINSt8__detail10_Hash_nodeIcLb0EEEE10deallocateEPS3_m,comdat
	.align	2
	.weak	_ZN9__gnu_cxx13new_allocatorINSt8__detail10_Hash_nodeIcLb0EEEE10deallocateEPS3_m
	.type	_ZN9__gnu_cxx13new_allocatorINSt8__detail10_Hash_nodeIcLb0EEEE10deallocateEPS3_m, %function
_ZN9__gnu_cxx13new_allocatorINSt8__detail10_Hash_nodeIcLb0EEEE10deallocateEPS3_m:
.LFB3041:
	.cfi_startproc
	stp	x29, x30, [sp, -48]!
	.cfi_def_cfa_offset 48
	.cfi_offset 29, -48
	.cfi_offset 30, -40
	mov	x29, sp
	str	x0, [sp, 40]
	str	x1, [sp, 32]
	str	x2, [sp, 24]
	ldr	x0, [sp, 24]
	lsl	x0, x0, 4
	mov	x1, x0
	ldr	x0, [sp, 32]
	bl	_ZdlPvm
	ldp	x29, x30, [sp], 48
	.cfi_restore 30
	.cfi_restore 29
	.cfi_def_cfa_offset 0
	ret
	.cfi_endproc
.LFE3041:
	.size	_ZN9__gnu_cxx13new_allocatorINSt8__detail10_Hash_nodeIcLb0EEEE10deallocateEPS3_m, .-_ZN9__gnu_cxx13new_allocatorINSt8__detail10_Hash_nodeIcLb0EEEE10deallocateEPS3_m
	.section	.text._ZSt11__addressofIPNSt8__detail15_Hash_node_baseEEPT_RS3_,"axG",@progbits,_ZSt11__addressofIPNSt8__detail15_Hash_node_baseEEPT_RS3_,comdat
	.align	2
	.weak	_ZSt11__addressofIPNSt8__detail15_Hash_node_baseEEPT_RS3_
	.type	_ZSt11__addressofIPNSt8__detail15_Hash_node_baseEEPT_RS3_, %function
_ZSt11__addressofIPNSt8__detail15_Hash_node_baseEEPT_RS3_:
.LFB3042:
	.cfi_startproc
	sub	sp, sp, #16
	.cfi_def_cfa_offset 16
	str	x0, [sp, 8]
	ldr	x0, [sp, 8]
	add	sp, sp, 16
	.cfi_def_cfa_offset 0
	ret
	.cfi_endproc
.LFE3042:
	.size	_ZSt11__addressofIPNSt8__detail15_Hash_node_baseEEPT_RS3_, .-_ZSt11__addressofIPNSt8__detail15_Hash_node_baseEEPT_RS3_
	.section	.text._ZSt11__addressofINSt8__detail10_Hash_nodeIcLb0EEEEPT_RS3_,"axG",@progbits,_ZSt11__addressofINSt8__detail10_Hash_nodeIcLb0EEEEPT_RS3_,comdat
	.align	2
	.weak	_ZSt11__addressofINSt8__detail10_Hash_nodeIcLb0EEEEPT_RS3_
	.type	_ZSt11__addressofINSt8__detail10_Hash_nodeIcLb0EEEEPT_RS3_, %function
_ZSt11__addressofINSt8__detail10_Hash_nodeIcLb0EEEEPT_RS3_:
.LFB3045:
	.cfi_startproc
	sub	sp, sp, #16
	.cfi_def_cfa_offset 16
	str	x0, [sp, 8]
	ldr	x0, [sp, 8]
	add	sp, sp, 16
	.cfi_def_cfa_offset 0
	ret
	.cfi_endproc
.LFE3045:
	.size	_ZSt11__addressofINSt8__detail10_Hash_nodeIcLb0EEEEPT_RS3_, .-_ZSt11__addressofINSt8__detail10_Hash_nodeIcLb0EEEEPT_RS3_
	.text
	.align	2
	.type	_Z41__static_initialization_and_destruction_0ii, %function
_Z41__static_initialization_and_destruction_0ii:
.LFB3046:
	.cfi_startproc
	stp	x29, x30, [sp, -32]!
	.cfi_def_cfa_offset 32
	.cfi_offset 29, -32
	.cfi_offset 30, -24
	mov	x29, sp
	str	w0, [sp, 28]
	str	w1, [sp, 24]
	ldr	w0, [sp, 28]
	cmp	w0, 1
	bne	.L121
	ldr	w1, [sp, 24]
	mov	w0, 65535
	cmp	w1, w0
	bne	.L121
	adrp	x0, _ZStL8__ioinit
	add	x0, x0, :lo12:_ZStL8__ioinit
	bl	_ZNSt8ios_base4InitC1Ev
	adrp	x0, __dso_handle
	add	x2, x0, :lo12:__dso_handle
	adrp	x0, _ZStL8__ioinit
	add	x1, x0, :lo12:_ZStL8__ioinit
	adrp	x0, :got:_ZNSt8ios_base4InitD1Ev
	ldr	x0, [x0, #:got_lo12:_ZNSt8ios_base4InitD1Ev]
	bl	__cxa_atexit
.L121:
	nop
	ldp	x29, x30, [sp], 32
	.cfi_restore 30
	.cfi_restore 29
	.cfi_def_cfa_offset 0
	ret
	.cfi_endproc
.LFE3046:
	.size	_Z41__static_initialization_and_destruction_0ii, .-_Z41__static_initialization_and_destruction_0ii
	.align	2
	.type	_GLOBAL__sub_I_main, %function
_GLOBAL__sub_I_main:
.LFB3047:
	.cfi_startproc
	stp	x29, x30, [sp, -16]!
	.cfi_def_cfa_offset 16
	.cfi_offset 29, -16
	.cfi_offset 30, -8
	mov	x29, sp
	mov	w1, 65535
	mov	w0, 1
	bl	_Z41__static_initialization_and_destruction_0ii
	ldp	x29, x30, [sp], 16
	.cfi_restore 30
	.cfi_restore 29
	.cfi_def_cfa_offset 0
	ret
	.cfi_endproc
.LFE3047:
	.size	_GLOBAL__sub_I_main, .-_GLOBAL__sub_I_main
	.section	.init_array,"aw"
	.align	3
	.xword	_GLOBAL__sub_I_main
	.hidden	DW.ref.__gxx_personality_v0
	.weak	DW.ref.__gxx_personality_v0
	.section	.data.rel.local.DW.ref.__gxx_personality_v0,"awG",@progbits,DW.ref.__gxx_personality_v0,comdat
	.align	3
	.type	DW.ref.__gxx_personality_v0, %object
	.size	DW.ref.__gxx_personality_v0, 8
DW.ref.__gxx_personality_v0:
	.xword	__gxx_personality_v0
	.hidden	__dso_handle
	.ident	"GCC: (Ubuntu 11.3.0-1ubuntu1~22.04) 11.3.0"
	.section	.note.GNU-stack,"",@progbits
