	.arch armv8-a
	.file	"ProcessBuilder.cpp"
	.text
	.section	.text._ZSt17__size_to_integerm,"axG",@progbits,_ZSt17__size_to_integerm,comdat
	.align	2
	.weak	_ZSt17__size_to_integerm
	.type	_ZSt17__size_to_integerm, %function
_ZSt17__size_to_integerm:
.LFB298:
	.cfi_startproc
	sub	sp, sp, #16
	.cfi_def_cfa_offset 16
	str	x0, [sp, 8]
	ldr	x0, [sp, 8]
	add	sp, sp, 16
	.cfi_def_cfa_offset 0
	ret
	.cfi_endproc
.LFE298:
	.size	_ZSt17__size_to_integerm, .-_ZSt17__size_to_integerm
	.section	.text._ZNSt9exceptionC2Ev,"axG",@progbits,_ZNSt9exceptionC5Ev,comdat
	.align	2
	.weak	_ZNSt9exceptionC2Ev
	.type	_ZNSt9exceptionC2Ev, %function
_ZNSt9exceptionC2Ev:
.LFB356:
	.cfi_startproc
	sub	sp, sp, #16
	.cfi_def_cfa_offset 16
	str	x0, [sp, 8]
	adrp	x0, :got:_ZTVSt9exception
	ldr	x0, [x0, #:got_lo12:_ZTVSt9exception]
	add	x1, x0, 16
	ldr	x0, [sp, 8]
	str	x1, [x0]
	nop
	add	sp, sp, 16
	.cfi_def_cfa_offset 0
	ret
	.cfi_endproc
.LFE356:
	.size	_ZNSt9exceptionC2Ev, .-_ZNSt9exceptionC2Ev
	.weak	_ZNSt9exceptionC1Ev
	.set	_ZNSt9exceptionC1Ev,_ZNSt9exceptionC2Ev
	.section	.text._ZnwmPv,"axG",@progbits,_ZnwmPv,comdat
	.align	2
	.weak	_ZnwmPv
	.type	_ZnwmPv, %function
_ZnwmPv:
.LFB364:
	.cfi_startproc
	sub	sp, sp, #16
	.cfi_def_cfa_offset 16
	str	x0, [sp, 8]
	str	x1, [sp]
	ldr	x0, [sp]
	add	sp, sp, 16
	.cfi_def_cfa_offset 0
	ret
	.cfi_endproc
.LFE364:
	.size	_ZnwmPv, .-_ZnwmPv
	.section	.text._ZdlPvS_,"axG",@progbits,_ZdlPvS_,comdat
	.align	2
	.weak	_ZdlPvS_
	.type	_ZdlPvS_, %function
_ZdlPvS_:
.LFB366:
	.cfi_startproc
	sub	sp, sp, #16
	.cfi_def_cfa_offset 16
	str	x0, [sp, 8]
	str	x1, [sp]
	nop
	add	sp, sp, 16
	.cfi_def_cfa_offset 0
	ret
	.cfi_endproc
.LFE366:
	.size	_ZdlPvS_, .-_ZdlPvS_
	.section	.text._ZNSt11char_traitsIcE6lengthEPKc,"axG",@progbits,_ZNSt11char_traitsIcE6lengthEPKc,comdat
	.align	2
	.weak	_ZNSt11char_traitsIcE6lengthEPKc
	.type	_ZNSt11char_traitsIcE6lengthEPKc, %function
_ZNSt11char_traitsIcE6lengthEPKc:
.LFB897:
	.cfi_startproc
	stp	x29, x30, [sp, -48]!
	.cfi_def_cfa_offset 48
	.cfi_offset 29, -48
	.cfi_offset 30, -40
	mov	x29, sp
	str	x0, [sp, 24]
	ldr	x0, [sp, 24]
	str	x0, [sp, 40]
	mov	w0, 0
	cmp	w0, 0
	beq	.L9
	ldr	x0, [sp, 24]
	bl	_ZN9__gnu_cxx11char_traitsIcE6lengthEPKc
	b	.L10
.L9:
	ldr	x0, [sp, 24]
	bl	strlen
	nop
.L10:
	ldp	x29, x30, [sp], 48
	.cfi_restore 30
	.cfi_restore 29
	.cfi_def_cfa_offset 0
	ret
	.cfi_endproc
.LFE897:
	.size	_ZNSt11char_traitsIcE6lengthEPKc, .-_ZNSt11char_traitsIcE6lengthEPKc
	.section	.text._ZNSt7__cxx119to_stringEi,"axG",@progbits,_ZNSt7__cxx119to_stringEi,comdat
	.align	2
	.weak	_ZNSt7__cxx119to_stringEi
	.type	_ZNSt7__cxx119to_stringEi, %function
_ZNSt7__cxx119to_stringEi:
.LFB1440:
	.cfi_startproc
	.cfi_personality 0x9b,DW.ref.__gxx_personality_v0
	.cfi_lsda 0x1b,.LLSDA1440
	stp	x29, x30, [sp, -80]!
	.cfi_def_cfa_offset 80
	.cfi_offset 29, -80
	.cfi_offset 30, -72
	mov	x29, sp
	stp	x19, x20, [sp, 16]
	.cfi_offset 19, -64
	.cfi_offset 20, -56
	mov	x19, x8
	str	w0, [sp, 44]
	adrp	x0, :got:__stack_chk_guard
	ldr	x0, [x0, #:got_lo12:__stack_chk_guard]
	ldr	x1, [x0]
	str	x1, [sp, 72]
	mov	x1, 0
	ldr	w0, [sp, 44]
	lsr	w0, w0, 31
	strb	w0, [sp, 63]
	ldrb	w0, [sp, 63]
	cmp	w0, 0
	beq	.L12
	ldr	w0, [sp, 44]
	neg	w0, w0
	b	.L13
.L12:
	ldr	w0, [sp, 44]
.L13:
	str	w0, [sp, 64]
	mov	w1, 10
	ldr	w0, [sp, 64]
	bl	_ZNSt8__detail14__to_chars_lenIjEEjT_i
	str	w0, [sp, 68]
	ldrb	w1, [sp, 63]
	ldr	w0, [sp, 68]
	add	w0, w1, w0
	uxtw	x20, w0
	add	x0, sp, 56
	bl	_ZNSaIcEC1Ev
	add	x0, sp, 56
	mov	x3, x0
	mov	w2, 45
	mov	x1, x20
	mov	x0, x19
.LEHB0:
	bl	_ZNSt7__cxx1112basic_stringIcSt11char_traitsIcESaIcEEC1IS3_EEmcRKS3_
.LEHE0:
	add	x0, sp, 56
	bl	_ZNSaIcED1Ev
	ldrb	w0, [sp, 63]
	mov	x1, x0
	mov	x0, x19
.LEHB1:
	bl	_ZNSt7__cxx1112basic_stringIcSt11char_traitsIcESaIcEEixEm
.LEHE1:
	ldr	w2, [sp, 64]
	ldr	w1, [sp, 68]
	bl	_ZNSt8__detail18__to_chars_10_implIjEEvPcjT_
	nop
	adrp	x0, :got:__stack_chk_guard
	ldr	x0, [x0, #:got_lo12:__stack_chk_guard]
	ldr	x2, [sp, 72]
	ldr	x1, [x0]
	subs	x2, x2, x1
	mov	x1, 0
	beq	.L17
	b	.L20
.L18:
	mov	x19, x0
	add	x0, sp, 56
	bl	_ZNSaIcED1Ev
	mov	x0, x19
.LEHB2:
	bl	_Unwind_Resume
.L19:
	mov	x20, x0
	mov	x0, x19
	bl	_ZNSt7__cxx1112basic_stringIcSt11char_traitsIcESaIcEED1Ev
	mov	x0, x20
	bl	_Unwind_Resume
.LEHE2:
.L20:
	bl	__stack_chk_fail
.L17:
	mov	x0, x19
	ldp	x19, x20, [sp, 16]
	ldp	x29, x30, [sp], 80
	.cfi_restore 30
	.cfi_restore 29
	.cfi_restore 19
	.cfi_restore 20
	.cfi_def_cfa_offset 0
	ret
	.cfi_endproc
.LFE1440:
	.global	__gxx_personality_v0
	.section	.gcc_except_table._ZNSt7__cxx119to_stringEi,"aG",@progbits,_ZNSt7__cxx119to_stringEi,comdat
.LLSDA1440:
	.byte	0xff
	.byte	0xff
	.byte	0x1
	.uleb128 .LLSDACSE1440-.LLSDACSB1440
.LLSDACSB1440:
	.uleb128 .LEHB0-.LFB1440
	.uleb128 .LEHE0-.LEHB0
	.uleb128 .L18-.LFB1440
	.uleb128 0
	.uleb128 .LEHB1-.LFB1440
	.uleb128 .LEHE1-.LEHB1
	.uleb128 .L19-.LFB1440
	.uleb128 0
	.uleb128 .LEHB2-.LFB1440
	.uleb128 .LEHE2-.LEHB2
	.uleb128 0
	.uleb128 0
.LLSDACSE1440:
	.section	.text._ZNSt7__cxx119to_stringEi,"axG",@progbits,_ZNSt7__cxx119to_stringEi,comdat
	.size	_ZNSt7__cxx119to_stringEi, .-_ZNSt7__cxx119to_stringEi
	.section	.text._ZNSt8__detail14__to_chars_lenIjEEjT_i,"axG",@progbits,_ZNSt8__detail14__to_chars_lenIjEEjT_i,comdat
	.align	2
	.weak	_ZNSt8__detail14__to_chars_lenIjEEjT_i
	.type	_ZNSt8__detail14__to_chars_lenIjEEjT_i, %function
_ZNSt8__detail14__to_chars_lenIjEEjT_i:
.LFB1442:
	.cfi_startproc
	sub	sp, sp, #48
	.cfi_def_cfa_offset 48
	str	w0, [sp, 12]
	str	w1, [sp, 8]
	mov	w0, 1
	str	w0, [sp, 28]
	ldr	w0, [sp, 8]
	mul	w0, w0, w0
	str	w0, [sp, 32]
	ldr	w0, [sp, 8]
	ldr	w1, [sp, 32]
	mul	w0, w1, w0
	str	w0, [sp, 36]
	ldr	w1, [sp, 8]
	ldr	w0, [sp, 36]
	mul	w0, w1, w0
	uxtw	x0, w0
	str	x0, [sp, 40]
.L27:
	ldr	w0, [sp, 8]
	ldr	w1, [sp, 12]
	cmp	w1, w0
	bcs	.L22
	ldr	w0, [sp, 28]
	b	.L23
.L22:
	ldr	w1, [sp, 12]
	ldr	w0, [sp, 32]
	cmp	w1, w0
	bcs	.L24
	ldr	w0, [sp, 28]
	add	w0, w0, 1
	b	.L23
.L24:
	ldr	w1, [sp, 12]
	ldr	w0, [sp, 36]
	cmp	w1, w0
	bcs	.L25
	ldr	w0, [sp, 28]
	add	w0, w0, 2
	b	.L23
.L25:
	ldr	w0, [sp, 12]
	ldr	x1, [sp, 40]
	cmp	x1, x0
	bls	.L26
	ldr	w0, [sp, 28]
	add	w0, w0, 3
	b	.L23
.L26:
	ldr	w1, [sp, 12]
	ldr	x0, [sp, 40]
	udiv	x0, x1, x0
	str	w0, [sp, 12]
	ldr	w0, [sp, 28]
	add	w0, w0, 4
	str	w0, [sp, 28]
	b	.L27
.L23:
	add	sp, sp, 48
	.cfi_def_cfa_offset 0
	ret
	.cfi_endproc
.LFE1442:
	.size	_ZNSt8__detail14__to_chars_lenIjEEjT_i, .-_ZNSt8__detail14__to_chars_lenIjEEjT_i
	.section	.text._ZNSt18_Rb_tree_node_base10_S_minimumEPS_,"axG",@progbits,_ZNSt18_Rb_tree_node_base10_S_minimumEPS_,comdat
	.align	2
	.weak	_ZNSt18_Rb_tree_node_base10_S_minimumEPS_
	.type	_ZNSt18_Rb_tree_node_base10_S_minimumEPS_, %function
_ZNSt18_Rb_tree_node_base10_S_minimumEPS_:
.LFB1553:
	.cfi_startproc
	sub	sp, sp, #16
	.cfi_def_cfa_offset 16
	str	x0, [sp, 8]
	b	.L29
.L30:
	ldr	x0, [sp, 8]
	ldr	x0, [x0, 16]
	str	x0, [sp, 8]
.L29:
	ldr	x0, [sp, 8]
	ldr	x0, [x0, 16]
	cmp	x0, 0
	bne	.L30
	ldr	x0, [sp, 8]
	add	sp, sp, 16
	.cfi_def_cfa_offset 0
	ret
	.cfi_endproc
.LFE1553:
	.size	_ZNSt18_Rb_tree_node_base10_S_minimumEPS_, .-_ZNSt18_Rb_tree_node_base10_S_minimumEPS_
	.section	.text._ZNSt18_Rb_tree_node_base10_S_maximumEPS_,"axG",@progbits,_ZNSt18_Rb_tree_node_base10_S_maximumEPS_,comdat
	.align	2
	.weak	_ZNSt18_Rb_tree_node_base10_S_maximumEPS_
	.type	_ZNSt18_Rb_tree_node_base10_S_maximumEPS_, %function
_ZNSt18_Rb_tree_node_base10_S_maximumEPS_:
.LFB1555:
	.cfi_startproc
	sub	sp, sp, #16
	.cfi_def_cfa_offset 16
	str	x0, [sp, 8]
	b	.L33
.L34:
	ldr	x0, [sp, 8]
	ldr	x0, [x0, 24]
	str	x0, [sp, 8]
.L33:
	ldr	x0, [sp, 8]
	ldr	x0, [x0, 24]
	cmp	x0, 0
	bne	.L34
	ldr	x0, [sp, 8]
	add	sp, sp, 16
	.cfi_def_cfa_offset 0
	ret
	.cfi_endproc
.LFE1555:
	.size	_ZNSt18_Rb_tree_node_base10_S_maximumEPS_, .-_ZNSt18_Rb_tree_node_base10_S_maximumEPS_
	.section	.text._ZNSt15_Rb_tree_headerC2Ev,"axG",@progbits,_ZNSt15_Rb_tree_headerC5Ev,comdat
	.align	2
	.weak	_ZNSt15_Rb_tree_headerC2Ev
	.type	_ZNSt15_Rb_tree_headerC2Ev, %function
_ZNSt15_Rb_tree_headerC2Ev:
.LFB1561:
	.cfi_startproc
	stp	x29, x30, [sp, -32]!
	.cfi_def_cfa_offset 32
	.cfi_offset 29, -32
	.cfi_offset 30, -24
	mov	x29, sp
	str	x0, [sp, 24]
	ldr	x0, [sp, 24]
	str	wzr, [x0]
	ldr	x0, [sp, 24]
	bl	_ZNSt15_Rb_tree_header8_M_resetEv
	nop
	ldp	x29, x30, [sp], 32
	.cfi_restore 30
	.cfi_restore 29
	.cfi_def_cfa_offset 0
	ret
	.cfi_endproc
.LFE1561:
	.size	_ZNSt15_Rb_tree_headerC2Ev, .-_ZNSt15_Rb_tree_headerC2Ev
	.weak	_ZNSt15_Rb_tree_headerC1Ev
	.set	_ZNSt15_Rb_tree_headerC1Ev,_ZNSt15_Rb_tree_headerC2Ev
	.section	.text._ZNSt15_Rb_tree_headerC2EOS_,"axG",@progbits,_ZNSt15_Rb_tree_headerC5EOS_,comdat
	.align	2
	.weak	_ZNSt15_Rb_tree_headerC2EOS_
	.type	_ZNSt15_Rb_tree_headerC2EOS_, %function
_ZNSt15_Rb_tree_headerC2EOS_:
.LFB1564:
	.cfi_startproc
	.cfi_personality 0x9b,DW.ref.__gxx_personality_v0
	.cfi_lsda 0x1b,.LLSDA1564
	stp	x29, x30, [sp, -32]!
	.cfi_def_cfa_offset 32
	.cfi_offset 29, -32
	.cfi_offset 30, -24
	mov	x29, sp
	str	x0, [sp, 24]
	str	x1, [sp, 16]
	ldr	x0, [sp, 16]
	ldr	x0, [x0, 8]
	cmp	x0, 0
	beq	.L38
	ldr	x1, [sp, 16]
	ldr	x0, [sp, 24]
	bl	_ZNSt15_Rb_tree_header12_M_move_dataERS_
	b	.L40
.L38:
	ldr	x0, [sp, 24]
	str	wzr, [x0]
	ldr	x0, [sp, 24]
	bl	_ZNSt15_Rb_tree_header8_M_resetEv
.L40:
	nop
	ldp	x29, x30, [sp], 32
	.cfi_restore 30
	.cfi_restore 29
	.cfi_def_cfa_offset 0
	ret
	.cfi_endproc
.LFE1564:
	.section	.gcc_except_table._ZNSt15_Rb_tree_headerC2EOS_,"aG",@progbits,_ZNSt15_Rb_tree_headerC5EOS_,comdat
.LLSDA1564:
	.byte	0xff
	.byte	0xff
	.byte	0x1
	.uleb128 .LLSDACSE1564-.LLSDACSB1564
.LLSDACSB1564:
.LLSDACSE1564:
	.section	.text._ZNSt15_Rb_tree_headerC2EOS_,"axG",@progbits,_ZNSt15_Rb_tree_headerC5EOS_,comdat
	.size	_ZNSt15_Rb_tree_headerC2EOS_, .-_ZNSt15_Rb_tree_headerC2EOS_
	.weak	_ZNSt15_Rb_tree_headerC1EOS_
	.set	_ZNSt15_Rb_tree_headerC1EOS_,_ZNSt15_Rb_tree_headerC2EOS_
	.section	.text._ZNSt15_Rb_tree_header12_M_move_dataERS_,"axG",@progbits,_ZNSt15_Rb_tree_header12_M_move_dataERS_,comdat
	.align	2
	.weak	_ZNSt15_Rb_tree_header12_M_move_dataERS_
	.type	_ZNSt15_Rb_tree_header12_M_move_dataERS_, %function
_ZNSt15_Rb_tree_header12_M_move_dataERS_:
.LFB1566:
	.cfi_startproc
	stp	x29, x30, [sp, -32]!
	.cfi_def_cfa_offset 32
	.cfi_offset 29, -32
	.cfi_offset 30, -24
	mov	x29, sp
	str	x0, [sp, 24]
	str	x1, [sp, 16]
	ldr	x0, [sp, 16]
	ldr	w1, [x0]
	ldr	x0, [sp, 24]
	str	w1, [x0]
	ldr	x0, [sp, 16]
	ldr	x1, [x0, 8]
	ldr	x0, [sp, 24]
	str	x1, [x0, 8]
	ldr	x0, [sp, 16]
	ldr	x1, [x0, 16]
	ldr	x0, [sp, 24]
	str	x1, [x0, 16]
	ldr	x0, [sp, 16]
	ldr	x1, [x0, 24]
	ldr	x0, [sp, 24]
	str	x1, [x0, 24]
	ldr	x0, [sp, 24]
	ldr	x0, [x0, 8]
	ldr	x1, [sp, 24]
	str	x1, [x0, 8]
	ldr	x0, [sp, 16]
	ldr	x1, [x0, 32]
	ldr	x0, [sp, 24]
	str	x1, [x0, 32]
	ldr	x0, [sp, 16]
	bl	_ZNSt15_Rb_tree_header8_M_resetEv
	nop
	ldp	x29, x30, [sp], 32
	.cfi_restore 30
	.cfi_restore 29
	.cfi_def_cfa_offset 0
	ret
	.cfi_endproc
.LFE1566:
	.size	_ZNSt15_Rb_tree_header12_M_move_dataERS_, .-_ZNSt15_Rb_tree_header12_M_move_dataERS_
	.section	.text._ZNSt15_Rb_tree_header8_M_resetEv,"axG",@progbits,_ZNSt15_Rb_tree_header8_M_resetEv,comdat
	.align	2
	.weak	_ZNSt15_Rb_tree_header8_M_resetEv
	.type	_ZNSt15_Rb_tree_header8_M_resetEv, %function
_ZNSt15_Rb_tree_header8_M_resetEv:
.LFB1567:
	.cfi_startproc
	sub	sp, sp, #16
	.cfi_def_cfa_offset 16
	str	x0, [sp, 8]
	ldr	x0, [sp, 8]
	str	xzr, [x0, 8]
	ldr	x1, [sp, 8]
	ldr	x0, [sp, 8]
	str	x1, [x0, 16]
	ldr	x1, [sp, 8]
	ldr	x0, [sp, 8]
	str	x1, [x0, 24]
	ldr	x0, [sp, 8]
	str	xzr, [x0, 32]
	nop
	add	sp, sp, 16
	.cfi_def_cfa_offset 0
	ret
	.cfi_endproc
.LFE1567:
	.size	_ZNSt15_Rb_tree_header8_M_resetEv, .-_ZNSt15_Rb_tree_header8_M_resetEv
	.section	.rodata
	.type	_ZN10subprocessL8kIsWin32E, %object
	.size	_ZN10subprocessL8kIsWin32E, 1
_ZN10subprocessL8kIsWin32E:
	.zero	1
	.type	_ZN10subprocessL14kPathDelimiterE, %object
	.size	_ZN10subprocessL14kPathDelimiterE, 1
_ZN10subprocessL14kPathDelimiterE:
	.byte	58
	.align	2
	.type	_ZN10subprocessL13kBadPipeValueE, %object
	.size	_ZN10subprocessL13kBadPipeValueE, 4
_ZN10subprocessL13kBadPipeValueE:
	.word	-1
	.align	2
	.type	_ZN10subprocessL11kStdInValueE, %object
	.size	_ZN10subprocessL11kStdInValueE, 4
_ZN10subprocessL11kStdInValueE:
	.zero	4
	.align	2
	.type	_ZN10subprocessL12kStdOutValueE, %object
	.size	_ZN10subprocessL12kStdOutValueE, 4
_ZN10subprocessL12kStdOutValueE:
	.word	1
	.align	2
	.type	_ZN10subprocessL12kStdErrValueE, %object
	.size	_ZN10subprocessL12kStdErrValueE, 4
_ZN10subprocessL12kStdErrValueE:
	.word	2
	.align	2
	.type	_ZN10subprocessL14kBadReturnCodeE, %object
	.size	_ZN10subprocessL14kBadReturnCodeE, 4
_ZN10subprocessL14kBadReturnCodeE:
	.word	-1000
	.section	.text._ZNKSt18bad_variant_access4whatEv,"axG",@progbits,_ZNKSt18bad_variant_access4whatEv,comdat
	.align	2
	.weak	_ZNKSt18bad_variant_access4whatEv
	.type	_ZNKSt18bad_variant_access4whatEv, %function
_ZNKSt18bad_variant_access4whatEv:
.LFB2333:
	.cfi_startproc
	sub	sp, sp, #16
	.cfi_def_cfa_offset 16
	str	x0, [sp, 8]
	ldr	x0, [sp, 8]
	ldr	x0, [x0, 8]
	add	sp, sp, 16
	.cfi_def_cfa_offset 0
	ret
	.cfi_endproc
.LFE2333:
	.size	_ZNKSt18bad_variant_access4whatEv, .-_ZNKSt18bad_variant_access4whatEv
	.section	.text._ZNSt18bad_variant_accessC2EPKc,"axG",@progbits,_ZNSt18bad_variant_accessC5EPKc,comdat
	.align	2
	.weak	_ZNSt18bad_variant_accessC2EPKc
	.type	_ZNSt18bad_variant_accessC2EPKc, %function
_ZNSt18bad_variant_accessC2EPKc:
.LFB2335:
	.cfi_startproc
	stp	x29, x30, [sp, -32]!
	.cfi_def_cfa_offset 32
	.cfi_offset 29, -32
	.cfi_offset 30, -24
	mov	x29, sp
	str	x0, [sp, 24]
	str	x1, [sp, 16]
	ldr	x0, [sp, 24]
	bl	_ZNSt9exceptionC2Ev
	adrp	x0, _ZTVSt18bad_variant_access+16
	add	x1, x0, :lo12:_ZTVSt18bad_variant_access+16
	ldr	x0, [sp, 24]
	str	x1, [x0]
	ldr	x0, [sp, 24]
	ldr	x1, [sp, 16]
	str	x1, [x0, 8]
	nop
	ldp	x29, x30, [sp], 32
	.cfi_restore 30
	.cfi_restore 29
	.cfi_def_cfa_offset 0
	ret
	.cfi_endproc
.LFE2335:
	.size	_ZNSt18bad_variant_accessC2EPKc, .-_ZNSt18bad_variant_accessC2EPKc
	.weak	_ZNSt18bad_variant_accessC1EPKc
	.set	_ZNSt18bad_variant_accessC1EPKc,_ZNSt18bad_variant_accessC2EPKc
	.section	.text._ZSt26__throw_bad_variant_accessPKc,"axG",@progbits,_ZSt26__throw_bad_variant_accessPKc,comdat
	.align	2
	.weak	_ZSt26__throw_bad_variant_accessPKc
	.type	_ZSt26__throw_bad_variant_accessPKc, %function
_ZSt26__throw_bad_variant_accessPKc:
.LFB2337:
	.cfi_startproc
	stp	x29, x30, [sp, -48]!
	.cfi_def_cfa_offset 48
	.cfi_offset 29, -48
	.cfi_offset 30, -40
	mov	x29, sp
	str	x19, [sp, 16]
	.cfi_offset 19, -32
	str	x0, [sp, 40]
	mov	x0, 16
	bl	__cxa_allocate_exception
	mov	x19, x0
	ldr	x1, [sp, 40]
	mov	x0, x19
	bl	_ZNSt18bad_variant_accessC1EPKc
	adrp	x0, _ZNSt18bad_variant_accessD1Ev
	add	x2, x0, :lo12:_ZNSt18bad_variant_accessD1Ev
	adrp	x0, _ZTISt18bad_variant_access
	add	x1, x0, :lo12:_ZTISt18bad_variant_access
	mov	x0, x19
	bl	__cxa_throw
	.cfi_endproc
.LFE2337:
	.size	_ZSt26__throw_bad_variant_accessPKc, .-_ZSt26__throw_bad_variant_accessPKc
	.section	.rodata
	.align	3
.LC0:
	.string	"std::get: variant is valueless"
	.align	3
.LC1:
	.string	"std::get: wrong index for variant"
	.section	.text._ZSt26__throw_bad_variant_accessb,"axG",@progbits,_ZSt26__throw_bad_variant_accessb,comdat
	.align	2
	.weak	_ZSt26__throw_bad_variant_accessb
	.type	_ZSt26__throw_bad_variant_accessb, %function
_ZSt26__throw_bad_variant_accessb:
.LFB2338:
	.cfi_startproc
	stp	x29, x30, [sp, -32]!
	.cfi_def_cfa_offset 32
	.cfi_offset 29, -32
	.cfi_offset 30, -24
	mov	x29, sp
	strb	w0, [sp, 31]
	ldrb	w0, [sp, 31]
	cmp	w0, 0
	beq	.L48
	adrp	x0, .LC0
	add	x0, x0, :lo12:.LC0
	bl	_ZSt26__throw_bad_variant_accessPKc
	b	.L50
.L48:
	adrp	x0, .LC1
	add	x0, x0, :lo12:.LC1
	bl	_ZSt26__throw_bad_variant_accessPKc
.L50:
	nop
	ldp	x29, x30, [sp], 32
	.cfi_restore 30
	.cfi_restore 29
	.cfi_def_cfa_offset 0
	ret
	.cfi_endproc
.LFE2338:
	.size	_ZSt26__throw_bad_variant_accessb, .-_ZSt26__throw_bad_variant_accessb
	.local	_ZStL8__ioinit
	.comm	_ZStL8__ioinit,1,8
	.section	.text._ZNKSt7variantIJN10subprocess10PipeOptionENSt7__cxx1112basic_stringIcSt11char_traitsIcESaIcEEEiPSiPSoP8_IO_FILEEE5indexEv,"axG",@progbits,_ZNKSt7variantIJN10subprocess10PipeOptionENSt7__cxx1112basic_stringIcSt11char_traitsIcESaIcEEEiPSiPSoP8_IO_FILEEE5indexEv,comdat
	.align	2
	.weak	_ZNKSt7variantIJN10subprocess10PipeOptionENSt7__cxx1112basic_stringIcSt11char_traitsIcESaIcEEEiPSiPSoP8_IO_FILEEE5indexEv
	.type	_ZNKSt7variantIJN10subprocess10PipeOptionENSt7__cxx1112basic_stringIcSt11char_traitsIcESaIcEEEiPSiPSoP8_IO_FILEEE5indexEv, %function
_ZNKSt7variantIJN10subprocess10PipeOptionENSt7__cxx1112basic_stringIcSt11char_traitsIcESaIcEEEiPSiPSoP8_IO_FILEEE5indexEv:
.LFB2889:
	.cfi_startproc
	sub	sp, sp, #16
	.cfi_def_cfa_offset 16
	str	x0, [sp, 8]
	ldr	x0, [sp, 8]
	ldrb	w0, [x0, 32]
	and	x0, x0, 255
	add	sp, sp, 16
	.cfi_def_cfa_offset 0
	ret
	.cfi_endproc
.LFE2889:
	.size	_ZNKSt7variantIJN10subprocess10PipeOptionENSt7__cxx1112basic_stringIcSt11char_traitsIcESaIcEEEiPSiPSoP8_IO_FILEEE5indexEv, .-_ZNKSt7variantIJN10subprocess10PipeOptionENSt7__cxx1112basic_stringIcSt11char_traitsIcESaIcEEEiPSiPSoP8_IO_FILEEE5indexEv
	.section	.text._ZN10subprocess15get_pipe_optionERKSt7variantIJNS_10PipeOptionENSt7__cxx1112basic_stringIcSt11char_traitsIcESaIcEEEiPSiPSoP8_IO_FILEEE,"axG",@progbits,_ZN10subprocess15get_pipe_optionERKSt7variantIJNS_10PipeOptionENSt7__cxx1112basic_stringIcSt11char_traitsIcESaIcEEEiPSiPSoP8_IO_FILEEE,comdat
	.align	2
	.weak	_ZN10subprocess15get_pipe_optionERKSt7variantIJNS_10PipeOptionENSt7__cxx1112basic_stringIcSt11char_traitsIcESaIcEEEiPSiPSoP8_IO_FILEEE
	.type	_ZN10subprocess15get_pipe_optionERKSt7variantIJNS_10PipeOptionENSt7__cxx1112basic_stringIcSt11char_traitsIcESaIcEEEiPSiPSoP8_IO_FILEEE, %function
_ZN10subprocess15get_pipe_optionERKSt7variantIJNS_10PipeOptionENSt7__cxx1112basic_stringIcSt11char_traitsIcESaIcEEEiPSiPSoP8_IO_FILEEE:
.LFB2879:
	.cfi_startproc
	stp	x29, x30, [sp, -48]!
	.cfi_def_cfa_offset 48
	.cfi_offset 29, -48
	.cfi_offset 30, -40
	mov	x29, sp
	str	x0, [sp, 24]
	ldr	x0, [sp, 24]
	bl	_ZNKSt7variantIJN10subprocess10PipeOptionENSt7__cxx1112basic_stringIcSt11char_traitsIcESaIcEEEiPSiPSoP8_IO_FILEEE5indexEv
	str	w0, [sp, 44]
	ldr	w0, [sp, 44]
	cmp	w0, 0
	beq	.L54
	ldr	w0, [sp, 44]
	cmp	w0, 2
	beq	.L55
	b	.L58
.L54:
	ldr	x0, [sp, 24]
	bl	_ZSt3getIN10subprocess10PipeOptionEJS1_NSt7__cxx1112basic_stringIcSt11char_traitsIcESaIcEEEiPSiPSoP8_IO_FILEEERKT_RKSt7variantIJDpT0_EE
	ldr	w0, [x0]
	b	.L57
.L55:
	mov	w0, 3
	b	.L57
.L58:
	mov	w0, 4
.L57:
	ldp	x29, x30, [sp], 48
	.cfi_restore 30
	.cfi_restore 29
	.cfi_def_cfa_offset 0
	ret
	.cfi_endproc
.LFE2879:
	.size	_ZN10subprocess15get_pipe_optionERKSt7variantIJNS_10PipeOptionENSt7__cxx1112basic_stringIcSt11char_traitsIcESaIcEEEiPSiPSoP8_IO_FILEEE, .-_ZN10subprocess15get_pipe_optionERKSt7variantIJNS_10PipeOptionENSt7__cxx1112basic_stringIcSt11char_traitsIcESaIcEEEiPSiPSoP8_IO_FILEEE
	.section	.text._ZNSt8__detail9__variant15_Copy_ctor_baseILb0EJN10subprocess10PipeOptionENSt7__cxx1112basic_stringIcSt11char_traitsIcESaIcEEEiPSiPSoP8_IO_FILEEED2Ev,"axG",@progbits,_ZNSt8__detail9__variant15_Copy_ctor_baseILb0EJN10subprocess10PipeOptionENSt7__cxx1112basic_stringIcSt11char_traitsIcESaIcEEEiPSiPSoP8_IO_FILEEED5Ev,comdat
	.align	2
	.weak	_ZNSt8__detail9__variant15_Copy_ctor_baseILb0EJN10subprocess10PipeOptionENSt7__cxx1112basic_stringIcSt11char_traitsIcESaIcEEEiPSiPSoP8_IO_FILEEED2Ev
	.type	_ZNSt8__detail9__variant15_Copy_ctor_baseILb0EJN10subprocess10PipeOptionENSt7__cxx1112basic_stringIcSt11char_traitsIcESaIcEEEiPSiPSoP8_IO_FILEEED2Ev, %function
_ZNSt8__detail9__variant15_Copy_ctor_baseILb0EJN10subprocess10PipeOptionENSt7__cxx1112basic_stringIcSt11char_traitsIcESaIcEEEiPSiPSoP8_IO_FILEEED2Ev:
.LFB2897:
	.cfi_startproc
	stp	x29, x30, [sp, -32]!
	.cfi_def_cfa_offset 32
	.cfi_offset 29, -32
	.cfi_offset 30, -24
	mov	x29, sp
	str	x0, [sp, 24]
	ldr	x0, [sp, 24]
	bl	_ZNSt8__detail9__variant16_Variant_storageILb0EJN10subprocess10PipeOptionENSt7__cxx1112basic_stringIcSt11char_traitsIcESaIcEEEiPSiPSoP8_IO_FILEEED2Ev
	nop
	ldp	x29, x30, [sp], 32
	.cfi_restore 30
	.cfi_restore 29
	.cfi_def_cfa_offset 0
	ret
	.cfi_endproc
.LFE2897:
	.size	_ZNSt8__detail9__variant15_Copy_ctor_baseILb0EJN10subprocess10PipeOptionENSt7__cxx1112basic_stringIcSt11char_traitsIcESaIcEEEiPSiPSoP8_IO_FILEEED2Ev, .-_ZNSt8__detail9__variant15_Copy_ctor_baseILb0EJN10subprocess10PipeOptionENSt7__cxx1112basic_stringIcSt11char_traitsIcESaIcEEEiPSiPSoP8_IO_FILEEED2Ev
	.weak	_ZNSt8__detail9__variant15_Copy_ctor_baseILb0EJN10subprocess10PipeOptionENSt7__cxx1112basic_stringIcSt11char_traitsIcESaIcEEEiPSiPSoP8_IO_FILEEED1Ev
	.set	_ZNSt8__detail9__variant15_Copy_ctor_baseILb0EJN10subprocess10PipeOptionENSt7__cxx1112basic_stringIcSt11char_traitsIcESaIcEEEiPSiPSoP8_IO_FILEEED1Ev,_ZNSt8__detail9__variant15_Copy_ctor_baseILb0EJN10subprocess10PipeOptionENSt7__cxx1112basic_stringIcSt11char_traitsIcESaIcEEEiPSiPSoP8_IO_FILEEED2Ev
	.section	.text._ZNSt8__detail9__variant15_Move_ctor_baseILb0EJN10subprocess10PipeOptionENSt7__cxx1112basic_stringIcSt11char_traitsIcESaIcEEEiPSiPSoP8_IO_FILEEED2Ev,"axG",@progbits,_ZNSt8__detail9__variant15_Move_ctor_baseILb0EJN10subprocess10PipeOptionENSt7__cxx1112basic_stringIcSt11char_traitsIcESaIcEEEiPSiPSoP8_IO_FILEEED5Ev,comdat
	.align	2
	.weak	_ZNSt8__detail9__variant15_Move_ctor_baseILb0EJN10subprocess10PipeOptionENSt7__cxx1112basic_stringIcSt11char_traitsIcESaIcEEEiPSiPSoP8_IO_FILEEED2Ev
	.type	_ZNSt8__detail9__variant15_Move_ctor_baseILb0EJN10subprocess10PipeOptionENSt7__cxx1112basic_stringIcSt11char_traitsIcESaIcEEEiPSiPSoP8_IO_FILEEED2Ev, %function
_ZNSt8__detail9__variant15_Move_ctor_baseILb0EJN10subprocess10PipeOptionENSt7__cxx1112basic_stringIcSt11char_traitsIcESaIcEEEiPSiPSoP8_IO_FILEEED2Ev:
.LFB2899:
	.cfi_startproc
	stp	x29, x30, [sp, -32]!
	.cfi_def_cfa_offset 32
	.cfi_offset 29, -32
	.cfi_offset 30, -24
	mov	x29, sp
	str	x0, [sp, 24]
	ldr	x0, [sp, 24]
	bl	_ZNSt8__detail9__variant15_Copy_ctor_baseILb0EJN10subprocess10PipeOptionENSt7__cxx1112basic_stringIcSt11char_traitsIcESaIcEEEiPSiPSoP8_IO_FILEEED2Ev
	nop
	ldp	x29, x30, [sp], 32
	.cfi_restore 30
	.cfi_restore 29
	.cfi_def_cfa_offset 0
	ret
	.cfi_endproc
.LFE2899:
	.size	_ZNSt8__detail9__variant15_Move_ctor_baseILb0EJN10subprocess10PipeOptionENSt7__cxx1112basic_stringIcSt11char_traitsIcESaIcEEEiPSiPSoP8_IO_FILEEED2Ev, .-_ZNSt8__detail9__variant15_Move_ctor_baseILb0EJN10subprocess10PipeOptionENSt7__cxx1112basic_stringIcSt11char_traitsIcESaIcEEEiPSiPSoP8_IO_FILEEED2Ev
	.weak	_ZNSt8__detail9__variant15_Move_ctor_baseILb0EJN10subprocess10PipeOptionENSt7__cxx1112basic_stringIcSt11char_traitsIcESaIcEEEiPSiPSoP8_IO_FILEEED1Ev
	.set	_ZNSt8__detail9__variant15_Move_ctor_baseILb0EJN10subprocess10PipeOptionENSt7__cxx1112basic_stringIcSt11char_traitsIcESaIcEEEiPSiPSoP8_IO_FILEEED1Ev,_ZNSt8__detail9__variant15_Move_ctor_baseILb0EJN10subprocess10PipeOptionENSt7__cxx1112basic_stringIcSt11char_traitsIcESaIcEEEiPSiPSoP8_IO_FILEEED2Ev
	.section	.text._ZNSt8__detail9__variant17_Copy_assign_baseILb0EJN10subprocess10PipeOptionENSt7__cxx1112basic_stringIcSt11char_traitsIcESaIcEEEiPSiPSoP8_IO_FILEEED2Ev,"axG",@progbits,_ZNSt8__detail9__variant17_Copy_assign_baseILb0EJN10subprocess10PipeOptionENSt7__cxx1112basic_stringIcSt11char_traitsIcESaIcEEEiPSiPSoP8_IO_FILEEED5Ev,comdat
	.align	2
	.weak	_ZNSt8__detail9__variant17_Copy_assign_baseILb0EJN10subprocess10PipeOptionENSt7__cxx1112basic_stringIcSt11char_traitsIcESaIcEEEiPSiPSoP8_IO_FILEEED2Ev
	.type	_ZNSt8__detail9__variant17_Copy_assign_baseILb0EJN10subprocess10PipeOptionENSt7__cxx1112basic_stringIcSt11char_traitsIcESaIcEEEiPSiPSoP8_IO_FILEEED2Ev, %function
_ZNSt8__detail9__variant17_Copy_assign_baseILb0EJN10subprocess10PipeOptionENSt7__cxx1112basic_stringIcSt11char_traitsIcESaIcEEEiPSiPSoP8_IO_FILEEED2Ev:
.LFB2901:
	.cfi_startproc
	stp	x29, x30, [sp, -32]!
	.cfi_def_cfa_offset 32
	.cfi_offset 29, -32
	.cfi_offset 30, -24
	mov	x29, sp
	str	x0, [sp, 24]
	ldr	x0, [sp, 24]
	bl	_ZNSt8__detail9__variant15_Move_ctor_baseILb0EJN10subprocess10PipeOptionENSt7__cxx1112basic_stringIcSt11char_traitsIcESaIcEEEiPSiPSoP8_IO_FILEEED2Ev
	nop
	ldp	x29, x30, [sp], 32
	.cfi_restore 30
	.cfi_restore 29
	.cfi_def_cfa_offset 0
	ret
	.cfi_endproc
.LFE2901:
	.size	_ZNSt8__detail9__variant17_Copy_assign_baseILb0EJN10subprocess10PipeOptionENSt7__cxx1112basic_stringIcSt11char_traitsIcESaIcEEEiPSiPSoP8_IO_FILEEED2Ev, .-_ZNSt8__detail9__variant17_Copy_assign_baseILb0EJN10subprocess10PipeOptionENSt7__cxx1112basic_stringIcSt11char_traitsIcESaIcEEEiPSiPSoP8_IO_FILEEED2Ev
	.weak	_ZNSt8__detail9__variant17_Copy_assign_baseILb0EJN10subprocess10PipeOptionENSt7__cxx1112basic_stringIcSt11char_traitsIcESaIcEEEiPSiPSoP8_IO_FILEEED1Ev
	.set	_ZNSt8__detail9__variant17_Copy_assign_baseILb0EJN10subprocess10PipeOptionENSt7__cxx1112basic_stringIcSt11char_traitsIcESaIcEEEiPSiPSoP8_IO_FILEEED1Ev,_ZNSt8__detail9__variant17_Copy_assign_baseILb0EJN10subprocess10PipeOptionENSt7__cxx1112basic_stringIcSt11char_traitsIcESaIcEEEiPSiPSoP8_IO_FILEEED2Ev
	.section	.text._ZNSt8__detail9__variant17_Move_assign_baseILb0EJN10subprocess10PipeOptionENSt7__cxx1112basic_stringIcSt11char_traitsIcESaIcEEEiPSiPSoP8_IO_FILEEED2Ev,"axG",@progbits,_ZNSt8__detail9__variant17_Move_assign_baseILb0EJN10subprocess10PipeOptionENSt7__cxx1112basic_stringIcSt11char_traitsIcESaIcEEEiPSiPSoP8_IO_FILEEED5Ev,comdat
	.align	2
	.weak	_ZNSt8__detail9__variant17_Move_assign_baseILb0EJN10subprocess10PipeOptionENSt7__cxx1112basic_stringIcSt11char_traitsIcESaIcEEEiPSiPSoP8_IO_FILEEED2Ev
	.type	_ZNSt8__detail9__variant17_Move_assign_baseILb0EJN10subprocess10PipeOptionENSt7__cxx1112basic_stringIcSt11char_traitsIcESaIcEEEiPSiPSoP8_IO_FILEEED2Ev, %function
_ZNSt8__detail9__variant17_Move_assign_baseILb0EJN10subprocess10PipeOptionENSt7__cxx1112basic_stringIcSt11char_traitsIcESaIcEEEiPSiPSoP8_IO_FILEEED2Ev:
.LFB2903:
	.cfi_startproc
	stp	x29, x30, [sp, -32]!
	.cfi_def_cfa_offset 32
	.cfi_offset 29, -32
	.cfi_offset 30, -24
	mov	x29, sp
	str	x0, [sp, 24]
	ldr	x0, [sp, 24]
	bl	_ZNSt8__detail9__variant17_Copy_assign_baseILb0EJN10subprocess10PipeOptionENSt7__cxx1112basic_stringIcSt11char_traitsIcESaIcEEEiPSiPSoP8_IO_FILEEED2Ev
	nop
	ldp	x29, x30, [sp], 32
	.cfi_restore 30
	.cfi_restore 29
	.cfi_def_cfa_offset 0
	ret
	.cfi_endproc
.LFE2903:
	.size	_ZNSt8__detail9__variant17_Move_assign_baseILb0EJN10subprocess10PipeOptionENSt7__cxx1112basic_stringIcSt11char_traitsIcESaIcEEEiPSiPSoP8_IO_FILEEED2Ev, .-_ZNSt8__detail9__variant17_Move_assign_baseILb0EJN10subprocess10PipeOptionENSt7__cxx1112basic_stringIcSt11char_traitsIcESaIcEEEiPSiPSoP8_IO_FILEEED2Ev
	.weak	_ZNSt8__detail9__variant17_Move_assign_baseILb0EJN10subprocess10PipeOptionENSt7__cxx1112basic_stringIcSt11char_traitsIcESaIcEEEiPSiPSoP8_IO_FILEEED1Ev
	.set	_ZNSt8__detail9__variant17_Move_assign_baseILb0EJN10subprocess10PipeOptionENSt7__cxx1112basic_stringIcSt11char_traitsIcESaIcEEEiPSiPSoP8_IO_FILEEED1Ev,_ZNSt8__detail9__variant17_Move_assign_baseILb0EJN10subprocess10PipeOptionENSt7__cxx1112basic_stringIcSt11char_traitsIcESaIcEEEiPSiPSoP8_IO_FILEEED2Ev
	.section	.text._ZNSt8__detail9__variant13_Variant_baseIJN10subprocess10PipeOptionENSt7__cxx1112basic_stringIcSt11char_traitsIcESaIcEEEiPSiPSoP8_IO_FILEEED2Ev,"axG",@progbits,_ZNSt8__detail9__variant13_Variant_baseIJN10subprocess10PipeOptionENSt7__cxx1112basic_stringIcSt11char_traitsIcESaIcEEEiPSiPSoP8_IO_FILEEED5Ev,comdat
	.align	2
	.weak	_ZNSt8__detail9__variant13_Variant_baseIJN10subprocess10PipeOptionENSt7__cxx1112basic_stringIcSt11char_traitsIcESaIcEEEiPSiPSoP8_IO_FILEEED2Ev
	.type	_ZNSt8__detail9__variant13_Variant_baseIJN10subprocess10PipeOptionENSt7__cxx1112basic_stringIcSt11char_traitsIcESaIcEEEiPSiPSoP8_IO_FILEEED2Ev, %function
_ZNSt8__detail9__variant13_Variant_baseIJN10subprocess10PipeOptionENSt7__cxx1112basic_stringIcSt11char_traitsIcESaIcEEEiPSiPSoP8_IO_FILEEED2Ev:
.LFB2905:
	.cfi_startproc
	stp	x29, x30, [sp, -32]!
	.cfi_def_cfa_offset 32
	.cfi_offset 29, -32
	.cfi_offset 30, -24
	mov	x29, sp
	str	x0, [sp, 24]
	ldr	x0, [sp, 24]
	bl	_ZNSt8__detail9__variant17_Move_assign_baseILb0EJN10subprocess10PipeOptionENSt7__cxx1112basic_stringIcSt11char_traitsIcESaIcEEEiPSiPSoP8_IO_FILEEED2Ev
	nop
	ldp	x29, x30, [sp], 32
	.cfi_restore 30
	.cfi_restore 29
	.cfi_def_cfa_offset 0
	ret
	.cfi_endproc
.LFE2905:
	.size	_ZNSt8__detail9__variant13_Variant_baseIJN10subprocess10PipeOptionENSt7__cxx1112basic_stringIcSt11char_traitsIcESaIcEEEiPSiPSoP8_IO_FILEEED2Ev, .-_ZNSt8__detail9__variant13_Variant_baseIJN10subprocess10PipeOptionENSt7__cxx1112basic_stringIcSt11char_traitsIcESaIcEEEiPSiPSoP8_IO_FILEEED2Ev
	.weak	_ZNSt8__detail9__variant13_Variant_baseIJN10subprocess10PipeOptionENSt7__cxx1112basic_stringIcSt11char_traitsIcESaIcEEEiPSiPSoP8_IO_FILEEED1Ev
	.set	_ZNSt8__detail9__variant13_Variant_baseIJN10subprocess10PipeOptionENSt7__cxx1112basic_stringIcSt11char_traitsIcESaIcEEEiPSiPSoP8_IO_FILEEED1Ev,_ZNSt8__detail9__variant13_Variant_baseIJN10subprocess10PipeOptionENSt7__cxx1112basic_stringIcSt11char_traitsIcESaIcEEEiPSiPSoP8_IO_FILEEED2Ev
	.section	.text._ZNSt7variantIJN10subprocess10PipeOptionENSt7__cxx1112basic_stringIcSt11char_traitsIcESaIcEEEiPSiPSoP8_IO_FILEEED2Ev,"axG",@progbits,_ZNSt7variantIJN10subprocess10PipeOptionENSt7__cxx1112basic_stringIcSt11char_traitsIcESaIcEEEiPSiPSoP8_IO_FILEEED5Ev,comdat
	.align	2
	.weak	_ZNSt7variantIJN10subprocess10PipeOptionENSt7__cxx1112basic_stringIcSt11char_traitsIcESaIcEEEiPSiPSoP8_IO_FILEEED2Ev
	.type	_ZNSt7variantIJN10subprocess10PipeOptionENSt7__cxx1112basic_stringIcSt11char_traitsIcESaIcEEEiPSiPSoP8_IO_FILEEED2Ev, %function
_ZNSt7variantIJN10subprocess10PipeOptionENSt7__cxx1112basic_stringIcSt11char_traitsIcESaIcEEEiPSiPSoP8_IO_FILEEED2Ev:
.LFB2907:
	.cfi_startproc
	stp	x29, x30, [sp, -32]!
	.cfi_def_cfa_offset 32
	.cfi_offset 29, -32
	.cfi_offset 30, -24
	mov	x29, sp
	str	x0, [sp, 24]
	ldr	x0, [sp, 24]
	bl	_ZNSt8__detail9__variant13_Variant_baseIJN10subprocess10PipeOptionENSt7__cxx1112basic_stringIcSt11char_traitsIcESaIcEEEiPSiPSoP8_IO_FILEEED2Ev
	nop
	ldp	x29, x30, [sp], 32
	.cfi_restore 30
	.cfi_restore 29
	.cfi_def_cfa_offset 0
	ret
	.cfi_endproc
.LFE2907:
	.size	_ZNSt7variantIJN10subprocess10PipeOptionENSt7__cxx1112basic_stringIcSt11char_traitsIcESaIcEEEiPSiPSoP8_IO_FILEEED2Ev, .-_ZNSt7variantIJN10subprocess10PipeOptionENSt7__cxx1112basic_stringIcSt11char_traitsIcESaIcEEEiPSiPSoP8_IO_FILEEED2Ev
	.weak	_ZNSt7variantIJN10subprocess10PipeOptionENSt7__cxx1112basic_stringIcSt11char_traitsIcESaIcEEEiPSiPSoP8_IO_FILEEED1Ev
	.set	_ZNSt7variantIJN10subprocess10PipeOptionENSt7__cxx1112basic_stringIcSt11char_traitsIcESaIcEEEiPSiPSoP8_IO_FILEEED1Ev,_ZNSt7variantIJN10subprocess10PipeOptionENSt7__cxx1112basic_stringIcSt11char_traitsIcESaIcEEEiPSiPSoP8_IO_FILEEED2Ev
	.section	.text._ZNSt12_Vector_baseINSt7__cxx1112basic_stringIcSt11char_traitsIcESaIcEEESaIS5_EE12_Vector_implD2Ev,"axG",@progbits,_ZNSt12_Vector_baseINSt7__cxx1112basic_stringIcSt11char_traitsIcESaIcEEESaIS5_EE12_Vector_implD5Ev,comdat
	.align	2
	.weak	_ZNSt12_Vector_baseINSt7__cxx1112basic_stringIcSt11char_traitsIcESaIcEEESaIS5_EE12_Vector_implD2Ev
	.type	_ZNSt12_Vector_baseINSt7__cxx1112basic_stringIcSt11char_traitsIcESaIcEEESaIS5_EE12_Vector_implD2Ev, %function
_ZNSt12_Vector_baseINSt7__cxx1112basic_stringIcSt11char_traitsIcESaIcEEESaIS5_EE12_Vector_implD2Ev:
.LFB2914:
	.cfi_startproc
	stp	x29, x30, [sp, -32]!
	.cfi_def_cfa_offset 32
	.cfi_offset 29, -32
	.cfi_offset 30, -24
	mov	x29, sp
	str	x0, [sp, 24]
	ldr	x0, [sp, 24]
	bl	_ZNSaINSt7__cxx1112basic_stringIcSt11char_traitsIcESaIcEEEED2Ev
	nop
	ldp	x29, x30, [sp], 32
	.cfi_restore 30
	.cfi_restore 29
	.cfi_def_cfa_offset 0
	ret
	.cfi_endproc
.LFE2914:
	.size	_ZNSt12_Vector_baseINSt7__cxx1112basic_stringIcSt11char_traitsIcESaIcEEESaIS5_EE12_Vector_implD2Ev, .-_ZNSt12_Vector_baseINSt7__cxx1112basic_stringIcSt11char_traitsIcESaIcEEESaIS5_EE12_Vector_implD2Ev
	.weak	_ZNSt12_Vector_baseINSt7__cxx1112basic_stringIcSt11char_traitsIcESaIcEEESaIS5_EE12_Vector_implD1Ev
	.set	_ZNSt12_Vector_baseINSt7__cxx1112basic_stringIcSt11char_traitsIcESaIcEEESaIS5_EE12_Vector_implD1Ev,_ZNSt12_Vector_baseINSt7__cxx1112basic_stringIcSt11char_traitsIcESaIcEEESaIS5_EE12_Vector_implD2Ev
	.section	.text._ZNSt12_Vector_baseINSt7__cxx1112basic_stringIcSt11char_traitsIcESaIcEEESaIS5_EEC2Ev,"axG",@progbits,_ZNSt12_Vector_baseINSt7__cxx1112basic_stringIcSt11char_traitsIcESaIcEEESaIS5_EEC5Ev,comdat
	.align	2
	.weak	_ZNSt12_Vector_baseINSt7__cxx1112basic_stringIcSt11char_traitsIcESaIcEEESaIS5_EEC2Ev
	.type	_ZNSt12_Vector_baseINSt7__cxx1112basic_stringIcSt11char_traitsIcESaIcEEESaIS5_EEC2Ev, %function
_ZNSt12_Vector_baseINSt7__cxx1112basic_stringIcSt11char_traitsIcESaIcEEESaIS5_EEC2Ev:
.LFB2916:
	.cfi_startproc
	stp	x29, x30, [sp, -32]!
	.cfi_def_cfa_offset 32
	.cfi_offset 29, -32
	.cfi_offset 30, -24
	mov	x29, sp
	str	x0, [sp, 24]
	ldr	x0, [sp, 24]
	bl	_ZNSt12_Vector_baseINSt7__cxx1112basic_stringIcSt11char_traitsIcESaIcEEESaIS5_EE12_Vector_implC1Ev
	nop
	ldp	x29, x30, [sp], 32
	.cfi_restore 30
	.cfi_restore 29
	.cfi_def_cfa_offset 0
	ret
	.cfi_endproc
.LFE2916:
	.size	_ZNSt12_Vector_baseINSt7__cxx1112basic_stringIcSt11char_traitsIcESaIcEEESaIS5_EEC2Ev, .-_ZNSt12_Vector_baseINSt7__cxx1112basic_stringIcSt11char_traitsIcESaIcEEESaIS5_EEC2Ev
	.weak	_ZNSt12_Vector_baseINSt7__cxx1112basic_stringIcSt11char_traitsIcESaIcEEESaIS5_EEC1Ev
	.set	_ZNSt12_Vector_baseINSt7__cxx1112basic_stringIcSt11char_traitsIcESaIcEEESaIS5_EEC1Ev,_ZNSt12_Vector_baseINSt7__cxx1112basic_stringIcSt11char_traitsIcESaIcEEESaIS5_EEC2Ev
	.section	.text._ZNSt6vectorINSt7__cxx1112basic_stringIcSt11char_traitsIcESaIcEEESaIS5_EEC2Ev,"axG",@progbits,_ZNSt6vectorINSt7__cxx1112basic_stringIcSt11char_traitsIcESaIcEEESaIS5_EEC5Ev,comdat
	.align	2
	.weak	_ZNSt6vectorINSt7__cxx1112basic_stringIcSt11char_traitsIcESaIcEEESaIS5_EEC2Ev
	.type	_ZNSt6vectorINSt7__cxx1112basic_stringIcSt11char_traitsIcESaIcEEESaIS5_EEC2Ev, %function
_ZNSt6vectorINSt7__cxx1112basic_stringIcSt11char_traitsIcESaIcEEESaIS5_EEC2Ev:
.LFB2918:
	.cfi_startproc
	stp	x29, x30, [sp, -32]!
	.cfi_def_cfa_offset 32
	.cfi_offset 29, -32
	.cfi_offset 30, -24
	mov	x29, sp
	str	x0, [sp, 24]
	ldr	x0, [sp, 24]
	bl	_ZNSt12_Vector_baseINSt7__cxx1112basic_stringIcSt11char_traitsIcESaIcEEESaIS5_EEC2Ev
	nop
	ldp	x29, x30, [sp], 32
	.cfi_restore 30
	.cfi_restore 29
	.cfi_def_cfa_offset 0
	ret
	.cfi_endproc
.LFE2918:
	.size	_ZNSt6vectorINSt7__cxx1112basic_stringIcSt11char_traitsIcESaIcEEESaIS5_EEC2Ev, .-_ZNSt6vectorINSt7__cxx1112basic_stringIcSt11char_traitsIcESaIcEEESaIS5_EEC2Ev
	.weak	_ZNSt6vectorINSt7__cxx1112basic_stringIcSt11char_traitsIcESaIcEEESaIS5_EEC1Ev
	.set	_ZNSt6vectorINSt7__cxx1112basic_stringIcSt11char_traitsIcESaIcEEESaIS5_EEC1Ev,_ZNSt6vectorINSt7__cxx1112basic_stringIcSt11char_traitsIcESaIcEEESaIS5_EEC2Ev
	.section	.text._ZNSt8_Rb_treeINSt7__cxx1112basic_stringIcSt11char_traitsIcESaIcEEESt4pairIKS5_S5_ESt10_Select1stIS8_ESt4lessIS5_ESaIS8_EE13_Rb_tree_implISC_Lb1EED2Ev,"axG",@progbits,_ZNSt8_Rb_treeINSt7__cxx1112basic_stringIcSt11char_traitsIcESaIcEEESt4pairIKS5_S5_ESt10_Select1stIS8_ESt4lessIS5_ESaIS8_EE13_Rb_tree_implISC_Lb1EED5Ev,comdat
	.align	2
	.weak	_ZNSt8_Rb_treeINSt7__cxx1112basic_stringIcSt11char_traitsIcESaIcEEESt4pairIKS5_S5_ESt10_Select1stIS8_ESt4lessIS5_ESaIS8_EE13_Rb_tree_implISC_Lb1EED2Ev
	.type	_ZNSt8_Rb_treeINSt7__cxx1112basic_stringIcSt11char_traitsIcESaIcEEESt4pairIKS5_S5_ESt10_Select1stIS8_ESt4lessIS5_ESaIS8_EE13_Rb_tree_implISC_Lb1EED2Ev, %function
_ZNSt8_Rb_treeINSt7__cxx1112basic_stringIcSt11char_traitsIcESaIcEEESt4pairIKS5_S5_ESt10_Select1stIS8_ESt4lessIS5_ESaIS8_EE13_Rb_tree_implISC_Lb1EED2Ev:
.LFB2936:
	.cfi_startproc
	stp	x29, x30, [sp, -32]!
	.cfi_def_cfa_offset 32
	.cfi_offset 29, -32
	.cfi_offset 30, -24
	mov	x29, sp
	str	x0, [sp, 24]
	ldr	x0, [sp, 24]
	bl	_ZNSaISt13_Rb_tree_nodeISt4pairIKNSt7__cxx1112basic_stringIcSt11char_traitsIcESaIcEEES6_EEED2Ev
	nop
	ldp	x29, x30, [sp], 32
	.cfi_restore 30
	.cfi_restore 29
	.cfi_def_cfa_offset 0
	ret
	.cfi_endproc
.LFE2936:
	.size	_ZNSt8_Rb_treeINSt7__cxx1112basic_stringIcSt11char_traitsIcESaIcEEESt4pairIKS5_S5_ESt10_Select1stIS8_ESt4lessIS5_ESaIS8_EE13_Rb_tree_implISC_Lb1EED2Ev, .-_ZNSt8_Rb_treeINSt7__cxx1112basic_stringIcSt11char_traitsIcESaIcEEESt4pairIKS5_S5_ESt10_Select1stIS8_ESt4lessIS5_ESaIS8_EE13_Rb_tree_implISC_Lb1EED2Ev
	.weak	_ZNSt8_Rb_treeINSt7__cxx1112basic_stringIcSt11char_traitsIcESaIcEEESt4pairIKS5_S5_ESt10_Select1stIS8_ESt4lessIS5_ESaIS8_EE13_Rb_tree_implISC_Lb1EED1Ev
	.set	_ZNSt8_Rb_treeINSt7__cxx1112basic_stringIcSt11char_traitsIcESaIcEEESt4pairIKS5_S5_ESt10_Select1stIS8_ESt4lessIS5_ESaIS8_EE13_Rb_tree_implISC_Lb1EED1Ev,_ZNSt8_Rb_treeINSt7__cxx1112basic_stringIcSt11char_traitsIcESaIcEEESt4pairIKS5_S5_ESt10_Select1stIS8_ESt4lessIS5_ESaIS8_EE13_Rb_tree_implISC_Lb1EED2Ev
	.section	.text._ZNSt8_Rb_treeINSt7__cxx1112basic_stringIcSt11char_traitsIcESaIcEEESt4pairIKS5_S5_ESt10_Select1stIS8_ESt4lessIS5_ESaIS8_EEC2Ev,"axG",@progbits,_ZNSt8_Rb_treeINSt7__cxx1112basic_stringIcSt11char_traitsIcESaIcEEESt4pairIKS5_S5_ESt10_Select1stIS8_ESt4lessIS5_ESaIS8_EEC5Ev,comdat
	.align	2
	.weak	_ZNSt8_Rb_treeINSt7__cxx1112basic_stringIcSt11char_traitsIcESaIcEEESt4pairIKS5_S5_ESt10_Select1stIS8_ESt4lessIS5_ESaIS8_EEC2Ev
	.type	_ZNSt8_Rb_treeINSt7__cxx1112basic_stringIcSt11char_traitsIcESaIcEEESt4pairIKS5_S5_ESt10_Select1stIS8_ESt4lessIS5_ESaIS8_EEC2Ev, %function
_ZNSt8_Rb_treeINSt7__cxx1112basic_stringIcSt11char_traitsIcESaIcEEESt4pairIKS5_S5_ESt10_Select1stIS8_ESt4lessIS5_ESaIS8_EEC2Ev:
.LFB2938:
	.cfi_startproc
	stp	x29, x30, [sp, -32]!
	.cfi_def_cfa_offset 32
	.cfi_offset 29, -32
	.cfi_offset 30, -24
	mov	x29, sp
	str	x0, [sp, 24]
	ldr	x0, [sp, 24]
	bl	_ZNSt8_Rb_treeINSt7__cxx1112basic_stringIcSt11char_traitsIcESaIcEEESt4pairIKS5_S5_ESt10_Select1stIS8_ESt4lessIS5_ESaIS8_EE13_Rb_tree_implISC_Lb1EEC1Ev
	nop
	ldp	x29, x30, [sp], 32
	.cfi_restore 30
	.cfi_restore 29
	.cfi_def_cfa_offset 0
	ret
	.cfi_endproc
.LFE2938:
	.size	_ZNSt8_Rb_treeINSt7__cxx1112basic_stringIcSt11char_traitsIcESaIcEEESt4pairIKS5_S5_ESt10_Select1stIS8_ESt4lessIS5_ESaIS8_EEC2Ev, .-_ZNSt8_Rb_treeINSt7__cxx1112basic_stringIcSt11char_traitsIcESaIcEEESt4pairIKS5_S5_ESt10_Select1stIS8_ESt4lessIS5_ESaIS8_EEC2Ev
	.weak	_ZNSt8_Rb_treeINSt7__cxx1112basic_stringIcSt11char_traitsIcESaIcEEESt4pairIKS5_S5_ESt10_Select1stIS8_ESt4lessIS5_ESaIS8_EEC1Ev
	.set	_ZNSt8_Rb_treeINSt7__cxx1112basic_stringIcSt11char_traitsIcESaIcEEESt4pairIKS5_S5_ESt10_Select1stIS8_ESt4lessIS5_ESaIS8_EEC1Ev,_ZNSt8_Rb_treeINSt7__cxx1112basic_stringIcSt11char_traitsIcESaIcEEESt4pairIKS5_S5_ESt10_Select1stIS8_ESt4lessIS5_ESaIS8_EEC2Ev
	.section	.text._ZNSt3mapINSt7__cxx1112basic_stringIcSt11char_traitsIcESaIcEEES5_St4lessIS5_ESaISt4pairIKS5_S5_EEEC2Ev,"axG",@progbits,_ZNSt3mapINSt7__cxx1112basic_stringIcSt11char_traitsIcESaIcEEES5_St4lessIS5_ESaISt4pairIKS5_S5_EEEC5Ev,comdat
	.align	2
	.weak	_ZNSt3mapINSt7__cxx1112basic_stringIcSt11char_traitsIcESaIcEEES5_St4lessIS5_ESaISt4pairIKS5_S5_EEEC2Ev
	.type	_ZNSt3mapINSt7__cxx1112basic_stringIcSt11char_traitsIcESaIcEEES5_St4lessIS5_ESaISt4pairIKS5_S5_EEEC2Ev, %function
_ZNSt3mapINSt7__cxx1112basic_stringIcSt11char_traitsIcESaIcEEES5_St4lessIS5_ESaISt4pairIKS5_S5_EEEC2Ev:
.LFB2940:
	.cfi_startproc
	stp	x29, x30, [sp, -32]!
	.cfi_def_cfa_offset 32
	.cfi_offset 29, -32
	.cfi_offset 30, -24
	mov	x29, sp
	str	x0, [sp, 24]
	ldr	x0, [sp, 24]
	bl	_ZNSt8_Rb_treeINSt7__cxx1112basic_stringIcSt11char_traitsIcESaIcEEESt4pairIKS5_S5_ESt10_Select1stIS8_ESt4lessIS5_ESaIS8_EEC1Ev
	nop
	ldp	x29, x30, [sp], 32
	.cfi_restore 30
	.cfi_restore 29
	.cfi_def_cfa_offset 0
	ret
	.cfi_endproc
.LFE2940:
	.size	_ZNSt3mapINSt7__cxx1112basic_stringIcSt11char_traitsIcESaIcEEES5_St4lessIS5_ESaISt4pairIKS5_S5_EEEC2Ev, .-_ZNSt3mapINSt7__cxx1112basic_stringIcSt11char_traitsIcESaIcEEES5_St4lessIS5_ESaISt4pairIKS5_S5_EEEC2Ev
	.weak	_ZNSt3mapINSt7__cxx1112basic_stringIcSt11char_traitsIcESaIcEEES5_St4lessIS5_ESaISt4pairIKS5_S5_EEEC1Ev
	.set	_ZNSt3mapINSt7__cxx1112basic_stringIcSt11char_traitsIcESaIcEEES5_St4lessIS5_ESaISt4pairIKS5_S5_EEEC1Ev,_ZNSt3mapINSt7__cxx1112basic_stringIcSt11char_traitsIcESaIcEEES5_St4lessIS5_ESaISt4pairIKS5_S5_EEEC2Ev
	.section	.text._ZNSt3mapINSt7__cxx1112basic_stringIcSt11char_traitsIcESaIcEEES5_St4lessIS5_ESaISt4pairIKS5_S5_EEED2Ev,"axG",@progbits,_ZNSt3mapINSt7__cxx1112basic_stringIcSt11char_traitsIcESaIcEEES5_St4lessIS5_ESaISt4pairIKS5_S5_EEED5Ev,comdat
	.align	2
	.weak	_ZNSt3mapINSt7__cxx1112basic_stringIcSt11char_traitsIcESaIcEEES5_St4lessIS5_ESaISt4pairIKS5_S5_EEED2Ev
	.type	_ZNSt3mapINSt7__cxx1112basic_stringIcSt11char_traitsIcESaIcEEES5_St4lessIS5_ESaISt4pairIKS5_S5_EEED2Ev, %function
_ZNSt3mapINSt7__cxx1112basic_stringIcSt11char_traitsIcESaIcEEES5_St4lessIS5_ESaISt4pairIKS5_S5_EEED2Ev:
.LFB2943:
	.cfi_startproc
	stp	x29, x30, [sp, -32]!
	.cfi_def_cfa_offset 32
	.cfi_offset 29, -32
	.cfi_offset 30, -24
	mov	x29, sp
	str	x0, [sp, 24]
	ldr	x0, [sp, 24]
	bl	_ZNSt8_Rb_treeINSt7__cxx1112basic_stringIcSt11char_traitsIcESaIcEEESt4pairIKS5_S5_ESt10_Select1stIS8_ESt4lessIS5_ESaIS8_EED1Ev
	nop
	ldp	x29, x30, [sp], 32
	.cfi_restore 30
	.cfi_restore 29
	.cfi_def_cfa_offset 0
	ret
	.cfi_endproc
.LFE2943:
	.size	_ZNSt3mapINSt7__cxx1112basic_stringIcSt11char_traitsIcESaIcEEES5_St4lessIS5_ESaISt4pairIKS5_S5_EEED2Ev, .-_ZNSt3mapINSt7__cxx1112basic_stringIcSt11char_traitsIcESaIcEEES5_St4lessIS5_ESaISt4pairIKS5_S5_EEED2Ev
	.weak	_ZNSt3mapINSt7__cxx1112basic_stringIcSt11char_traitsIcESaIcEEES5_St4lessIS5_ESaISt4pairIKS5_S5_EEED1Ev
	.set	_ZNSt3mapINSt7__cxx1112basic_stringIcSt11char_traitsIcESaIcEEES5_St4lessIS5_ESaISt4pairIKS5_S5_EEED1Ev,_ZNSt3mapINSt7__cxx1112basic_stringIcSt11char_traitsIcESaIcEEES5_St4lessIS5_ESaISt4pairIKS5_S5_EEED2Ev
	.section	.text._ZN10subprocess10RunOptionsD2Ev,"axG",@progbits,_ZN10subprocess10RunOptionsD5Ev,comdat
	.align	2
	.weak	_ZN10subprocess10RunOptionsD2Ev
	.type	_ZN10subprocess10RunOptionsD2Ev, %function
_ZN10subprocess10RunOptionsD2Ev:
.LFB2948:
	.cfi_startproc
	stp	x29, x30, [sp, -32]!
	.cfi_def_cfa_offset 32
	.cfi_offset 29, -32
	.cfi_offset 30, -24
	mov	x29, sp
	str	x0, [sp, 24]
	ldr	x0, [sp, 24]
	add	x0, x0, 168
	bl	_ZNSt3mapINSt7__cxx1112basic_stringIcSt11char_traitsIcESaIcEEES5_St4lessIS5_ESaISt4pairIKS5_S5_EEED1Ev
	ldr	x0, [sp, 24]
	add	x0, x0, 136
	bl	_ZNSt7__cxx1112basic_stringIcSt11char_traitsIcESaIcEED1Ev
	ldr	x0, [sp, 24]
	add	x0, x0, 88
	bl	_ZNSt7variantIJN10subprocess10PipeOptionENSt7__cxx1112basic_stringIcSt11char_traitsIcESaIcEEEiPSiPSoP8_IO_FILEEED1Ev
	ldr	x0, [sp, 24]
	add	x0, x0, 48
	bl	_ZNSt7variantIJN10subprocess10PipeOptionENSt7__cxx1112basic_stringIcSt11char_traitsIcESaIcEEEiPSiPSoP8_IO_FILEEED1Ev
	ldr	x0, [sp, 24]
	add	x0, x0, 8
	bl	_ZNSt7variantIJN10subprocess10PipeOptionENSt7__cxx1112basic_stringIcSt11char_traitsIcESaIcEEEiPSiPSoP8_IO_FILEEED1Ev
	nop
	ldp	x29, x30, [sp], 32
	.cfi_restore 30
	.cfi_restore 29
	.cfi_def_cfa_offset 0
	ret
	.cfi_endproc
.LFE2948:
	.size	_ZN10subprocess10RunOptionsD2Ev, .-_ZN10subprocess10RunOptionsD2Ev
	.weak	_ZN10subprocess10RunOptionsD1Ev
	.set	_ZN10subprocess10RunOptionsD1Ev,_ZN10subprocess10RunOptionsD2Ev
	.section	.text._ZNSt3mapINSt7__cxx1112basic_stringIcSt11char_traitsIcESaIcEEES5_St4lessIS5_ESaISt4pairIKS5_S5_EEEaSERKSC_,"axG",@progbits,_ZNSt3mapINSt7__cxx1112basic_stringIcSt11char_traitsIcESaIcEEES5_St4lessIS5_ESaISt4pairIKS5_S5_EEEaSERKSC_,comdat
	.align	2
	.weak	_ZNSt3mapINSt7__cxx1112basic_stringIcSt11char_traitsIcESaIcEEES5_St4lessIS5_ESaISt4pairIKS5_S5_EEEaSERKSC_
	.type	_ZNSt3mapINSt7__cxx1112basic_stringIcSt11char_traitsIcESaIcEEES5_St4lessIS5_ESaISt4pairIKS5_S5_EEEaSERKSC_, %function
_ZNSt3mapINSt7__cxx1112basic_stringIcSt11char_traitsIcESaIcEEES5_St4lessIS5_ESaISt4pairIKS5_S5_EEEaSERKSC_:
.LFB2967:
	.cfi_startproc
	stp	x29, x30, [sp, -32]!
	.cfi_def_cfa_offset 32
	.cfi_offset 29, -32
	.cfi_offset 30, -24
	mov	x29, sp
	str	x0, [sp, 24]
	str	x1, [sp, 16]
	ldr	x1, [sp, 16]
	ldr	x0, [sp, 24]
	bl	_ZNSt8_Rb_treeINSt7__cxx1112basic_stringIcSt11char_traitsIcESaIcEEESt4pairIKS5_S5_ESt10_Select1stIS8_ESt4lessIS5_ESaIS8_EEaSERKSE_
	ldr	x0, [sp, 24]
	ldp	x29, x30, [sp], 32
	.cfi_restore 30
	.cfi_restore 29
	.cfi_def_cfa_offset 0
	ret
	.cfi_endproc
.LFE2967:
	.size	_ZNSt3mapINSt7__cxx1112basic_stringIcSt11char_traitsIcESaIcEEES5_St4lessIS5_ESaISt4pairIKS5_S5_EEEaSERKSC_, .-_ZNSt3mapINSt7__cxx1112basic_stringIcSt11char_traitsIcESaIcEEES5_St4lessIS5_ESaISt4pairIKS5_S5_EEEaSERKSC_
	.section	.text._ZNSt8__detail9__variant15_Move_ctor_baseILb0EJN10subprocess10PipeOptionENSt7__cxx1112basic_stringIcSt11char_traitsIcESaIcEEEiPSiPSoP8_IO_FILEEEC2ERKSE_,"axG",@progbits,_ZNSt8__detail9__variant15_Move_ctor_baseILb0EJN10subprocess10PipeOptionENSt7__cxx1112basic_stringIcSt11char_traitsIcESaIcEEEiPSiPSoP8_IO_FILEEEC5ERKSE_,comdat
	.align	2
	.weak	_ZNSt8__detail9__variant15_Move_ctor_baseILb0EJN10subprocess10PipeOptionENSt7__cxx1112basic_stringIcSt11char_traitsIcESaIcEEEiPSiPSoP8_IO_FILEEEC2ERKSE_
	.type	_ZNSt8__detail9__variant15_Move_ctor_baseILb0EJN10subprocess10PipeOptionENSt7__cxx1112basic_stringIcSt11char_traitsIcESaIcEEEiPSiPSoP8_IO_FILEEEC2ERKSE_, %function
_ZNSt8__detail9__variant15_Move_ctor_baseILb0EJN10subprocess10PipeOptionENSt7__cxx1112basic_stringIcSt11char_traitsIcESaIcEEEiPSiPSoP8_IO_FILEEEC2ERKSE_:
.LFB2977:
	.cfi_startproc
	stp	x29, x30, [sp, -32]!
	.cfi_def_cfa_offset 32
	.cfi_offset 29, -32
	.cfi_offset 30, -24
	mov	x29, sp
	str	x0, [sp, 24]
	str	x1, [sp, 16]
	ldr	x0, [sp, 24]
	ldr	x1, [sp, 16]
	bl	_ZNSt8__detail9__variant15_Copy_ctor_baseILb0EJN10subprocess10PipeOptionENSt7__cxx1112basic_stringIcSt11char_traitsIcESaIcEEEiPSiPSoP8_IO_FILEEEC2ERKSE_
	nop
	ldp	x29, x30, [sp], 32
	.cfi_restore 30
	.cfi_restore 29
	.cfi_def_cfa_offset 0
	ret
	.cfi_endproc
.LFE2977:
	.size	_ZNSt8__detail9__variant15_Move_ctor_baseILb0EJN10subprocess10PipeOptionENSt7__cxx1112basic_stringIcSt11char_traitsIcESaIcEEEiPSiPSoP8_IO_FILEEEC2ERKSE_, .-_ZNSt8__detail9__variant15_Move_ctor_baseILb0EJN10subprocess10PipeOptionENSt7__cxx1112basic_stringIcSt11char_traitsIcESaIcEEEiPSiPSoP8_IO_FILEEEC2ERKSE_
	.weak	_ZNSt8__detail9__variant15_Move_ctor_baseILb0EJN10subprocess10PipeOptionENSt7__cxx1112basic_stringIcSt11char_traitsIcESaIcEEEiPSiPSoP8_IO_FILEEEC1ERKSE_
	.set	_ZNSt8__detail9__variant15_Move_ctor_baseILb0EJN10subprocess10PipeOptionENSt7__cxx1112basic_stringIcSt11char_traitsIcESaIcEEEiPSiPSoP8_IO_FILEEEC1ERKSE_,_ZNSt8__detail9__variant15_Move_ctor_baseILb0EJN10subprocess10PipeOptionENSt7__cxx1112basic_stringIcSt11char_traitsIcESaIcEEEiPSiPSoP8_IO_FILEEEC2ERKSE_
	.section	.text._ZNSt8__detail9__variant17_Copy_assign_baseILb0EJN10subprocess10PipeOptionENSt7__cxx1112basic_stringIcSt11char_traitsIcESaIcEEEiPSiPSoP8_IO_FILEEEC2ERKSE_,"axG",@progbits,_ZNSt8__detail9__variant17_Copy_assign_baseILb0EJN10subprocess10PipeOptionENSt7__cxx1112basic_stringIcSt11char_traitsIcESaIcEEEiPSiPSoP8_IO_FILEEEC5ERKSE_,comdat
	.align	2
	.weak	_ZNSt8__detail9__variant17_Copy_assign_baseILb0EJN10subprocess10PipeOptionENSt7__cxx1112basic_stringIcSt11char_traitsIcESaIcEEEiPSiPSoP8_IO_FILEEEC2ERKSE_
	.type	_ZNSt8__detail9__variant17_Copy_assign_baseILb0EJN10subprocess10PipeOptionENSt7__cxx1112basic_stringIcSt11char_traitsIcESaIcEEEiPSiPSoP8_IO_FILEEEC2ERKSE_, %function
_ZNSt8__detail9__variant17_Copy_assign_baseILb0EJN10subprocess10PipeOptionENSt7__cxx1112basic_stringIcSt11char_traitsIcESaIcEEEiPSiPSoP8_IO_FILEEEC2ERKSE_:
.LFB2979:
	.cfi_startproc
	stp	x29, x30, [sp, -32]!
	.cfi_def_cfa_offset 32
	.cfi_offset 29, -32
	.cfi_offset 30, -24
	mov	x29, sp
	str	x0, [sp, 24]
	str	x1, [sp, 16]
	ldr	x0, [sp, 24]
	ldr	x1, [sp, 16]
	bl	_ZNSt8__detail9__variant15_Move_ctor_baseILb0EJN10subprocess10PipeOptionENSt7__cxx1112basic_stringIcSt11char_traitsIcESaIcEEEiPSiPSoP8_IO_FILEEEC2ERKSE_
	nop
	ldp	x29, x30, [sp], 32
	.cfi_restore 30
	.cfi_restore 29
	.cfi_def_cfa_offset 0
	ret
	.cfi_endproc
.LFE2979:
	.size	_ZNSt8__detail9__variant17_Copy_assign_baseILb0EJN10subprocess10PipeOptionENSt7__cxx1112basic_stringIcSt11char_traitsIcESaIcEEEiPSiPSoP8_IO_FILEEEC2ERKSE_, .-_ZNSt8__detail9__variant17_Copy_assign_baseILb0EJN10subprocess10PipeOptionENSt7__cxx1112basic_stringIcSt11char_traitsIcESaIcEEEiPSiPSoP8_IO_FILEEEC2ERKSE_
	.weak	_ZNSt8__detail9__variant17_Copy_assign_baseILb0EJN10subprocess10PipeOptionENSt7__cxx1112basic_stringIcSt11char_traitsIcESaIcEEEiPSiPSoP8_IO_FILEEEC1ERKSE_
	.set	_ZNSt8__detail9__variant17_Copy_assign_baseILb0EJN10subprocess10PipeOptionENSt7__cxx1112basic_stringIcSt11char_traitsIcESaIcEEEiPSiPSoP8_IO_FILEEEC1ERKSE_,_ZNSt8__detail9__variant17_Copy_assign_baseILb0EJN10subprocess10PipeOptionENSt7__cxx1112basic_stringIcSt11char_traitsIcESaIcEEEiPSiPSoP8_IO_FILEEEC2ERKSE_
	.section	.text._ZNSt8__detail9__variant17_Move_assign_baseILb0EJN10subprocess10PipeOptionENSt7__cxx1112basic_stringIcSt11char_traitsIcESaIcEEEiPSiPSoP8_IO_FILEEEC2ERKSE_,"axG",@progbits,_ZNSt8__detail9__variant17_Move_assign_baseILb0EJN10subprocess10PipeOptionENSt7__cxx1112basic_stringIcSt11char_traitsIcESaIcEEEiPSiPSoP8_IO_FILEEEC5ERKSE_,comdat
	.align	2
	.weak	_ZNSt8__detail9__variant17_Move_assign_baseILb0EJN10subprocess10PipeOptionENSt7__cxx1112basic_stringIcSt11char_traitsIcESaIcEEEiPSiPSoP8_IO_FILEEEC2ERKSE_
	.type	_ZNSt8__detail9__variant17_Move_assign_baseILb0EJN10subprocess10PipeOptionENSt7__cxx1112basic_stringIcSt11char_traitsIcESaIcEEEiPSiPSoP8_IO_FILEEEC2ERKSE_, %function
_ZNSt8__detail9__variant17_Move_assign_baseILb0EJN10subprocess10PipeOptionENSt7__cxx1112basic_stringIcSt11char_traitsIcESaIcEEEiPSiPSoP8_IO_FILEEEC2ERKSE_:
.LFB2981:
	.cfi_startproc
	stp	x29, x30, [sp, -32]!
	.cfi_def_cfa_offset 32
	.cfi_offset 29, -32
	.cfi_offset 30, -24
	mov	x29, sp
	str	x0, [sp, 24]
	str	x1, [sp, 16]
	ldr	x0, [sp, 24]
	ldr	x1, [sp, 16]
	bl	_ZNSt8__detail9__variant17_Copy_assign_baseILb0EJN10subprocess10PipeOptionENSt7__cxx1112basic_stringIcSt11char_traitsIcESaIcEEEiPSiPSoP8_IO_FILEEEC2ERKSE_
	nop
	ldp	x29, x30, [sp], 32
	.cfi_restore 30
	.cfi_restore 29
	.cfi_def_cfa_offset 0
	ret
	.cfi_endproc
.LFE2981:
	.size	_ZNSt8__detail9__variant17_Move_assign_baseILb0EJN10subprocess10PipeOptionENSt7__cxx1112basic_stringIcSt11char_traitsIcESaIcEEEiPSiPSoP8_IO_FILEEEC2ERKSE_, .-_ZNSt8__detail9__variant17_Move_assign_baseILb0EJN10subprocess10PipeOptionENSt7__cxx1112basic_stringIcSt11char_traitsIcESaIcEEEiPSiPSoP8_IO_FILEEEC2ERKSE_
	.weak	_ZNSt8__detail9__variant17_Move_assign_baseILb0EJN10subprocess10PipeOptionENSt7__cxx1112basic_stringIcSt11char_traitsIcESaIcEEEiPSiPSoP8_IO_FILEEEC1ERKSE_
	.set	_ZNSt8__detail9__variant17_Move_assign_baseILb0EJN10subprocess10PipeOptionENSt7__cxx1112basic_stringIcSt11char_traitsIcESaIcEEEiPSiPSoP8_IO_FILEEEC1ERKSE_,_ZNSt8__detail9__variant17_Move_assign_baseILb0EJN10subprocess10PipeOptionENSt7__cxx1112basic_stringIcSt11char_traitsIcESaIcEEEiPSiPSoP8_IO_FILEEEC2ERKSE_
	.section	.text._ZNSt8__detail9__variant13_Variant_baseIJN10subprocess10PipeOptionENSt7__cxx1112basic_stringIcSt11char_traitsIcESaIcEEEiPSiPSoP8_IO_FILEEEC2ERKSE_,"axG",@progbits,_ZNSt8__detail9__variant13_Variant_baseIJN10subprocess10PipeOptionENSt7__cxx1112basic_stringIcSt11char_traitsIcESaIcEEEiPSiPSoP8_IO_FILEEEC5ERKSE_,comdat
	.align	2
	.weak	_ZNSt8__detail9__variant13_Variant_baseIJN10subprocess10PipeOptionENSt7__cxx1112basic_stringIcSt11char_traitsIcESaIcEEEiPSiPSoP8_IO_FILEEEC2ERKSE_
	.type	_ZNSt8__detail9__variant13_Variant_baseIJN10subprocess10PipeOptionENSt7__cxx1112basic_stringIcSt11char_traitsIcESaIcEEEiPSiPSoP8_IO_FILEEEC2ERKSE_, %function
_ZNSt8__detail9__variant13_Variant_baseIJN10subprocess10PipeOptionENSt7__cxx1112basic_stringIcSt11char_traitsIcESaIcEEEiPSiPSoP8_IO_FILEEEC2ERKSE_:
.LFB2983:
	.cfi_startproc
	stp	x29, x30, [sp, -32]!
	.cfi_def_cfa_offset 32
	.cfi_offset 29, -32
	.cfi_offset 30, -24
	mov	x29, sp
	str	x0, [sp, 24]
	str	x1, [sp, 16]
	ldr	x0, [sp, 24]
	ldr	x1, [sp, 16]
	bl	_ZNSt8__detail9__variant17_Move_assign_baseILb0EJN10subprocess10PipeOptionENSt7__cxx1112basic_stringIcSt11char_traitsIcESaIcEEEiPSiPSoP8_IO_FILEEEC2ERKSE_
	nop
	ldp	x29, x30, [sp], 32
	.cfi_restore 30
	.cfi_restore 29
	.cfi_def_cfa_offset 0
	ret
	.cfi_endproc
.LFE2983:
	.size	_ZNSt8__detail9__variant13_Variant_baseIJN10subprocess10PipeOptionENSt7__cxx1112basic_stringIcSt11char_traitsIcESaIcEEEiPSiPSoP8_IO_FILEEEC2ERKSE_, .-_ZNSt8__detail9__variant13_Variant_baseIJN10subprocess10PipeOptionENSt7__cxx1112basic_stringIcSt11char_traitsIcESaIcEEEiPSiPSoP8_IO_FILEEEC2ERKSE_
	.weak	_ZNSt8__detail9__variant13_Variant_baseIJN10subprocess10PipeOptionENSt7__cxx1112basic_stringIcSt11char_traitsIcESaIcEEEiPSiPSoP8_IO_FILEEEC1ERKSE_
	.set	_ZNSt8__detail9__variant13_Variant_baseIJN10subprocess10PipeOptionENSt7__cxx1112basic_stringIcSt11char_traitsIcESaIcEEEiPSiPSoP8_IO_FILEEEC1ERKSE_,_ZNSt8__detail9__variant13_Variant_baseIJN10subprocess10PipeOptionENSt7__cxx1112basic_stringIcSt11char_traitsIcESaIcEEEiPSiPSoP8_IO_FILEEEC2ERKSE_
	.section	.text._ZNSt7variantIJN10subprocess10PipeOptionENSt7__cxx1112basic_stringIcSt11char_traitsIcESaIcEEEiPSiPSoP8_IO_FILEEEC2ERKSC_,"axG",@progbits,_ZNSt7variantIJN10subprocess10PipeOptionENSt7__cxx1112basic_stringIcSt11char_traitsIcESaIcEEEiPSiPSoP8_IO_FILEEEC5ERKSC_,comdat
	.align	2
	.weak	_ZNSt7variantIJN10subprocess10PipeOptionENSt7__cxx1112basic_stringIcSt11char_traitsIcESaIcEEEiPSiPSoP8_IO_FILEEEC2ERKSC_
	.type	_ZNSt7variantIJN10subprocess10PipeOptionENSt7__cxx1112basic_stringIcSt11char_traitsIcESaIcEEEiPSiPSoP8_IO_FILEEEC2ERKSC_, %function
_ZNSt7variantIJN10subprocess10PipeOptionENSt7__cxx1112basic_stringIcSt11char_traitsIcESaIcEEEiPSiPSoP8_IO_FILEEEC2ERKSC_:
.LFB2985:
	.cfi_startproc
	stp	x29, x30, [sp, -32]!
	.cfi_def_cfa_offset 32
	.cfi_offset 29, -32
	.cfi_offset 30, -24
	mov	x29, sp
	str	x0, [sp, 24]
	str	x1, [sp, 16]
	ldr	x0, [sp, 24]
	ldr	x1, [sp, 16]
	bl	_ZNSt8__detail9__variant13_Variant_baseIJN10subprocess10PipeOptionENSt7__cxx1112basic_stringIcSt11char_traitsIcESaIcEEEiPSiPSoP8_IO_FILEEEC2ERKSE_
	nop
	ldp	x29, x30, [sp], 32
	.cfi_restore 30
	.cfi_restore 29
	.cfi_def_cfa_offset 0
	ret
	.cfi_endproc
.LFE2985:
	.size	_ZNSt7variantIJN10subprocess10PipeOptionENSt7__cxx1112basic_stringIcSt11char_traitsIcESaIcEEEiPSiPSoP8_IO_FILEEEC2ERKSC_, .-_ZNSt7variantIJN10subprocess10PipeOptionENSt7__cxx1112basic_stringIcSt11char_traitsIcESaIcEEEiPSiPSoP8_IO_FILEEEC2ERKSC_
	.weak	_ZNSt7variantIJN10subprocess10PipeOptionENSt7__cxx1112basic_stringIcSt11char_traitsIcESaIcEEEiPSiPSoP8_IO_FILEEEC1ERKSC_
	.set	_ZNSt7variantIJN10subprocess10PipeOptionENSt7__cxx1112basic_stringIcSt11char_traitsIcESaIcEEEiPSiPSoP8_IO_FILEEEC1ERKSC_,_ZNSt7variantIJN10subprocess10PipeOptionENSt7__cxx1112basic_stringIcSt11char_traitsIcESaIcEEEiPSiPSoP8_IO_FILEEEC2ERKSC_
	.section	.text._ZNSt3mapINSt7__cxx1112basic_stringIcSt11char_traitsIcESaIcEEES5_St4lessIS5_ESaISt4pairIKS5_S5_EEEC2ERKSC_,"axG",@progbits,_ZNSt3mapINSt7__cxx1112basic_stringIcSt11char_traitsIcESaIcEEES5_St4lessIS5_ESaISt4pairIKS5_S5_EEEC5ERKSC_,comdat
	.align	2
	.weak	_ZNSt3mapINSt7__cxx1112basic_stringIcSt11char_traitsIcESaIcEEES5_St4lessIS5_ESaISt4pairIKS5_S5_EEEC2ERKSC_
	.type	_ZNSt3mapINSt7__cxx1112basic_stringIcSt11char_traitsIcESaIcEEES5_St4lessIS5_ESaISt4pairIKS5_S5_EEEC2ERKSC_, %function
_ZNSt3mapINSt7__cxx1112basic_stringIcSt11char_traitsIcESaIcEEES5_St4lessIS5_ESaISt4pairIKS5_S5_EEEC2ERKSC_:
.LFB2988:
	.cfi_startproc
	stp	x29, x30, [sp, -32]!
	.cfi_def_cfa_offset 32
	.cfi_offset 29, -32
	.cfi_offset 30, -24
	mov	x29, sp
	str	x0, [sp, 24]
	str	x1, [sp, 16]
	ldr	x0, [sp, 24]
	ldr	x1, [sp, 16]
	bl	_ZNSt8_Rb_treeINSt7__cxx1112basic_stringIcSt11char_traitsIcESaIcEEESt4pairIKS5_S5_ESt10_Select1stIS8_ESt4lessIS5_ESaIS8_EEC1ERKSE_
	nop
	ldp	x29, x30, [sp], 32
	.cfi_restore 30
	.cfi_restore 29
	.cfi_def_cfa_offset 0
	ret
	.cfi_endproc
.LFE2988:
	.size	_ZNSt3mapINSt7__cxx1112basic_stringIcSt11char_traitsIcESaIcEEES5_St4lessIS5_ESaISt4pairIKS5_S5_EEEC2ERKSC_, .-_ZNSt3mapINSt7__cxx1112basic_stringIcSt11char_traitsIcESaIcEEES5_St4lessIS5_ESaISt4pairIKS5_S5_EEEC2ERKSC_
	.weak	_ZNSt3mapINSt7__cxx1112basic_stringIcSt11char_traitsIcESaIcEEES5_St4lessIS5_ESaISt4pairIKS5_S5_EEEC1ERKSC_
	.set	_ZNSt3mapINSt7__cxx1112basic_stringIcSt11char_traitsIcESaIcEEES5_St4lessIS5_ESaISt4pairIKS5_S5_EEEC1ERKSC_,_ZNSt3mapINSt7__cxx1112basic_stringIcSt11char_traitsIcESaIcEEES5_St4lessIS5_ESaISt4pairIKS5_S5_EEEC2ERKSC_
	.section	.text._ZN10subprocess10RunOptionsC2ERKS0_,"axG",@progbits,_ZN10subprocess10RunOptionsC5ERKS0_,comdat
	.align	2
	.weak	_ZN10subprocess10RunOptionsC2ERKS0_
	.type	_ZN10subprocess10RunOptionsC2ERKS0_, %function
_ZN10subprocess10RunOptionsC2ERKS0_:
.LFB2990:
	.cfi_startproc
	.cfi_personality 0x9b,DW.ref.__gxx_personality_v0
	.cfi_lsda 0x1b,.LLSDA2990
	stp	x29, x30, [sp, -48]!
	.cfi_def_cfa_offset 48
	.cfi_offset 29, -48
	.cfi_offset 30, -40
	mov	x29, sp
	str	x19, [sp, 16]
	.cfi_offset 19, -32
	str	x0, [sp, 40]
	str	x1, [sp, 32]
	ldr	x0, [sp, 32]
	ldrb	w1, [x0]
	ldr	x0, [sp, 40]
	strb	w1, [x0]
	ldr	x0, [sp, 40]
	add	x2, x0, 8
	ldr	x0, [sp, 32]
	add	x0, x0, 8
	mov	x1, x0
	mov	x0, x2
.LEHB3:
	bl	_ZNSt7variantIJN10subprocess10PipeOptionENSt7__cxx1112basic_stringIcSt11char_traitsIcESaIcEEEiPSiPSoP8_IO_FILEEEC1ERKSC_
.LEHE3:
	ldr	x0, [sp, 40]
	add	x2, x0, 48
	ldr	x0, [sp, 32]
	add	x0, x0, 48
	mov	x1, x0
	mov	x0, x2
.LEHB4:
	bl	_ZNSt7variantIJN10subprocess10PipeOptionENSt7__cxx1112basic_stringIcSt11char_traitsIcESaIcEEEiPSiPSoP8_IO_FILEEEC1ERKSC_
.LEHE4:
	ldr	x0, [sp, 40]
	add	x2, x0, 88
	ldr	x0, [sp, 32]
	add	x0, x0, 88
	mov	x1, x0
	mov	x0, x2
.LEHB5:
	bl	_ZNSt7variantIJN10subprocess10PipeOptionENSt7__cxx1112basic_stringIcSt11char_traitsIcESaIcEEEiPSiPSoP8_IO_FILEEEC1ERKSC_
.LEHE5:
	ldr	x0, [sp, 32]
	ldrb	w1, [x0, 128]
	ldr	x0, [sp, 40]
	strb	w1, [x0, 128]
	ldr	x0, [sp, 40]
	add	x2, x0, 136
	ldr	x0, [sp, 32]
	add	x0, x0, 136
	mov	x1, x0
	mov	x0, x2
.LEHB6:
	bl	_ZNSt7__cxx1112basic_stringIcSt11char_traitsIcESaIcEEC1ERKS4_
.LEHE6:
	ldr	x0, [sp, 40]
	add	x2, x0, 168
	ldr	x0, [sp, 32]
	add	x0, x0, 168
	mov	x1, x0
	mov	x0, x2
.LEHB7:
	bl	_ZNSt3mapINSt7__cxx1112basic_stringIcSt11char_traitsIcESaIcEEES5_St4lessIS5_ESaISt4pairIKS5_S5_EEEC1ERKSC_
.LEHE7:
	ldr	x0, [sp, 32]
	ldr	d0, [x0, 216]
	ldr	x0, [sp, 40]
	str	d0, [x0, 216]
	b	.L90
.L89:
	mov	x19, x0
	ldr	x0, [sp, 40]
	add	x0, x0, 136
	bl	_ZNSt7__cxx1112basic_stringIcSt11char_traitsIcESaIcEED1Ev
	b	.L83
.L88:
	mov	x19, x0
.L83:
	ldr	x0, [sp, 40]
	add	x0, x0, 88
	bl	_ZNSt7variantIJN10subprocess10PipeOptionENSt7__cxx1112basic_stringIcSt11char_traitsIcESaIcEEEiPSiPSoP8_IO_FILEEED1Ev
	b	.L84
.L87:
	mov	x19, x0
.L84:
	ldr	x0, [sp, 40]
	add	x0, x0, 48
	bl	_ZNSt7variantIJN10subprocess10PipeOptionENSt7__cxx1112basic_stringIcSt11char_traitsIcESaIcEEEiPSiPSoP8_IO_FILEEED1Ev
	b	.L85
.L86:
	mov	x19, x0
.L85:
	ldr	x0, [sp, 40]
	add	x0, x0, 8
	bl	_ZNSt7variantIJN10subprocess10PipeOptionENSt7__cxx1112basic_stringIcSt11char_traitsIcESaIcEEEiPSiPSoP8_IO_FILEEED1Ev
	mov	x0, x19
.LEHB8:
	bl	_Unwind_Resume
.LEHE8:
.L90:
	ldr	x19, [sp, 16]
	ldp	x29, x30, [sp], 48
	.cfi_restore 30
	.cfi_restore 29
	.cfi_restore 19
	.cfi_def_cfa_offset 0
	ret
	.cfi_endproc
.LFE2990:
	.section	.gcc_except_table._ZN10subprocess10RunOptionsC2ERKS0_,"aG",@progbits,_ZN10subprocess10RunOptionsC5ERKS0_,comdat
.LLSDA2990:
	.byte	0xff
	.byte	0xff
	.byte	0x1
	.uleb128 .LLSDACSE2990-.LLSDACSB2990
.LLSDACSB2990:
	.uleb128 .LEHB3-.LFB2990
	.uleb128 .LEHE3-.LEHB3
	.uleb128 0
	.uleb128 0
	.uleb128 .LEHB4-.LFB2990
	.uleb128 .LEHE4-.LEHB4
	.uleb128 .L86-.LFB2990
	.uleb128 0
	.uleb128 .LEHB5-.LFB2990
	.uleb128 .LEHE5-.LEHB5
	.uleb128 .L87-.LFB2990
	.uleb128 0
	.uleb128 .LEHB6-.LFB2990
	.uleb128 .LEHE6-.LEHB6
	.uleb128 .L88-.LFB2990
	.uleb128 0
	.uleb128 .LEHB7-.LFB2990
	.uleb128 .LEHE7-.LEHB7
	.uleb128 .L89-.LFB2990
	.uleb128 0
	.uleb128 .LEHB8-.LFB2990
	.uleb128 .LEHE8-.LEHB8
	.uleb128 0
	.uleb128 0
.LLSDACSE2990:
	.section	.text._ZN10subprocess10RunOptionsC2ERKS0_,"axG",@progbits,_ZN10subprocess10RunOptionsC5ERKS0_,comdat
	.size	_ZN10subprocess10RunOptionsC2ERKS0_, .-_ZN10subprocess10RunOptionsC2ERKS0_
	.weak	_ZN10subprocess10RunOptionsC1ERKS0_
	.set	_ZN10subprocess10RunOptionsC1ERKS0_,_ZN10subprocess10RunOptionsC2ERKS0_
	.section	.text._ZN10subprocess16CompletedProcessD2Ev,"axG",@progbits,_ZN10subprocess16CompletedProcessD5Ev,comdat
	.align	2
	.weak	_ZN10subprocess16CompletedProcessD2Ev
	.type	_ZN10subprocess16CompletedProcessD2Ev, %function
_ZN10subprocess16CompletedProcessD2Ev:
.LFB2994:
	.cfi_startproc
	stp	x29, x30, [sp, -32]!
	.cfi_def_cfa_offset 32
	.cfi_offset 29, -32
	.cfi_offset 30, -24
	mov	x29, sp
	str	x0, [sp, 24]
	ldr	x0, [sp, 24]
	add	x0, x0, 64
	bl	_ZNSt7__cxx1112basic_stringIcSt11char_traitsIcESaIcEED1Ev
	ldr	x0, [sp, 24]
	add	x0, x0, 32
	bl	_ZNSt7__cxx1112basic_stringIcSt11char_traitsIcESaIcEED1Ev
	ldr	x0, [sp, 24]
	bl	_ZNSt6vectorINSt7__cxx1112basic_stringIcSt11char_traitsIcESaIcEEESaIS5_EED1Ev
	nop
	ldp	x29, x30, [sp], 32
	.cfi_restore 30
	.cfi_restore 29
	.cfi_def_cfa_offset 0
	ret
	.cfi_endproc
.LFE2994:
	.size	_ZN10subprocess16CompletedProcessD2Ev, .-_ZN10subprocess16CompletedProcessD2Ev
	.weak	_ZN10subprocess16CompletedProcessD1Ev
	.set	_ZN10subprocess16CompletedProcessD1Ev,_ZN10subprocess16CompletedProcessD2Ev
	.section	.text._ZN10subprocess9StopWatchC2Ev,"axG",@progbits,_ZN10subprocess9StopWatchC5Ev,comdat
	.align	2
	.weak	_ZN10subprocess9StopWatchC2Ev
	.type	_ZN10subprocess9StopWatchC2Ev, %function
_ZN10subprocess9StopWatchC2Ev:
.LFB2998:
	.cfi_startproc
	stp	x29, x30, [sp, -32]!
	.cfi_def_cfa_offset 32
	.cfi_offset 29, -32
	.cfi_offset 30, -24
	mov	x29, sp
	str	x0, [sp, 24]
	ldr	x0, [sp, 24]
	bl	_ZN10subprocess9StopWatch5startEv
	nop
	ldp	x29, x30, [sp], 32
	.cfi_restore 30
	.cfi_restore 29
	.cfi_def_cfa_offset 0
	ret
	.cfi_endproc
.LFE2998:
	.size	_ZN10subprocess9StopWatchC2Ev, .-_ZN10subprocess9StopWatchC2Ev
	.weak	_ZN10subprocess9StopWatchC1Ev
	.set	_ZN10subprocess9StopWatchC1Ev,_ZN10subprocess9StopWatchC2Ev
	.section	.text._ZN10subprocess9StopWatch5startEv,"axG",@progbits,_ZN10subprocess9StopWatch5startEv,comdat
	.align	2
	.weak	_ZN10subprocess9StopWatch5startEv
	.type	_ZN10subprocess9StopWatch5startEv, %function
_ZN10subprocess9StopWatch5startEv:
.LFB3000:
	.cfi_startproc
	stp	x29, x30, [sp, -32]!
	.cfi_def_cfa_offset 32
	.cfi_offset 29, -32
	.cfi_offset 30, -24
	mov	x29, sp
	str	x0, [sp, 24]
	bl	_ZN10subprocess17monotonic_secondsEv
	ldr	x0, [sp, 24]
	str	d0, [x0]
	nop
	ldp	x29, x30, [sp], 32
	.cfi_restore 30
	.cfi_restore 29
	.cfi_def_cfa_offset 0
	ret
	.cfi_endproc
.LFE3000:
	.size	_ZN10subprocess9StopWatch5startEv, .-_ZN10subprocess9StopWatch5startEv
	.section	.text._ZNK10subprocess9StopWatch7secondsEv,"axG",@progbits,_ZNK10subprocess9StopWatch7secondsEv,comdat
	.align	2
	.weak	_ZNK10subprocess9StopWatch7secondsEv
	.type	_ZNK10subprocess9StopWatch7secondsEv, %function
_ZNK10subprocess9StopWatch7secondsEv:
.LFB3001:
	.cfi_startproc
	stp	x29, x30, [sp, -32]!
	.cfi_def_cfa_offset 32
	.cfi_offset 29, -32
	.cfi_offset 30, -24
	mov	x29, sp
	str	x0, [sp, 24]
	bl	_ZN10subprocess17monotonic_secondsEv
	fmov	d1, d0
	ldr	x0, [sp, 24]
	ldr	d0, [x0]
	fsub	d0, d1, d0
	ldp	x29, x30, [sp], 32
	.cfi_restore 30
	.cfi_restore 29
	.cfi_def_cfa_offset 0
	ret
	.cfi_endproc
.LFE3001:
	.size	_ZNK10subprocess9StopWatch7secondsEv, .-_ZNK10subprocess9StopWatch7secondsEv
	.section	.text._ZNSt6thread2idC2Ev,"axG",@progbits,_ZNSt6thread2idC5Ev,comdat
	.align	2
	.weak	_ZNSt6thread2idC2Ev
	.type	_ZNSt6thread2idC2Ev, %function
_ZNSt6thread2idC2Ev:
.LFB3085:
	.cfi_startproc
	sub	sp, sp, #16
	.cfi_def_cfa_offset 16
	str	x0, [sp, 8]
	ldr	x0, [sp, 8]
	str	xzr, [x0]
	nop
	add	sp, sp, 16
	.cfi_def_cfa_offset 0
	ret
	.cfi_endproc
.LFE3085:
	.size	_ZNSt6thread2idC2Ev, .-_ZNSt6thread2idC2Ev
	.weak	_ZNSt6thread2idC1Ev
	.set	_ZNSt6thread2idC1Ev,_ZNSt6thread2idC2Ev
	.section	.text._ZNSt6threadD2Ev,"axG",@progbits,_ZNSt6threadD5Ev,comdat
	.align	2
	.weak	_ZNSt6threadD2Ev
	.type	_ZNSt6threadD2Ev, %function
_ZNSt6threadD2Ev:
.LFB3092:
	.cfi_startproc
	stp	x29, x30, [sp, -32]!
	.cfi_def_cfa_offset 32
	.cfi_offset 29, -32
	.cfi_offset 30, -24
	mov	x29, sp
	str	x0, [sp, 24]
	ldr	x0, [sp, 24]
	bl	_ZNKSt6thread8joinableEv
	and	w0, w0, 255
	cmp	w0, 0
	beq	.L99
	bl	_ZSt9terminatev
.L99:
	nop
	ldp	x29, x30, [sp], 32
	.cfi_restore 30
	.cfi_restore 29
	.cfi_def_cfa_offset 0
	ret
	.cfi_endproc
.LFE3092:
	.size	_ZNSt6threadD2Ev, .-_ZNSt6threadD2Ev
	.weak	_ZNSt6threadD1Ev
	.set	_ZNSt6threadD1Ev,_ZNSt6threadD2Ev
	.section	.text._ZNSt6threadaSEOS_,"axG",@progbits,_ZNSt6threadaSEOS_,comdat
	.align	2
	.weak	_ZNSt6threadaSEOS_
	.type	_ZNSt6threadaSEOS_, %function
_ZNSt6threadaSEOS_:
.LFB3097:
	.cfi_startproc
	stp	x29, x30, [sp, -32]!
	.cfi_def_cfa_offset 32
	.cfi_offset 29, -32
	.cfi_offset 30, -24
	mov	x29, sp
	str	x0, [sp, 24]
	str	x1, [sp, 16]
	ldr	x0, [sp, 24]
	bl	_ZNKSt6thread8joinableEv
	and	w0, w0, 255
	cmp	w0, 0
	beq	.L101
	bl	_ZSt9terminatev
.L101:
	ldr	x1, [sp, 16]
	ldr	x0, [sp, 24]
	bl	_ZNSt6thread4swapERS_
	ldr	x0, [sp, 24]
	ldp	x29, x30, [sp], 32
	.cfi_restore 30
	.cfi_restore 29
	.cfi_def_cfa_offset 0
	ret
	.cfi_endproc
.LFE3097:
	.size	_ZNSt6threadaSEOS_, .-_ZNSt6threadaSEOS_
	.section	.text._ZNSt6thread4swapERS_,"axG",@progbits,_ZNSt6thread4swapERS_,comdat
	.align	2
	.weak	_ZNSt6thread4swapERS_
	.type	_ZNSt6thread4swapERS_, %function
_ZNSt6thread4swapERS_:
.LFB3098:
	.cfi_startproc
	stp	x29, x30, [sp, -32]!
	.cfi_def_cfa_offset 32
	.cfi_offset 29, -32
	.cfi_offset 30, -24
	mov	x29, sp
	str	x0, [sp, 24]
	str	x1, [sp, 16]
	ldr	x0, [sp, 24]
	ldr	x1, [sp, 16]
	bl	_ZSt4swapINSt6thread2idEENSt9enable_ifIXsrSt6__and_IJSt6__not_ISt15__is_tuple_likeIT_EESt21is_move_constructibleIS6_ESt18is_move_assignableIS6_EEE5valueEvE4typeERS6_SG_
	nop
	ldp	x29, x30, [sp], 32
	.cfi_restore 30
	.cfi_restore 29
	.cfi_def_cfa_offset 0
	ret
	.cfi_endproc
.LFE3098:
	.size	_ZNSt6thread4swapERS_, .-_ZNSt6thread4swapERS_
	.section	.text._ZNKSt6thread8joinableEv,"axG",@progbits,_ZNKSt6thread8joinableEv,comdat
	.align	2
	.weak	_ZNKSt6thread8joinableEv
	.type	_ZNKSt6thread8joinableEv, %function
_ZNKSt6thread8joinableEv:
.LFB3100:
	.cfi_startproc
	stp	x29, x30, [sp, -48]!
	.cfi_def_cfa_offset 48
	.cfi_offset 29, -48
	.cfi_offset 30, -40
	mov	x29, sp
	str	x0, [sp, 24]
	adrp	x0, :got:__stack_chk_guard
	ldr	x0, [x0, #:got_lo12:__stack_chk_guard]
	ldr	x1, [x0]
	str	x1, [sp, 40]
	mov	x1, 0
	add	x0, sp, 32
	bl	_ZNSt6thread2idC1Ev
	ldr	x0, [sp, 24]
	ldr	x1, [sp, 32]
	ldr	x0, [x0]
	bl	_ZSteqNSt6thread2idES0_
	and	w0, w0, 255
	eor	w0, w0, 1
	and	w0, w0, 255
	mov	w1, w0
	adrp	x0, :got:__stack_chk_guard
	ldr	x0, [x0, #:got_lo12:__stack_chk_guard]
	ldr	x3, [sp, 40]
	ldr	x2, [x0]
	subs	x3, x3, x2
	mov	x2, 0
	beq	.L106
	bl	__stack_chk_fail
.L106:
	mov	w0, w1
	ldp	x29, x30, [sp], 48
	.cfi_restore 30
	.cfi_restore 29
	.cfi_def_cfa_offset 0
	ret
	.cfi_endproc
.LFE3100:
	.size	_ZNKSt6thread8joinableEv, .-_ZNKSt6thread8joinableEv
	.section	.text._ZSteqNSt6thread2idES0_,"axG",@progbits,_ZSteqNSt6thread2idES0_,comdat
	.align	2
	.weak	_ZSteqNSt6thread2idES0_
	.type	_ZSteqNSt6thread2idES0_, %function
_ZSteqNSt6thread2idES0_:
.LFB3108:
	.cfi_startproc
	sub	sp, sp, #16
	.cfi_def_cfa_offset 16
	str	x0, [sp, 8]
	str	x1, [sp]
	ldr	x1, [sp, 8]
	ldr	x0, [sp]
	cmp	x1, x0
	cset	w0, eq
	and	w0, w0, 255
	add	sp, sp, 16
	.cfi_def_cfa_offset 0
	ret
	.cfi_endproc
.LFE3108:
	.size	_ZSteqNSt6thread2idES0_, .-_ZSteqNSt6thread2idES0_
	.section	.text._ZNKSt6chrono8durationIlSt5ratioILl1ELl1000000000EEE5countEv,"axG",@progbits,_ZNKSt6chrono8durationIlSt5ratioILl1ELl1000000000EEE5countEv,comdat
	.align	2
	.weak	_ZNKSt6chrono8durationIlSt5ratioILl1ELl1000000000EEE5countEv
	.type	_ZNKSt6chrono8durationIlSt5ratioILl1ELl1000000000EEE5countEv, %function
_ZNKSt6chrono8durationIlSt5ratioILl1ELl1000000000EEE5countEv:
.LFB3369:
	.cfi_startproc
	sub	sp, sp, #16
	.cfi_def_cfa_offset 16
	str	x0, [sp, 8]
	ldr	x0, [sp, 8]
	ldr	x0, [x0]
	add	sp, sp, 16
	.cfi_def_cfa_offset 0
	ret
	.cfi_endproc
.LFE3369:
	.size	_ZNKSt6chrono8durationIlSt5ratioILl1ELl1000000000EEE5countEv, .-_ZNKSt6chrono8durationIlSt5ratioILl1ELl1000000000EEE5countEv
	.section	.text._ZNSt6chrono8durationIlSt5ratioILl1ELl1000000000EEEC1IlvEERKT_,"axG",@progbits,_ZNSt6chrono8durationIlSt5ratioILl1ELl1000000000EEEC1IlvEERKT_,comdat
	.align	2
	.weak	_ZNSt6chrono8durationIlSt5ratioILl1ELl1000000000EEEC1IlvEERKT_
	.type	_ZNSt6chrono8durationIlSt5ratioILl1ELl1000000000EEEC1IlvEERKT_, %function
_ZNSt6chrono8durationIlSt5ratioILl1ELl1000000000EEEC1IlvEERKT_:
.LFB3374:
	.cfi_startproc
	sub	sp, sp, #16
	.cfi_def_cfa_offset 16
	str	x0, [sp, 8]
	str	x1, [sp]
	ldr	x0, [sp]
	ldr	x1, [x0]
	ldr	x0, [sp, 8]
	str	x1, [x0]
	nop
	add	sp, sp, 16
	.cfi_def_cfa_offset 0
	ret
	.cfi_endproc
.LFE3374:
	.size	_ZNSt6chrono8durationIlSt5ratioILl1ELl1000000000EEEC1IlvEERKT_, .-_ZNSt6chrono8durationIlSt5ratioILl1ELl1000000000EEEC1IlvEERKT_
	.section	.text._ZNSt6chrono8durationIlSt5ratioILl1ELl1EEEC1IlvEERKT_,"axG",@progbits,_ZNSt6chrono8durationIlSt5ratioILl1ELl1EEEC1IlvEERKT_,comdat
	.align	2
	.weak	_ZNSt6chrono8durationIlSt5ratioILl1ELl1EEEC1IlvEERKT_
	.type	_ZNSt6chrono8durationIlSt5ratioILl1ELl1EEEC1IlvEERKT_, %function
_ZNSt6chrono8durationIlSt5ratioILl1ELl1EEEC1IlvEERKT_:
.LFB3395:
	.cfi_startproc
	sub	sp, sp, #16
	.cfi_def_cfa_offset 16
	str	x0, [sp, 8]
	str	x1, [sp]
	ldr	x0, [sp]
	ldr	x1, [x0]
	ldr	x0, [sp, 8]
	str	x1, [x0]
	nop
	add	sp, sp, 16
	.cfi_def_cfa_offset 0
	ret
	.cfi_endproc
.LFE3395:
	.size	_ZNSt6chrono8durationIlSt5ratioILl1ELl1EEEC1IlvEERKT_, .-_ZNSt6chrono8durationIlSt5ratioILl1ELl1EEEC1IlvEERKT_
	.section	.text._ZN10subprocess15SubprocessErrorCI2St13runtime_errorERKNSt7__cxx1112basic_stringIcSt11char_traitsIcESaIcEEE,"axG",@progbits,_ZN10subprocess15SubprocessErrorCI5St13runtime_errorERKNSt7__cxx1112basic_stringIcSt11char_traitsIcESaIcEEE,comdat
	.align	2
	.weak	_ZN10subprocess15SubprocessErrorCI2St13runtime_errorERKNSt7__cxx1112basic_stringIcSt11char_traitsIcESaIcEEE
	.type	_ZN10subprocess15SubprocessErrorCI2St13runtime_errorERKNSt7__cxx1112basic_stringIcSt11char_traitsIcESaIcEEE, %function
_ZN10subprocess15SubprocessErrorCI2St13runtime_errorERKNSt7__cxx1112basic_stringIcSt11char_traitsIcESaIcEEE:
.LFB3496:
	.cfi_startproc
	stp	x29, x30, [sp, -32]!
	.cfi_def_cfa_offset 32
	.cfi_offset 29, -32
	.cfi_offset 30, -24
	mov	x29, sp
	str	x0, [sp, 24]
	str	x1, [sp, 16]
	ldr	x0, [sp, 24]
	ldr	x1, [sp, 16]
	bl	_ZNSt13runtime_errorC2ERKNSt7__cxx1112basic_stringIcSt11char_traitsIcESaIcEEE
	adrp	x0, _ZTVN10subprocess15SubprocessErrorE+16
	add	x1, x0, :lo12:_ZTVN10subprocess15SubprocessErrorE+16
	ldr	x0, [sp, 24]
	str	x1, [x0]
	nop
	ldp	x29, x30, [sp], 32
	.cfi_restore 30
	.cfi_restore 29
	.cfi_def_cfa_offset 0
	ret
	.cfi_endproc
.LFE3496:
	.size	_ZN10subprocess15SubprocessErrorCI2St13runtime_errorERKNSt7__cxx1112basic_stringIcSt11char_traitsIcESaIcEEE, .-_ZN10subprocess15SubprocessErrorCI2St13runtime_errorERKNSt7__cxx1112basic_stringIcSt11char_traitsIcESaIcEEE
	.weak	_ZN10subprocess15SubprocessErrorCI1St13runtime_errorERKNSt7__cxx1112basic_stringIcSt11char_traitsIcESaIcEEE
	.set	_ZN10subprocess15SubprocessErrorCI1St13runtime_errorERKNSt7__cxx1112basic_stringIcSt11char_traitsIcESaIcEEE,_ZN10subprocess15SubprocessErrorCI2St13runtime_errorERKNSt7__cxx1112basic_stringIcSt11char_traitsIcESaIcEEE
	.section	.text._ZN10subprocess15SubprocessErrorD2Ev,"axG",@progbits,_ZN10subprocess15SubprocessErrorD5Ev,comdat
	.align	2
	.weak	_ZN10subprocess15SubprocessErrorD2Ev
	.type	_ZN10subprocess15SubprocessErrorD2Ev, %function
_ZN10subprocess15SubprocessErrorD2Ev:
.LFB3499:
	.cfi_startproc
	stp	x29, x30, [sp, -32]!
	.cfi_def_cfa_offset 32
	.cfi_offset 29, -32
	.cfi_offset 30, -24
	mov	x29, sp
	str	x0, [sp, 24]
	adrp	x0, _ZTVN10subprocess15SubprocessErrorE+16
	add	x1, x0, :lo12:_ZTVN10subprocess15SubprocessErrorE+16
	ldr	x0, [sp, 24]
	str	x1, [x0]
	ldr	x0, [sp, 24]
	bl	_ZNSt13runtime_errorD2Ev
	nop
	ldp	x29, x30, [sp], 32
	.cfi_restore 30
	.cfi_restore 29
	.cfi_def_cfa_offset 0
	ret
	.cfi_endproc
.LFE3499:
	.size	_ZN10subprocess15SubprocessErrorD2Ev, .-_ZN10subprocess15SubprocessErrorD2Ev
	.weak	_ZN10subprocess15SubprocessErrorD1Ev
	.set	_ZN10subprocess15SubprocessErrorD1Ev,_ZN10subprocess15SubprocessErrorD2Ev
	.section	.text._ZN10subprocess15SubprocessErrorD0Ev,"axG",@progbits,_ZN10subprocess15SubprocessErrorD5Ev,comdat
	.align	2
	.weak	_ZN10subprocess15SubprocessErrorD0Ev
	.type	_ZN10subprocess15SubprocessErrorD0Ev, %function
_ZN10subprocess15SubprocessErrorD0Ev:
.LFB3501:
	.cfi_startproc
	stp	x29, x30, [sp, -32]!
	.cfi_def_cfa_offset 32
	.cfi_offset 29, -32
	.cfi_offset 30, -24
	mov	x29, sp
	str	x0, [sp, 24]
	ldr	x0, [sp, 24]
	bl	_ZN10subprocess15SubprocessErrorD1Ev
	mov	x1, 16
	ldr	x0, [sp, 24]
	bl	_ZdlPvm
	ldp	x29, x30, [sp], 32
	.cfi_restore 30
	.cfi_restore 29
	.cfi_def_cfa_offset 0
	ret
	.cfi_endproc
.LFE3501:
	.size	_ZN10subprocess15SubprocessErrorD0Ev, .-_ZN10subprocess15SubprocessErrorD0Ev
	.section	.text._ZN10subprocess7OSErrorCI2St13runtime_errorERKNSt7__cxx1112basic_stringIcSt11char_traitsIcESaIcEEE,"axG",@progbits,_ZN10subprocess7OSErrorCI5St13runtime_errorERKNSt7__cxx1112basic_stringIcSt11char_traitsIcESaIcEEE,comdat
	.align	2
	.weak	_ZN10subprocess7OSErrorCI2St13runtime_errorERKNSt7__cxx1112basic_stringIcSt11char_traitsIcESaIcEEE
	.type	_ZN10subprocess7OSErrorCI2St13runtime_errorERKNSt7__cxx1112basic_stringIcSt11char_traitsIcESaIcEEE, %function
_ZN10subprocess7OSErrorCI2St13runtime_errorERKNSt7__cxx1112basic_stringIcSt11char_traitsIcESaIcEEE:
.LFB3502:
	.cfi_startproc
	stp	x29, x30, [sp, -32]!
	.cfi_def_cfa_offset 32
	.cfi_offset 29, -32
	.cfi_offset 30, -24
	mov	x29, sp
	str	x0, [sp, 24]
	str	x1, [sp, 16]
	ldr	x0, [sp, 24]
	ldr	x1, [sp, 16]
	bl	_ZN10subprocess15SubprocessErrorCI2St13runtime_errorERKNSt7__cxx1112basic_stringIcSt11char_traitsIcESaIcEEE
	adrp	x0, _ZTVN10subprocess7OSErrorE+16
	add	x1, x0, :lo12:_ZTVN10subprocess7OSErrorE+16
	ldr	x0, [sp, 24]
	str	x1, [x0]
	nop
	ldp	x29, x30, [sp], 32
	.cfi_restore 30
	.cfi_restore 29
	.cfi_def_cfa_offset 0
	ret
	.cfi_endproc
.LFE3502:
	.size	_ZN10subprocess7OSErrorCI2St13runtime_errorERKNSt7__cxx1112basic_stringIcSt11char_traitsIcESaIcEEE, .-_ZN10subprocess7OSErrorCI2St13runtime_errorERKNSt7__cxx1112basic_stringIcSt11char_traitsIcESaIcEEE
	.weak	_ZN10subprocess7OSErrorCI1St13runtime_errorERKNSt7__cxx1112basic_stringIcSt11char_traitsIcESaIcEEE
	.set	_ZN10subprocess7OSErrorCI1St13runtime_errorERKNSt7__cxx1112basic_stringIcSt11char_traitsIcESaIcEEE,_ZN10subprocess7OSErrorCI2St13runtime_errorERKNSt7__cxx1112basic_stringIcSt11char_traitsIcESaIcEEE
	.section	.rodata
	.align	3
.LC2:
	.string	" failed: "
	.align	3
.LC3:
	.string	": "
	.text
	.align	2
	.global	_ZN10subprocess7details14throw_os_errorEPKci
	.type	_ZN10subprocess7details14throw_os_errorEPKci, %function
_ZN10subprocess7details14throw_os_errorEPKci:
.LFB3493:
	.cfi_startproc
	.cfi_personality 0x9b,DW.ref.__gxx_personality_v0
	.cfi_lsda 0x1b,.LLSDA3493
	stp	x29, x30, [sp, -192]!
	.cfi_def_cfa_offset 192
	.cfi_offset 29, -192
	.cfi_offset 30, -184
	mov	x29, sp
	stp	x19, x20, [sp, 16]
	.cfi_offset 19, -176
	.cfi_offset 20, -168
	str	x0, [sp, 40]
	str	w1, [sp, 36]
	adrp	x0, :got:__stack_chk_guard
	ldr	x0, [x0, #:got_lo12:__stack_chk_guard]
	ldr	x1, [x0]
	str	x1, [sp, 184]
	mov	x1, 0
	ldr	w0, [sp, 36]
	cmp	w0, 0
	beq	.L134
	add	x0, sp, 48
	bl	_ZNSaIcEC1Ev
	add	x1, sp, 48
	add	x0, sp, 56
	mov	x2, x1
	ldr	x1, [sp, 40]
.LEHB9:
	bl	_ZNSt7__cxx1112basic_stringIcSt11char_traitsIcESaIcEEC1IS3_EEPKcRKS3_
.LEHE9:
	add	x0, sp, 48
	bl	_ZNSaIcED1Ev
	bl	__errno_location
	ldr	w0, [x0]
	add	x1, sp, 88
	mov	x8, x1
.LEHB10:
	bl	_ZNSt7__cxx119to_stringEi
.LEHE10:
	add	x0, sp, 88
	add	x1, sp, 120
	mov	x8, x1
	mov	x1, x0
	adrp	x0, .LC2
	add	x0, x0, :lo12:.LC2
.LEHB11:
	bl	_ZStplIcSt11char_traitsIcESaIcEENSt7__cxx1112basic_stringIT_T0_T1_EEPKS5_OS8_
.LEHE11:
	add	x2, sp, 120
	add	x0, sp, 152
	mov	x8, x0
	adrp	x0, .LC3
	add	x1, x0, :lo12:.LC3
	mov	x0, x2
.LEHB12:
	bl	_ZStplIcSt11char_traitsIcESaIcEENSt7__cxx1112basic_stringIT_T0_T1_EEOS8_PKS5_
.LEHE12:
	add	x1, sp, 152
	add	x0, sp, 56
.LEHB13:
	bl	_ZNSt7__cxx1112basic_stringIcSt11char_traitsIcESaIcEEpLERKS4_
.LEHE13:
	add	x0, sp, 152
	bl	_ZNSt7__cxx1112basic_stringIcSt11char_traitsIcESaIcEED1Ev
	add	x0, sp, 120
	bl	_ZNSt7__cxx1112basic_stringIcSt11char_traitsIcESaIcEED1Ev
	add	x0, sp, 88
	bl	_ZNSt7__cxx1112basic_stringIcSt11char_traitsIcESaIcEED1Ev
	ldr	w0, [sp, 36]
	bl	strerror
	mov	x1, x0
	add	x0, sp, 56
.LEHB14:
	bl	_ZNSt7__cxx1112basic_stringIcSt11char_traitsIcESaIcEEpLEPKc
.LEHE14:
	mov	x0, 16
	bl	__cxa_allocate_exception
	mov	x19, x0
	add	x0, sp, 56
	mov	x1, x0
	mov	x0, x19
.LEHB15:
	bl	_ZN10subprocess7OSErrorCI1St13runtime_errorERKNSt7__cxx1112basic_stringIcSt11char_traitsIcESaIcEEE
.LEHE15:
	adrp	x0, _ZN10subprocess7OSErrorD1Ev
	add	x2, x0, :lo12:_ZN10subprocess7OSErrorD1Ev
	adrp	x0, _ZTIN10subprocess7OSErrorE
	add	x1, x0, :lo12:_ZTIN10subprocess7OSErrorE
	mov	x0, x19
.LEHB16:
	bl	__cxa_throw
.LEHE16:
.L127:
	mov	x19, x0
	add	x0, sp, 48
	bl	_ZNSaIcED1Ev
	mov	x0, x19
.LEHB17:
	bl	_Unwind_Resume
.L131:
	mov	x19, x0
	add	x0, sp, 152
	bl	_ZNSt7__cxx1112basic_stringIcSt11char_traitsIcESaIcEED1Ev
	b	.L122
.L130:
	mov	x19, x0
.L122:
	add	x0, sp, 120
	bl	_ZNSt7__cxx1112basic_stringIcSt11char_traitsIcESaIcEED1Ev
	b	.L123
.L129:
	mov	x19, x0
.L123:
	add	x0, sp, 88
	bl	_ZNSt7__cxx1112basic_stringIcSt11char_traitsIcESaIcEED1Ev
	b	.L124
.L132:
	mov	x20, x0
	mov	x0, x19
	bl	__cxa_free_exception
	mov	x19, x20
	b	.L124
.L128:
	mov	x19, x0
.L124:
	add	x0, sp, 56
	bl	_ZNSt7__cxx1112basic_stringIcSt11char_traitsIcESaIcEED1Ev
	mov	x0, x19
	bl	_Unwind_Resume
.LEHE17:
.L134:
	nop
	adrp	x0, :got:__stack_chk_guard
	ldr	x0, [x0, #:got_lo12:__stack_chk_guard]
	ldr	x2, [sp, 184]
	ldr	x1, [x0]
	subs	x2, x2, x1
	mov	x1, 0
	beq	.L126
	bl	__stack_chk_fail
.L126:
	ldp	x19, x20, [sp, 16]
	ldp	x29, x30, [sp], 192
	.cfi_restore 30
	.cfi_restore 29
	.cfi_restore 19
	.cfi_restore 20
	.cfi_def_cfa_offset 0
	ret
	.cfi_endproc
.LFE3493:
	.section	.gcc_except_table,"a",@progbits
.LLSDA3493:
	.byte	0xff
	.byte	0xff
	.byte	0x1
	.uleb128 .LLSDACSE3493-.LLSDACSB3493
.LLSDACSB3493:
	.uleb128 .LEHB9-.LFB3493
	.uleb128 .LEHE9-.LEHB9
	.uleb128 .L127-.LFB3493
	.uleb128 0
	.uleb128 .LEHB10-.LFB3493
	.uleb128 .LEHE10-.LEHB10
	.uleb128 .L128-.LFB3493
	.uleb128 0
	.uleb128 .LEHB11-.LFB3493
	.uleb128 .LEHE11-.LEHB11
	.uleb128 .L129-.LFB3493
	.uleb128 0
	.uleb128 .LEHB12-.LFB3493
	.uleb128 .LEHE12-.LEHB12
	.uleb128 .L130-.LFB3493
	.uleb128 0
	.uleb128 .LEHB13-.LFB3493
	.uleb128 .LEHE13-.LEHB13
	.uleb128 .L131-.LFB3493
	.uleb128 0
	.uleb128 .LEHB14-.LFB3493
	.uleb128 .LEHE14-.LEHB14
	.uleb128 .L128-.LFB3493
	.uleb128 0
	.uleb128 .LEHB15-.LFB3493
	.uleb128 .LEHE15-.LEHB15
	.uleb128 .L132-.LFB3493
	.uleb128 0
	.uleb128 .LEHB16-.LFB3493
	.uleb128 .LEHE16-.LEHB16
	.uleb128 .L128-.LFB3493
	.uleb128 0
	.uleb128 .LEHB17-.LFB3493
	.uleb128 .LEHE17-.LEHB17
	.uleb128 0
	.uleb128 0
.LLSDACSE3493:
	.text
	.size	_ZN10subprocess7details14throw_os_errorEPKci, .-_ZN10subprocess7details14throw_os_errorEPKci
	.data
	.type	_ZZN10subprocess17monotonic_secondsEvE10needs_init, %object
	.size	_ZZN10subprocess17monotonic_secondsEvE10needs_init, 1
_ZZN10subprocess17monotonic_secondsEvE10needs_init:
	.byte	1
	.local	_ZZN10subprocess17monotonic_secondsEvE5begin
	.comm	_ZZN10subprocess17monotonic_secondsEvE5begin,8,8
	.local	_ZZN10subprocess17monotonic_secondsEvE10last_value
	.comm	_ZZN10subprocess17monotonic_secondsEvE10last_value,8,8
	.section	.text._ZNSt6chrono8durationIdSt5ratioILl1ELl1EEEC1IlS1_ILl1ELl1000000000EEvEERKNS0_IT_T0_EE,"axG",@progbits,_ZNSt6chrono8durationIdSt5ratioILl1ELl1EEEC1IlS1_ILl1ELl1000000000EEvEERKNS0_IT_T0_EE,comdat
	.align	2
	.weak	_ZNSt6chrono8durationIdSt5ratioILl1ELl1EEEC1IlS1_ILl1ELl1000000000EEvEERKNS0_IT_T0_EE
	.type	_ZNSt6chrono8durationIdSt5ratioILl1ELl1EEEC1IlS1_ILl1ELl1000000000EEvEERKNS0_IT_T0_EE, %function
_ZNSt6chrono8durationIdSt5ratioILl1ELl1EEEC1IlS1_ILl1ELl1000000000EEvEERKNS0_IT_T0_EE:
.LFB3512:
	.cfi_startproc
	stp	x29, x30, [sp, -48]!
	.cfi_def_cfa_offset 48
	.cfi_offset 29, -48
	.cfi_offset 30, -40
	mov	x29, sp
	str	x0, [sp, 24]
	str	x1, [sp, 16]
	adrp	x0, :got:__stack_chk_guard
	ldr	x0, [x0, #:got_lo12:__stack_chk_guard]
	ldr	x1, [x0]
	str	x1, [sp, 40]
	mov	x1, 0
	ldr	x0, [sp, 16]
	bl	_ZNSt6chrono13duration_castINS_8durationIdSt5ratioILl1ELl1EEEElS2_ILl1ELl1000000000EEEENSt9enable_ifIXsrNS_13__is_durationIT_EE5valueES8_E4typeERKNS1_IT0_T1_EE
	str	d0, [sp, 32]
	add	x0, sp, 32
	bl	_ZNKSt6chrono8durationIdSt5ratioILl1ELl1EEE5countEv
	ldr	x0, [sp, 24]
	str	d0, [x0]
	nop
	adrp	x0, :got:__stack_chk_guard
	ldr	x0, [x0, #:got_lo12:__stack_chk_guard]
	ldr	x2, [sp, 40]
	ldr	x1, [x0]
	subs	x2, x2, x1
	mov	x1, 0
	beq	.L136
	bl	__stack_chk_fail
.L136:
	ldp	x29, x30, [sp], 48
	.cfi_restore 30
	.cfi_restore 29
	.cfi_def_cfa_offset 0
	ret
	.cfi_endproc
.LFE3512:
	.size	_ZNSt6chrono8durationIdSt5ratioILl1ELl1EEEC1IlS1_ILl1ELl1000000000EEvEERKNS0_IT_T0_EE, .-_ZNSt6chrono8durationIdSt5ratioILl1ELl1EEEC1IlS1_ILl1ELl1000000000EEvEERKNS0_IT_T0_EE
	.section	.text._ZNSt6chronomiINS_3_V212steady_clockENS_8durationIlSt5ratioILl1ELl1000000000EEEES6_EENSt11common_typeIJT0_T1_EE4typeERKNS_10time_pointIT_S8_EERKNSC_ISD_S9_EE,"axG",@progbits,_ZNSt6chronomiINS_3_V212steady_clockENS_8durationIlSt5ratioILl1ELl1000000000EEEES6_EENSt11common_typeIJT0_T1_EE4typeERKNS_10time_pointIT_S8_EERKNSC_ISD_S9_EE,comdat
	.align	2
	.weak	_ZNSt6chronomiINS_3_V212steady_clockENS_8durationIlSt5ratioILl1ELl1000000000EEEES6_EENSt11common_typeIJT0_T1_EE4typeERKNS_10time_pointIT_S8_EERKNSC_ISD_S9_EE
	.type	_ZNSt6chronomiINS_3_V212steady_clockENS_8durationIlSt5ratioILl1ELl1000000000EEEES6_EENSt11common_typeIJT0_T1_EE4typeERKNS_10time_pointIT_S8_EERKNSC_ISD_S9_EE, %function
_ZNSt6chronomiINS_3_V212steady_clockENS_8durationIlSt5ratioILl1ELl1000000000EEEES6_EENSt11common_typeIJT0_T1_EE4typeERKNS_10time_pointIT_S8_EERKNSC_ISD_S9_EE:
.LFB3513:
	.cfi_startproc
	stp	x29, x30, [sp, -64]!
	.cfi_def_cfa_offset 64
	.cfi_offset 29, -64
	.cfi_offset 30, -56
	mov	x29, sp
	str	x0, [sp, 24]
	str	x1, [sp, 16]
	adrp	x0, :got:__stack_chk_guard
	ldr	x0, [x0, #:got_lo12:__stack_chk_guard]
	ldr	x1, [x0]
	str	x1, [sp, 56]
	mov	x1, 0
	ldr	x0, [sp, 24]
	bl	_ZNKSt6chrono10time_pointINS_3_V212steady_clockENS_8durationIlSt5ratioILl1ELl1000000000EEEEE16time_since_epochEv
	str	x0, [sp, 40]
	ldr	x0, [sp, 16]
	bl	_ZNKSt6chrono10time_pointINS_3_V212steady_clockENS_8durationIlSt5ratioILl1ELl1000000000EEEEE16time_since_epochEv
	str	x0, [sp, 48]
	add	x1, sp, 48
	add	x0, sp, 40
	bl	_ZNSt6chronomiIlSt5ratioILl1ELl1000000000EElS2_EENSt11common_typeIJNS_8durationIT_T0_EENS4_IT1_T2_EEEE4typeERKS7_RKSA_
	mov	x1, x0
	adrp	x0, :got:__stack_chk_guard
	ldr	x0, [x0, #:got_lo12:__stack_chk_guard]
	ldr	x3, [sp, 56]
	ldr	x2, [x0]
	subs	x3, x3, x2
	mov	x2, 0
	beq	.L139
	bl	__stack_chk_fail
.L139:
	mov	x0, x1
	ldp	x29, x30, [sp], 64
	.cfi_restore 30
	.cfi_restore 29
	.cfi_def_cfa_offset 0
	ret
	.cfi_endproc
.LFE3513:
	.size	_ZNSt6chronomiINS_3_V212steady_clockENS_8durationIlSt5ratioILl1ELl1000000000EEEES6_EENSt11common_typeIJT0_T1_EE4typeERKNS_10time_pointIT_S8_EERKNSC_ISD_S9_EE, .-_ZNSt6chronomiINS_3_V212steady_clockENS_8durationIlSt5ratioILl1ELl1000000000EEEES6_EENSt11common_typeIJT0_T1_EE4typeERKNS_10time_pointIT_S8_EERKNSC_ISD_S9_EE
	.section	.text._ZNSt6chronomiIlSt5ratioILl1ELl1000000000EElS2_EENSt11common_typeIJNS_8durationIT_T0_EENS4_IT1_T2_EEEE4typeERKS7_RKSA_,"axG",@progbits,_ZNSt6chronomiIlSt5ratioILl1ELl1000000000EElS2_EENSt11common_typeIJNS_8durationIT_T0_EENS4_IT1_T2_EEEE4typeERKS7_RKSA_,comdat
	.align	2
	.weak	_ZNSt6chronomiIlSt5ratioILl1ELl1000000000EElS2_EENSt11common_typeIJNS_8durationIT_T0_EENS4_IT1_T2_EEEE4typeERKS7_RKSA_
	.type	_ZNSt6chronomiIlSt5ratioILl1ELl1000000000EElS2_EENSt11common_typeIJNS_8durationIT_T0_EENS4_IT1_T2_EEEE4typeERKS7_RKSA_, %function
_ZNSt6chronomiIlSt5ratioILl1ELl1000000000EElS2_EENSt11common_typeIJNS_8durationIT_T0_EENS4_IT1_T2_EEEE4typeERKS7_RKSA_:
.LFB3514:
	.cfi_startproc
	stp	x29, x30, [sp, -96]!
	.cfi_def_cfa_offset 96
	.cfi_offset 29, -96
	.cfi_offset 30, -88
	mov	x29, sp
	str	x19, [sp, 16]
	.cfi_offset 19, -80
	str	x0, [sp, 40]
	str	x1, [sp, 32]
	adrp	x0, :got:__stack_chk_guard
	ldr	x0, [x0, #:got_lo12:__stack_chk_guard]
	ldr	x1, [x0]
	str	x1, [sp, 88]
	mov	x1, 0
	ldr	x0, [sp, 40]
	ldr	x0, [x0]
	str	x0, [sp, 56]
	add	x0, sp, 56
	bl	_ZNKSt6chrono8durationIlSt5ratioILl1ELl1000000000EEE5countEv
	mov	x19, x0
	ldr	x0, [sp, 32]
	ldr	x0, [x0]
	str	x0, [sp, 64]
	add	x0, sp, 64
	bl	_ZNKSt6chrono8durationIlSt5ratioILl1ELl1000000000EEE5countEv
	sub	x0, x19, x0
	str	x0, [sp, 72]
	add	x1, sp, 72
	add	x0, sp, 80
	bl	_ZNSt6chrono8durationIlSt5ratioILl1ELl1000000000EEEC1IlvEERKT_
	ldr	x0, [sp, 80]
	mov	x1, x0
	adrp	x0, :got:__stack_chk_guard
	ldr	x0, [x0, #:got_lo12:__stack_chk_guard]
	ldr	x3, [sp, 88]
	ldr	x2, [x0]
	subs	x3, x3, x2
	mov	x2, 0
	beq	.L142
	bl	__stack_chk_fail
.L142:
	mov	x0, x1
	ldr	x19, [sp, 16]
	ldp	x29, x30, [sp], 96
	.cfi_restore 30
	.cfi_restore 29
	.cfi_restore 19
	.cfi_def_cfa_offset 0
	ret
	.cfi_endproc
.LFE3514:
	.size	_ZNSt6chronomiIlSt5ratioILl1ELl1000000000EElS2_EENSt11common_typeIJNS_8durationIT_T0_EENS4_IT1_T2_EEEE4typeERKS7_RKSA_, .-_ZNSt6chronomiIlSt5ratioILl1ELl1000000000EElS2_EENSt11common_typeIJNS_8durationIT_T0_EENS4_IT1_T2_EEEE4typeERKS7_RKSA_
	.section	.text._ZNKSt6chrono10time_pointINS_3_V212steady_clockENS_8durationIlSt5ratioILl1ELl1000000000EEEEE16time_since_epochEv,"axG",@progbits,_ZNKSt6chrono10time_pointINS_3_V212steady_clockENS_8durationIlSt5ratioILl1ELl1000000000EEEEE16time_since_epochEv,comdat
	.align	2
	.weak	_ZNKSt6chrono10time_pointINS_3_V212steady_clockENS_8durationIlSt5ratioILl1ELl1000000000EEEEE16time_since_epochEv
	.type	_ZNKSt6chrono10time_pointINS_3_V212steady_clockENS_8durationIlSt5ratioILl1ELl1000000000EEEEE16time_since_epochEv, %function
_ZNKSt6chrono10time_pointINS_3_V212steady_clockENS_8durationIlSt5ratioILl1ELl1000000000EEEEE16time_since_epochEv:
.LFB3515:
	.cfi_startproc
	sub	sp, sp, #16
	.cfi_def_cfa_offset 16
	str	x0, [sp, 8]
	ldr	x0, [sp, 8]
	ldr	x0, [x0]
	add	sp, sp, 16
	.cfi_def_cfa_offset 0
	ret
	.cfi_endproc
.LFE3515:
	.size	_ZNKSt6chrono10time_pointINS_3_V212steady_clockENS_8durationIlSt5ratioILl1ELl1000000000EEEEE16time_since_epochEv, .-_ZNKSt6chrono10time_pointINS_3_V212steady_clockENS_8durationIlSt5ratioILl1ELl1000000000EEEEE16time_since_epochEv
	.section	.text._ZNKSt6chrono8durationIdSt5ratioILl1ELl1EEE5countEv,"axG",@progbits,_ZNKSt6chrono8durationIdSt5ratioILl1ELl1EEE5countEv,comdat
	.align	2
	.weak	_ZNKSt6chrono8durationIdSt5ratioILl1ELl1EEE5countEv
	.type	_ZNKSt6chrono8durationIdSt5ratioILl1ELl1EEE5countEv, %function
_ZNKSt6chrono8durationIdSt5ratioILl1ELl1EEE5countEv:
.LFB3516:
	.cfi_startproc
	sub	sp, sp, #16
	.cfi_def_cfa_offset 16
	str	x0, [sp, 8]
	ldr	x0, [sp, 8]
	ldr	d0, [x0]
	add	sp, sp, 16
	.cfi_def_cfa_offset 0
	ret
	.cfi_endproc
.LFE3516:
	.size	_ZNKSt6chrono8durationIdSt5ratioILl1ELl1EEE5countEv, .-_ZNKSt6chrono8durationIdSt5ratioILl1ELl1EEE5countEv
	.text
	.align	2
	.global	_ZN10subprocess17monotonic_secondsEv
	.type	_ZN10subprocess17monotonic_secondsEv, %function
_ZN10subprocess17monotonic_secondsEv:
.LFB3504:
	.cfi_startproc
	stp	x29, x30, [sp, -64]!
	.cfi_def_cfa_offset 64
	.cfi_offset 29, -64
	.cfi_offset 30, -56
	mov	x29, sp
	adrp	x0, :got:__stack_chk_guard
	ldr	x0, [x0, #:got_lo12:__stack_chk_guard]
	ldr	x1, [x0]
	str	x1, [sp, 56]
	mov	x1, 0
	adrp	x0, _ZZN10subprocess17monotonic_secondsEvE10needs_init
	add	x0, x0, :lo12:_ZZN10subprocess17monotonic_secondsEvE10needs_init
	ldrb	w0, [x0]
	cmp	w0, 0
	beq	.L148
	bl	_ZNSt6chrono3_V212steady_clock3nowEv
	mov	x1, x0
	adrp	x0, _ZZN10subprocess17monotonic_secondsEvE5begin
	add	x0, x0, :lo12:_ZZN10subprocess17monotonic_secondsEvE5begin
	str	x1, [x0]
	adrp	x0, _ZZN10subprocess17monotonic_secondsEvE10needs_init
	add	x0, x0, :lo12:_ZZN10subprocess17monotonic_secondsEvE10needs_init
	strb	wzr, [x0]
.L148:
	bl	_ZNSt6chrono3_V212steady_clock3nowEv
	str	x0, [sp, 24]
	add	x2, sp, 24
	adrp	x0, _ZZN10subprocess17monotonic_secondsEvE5begin
	add	x1, x0, :lo12:_ZZN10subprocess17monotonic_secondsEvE5begin
	mov	x0, x2
	bl	_ZNSt6chronomiINS_3_V212steady_clockENS_8durationIlSt5ratioILl1ELl1000000000EEEES6_EENSt11common_typeIJT0_T1_EE4typeERKNS_10time_pointIT_S8_EERKNSC_ISD_S9_EE
	str	x0, [sp, 40]
	add	x1, sp, 40
	add	x0, sp, 32
	bl	_ZNSt6chrono8durationIdSt5ratioILl1ELl1EEEC1IlS1_ILl1ELl1000000000EEvEERKNS0_IT_T0_EE
	add	x0, sp, 32
	bl	_ZNKSt6chrono8durationIdSt5ratioILl1ELl1EEE5countEv
	str	d0, [sp, 48]
	adrp	x0, _ZZN10subprocess17monotonic_secondsEvE10last_value
	add	x0, x0, :lo12:_ZZN10subprocess17monotonic_secondsEvE10last_value
	ldr	d0, [x0]
	ldr	d1, [sp, 48]
	fcmpe	d1, d0
	bmi	.L154
	b	.L155
.L154:
	adrp	x0, _ZZN10subprocess17monotonic_secondsEvE10last_value
	add	x0, x0, :lo12:_ZZN10subprocess17monotonic_secondsEvE10last_value
	ldr	d0, [x0]
	b	.L152
.L155:
	adrp	x0, _ZZN10subprocess17monotonic_secondsEvE10last_value
	add	x0, x0, :lo12:_ZZN10subprocess17monotonic_secondsEvE10last_value
	ldr	d0, [sp, 48]
	str	d0, [x0]
	ldr	d0, [sp, 48]
.L152:
	adrp	x0, :got:__stack_chk_guard
	ldr	x0, [x0, #:got_lo12:__stack_chk_guard]
	ldr	x2, [sp, 56]
	ldr	x1, [x0]
	subs	x2, x2, x1
	mov	x1, 0
	beq	.L153
	bl	__stack_chk_fail
.L153:
	ldp	x29, x30, [sp], 64
	.cfi_restore 30
	.cfi_restore 29
	.cfi_def_cfa_offset 0
	ret
	.cfi_endproc
.LFE3504:
	.size	_ZN10subprocess17monotonic_secondsEv, .-_ZN10subprocess17monotonic_secondsEv
	.section	.text._ZNSt6chrono8durationIdSt5ratioILl1ELl1EEEC1IdvEERKT_,"axG",@progbits,_ZNSt6chrono8durationIdSt5ratioILl1ELl1EEEC1IdvEERKT_,comdat
	.align	2
	.weak	_ZNSt6chrono8durationIdSt5ratioILl1ELl1EEEC1IdvEERKT_
	.type	_ZNSt6chrono8durationIdSt5ratioILl1ELl1EEEC1IdvEERKT_, %function
_ZNSt6chrono8durationIdSt5ratioILl1ELl1EEEC1IdvEERKT_:
.LFB3520:
	.cfi_startproc
	sub	sp, sp, #16
	.cfi_def_cfa_offset 16
	str	x0, [sp, 8]
	str	x1, [sp]
	ldr	x0, [sp]
	ldr	d0, [x0]
	ldr	x0, [sp, 8]
	str	d0, [x0]
	nop
	add	sp, sp, 16
	.cfi_def_cfa_offset 0
	ret
	.cfi_endproc
.LFE3520:
	.size	_ZNSt6chrono8durationIdSt5ratioILl1ELl1EEEC1IdvEERKT_, .-_ZNSt6chrono8durationIdSt5ratioILl1ELl1EEEC1IdvEERKT_
	.text
	.align	2
	.global	_ZN10subprocess13sleep_secondsEd
	.type	_ZN10subprocess13sleep_secondsEd, %function
_ZN10subprocess13sleep_secondsEd:
.LFB3517:
	.cfi_startproc
	stp	x29, x30, [sp, -64]!
	.cfi_def_cfa_offset 64
	.cfi_offset 29, -64
	.cfi_offset 30, -56
	mov	x29, sp
	str	d0, [sp, 24]
	adrp	x0, :got:__stack_chk_guard
	ldr	x0, [x0, #:got_lo12:__stack_chk_guard]
	ldr	x1, [x0]
	str	x1, [sp, 56]
	mov	x1, 0
	add	x0, sp, 40
	bl	_ZN10subprocess9StopWatchC1Ev
	add	x1, sp, 24
	add	x0, sp, 48
	bl	_ZNSt6chrono8durationIdSt5ratioILl1ELl1EEEC1IdvEERKT_
	add	x0, sp, 48
	bl	_ZNSt11this_thread9sleep_forIdSt5ratioILl1ELl1EEEEvRKNSt6chrono8durationIT_T0_EE
	add	x0, sp, 40
	bl	_ZNK10subprocess9StopWatch7secondsEv
	adrp	x0, :got:__stack_chk_guard
	ldr	x0, [x0, #:got_lo12:__stack_chk_guard]
	ldr	x2, [sp, 56]
	ldr	x1, [x0]
	subs	x2, x2, x1
	mov	x1, 0
	beq	.L159
	bl	__stack_chk_fail
.L159:
	ldp	x29, x30, [sp], 64
	.cfi_restore 30
	.cfi_restore 29
	.cfi_def_cfa_offset 0
	ret
	.cfi_endproc
.LFE3517:
	.size	_ZN10subprocess13sleep_secondsEd, .-_ZN10subprocess13sleep_secondsEd
	.section	.text._ZN10subprocess13AutoClosePipeC2Eib,"axG",@progbits,_ZN10subprocess13AutoClosePipeC5Eib,comdat
	.align	2
	.weak	_ZN10subprocess13AutoClosePipeC2Eib
	.type	_ZN10subprocess13AutoClosePipeC2Eib, %function
_ZN10subprocess13AutoClosePipeC2Eib:
.LFB3522:
	.cfi_startproc
	sub	sp, sp, #16
	.cfi_def_cfa_offset 16
	str	x0, [sp, 8]
	str	w1, [sp, 4]
	strb	w2, [sp, 3]
	ldrb	w0, [sp, 3]
	cmp	w0, 0
	beq	.L161
	add	x0, sp, 4
	ldr	w0, [x0]
	b	.L162
.L161:
	mov	w0, -1
.L162:
	ldr	x1, [sp, 8]
	str	w0, [x1]
	nop
	add	sp, sp, 16
	.cfi_def_cfa_offset 0
	ret
	.cfi_endproc
.LFE3522:
	.size	_ZN10subprocess13AutoClosePipeC2Eib, .-_ZN10subprocess13AutoClosePipeC2Eib
	.weak	_ZN10subprocess13AutoClosePipeC1Eib
	.set	_ZN10subprocess13AutoClosePipeC1Eib,_ZN10subprocess13AutoClosePipeC2Eib
	.section	.text._ZN10subprocess13AutoClosePipeD2Ev,"axG",@progbits,_ZN10subprocess13AutoClosePipeD5Ev,comdat
	.align	2
	.weak	_ZN10subprocess13AutoClosePipeD2Ev
	.type	_ZN10subprocess13AutoClosePipeD2Ev, %function
_ZN10subprocess13AutoClosePipeD2Ev:
.LFB3525:
	.cfi_startproc
	.cfi_personality 0x9b,DW.ref.__gxx_personality_v0
	.cfi_lsda 0x1b,.LLSDA3525
	stp	x29, x30, [sp, -32]!
	.cfi_def_cfa_offset 32
	.cfi_offset 29, -32
	.cfi_offset 30, -24
	mov	x29, sp
	str	x0, [sp, 24]
	ldr	x0, [sp, 24]
	bl	_ZN10subprocess13AutoClosePipe5closeEv
	nop
	ldp	x29, x30, [sp], 32
	.cfi_restore 30
	.cfi_restore 29
	.cfi_def_cfa_offset 0
	ret
	.cfi_endproc
.LFE3525:
	.section	.gcc_except_table
.LLSDA3525:
	.byte	0xff
	.byte	0xff
	.byte	0x1
	.uleb128 .LLSDACSE3525-.LLSDACSB3525
.LLSDACSB3525:
.LLSDACSE3525:
	.section	.text._ZN10subprocess13AutoClosePipeD2Ev,"axG",@progbits,_ZN10subprocess13AutoClosePipeD5Ev,comdat
	.size	_ZN10subprocess13AutoClosePipeD2Ev, .-_ZN10subprocess13AutoClosePipeD2Ev
	.weak	_ZN10subprocess13AutoClosePipeD1Ev
	.set	_ZN10subprocess13AutoClosePipeD1Ev,_ZN10subprocess13AutoClosePipeD2Ev
	.section	.text._ZN10subprocess13AutoClosePipe5closeEv,"axG",@progbits,_ZN10subprocess13AutoClosePipe5closeEv,comdat
	.align	2
	.weak	_ZN10subprocess13AutoClosePipe5closeEv
	.type	_ZN10subprocess13AutoClosePipe5closeEv, %function
_ZN10subprocess13AutoClosePipe5closeEv:
.LFB3527:
	.cfi_startproc
	stp	x29, x30, [sp, -32]!
	.cfi_def_cfa_offset 32
	.cfi_offset 29, -32
	.cfi_offset 30, -24
	mov	x29, sp
	str	x0, [sp, 24]
	ldr	x0, [sp, 24]
	ldr	w0, [x0]
	cmn	w0, #1
	beq	.L166
	ldr	x0, [sp, 24]
	ldr	w0, [x0]
	bl	_ZN10subprocess10pipe_closeEi
	ldr	x0, [sp, 24]
	mov	w1, -1
	str	w1, [x0]
.L166:
	nop
	ldp	x29, x30, [sp], 32
	.cfi_restore 30
	.cfi_restore 29
	.cfi_def_cfa_offset 0
	ret
	.cfi_endproc
.LFE3527:
	.size	_ZN10subprocess13AutoClosePipe5closeEv, .-_ZN10subprocess13AutoClosePipe5closeEv
	.text
	.align	2
	.type	_ZZN10subprocess11pipe_threadEiPSoENKUlvE_clEv, %function
_ZZN10subprocess11pipe_threadEiPSoENKUlvE_clEv:
.LFB3529:
	.cfi_startproc
	.cfi_personality 0x9b,DW.ref.__gxx_personality_v0
	.cfi_lsda 0x1b,.LLSDA3529
	stp	x29, x30, [sp, -96]!
	.cfi_def_cfa_offset 96
	.cfi_offset 29, -96
	.cfi_offset 30, -88
	mov	x29, sp
	stp	x19, x20, [sp, 16]
	.cfi_offset 19, -80
	.cfi_offset 20, -72
	str	x0, [sp, 40]
	adrp	x0, :got:__stack_chk_guard
	ldr	x0, [x0, #:got_lo12:__stack_chk_guard]
	ldr	x1, [x0]
	str	x1, [sp, 88]
	mov	x1, 0
	add	x0, sp, 48
	bl	_ZNSaIcEC1Ev
	add	x1, sp, 48
	add	x0, sp, 64
	mov	x2, x1
	mov	x1, 2048
.LEHB18:
	bl	_ZNSt6vectorIcSaIcEEC1EmRKS0_
.LEHE18:
	add	x0, sp, 48
	bl	_ZNSaIcED1Ev
.L170:
	ldr	x0, [sp, 40]
	ldr	w19, [x0]
	add	x0, sp, 64
	mov	x1, 0
	bl	_ZNSt6vectorIcSaIcEEixEm
	mov	x20, x0
	add	x0, sp, 64
	bl	_ZNKSt6vectorIcSaIcEE4sizeEv
	mov	x2, x0
	mov	x1, x20
	mov	w0, w19
.LEHB19:
	bl	_ZN10subprocess9pipe_readEiPvm
	str	x0, [sp, 56]
	ldr	x0, [sp, 56]
	cmp	x0, 0
	ble	.L178
	ldr	x0, [sp, 40]
	ldr	x19, [x0, 8]
	add	x0, sp, 64
	mov	x1, 0
	bl	_ZNSt6vectorIcSaIcEEixEm
	ldr	x2, [sp, 56]
	mov	x1, x0
	mov	x0, x19
	bl	_ZNSo5writeEPKcl
.LEHE19:
	b	.L170
.L178:
	nop
	add	x0, sp, 64
	bl	_ZNSt6vectorIcSaIcEED1Ev
	nop
	adrp	x0, :got:__stack_chk_guard
	ldr	x0, [x0, #:got_lo12:__stack_chk_guard]
	ldr	x2, [sp, 88]
	ldr	x1, [x0]
	subs	x2, x2, x1
	mov	x1, 0
	beq	.L173
	b	.L177
.L174:
	mov	x19, x0
	add	x0, sp, 48
	bl	_ZNSaIcED1Ev
	mov	x0, x19
.LEHB20:
	bl	_Unwind_Resume
.L175:
	mov	x19, x0
	add	x0, sp, 64
	bl	_ZNSt6vectorIcSaIcEED1Ev
	mov	x0, x19
	bl	_Unwind_Resume
.LEHE20:
.L177:
	bl	__stack_chk_fail
.L173:
	ldp	x19, x20, [sp, 16]
	ldp	x29, x30, [sp], 96
	.cfi_restore 30
	.cfi_restore 29
	.cfi_restore 19
	.cfi_restore 20
	.cfi_def_cfa_offset 0
	ret
	.cfi_endproc
.LFE3529:
	.section	.gcc_except_table
.LLSDA3529:
	.byte	0xff
	.byte	0xff
	.byte	0x1
	.uleb128 .LLSDACSE3529-.LLSDACSB3529
.LLSDACSB3529:
	.uleb128 .LEHB18-.LFB3529
	.uleb128 .LEHE18-.LEHB18
	.uleb128 .L174-.LFB3529
	.uleb128 0
	.uleb128 .LEHB19-.LFB3529
	.uleb128 .LEHE19-.LEHB19
	.uleb128 .L175-.LFB3529
	.uleb128 0
	.uleb128 .LEHB20-.LFB3529
	.uleb128 .LEHE20-.LEHB20
	.uleb128 0
	.uleb128 0
.LLSDACSE3529:
	.text
	.size	_ZZN10subprocess11pipe_threadEiPSoENKUlvE_clEv, .-_ZZN10subprocess11pipe_threadEiPSoENKUlvE_clEv
	.align	2
	.global	_ZN10subprocess11pipe_threadEiPSo
	.type	_ZN10subprocess11pipe_threadEiPSo, %function
_ZN10subprocess11pipe_threadEiPSo:
.LFB3528:
	.cfi_startproc
	.cfi_personality 0x9b,DW.ref.__gxx_personality_v0
	.cfi_lsda 0x1b,.LLSDA3528
	stp	x29, x30, [sp, -80]!
	.cfi_def_cfa_offset 80
	.cfi_offset 29, -80
	.cfi_offset 30, -72
	mov	x29, sp
	str	x19, [sp, 16]
	.cfi_offset 19, -64
	str	w0, [sp, 44]
	str	x1, [sp, 32]
	adrp	x0, :got:__stack_chk_guard
	ldr	x0, [x0, #:got_lo12:__stack_chk_guard]
	ldr	x1, [x0]
	str	x1, [sp, 72]
	mov	x1, 0
	ldr	w0, [sp, 44]
	str	w0, [sp, 56]
	ldr	x0, [sp, 32]
	str	x0, [sp, 64]
	add	x1, sp, 56
	add	x0, sp, 48
.LEHB21:
	bl	_ZNSt6threadC1IZN10subprocess11pipe_threadEiPSoEUlvE_JEvEEOT_DpOT0_
.LEHE21:
	add	x0, sp, 48
.LEHB22:
	bl	_ZNSt6thread6detachEv
.LEHE22:
	add	x0, sp, 48
	bl	_ZNSt6threadD1Ev
	adrp	x0, :got:__stack_chk_guard
	ldr	x0, [x0, #:got_lo12:__stack_chk_guard]
	ldr	x2, [sp, 72]
	ldr	x1, [x0]
	subs	x2, x2, x1
	mov	x1, 0
	beq	.L181
	b	.L183
.L182:
	mov	x19, x0
	add	x0, sp, 48
	bl	_ZNSt6threadD1Ev
	mov	x0, x19
.LEHB23:
	bl	_Unwind_Resume
.LEHE23:
.L183:
	bl	__stack_chk_fail
.L181:
	ldr	x19, [sp, 16]
	ldp	x29, x30, [sp], 80
	.cfi_restore 30
	.cfi_restore 29
	.cfi_restore 19
	.cfi_def_cfa_offset 0
	ret
	.cfi_endproc
.LFE3528:
	.section	.gcc_except_table
.LLSDA3528:
	.byte	0xff
	.byte	0xff
	.byte	0x1
	.uleb128 .LLSDACSE3528-.LLSDACSB3528
.LLSDACSB3528:
	.uleb128 .LEHB21-.LFB3528
	.uleb128 .LEHE21-.LEHB21
	.uleb128 0
	.uleb128 0
	.uleb128 .LEHB22-.LFB3528
	.uleb128 .LEHE22-.LEHB22
	.uleb128 .L182-.LFB3528
	.uleb128 0
	.uleb128 .LEHB23-.LFB3528
	.uleb128 .LEHE23-.LEHB23
	.uleb128 0
	.uleb128 0
.LLSDACSE3528:
	.text
	.size	_ZN10subprocess11pipe_threadEiPSo, .-_ZN10subprocess11pipe_threadEiPSo
	.align	2
	.type	_ZZN10subprocess11pipe_threadEiP8_IO_FILEENKUlvE_clEv, %function
_ZZN10subprocess11pipe_threadEiP8_IO_FILEENKUlvE_clEv:
.LFB3531:
	.cfi_startproc
	.cfi_personality 0x9b,DW.ref.__gxx_personality_v0
	.cfi_lsda 0x1b,.LLSDA3531
	stp	x29, x30, [sp, -96]!
	.cfi_def_cfa_offset 96
	.cfi_offset 29, -96
	.cfi_offset 30, -88
	mov	x29, sp
	stp	x19, x20, [sp, 16]
	.cfi_offset 19, -80
	.cfi_offset 20, -72
	str	x0, [sp, 40]
	adrp	x0, :got:__stack_chk_guard
	ldr	x0, [x0, #:got_lo12:__stack_chk_guard]
	ldr	x1, [x0]
	str	x1, [sp, 88]
	mov	x1, 0
	add	x0, sp, 48
	bl	_ZNSaIcEC1Ev
	add	x1, sp, 48
	add	x0, sp, 64
	mov	x2, x1
	mov	x1, 2048
.LEHB24:
	bl	_ZNSt6vectorIcSaIcEEC1EmRKS0_
.LEHE24:
	add	x0, sp, 48
	bl	_ZNSaIcED1Ev
.L187:
	ldr	x0, [sp, 40]
	ldr	w19, [x0]
	add	x0, sp, 64
	mov	x1, 0
	bl	_ZNSt6vectorIcSaIcEEixEm
	mov	x20, x0
	add	x0, sp, 64
	bl	_ZNKSt6vectorIcSaIcEE4sizeEv
	mov	x2, x0
	mov	x1, x20
	mov	w0, w19
.LEHB25:
	bl	_ZN10subprocess9pipe_readEiPvm
	str	x0, [sp, 56]
	ldr	x0, [sp, 56]
	cmp	x0, 0
	ble	.L195
	add	x0, sp, 64
	mov	x1, 0
	bl	_ZNSt6vectorIcSaIcEEixEm
	mov	x4, x0
	ldr	x1, [sp, 56]
	ldr	x0, [sp, 40]
	ldr	x0, [x0, 8]
	mov	x3, x0
	mov	x2, x1
	mov	x1, 1
	mov	x0, x4
	bl	fwrite
.LEHE25:
	b	.L187
.L195:
	nop
	add	x0, sp, 64
	bl	_ZNSt6vectorIcSaIcEED1Ev
	nop
	adrp	x0, :got:__stack_chk_guard
	ldr	x0, [x0, #:got_lo12:__stack_chk_guard]
	ldr	x2, [sp, 88]
	ldr	x1, [x0]
	subs	x2, x2, x1
	mov	x1, 0
	beq	.L190
	b	.L194
.L191:
	mov	x19, x0
	add	x0, sp, 48
	bl	_ZNSaIcED1Ev
	mov	x0, x19
.LEHB26:
	bl	_Unwind_Resume
.L192:
	mov	x19, x0
	add	x0, sp, 64
	bl	_ZNSt6vectorIcSaIcEED1Ev
	mov	x0, x19
	bl	_Unwind_Resume
.LEHE26:
.L194:
	bl	__stack_chk_fail
.L190:
	ldp	x19, x20, [sp, 16]
	ldp	x29, x30, [sp], 96
	.cfi_restore 30
	.cfi_restore 29
	.cfi_restore 19
	.cfi_restore 20
	.cfi_def_cfa_offset 0
	ret
	.cfi_endproc
.LFE3531:
	.section	.gcc_except_table
.LLSDA3531:
	.byte	0xff
	.byte	0xff
	.byte	0x1
	.uleb128 .LLSDACSE3531-.LLSDACSB3531
.LLSDACSB3531:
	.uleb128 .LEHB24-.LFB3531
	.uleb128 .LEHE24-.LEHB24
	.uleb128 .L191-.LFB3531
	.uleb128 0
	.uleb128 .LEHB25-.LFB3531
	.uleb128 .LEHE25-.LEHB25
	.uleb128 .L192-.LFB3531
	.uleb128 0
	.uleb128 .LEHB26-.LFB3531
	.uleb128 .LEHE26-.LEHB26
	.uleb128 0
	.uleb128 0
.LLSDACSE3531:
	.text
	.size	_ZZN10subprocess11pipe_threadEiP8_IO_FILEENKUlvE_clEv, .-_ZZN10subprocess11pipe_threadEiP8_IO_FILEENKUlvE_clEv
	.align	2
	.global	_ZN10subprocess11pipe_threadEiP8_IO_FILE
	.type	_ZN10subprocess11pipe_threadEiP8_IO_FILE, %function
_ZN10subprocess11pipe_threadEiP8_IO_FILE:
.LFB3530:
	.cfi_startproc
	.cfi_personality 0x9b,DW.ref.__gxx_personality_v0
	.cfi_lsda 0x1b,.LLSDA3530
	stp	x29, x30, [sp, -80]!
	.cfi_def_cfa_offset 80
	.cfi_offset 29, -80
	.cfi_offset 30, -72
	mov	x29, sp
	str	x19, [sp, 16]
	.cfi_offset 19, -64
	str	w0, [sp, 44]
	str	x1, [sp, 32]
	adrp	x0, :got:__stack_chk_guard
	ldr	x0, [x0, #:got_lo12:__stack_chk_guard]
	ldr	x1, [x0]
	str	x1, [sp, 72]
	mov	x1, 0
	ldr	w0, [sp, 44]
	str	w0, [sp, 56]
	ldr	x0, [sp, 32]
	str	x0, [sp, 64]
	add	x1, sp, 56
	add	x0, sp, 48
.LEHB27:
	bl	_ZNSt6threadC1IZN10subprocess11pipe_threadEiP8_IO_FILEEUlvE_JEvEEOT_DpOT0_
.LEHE27:
	add	x0, sp, 48
.LEHB28:
	bl	_ZNSt6thread6detachEv
.LEHE28:
	add	x0, sp, 48
	bl	_ZNSt6threadD1Ev
	adrp	x0, :got:__stack_chk_guard
	ldr	x0, [x0, #:got_lo12:__stack_chk_guard]
	ldr	x2, [sp, 72]
	ldr	x1, [x0]
	subs	x2, x2, x1
	mov	x1, 0
	beq	.L198
	b	.L200
.L199:
	mov	x19, x0
	add	x0, sp, 48
	bl	_ZNSt6threadD1Ev
	mov	x0, x19
.LEHB29:
	bl	_Unwind_Resume
.LEHE29:
.L200:
	bl	__stack_chk_fail
.L198:
	ldr	x19, [sp, 16]
	ldp	x29, x30, [sp], 80
	.cfi_restore 30
	.cfi_restore 29
	.cfi_restore 19
	.cfi_def_cfa_offset 0
	ret
	.cfi_endproc
.LFE3530:
	.section	.gcc_except_table
.LLSDA3530:
	.byte	0xff
	.byte	0xff
	.byte	0x1
	.uleb128 .LLSDACSE3530-.LLSDACSB3530
.LLSDACSB3530:
	.uleb128 .LEHB27-.LFB3530
	.uleb128 .LEHE27-.LEHB27
	.uleb128 0
	.uleb128 0
	.uleb128 .LEHB28-.LFB3530
	.uleb128 .LEHE28-.LEHB28
	.uleb128 .L199-.LFB3530
	.uleb128 0
	.uleb128 .LEHB29-.LFB3530
	.uleb128 .LEHE29-.LEHB29
	.uleb128 0
	.uleb128 0
.LLSDACSE3530:
	.text
	.size	_ZN10subprocess11pipe_threadEiP8_IO_FILE, .-_ZN10subprocess11pipe_threadEiP8_IO_FILE
	.align	2
	.type	_ZZN10subprocess11pipe_threadEP8_IO_FILEibENKUlvE_clEv, %function
_ZZN10subprocess11pipe_threadEP8_IO_FILEibENKUlvE_clEv:
.LFB3533:
	.cfi_startproc
	.cfi_personality 0x9b,DW.ref.__gxx_personality_v0
	.cfi_lsda 0x1b,.LLSDA3533
	stp	x29, x30, [sp, -112]!
	.cfi_def_cfa_offset 112
	.cfi_offset 29, -112
	.cfi_offset 30, -104
	mov	x29, sp
	str	x19, [sp, 16]
	.cfi_offset 19, -96
	str	x0, [sp, 40]
	adrp	x0, :got:__stack_chk_guard
	ldr	x0, [x0, #:got_lo12:__stack_chk_guard]
	ldr	x1, [x0]
	str	x1, [sp, 104]
	mov	x1, 0
	ldr	x0, [sp, 40]
	ldr	w1, [x0]
	ldr	x0, [sp, 40]
	ldrb	w2, [x0, 4]
	add	x0, sp, 64
	bl	_ZN10subprocess13AutoClosePipeC1Eib
	add	x0, sp, 56
	bl	_ZNSaIcEC1Ev
	add	x1, sp, 56
	add	x0, sp, 80
	mov	x2, x1
	mov	x1, 2048
.LEHB30:
	bl	_ZNSt6vectorIcSaIcEEC1EmRKS0_
.LEHE30:
	add	x0, sp, 56
	bl	_ZNSaIcED1Ev
.L204:
	add	x0, sp, 80
	mov	x1, 0
	bl	_ZNSt6vectorIcSaIcEEixEm
	mov	x19, x0
	add	x0, sp, 80
	bl	_ZNKSt6vectorIcSaIcEE4sizeEv
	mov	x1, x0
	ldr	x0, [sp, 40]
	ldr	x0, [x0, 8]
	mov	x3, x0
	mov	x2, x1
	mov	x1, 1
	mov	x0, x19
.LEHB31:
	bl	fread
	str	x0, [sp, 72]
	ldr	x0, [sp, 72]
	cmp	x0, 0
	ble	.L213
	ldr	x0, [sp, 40]
	ldr	w19, [x0]
	add	x0, sp, 80
	mov	x1, 0
	bl	_ZNSt6vectorIcSaIcEEixEm
	mov	x1, x0
	ldr	x0, [sp, 72]
	mov	x2, x0
	mov	w0, w19
	bl	_ZN10subprocess10pipe_writeEiPKvm
.LEHE31:
	b	.L204
.L213:
	nop
	add	x0, sp, 80
	bl	_ZNSt6vectorIcSaIcEED1Ev
	add	x0, sp, 64
	bl	_ZN10subprocess13AutoClosePipeD1Ev
	nop
	adrp	x0, :got:__stack_chk_guard
	ldr	x0, [x0, #:got_lo12:__stack_chk_guard]
	ldr	x2, [sp, 104]
	ldr	x1, [x0]
	subs	x2, x2, x1
	mov	x1, 0
	beq	.L208
	b	.L212
.L209:
	mov	x19, x0
	add	x0, sp, 56
	bl	_ZNSaIcED1Ev
	b	.L206
.L210:
	mov	x19, x0
	add	x0, sp, 80
	bl	_ZNSt6vectorIcSaIcEED1Ev
.L206:
	add	x0, sp, 64
	bl	_ZN10subprocess13AutoClosePipeD1Ev
	mov	x0, x19
.LEHB32:
	bl	_Unwind_Resume
.LEHE32:
.L212:
	bl	__stack_chk_fail
.L208:
	ldr	x19, [sp, 16]
	ldp	x29, x30, [sp], 112
	.cfi_restore 30
	.cfi_restore 29
	.cfi_restore 19
	.cfi_def_cfa_offset 0
	ret
	.cfi_endproc
.LFE3533:
	.section	.gcc_except_table
.LLSDA3533:
	.byte	0xff
	.byte	0xff
	.byte	0x1
	.uleb128 .LLSDACSE3533-.LLSDACSB3533
.LLSDACSB3533:
	.uleb128 .LEHB30-.LFB3533
	.uleb128 .LEHE30-.LEHB30
	.uleb128 .L209-.LFB3533
	.uleb128 0
	.uleb128 .LEHB31-.LFB3533
	.uleb128 .LEHE31-.LEHB31
	.uleb128 .L210-.LFB3533
	.uleb128 0
	.uleb128 .LEHB32-.LFB3533
	.uleb128 .LEHE32-.LEHB32
	.uleb128 0
	.uleb128 0
.LLSDACSE3533:
	.text
	.size	_ZZN10subprocess11pipe_threadEP8_IO_FILEibENKUlvE_clEv, .-_ZZN10subprocess11pipe_threadEP8_IO_FILEibENKUlvE_clEv
	.align	2
	.global	_ZN10subprocess11pipe_threadEP8_IO_FILEib
	.type	_ZN10subprocess11pipe_threadEP8_IO_FILEib, %function
_ZN10subprocess11pipe_threadEP8_IO_FILEib:
.LFB3532:
	.cfi_startproc
	.cfi_personality 0x9b,DW.ref.__gxx_personality_v0
	.cfi_lsda 0x1b,.LLSDA3532
	stp	x29, x30, [sp, -80]!
	.cfi_def_cfa_offset 80
	.cfi_offset 29, -80
	.cfi_offset 30, -72
	mov	x29, sp
	str	x19, [sp, 16]
	.cfi_offset 19, -64
	str	x0, [sp, 40]
	str	w1, [sp, 36]
	strb	w2, [sp, 35]
	adrp	x0, :got:__stack_chk_guard
	ldr	x0, [x0, #:got_lo12:__stack_chk_guard]
	ldr	x1, [x0]
	str	x1, [sp, 72]
	mov	x1, 0
	ldr	w0, [sp, 36]
	str	w0, [sp, 56]
	ldrb	w0, [sp, 35]
	strb	w0, [sp, 60]
	ldr	x0, [sp, 40]
	str	x0, [sp, 64]
	add	x1, sp, 56
	add	x0, sp, 48
.LEHB33:
	bl	_ZNSt6threadC1IZN10subprocess11pipe_threadEP8_IO_FILEibEUlvE_JEvEEOT_DpOT0_
.LEHE33:
	add	x0, sp, 48
.LEHB34:
	bl	_ZNSt6thread6detachEv
.LEHE34:
	add	x0, sp, 48
	bl	_ZNSt6threadD1Ev
	adrp	x0, :got:__stack_chk_guard
	ldr	x0, [x0, #:got_lo12:__stack_chk_guard]
	ldr	x2, [sp, 72]
	ldr	x1, [x0]
	subs	x2, x2, x1
	mov	x1, 0
	beq	.L216
	b	.L218
.L217:
	mov	x19, x0
	add	x0, sp, 48
	bl	_ZNSt6threadD1Ev
	mov	x0, x19
.LEHB35:
	bl	_Unwind_Resume
.LEHE35:
.L218:
	bl	__stack_chk_fail
.L216:
	ldr	x19, [sp, 16]
	ldp	x29, x30, [sp], 80
	.cfi_restore 30
	.cfi_restore 29
	.cfi_restore 19
	.cfi_def_cfa_offset 0
	ret
	.cfi_endproc
.LFE3532:
	.section	.gcc_except_table
.LLSDA3532:
	.byte	0xff
	.byte	0xff
	.byte	0x1
	.uleb128 .LLSDACSE3532-.LLSDACSB3532
.LLSDACSB3532:
	.uleb128 .LEHB33-.LFB3532
	.uleb128 .LEHE33-.LEHB33
	.uleb128 0
	.uleb128 0
	.uleb128 .LEHB34-.LFB3532
	.uleb128 .LEHE34-.LEHB34
	.uleb128 .L217-.LFB3532
	.uleb128 0
	.uleb128 .LEHB35-.LFB3532
	.uleb128 .LEHE35-.LEHB35
	.uleb128 0
	.uleb128 0
.LLSDACSE3532:
	.text
	.size	_ZN10subprocess11pipe_threadEP8_IO_FILEib, .-_ZN10subprocess11pipe_threadEP8_IO_FILEib
	.align	2
	.type	_ZZN10subprocess11pipe_threadERNSt7__cxx1112basic_stringIcSt11char_traitsIcESaIcEEEibENKUlvE_clEv, %function
_ZZN10subprocess11pipe_threadERNSt7__cxx1112basic_stringIcSt11char_traitsIcESaIcEEEibENKUlvE_clEv:
.LFB3535:
	.cfi_startproc
	.cfi_personality 0x9b,DW.ref.__gxx_personality_v0
	.cfi_lsda 0x1b,.LLSDA3535
	stp	x29, x30, [sp, -80]!
	.cfi_def_cfa_offset 80
	.cfi_offset 29, -80
	.cfi_offset 30, -72
	mov	x29, sp
	stp	x19, x20, [sp, 16]
	.cfi_offset 19, -64
	.cfi_offset 20, -56
	str	x0, [sp, 40]
	adrp	x0, :got:__stack_chk_guard
	ldr	x0, [x0, #:got_lo12:__stack_chk_guard]
	ldr	x1, [x0]
	str	x1, [sp, 72]
	mov	x1, 0
	ldr	x0, [sp, 40]
	ldr	w1, [x0, 32]
	ldr	x0, [sp, 40]
	ldrb	w2, [x0, 36]
	add	x0, sp, 48
	bl	_ZN10subprocess13AutoClosePipeC1Eib
	str	xzr, [sp, 56]
	b	.L220
.L223:
	ldr	x0, [sp, 40]
	ldr	w19, [x0, 32]
	ldr	x0, [sp, 40]
	bl	_ZNKSt7__cxx1112basic_stringIcSt11char_traitsIcESaIcEE5c_strEv
	mov	x1, x0
	ldr	x0, [sp, 56]
	add	x20, x1, x0
	ldr	x0, [sp, 40]
	bl	_ZNKSt7__cxx1112basic_stringIcSt11char_traitsIcESaIcEE4sizeEv
	mov	x1, x0
	ldr	x0, [sp, 56]
	sub	x0, x1, x0
	mov	x2, x0
	mov	x1, x20
	mov	w0, w19
.LEHB36:
	bl	_ZN10subprocess10pipe_writeEiPKvm
.LEHE36:
	str	x0, [sp, 64]
	ldr	x0, [sp, 64]
	cmp	x0, 0
	ble	.L228
	ldr	x0, [sp, 64]
	ldr	x1, [sp, 56]
	add	x0, x1, x0
	str	x0, [sp, 56]
.L220:
	ldr	x0, [sp, 40]
	bl	_ZNKSt7__cxx1112basic_stringIcSt11char_traitsIcESaIcEE4sizeEv
	mov	x1, x0
	ldr	x0, [sp, 56]
	cmp	x0, x1
	cset	w0, cc
	and	w0, w0, 255
	cmp	w0, 0
	bne	.L223
	b	.L222
.L228:
	nop
.L222:
	add	x0, sp, 48
	bl	_ZN10subprocess13AutoClosePipeD1Ev
	nop
	adrp	x0, :got:__stack_chk_guard
	ldr	x0, [x0, #:got_lo12:__stack_chk_guard]
	ldr	x2, [sp, 72]
	ldr	x1, [x0]
	subs	x2, x2, x1
	mov	x1, 0
	beq	.L225
	b	.L227
.L226:
	mov	x19, x0
	add	x0, sp, 48
	bl	_ZN10subprocess13AutoClosePipeD1Ev
	mov	x0, x19
.LEHB37:
	bl	_Unwind_Resume
.LEHE37:
.L227:
	bl	__stack_chk_fail
.L225:
	ldp	x19, x20, [sp, 16]
	ldp	x29, x30, [sp], 80
	.cfi_restore 30
	.cfi_restore 29
	.cfi_restore 19
	.cfi_restore 20
	.cfi_def_cfa_offset 0
	ret
	.cfi_endproc
.LFE3535:
	.section	.gcc_except_table
.LLSDA3535:
	.byte	0xff
	.byte	0xff
	.byte	0x1
	.uleb128 .LLSDACSE3535-.LLSDACSB3535
.LLSDACSB3535:
	.uleb128 .LEHB36-.LFB3535
	.uleb128 .LEHE36-.LEHB36
	.uleb128 .L226-.LFB3535
	.uleb128 0
	.uleb128 .LEHB37-.LFB3535
	.uleb128 .LEHE37-.LEHB37
	.uleb128 0
	.uleb128 0
.LLSDACSE3535:
	.text
	.size	_ZZN10subprocess11pipe_threadERNSt7__cxx1112basic_stringIcSt11char_traitsIcESaIcEEEibENKUlvE_clEv, .-_ZZN10subprocess11pipe_threadERNSt7__cxx1112basic_stringIcSt11char_traitsIcESaIcEEEibENKUlvE_clEv
	.align	2
	.type	_ZZN10subprocess11pipe_threadERNSt7__cxx1112basic_stringIcSt11char_traitsIcESaIcEEEibENUlvE_D2Ev, %function
_ZZN10subprocess11pipe_threadERNSt7__cxx1112basic_stringIcSt11char_traitsIcESaIcEEEibENUlvE_D2Ev:
.LFB3537:
	.cfi_startproc
	stp	x29, x30, [sp, -32]!
	.cfi_def_cfa_offset 32
	.cfi_offset 29, -32
	.cfi_offset 30, -24
	mov	x29, sp
	str	x0, [sp, 24]
	ldr	x0, [sp, 24]
	bl	_ZNSt7__cxx1112basic_stringIcSt11char_traitsIcESaIcEED1Ev
	nop
	ldp	x29, x30, [sp], 32
	.cfi_restore 30
	.cfi_restore 29
	.cfi_def_cfa_offset 0
	ret
	.cfi_endproc
.LFE3537:
	.size	_ZZN10subprocess11pipe_threadERNSt7__cxx1112basic_stringIcSt11char_traitsIcESaIcEEEibENUlvE_D2Ev, .-_ZZN10subprocess11pipe_threadERNSt7__cxx1112basic_stringIcSt11char_traitsIcESaIcEEEibENUlvE_D2Ev
	.set	_ZZN10subprocess11pipe_threadERNSt7__cxx1112basic_stringIcSt11char_traitsIcESaIcEEEibENUlvE_D1Ev,_ZZN10subprocess11pipe_threadERNSt7__cxx1112basic_stringIcSt11char_traitsIcESaIcEEEibENUlvE_D2Ev
	.align	2
	.global	_ZN10subprocess11pipe_threadERNSt7__cxx1112basic_stringIcSt11char_traitsIcESaIcEEEib
	.type	_ZN10subprocess11pipe_threadERNSt7__cxx1112basic_stringIcSt11char_traitsIcESaIcEEEib, %function
_ZN10subprocess11pipe_threadERNSt7__cxx1112basic_stringIcSt11char_traitsIcESaIcEEEib:
.LFB3534:
	.cfi_startproc
	.cfi_personality 0x9b,DW.ref.__gxx_personality_v0
	.cfi_lsda 0x1b,.LLSDA3534
	stp	x29, x30, [sp, -112]!
	.cfi_def_cfa_offset 112
	.cfi_offset 29, -112
	.cfi_offset 30, -104
	mov	x29, sp
	str	x19, [sp, 16]
	.cfi_offset 19, -96
	str	x0, [sp, 40]
	str	w1, [sp, 36]
	strb	w2, [sp, 35]
	adrp	x0, :got:__stack_chk_guard
	ldr	x0, [x0, #:got_lo12:__stack_chk_guard]
	ldr	x1, [x0]
	str	x1, [sp, 104]
	mov	x1, 0
	ldr	x0, [sp, 40]
	bl	_ZSt4moveIRNSt7__cxx1112basic_stringIcSt11char_traitsIcESaIcEEEEONSt16remove_referenceIT_E4typeEOS8_
	mov	x1, x0
	add	x0, sp, 64
	bl	_ZNSt7__cxx1112basic_stringIcSt11char_traitsIcESaIcEEC1EOS4_
	ldr	w0, [sp, 36]
	str	w0, [sp, 96]
	ldrb	w0, [sp, 35]
	strb	w0, [sp, 100]
	add	x1, sp, 64
	add	x0, sp, 56
.LEHB38:
	bl	_ZNSt6threadC1IZN10subprocess11pipe_threadERNSt7__cxx1112basic_stringIcSt11char_traitsIcESaIcEEEibEUlvE_JEvEEOT_DpOT0_
.LEHE38:
	add	x0, sp, 64
	bl	_ZZN10subprocess11pipe_threadERNSt7__cxx1112basic_stringIcSt11char_traitsIcESaIcEEEibENUlvE_D1Ev
	add	x0, sp, 56
.LEHB39:
	bl	_ZNSt6thread6detachEv
.LEHE39:
	add	x0, sp, 56
	bl	_ZNSt6threadD1Ev
	adrp	x0, :got:__stack_chk_guard
	ldr	x0, [x0, #:got_lo12:__stack_chk_guard]
	ldr	x2, [sp, 104]
	ldr	x1, [x0]
	subs	x2, x2, x1
	mov	x1, 0
	beq	.L233
	b	.L236
.L234:
	mov	x19, x0
	add	x0, sp, 64
	bl	_ZZN10subprocess11pipe_threadERNSt7__cxx1112basic_stringIcSt11char_traitsIcESaIcEEEibENUlvE_D1Ev
	mov	x0, x19
.LEHB40:
	bl	_Unwind_Resume
.L235:
	mov	x19, x0
	add	x0, sp, 56
	bl	_ZNSt6threadD1Ev
	mov	x0, x19
	bl	_Unwind_Resume
.LEHE40:
.L236:
	bl	__stack_chk_fail
.L233:
	ldr	x19, [sp, 16]
	ldp	x29, x30, [sp], 112
	.cfi_restore 30
	.cfi_restore 29
	.cfi_restore 19
	.cfi_def_cfa_offset 0
	ret
	.cfi_endproc
.LFE3534:
	.section	.gcc_except_table
.LLSDA3534:
	.byte	0xff
	.byte	0xff
	.byte	0x1
	.uleb128 .LLSDACSE3534-.LLSDACSB3534
.LLSDACSB3534:
	.uleb128 .LEHB38-.LFB3534
	.uleb128 .LEHE38-.LEHB38
	.uleb128 .L234-.LFB3534
	.uleb128 0
	.uleb128 .LEHB39-.LFB3534
	.uleb128 .LEHE39-.LEHB39
	.uleb128 .L235-.LFB3534
	.uleb128 0
	.uleb128 .LEHB40-.LFB3534
	.uleb128 .LEHE40-.LEHB40
	.uleb128 0
	.uleb128 0
.LLSDACSE3534:
	.text
	.size	_ZN10subprocess11pipe_threadERNSt7__cxx1112basic_stringIcSt11char_traitsIcESaIcEEEib, .-_ZN10subprocess11pipe_threadERNSt7__cxx1112basic_stringIcSt11char_traitsIcESaIcEEEib
	.align	2
	.type	_ZZN10subprocess11pipe_threadEPSiibENKUlvE_clEv, %function
_ZZN10subprocess11pipe_threadEPSiibENKUlvE_clEv:
.LFB3540:
	.cfi_startproc
	.cfi_personality 0x9b,DW.ref.__gxx_personality_v0
	.cfi_lsda 0x1b,.LLSDA3540
	stp	x29, x30, [sp, -112]!
	.cfi_def_cfa_offset 112
	.cfi_offset 29, -112
	.cfi_offset 30, -104
	mov	x29, sp
	stp	x19, x20, [sp, 16]
	.cfi_offset 19, -96
	.cfi_offset 20, -88
	str	x0, [sp, 40]
	adrp	x0, :got:__stack_chk_guard
	ldr	x0, [x0, #:got_lo12:__stack_chk_guard]
	ldr	x1, [x0]
	str	x1, [sp, 104]
	mov	x1, 0
	ldr	x0, [sp, 40]
	ldr	w1, [x0]
	ldr	x0, [sp, 40]
	ldrb	w2, [x0, 4]
	add	x0, sp, 64
	bl	_ZN10subprocess13AutoClosePipeC1Eib
	add	x0, sp, 56
	bl	_ZNSaIcEC1Ev
	add	x1, sp, 56
	add	x0, sp, 80
	mov	x2, x1
	mov	x1, 2048
.LEHB41:
	bl	_ZNSt6vectorIcSaIcEEC1EmRKS0_
.LEHE41:
	add	x0, sp, 56
	bl	_ZNSaIcED1Ev
.L243:
	ldr	x0, [sp, 40]
	ldr	x19, [x0, 8]
	add	x0, sp, 80
	mov	x1, 0
	bl	_ZNSt6vectorIcSaIcEEixEm
	mov	x20, x0
	add	x0, sp, 80
	bl	_ZNKSt6vectorIcSaIcEE4sizeEv
	mov	x2, x0
	mov	x1, x20
	mov	x0, x19
.LEHB42:
	bl	_ZNSi4readEPcl
	ldr	x0, [sp, 40]
	ldr	x0, [x0, 8]
	bl	_ZNKSi6gcountEv
	str	x0, [sp, 72]
	ldr	x0, [sp, 40]
	ldr	x0, [x0, 8]
	ldr	x1, [sp, 40]
	ldr	x1, [x1, 8]
	ldr	x1, [x1]
	sub	x1, x1, #24
	ldr	x1, [x1]
	add	x0, x0, x1
	bl	_ZNKSt9basic_iosIcSt11char_traitsIcEE3badEv
	and	w0, w0, 255
	cmp	w0, 0
	bne	.L251
	ldr	x0, [sp, 72]
	cmp	x0, 0
	bgt	.L240
	ldr	x0, [sp, 40]
	ldr	x0, [x0, 8]
	ldr	x1, [sp, 40]
	ldr	x1, [x1, 8]
	ldr	x1, [x1]
	sub	x1, x1, #24
	ldr	x1, [x1]
	add	x0, x0, x1
	bl	_ZNKSt9basic_iosIcSt11char_traitsIcEE3eofEv
	and	w0, w0, 255
	cmp	w0, 0
	beq	.L252
	b	.L239
.L240:
	ldr	x0, [sp, 40]
	ldr	w19, [x0]
	add	x0, sp, 80
	mov	x1, 0
	bl	_ZNSt6vectorIcSaIcEEixEm
	mov	x1, x0
	ldr	x0, [sp, 72]
	mov	x2, x0
	mov	w0, w19
	bl	_ZN10subprocess10pipe_writeEiPKvm
.LEHE42:
	b	.L243
.L252:
	nop
	b	.L243
.L251:
	nop
.L239:
	add	x0, sp, 80
	bl	_ZNSt6vectorIcSaIcEED1Ev
	add	x0, sp, 64
	bl	_ZN10subprocess13AutoClosePipeD1Ev
	nop
	adrp	x0, :got:__stack_chk_guard
	ldr	x0, [x0, #:got_lo12:__stack_chk_guard]
	ldr	x2, [sp, 104]
	ldr	x1, [x0]
	subs	x2, x2, x1
	mov	x1, 0
	beq	.L247
	b	.L250
.L248:
	mov	x19, x0
	add	x0, sp, 56
	bl	_ZNSaIcED1Ev
	b	.L245
.L249:
	mov	x19, x0
	add	x0, sp, 80
	bl	_ZNSt6vectorIcSaIcEED1Ev
.L245:
	add	x0, sp, 64
	bl	_ZN10subprocess13AutoClosePipeD1Ev
	mov	x0, x19
.LEHB43:
	bl	_Unwind_Resume
.LEHE43:
.L250:
	bl	__stack_chk_fail
.L247:
	ldp	x19, x20, [sp, 16]
	ldp	x29, x30, [sp], 112
	.cfi_restore 30
	.cfi_restore 29
	.cfi_restore 19
	.cfi_restore 20
	.cfi_def_cfa_offset 0
	ret
	.cfi_endproc
.LFE3540:
	.section	.gcc_except_table
.LLSDA3540:
	.byte	0xff
	.byte	0xff
	.byte	0x1
	.uleb128 .LLSDACSE3540-.LLSDACSB3540
.LLSDACSB3540:
	.uleb128 .LEHB41-.LFB3540
	.uleb128 .LEHE41-.LEHB41
	.uleb128 .L248-.LFB3540
	.uleb128 0
	.uleb128 .LEHB42-.LFB3540
	.uleb128 .LEHE42-.LEHB42
	.uleb128 .L249-.LFB3540
	.uleb128 0
	.uleb128 .LEHB43-.LFB3540
	.uleb128 .LEHE43-.LEHB43
	.uleb128 0
	.uleb128 0
.LLSDACSE3540:
	.text
	.size	_ZZN10subprocess11pipe_threadEPSiibENKUlvE_clEv, .-_ZZN10subprocess11pipe_threadEPSiibENKUlvE_clEv
	.align	2
	.global	_ZN10subprocess11pipe_threadEPSiib
	.type	_ZN10subprocess11pipe_threadEPSiib, %function
_ZN10subprocess11pipe_threadEPSiib:
.LFB3539:
	.cfi_startproc
	.cfi_personality 0x9b,DW.ref.__gxx_personality_v0
	.cfi_lsda 0x1b,.LLSDA3539
	stp	x29, x30, [sp, -80]!
	.cfi_def_cfa_offset 80
	.cfi_offset 29, -80
	.cfi_offset 30, -72
	mov	x29, sp
	str	x19, [sp, 16]
	.cfi_offset 19, -64
	str	x0, [sp, 40]
	str	w1, [sp, 36]
	strb	w2, [sp, 35]
	adrp	x0, :got:__stack_chk_guard
	ldr	x0, [x0, #:got_lo12:__stack_chk_guard]
	ldr	x1, [x0]
	str	x1, [sp, 72]
	mov	x1, 0
	ldr	w0, [sp, 36]
	str	w0, [sp, 56]
	ldrb	w0, [sp, 35]
	strb	w0, [sp, 60]
	ldr	x0, [sp, 40]
	str	x0, [sp, 64]
	add	x1, sp, 56
	add	x0, sp, 48
.LEHB44:
	bl	_ZNSt6threadC1IZN10subprocess11pipe_threadEPSiibEUlvE_JEvEEOT_DpOT0_
.LEHE44:
	add	x0, sp, 48
.LEHB45:
	bl	_ZNSt6thread6detachEv
.LEHE45:
	add	x0, sp, 48
	bl	_ZNSt6threadD1Ev
	adrp	x0, :got:__stack_chk_guard
	ldr	x0, [x0, #:got_lo12:__stack_chk_guard]
	ldr	x2, [sp, 72]
	ldr	x1, [x0]
	subs	x2, x2, x1
	mov	x1, 0
	beq	.L255
	b	.L257
.L256:
	mov	x19, x0
	add	x0, sp, 48
	bl	_ZNSt6threadD1Ev
	mov	x0, x19
.LEHB46:
	bl	_Unwind_Resume
.LEHE46:
.L257:
	bl	__stack_chk_fail
.L255:
	ldr	x19, [sp, 16]
	ldp	x29, x30, [sp], 80
	.cfi_restore 30
	.cfi_restore 29
	.cfi_restore 19
	.cfi_def_cfa_offset 0
	ret
	.cfi_endproc
.LFE3539:
	.section	.gcc_except_table
.LLSDA3539:
	.byte	0xff
	.byte	0xff
	.byte	0x1
	.uleb128 .LLSDACSE3539-.LLSDACSB3539
.LLSDACSB3539:
	.uleb128 .LEHB44-.LFB3539
	.uleb128 .LEHE44-.LEHB44
	.uleb128 0
	.uleb128 0
	.uleb128 .LEHB45-.LFB3539
	.uleb128 .LEHE45-.LEHB45
	.uleb128 .L256-.LFB3539
	.uleb128 0
	.uleb128 .LEHB46-.LFB3539
	.uleb128 .LEHE46-.LEHB46
	.uleb128 0
	.uleb128 0
.LLSDACSE3539:
	.text
	.size	_ZN10subprocess11pipe_threadEPSiib, .-_ZN10subprocess11pipe_threadEPSiib
	.section	.rodata
	.align	3
.LC4:
	.string	"expected something to output to"
	.text
	.align	2
	.global	_ZN10subprocess21setup_redirect_streamEiRSt7variantIJNS_10PipeOptionENSt7__cxx1112basic_stringIcSt11char_traitsIcESaIcEEEiPSiPSoP8_IO_FILEEE
	.type	_ZN10subprocess21setup_redirect_streamEiRSt7variantIJNS_10PipeOptionENSt7__cxx1112basic_stringIcSt11char_traitsIcESaIcEEEiPSiPSoP8_IO_FILEEE, %function
_ZN10subprocess21setup_redirect_streamEiRSt7variantIJNS_10PipeOptionENSt7__cxx1112basic_stringIcSt11char_traitsIcESaIcEEEiPSiPSoP8_IO_FILEEE:
.LFB3541:
	.cfi_startproc
	.cfi_personality 0x9b,DW.ref.__gxx_personality_v0
	.cfi_lsda 0x1b,.LLSDA3541
	stp	x29, x30, [sp, -64]!
	.cfi_def_cfa_offset 64
	.cfi_offset 29, -64
	.cfi_offset 30, -56
	mov	x29, sp
	stp	x19, x20, [sp, 16]
	.cfi_offset 19, -48
	.cfi_offset 20, -40
	str	w0, [sp, 44]
	str	x1, [sp, 32]
	ldr	x0, [sp, 32]
	bl	_ZNKSt7variantIJN10subprocess10PipeOptionENSt7__cxx1112basic_stringIcSt11char_traitsIcESaIcEEEiPSiPSoP8_IO_FILEEE5indexEv
	str	w0, [sp, 60]
	ldr	w0, [sp, 60]
	cmp	w0, 5
	beq	.L259
	ldr	w0, [sp, 60]
	cmp	w0, 5
	bgt	.L266
	ldr	w0, [sp, 60]
	cmp	w0, 4
	beq	.L261
	ldr	w0, [sp, 60]
	cmp	w0, 4
	bgt	.L266
	ldr	w0, [sp, 60]
	cmp	w0, 3
	beq	.L262
	ldr	w0, [sp, 60]
	cmp	w0, 3
	bgt	.L266
	ldr	w0, [sp, 60]
	cmp	w0, 2
	beq	.L267
	ldr	w0, [sp, 60]
	cmp	w0, 2
	bgt	.L266
	ldr	w0, [sp, 60]
	cmp	w0, 0
	beq	.L267
	ldr	w0, [sp, 60]
	cmp	w0, 1
	beq	.L262
	b	.L266
.L262:
	mov	x0, 16
	bl	__cxa_allocate_exception
	mov	x19, x0
	adrp	x0, .LC4
	add	x1, x0, :lo12:.LC4
	mov	x0, x19
.LEHB47:
	bl	_ZNSt12domain_errorC1EPKc
.LEHE47:
	adrp	x0, :got:_ZNSt12domain_errorD1Ev
	ldr	x2, [x0, #:got_lo12:_ZNSt12domain_errorD1Ev]
	adrp	x0, :got:_ZTISt12domain_error
	ldr	x1, [x0, #:got_lo12:_ZTISt12domain_error]
	mov	x0, x19
.LEHB48:
	bl	__cxa_throw
.L261:
	ldr	x0, [sp, 32]
	bl	_ZSt3getIPSoJN10subprocess10PipeOptionENSt7__cxx1112basic_stringIcSt11char_traitsIcESaIcEEEiPSiS0_P8_IO_FILEEERT_RSt7variantIJDpT0_EE
	ldr	x0, [x0]
	mov	x1, x0
	ldr	w0, [sp, 44]
	bl	_ZN10subprocess11pipe_threadEiPSo
	b	.L258
.L259:
	ldr	x0, [sp, 32]
	bl	_ZSt3getIP8_IO_FILEJN10subprocess10PipeOptionENSt7__cxx1112basic_stringIcSt11char_traitsIcESaIcEEEiPSiPSoS1_EERT_RSt7variantIJDpT0_EE
	ldr	x0, [x0]
	mov	x1, x0
	ldr	w0, [sp, 44]
	bl	_ZN10subprocess11pipe_threadEiP8_IO_FILE
	b	.L258
.L265:
	mov	x20, x0
	mov	x0, x19
	bl	__cxa_free_exception
	mov	x0, x20
	bl	_Unwind_Resume
.LEHE48:
.L266:
	nop
	b	.L258
.L267:
	nop
.L258:
	ldp	x19, x20, [sp, 16]
	ldp	x29, x30, [sp], 64
	.cfi_restore 30
	.cfi_restore 29
	.cfi_restore 19
	.cfi_restore 20
	.cfi_def_cfa_offset 0
	ret
	.cfi_endproc
.LFE3541:
	.section	.gcc_except_table
.LLSDA3541:
	.byte	0xff
	.byte	0xff
	.byte	0x1
	.uleb128 .LLSDACSE3541-.LLSDACSB3541
.LLSDACSB3541:
	.uleb128 .LEHB47-.LFB3541
	.uleb128 .LEHE47-.LEHB47
	.uleb128 .L265-.LFB3541
	.uleb128 0
	.uleb128 .LEHB48-.LFB3541
	.uleb128 .LEHE48-.LEHB48
	.uleb128 0
	.uleb128 0
.LLSDACSE3541:
	.text
	.size	_ZN10subprocess21setup_redirect_streamEiRSt7variantIJNS_10PipeOptionENSt7__cxx1112basic_stringIcSt11char_traitsIcESaIcEEEiPSiPSoP8_IO_FILEEE, .-_ZN10subprocess21setup_redirect_streamEiRSt7variantIJNS_10PipeOptionENSt7__cxx1112basic_stringIcSt11char_traitsIcESaIcEEEiPSiPSoP8_IO_FILEEE
	.section	.rodata
	.align	3
.LC5:
	.string	"reading from std::ostream doesn't make sense"
	.text
	.align	2
	.global	_ZN10subprocess21setup_redirect_streamERSt7variantIJNS_10PipeOptionENSt7__cxx1112basic_stringIcSt11char_traitsIcESaIcEEEiPSiPSoP8_IO_FILEEEi
	.type	_ZN10subprocess21setup_redirect_streamERSt7variantIJNS_10PipeOptionENSt7__cxx1112basic_stringIcSt11char_traitsIcESaIcEEEiPSiPSoP8_IO_FILEEEi, %function
_ZN10subprocess21setup_redirect_streamERSt7variantIJNS_10PipeOptionENSt7__cxx1112basic_stringIcSt11char_traitsIcESaIcEEEiPSiPSoP8_IO_FILEEEi:
.LFB3542:
	.cfi_startproc
	.cfi_personality 0x9b,DW.ref.__gxx_personality_v0
	.cfi_lsda 0x1b,.LLSDA3542
	stp	x29, x30, [sp, -64]!
	.cfi_def_cfa_offset 64
	.cfi_offset 29, -64
	.cfi_offset 30, -56
	mov	x29, sp
	stp	x19, x20, [sp, 16]
	.cfi_offset 19, -48
	.cfi_offset 20, -40
	str	x0, [sp, 40]
	str	w1, [sp, 36]
	ldr	x0, [sp, 40]
	bl	_ZNKSt7variantIJN10subprocess10PipeOptionENSt7__cxx1112basic_stringIcSt11char_traitsIcESaIcEEEiPSiPSoP8_IO_FILEEE5indexEv
	str	w0, [sp, 60]
	ldr	w0, [sp, 60]
	cmp	w0, 5
	beq	.L269
	ldr	w0, [sp, 60]
	cmp	w0, 5
	bgt	.L277
	ldr	w0, [sp, 60]
	cmp	w0, 4
	beq	.L271
	ldr	w0, [sp, 60]
	cmp	w0, 4
	bgt	.L277
	ldr	w0, [sp, 60]
	cmp	w0, 3
	beq	.L272
	ldr	w0, [sp, 60]
	cmp	w0, 3
	bgt	.L277
	ldr	w0, [sp, 60]
	cmp	w0, 2
	beq	.L278
	ldr	w0, [sp, 60]
	cmp	w0, 2
	bgt	.L277
	ldr	w0, [sp, 60]
	cmp	w0, 0
	beq	.L278
	ldr	w0, [sp, 60]
	cmp	w0, 1
	beq	.L274
	b	.L277
.L274:
	ldr	x0, [sp, 40]
.LEHB49:
	bl	_ZSt3getINSt7__cxx1112basic_stringIcSt11char_traitsIcESaIcEEEJN10subprocess10PipeOptionES5_iPSiPSoP8_IO_FILEEERT_RSt7variantIJDpT0_EE
	mov	w2, 1
	ldr	w1, [sp, 36]
	bl	_ZN10subprocess11pipe_threadERNSt7__cxx1112basic_stringIcSt11char_traitsIcESaIcEEEib
	b	.L268
.L272:
	ldr	x0, [sp, 40]
	bl	_ZSt3getIPSiJN10subprocess10PipeOptionENSt7__cxx1112basic_stringIcSt11char_traitsIcESaIcEEEiS0_PSoP8_IO_FILEEERT_RSt7variantIJDpT0_EE
	ldr	x0, [x0]
	mov	w2, 1
	ldr	w1, [sp, 36]
	bl	_ZN10subprocess11pipe_threadEPSiib
.LEHE49:
	b	.L268
.L271:
	mov	x0, 16
	bl	__cxa_allocate_exception
	mov	x19, x0
	adrp	x0, .LC5
	add	x1, x0, :lo12:.LC5
	mov	x0, x19
.LEHB50:
	bl	_ZNSt12domain_errorC1EPKc
.LEHE50:
	adrp	x0, :got:_ZNSt12domain_errorD1Ev
	ldr	x2, [x0, #:got_lo12:_ZNSt12domain_errorD1Ev]
	adrp	x0, :got:_ZTISt12domain_error
	ldr	x1, [x0, #:got_lo12:_ZTISt12domain_error]
	mov	x0, x19
.LEHB51:
	bl	__cxa_throw
.L269:
	ldr	x0, [sp, 40]
	bl	_ZSt3getIP8_IO_FILEJN10subprocess10PipeOptionENSt7__cxx1112basic_stringIcSt11char_traitsIcESaIcEEEiPSiPSoS1_EERT_RSt7variantIJDpT0_EE
	ldr	x0, [x0]
	mov	w2, 1
	ldr	w1, [sp, 36]
	bl	_ZN10subprocess11pipe_threadEP8_IO_FILEib
	b	.L268
.L276:
	mov	x20, x0
	mov	x0, x19
	bl	__cxa_free_exception
	mov	x0, x20
	bl	_Unwind_Resume
.LEHE51:
.L277:
	nop
	b	.L268
.L278:
	nop
.L268:
	ldp	x19, x20, [sp, 16]
	ldp	x29, x30, [sp], 64
	.cfi_restore 30
	.cfi_restore 29
	.cfi_restore 19
	.cfi_restore 20
	.cfi_def_cfa_offset 0
	ret
	.cfi_endproc
.LFE3542:
	.section	.gcc_except_table
.LLSDA3542:
	.byte	0xff
	.byte	0xff
	.byte	0x1
	.uleb128 .LLSDACSE3542-.LLSDACSB3542
.LLSDACSB3542:
	.uleb128 .LEHB49-.LFB3542
	.uleb128 .LEHE49-.LEHB49
	.uleb128 0
	.uleb128 0
	.uleb128 .LEHB50-.LFB3542
	.uleb128 .LEHE50-.LEHB50
	.uleb128 .L276-.LFB3542
	.uleb128 0
	.uleb128 .LEHB51-.LFB3542
	.uleb128 .LEHE51-.LEHB51
	.uleb128 0
	.uleb128 0
.LLSDACSE3542:
	.text
	.size	_ZN10subprocess21setup_redirect_streamERSt7variantIJNS_10PipeOptionENSt7__cxx1112basic_stringIcSt11char_traitsIcESaIcEEEiPSiPSoP8_IO_FILEEEi, .-_ZN10subprocess21setup_redirect_streamERSt7variantIJNS_10PipeOptionENSt7__cxx1112basic_stringIcSt11char_traitsIcESaIcEEEiPSiPSoP8_IO_FILEEEi
	.align	2
	.global	_ZN10subprocess5PopenC2ESt6vectorINSt7__cxx1112basic_stringIcSt11char_traitsIcESaIcEEESaIS7_EERKNS_10RunOptionsE
	.type	_ZN10subprocess5PopenC2ESt6vectorINSt7__cxx1112basic_stringIcSt11char_traitsIcESaIcEEESaIS7_EERKNS_10RunOptionsE, %function
_ZN10subprocess5PopenC2ESt6vectorINSt7__cxx1112basic_stringIcSt11char_traitsIcESaIcEEESaIS7_EERKNS_10RunOptionsE:
.LFB3544:
	.cfi_startproc
	.cfi_personality 0x9b,DW.ref.__gxx_personality_v0
	.cfi_lsda 0x1b,.LLSDA3544
	stp	x29, x30, [sp, -304]!
	.cfi_def_cfa_offset 304
	.cfi_offset 29, -304
	.cfi_offset 30, -296
	mov	x29, sp
	str	x19, [sp, 16]
	.cfi_offset 19, -288
	str	x0, [sp, 56]
	str	x1, [sp, 48]
	str	x2, [sp, 40]
	adrp	x0, :got:__stack_chk_guard
	ldr	x0, [x0, #:got_lo12:__stack_chk_guard]
	ldr	x1, [x0]
	str	x1, [sp, 296]
	mov	x1, 0
	ldr	x0, [sp, 56]
	mov	w1, -1
	str	w1, [x0]
	ldr	x0, [sp, 56]
	mov	w1, -1
	str	w1, [x0, 4]
	ldr	x0, [sp, 56]
	mov	w1, -1
	str	w1, [x0, 8]
	ldr	x0, [sp, 56]
	str	wzr, [x0, 12]
	ldr	x0, [sp, 56]
	mov	w1, -1000
	str	w1, [x0, 16]
	ldr	x0, [sp, 56]
	add	x0, x0, 24
	bl	_ZNSt6vectorINSt7__cxx1112basic_stringIcSt11char_traitsIcESaIcEEESaIS5_EEC1Ev
	add	x0, sp, 72
	ldr	x1, [sp, 40]
.LEHB52:
	bl	_ZN10subprocess10RunOptionsC1ERKS0_
.LEHE52:
	add	x0, sp, 72
	mov	x2, x0
	ldr	x1, [sp, 48]
	ldr	x0, [sp, 56]
.LEHB53:
	bl	_ZN10subprocess5Popen4initERSt6vectorINSt7__cxx1112basic_stringIcSt11char_traitsIcESaIcEEESaIS7_EERNS_10RunOptionsE
.LEHE53:
	add	x0, sp, 72
	bl	_ZN10subprocess10RunOptionsD1Ev
	nop
	adrp	x0, :got:__stack_chk_guard
	ldr	x0, [x0, #:got_lo12:__stack_chk_guard]
	ldr	x2, [sp, 296]
	ldr	x1, [x0]
	subs	x2, x2, x1
	mov	x1, 0
	beq	.L282
	b	.L285
.L284:
	mov	x19, x0
	add	x0, sp, 72
	bl	_ZN10subprocess10RunOptionsD1Ev
	b	.L281
.L283:
	mov	x19, x0
.L281:
	ldr	x0, [sp, 56]
	add	x0, x0, 24
	bl	_ZNSt6vectorINSt7__cxx1112basic_stringIcSt11char_traitsIcESaIcEEESaIS5_EED1Ev
	mov	x0, x19
.LEHB54:
	bl	_Unwind_Resume
.LEHE54:
.L285:
	bl	__stack_chk_fail
.L282:
	ldr	x19, [sp, 16]
	ldp	x29, x30, [sp], 304
	.cfi_restore 30
	.cfi_restore 29
	.cfi_restore 19
	.cfi_def_cfa_offset 0
	ret
	.cfi_endproc
.LFE3544:
	.section	.gcc_except_table
.LLSDA3544:
	.byte	0xff
	.byte	0xff
	.byte	0x1
	.uleb128 .LLSDACSE3544-.LLSDACSB3544
.LLSDACSB3544:
	.uleb128 .LEHB52-.LFB3544
	.uleb128 .LEHE52-.LEHB52
	.uleb128 .L283-.LFB3544
	.uleb128 0
	.uleb128 .LEHB53-.LFB3544
	.uleb128 .LEHE53-.LEHB53
	.uleb128 .L284-.LFB3544
	.uleb128 0
	.uleb128 .LEHB54-.LFB3544
	.uleb128 .LEHE54-.LEHB54
	.uleb128 0
	.uleb128 0
.LLSDACSE3544:
	.text
	.size	_ZN10subprocess5PopenC2ESt6vectorINSt7__cxx1112basic_stringIcSt11char_traitsIcESaIcEEESaIS7_EERKNS_10RunOptionsE, .-_ZN10subprocess5PopenC2ESt6vectorINSt7__cxx1112basic_stringIcSt11char_traitsIcESaIcEEESaIS7_EERKNS_10RunOptionsE
	.global	_ZN10subprocess5PopenC1ESt6vectorINSt7__cxx1112basic_stringIcSt11char_traitsIcESaIcEEESaIS7_EERKNS_10RunOptionsE
	.set	_ZN10subprocess5PopenC1ESt6vectorINSt7__cxx1112basic_stringIcSt11char_traitsIcESaIcEEESaIS7_EERKNS_10RunOptionsE,_ZN10subprocess5PopenC2ESt6vectorINSt7__cxx1112basic_stringIcSt11char_traitsIcESaIcEEESaIS7_EERKNS_10RunOptionsE
	.section	.text._ZNSt8__detail9__variant17_Copy_assign_baseILb0EJN10subprocess10PipeOptionENSt7__cxx1112basic_stringIcSt11char_traitsIcESaIcEEEiPSiPSoP8_IO_FILEEEC2EOSE_,"axG",@progbits,_ZNSt8__detail9__variant17_Copy_assign_baseILb0EJN10subprocess10PipeOptionENSt7__cxx1112basic_stringIcSt11char_traitsIcESaIcEEEiPSiPSoP8_IO_FILEEEC5EOSE_,comdat
	.align	2
	.weak	_ZNSt8__detail9__variant17_Copy_assign_baseILb0EJN10subprocess10PipeOptionENSt7__cxx1112basic_stringIcSt11char_traitsIcESaIcEEEiPSiPSoP8_IO_FILEEEC2EOSE_
	.type	_ZNSt8__detail9__variant17_Copy_assign_baseILb0EJN10subprocess10PipeOptionENSt7__cxx1112basic_stringIcSt11char_traitsIcESaIcEEEiPSiPSoP8_IO_FILEEEC2EOSE_, %function
_ZNSt8__detail9__variant17_Copy_assign_baseILb0EJN10subprocess10PipeOptionENSt7__cxx1112basic_stringIcSt11char_traitsIcESaIcEEEiPSiPSoP8_IO_FILEEEC2EOSE_:
.LFB3552:
	.cfi_startproc
	stp	x29, x30, [sp, -32]!
	.cfi_def_cfa_offset 32
	.cfi_offset 29, -32
	.cfi_offset 30, -24
	mov	x29, sp
	str	x0, [sp, 24]
	str	x1, [sp, 16]
	ldr	x0, [sp, 24]
	ldr	x1, [sp, 16]
	bl	_ZNSt8__detail9__variant15_Move_ctor_baseILb0EJN10subprocess10PipeOptionENSt7__cxx1112basic_stringIcSt11char_traitsIcESaIcEEEiPSiPSoP8_IO_FILEEEC2EOSE_
	nop
	ldp	x29, x30, [sp], 32
	.cfi_restore 30
	.cfi_restore 29
	.cfi_def_cfa_offset 0
	ret
	.cfi_endproc
.LFE3552:
	.size	_ZNSt8__detail9__variant17_Copy_assign_baseILb0EJN10subprocess10PipeOptionENSt7__cxx1112basic_stringIcSt11char_traitsIcESaIcEEEiPSiPSoP8_IO_FILEEEC2EOSE_, .-_ZNSt8__detail9__variant17_Copy_assign_baseILb0EJN10subprocess10PipeOptionENSt7__cxx1112basic_stringIcSt11char_traitsIcESaIcEEEiPSiPSoP8_IO_FILEEEC2EOSE_
	.weak	_ZNSt8__detail9__variant17_Copy_assign_baseILb0EJN10subprocess10PipeOptionENSt7__cxx1112basic_stringIcSt11char_traitsIcESaIcEEEiPSiPSoP8_IO_FILEEEC1EOSE_
	.set	_ZNSt8__detail9__variant17_Copy_assign_baseILb0EJN10subprocess10PipeOptionENSt7__cxx1112basic_stringIcSt11char_traitsIcESaIcEEEiPSiPSoP8_IO_FILEEEC1EOSE_,_ZNSt8__detail9__variant17_Copy_assign_baseILb0EJN10subprocess10PipeOptionENSt7__cxx1112basic_stringIcSt11char_traitsIcESaIcEEEiPSiPSoP8_IO_FILEEEC2EOSE_
	.section	.text._ZNSt8__detail9__variant17_Move_assign_baseILb0EJN10subprocess10PipeOptionENSt7__cxx1112basic_stringIcSt11char_traitsIcESaIcEEEiPSiPSoP8_IO_FILEEEC2EOSE_,"axG",@progbits,_ZNSt8__detail9__variant17_Move_assign_baseILb0EJN10subprocess10PipeOptionENSt7__cxx1112basic_stringIcSt11char_traitsIcESaIcEEEiPSiPSoP8_IO_FILEEEC5EOSE_,comdat
	.align	2
	.weak	_ZNSt8__detail9__variant17_Move_assign_baseILb0EJN10subprocess10PipeOptionENSt7__cxx1112basic_stringIcSt11char_traitsIcESaIcEEEiPSiPSoP8_IO_FILEEEC2EOSE_
	.type	_ZNSt8__detail9__variant17_Move_assign_baseILb0EJN10subprocess10PipeOptionENSt7__cxx1112basic_stringIcSt11char_traitsIcESaIcEEEiPSiPSoP8_IO_FILEEEC2EOSE_, %function
_ZNSt8__detail9__variant17_Move_assign_baseILb0EJN10subprocess10PipeOptionENSt7__cxx1112basic_stringIcSt11char_traitsIcESaIcEEEiPSiPSoP8_IO_FILEEEC2EOSE_:
.LFB3554:
	.cfi_startproc
	stp	x29, x30, [sp, -32]!
	.cfi_def_cfa_offset 32
	.cfi_offset 29, -32
	.cfi_offset 30, -24
	mov	x29, sp
	str	x0, [sp, 24]
	str	x1, [sp, 16]
	ldr	x0, [sp, 24]
	ldr	x1, [sp, 16]
	bl	_ZNSt8__detail9__variant17_Copy_assign_baseILb0EJN10subprocess10PipeOptionENSt7__cxx1112basic_stringIcSt11char_traitsIcESaIcEEEiPSiPSoP8_IO_FILEEEC2EOSE_
	nop
	ldp	x29, x30, [sp], 32
	.cfi_restore 30
	.cfi_restore 29
	.cfi_def_cfa_offset 0
	ret
	.cfi_endproc
.LFE3554:
	.size	_ZNSt8__detail9__variant17_Move_assign_baseILb0EJN10subprocess10PipeOptionENSt7__cxx1112basic_stringIcSt11char_traitsIcESaIcEEEiPSiPSoP8_IO_FILEEEC2EOSE_, .-_ZNSt8__detail9__variant17_Move_assign_baseILb0EJN10subprocess10PipeOptionENSt7__cxx1112basic_stringIcSt11char_traitsIcESaIcEEEiPSiPSoP8_IO_FILEEEC2EOSE_
	.weak	_ZNSt8__detail9__variant17_Move_assign_baseILb0EJN10subprocess10PipeOptionENSt7__cxx1112basic_stringIcSt11char_traitsIcESaIcEEEiPSiPSoP8_IO_FILEEEC1EOSE_
	.set	_ZNSt8__detail9__variant17_Move_assign_baseILb0EJN10subprocess10PipeOptionENSt7__cxx1112basic_stringIcSt11char_traitsIcESaIcEEEiPSiPSoP8_IO_FILEEEC1EOSE_,_ZNSt8__detail9__variant17_Move_assign_baseILb0EJN10subprocess10PipeOptionENSt7__cxx1112basic_stringIcSt11char_traitsIcESaIcEEEiPSiPSoP8_IO_FILEEEC2EOSE_
	.section	.text._ZNSt8__detail9__variant13_Variant_baseIJN10subprocess10PipeOptionENSt7__cxx1112basic_stringIcSt11char_traitsIcESaIcEEEiPSiPSoP8_IO_FILEEEC2EOSE_,"axG",@progbits,_ZNSt8__detail9__variant13_Variant_baseIJN10subprocess10PipeOptionENSt7__cxx1112basic_stringIcSt11char_traitsIcESaIcEEEiPSiPSoP8_IO_FILEEEC5EOSE_,comdat
	.align	2
	.weak	_ZNSt8__detail9__variant13_Variant_baseIJN10subprocess10PipeOptionENSt7__cxx1112basic_stringIcSt11char_traitsIcESaIcEEEiPSiPSoP8_IO_FILEEEC2EOSE_
	.type	_ZNSt8__detail9__variant13_Variant_baseIJN10subprocess10PipeOptionENSt7__cxx1112basic_stringIcSt11char_traitsIcESaIcEEEiPSiPSoP8_IO_FILEEEC2EOSE_, %function
_ZNSt8__detail9__variant13_Variant_baseIJN10subprocess10PipeOptionENSt7__cxx1112basic_stringIcSt11char_traitsIcESaIcEEEiPSiPSoP8_IO_FILEEEC2EOSE_:
.LFB3556:
	.cfi_startproc
	stp	x29, x30, [sp, -32]!
	.cfi_def_cfa_offset 32
	.cfi_offset 29, -32
	.cfi_offset 30, -24
	mov	x29, sp
	str	x0, [sp, 24]
	str	x1, [sp, 16]
	ldr	x0, [sp, 24]
	ldr	x1, [sp, 16]
	bl	_ZNSt8__detail9__variant17_Move_assign_baseILb0EJN10subprocess10PipeOptionENSt7__cxx1112basic_stringIcSt11char_traitsIcESaIcEEEiPSiPSoP8_IO_FILEEEC2EOSE_
	nop
	ldp	x29, x30, [sp], 32
	.cfi_restore 30
	.cfi_restore 29
	.cfi_def_cfa_offset 0
	ret
	.cfi_endproc
.LFE3556:
	.size	_ZNSt8__detail9__variant13_Variant_baseIJN10subprocess10PipeOptionENSt7__cxx1112basic_stringIcSt11char_traitsIcESaIcEEEiPSiPSoP8_IO_FILEEEC2EOSE_, .-_ZNSt8__detail9__variant13_Variant_baseIJN10subprocess10PipeOptionENSt7__cxx1112basic_stringIcSt11char_traitsIcESaIcEEEiPSiPSoP8_IO_FILEEEC2EOSE_
	.weak	_ZNSt8__detail9__variant13_Variant_baseIJN10subprocess10PipeOptionENSt7__cxx1112basic_stringIcSt11char_traitsIcESaIcEEEiPSiPSoP8_IO_FILEEEC1EOSE_
	.set	_ZNSt8__detail9__variant13_Variant_baseIJN10subprocess10PipeOptionENSt7__cxx1112basic_stringIcSt11char_traitsIcESaIcEEEiPSiPSoP8_IO_FILEEEC1EOSE_,_ZNSt8__detail9__variant13_Variant_baseIJN10subprocess10PipeOptionENSt7__cxx1112basic_stringIcSt11char_traitsIcESaIcEEEiPSiPSoP8_IO_FILEEEC2EOSE_
	.section	.text._ZNSt7variantIJN10subprocess10PipeOptionENSt7__cxx1112basic_stringIcSt11char_traitsIcESaIcEEEiPSiPSoP8_IO_FILEEEC2EOSC_,"axG",@progbits,_ZNSt7variantIJN10subprocess10PipeOptionENSt7__cxx1112basic_stringIcSt11char_traitsIcESaIcEEEiPSiPSoP8_IO_FILEEEC5EOSC_,comdat
	.align	2
	.weak	_ZNSt7variantIJN10subprocess10PipeOptionENSt7__cxx1112basic_stringIcSt11char_traitsIcESaIcEEEiPSiPSoP8_IO_FILEEEC2EOSC_
	.type	_ZNSt7variantIJN10subprocess10PipeOptionENSt7__cxx1112basic_stringIcSt11char_traitsIcESaIcEEEiPSiPSoP8_IO_FILEEEC2EOSC_, %function
_ZNSt7variantIJN10subprocess10PipeOptionENSt7__cxx1112basic_stringIcSt11char_traitsIcESaIcEEEiPSiPSoP8_IO_FILEEEC2EOSC_:
.LFB3558:
	.cfi_startproc
	stp	x29, x30, [sp, -32]!
	.cfi_def_cfa_offset 32
	.cfi_offset 29, -32
	.cfi_offset 30, -24
	mov	x29, sp
	str	x0, [sp, 24]
	str	x1, [sp, 16]
	ldr	x0, [sp, 24]
	ldr	x1, [sp, 16]
	bl	_ZNSt8__detail9__variant13_Variant_baseIJN10subprocess10PipeOptionENSt7__cxx1112basic_stringIcSt11char_traitsIcESaIcEEEiPSiPSoP8_IO_FILEEEC2EOSE_
	nop
	ldp	x29, x30, [sp], 32
	.cfi_restore 30
	.cfi_restore 29
	.cfi_def_cfa_offset 0
	ret
	.cfi_endproc
.LFE3558:
	.size	_ZNSt7variantIJN10subprocess10PipeOptionENSt7__cxx1112basic_stringIcSt11char_traitsIcESaIcEEEiPSiPSoP8_IO_FILEEEC2EOSC_, .-_ZNSt7variantIJN10subprocess10PipeOptionENSt7__cxx1112basic_stringIcSt11char_traitsIcESaIcEEEiPSiPSoP8_IO_FILEEEC2EOSC_
	.weak	_ZNSt7variantIJN10subprocess10PipeOptionENSt7__cxx1112basic_stringIcSt11char_traitsIcESaIcEEEiPSiPSoP8_IO_FILEEEC1EOSC_
	.set	_ZNSt7variantIJN10subprocess10PipeOptionENSt7__cxx1112basic_stringIcSt11char_traitsIcESaIcEEEiPSiPSoP8_IO_FILEEEC1EOSC_,_ZNSt7variantIJN10subprocess10PipeOptionENSt7__cxx1112basic_stringIcSt11char_traitsIcESaIcEEEiPSiPSoP8_IO_FILEEEC2EOSC_
	.section	.text._ZNSt8_Rb_treeINSt7__cxx1112basic_stringIcSt11char_traitsIcESaIcEEESt4pairIKS5_S5_ESt10_Select1stIS8_ESt4lessIS5_ESaIS8_EE13_Rb_tree_implISC_Lb1EEC2EOSG_,"axG",@progbits,_ZNSt8_Rb_treeINSt7__cxx1112basic_stringIcSt11char_traitsIcESaIcEEESt4pairIKS5_S5_ESt10_Select1stIS8_ESt4lessIS5_ESaIS8_EE13_Rb_tree_implISC_Lb1EEC5EOSG_,comdat
	.align	2
	.weak	_ZNSt8_Rb_treeINSt7__cxx1112basic_stringIcSt11char_traitsIcESaIcEEESt4pairIKS5_S5_ESt10_Select1stIS8_ESt4lessIS5_ESaIS8_EE13_Rb_tree_implISC_Lb1EEC2EOSG_
	.type	_ZNSt8_Rb_treeINSt7__cxx1112basic_stringIcSt11char_traitsIcESaIcEEESt4pairIKS5_S5_ESt10_Select1stIS8_ESt4lessIS5_ESaIS8_EE13_Rb_tree_implISC_Lb1EEC2EOSG_, %function
_ZNSt8_Rb_treeINSt7__cxx1112basic_stringIcSt11char_traitsIcESaIcEEESt4pairIKS5_S5_ESt10_Select1stIS8_ESt4lessIS5_ESaIS8_EE13_Rb_tree_implISC_Lb1EEC2EOSG_:
.LFB3563:
	.cfi_startproc
	stp	x29, x30, [sp, -32]!
	.cfi_def_cfa_offset 32
	.cfi_offset 29, -32
	.cfi_offset 30, -24
	mov	x29, sp
	str	x0, [sp, 24]
	str	x1, [sp, 16]
	ldr	x1, [sp, 16]
	ldr	x0, [sp, 24]
	bl	_ZNSaISt13_Rb_tree_nodeISt4pairIKNSt7__cxx1112basic_stringIcSt11char_traitsIcESaIcEEES6_EEEC2ERKSA_
	ldr	x0, [sp, 24]
	ldr	x1, [sp, 16]
	bl	_ZNSt20_Rb_tree_key_compareISt4lessINSt7__cxx1112basic_stringIcSt11char_traitsIcESaIcEEEEEC2EOS8_
	ldr	x0, [sp, 24]
	add	x2, x0, 8
	ldr	x0, [sp, 16]
	add	x0, x0, 8
	mov	x1, x0
	mov	x0, x2
	bl	_ZNSt15_Rb_tree_headerC2EOS_
	nop
	ldp	x29, x30, [sp], 32
	.cfi_restore 30
	.cfi_restore 29
	.cfi_def_cfa_offset 0
	ret
	.cfi_endproc
.LFE3563:
	.size	_ZNSt8_Rb_treeINSt7__cxx1112basic_stringIcSt11char_traitsIcESaIcEEESt4pairIKS5_S5_ESt10_Select1stIS8_ESt4lessIS5_ESaIS8_EE13_Rb_tree_implISC_Lb1EEC2EOSG_, .-_ZNSt8_Rb_treeINSt7__cxx1112basic_stringIcSt11char_traitsIcESaIcEEESt4pairIKS5_S5_ESt10_Select1stIS8_ESt4lessIS5_ESaIS8_EE13_Rb_tree_implISC_Lb1EEC2EOSG_
	.weak	_ZNSt8_Rb_treeINSt7__cxx1112basic_stringIcSt11char_traitsIcESaIcEEESt4pairIKS5_S5_ESt10_Select1stIS8_ESt4lessIS5_ESaIS8_EE13_Rb_tree_implISC_Lb1EEC1EOSG_
	.set	_ZNSt8_Rb_treeINSt7__cxx1112basic_stringIcSt11char_traitsIcESaIcEEESt4pairIKS5_S5_ESt10_Select1stIS8_ESt4lessIS5_ESaIS8_EE13_Rb_tree_implISC_Lb1EEC1EOSG_,_ZNSt8_Rb_treeINSt7__cxx1112basic_stringIcSt11char_traitsIcESaIcEEESt4pairIKS5_S5_ESt10_Select1stIS8_ESt4lessIS5_ESaIS8_EE13_Rb_tree_implISC_Lb1EEC2EOSG_
	.section	.text._ZNSt8_Rb_treeINSt7__cxx1112basic_stringIcSt11char_traitsIcESaIcEEESt4pairIKS5_S5_ESt10_Select1stIS8_ESt4lessIS5_ESaIS8_EEC2EOSE_,"axG",@progbits,_ZNSt8_Rb_treeINSt7__cxx1112basic_stringIcSt11char_traitsIcESaIcEEESt4pairIKS5_S5_ESt10_Select1stIS8_ESt4lessIS5_ESaIS8_EEC5EOSE_,comdat
	.align	2
	.weak	_ZNSt8_Rb_treeINSt7__cxx1112basic_stringIcSt11char_traitsIcESaIcEEESt4pairIKS5_S5_ESt10_Select1stIS8_ESt4lessIS5_ESaIS8_EEC2EOSE_
	.type	_ZNSt8_Rb_treeINSt7__cxx1112basic_stringIcSt11char_traitsIcESaIcEEESt4pairIKS5_S5_ESt10_Select1stIS8_ESt4lessIS5_ESaIS8_EEC2EOSE_, %function
_ZNSt8_Rb_treeINSt7__cxx1112basic_stringIcSt11char_traitsIcESaIcEEESt4pairIKS5_S5_ESt10_Select1stIS8_ESt4lessIS5_ESaIS8_EEC2EOSE_:
.LFB3565:
	.cfi_startproc
	stp	x29, x30, [sp, -32]!
	.cfi_def_cfa_offset 32
	.cfi_offset 29, -32
	.cfi_offset 30, -24
	mov	x29, sp
	str	x0, [sp, 24]
	str	x1, [sp, 16]
	ldr	x0, [sp, 24]
	ldr	x1, [sp, 16]
	bl	_ZNSt8_Rb_treeINSt7__cxx1112basic_stringIcSt11char_traitsIcESaIcEEESt4pairIKS5_S5_ESt10_Select1stIS8_ESt4lessIS5_ESaIS8_EE13_Rb_tree_implISC_Lb1EEC1EOSG_
	nop
	ldp	x29, x30, [sp], 32
	.cfi_restore 30
	.cfi_restore 29
	.cfi_def_cfa_offset 0
	ret
	.cfi_endproc
.LFE3565:
	.size	_ZNSt8_Rb_treeINSt7__cxx1112basic_stringIcSt11char_traitsIcESaIcEEESt4pairIKS5_S5_ESt10_Select1stIS8_ESt4lessIS5_ESaIS8_EEC2EOSE_, .-_ZNSt8_Rb_treeINSt7__cxx1112basic_stringIcSt11char_traitsIcESaIcEEESt4pairIKS5_S5_ESt10_Select1stIS8_ESt4lessIS5_ESaIS8_EEC2EOSE_
	.weak	_ZNSt8_Rb_treeINSt7__cxx1112basic_stringIcSt11char_traitsIcESaIcEEESt4pairIKS5_S5_ESt10_Select1stIS8_ESt4lessIS5_ESaIS8_EEC1EOSE_
	.set	_ZNSt8_Rb_treeINSt7__cxx1112basic_stringIcSt11char_traitsIcESaIcEEESt4pairIKS5_S5_ESt10_Select1stIS8_ESt4lessIS5_ESaIS8_EEC1EOSE_,_ZNSt8_Rb_treeINSt7__cxx1112basic_stringIcSt11char_traitsIcESaIcEEESt4pairIKS5_S5_ESt10_Select1stIS8_ESt4lessIS5_ESaIS8_EEC2EOSE_
	.section	.text._ZNSt3mapINSt7__cxx1112basic_stringIcSt11char_traitsIcESaIcEEES5_St4lessIS5_ESaISt4pairIKS5_S5_EEEC2EOSC_,"axG",@progbits,_ZNSt3mapINSt7__cxx1112basic_stringIcSt11char_traitsIcESaIcEEES5_St4lessIS5_ESaISt4pairIKS5_S5_EEEC5EOSC_,comdat
	.align	2
	.weak	_ZNSt3mapINSt7__cxx1112basic_stringIcSt11char_traitsIcESaIcEEES5_St4lessIS5_ESaISt4pairIKS5_S5_EEEC2EOSC_
	.type	_ZNSt3mapINSt7__cxx1112basic_stringIcSt11char_traitsIcESaIcEEES5_St4lessIS5_ESaISt4pairIKS5_S5_EEEC2EOSC_, %function
_ZNSt3mapINSt7__cxx1112basic_stringIcSt11char_traitsIcESaIcEEES5_St4lessIS5_ESaISt4pairIKS5_S5_EEEC2EOSC_:
.LFB3567:
	.cfi_startproc
	stp	x29, x30, [sp, -32]!
	.cfi_def_cfa_offset 32
	.cfi_offset 29, -32
	.cfi_offset 30, -24
	mov	x29, sp
	str	x0, [sp, 24]
	str	x1, [sp, 16]
	ldr	x0, [sp, 24]
	ldr	x1, [sp, 16]
	bl	_ZNSt8_Rb_treeINSt7__cxx1112basic_stringIcSt11char_traitsIcESaIcEEESt4pairIKS5_S5_ESt10_Select1stIS8_ESt4lessIS5_ESaIS8_EEC1EOSE_
	nop
	ldp	x29, x30, [sp], 32
	.cfi_restore 30
	.cfi_restore 29
	.cfi_def_cfa_offset 0
	ret
	.cfi_endproc
.LFE3567:
	.size	_ZNSt3mapINSt7__cxx1112basic_stringIcSt11char_traitsIcESaIcEEES5_St4lessIS5_ESaISt4pairIKS5_S5_EEEC2EOSC_, .-_ZNSt3mapINSt7__cxx1112basic_stringIcSt11char_traitsIcESaIcEEES5_St4lessIS5_ESaISt4pairIKS5_S5_EEEC2EOSC_
	.weak	_ZNSt3mapINSt7__cxx1112basic_stringIcSt11char_traitsIcESaIcEEES5_St4lessIS5_ESaISt4pairIKS5_S5_EEEC1EOSC_
	.set	_ZNSt3mapINSt7__cxx1112basic_stringIcSt11char_traitsIcESaIcEEES5_St4lessIS5_ESaISt4pairIKS5_S5_EEEC1EOSC_,_ZNSt3mapINSt7__cxx1112basic_stringIcSt11char_traitsIcESaIcEEES5_St4lessIS5_ESaISt4pairIKS5_S5_EEEC2EOSC_
	.section	.text._ZN10subprocess10RunOptionsC2EOS0_,"axG",@progbits,_ZN10subprocess10RunOptionsC5EOS0_,comdat
	.align	2
	.weak	_ZN10subprocess10RunOptionsC2EOS0_
	.type	_ZN10subprocess10RunOptionsC2EOS0_, %function
_ZN10subprocess10RunOptionsC2EOS0_:
.LFB3569:
	.cfi_startproc
	stp	x29, x30, [sp, -32]!
	.cfi_def_cfa_offset 32
	.cfi_offset 29, -32
	.cfi_offset 30, -24
	mov	x29, sp
	str	x0, [sp, 24]
	str	x1, [sp, 16]
	ldr	x0, [sp, 16]
	ldrb	w1, [x0]
	ldr	x0, [sp, 24]
	strb	w1, [x0]
	ldr	x0, [sp, 24]
	add	x2, x0, 8
	ldr	x0, [sp, 16]
	add	x0, x0, 8
	mov	x1, x0
	mov	x0, x2
	bl	_ZNSt7variantIJN10subprocess10PipeOptionENSt7__cxx1112basic_stringIcSt11char_traitsIcESaIcEEEiPSiPSoP8_IO_FILEEEC1EOSC_
	ldr	x0, [sp, 24]
	add	x2, x0, 48
	ldr	x0, [sp, 16]
	add	x0, x0, 48
	mov	x1, x0
	mov	x0, x2
	bl	_ZNSt7variantIJN10subprocess10PipeOptionENSt7__cxx1112basic_stringIcSt11char_traitsIcESaIcEEEiPSiPSoP8_IO_FILEEEC1EOSC_
	ldr	x0, [sp, 24]
	add	x2, x0, 88
	ldr	x0, [sp, 16]
	add	x0, x0, 88
	mov	x1, x0
	mov	x0, x2
	bl	_ZNSt7variantIJN10subprocess10PipeOptionENSt7__cxx1112basic_stringIcSt11char_traitsIcESaIcEEEiPSiPSoP8_IO_FILEEEC1EOSC_
	ldr	x0, [sp, 16]
	ldrb	w1, [x0, 128]
	ldr	x0, [sp, 24]
	strb	w1, [x0, 128]
	ldr	x0, [sp, 24]
	add	x2, x0, 136
	ldr	x0, [sp, 16]
	add	x0, x0, 136
	mov	x1, x0
	mov	x0, x2
	bl	_ZNSt7__cxx1112basic_stringIcSt11char_traitsIcESaIcEEC1EOS4_
	ldr	x0, [sp, 24]
	add	x2, x0, 168
	ldr	x0, [sp, 16]
	add	x0, x0, 168
	mov	x1, x0
	mov	x0, x2
	bl	_ZNSt3mapINSt7__cxx1112basic_stringIcSt11char_traitsIcESaIcEEES5_St4lessIS5_ESaISt4pairIKS5_S5_EEEC1EOSC_
	ldr	x0, [sp, 16]
	ldr	d0, [x0, 216]
	ldr	x0, [sp, 24]
	str	d0, [x0, 216]
	nop
	ldp	x29, x30, [sp], 32
	.cfi_restore 30
	.cfi_restore 29
	.cfi_def_cfa_offset 0
	ret
	.cfi_endproc
.LFE3569:
	.size	_ZN10subprocess10RunOptionsC2EOS0_, .-_ZN10subprocess10RunOptionsC2EOS0_
	.weak	_ZN10subprocess10RunOptionsC1EOS0_
	.set	_ZN10subprocess10RunOptionsC1EOS0_,_ZN10subprocess10RunOptionsC2EOS0_
	.text
	.align	2
	.global	_ZN10subprocess5PopenC2ESt6vectorINSt7__cxx1112basic_stringIcSt11char_traitsIcESaIcEEESaIS7_EEONS_10RunOptionsE
	.type	_ZN10subprocess5PopenC2ESt6vectorINSt7__cxx1112basic_stringIcSt11char_traitsIcESaIcEEESaIS7_EEONS_10RunOptionsE, %function
_ZN10subprocess5PopenC2ESt6vectorINSt7__cxx1112basic_stringIcSt11char_traitsIcESaIcEEESaIS7_EEONS_10RunOptionsE:
.LFB3571:
	.cfi_startproc
	.cfi_personality 0x9b,DW.ref.__gxx_personality_v0
	.cfi_lsda 0x1b,.LLSDA3571
	stp	x29, x30, [sp, -304]!
	.cfi_def_cfa_offset 304
	.cfi_offset 29, -304
	.cfi_offset 30, -296
	mov	x29, sp
	str	x19, [sp, 16]
	.cfi_offset 19, -288
	str	x0, [sp, 56]
	str	x1, [sp, 48]
	str	x2, [sp, 40]
	adrp	x0, :got:__stack_chk_guard
	ldr	x0, [x0, #:got_lo12:__stack_chk_guard]
	ldr	x1, [x0]
	str	x1, [sp, 296]
	mov	x1, 0
	ldr	x0, [sp, 56]
	mov	w1, -1
	str	w1, [x0]
	ldr	x0, [sp, 56]
	mov	w1, -1
	str	w1, [x0, 4]
	ldr	x0, [sp, 56]
	mov	w1, -1
	str	w1, [x0, 8]
	ldr	x0, [sp, 56]
	str	wzr, [x0, 12]
	ldr	x0, [sp, 56]
	mov	w1, -1000
	str	w1, [x0, 16]
	ldr	x0, [sp, 56]
	add	x0, x0, 24
	bl	_ZNSt6vectorINSt7__cxx1112basic_stringIcSt11char_traitsIcESaIcEEESaIS5_EEC1Ev
	ldr	x0, [sp, 40]
	bl	_ZSt4moveIRN10subprocess10RunOptionsEEONSt16remove_referenceIT_E4typeEOS4_
	mov	x1, x0
	add	x0, sp, 72
	bl	_ZN10subprocess10RunOptionsC1EOS0_
	add	x0, sp, 72
	mov	x2, x0
	ldr	x1, [sp, 48]
	ldr	x0, [sp, 56]
.LEHB55:
	bl	_ZN10subprocess5Popen4initERSt6vectorINSt7__cxx1112basic_stringIcSt11char_traitsIcESaIcEEESaIS7_EERNS_10RunOptionsE
.LEHE55:
	add	x0, sp, 72
	bl	_ZN10subprocess10RunOptionsD1Ev
	nop
	adrp	x0, :got:__stack_chk_guard
	ldr	x0, [x0, #:got_lo12:__stack_chk_guard]
	ldr	x2, [sp, 296]
	ldr	x1, [x0]
	subs	x2, x2, x1
	mov	x1, 0
	beq	.L296
	b	.L298
.L297:
	mov	x19, x0
	add	x0, sp, 72
	bl	_ZN10subprocess10RunOptionsD1Ev
	ldr	x0, [sp, 56]
	add	x0, x0, 24
	bl	_ZNSt6vectorINSt7__cxx1112basic_stringIcSt11char_traitsIcESaIcEEESaIS5_EED1Ev
	mov	x0, x19
.LEHB56:
	bl	_Unwind_Resume
.LEHE56:
.L298:
	bl	__stack_chk_fail
.L296:
	ldr	x19, [sp, 16]
	ldp	x29, x30, [sp], 304
	.cfi_restore 30
	.cfi_restore 29
	.cfi_restore 19
	.cfi_def_cfa_offset 0
	ret
	.cfi_endproc
.LFE3571:
	.section	.gcc_except_table
.LLSDA3571:
	.byte	0xff
	.byte	0xff
	.byte	0x1
	.uleb128 .LLSDACSE3571-.LLSDACSB3571
.LLSDACSB3571:
	.uleb128 .LEHB55-.LFB3571
	.uleb128 .LEHE55-.LEHB55
	.uleb128 .L297-.LFB3571
	.uleb128 0
	.uleb128 .LEHB56-.LFB3571
	.uleb128 .LEHE56-.LEHB56
	.uleb128 0
	.uleb128 0
.LLSDACSE3571:
	.text
	.size	_ZN10subprocess5PopenC2ESt6vectorINSt7__cxx1112basic_stringIcSt11char_traitsIcESaIcEEESaIS7_EEONS_10RunOptionsE, .-_ZN10subprocess5PopenC2ESt6vectorINSt7__cxx1112basic_stringIcSt11char_traitsIcESaIcEEESaIS7_EEONS_10RunOptionsE
	.global	_ZN10subprocess5PopenC1ESt6vectorINSt7__cxx1112basic_stringIcSt11char_traitsIcESaIcEEESaIS7_EEONS_10RunOptionsE
	.set	_ZN10subprocess5PopenC1ESt6vectorINSt7__cxx1112basic_stringIcSt11char_traitsIcESaIcEEESaIS7_EEONS_10RunOptionsE,_ZN10subprocess5PopenC2ESt6vectorINSt7__cxx1112basic_stringIcSt11char_traitsIcESaIcEEESaIS7_EEONS_10RunOptionsE
	.section	.text._ZNSt12_Vector_baseIiSaIiEE12_Vector_implD2Ev,"axG",@progbits,_ZNSt12_Vector_baseIiSaIiEE12_Vector_implD5Ev,comdat
	.align	2
	.weak	_ZNSt12_Vector_baseIiSaIiEE12_Vector_implD2Ev
	.type	_ZNSt12_Vector_baseIiSaIiEE12_Vector_implD2Ev, %function
_ZNSt12_Vector_baseIiSaIiEE12_Vector_implD2Ev:
.LFB3579:
	.cfi_startproc
	stp	x29, x30, [sp, -32]!
	.cfi_def_cfa_offset 32
	.cfi_offset 29, -32
	.cfi_offset 30, -24
	mov	x29, sp
	str	x0, [sp, 24]
	ldr	x0, [sp, 24]
	bl	_ZNSaIiED2Ev
	nop
	ldp	x29, x30, [sp], 32
	.cfi_restore 30
	.cfi_restore 29
	.cfi_def_cfa_offset 0
	ret
	.cfi_endproc
.LFE3579:
	.size	_ZNSt12_Vector_baseIiSaIiEE12_Vector_implD2Ev, .-_ZNSt12_Vector_baseIiSaIiEE12_Vector_implD2Ev
	.weak	_ZNSt12_Vector_baseIiSaIiEE12_Vector_implD1Ev
	.set	_ZNSt12_Vector_baseIiSaIiEE12_Vector_implD1Ev,_ZNSt12_Vector_baseIiSaIiEE12_Vector_implD2Ev
	.section	.text._ZNSt12_Vector_baseIiSaIiEEC2Ev,"axG",@progbits,_ZNSt12_Vector_baseIiSaIiEEC5Ev,comdat
	.align	2
	.weak	_ZNSt12_Vector_baseIiSaIiEEC2Ev
	.type	_ZNSt12_Vector_baseIiSaIiEEC2Ev, %function
_ZNSt12_Vector_baseIiSaIiEEC2Ev:
.LFB3581:
	.cfi_startproc
	stp	x29, x30, [sp, -32]!
	.cfi_def_cfa_offset 32
	.cfi_offset 29, -32
	.cfi_offset 30, -24
	mov	x29, sp
	str	x0, [sp, 24]
	ldr	x0, [sp, 24]
	bl	_ZNSt12_Vector_baseIiSaIiEE12_Vector_implC1Ev
	nop
	ldp	x29, x30, [sp], 32
	.cfi_restore 30
	.cfi_restore 29
	.cfi_def_cfa_offset 0
	ret
	.cfi_endproc
.LFE3581:
	.size	_ZNSt12_Vector_baseIiSaIiEEC2Ev, .-_ZNSt12_Vector_baseIiSaIiEEC2Ev
	.weak	_ZNSt12_Vector_baseIiSaIiEEC1Ev
	.set	_ZNSt12_Vector_baseIiSaIiEEC1Ev,_ZNSt12_Vector_baseIiSaIiEEC2Ev
	.section	.text._ZNSt6vectorIiSaIiEEC2Ev,"axG",@progbits,_ZNSt6vectorIiSaIiEEC5Ev,comdat
	.align	2
	.weak	_ZNSt6vectorIiSaIiEEC2Ev
	.type	_ZNSt6vectorIiSaIiEEC2Ev, %function
_ZNSt6vectorIiSaIiEEC2Ev:
.LFB3583:
	.cfi_startproc
	stp	x29, x30, [sp, -32]!
	.cfi_def_cfa_offset 32
	.cfi_offset 29, -32
	.cfi_offset 30, -24
	mov	x29, sp
	str	x0, [sp, 24]
	ldr	x0, [sp, 24]
	bl	_ZNSt12_Vector_baseIiSaIiEEC2Ev
	nop
	ldp	x29, x30, [sp], 32
	.cfi_restore 30
	.cfi_restore 29
	.cfi_def_cfa_offset 0
	ret
	.cfi_endproc
.LFE3583:
	.size	_ZNSt6vectorIiSaIiEEC2Ev, .-_ZNSt6vectorIiSaIiEEC2Ev
	.weak	_ZNSt6vectorIiSaIiEEC1Ev
	.set	_ZNSt6vectorIiSaIiEEC1Ev,_ZNSt6vectorIiSaIiEEC2Ev
	.section	.text._ZN10subprocess14ProcessBuilderC2Ev,"axG",@progbits,_ZN10subprocess14ProcessBuilderC5Ev,comdat
	.align	2
	.weak	_ZN10subprocess14ProcessBuilderC2Ev
	.type	_ZN10subprocess14ProcessBuilderC2Ev, %function
_ZN10subprocess14ProcessBuilderC2Ev:
.LFB3585:
	.cfi_startproc
	stp	x29, x30, [sp, -32]!
	.cfi_def_cfa_offset 32
	.cfi_offset 29, -32
	.cfi_offset 30, -24
	mov	x29, sp
	str	x0, [sp, 24]
	ldr	x0, [sp, 24]
	bl	_ZNSt6vectorIiSaIiEEC1Ev
	ldr	x0, [sp, 24]
	mov	w1, -1
	str	w1, [x0, 24]
	ldr	x0, [sp, 24]
	mov	w1, -1
	str	w1, [x0, 28]
	ldr	x0, [sp, 24]
	mov	w1, -1
	str	w1, [x0, 32]
	ldr	x0, [sp, 24]
	str	wzr, [x0, 36]
	ldr	x0, [sp, 24]
	str	wzr, [x0, 40]
	ldr	x0, [sp, 24]
	str	wzr, [x0, 44]
	ldr	x0, [sp, 24]
	strb	wzr, [x0, 48]
	ldr	x0, [sp, 24]
	add	x0, x0, 56
	bl	_ZNSt3mapINSt7__cxx1112basic_stringIcSt11char_traitsIcESaIcEEES5_St4lessIS5_ESaISt4pairIKS5_S5_EEEC1Ev
	ldr	x0, [sp, 24]
	add	x0, x0, 104
	bl	_ZNSt7__cxx1112basic_stringIcSt11char_traitsIcESaIcEEC1Ev
	ldr	x0, [sp, 24]
	add	x0, x0, 136
	bl	_ZNSt6vectorINSt7__cxx1112basic_stringIcSt11char_traitsIcESaIcEEESaIS5_EEC1Ev
	nop
	ldp	x29, x30, [sp], 32
	.cfi_restore 30
	.cfi_restore 29
	.cfi_def_cfa_offset 0
	ret
	.cfi_endproc
.LFE3585:
	.size	_ZN10subprocess14ProcessBuilderC2Ev, .-_ZN10subprocess14ProcessBuilderC2Ev
	.weak	_ZN10subprocess14ProcessBuilderC1Ev
	.set	_ZN10subprocess14ProcessBuilderC1Ev,_ZN10subprocess14ProcessBuilderC2Ev
	.section	.text._ZN10subprocess14ProcessBuilderD2Ev,"axG",@progbits,_ZN10subprocess14ProcessBuilderD5Ev,comdat
	.align	2
	.weak	_ZN10subprocess14ProcessBuilderD2Ev
	.type	_ZN10subprocess14ProcessBuilderD2Ev, %function
_ZN10subprocess14ProcessBuilderD2Ev:
.LFB3588:
	.cfi_startproc
	stp	x29, x30, [sp, -32]!
	.cfi_def_cfa_offset 32
	.cfi_offset 29, -32
	.cfi_offset 30, -24
	mov	x29, sp
	str	x0, [sp, 24]
	ldr	x0, [sp, 24]
	add	x0, x0, 136
	bl	_ZNSt6vectorINSt7__cxx1112basic_stringIcSt11char_traitsIcESaIcEEESaIS5_EED1Ev
	ldr	x0, [sp, 24]
	add	x0, x0, 104
	bl	_ZNSt7__cxx1112basic_stringIcSt11char_traitsIcESaIcEED1Ev
	ldr	x0, [sp, 24]
	add	x0, x0, 56
	bl	_ZNSt3mapINSt7__cxx1112basic_stringIcSt11char_traitsIcESaIcEEES5_St4lessIS5_ESaISt4pairIKS5_S5_EEED1Ev
	ldr	x0, [sp, 24]
	bl	_ZNSt6vectorIiSaIiEED1Ev
	nop
	ldp	x29, x30, [sp], 32
	.cfi_restore 30
	.cfi_restore 29
	.cfi_def_cfa_offset 0
	ret
	.cfi_endproc
.LFE3588:
	.size	_ZN10subprocess14ProcessBuilderD2Ev, .-_ZN10subprocess14ProcessBuilderD2Ev
	.weak	_ZN10subprocess14ProcessBuilderD1Ev
	.set	_ZN10subprocess14ProcessBuilderD1Ev,_ZN10subprocess14ProcessBuilderD2Ev
	.section	.rodata
	.align	3
.LC6:
	.string	"bad pipe value for cin"
	.align	3
.LC7:
	.string	"Popen constructor: bad pipe value for cout"
	.text
	.align	2
	.global	_ZN10subprocess5Popen4initERSt6vectorINSt7__cxx1112basic_stringIcSt11char_traitsIcESaIcEEESaIS7_EERNS_10RunOptionsE
	.type	_ZN10subprocess5Popen4initERSt6vectorINSt7__cxx1112basic_stringIcSt11char_traitsIcESaIcEEESaIS7_EERNS_10RunOptionsE, %function
_ZN10subprocess5Popen4initERSt6vectorINSt7__cxx1112basic_stringIcSt11char_traitsIcESaIcEEESaIS7_EERNS_10RunOptionsE:
.LFB3573:
	.cfi_startproc
	.cfi_personality 0x9b,DW.ref.__gxx_personality_v0
	.cfi_lsda 0x1b,.LLSDA3573
	stp	x29, x30, [sp, -288]!
	.cfi_def_cfa_offset 288
	.cfi_offset 29, -288
	.cfi_offset 30, -280
	mov	x29, sp
	stp	x19, x20, [sp, 16]
	.cfi_offset 19, -272
	.cfi_offset 20, -264
	str	x0, [sp, 56]
	str	x1, [sp, 48]
	str	x2, [sp, 40]
	adrp	x0, :got:__stack_chk_guard
	ldr	x0, [x0, #:got_lo12:__stack_chk_guard]
	ldr	x1, [x0]
	str	x1, [sp, 280]
	mov	x1, 0
	add	x0, sp, 120
	bl	_ZN10subprocess14ProcessBuilderC1Ev
	ldr	x0, [sp, 40]
	add	x0, x0, 8
.LEHB57:
	bl	_ZN10subprocess15get_pipe_optionERKSt7variantIJNS_10PipeOptionENSt7__cxx1112basic_stringIcSt11char_traitsIcESaIcEEEiPSiPSoP8_IO_FILEEE
	str	w0, [sp, 156]
	ldr	x0, [sp, 40]
	add	x0, x0, 48
	bl	_ZN10subprocess15get_pipe_optionERKSt7variantIJNS_10PipeOptionENSt7__cxx1112basic_stringIcSt11char_traitsIcESaIcEEEiPSiPSoP8_IO_FILEEE
	str	w0, [sp, 160]
	ldr	x0, [sp, 40]
	add	x0, x0, 88
	bl	_ZN10subprocess15get_pipe_optionERKSt7variantIJNS_10PipeOptionENSt7__cxx1112basic_stringIcSt11char_traitsIcESaIcEEEiPSiPSoP8_IO_FILEEE
	str	w0, [sp, 164]
	ldr	w0, [sp, 156]
	cmp	w0, 3
	bne	.L305
	ldr	x0, [sp, 40]
	add	x0, x0, 8
	bl	_ZSt3getIiJN10subprocess10PipeOptionENSt7__cxx1112basic_stringIcSt11char_traitsIcESaIcEEEiPSiPSoP8_IO_FILEEERT_RSt7variantIJDpT0_EE
.LEHE57:
	ldr	w0, [x0]
	str	w0, [sp, 144]
	ldr	w0, [sp, 144]
	cmn	w0, #1
	bne	.L305
	mov	x0, 16
	bl	__cxa_allocate_exception
	mov	x19, x0
	adrp	x0, .LC6
	add	x1, x0, :lo12:.LC6
	mov	x0, x19
.LEHB58:
	bl	_ZNSt16invalid_argumentC1EPKc
.LEHE58:
	adrp	x0, :got:_ZNSt16invalid_argumentD1Ev
	ldr	x2, [x0, #:got_lo12:_ZNSt16invalid_argumentD1Ev]
	adrp	x0, :got:_ZTISt16invalid_argument
	ldr	x1, [x0, #:got_lo12:_ZTISt16invalid_argument]
	mov	x0, x19
.LEHB59:
	bl	__cxa_throw
.L305:
	ldr	w0, [sp, 160]
	cmp	w0, 3
	bne	.L306
	ldr	x0, [sp, 40]
	add	x0, x0, 48
	bl	_ZSt3getIiJN10subprocess10PipeOptionENSt7__cxx1112basic_stringIcSt11char_traitsIcESaIcEEEiPSiPSoP8_IO_FILEEERT_RSt7variantIJDpT0_EE
.LEHE59:
	ldr	w0, [x0]
	str	w0, [sp, 148]
	ldr	w0, [sp, 148]
	cmn	w0, #1
	bne	.L306
	mov	x0, 16
	bl	__cxa_allocate_exception
	mov	x19, x0
	adrp	x0, .LC7
	add	x1, x0, :lo12:.LC7
	mov	x0, x19
.LEHB60:
	bl	_ZNSt16invalid_argumentC1EPKc
.LEHE60:
	adrp	x0, :got:_ZNSt16invalid_argumentD1Ev
	ldr	x2, [x0, #:got_lo12:_ZNSt16invalid_argumentD1Ev]
	adrp	x0, :got:_ZTISt16invalid_argument
	ldr	x1, [x0, #:got_lo12:_ZTISt16invalid_argument]
	mov	x0, x19
.LEHB61:
	bl	__cxa_throw
.L306:
	ldr	w0, [sp, 164]
	cmp	w0, 3
	bne	.L307
	ldr	x0, [sp, 40]
	add	x0, x0, 88
	bl	_ZSt3getIiJN10subprocess10PipeOptionENSt7__cxx1112basic_stringIcSt11char_traitsIcESaIcEEEiPSiPSoP8_IO_FILEEERT_RSt7variantIJDpT0_EE
.LEHE61:
	ldr	w0, [x0]
	str	w0, [sp, 152]
	ldr	w0, [sp, 148]
	cmn	w0, #1
	bne	.L307
	mov	x0, 16
	bl	__cxa_allocate_exception
	mov	x19, x0
	adrp	x0, .LC7
	add	x1, x0, :lo12:.LC7
	mov	x0, x19
.LEHB62:
	bl	_ZNSt16invalid_argumentC1EPKc
.LEHE62:
	adrp	x0, :got:_ZNSt16invalid_argumentD1Ev
	ldr	x2, [x0, #:got_lo12:_ZNSt16invalid_argumentD1Ev]
	adrp	x0, :got:_ZTISt16invalid_argument
	ldr	x1, [x0, #:got_lo12:_ZTISt16invalid_argument]
	mov	x0, x19
.LEHB63:
	bl	__cxa_throw
.L307:
	ldr	x0, [sp, 40]
	ldrb	w0, [x0, 128]
	strb	w0, [sp, 168]
	ldr	x0, [sp, 40]
	add	x1, x0, 168
	add	x0, sp, 120
	add	x0, x0, 56
	bl	_ZNSt3mapINSt7__cxx1112basic_stringIcSt11char_traitsIcESaIcEEES5_St4lessIS5_ESaISt4pairIKS5_S5_EEEaSERKSC_
	ldr	x0, [sp, 40]
	add	x1, x0, 136
	add	x0, sp, 120
	add	x0, x0, 104
	bl	_ZNSt7__cxx1112basic_stringIcSt11char_traitsIcESaIcEEaSERKS4_
	add	x0, sp, 120
	add	x1, sp, 72
	mov	x8, x1
	ldr	x1, [sp, 48]
	bl	_ZN10subprocess14ProcessBuilder11run_commandERKSt6vectorINSt7__cxx1112basic_stringIcSt11char_traitsIcESaIcEEESaIS7_EE
.LEHE63:
	add	x0, sp, 72
	mov	x1, x0
	ldr	x0, [sp, 56]
.LEHB64:
	bl	_ZN10subprocess5PopenaSEOS0_
.LEHE64:
	add	x0, sp, 72
	bl	_ZN10subprocess5PopenD1Ev
	ldr	x0, [sp, 40]
	add	x2, x0, 8
	ldr	x0, [sp, 56]
	ldr	w0, [x0]
	mov	w1, w0
	mov	x0, x2
.LEHB65:
	bl	_ZN10subprocess21setup_redirect_streamERSt7variantIJNS_10PipeOptionENSt7__cxx1112basic_stringIcSt11char_traitsIcESaIcEEEiPSiPSoP8_IO_FILEEEi
	ldr	x0, [sp, 56]
	ldr	w2, [x0, 4]
	ldr	x0, [sp, 40]
	add	x0, x0, 48
	mov	x1, x0
	mov	w0, w2
	bl	_ZN10subprocess21setup_redirect_streamEiRSt7variantIJNS_10PipeOptionENSt7__cxx1112basic_stringIcSt11char_traitsIcESaIcEEEiPSiPSoP8_IO_FILEEE
	ldr	x0, [sp, 56]
	ldr	w2, [x0, 8]
	ldr	x0, [sp, 40]
	add	x0, x0, 88
	mov	x1, x0
	mov	w0, w2
	bl	_ZN10subprocess21setup_redirect_streamEiRSt7variantIJNS_10PipeOptionENSt7__cxx1112basic_stringIcSt11char_traitsIcESaIcEEEiPSiPSoP8_IO_FILEEE
.LEHE65:
	add	x0, sp, 120
	bl	_ZN10subprocess14ProcessBuilderD1Ev
	adrp	x0, :got:__stack_chk_guard
	ldr	x0, [x0, #:got_lo12:__stack_chk_guard]
	ldr	x2, [sp, 280]
	ldr	x1, [x0]
	subs	x2, x2, x1
	mov	x1, 0
	beq	.L313
	b	.L319
.L315:
	mov	x20, x0
	mov	x0, x19
	bl	__cxa_free_exception
	mov	x19, x20
	b	.L309
.L316:
	mov	x20, x0
	mov	x0, x19
	bl	__cxa_free_exception
	mov	x19, x20
	b	.L309
.L317:
	mov	x20, x0
	mov	x0, x19
	bl	__cxa_free_exception
	mov	x19, x20
	b	.L309
.L318:
	mov	x19, x0
	add	x0, sp, 72
	bl	_ZN10subprocess5PopenD1Ev
	b	.L309
.L314:
	mov	x19, x0
.L309:
	add	x0, sp, 120
	bl	_ZN10subprocess14ProcessBuilderD1Ev
	mov	x0, x19
.LEHB66:
	bl	_Unwind_Resume
.LEHE66:
.L319:
	bl	__stack_chk_fail
.L313:
	ldp	x19, x20, [sp, 16]
	ldp	x29, x30, [sp], 288
	.cfi_restore 30
	.cfi_restore 29
	.cfi_restore 19
	.cfi_restore 20
	.cfi_def_cfa_offset 0
	ret
	.cfi_endproc
.LFE3573:
	.section	.gcc_except_table
.LLSDA3573:
	.byte	0xff
	.byte	0xff
	.byte	0x1
	.uleb128 .LLSDACSE3573-.LLSDACSB3573
.LLSDACSB3573:
	.uleb128 .LEHB57-.LFB3573
	.uleb128 .LEHE57-.LEHB57
	.uleb128 .L314-.LFB3573
	.uleb128 0
	.uleb128 .LEHB58-.LFB3573
	.uleb128 .LEHE58-.LEHB58
	.uleb128 .L315-.LFB3573
	.uleb128 0
	.uleb128 .LEHB59-.LFB3573
	.uleb128 .LEHE59-.LEHB59
	.uleb128 .L314-.LFB3573
	.uleb128 0
	.uleb128 .LEHB60-.LFB3573
	.uleb128 .LEHE60-.LEHB60
	.uleb128 .L316-.LFB3573
	.uleb128 0
	.uleb128 .LEHB61-.LFB3573
	.uleb128 .LEHE61-.LEHB61
	.uleb128 .L314-.LFB3573
	.uleb128 0
	.uleb128 .LEHB62-.LFB3573
	.uleb128 .LEHE62-.LEHB62
	.uleb128 .L317-.LFB3573
	.uleb128 0
	.uleb128 .LEHB63-.LFB3573
	.uleb128 .LEHE63-.LEHB63
	.uleb128 .L314-.LFB3573
	.uleb128 0
	.uleb128 .LEHB64-.LFB3573
	.uleb128 .LEHE64-.LEHB64
	.uleb128 .L318-.LFB3573
	.uleb128 0
	.uleb128 .LEHB65-.LFB3573
	.uleb128 .LEHE65-.LEHB65
	.uleb128 .L314-.LFB3573
	.uleb128 0
	.uleb128 .LEHB66-.LFB3573
	.uleb128 .LEHE66-.LEHB66
	.uleb128 0
	.uleb128 0
.LLSDACSE3573:
	.text
	.size	_ZN10subprocess5Popen4initERSt6vectorINSt7__cxx1112basic_stringIcSt11char_traitsIcESaIcEEESaIS7_EERNS_10RunOptionsE, .-_ZN10subprocess5Popen4initERSt6vectorINSt7__cxx1112basic_stringIcSt11char_traitsIcESaIcEEESaIS7_EERNS_10RunOptionsE
	.align	2
	.global	_ZN10subprocess5PopenC2EOS0_
	.type	_ZN10subprocess5PopenC2EOS0_, %function
_ZN10subprocess5PopenC2EOS0_:
.LFB3591:
	.cfi_startproc
	.cfi_personality 0x9b,DW.ref.__gxx_personality_v0
	.cfi_lsda 0x1b,.LLSDA3591
	stp	x29, x30, [sp, -48]!
	.cfi_def_cfa_offset 48
	.cfi_offset 29, -48
	.cfi_offset 30, -40
	mov	x29, sp
	str	x19, [sp, 16]
	.cfi_offset 19, -32
	str	x0, [sp, 40]
	str	x1, [sp, 32]
	ldr	x0, [sp, 40]
	mov	w1, -1
	str	w1, [x0]
	ldr	x0, [sp, 40]
	mov	w1, -1
	str	w1, [x0, 4]
	ldr	x0, [sp, 40]
	mov	w1, -1
	str	w1, [x0, 8]
	ldr	x0, [sp, 40]
	str	wzr, [x0, 12]
	ldr	x0, [sp, 40]
	mov	w1, -1000
	str	w1, [x0, 16]
	ldr	x0, [sp, 40]
	add	x0, x0, 24
	bl	_ZNSt6vectorINSt7__cxx1112basic_stringIcSt11char_traitsIcESaIcEEESaIS5_EEC1Ev
	ldr	x0, [sp, 32]
	bl	_ZSt4moveIRN10subprocess5PopenEEONSt16remove_referenceIT_E4typeEOS4_
	mov	x1, x0
	ldr	x0, [sp, 40]
.LEHB67:
	bl	_ZN10subprocess5PopenaSEOS0_
.LEHE67:
	b	.L323
.L322:
	mov	x19, x0
	ldr	x0, [sp, 40]
	add	x0, x0, 24
	bl	_ZNSt6vectorINSt7__cxx1112basic_stringIcSt11char_traitsIcESaIcEEESaIS5_EED1Ev
	mov	x0, x19
.LEHB68:
	bl	_Unwind_Resume
.LEHE68:
.L323:
	ldr	x19, [sp, 16]
	ldp	x29, x30, [sp], 48
	.cfi_restore 30
	.cfi_restore 29
	.cfi_restore 19
	.cfi_def_cfa_offset 0
	ret
	.cfi_endproc
.LFE3591:
	.section	.gcc_except_table
.LLSDA3591:
	.byte	0xff
	.byte	0xff
	.byte	0x1
	.uleb128 .LLSDACSE3591-.LLSDACSB3591
.LLSDACSB3591:
	.uleb128 .LEHB67-.LFB3591
	.uleb128 .LEHE67-.LEHB67
	.uleb128 .L322-.LFB3591
	.uleb128 0
	.uleb128 .LEHB68-.LFB3591
	.uleb128 .LEHE68-.LEHB68
	.uleb128 0
	.uleb128 0
.LLSDACSE3591:
	.text
	.size	_ZN10subprocess5PopenC2EOS0_, .-_ZN10subprocess5PopenC2EOS0_
	.global	_ZN10subprocess5PopenC1EOS0_
	.set	_ZN10subprocess5PopenC1EOS0_,_ZN10subprocess5PopenC2EOS0_
	.section	.text._ZN9__gnu_cxx14__alloc_traitsISaINSt7__cxx1112basic_stringIcSt11char_traitsIcESaIcEEEES6_E15_S_always_equalEv,"axG",@progbits,_ZN9__gnu_cxx14__alloc_traitsISaINSt7__cxx1112basic_stringIcSt11char_traitsIcESaIcEEEES6_E15_S_always_equalEv,comdat
	.align	2
	.weak	_ZN9__gnu_cxx14__alloc_traitsISaINSt7__cxx1112basic_stringIcSt11char_traitsIcESaIcEEEES6_E15_S_always_equalEv
	.type	_ZN9__gnu_cxx14__alloc_traitsISaINSt7__cxx1112basic_stringIcSt11char_traitsIcESaIcEEEES6_E15_S_always_equalEv, %function
_ZN9__gnu_cxx14__alloc_traitsISaINSt7__cxx1112basic_stringIcSt11char_traitsIcESaIcEEEES6_E15_S_always_equalEv:
.LFB3596:
	.cfi_startproc
	mov	w0, 1
	ret
	.cfi_endproc
.LFE3596:
	.size	_ZN9__gnu_cxx14__alloc_traitsISaINSt7__cxx1112basic_stringIcSt11char_traitsIcESaIcEEEES6_E15_S_always_equalEv, .-_ZN9__gnu_cxx14__alloc_traitsISaINSt7__cxx1112basic_stringIcSt11char_traitsIcESaIcEEEES6_E15_S_always_equalEv
	.text
	.align	2
	.global	_ZN10subprocess5PopenaSEOS0_
	.type	_ZN10subprocess5PopenaSEOS0_, %function
_ZN10subprocess5PopenaSEOS0_:
.LFB3593:
	.cfi_startproc
	stp	x29, x30, [sp, -32]!
	.cfi_def_cfa_offset 32
	.cfi_offset 29, -32
	.cfi_offset 30, -24
	mov	x29, sp
	str	x0, [sp, 24]
	str	x1, [sp, 16]
	ldr	x0, [sp, 24]
	bl	_ZN10subprocess5Popen5closeEv
	ldr	x0, [sp, 16]
	ldr	w1, [x0]
	ldr	x0, [sp, 24]
	str	w1, [x0]
	ldr	x0, [sp, 16]
	ldr	w1, [x0, 4]
	ldr	x0, [sp, 24]
	str	w1, [x0, 4]
	ldr	x0, [sp, 16]
	ldr	w1, [x0, 8]
	ldr	x0, [sp, 24]
	str	w1, [x0, 8]
	ldr	x0, [sp, 16]
	ldr	w1, [x0, 12]
	ldr	x0, [sp, 24]
	str	w1, [x0, 12]
	ldr	x0, [sp, 16]
	ldr	w1, [x0, 16]
	ldr	x0, [sp, 24]
	str	w1, [x0, 16]
	ldr	x0, [sp, 16]
	add	x0, x0, 24
	bl	_ZSt4moveIRSt6vectorINSt7__cxx1112basic_stringIcSt11char_traitsIcESaIcEEESaIS6_EEEONSt16remove_referenceIT_E4typeEOSB_
	mov	x1, x0
	ldr	x0, [sp, 24]
	add	x0, x0, 24
	bl	_ZNSt6vectorINSt7__cxx1112basic_stringIcSt11char_traitsIcESaIcEEESaIS5_EEaSEOS7_
	ldr	x0, [sp, 16]
	mov	w1, -1
	str	w1, [x0]
	ldr	x0, [sp, 16]
	mov	w1, -1
	str	w1, [x0, 4]
	ldr	x0, [sp, 16]
	mov	w1, -1
	str	w1, [x0, 8]
	ldr	x0, [sp, 16]
	str	wzr, [x0, 12]
	ldr	x0, [sp, 16]
	mov	w1, -1000
	str	w1, [x0, 16]
	ldr	x0, [sp, 24]
	ldp	x29, x30, [sp], 32
	.cfi_restore 30
	.cfi_restore 29
	.cfi_def_cfa_offset 0
	ret
	.cfi_endproc
.LFE3593:
	.size	_ZN10subprocess5PopenaSEOS0_, .-_ZN10subprocess5PopenaSEOS0_
	.align	2
	.global	_ZN10subprocess5PopenD2Ev
	.type	_ZN10subprocess5PopenD2Ev, %function
_ZN10subprocess5PopenD2Ev:
.LFB3598:
	.cfi_startproc
	.cfi_personality 0x9b,DW.ref.__gxx_personality_v0
	.cfi_lsda 0x1b,.LLSDA3598
	stp	x29, x30, [sp, -32]!
	.cfi_def_cfa_offset 32
	.cfi_offset 29, -32
	.cfi_offset 30, -24
	mov	x29, sp
	str	x0, [sp, 24]
	ldr	x0, [sp, 24]
	bl	_ZN10subprocess5Popen5closeEv
	ldr	x0, [sp, 24]
	add	x0, x0, 24
	bl	_ZNSt6vectorINSt7__cxx1112basic_stringIcSt11char_traitsIcESaIcEEESaIS5_EED1Ev
	nop
	ldp	x29, x30, [sp], 32
	.cfi_restore 30
	.cfi_restore 29
	.cfi_def_cfa_offset 0
	ret
	.cfi_endproc
.LFE3598:
	.section	.gcc_except_table
.LLSDA3598:
	.byte	0xff
	.byte	0xff
	.byte	0x1
	.uleb128 .LLSDACSE3598-.LLSDACSB3598
.LLSDACSB3598:
.LLSDACSE3598:
	.text
	.size	_ZN10subprocess5PopenD2Ev, .-_ZN10subprocess5PopenD2Ev
	.global	_ZN10subprocess5PopenD1Ev
	.set	_ZN10subprocess5PopenD1Ev,_ZN10subprocess5PopenD2Ev
	.align	2
	.global	_ZN10subprocess5Popen5closeEv
	.type	_ZN10subprocess5Popen5closeEv, %function
_ZN10subprocess5Popen5closeEv:
.LFB3600:
	.cfi_startproc
	stp	x29, x30, [sp, -32]!
	.cfi_def_cfa_offset 32
	.cfi_offset 29, -32
	.cfi_offset 30, -24
	mov	x29, sp
	str	x0, [sp, 24]
	ldr	x0, [sp, 24]
	ldr	w0, [x0]
	cmn	w0, #1
	beq	.L330
	ldr	x0, [sp, 24]
	ldr	w0, [x0]
	bl	_ZN10subprocess10pipe_closeEi
.L330:
	ldr	x0, [sp, 24]
	ldr	w0, [x0, 4]
	cmn	w0, #1
	beq	.L331
	ldr	x0, [sp, 24]
	ldr	w0, [x0, 4]
	bl	_ZN10subprocess10pipe_closeEi
.L331:
	ldr	x0, [sp, 24]
	ldr	w0, [x0, 8]
	cmn	w0, #1
	beq	.L332
	ldr	x0, [sp, 24]
	ldr	w0, [x0, 8]
	bl	_ZN10subprocess10pipe_closeEi
.L332:
	ldr	x0, [sp, 24]
	mov	w1, -1
	str	w1, [x0, 8]
	ldr	x0, [sp, 24]
	ldr	w1, [x0, 8]
	ldr	x0, [sp, 24]
	str	w1, [x0, 4]
	ldr	x0, [sp, 24]
	ldr	w1, [x0, 4]
	ldr	x0, [sp, 24]
	str	w1, [x0]
	ldr	x0, [sp, 24]
	ldr	w0, [x0, 12]
	cmp	w0, 0
	beq	.L333
	fmov	d0, -1.0e+0
	ldr	x0, [sp, 24]
	bl	_ZN10subprocess5Popen4waitEd
.L333:
	ldr	x0, [sp, 24]
	str	wzr, [x0, 12]
	ldr	x0, [sp, 24]
	mov	w1, -1000
	str	w1, [x0, 16]
	ldr	x0, [sp, 24]
	add	x0, x0, 24
	bl	_ZNSt6vectorINSt7__cxx1112basic_stringIcSt11char_traitsIcESaIcEEESaIS5_EE5clearEv
	nop
	ldp	x29, x30, [sp], 32
	.cfi_restore 30
	.cfi_restore 29
	.cfi_def_cfa_offset 0
	ret
	.cfi_endproc
.LFE3600:
	.size	_ZN10subprocess5Popen5closeEv, .-_ZN10subprocess5Popen5closeEv
	.align	2
	.global	_ZN10subprocess5Popen4pollEv
	.type	_ZN10subprocess5Popen4pollEv, %function
_ZN10subprocess5Popen4pollEv:
.LFB3601:
	.cfi_startproc
	stp	x29, x30, [sp, -48]!
	.cfi_def_cfa_offset 48
	.cfi_offset 29, -48
	.cfi_offset 30, -40
	mov	x29, sp
	str	x0, [sp, 24]
	adrp	x0, :got:__stack_chk_guard
	ldr	x0, [x0, #:got_lo12:__stack_chk_guard]
	ldr	x1, [x0]
	str	x1, [sp, 40]
	mov	x1, 0
	ldr	x0, [sp, 24]
	ldr	w0, [x0, 16]
	cmn	w0, #1000
	beq	.L335
	mov	w0, 1
	b	.L341
.L335:
	ldr	x0, [sp, 24]
	ldr	w0, [x0, 12]
	add	x1, sp, 32
	mov	w2, 1
	bl	waitpid
	str	w0, [sp, 36]
	ldr	w0, [sp, 36]
	cmp	w0, 0
	bne	.L337
	mov	w0, 0
	b	.L341
.L337:
	ldr	w0, [sp, 36]
	cmp	w0, 0
	ble	.L338
	ldr	w0, [sp, 32]
	and	w0, w0, 127
	cmp	w0, 0
	bne	.L339
	ldr	w0, [sp, 32]
	asr	w0, w0, 8
	and	w1, w0, 255
	ldr	x0, [sp, 24]
	str	w1, [x0, 16]
	b	.L338
.L339:
	ldr	w0, [sp, 32]
	and	w0, w0, 255
	and	w0, w0, 127
	and	w0, w0, 255
	add	w0, w0, 1
	and	w0, w0, 255
	sxtb	w0, w0
	asr	w0, w0, 1
	sxtb	w0, w0
	cmp	w0, 0
	ble	.L340
	ldr	w0, [sp, 32]
	and	w0, w0, 127
	neg	w1, w0
	ldr	x0, [sp, 24]
	str	w1, [x0, 16]
	b	.L338
.L340:
	ldr	x0, [sp, 24]
	mov	w1, 1
	str	w1, [x0, 16]
.L338:
	ldr	w0, [sp, 36]
	cmp	w0, 0
	cset	w0, gt
	and	w0, w0, 255
.L341:
	mov	w1, w0
	adrp	x0, :got:__stack_chk_guard
	ldr	x0, [x0, #:got_lo12:__stack_chk_guard]
	ldr	x3, [sp, 40]
	ldr	x2, [x0]
	subs	x3, x3, x2
	mov	x2, 0
	beq	.L342
	bl	__stack_chk_fail
.L342:
	mov	w0, w1
	ldp	x29, x30, [sp], 48
	.cfi_restore 30
	.cfi_restore 29
	.cfi_def_cfa_offset 0
	ret
	.cfi_endproc
.LFE3601:
	.size	_ZN10subprocess5Popen4pollEv, .-_ZN10subprocess5Popen4pollEv
	.section	.text._ZN10subprocess15SubprocessErrorCI2St13runtime_errorEPKc,"axG",@progbits,_ZN10subprocess15SubprocessErrorCI5St13runtime_errorEPKc,comdat
	.align	2
	.weak	_ZN10subprocess15SubprocessErrorCI2St13runtime_errorEPKc
	.type	_ZN10subprocess15SubprocessErrorCI2St13runtime_errorEPKc, %function
_ZN10subprocess15SubprocessErrorCI2St13runtime_errorEPKc:
.LFB3605:
	.cfi_startproc
	stp	x29, x30, [sp, -32]!
	.cfi_def_cfa_offset 32
	.cfi_offset 29, -32
	.cfi_offset 30, -24
	mov	x29, sp
	str	x0, [sp, 24]
	str	x1, [sp, 16]
	ldr	x0, [sp, 24]
	ldr	x1, [sp, 16]
	bl	_ZNSt13runtime_errorC2EPKc
	adrp	x0, _ZTVN10subprocess15SubprocessErrorE+16
	add	x1, x0, :lo12:_ZTVN10subprocess15SubprocessErrorE+16
	ldr	x0, [sp, 24]
	str	x1, [x0]
	nop
	ldp	x29, x30, [sp], 32
	.cfi_restore 30
	.cfi_restore 29
	.cfi_def_cfa_offset 0
	ret
	.cfi_endproc
.LFE3605:
	.size	_ZN10subprocess15SubprocessErrorCI2St13runtime_errorEPKc, .-_ZN10subprocess15SubprocessErrorCI2St13runtime_errorEPKc
	.weak	_ZN10subprocess15SubprocessErrorCI1St13runtime_errorEPKc
	.set	_ZN10subprocess15SubprocessErrorCI1St13runtime_errorEPKc,_ZN10subprocess15SubprocessErrorCI2St13runtime_errorEPKc
	.section	.text._ZN10subprocess14TimeoutExpiredCI2St13runtime_errorEPKc,"axG",@progbits,_ZN10subprocess14TimeoutExpiredCI5St13runtime_errorEPKc,comdat
	.align	2
	.weak	_ZN10subprocess14TimeoutExpiredCI2St13runtime_errorEPKc
	.type	_ZN10subprocess14TimeoutExpiredCI2St13runtime_errorEPKc, %function
_ZN10subprocess14TimeoutExpiredCI2St13runtime_errorEPKc:
.LFB3607:
	.cfi_startproc
	stp	x29, x30, [sp, -32]!
	.cfi_def_cfa_offset 32
	.cfi_offset 29, -32
	.cfi_offset 30, -24
	mov	x29, sp
	str	x0, [sp, 24]
	str	x1, [sp, 16]
	ldr	x0, [sp, 24]
	ldr	x1, [sp, 16]
	bl	_ZN10subprocess15SubprocessErrorCI2St13runtime_errorEPKc
	adrp	x0, _ZTVN10subprocess14TimeoutExpiredE+16
	add	x1, x0, :lo12:_ZTVN10subprocess14TimeoutExpiredE+16
	ldr	x0, [sp, 24]
	str	x1, [x0]
	ldr	x0, [sp, 24]
	add	x0, x0, 16
	bl	_ZNSt6vectorINSt7__cxx1112basic_stringIcSt11char_traitsIcESaIcEEESaIS5_EEC1Ev
	ldr	x0, [sp, 24]
	add	x0, x0, 48
	bl	_ZNSt7__cxx1112basic_stringIcSt11char_traitsIcESaIcEEC1Ev
	ldr	x0, [sp, 24]
	add	x0, x0, 80
	bl	_ZNSt7__cxx1112basic_stringIcSt11char_traitsIcESaIcEEC1Ev
	nop
	ldp	x29, x30, [sp], 32
	.cfi_restore 30
	.cfi_restore 29
	.cfi_def_cfa_offset 0
	ret
	.cfi_endproc
.LFE3607:
	.size	_ZN10subprocess14TimeoutExpiredCI2St13runtime_errorEPKc, .-_ZN10subprocess14TimeoutExpiredCI2St13runtime_errorEPKc
	.weak	_ZN10subprocess14TimeoutExpiredCI1St13runtime_errorEPKc
	.set	_ZN10subprocess14TimeoutExpiredCI1St13runtime_errorEPKc,_ZN10subprocess14TimeoutExpiredCI2St13runtime_errorEPKc
	.section	.rodata
	.align	3
.LC8:
	.string	"no time"
	.text
	.align	2
	.global	_ZN10subprocess5Popen4waitEd
	.type	_ZN10subprocess5Popen4waitEd, %function
_ZN10subprocess5Popen4waitEd:
.LFB3602:
	.cfi_startproc
	.cfi_personality 0x9b,DW.ref.__gxx_personality_v0
	.cfi_lsda 0x1b,.LLSDA3602
	stp	x29, x30, [sp, -80]!
	.cfi_def_cfa_offset 80
	.cfi_offset 29, -80
	.cfi_offset 30, -72
	mov	x29, sp
	stp	x19, x20, [sp, 16]
	.cfi_offset 19, -64
	.cfi_offset 20, -56
	str	x0, [sp, 40]
	str	d0, [sp, 32]
	adrp	x0, :got:__stack_chk_guard
	ldr	x0, [x0, #:got_lo12:__stack_chk_guard]
	ldr	x1, [x0]
	str	x1, [sp, 72]
	mov	x1, 0
	ldr	x0, [sp, 40]
	ldr	w0, [x0, 16]
	cmn	w0, #1000
	beq	.L346
	ldr	x0, [sp, 40]
	ldr	w0, [x0, 16]
	b	.L360
.L346:
	ldr	d0, [sp, 32]
	fcmpe	d0, #0.0
	bmi	.L353
	b	.L364
.L353:
	ldr	x0, [sp, 40]
	ldr	w0, [x0, 12]
	add	x1, sp, 64
	mov	w2, 0
.LEHB69:
	bl	waitpid
	str	w0, [sp, 60]
	ldr	w0, [sp, 60]
	cmn	w0, #1
	bne	.L366
	bl	__errno_location
	ldr	w0, [x0]
	cmp	w0, 4
	bne	.L366
	nop
	b	.L353
.L366:
	nop
	ldr	w0, [sp, 64]
	and	w0, w0, 127
	cmp	w0, 0
	bne	.L354
	ldr	w0, [sp, 64]
	asr	w0, w0, 8
	and	w1, w0, 255
	ldr	x0, [sp, 40]
	str	w1, [x0, 16]
	b	.L355
.L354:
	ldr	w0, [sp, 64]
	and	w0, w0, 255
	and	w0, w0, 127
	and	w0, w0, 255
	add	w0, w0, 1
	and	w0, w0, 255
	sxtb	w0, w0
	asr	w0, w0, 1
	sxtb	w0, w0
	cmp	w0, 0
	ble	.L356
	ldr	w0, [sp, 64]
	and	w0, w0, 127
	neg	w1, w0
	ldr	x0, [sp, 40]
	str	w1, [x0, 16]
	b	.L355
.L356:
	ldr	x0, [sp, 40]
	mov	w1, 1
	str	w1, [x0, 16]
.L355:
	ldr	x0, [sp, 40]
	ldr	w0, [x0, 16]
	b	.L360
.L364:
	add	x0, sp, 64
	bl	_ZN10subprocess9StopWatchC1Ev
	b	.L357
.L359:
	ldr	x0, [sp, 40]
	bl	_ZN10subprocess5Popen4pollEv
	and	w0, w0, 255
	cmp	w0, 0
	beq	.L358
	ldr	x0, [sp, 40]
	ldr	w0, [x0, 16]
	b	.L360
.L358:
	adrp	x0, .LC9
	ldr	d0, [x0, #:lo12:.LC9]
	bl	_ZN10subprocess13sleep_secondsEd
.L357:
	add	x0, sp, 64
	bl	_ZNK10subprocess9StopWatch7secondsEv
.LEHE69:
	fmov	d1, d0
	ldr	d0, [sp, 32]
	fcmpe	d0, d1
	cset	w0, gt
	and	w0, w0, 255
	cmp	w0, 0
	bne	.L359
	mov	x0, 112
	bl	__cxa_allocate_exception
	mov	x19, x0
	adrp	x0, .LC8
	add	x1, x0, :lo12:.LC8
	mov	x0, x19
.LEHB70:
	bl	_ZN10subprocess14TimeoutExpiredCI1St13runtime_errorEPKc
.LEHE70:
	adrp	x0, _ZN10subprocess14TimeoutExpiredD1Ev
	add	x2, x0, :lo12:_ZN10subprocess14TimeoutExpiredD1Ev
	adrp	x0, _ZTIN10subprocess14TimeoutExpiredE
	add	x1, x0, :lo12:_ZTIN10subprocess14TimeoutExpiredE
	mov	x0, x19
.LEHB71:
	bl	__cxa_throw
.L360:
	mov	w1, w0
	adrp	x0, :got:__stack_chk_guard
	ldr	x0, [x0, #:got_lo12:__stack_chk_guard]
	ldr	x3, [sp, 72]
	ldr	x2, [x0]
	subs	x3, x3, x2
	mov	x2, 0
	beq	.L362
	b	.L365
.L363:
	mov	x20, x0
	mov	x0, x19
	bl	__cxa_free_exception
	mov	x0, x20
	bl	_Unwind_Resume
.LEHE71:
.L365:
	bl	__stack_chk_fail
.L362:
	mov	w0, w1
	ldp	x19, x20, [sp, 16]
	ldp	x29, x30, [sp], 80
	.cfi_restore 30
	.cfi_restore 29
	.cfi_restore 19
	.cfi_restore 20
	.cfi_def_cfa_offset 0
	ret
	.cfi_endproc
.LFE3602:
	.section	.gcc_except_table
.LLSDA3602:
	.byte	0xff
	.byte	0xff
	.byte	0x1
	.uleb128 .LLSDACSE3602-.LLSDACSB3602
.LLSDACSB3602:
	.uleb128 .LEHB69-.LFB3602
	.uleb128 .LEHE69-.LEHB69
	.uleb128 0
	.uleb128 0
	.uleb128 .LEHB70-.LFB3602
	.uleb128 .LEHE70-.LEHB70
	.uleb128 .L363-.LFB3602
	.uleb128 0
	.uleb128 .LEHB71-.LFB3602
	.uleb128 .LEHE71-.LEHB71
	.uleb128 0
	.uleb128 0
.LLSDACSE3602:
	.text
	.size	_ZN10subprocess5Popen4waitEd, .-_ZN10subprocess5Popen4waitEd
	.align	2
	.global	_ZN10subprocess5Popen11send_signalEi
	.type	_ZN10subprocess5Popen11send_signalEi, %function
_ZN10subprocess5Popen11send_signalEi:
.LFB3609:
	.cfi_startproc
	stp	x29, x30, [sp, -32]!
	.cfi_def_cfa_offset 32
	.cfi_offset 29, -32
	.cfi_offset 30, -24
	mov	x29, sp
	str	x0, [sp, 24]
	str	w1, [sp, 20]
	ldr	x0, [sp, 24]
	ldr	w0, [x0, 16]
	cmn	w0, #1000
	beq	.L368
	mov	w0, 0
	b	.L369
.L368:
	ldr	x0, [sp, 24]
	ldr	w0, [x0, 12]
	ldr	w1, [sp, 20]
	bl	kill
	cmp	w0, 0
	cset	w0, eq
	and	w0, w0, 255
.L369:
	ldp	x29, x30, [sp], 32
	.cfi_restore 30
	.cfi_restore 29
	.cfi_def_cfa_offset 0
	ret
	.cfi_endproc
.LFE3609:
	.size	_ZN10subprocess5Popen11send_signalEi, .-_ZN10subprocess5Popen11send_signalEi
	.align	2
	.global	_ZN10subprocess5Popen9terminateEv
	.type	_ZN10subprocess5Popen9terminateEv, %function
_ZN10subprocess5Popen9terminateEv:
.LFB3610:
	.cfi_startproc
	stp	x29, x30, [sp, -32]!
	.cfi_def_cfa_offset 32
	.cfi_offset 29, -32
	.cfi_offset 30, -24
	mov	x29, sp
	str	x0, [sp, 24]
	mov	w1, 15
	ldr	x0, [sp, 24]
	bl	_ZN10subprocess5Popen11send_signalEi
	and	w0, w0, 255
	ldp	x29, x30, [sp], 32
	.cfi_restore 30
	.cfi_restore 29
	.cfi_def_cfa_offset 0
	ret
	.cfi_endproc
.LFE3610:
	.size	_ZN10subprocess5Popen9terminateEv, .-_ZN10subprocess5Popen9terminateEv
	.align	2
	.global	_ZN10subprocess5Popen4killEv
	.type	_ZN10subprocess5Popen4killEv, %function
_ZN10subprocess5Popen4killEv:
.LFB3611:
	.cfi_startproc
	stp	x29, x30, [sp, -32]!
	.cfi_def_cfa_offset 32
	.cfi_offset 29, -32
	.cfi_offset 30, -24
	mov	x29, sp
	str	x0, [sp, 24]
	mov	w1, 9
	ldr	x0, [sp, 24]
	bl	_ZN10subprocess5Popen11send_signalEi
	and	w0, w0, 255
	ldp	x29, x30, [sp], 32
	.cfi_restore 30
	.cfi_restore 29
	.cfi_def_cfa_offset 0
	ret
	.cfi_endproc
.LFE3611:
	.size	_ZN10subprocess5Popen4killEv, .-_ZN10subprocess5Popen4killEv
	.align	2
	.global	_ZN10subprocess14ProcessBuilder15windows_commandB5cxx11Ev
	.type	_ZN10subprocess14ProcessBuilder15windows_commandB5cxx11Ev, %function
_ZN10subprocess14ProcessBuilder15windows_commandB5cxx11Ev:
.LFB3612:
	.cfi_startproc
	stp	x29, x30, [sp, -48]!
	.cfi_def_cfa_offset 48
	.cfi_offset 29, -48
	.cfi_offset 30, -40
	mov	x29, sp
	str	x19, [sp, 16]
	.cfi_offset 19, -32
	mov	x19, x8
	str	x0, [sp, 40]
	ldr	x0, [sp, 40]
	add	x0, x0, 136
	mov	x1, 0
	bl	_ZNSt6vectorINSt7__cxx1112basic_stringIcSt11char_traitsIcESaIcEEESaIS5_EEixEm
	mov	x1, x0
	mov	x0, x19
	bl	_ZNSt7__cxx1112basic_stringIcSt11char_traitsIcESaIcEEC1ERKS4_
	mov	x0, x19
	ldr	x19, [sp, 16]
	ldp	x29, x30, [sp], 48
	.cfi_restore 30
	.cfi_restore 29
	.cfi_restore 19
	.cfi_def_cfa_offset 0
	ret
	.cfi_endproc
.LFE3612:
	.size	_ZN10subprocess14ProcessBuilder15windows_commandB5cxx11Ev, .-_ZN10subprocess14ProcessBuilder15windows_commandB5cxx11Ev
	.align	2
	.global	_ZN10subprocess14ProcessBuilder12windows_argsB5cxx11Ev
	.type	_ZN10subprocess14ProcessBuilder12windows_argsB5cxx11Ev, %function
_ZN10subprocess14ProcessBuilder12windows_argsB5cxx11Ev:
.LFB3613:
	.cfi_startproc
	stp	x29, x30, [sp, -64]!
	.cfi_def_cfa_offset 64
	.cfi_offset 29, -64
	.cfi_offset 30, -56
	mov	x29, sp
	str	x19, [sp, 16]
	.cfi_offset 19, -48
	mov	x19, x8
	str	x0, [sp, 40]
	adrp	x0, :got:__stack_chk_guard
	ldr	x0, [x0, #:got_lo12:__stack_chk_guard]
	ldr	x1, [x0]
	str	x1, [sp, 56]
	mov	x1, 0
	ldr	x0, [sp, 40]
	add	x0, x0, 136
	mov	x8, x19
	mov	x1, x0
	ldr	x0, [sp, 40]
	bl	_ZN10subprocess14ProcessBuilder12windows_argsERKSt6vectorINSt7__cxx1112basic_stringIcSt11char_traitsIcESaIcEEESaIS7_EE
	adrp	x0, :got:__stack_chk_guard
	ldr	x0, [x0, #:got_lo12:__stack_chk_guard]
	ldr	x2, [sp, 56]
	ldr	x1, [x0]
	subs	x2, x2, x1
	mov	x1, 0
	beq	.L378
	bl	__stack_chk_fail
.L378:
	mov	x0, x19
	ldr	x19, [sp, 16]
	ldp	x29, x30, [sp], 64
	.cfi_restore 30
	.cfi_restore 29
	.cfi_restore 19
	.cfi_def_cfa_offset 0
	ret
	.cfi_endproc
.LFE3613:
	.size	_ZN10subprocess14ProcessBuilder12windows_argsB5cxx11Ev, .-_ZN10subprocess14ProcessBuilder12windows_argsB5cxx11Ev
	.align	2
	.global	_ZN10subprocess14ProcessBuilder12windows_argsERKSt6vectorINSt7__cxx1112basic_stringIcSt11char_traitsIcESaIcEEESaIS7_EE
	.type	_ZN10subprocess14ProcessBuilder12windows_argsERKSt6vectorINSt7__cxx1112basic_stringIcSt11char_traitsIcESaIcEEESaIS7_EE, %function
_ZN10subprocess14ProcessBuilder12windows_argsERKSt6vectorINSt7__cxx1112basic_stringIcSt11char_traitsIcESaIcEEESaIS7_EE:
.LFB3614:
	.cfi_startproc
	.cfi_personality 0x9b,DW.ref.__gxx_personality_v0
	.cfi_lsda 0x1b,.LLSDA3614
	stp	x29, x30, [sp, -128]!
	.cfi_def_cfa_offset 128
	.cfi_offset 29, -128
	.cfi_offset 30, -120
	mov	x29, sp
	stp	x19, x20, [sp, 16]
	.cfi_offset 19, -112
	.cfi_offset 20, -104
	mov	x19, x8
	str	x0, [sp, 40]
	str	x1, [sp, 32]
	adrp	x0, :got:__stack_chk_guard
	ldr	x0, [x0, #:got_lo12:__stack_chk_guard]
	ldr	x1, [x0]
	str	x1, [sp, 120]
	mov	x1, 0
	mov	x0, x19
	bl	_ZNSt7__cxx1112basic_stringIcSt11char_traitsIcESaIcEEC1Ev
	str	wzr, [sp, 52]
	b	.L380
.L382:
	ldr	w0, [sp, 52]
	cmp	w0, 0
	beq	.L381
	mov	w1, 32
	mov	x0, x19
.LEHB72:
	bl	_ZNSt7__cxx1112basic_stringIcSt11char_traitsIcESaIcEEpLEc
.L381:
	ldr	w0, [sp, 52]
	mov	x1, x0
	ldr	x0, [sp, 32]
	bl	_ZNKSt6vectorINSt7__cxx1112basic_stringIcSt11char_traitsIcESaIcEEESaIS5_EEixEm
	mov	x1, x0
	add	x0, sp, 56
	bl	_ZNSt7__cxx1112basic_stringIcSt11char_traitsIcESaIcEEC1ERKS4_
.LEHE72:
	add	x0, sp, 56
	add	x1, sp, 88
	mov	x8, x1
.LEHB73:
	bl	_ZN10subprocess16escape_shell_argENSt7__cxx1112basic_stringIcSt11char_traitsIcESaIcEEE
.LEHE73:
	add	x0, sp, 88
	mov	x1, x0
	mov	x0, x19
.LEHB74:
	bl	_ZNSt7__cxx1112basic_stringIcSt11char_traitsIcESaIcEEpLERKS4_
.LEHE74:
	add	x0, sp, 88
	bl	_ZNSt7__cxx1112basic_stringIcSt11char_traitsIcESaIcEED1Ev
	add	x0, sp, 56
	bl	_ZNSt7__cxx1112basic_stringIcSt11char_traitsIcESaIcEED1Ev
	ldr	w0, [sp, 52]
	add	w0, w0, 1
	str	w0, [sp, 52]
.L380:
	ldr	w20, [sp, 52]
	ldr	x0, [sp, 32]
	bl	_ZNKSt6vectorINSt7__cxx1112basic_stringIcSt11char_traitsIcESaIcEEESaIS5_EE4sizeEv
	cmp	x20, x0
	cset	w0, cc
	and	w0, w0, 255
	cmp	w0, 0
	bne	.L382
	b	.L391
.L390:
	mov	x20, x0
	add	x0, sp, 88
	bl	_ZNSt7__cxx1112basic_stringIcSt11char_traitsIcESaIcEED1Ev
	b	.L385
.L389:
	mov	x20, x0
.L385:
	add	x0, sp, 56
	bl	_ZNSt7__cxx1112basic_stringIcSt11char_traitsIcESaIcEED1Ev
	b	.L386
.L388:
	mov	x20, x0
.L386:
	mov	x0, x19
	bl	_ZNSt7__cxx1112basic_stringIcSt11char_traitsIcESaIcEED1Ev
	mov	x0, x20
.LEHB75:
	bl	_Unwind_Resume
.LEHE75:
.L391:
	adrp	x0, :got:__stack_chk_guard
	ldr	x0, [x0, #:got_lo12:__stack_chk_guard]
	ldr	x2, [sp, 120]
	ldr	x1, [x0]
	subs	x2, x2, x1
	mov	x1, 0
	beq	.L387
	bl	__stack_chk_fail
.L387:
	mov	x0, x19
	ldp	x19, x20, [sp, 16]
	ldp	x29, x30, [sp], 128
	.cfi_restore 30
	.cfi_restore 29
	.cfi_restore 19
	.cfi_restore 20
	.cfi_def_cfa_offset 0
	ret
	.cfi_endproc
.LFE3614:
	.section	.gcc_except_table
.LLSDA3614:
	.byte	0xff
	.byte	0xff
	.byte	0x1
	.uleb128 .LLSDACSE3614-.LLSDACSB3614
.LLSDACSB3614:
	.uleb128 .LEHB72-.LFB3614
	.uleb128 .LEHE72-.LEHB72
	.uleb128 .L388-.LFB3614
	.uleb128 0
	.uleb128 .LEHB73-.LFB3614
	.uleb128 .LEHE73-.LEHB73
	.uleb128 .L389-.LFB3614
	.uleb128 0
	.uleb128 .LEHB74-.LFB3614
	.uleb128 .LEHE74-.LEHB74
	.uleb128 .L390-.LFB3614
	.uleb128 0
	.uleb128 .LEHB75-.LFB3614
	.uleb128 .LEHE75-.LEHB75
	.uleb128 0
	.uleb128 0
.LLSDACSE3614:
	.text
	.size	_ZN10subprocess14ProcessBuilder12windows_argsERKSt6vectorINSt7__cxx1112basic_stringIcSt11char_traitsIcESaIcEEESaIS7_EE, .-_ZN10subprocess14ProcessBuilder12windows_argsERKSt6vectorINSt7__cxx1112basic_stringIcSt11char_traitsIcESaIcEEESaIS7_EE
	.section	.text._ZN10subprocess16CompletedProcessC2Ev,"axG",@progbits,_ZN10subprocess16CompletedProcessC5Ev,comdat
	.align	2
	.weak	_ZN10subprocess16CompletedProcessC2Ev
	.type	_ZN10subprocess16CompletedProcessC2Ev, %function
_ZN10subprocess16CompletedProcessC2Ev:
.LFB3617:
	.cfi_startproc
	stp	x29, x30, [sp, -32]!
	.cfi_def_cfa_offset 32
	.cfi_offset 29, -32
	.cfi_offset 30, -24
	mov	x29, sp
	str	x0, [sp, 24]
	ldr	x0, [sp, 24]
	bl	_ZNSt6vectorINSt7__cxx1112basic_stringIcSt11char_traitsIcESaIcEEESaIS5_EEC1Ev
	ldr	x0, [sp, 24]
	mov	w1, -1
	str	w1, [x0, 24]
	ldr	x0, [sp, 24]
	add	x0, x0, 32
	bl	_ZNSt7__cxx1112basic_stringIcSt11char_traitsIcESaIcEEC1Ev
	ldr	x0, [sp, 24]
	add	x0, x0, 64
	bl	_ZNSt7__cxx1112basic_stringIcSt11char_traitsIcESaIcEEC1Ev
	nop
	ldp	x29, x30, [sp], 32
	.cfi_restore 30
	.cfi_restore 29
	.cfi_def_cfa_offset 0
	ret
	.cfi_endproc
.LFE3617:
	.size	_ZN10subprocess16CompletedProcessC2Ev, .-_ZN10subprocess16CompletedProcessC2Ev
	.weak	_ZN10subprocess16CompletedProcessC1Ev
	.set	_ZN10subprocess16CompletedProcessC1Ev,_ZN10subprocess16CompletedProcessC2Ev
	.section	.text._ZNSt6threadC2Ev,"axG",@progbits,_ZNSt6threadC5Ev,comdat
	.align	2
	.weak	_ZNSt6threadC2Ev
	.type	_ZNSt6threadC2Ev, %function
_ZNSt6threadC2Ev:
.LFB3620:
	.cfi_startproc
	stp	x29, x30, [sp, -32]!
	.cfi_def_cfa_offset 32
	.cfi_offset 29, -32
	.cfi_offset 30, -24
	mov	x29, sp
	str	x0, [sp, 24]
	ldr	x0, [sp, 24]
	bl	_ZNSt6thread2idC1Ev
	nop
	ldp	x29, x30, [sp], 32
	.cfi_restore 30
	.cfi_restore 29
	.cfi_def_cfa_offset 0
	ret
	.cfi_endproc
.LFE3620:
	.size	_ZNSt6threadC2Ev, .-_ZNSt6threadC2Ev
	.weak	_ZNSt6threadC1Ev
	.set	_ZNSt6threadC1Ev,_ZNSt6threadC2Ev
	.text
	.align	2
	.type	_ZZN10subprocess3runERNS_5PopenEbENKUlvE_clEv, %function
_ZZN10subprocess3runERNS_5PopenEbENKUlvE_clEv:
.LFB3622:
	.cfi_startproc
	.cfi_personality 0x9b,DW.ref.__gxx_personality_v0
	.cfi_lsda 0x1b,.LLSDA3622
	stp	x29, x30, [sp, -80]!
	.cfi_def_cfa_offset 80
	.cfi_offset 29, -80
	.cfi_offset 30, -72
	mov	x29, sp
	str	x0, [sp, 24]
	adrp	x0, :got:__stack_chk_guard
	ldr	x0, [x0, #:got_lo12:__stack_chk_guard]
	ldr	x1, [x0]
	str	x1, [sp, 72]
	mov	x1, 0
	ldr	x0, [sp, 24]
	ldr	x0, [x0, 8]
	ldr	w0, [x0, 4]
	add	x1, sp, 40
	mov	x8, x1
.LEHB76:
	bl	_ZN10subprocess13pipe_read_allB5cxx11Ei
.LEHE76:
	ldr	x0, [sp, 24]
	ldr	x0, [x0]
	add	x0, x0, 32
	add	x1, sp, 40
	bl	_ZNSt7__cxx1112basic_stringIcSt11char_traitsIcESaIcEEaSEOS4_
	add	x0, sp, 40
	bl	_ZNSt7__cxx1112basic_stringIcSt11char_traitsIcESaIcEED1Ev
.L396:
	ldr	x0, [sp, 24]
	ldr	x0, [x0, 8]
	ldr	w0, [x0, 4]
.LEHB77:
	bl	_ZN10subprocess10pipe_closeEi
	ldr	x0, [sp, 24]
	ldr	x0, [x0, 8]
	mov	w1, -1
	str	w1, [x0, 4]
	nop
	adrp	x0, :got:__stack_chk_guard
	ldr	x0, [x0, #:got_lo12:__stack_chk_guard]
	ldr	x2, [sp, 72]
	ldr	x1, [x0]
	subs	x2, x2, x1
	mov	x1, 0
	beq	.L397
	b	.L399
.L398:
	bl	__cxa_begin_catch
	bl	__cxa_end_catch
.LEHE77:
	b	.L396
.L399:
	bl	__stack_chk_fail
.L397:
	ldp	x29, x30, [sp], 80
	.cfi_restore 30
	.cfi_restore 29
	.cfi_def_cfa_offset 0
	ret
	.cfi_endproc
.LFE3622:
	.section	.gcc_except_table
	.align	2
.LLSDA3622:
	.byte	0xff
	.byte	0x9b
	.uleb128 .LLSDATT3622-.LLSDATTD3622
.LLSDATTD3622:
	.byte	0x1
	.uleb128 .LLSDACSE3622-.LLSDACSB3622
.LLSDACSB3622:
	.uleb128 .LEHB76-.LFB3622
	.uleb128 .LEHE76-.LEHB76
	.uleb128 .L398-.LFB3622
	.uleb128 0x1
	.uleb128 .LEHB77-.LFB3622
	.uleb128 .LEHE77-.LEHB77
	.uleb128 0
	.uleb128 0
.LLSDACSE3622:
	.byte	0x1
	.byte	0
	.align	2
	.4byte	0

.LLSDATT3622:
	.text
	.size	_ZZN10subprocess3runERNS_5PopenEbENKUlvE_clEv, .-_ZZN10subprocess3runERNS_5PopenEbENKUlvE_clEv
	.align	2
	.type	_ZZN10subprocess3runERNS_5PopenEbENKUlvE0_clEv, %function
_ZZN10subprocess3runERNS_5PopenEbENKUlvE0_clEv:
.LFB3623:
	.cfi_startproc
	.cfi_personality 0x9b,DW.ref.__gxx_personality_v0
	.cfi_lsda 0x1b,.LLSDA3623
	stp	x29, x30, [sp, -80]!
	.cfi_def_cfa_offset 80
	.cfi_offset 29, -80
	.cfi_offset 30, -72
	mov	x29, sp
	str	x0, [sp, 24]
	adrp	x0, :got:__stack_chk_guard
	ldr	x0, [x0, #:got_lo12:__stack_chk_guard]
	ldr	x1, [x0]
	str	x1, [sp, 72]
	mov	x1, 0
	ldr	x0, [sp, 24]
	ldr	x0, [x0, 8]
	ldr	w0, [x0, 8]
	add	x1, sp, 40
	mov	x8, x1
.LEHB78:
	bl	_ZN10subprocess13pipe_read_allB5cxx11Ei
.LEHE78:
	ldr	x0, [sp, 24]
	ldr	x0, [x0]
	add	x0, x0, 64
	add	x1, sp, 40
	bl	_ZNSt7__cxx1112basic_stringIcSt11char_traitsIcESaIcEEaSEOS4_
	add	x0, sp, 40
	bl	_ZNSt7__cxx1112basic_stringIcSt11char_traitsIcESaIcEED1Ev
.L402:
	ldr	x0, [sp, 24]
	ldr	x0, [x0, 8]
	ldr	w0, [x0, 8]
.LEHB79:
	bl	_ZN10subprocess10pipe_closeEi
	ldr	x0, [sp, 24]
	ldr	x0, [x0, 8]
	mov	w1, -1
	str	w1, [x0, 8]
	nop
	adrp	x0, :got:__stack_chk_guard
	ldr	x0, [x0, #:got_lo12:__stack_chk_guard]
	ldr	x2, [sp, 72]
	ldr	x1, [x0]
	subs	x2, x2, x1
	mov	x1, 0
	beq	.L403
	b	.L405
.L404:
	bl	__cxa_begin_catch
	bl	__cxa_end_catch
.LEHE79:
	b	.L402
.L405:
	bl	__stack_chk_fail
.L403:
	ldp	x29, x30, [sp], 80
	.cfi_restore 30
	.cfi_restore 29
	.cfi_def_cfa_offset 0
	ret
	.cfi_endproc
.LFE3623:
	.section	.gcc_except_table
	.align	2
.LLSDA3623:
	.byte	0xff
	.byte	0x9b
	.uleb128 .LLSDATT3623-.LLSDATTD3623
.LLSDATTD3623:
	.byte	0x1
	.uleb128 .LLSDACSE3623-.LLSDACSB3623
.LLSDACSB3623:
	.uleb128 .LEHB78-.LFB3623
	.uleb128 .LEHE78-.LEHB78
	.uleb128 .L404-.LFB3623
	.uleb128 0x1
	.uleb128 .LEHB79-.LFB3623
	.uleb128 .LEHE79-.LEHB79
	.uleb128 0
	.uleb128 0
.LLSDACSE3623:
	.byte	0x1
	.byte	0
	.align	2
	.4byte	0

.LLSDATT3623:
	.text
	.size	_ZZN10subprocess3runERNS_5PopenEbENKUlvE0_clEv, .-_ZZN10subprocess3runERNS_5PopenEbENKUlvE0_clEv
	.section	.text._ZN10subprocess18CalledProcessErrorCI2St13runtime_errorERKNSt7__cxx1112basic_stringIcSt11char_traitsIcESaIcEEE,"axG",@progbits,_ZN10subprocess18CalledProcessErrorCI5St13runtime_errorERKNSt7__cxx1112basic_stringIcSt11char_traitsIcESaIcEEE,comdat
	.align	2
	.weak	_ZN10subprocess18CalledProcessErrorCI2St13runtime_errorERKNSt7__cxx1112basic_stringIcSt11char_traitsIcESaIcEEE
	.type	_ZN10subprocess18CalledProcessErrorCI2St13runtime_errorERKNSt7__cxx1112basic_stringIcSt11char_traitsIcESaIcEEE, %function
_ZN10subprocess18CalledProcessErrorCI2St13runtime_errorERKNSt7__cxx1112basic_stringIcSt11char_traitsIcESaIcEEE:
.LFB3625:
	.cfi_startproc
	stp	x29, x30, [sp, -32]!
	.cfi_def_cfa_offset 32
	.cfi_offset 29, -32
	.cfi_offset 30, -24
	mov	x29, sp
	str	x0, [sp, 24]
	str	x1, [sp, 16]
	ldr	x0, [sp, 24]
	ldr	x1, [sp, 16]
	bl	_ZN10subprocess15SubprocessErrorCI2St13runtime_errorERKNSt7__cxx1112basic_stringIcSt11char_traitsIcESaIcEEE
	adrp	x0, _ZTVN10subprocess18CalledProcessErrorE+16
	add	x1, x0, :lo12:_ZTVN10subprocess18CalledProcessErrorE+16
	ldr	x0, [sp, 24]
	str	x1, [x0]
	ldr	x0, [sp, 24]
	add	x0, x0, 24
	bl	_ZNSt6vectorINSt7__cxx1112basic_stringIcSt11char_traitsIcESaIcEEESaIS5_EEC1Ev
	ldr	x0, [sp, 24]
	add	x0, x0, 48
	bl	_ZNSt7__cxx1112basic_stringIcSt11char_traitsIcESaIcEEC1Ev
	ldr	x0, [sp, 24]
	add	x0, x0, 80
	bl	_ZNSt7__cxx1112basic_stringIcSt11char_traitsIcESaIcEEC1Ev
	nop
	ldp	x29, x30, [sp], 32
	.cfi_restore 30
	.cfi_restore 29
	.cfi_def_cfa_offset 0
	ret
	.cfi_endproc
.LFE3625:
	.size	_ZN10subprocess18CalledProcessErrorCI2St13runtime_errorERKNSt7__cxx1112basic_stringIcSt11char_traitsIcESaIcEEE, .-_ZN10subprocess18CalledProcessErrorCI2St13runtime_errorERKNSt7__cxx1112basic_stringIcSt11char_traitsIcESaIcEEE
	.weak	_ZN10subprocess18CalledProcessErrorCI1St13runtime_errorERKNSt7__cxx1112basic_stringIcSt11char_traitsIcESaIcEEE
	.set	_ZN10subprocess18CalledProcessErrorCI1St13runtime_errorERKNSt7__cxx1112basic_stringIcSt11char_traitsIcESaIcEEE,_ZN10subprocess18CalledProcessErrorCI2St13runtime_errorERKNSt7__cxx1112basic_stringIcSt11char_traitsIcESaIcEEE
	.section	.text._ZN10subprocess15SubprocessErrorC2EOS0_,"axG",@progbits,_ZN10subprocess15SubprocessErrorC5EOS0_,comdat
	.align	2
	.weak	_ZN10subprocess15SubprocessErrorC2EOS0_
	.type	_ZN10subprocess15SubprocessErrorC2EOS0_, %function
_ZN10subprocess15SubprocessErrorC2EOS0_:
.LFB3629:
	.cfi_startproc
	stp	x29, x30, [sp, -32]!
	.cfi_def_cfa_offset 32
	.cfi_offset 29, -32
	.cfi_offset 30, -24
	mov	x29, sp
	str	x0, [sp, 24]
	str	x1, [sp, 16]
	ldr	x0, [sp, 24]
	ldr	x1, [sp, 16]
	bl	_ZNSt13runtime_errorC2EOS_
	adrp	x0, _ZTVN10subprocess15SubprocessErrorE+16
	add	x1, x0, :lo12:_ZTVN10subprocess15SubprocessErrorE+16
	ldr	x0, [sp, 24]
	str	x1, [x0]
	nop
	ldp	x29, x30, [sp], 32
	.cfi_restore 30
	.cfi_restore 29
	.cfi_def_cfa_offset 0
	ret
	.cfi_endproc
.LFE3629:
	.size	_ZN10subprocess15SubprocessErrorC2EOS0_, .-_ZN10subprocess15SubprocessErrorC2EOS0_
	.weak	_ZN10subprocess15SubprocessErrorC1EOS0_
	.set	_ZN10subprocess15SubprocessErrorC1EOS0_,_ZN10subprocess15SubprocessErrorC2EOS0_
	.section	.text._ZNSt12_Vector_baseINSt7__cxx1112basic_stringIcSt11char_traitsIcESaIcEEESaIS5_EEC2EOS7_,"axG",@progbits,_ZNSt12_Vector_baseINSt7__cxx1112basic_stringIcSt11char_traitsIcESaIcEEESaIS5_EEC5EOS7_,comdat
	.align	2
	.weak	_ZNSt12_Vector_baseINSt7__cxx1112basic_stringIcSt11char_traitsIcESaIcEEESaIS5_EEC2EOS7_
	.type	_ZNSt12_Vector_baseINSt7__cxx1112basic_stringIcSt11char_traitsIcESaIcEEESaIS5_EEC2EOS7_, %function
_ZNSt12_Vector_baseINSt7__cxx1112basic_stringIcSt11char_traitsIcESaIcEEESaIS5_EEC2EOS7_:
.LFB3633:
	.cfi_startproc
	stp	x29, x30, [sp, -32]!
	.cfi_def_cfa_offset 32
	.cfi_offset 29, -32
	.cfi_offset 30, -24
	mov	x29, sp
	str	x0, [sp, 24]
	str	x1, [sp, 16]
	ldr	x0, [sp, 24]
	ldr	x1, [sp, 16]
	bl	_ZNSt12_Vector_baseINSt7__cxx1112basic_stringIcSt11char_traitsIcESaIcEEESaIS5_EE12_Vector_implC1EOS8_
	nop
	ldp	x29, x30, [sp], 32
	.cfi_restore 30
	.cfi_restore 29
	.cfi_def_cfa_offset 0
	ret
	.cfi_endproc
.LFE3633:
	.size	_ZNSt12_Vector_baseINSt7__cxx1112basic_stringIcSt11char_traitsIcESaIcEEESaIS5_EEC2EOS7_, .-_ZNSt12_Vector_baseINSt7__cxx1112basic_stringIcSt11char_traitsIcESaIcEEESaIS5_EEC2EOS7_
	.weak	_ZNSt12_Vector_baseINSt7__cxx1112basic_stringIcSt11char_traitsIcESaIcEEESaIS5_EEC1EOS7_
	.set	_ZNSt12_Vector_baseINSt7__cxx1112basic_stringIcSt11char_traitsIcESaIcEEESaIS5_EEC1EOS7_,_ZNSt12_Vector_baseINSt7__cxx1112basic_stringIcSt11char_traitsIcESaIcEEESaIS5_EEC2EOS7_
	.section	.text._ZNSt6vectorINSt7__cxx1112basic_stringIcSt11char_traitsIcESaIcEEESaIS5_EEC2EOS7_,"axG",@progbits,_ZNSt6vectorINSt7__cxx1112basic_stringIcSt11char_traitsIcESaIcEEESaIS5_EEC5EOS7_,comdat
	.align	2
	.weak	_ZNSt6vectorINSt7__cxx1112basic_stringIcSt11char_traitsIcESaIcEEESaIS5_EEC2EOS7_
	.type	_ZNSt6vectorINSt7__cxx1112basic_stringIcSt11char_traitsIcESaIcEEESaIS5_EEC2EOS7_, %function
_ZNSt6vectorINSt7__cxx1112basic_stringIcSt11char_traitsIcESaIcEEESaIS5_EEC2EOS7_:
.LFB3635:
	.cfi_startproc
	stp	x29, x30, [sp, -32]!
	.cfi_def_cfa_offset 32
	.cfi_offset 29, -32
	.cfi_offset 30, -24
	mov	x29, sp
	str	x0, [sp, 24]
	str	x1, [sp, 16]
	ldr	x0, [sp, 24]
	ldr	x1, [sp, 16]
	bl	_ZNSt12_Vector_baseINSt7__cxx1112basic_stringIcSt11char_traitsIcESaIcEEESaIS5_EEC2EOS7_
	nop
	ldp	x29, x30, [sp], 32
	.cfi_restore 30
	.cfi_restore 29
	.cfi_def_cfa_offset 0
	ret
	.cfi_endproc
.LFE3635:
	.size	_ZNSt6vectorINSt7__cxx1112basic_stringIcSt11char_traitsIcESaIcEEESaIS5_EEC2EOS7_, .-_ZNSt6vectorINSt7__cxx1112basic_stringIcSt11char_traitsIcESaIcEEESaIS5_EEC2EOS7_
	.weak	_ZNSt6vectorINSt7__cxx1112basic_stringIcSt11char_traitsIcESaIcEEESaIS5_EEC1EOS7_
	.set	_ZNSt6vectorINSt7__cxx1112basic_stringIcSt11char_traitsIcESaIcEEESaIS5_EEC1EOS7_,_ZNSt6vectorINSt7__cxx1112basic_stringIcSt11char_traitsIcESaIcEEESaIS5_EEC2EOS7_
	.section	.text._ZN10subprocess18CalledProcessErrorC2EOS0_,"axG",@progbits,_ZN10subprocess18CalledProcessErrorC5EOS0_,comdat
	.align	2
	.weak	_ZN10subprocess18CalledProcessErrorC2EOS0_
	.type	_ZN10subprocess18CalledProcessErrorC2EOS0_, %function
_ZN10subprocess18CalledProcessErrorC2EOS0_:
.LFB3637:
	.cfi_startproc
	stp	x29, x30, [sp, -32]!
	.cfi_def_cfa_offset 32
	.cfi_offset 29, -32
	.cfi_offset 30, -24
	mov	x29, sp
	str	x0, [sp, 24]
	str	x1, [sp, 16]
	ldr	x0, [sp, 24]
	ldr	x1, [sp, 16]
	bl	_ZN10subprocess15SubprocessErrorC2EOS0_
	adrp	x0, _ZTVN10subprocess18CalledProcessErrorE+16
	add	x1, x0, :lo12:_ZTVN10subprocess18CalledProcessErrorE+16
	ldr	x0, [sp, 24]
	str	x1, [x0]
	ldr	x0, [sp, 16]
	ldr	w1, [x0, 16]
	ldr	x0, [sp, 24]
	str	w1, [x0, 16]
	ldr	x0, [sp, 24]
	add	x2, x0, 24
	ldr	x0, [sp, 16]
	add	x0, x0, 24
	mov	x1, x0
	mov	x0, x2
	bl	_ZNSt6vectorINSt7__cxx1112basic_stringIcSt11char_traitsIcESaIcEEESaIS5_EEC1EOS7_
	ldr	x0, [sp, 24]
	add	x2, x0, 48
	ldr	x0, [sp, 16]
	add	x0, x0, 48
	mov	x1, x0
	mov	x0, x2
	bl	_ZNSt7__cxx1112basic_stringIcSt11char_traitsIcESaIcEEC1EOS4_
	ldr	x0, [sp, 24]
	add	x2, x0, 80
	ldr	x0, [sp, 16]
	add	x0, x0, 80
	mov	x1, x0
	mov	x0, x2
	bl	_ZNSt7__cxx1112basic_stringIcSt11char_traitsIcESaIcEEC1EOS4_
	nop
	ldp	x29, x30, [sp], 32
	.cfi_restore 30
	.cfi_restore 29
	.cfi_def_cfa_offset 0
	ret
	.cfi_endproc
.LFE3637:
	.size	_ZN10subprocess18CalledProcessErrorC2EOS0_, .-_ZN10subprocess18CalledProcessErrorC2EOS0_
	.weak	_ZN10subprocess18CalledProcessErrorC1EOS0_
	.set	_ZN10subprocess18CalledProcessErrorC1EOS0_,_ZN10subprocess18CalledProcessErrorC2EOS0_
	.section	.rodata
	.align	3
.LC10:
	.string	"failed to execute "
	.text
	.align	2
	.global	_ZN10subprocess3runERNS_5PopenEb
	.type	_ZN10subprocess3runERNS_5PopenEb, %function
_ZN10subprocess3runERNS_5PopenEb:
.LFB3615:
	.cfi_startproc
	.cfi_personality 0x9b,DW.ref.__gxx_personality_v0
	.cfi_lsda 0x1b,.LLSDA3615
	stp	x29, x30, [sp, -272]!
	.cfi_def_cfa_offset 272
	.cfi_offset 29, -272
	.cfi_offset 30, -264
	mov	x29, sp
	stp	x19, x20, [sp, 16]
	str	x21, [sp, 32]
	.cfi_offset 19, -256
	.cfi_offset 20, -248
	.cfi_offset 21, -240
	mov	x19, x8
	str	x0, [sp, 56]
	strb	w1, [sp, 55]
	adrp	x0, :got:__stack_chk_guard
	ldr	x0, [x0, #:got_lo12:__stack_chk_guard]
	ldr	x1, [x0]
	str	x1, [sp, 264]
	mov	x1, 0
	mov	x0, x19
	bl	_ZN10subprocess16CompletedProcessC1Ev
	add	x0, sp, 64
	bl	_ZNSt6threadC1Ev
	add	x0, sp, 72
	bl	_ZNSt6threadC1Ev
	ldr	x0, [sp, 56]
	ldr	w0, [x0, 4]
	cmn	w0, #1
	beq	.L412
	str	x19, [sp, 96]
	ldr	x0, [sp, 56]
	str	x0, [sp, 104]
	add	x1, sp, 96
	add	x0, sp, 80
.LEHB80:
	bl	_ZNSt6threadC1IZN10subprocess3runERNS1_5PopenEbEUlvE_JEvEEOT_DpOT0_
	add	x1, sp, 80
	add	x0, sp, 64
	bl	_ZNSt6threadaSEOS_
	add	x0, sp, 80
	bl	_ZNSt6threadD1Ev
.L412:
	ldr	x0, [sp, 56]
	ldr	w0, [x0, 8]
	cmn	w0, #1
	beq	.L413
	str	x19, [sp, 96]
	ldr	x0, [sp, 56]
	str	x0, [sp, 104]
	add	x1, sp, 96
	add	x0, sp, 88
	bl	_ZNSt6threadC1IZN10subprocess3runERNS1_5PopenEbEUlvE0_JEvEEOT_DpOT0_
	add	x1, sp, 88
	add	x0, sp, 72
	bl	_ZNSt6threadaSEOS_
	add	x0, sp, 88
	bl	_ZNSt6threadD1Ev
.L413:
	add	x0, sp, 64
	bl	_ZNKSt6thread8joinableEv
	and	w0, w0, 255
	cmp	w0, 0
	beq	.L414
	add	x0, sp, 64
	bl	_ZNSt6thread4joinEv
.L414:
	add	x0, sp, 72
	bl	_ZNKSt6thread8joinableEv
	and	w0, w0, 255
	cmp	w0, 0
	beq	.L415
	add	x0, sp, 72
	bl	_ZNSt6thread4joinEv
.L415:
	fmov	d0, -1.0e+0
	ldr	x0, [sp, 56]
	bl	_ZN10subprocess5Popen4waitEd
.LEHE80:
	ldr	x0, [sp, 56]
	ldr	w0, [x0, 16]
	str	w0, [x19, 24]
	ldr	x0, [sp, 56]
	add	x0, x0, 24
	bl	_ZNSt6vectorINSt7__cxx1112basic_stringIcSt11char_traitsIcESaIcEEESaIS5_EE5beginEv
	str	x0, [sp, 88]
	add	x0, sp, 88
	mov	x1, 1
	bl	_ZNK9__gnu_cxx17__normal_iteratorIPNSt7__cxx1112basic_stringIcSt11char_traitsIcESaIcEEESt6vectorIS6_SaIS6_EEEplEl
	mov	x20, x0
	ldr	x0, [sp, 56]
	add	x0, x0, 24
	bl	_ZNSt6vectorINSt7__cxx1112basic_stringIcSt11char_traitsIcESaIcEEESaIS5_EE3endEv
	mov	x21, x0
	add	x0, sp, 80
	bl	_ZNSaINSt7__cxx1112basic_stringIcSt11char_traitsIcESaIcEEEEC1Ev
	add	x1, sp, 80
	add	x0, sp, 96
	mov	x3, x1
	mov	x2, x21
	mov	x1, x20
.LEHB81:
	bl	_ZNSt6vectorINSt7__cxx1112basic_stringIcSt11char_traitsIcESaIcEEESaIS5_EEC1IN9__gnu_cxx17__normal_iteratorIPS5_S7_EEvEET_SD_RKS6_
.LEHE81:
	mov	x2, x19
	add	x0, sp, 96
	mov	x1, x0
	mov	x0, x2
	bl	_ZNSt6vectorINSt7__cxx1112basic_stringIcSt11char_traitsIcESaIcEEESaIS5_EEaSEOS7_
	add	x0, sp, 96
	bl	_ZNSt6vectorINSt7__cxx1112basic_stringIcSt11char_traitsIcESaIcEEESaIS5_EED1Ev
	add	x0, sp, 80
	bl	_ZNSaINSt7__cxx1112basic_stringIcSt11char_traitsIcESaIcEEEED1Ev
	ldrb	w0, [sp, 55]
	cmp	w0, 0
	beq	.L429
	ldr	x0, [sp, 56]
	add	x0, x0, 24
	mov	x1, 0
	bl	_ZNSt6vectorINSt7__cxx1112basic_stringIcSt11char_traitsIcESaIcEEESaIS5_EEixEm
	mov	x1, x0
	add	x0, sp, 120
	mov	x8, x0
	adrp	x0, .LC10
	add	x0, x0, :lo12:.LC10
.LEHB82:
	bl	_ZStplIcSt11char_traitsIcESaIcEENSt7__cxx1112basic_stringIT_T0_T1_EEPKS5_RKS8_
.LEHE82:
	add	x1, sp, 120
	add	x0, sp, 152
.LEHB83:
	bl	_ZN10subprocess18CalledProcessErrorCI1St13runtime_errorERKNSt7__cxx1112basic_stringIcSt11char_traitsIcESaIcEEE
.LEHE83:
	add	x0, sp, 120
	bl	_ZNSt7__cxx1112basic_stringIcSt11char_traitsIcESaIcEED1Ev
	ldr	x0, [sp, 56]
	add	x1, x0, 24
	add	x0, sp, 152
	add	x0, x0, 24
.LEHB84:
	bl	_ZNSt6vectorINSt7__cxx1112basic_stringIcSt11char_traitsIcESaIcEEESaIS5_EEaSERKS7_
	ldr	w0, [x19, 24]
	str	w0, [sp, 168]
	add	x0, x19, 32
	bl	_ZSt4moveIRNSt7__cxx1112basic_stringIcSt11char_traitsIcESaIcEEEEONSt16remove_referenceIT_E4typeEOS8_
	mov	x1, x0
	add	x0, sp, 152
	add	x0, x0, 48
	bl	_ZNSt7__cxx1112basic_stringIcSt11char_traitsIcESaIcEEaSEOS4_
	add	x0, x19, 64
	bl	_ZSt4moveIRNSt7__cxx1112basic_stringIcSt11char_traitsIcESaIcEEEEONSt16remove_referenceIT_E4typeEOS8_
	mov	x1, x0
	add	x0, sp, 152
	add	x0, x0, 80
	bl	_ZNSt7__cxx1112basic_stringIcSt11char_traitsIcESaIcEEaSEOS4_
	mov	x0, 112
	bl	__cxa_allocate_exception
	mov	x20, x0
	add	x0, sp, 152
	mov	x1, x0
	mov	x0, x20
	bl	_ZN10subprocess18CalledProcessErrorC1EOS0_
	adrp	x0, _ZN10subprocess18CalledProcessErrorD1Ev
	add	x2, x0, :lo12:_ZN10subprocess18CalledProcessErrorD1Ev
	adrp	x0, _ZTIN10subprocess18CalledProcessErrorE
	add	x1, x0, :lo12:_ZTIN10subprocess18CalledProcessErrorE
	mov	x0, x20
	bl	__cxa_throw
.LEHE84:
.L429:
	nop
	add	x0, sp, 72
	bl	_ZNSt6threadD1Ev
	add	x0, sp, 64
	bl	_ZNSt6threadD1Ev
	nop
	adrp	x0, :got:__stack_chk_guard
	ldr	x0, [x0, #:got_lo12:__stack_chk_guard]
	ldr	x2, [sp, 264]
	ldr	x1, [x0]
	subs	x2, x2, x1
	mov	x1, 0
	beq	.L422
	b	.L428
.L424:
	mov	x20, x0
	add	x0, sp, 80
	bl	_ZNSaINSt7__cxx1112basic_stringIcSt11char_traitsIcESaIcEEEED1Ev
	b	.L419
.L425:
	mov	x20, x0
	add	x0, sp, 120
	bl	_ZNSt7__cxx1112basic_stringIcSt11char_traitsIcESaIcEED1Ev
	b	.L419
.L426:
	mov	x20, x0
	add	x0, sp, 152
	bl	_ZN10subprocess18CalledProcessErrorD1Ev
	b	.L419
.L423:
	mov	x20, x0
.L419:
	add	x0, sp, 72
	bl	_ZNSt6threadD1Ev
	add	x0, sp, 64
	bl	_ZNSt6threadD1Ev
	mov	x0, x19
	bl	_ZN10subprocess16CompletedProcessD1Ev
	mov	x0, x20
.LEHB85:
	bl	_Unwind_Resume
.LEHE85:
.L428:
	bl	__stack_chk_fail
.L422:
	mov	x0, x19
	ldp	x19, x20, [sp, 16]
	ldr	x21, [sp, 32]
	ldp	x29, x30, [sp], 272
	.cfi_restore 30
	.cfi_restore 29
	.cfi_restore 21
	.cfi_restore 19
	.cfi_restore 20
	.cfi_def_cfa_offset 0
	ret
	.cfi_endproc
.LFE3615:
	.section	.gcc_except_table
.LLSDA3615:
	.byte	0xff
	.byte	0xff
	.byte	0x1
	.uleb128 .LLSDACSE3615-.LLSDACSB3615
.LLSDACSB3615:
	.uleb128 .LEHB80-.LFB3615
	.uleb128 .LEHE80-.LEHB80
	.uleb128 .L423-.LFB3615
	.uleb128 0
	.uleb128 .LEHB81-.LFB3615
	.uleb128 .LEHE81-.LEHB81
	.uleb128 .L424-.LFB3615
	.uleb128 0
	.uleb128 .LEHB82-.LFB3615
	.uleb128 .LEHE82-.LEHB82
	.uleb128 .L423-.LFB3615
	.uleb128 0
	.uleb128 .LEHB83-.LFB3615
	.uleb128 .LEHE83-.LEHB83
	.uleb128 .L425-.LFB3615
	.uleb128 0
	.uleb128 .LEHB84-.LFB3615
	.uleb128 .LEHE84-.LEHB84
	.uleb128 .L426-.LFB3615
	.uleb128 0
	.uleb128 .LEHB85-.LFB3615
	.uleb128 .LEHE85-.LEHB85
	.uleb128 0
	.uleb128 0
.LLSDACSE3615:
	.text
	.size	_ZN10subprocess3runERNS_5PopenEb, .-_ZN10subprocess3runERNS_5PopenEb
	.align	2
	.type	_ZZN10subprocess3runESt6vectorINSt7__cxx1112basic_stringIcSt11char_traitsIcESaIcEEESaIS6_EENS_10RunOptionsEENKUlvE_clEv, %function
_ZZN10subprocess3runESt6vectorINSt7__cxx1112basic_stringIcSt11char_traitsIcESaIcEEESaIS6_EENS_10RunOptionsEENKUlvE_clEv:
.LFB3643:
	.cfi_startproc
	.cfi_personality 0x9b,DW.ref.__gxx_personality_v0
	.cfi_lsda 0x1b,.LLSDA3643
	stp	x29, x30, [sp, -80]!
	.cfi_def_cfa_offset 80
	.cfi_offset 29, -80
	.cfi_offset 30, -72
	mov	x29, sp
	str	x0, [sp, 24]
	adrp	x0, :got:__stack_chk_guard
	ldr	x0, [x0, #:got_lo12:__stack_chk_guard]
	ldr	x1, [x0]
	str	x1, [sp, 72]
	mov	x1, 0
	ldr	x0, [sp, 24]
	ldr	x0, [x0, 8]
	ldr	w0, [x0, 4]
	add	x1, sp, 40
	mov	x8, x1
.LEHB86:
	bl	_ZN10subprocess13pipe_read_allB5cxx11Ei
.LEHE86:
	ldr	x0, [sp, 24]
	ldr	x0, [x0]
	add	x0, x0, 32
	add	x1, sp, 40
	bl	_ZNSt7__cxx1112basic_stringIcSt11char_traitsIcESaIcEEaSEOS4_
	add	x0, sp, 40
	bl	_ZNSt7__cxx1112basic_stringIcSt11char_traitsIcESaIcEED1Ev
.L432:
	ldr	x0, [sp, 24]
	ldr	x0, [x0, 8]
	ldr	w0, [x0, 4]
.LEHB87:
	bl	_ZN10subprocess10pipe_closeEi
	ldr	x0, [sp, 24]
	ldr	x0, [x0, 8]
	mov	w1, -1
	str	w1, [x0, 4]
	nop
	adrp	x0, :got:__stack_chk_guard
	ldr	x0, [x0, #:got_lo12:__stack_chk_guard]
	ldr	x2, [sp, 72]
	ldr	x1, [x0]
	subs	x2, x2, x1
	mov	x1, 0
	beq	.L433
	b	.L435
.L434:
	bl	__cxa_begin_catch
	bl	__cxa_end_catch
.LEHE87:
	b	.L432
.L435:
	bl	__stack_chk_fail
.L433:
	ldp	x29, x30, [sp], 80
	.cfi_restore 30
	.cfi_restore 29
	.cfi_def_cfa_offset 0
	ret
	.cfi_endproc
.LFE3643:
	.section	.gcc_except_table
	.align	2
.LLSDA3643:
	.byte	0xff
	.byte	0x9b
	.uleb128 .LLSDATT3643-.LLSDATTD3643
.LLSDATTD3643:
	.byte	0x1
	.uleb128 .LLSDACSE3643-.LLSDACSB3643
.LLSDACSB3643:
	.uleb128 .LEHB86-.LFB3643
	.uleb128 .LEHE86-.LEHB86
	.uleb128 .L434-.LFB3643
	.uleb128 0x1
	.uleb128 .LEHB87-.LFB3643
	.uleb128 .LEHE87-.LEHB87
	.uleb128 0
	.uleb128 0
.LLSDACSE3643:
	.byte	0x1
	.byte	0
	.align	2
	.4byte	0

.LLSDATT3643:
	.text
	.size	_ZZN10subprocess3runESt6vectorINSt7__cxx1112basic_stringIcSt11char_traitsIcESaIcEEESaIS6_EENS_10RunOptionsEENKUlvE_clEv, .-_ZZN10subprocess3runESt6vectorINSt7__cxx1112basic_stringIcSt11char_traitsIcESaIcEEESaIS6_EENS_10RunOptionsEENKUlvE_clEv
	.align	2
	.type	_ZZN10subprocess3runESt6vectorINSt7__cxx1112basic_stringIcSt11char_traitsIcESaIcEEESaIS6_EENS_10RunOptionsEENKUlvE0_clEv, %function
_ZZN10subprocess3runESt6vectorINSt7__cxx1112basic_stringIcSt11char_traitsIcESaIcEEESaIS6_EENS_10RunOptionsEENKUlvE0_clEv:
.LFB3644:
	.cfi_startproc
	.cfi_personality 0x9b,DW.ref.__gxx_personality_v0
	.cfi_lsda 0x1b,.LLSDA3644
	stp	x29, x30, [sp, -80]!
	.cfi_def_cfa_offset 80
	.cfi_offset 29, -80
	.cfi_offset 30, -72
	mov	x29, sp
	str	x0, [sp, 24]
	adrp	x0, :got:__stack_chk_guard
	ldr	x0, [x0, #:got_lo12:__stack_chk_guard]
	ldr	x1, [x0]
	str	x1, [sp, 72]
	mov	x1, 0
	ldr	x0, [sp, 24]
	ldr	x0, [x0, 8]
	ldr	w0, [x0, 8]
	add	x1, sp, 40
	mov	x8, x1
.LEHB88:
	bl	_ZN10subprocess13pipe_read_allB5cxx11Ei
.LEHE88:
	ldr	x0, [sp, 24]
	ldr	x0, [x0]
	add	x0, x0, 64
	add	x1, sp, 40
	bl	_ZNSt7__cxx1112basic_stringIcSt11char_traitsIcESaIcEEaSEOS4_
	add	x0, sp, 40
	bl	_ZNSt7__cxx1112basic_stringIcSt11char_traitsIcESaIcEED1Ev
.L438:
	ldr	x0, [sp, 24]
	ldr	x0, [x0, 8]
	ldr	w0, [x0, 8]
.LEHB89:
	bl	_ZN10subprocess10pipe_closeEi
	ldr	x0, [sp, 24]
	ldr	x0, [x0, 8]
	mov	w1, -1
	str	w1, [x0, 8]
	nop
	adrp	x0, :got:__stack_chk_guard
	ldr	x0, [x0, #:got_lo12:__stack_chk_guard]
	ldr	x2, [sp, 72]
	ldr	x1, [x0]
	subs	x2, x2, x1
	mov	x1, 0
	beq	.L439
	b	.L441
.L440:
	bl	__cxa_begin_catch
	bl	__cxa_end_catch
.LEHE89:
	b	.L438
.L441:
	bl	__stack_chk_fail
.L439:
	ldp	x29, x30, [sp], 80
	.cfi_restore 30
	.cfi_restore 29
	.cfi_def_cfa_offset 0
	ret
	.cfi_endproc
.LFE3644:
	.section	.gcc_except_table
	.align	2
.LLSDA3644:
	.byte	0xff
	.byte	0x9b
	.uleb128 .LLSDATT3644-.LLSDATTD3644
.LLSDATTD3644:
	.byte	0x1
	.uleb128 .LLSDACSE3644-.LLSDACSB3644
.LLSDACSB3644:
	.uleb128 .LEHB88-.LFB3644
	.uleb128 .LEHE88-.LEHB88
	.uleb128 .L440-.LFB3644
	.uleb128 0x1
	.uleb128 .LEHB89-.LFB3644
	.uleb128 .LEHE89-.LEHB89
	.uleb128 0
	.uleb128 0
.LLSDACSE3644:
	.byte	0x1
	.byte	0
	.align	2
	.4byte	0

.LLSDATT3644:
	.text
	.size	_ZZN10subprocess3runESt6vectorINSt7__cxx1112basic_stringIcSt11char_traitsIcESaIcEEESaIS6_EENS_10RunOptionsEENKUlvE0_clEv, .-_ZZN10subprocess3runESt6vectorINSt7__cxx1112basic_stringIcSt11char_traitsIcESaIcEEESaIS6_EENS_10RunOptionsEENKUlvE0_clEv
	.align	2
	.global	_ZN10subprocess3runESt6vectorINSt7__cxx1112basic_stringIcSt11char_traitsIcESaIcEEESaIS6_EENS_10RunOptionsE
	.type	_ZN10subprocess3runESt6vectorINSt7__cxx1112basic_stringIcSt11char_traitsIcESaIcEEESaIS6_EENS_10RunOptionsE, %function
_ZN10subprocess3runESt6vectorINSt7__cxx1112basic_stringIcSt11char_traitsIcESaIcEEESaIS6_EENS_10RunOptionsE:
.LFB3642:
	.cfi_startproc
	.cfi_personality 0x9b,DW.ref.__gxx_personality_v0
	.cfi_lsda 0x1b,.LLSDA3642
	stp	x29, x30, [sp, -304]!
	.cfi_def_cfa_offset 304
	.cfi_offset 29, -304
	.cfi_offset 30, -296
	mov	x29, sp
	stp	x19, x20, [sp, 16]
	.cfi_offset 19, -288
	.cfi_offset 20, -280
	mov	x19, x8
	str	x0, [sp, 40]
	str	x1, [sp, 32]
	adrp	x0, :got:__stack_chk_guard
	ldr	x0, [x0, #:got_lo12:__stack_chk_guard]
	ldr	x1, [x0]
	str	x1, [sp, 296]
	mov	x1, 0
	add	x0, sp, 80
	ldr	x1, [sp, 40]
.LEHB90:
	bl	_ZNSt6vectorINSt7__cxx1112basic_stringIcSt11char_traitsIcESaIcEEESaIS5_EEC1ERKS7_
.LEHE90:
	ldr	x0, [sp, 32]
	bl	_ZSt4moveIRN10subprocess10RunOptionsEEONSt16remove_referenceIT_E4typeEOS4_
	mov	x2, x0
	add	x1, sp, 80
	add	x0, sp, 104
.LEHB91:
	bl	_ZN10subprocess5PopenC1ESt6vectorINSt7__cxx1112basic_stringIcSt11char_traitsIcESaIcEEESaIS7_EEONS_10RunOptionsE
.LEHE91:
	add	x0, sp, 80
	bl	_ZNSt6vectorINSt7__cxx1112basic_stringIcSt11char_traitsIcESaIcEEESaIS5_EED1Ev
	mov	x0, x19
	bl	_ZN10subprocess16CompletedProcessC1Ev
	add	x0, sp, 48
	bl	_ZNSt6threadC1Ev
	add	x0, sp, 56
	bl	_ZNSt6threadC1Ev
	ldr	w0, [sp, 108]
	cmn	w0, #1
	beq	.L443
	str	x19, [sp, 80]
	add	x0, sp, 104
	str	x0, [sp, 88]
	add	x1, sp, 80
	add	x0, sp, 64
.LEHB92:
	bl	_ZNSt6threadC1IZN10subprocess3runESt6vectorINSt7__cxx1112basic_stringIcSt11char_traitsIcESaIcEEESaIS8_EENS1_10RunOptionsEEUlvE_JEvEEOT_DpOT0_
	add	x1, sp, 64
	add	x0, sp, 48
	bl	_ZNSt6threadaSEOS_
	add	x0, sp, 64
	bl	_ZNSt6threadD1Ev
.L443:
	ldr	w0, [sp, 112]
	cmn	w0, #1
	beq	.L444
	str	x19, [sp, 80]
	add	x0, sp, 104
	str	x0, [sp, 88]
	add	x1, sp, 80
	add	x0, sp, 72
	bl	_ZNSt6threadC1IZN10subprocess3runESt6vectorINSt7__cxx1112basic_stringIcSt11char_traitsIcESaIcEEESaIS8_EENS1_10RunOptionsEEUlvE0_JEvEEOT_DpOT0_
	add	x1, sp, 72
	add	x0, sp, 56
	bl	_ZNSt6threadaSEOS_
	add	x0, sp, 72
	bl	_ZNSt6threadD1Ev
.L444:
	add	x0, sp, 48
	bl	_ZNKSt6thread8joinableEv
	and	w0, w0, 255
	cmp	w0, 0
	beq	.L445
	add	x0, sp, 48
	bl	_ZNSt6thread4joinEv
.L445:
	add	x0, sp, 56
	bl	_ZNKSt6thread8joinableEv
	and	w0, w0, 255
	cmp	w0, 0
	beq	.L446
	add	x0, sp, 56
	bl	_ZNSt6thread4joinEv
.L446:
	add	x0, sp, 104
	fmov	d0, -1.0e+0
	bl	_ZN10subprocess5Popen4waitEd
	ldr	w0, [sp, 120]
	str	w0, [x19, 24]
	mov	x0, x19
	ldr	x1, [sp, 40]
	bl	_ZNSt6vectorINSt7__cxx1112basic_stringIcSt11char_traitsIcESaIcEEESaIS5_EEaSERKS7_
	ldr	x0, [sp, 32]
	ldrb	w0, [x0]
	cmp	w0, 0
	beq	.L460
	ldr	w0, [x19, 24]
	cmp	w0, 0
	beq	.L460
	mov	x1, 0
	ldr	x0, [sp, 40]
	bl	_ZNSt6vectorINSt7__cxx1112basic_stringIcSt11char_traitsIcESaIcEEESaIS5_EEixEm
	mov	x1, x0
	add	x0, sp, 152
	mov	x8, x0
	adrp	x0, .LC10
	add	x0, x0, :lo12:.LC10
	bl	_ZStplIcSt11char_traitsIcESaIcEENSt7__cxx1112basic_stringIT_T0_T1_EEPKS5_RKS8_
.LEHE92:
	add	x1, sp, 152
	add	x0, sp, 184
.LEHB93:
	bl	_ZN10subprocess18CalledProcessErrorCI1St13runtime_errorERKNSt7__cxx1112basic_stringIcSt11char_traitsIcESaIcEEE
.LEHE93:
	add	x0, sp, 152
	bl	_ZNSt7__cxx1112basic_stringIcSt11char_traitsIcESaIcEED1Ev
	add	x0, sp, 184
	add	x0, x0, 24
	ldr	x1, [sp, 40]
.LEHB94:
	bl	_ZNSt6vectorINSt7__cxx1112basic_stringIcSt11char_traitsIcESaIcEEESaIS5_EEaSERKS7_
	ldr	w0, [x19, 24]
	str	w0, [sp, 200]
	add	x0, x19, 32
	bl	_ZSt4moveIRNSt7__cxx1112basic_stringIcSt11char_traitsIcESaIcEEEEONSt16remove_referenceIT_E4typeEOS8_
	mov	x1, x0
	add	x0, sp, 184
	add	x0, x0, 48
	bl	_ZNSt7__cxx1112basic_stringIcSt11char_traitsIcESaIcEEaSEOS4_
	add	x0, x19, 64
	bl	_ZSt4moveIRNSt7__cxx1112basic_stringIcSt11char_traitsIcESaIcEEEEONSt16remove_referenceIT_E4typeEOS8_
	mov	x1, x0
	add	x0, sp, 184
	add	x0, x0, 80
	bl	_ZNSt7__cxx1112basic_stringIcSt11char_traitsIcESaIcEEaSEOS4_
	mov	x0, 112
	bl	__cxa_allocate_exception
	mov	x20, x0
	add	x0, sp, 184
	mov	x1, x0
	mov	x0, x20
	bl	_ZN10subprocess18CalledProcessErrorC1EOS0_
	adrp	x0, _ZN10subprocess18CalledProcessErrorD1Ev
	add	x2, x0, :lo12:_ZN10subprocess18CalledProcessErrorD1Ev
	adrp	x0, _ZTIN10subprocess18CalledProcessErrorE
	add	x1, x0, :lo12:_ZTIN10subprocess18CalledProcessErrorE
	mov	x0, x20
	bl	__cxa_throw
.LEHE94:
.L460:
	nop
	add	x0, sp, 56
	bl	_ZNSt6threadD1Ev
	add	x0, sp, 48
	bl	_ZNSt6threadD1Ev
	add	x0, sp, 104
	bl	_ZN10subprocess5PopenD1Ev
	nop
	adrp	x0, :got:__stack_chk_guard
	ldr	x0, [x0, #:got_lo12:__stack_chk_guard]
	ldr	x2, [sp, 296]
	ldr	x1, [x0]
	subs	x2, x2, x1
	mov	x1, 0
	beq	.L453
	b	.L459
.L454:
	mov	x19, x0
	add	x0, sp, 80
	bl	_ZNSt6vectorINSt7__cxx1112basic_stringIcSt11char_traitsIcESaIcEEESaIS5_EED1Ev
	mov	x0, x19
.LEHB95:
	bl	_Unwind_Resume
.L456:
	mov	x20, x0
	add	x0, sp, 152
	bl	_ZNSt7__cxx1112basic_stringIcSt11char_traitsIcESaIcEED1Ev
	b	.L451
.L457:
	mov	x20, x0
	add	x0, sp, 184
	bl	_ZN10subprocess18CalledProcessErrorD1Ev
	b	.L451
.L455:
	mov	x20, x0
.L451:
	add	x0, sp, 56
	bl	_ZNSt6threadD1Ev
	add	x0, sp, 48
	bl	_ZNSt6threadD1Ev
	mov	x0, x19
	bl	_ZN10subprocess16CompletedProcessD1Ev
	mov	x19, x20
	add	x0, sp, 104
	bl	_ZN10subprocess5PopenD1Ev
	mov	x0, x19
	bl	_Unwind_Resume
.LEHE95:
.L459:
	bl	__stack_chk_fail
.L453:
	mov	x0, x19
	ldp	x19, x20, [sp, 16]
	ldp	x29, x30, [sp], 304
	.cfi_restore 30
	.cfi_restore 29
	.cfi_restore 19
	.cfi_restore 20
	.cfi_def_cfa_offset 0
	ret
	.cfi_endproc
.LFE3642:
	.section	.gcc_except_table
.LLSDA3642:
	.byte	0xff
	.byte	0xff
	.byte	0x1
	.uleb128 .LLSDACSE3642-.LLSDACSB3642
.LLSDACSB3642:
	.uleb128 .LEHB90-.LFB3642
	.uleb128 .LEHE90-.LEHB90
	.uleb128 0
	.uleb128 0
	.uleb128 .LEHB91-.LFB3642
	.uleb128 .LEHE91-.LEHB91
	.uleb128 .L454-.LFB3642
	.uleb128 0
	.uleb128 .LEHB92-.LFB3642
	.uleb128 .LEHE92-.LEHB92
	.uleb128 .L455-.LFB3642
	.uleb128 0
	.uleb128 .LEHB93-.LFB3642
	.uleb128 .LEHE93-.LEHB93
	.uleb128 .L456-.LFB3642
	.uleb128 0
	.uleb128 .LEHB94-.LFB3642
	.uleb128 .LEHE94-.LEHB94
	.uleb128 .L457-.LFB3642
	.uleb128 0
	.uleb128 .LEHB95-.LFB3642
	.uleb128 .LEHE95-.LEHB95
	.uleb128 0
	.uleb128 0
.LLSDACSE3642:
	.text
	.size	_ZN10subprocess3runESt6vectorINSt7__cxx1112basic_stringIcSt11char_traitsIcESaIcEEESaIS6_EENS_10RunOptionsE, .-_ZN10subprocess3runESt6vectorINSt7__cxx1112basic_stringIcSt11char_traitsIcESaIcEEESaIS6_EENS_10RunOptionsE
	.section	.text._ZN9__gnu_cxx11char_traitsIcE2eqERKcS3_,"axG",@progbits,_ZN9__gnu_cxx11char_traitsIcE2eqERKcS3_,comdat
	.align	2
	.weak	_ZN9__gnu_cxx11char_traitsIcE2eqERKcS3_
	.type	_ZN9__gnu_cxx11char_traitsIcE2eqERKcS3_, %function
_ZN9__gnu_cxx11char_traitsIcE2eqERKcS3_:
.LFB3648:
	.cfi_startproc
	sub	sp, sp, #16
	.cfi_def_cfa_offset 16
	str	x0, [sp, 8]
	str	x1, [sp]
	ldr	x0, [sp, 8]
	ldrb	w1, [x0]
	ldr	x0, [sp]
	ldrb	w0, [x0]
	cmp	w1, w0
	cset	w0, eq
	and	w0, w0, 255
	add	sp, sp, 16
	.cfi_def_cfa_offset 0
	ret
	.cfi_endproc
.LFE3648:
	.size	_ZN9__gnu_cxx11char_traitsIcE2eqERKcS3_, .-_ZN9__gnu_cxx11char_traitsIcE2eqERKcS3_
	.section	.text._ZN9__gnu_cxx11char_traitsIcE6lengthEPKc,"axG",@progbits,_ZN9__gnu_cxx11char_traitsIcE6lengthEPKc,comdat
	.align	2
	.weak	_ZN9__gnu_cxx11char_traitsIcE6lengthEPKc
	.type	_ZN9__gnu_cxx11char_traitsIcE6lengthEPKc, %function
_ZN9__gnu_cxx11char_traitsIcE6lengthEPKc:
.LFB3647:
	.cfi_startproc
	stp	x29, x30, [sp, -64]!
	.cfi_def_cfa_offset 64
	.cfi_offset 29, -64
	.cfi_offset 30, -56
	mov	x29, sp
	str	x0, [sp, 24]
	adrp	x0, :got:__stack_chk_guard
	ldr	x0, [x0, #:got_lo12:__stack_chk_guard]
	ldr	x1, [x0]
	str	x1, [sp, 56]
	mov	x1, 0
	str	xzr, [sp, 48]
	b	.L464
.L465:
	ldr	x0, [sp, 48]
	add	x0, x0, 1
	str	x0, [sp, 48]
.L464:
	ldr	x1, [sp, 24]
	ldr	x0, [sp, 48]
	add	x0, x1, x0
	strb	wzr, [sp, 47]
	add	x1, sp, 47
	bl	_ZN9__gnu_cxx11char_traitsIcE2eqERKcS3_
	and	w0, w0, 255
	eor	w0, w0, 1
	and	w0, w0, 255
	cmp	w0, 0
	bne	.L465
	ldr	x0, [sp, 48]
	mov	x1, x0
	adrp	x0, :got:__stack_chk_guard
	ldr	x0, [x0, #:got_lo12:__stack_chk_guard]
	ldr	x3, [sp, 56]
	ldr	x2, [x0]
	subs	x3, x3, x2
	mov	x2, 0
	beq	.L467
	bl	__stack_chk_fail
.L467:
	mov	x0, x1
	ldp	x29, x30, [sp], 64
	.cfi_restore 30
	.cfi_restore 29
	.cfi_def_cfa_offset 0
	ret
	.cfi_endproc
.LFE3647:
	.size	_ZN9__gnu_cxx11char_traitsIcE6lengthEPKc, .-_ZN9__gnu_cxx11char_traitsIcE6lengthEPKc
	.section	.text._ZNSt7__cxx1112basic_stringIcSt11char_traitsIcESaIcEE12_Alloc_hiderD2Ev,"axG",@progbits,_ZNSt7__cxx1112basic_stringIcSt11char_traitsIcESaIcEE12_Alloc_hiderD5Ev,comdat
	.align	2
	.weak	_ZNSt7__cxx1112basic_stringIcSt11char_traitsIcESaIcEE12_Alloc_hiderD2Ev
	.type	_ZNSt7__cxx1112basic_stringIcSt11char_traitsIcESaIcEE12_Alloc_hiderD2Ev, %function
_ZNSt7__cxx1112basic_stringIcSt11char_traitsIcESaIcEE12_Alloc_hiderD2Ev:
.LFB3753:
	.cfi_startproc
	stp	x29, x30, [sp, -32]!
	.cfi_def_cfa_offset 32
	.cfi_offset 29, -32
	.cfi_offset 30, -24
	mov	x29, sp
	str	x0, [sp, 24]
	ldr	x0, [sp, 24]
	bl	_ZNSaIcED2Ev
	nop
	ldp	x29, x30, [sp], 32
	.cfi_restore 30
	.cfi_restore 29
	.cfi_def_cfa_offset 0
	ret
	.cfi_endproc
.LFE3753:
	.size	_ZNSt7__cxx1112basic_stringIcSt11char_traitsIcESaIcEE12_Alloc_hiderD2Ev, .-_ZNSt7__cxx1112basic_stringIcSt11char_traitsIcESaIcEE12_Alloc_hiderD2Ev
	.weak	_ZNSt7__cxx1112basic_stringIcSt11char_traitsIcESaIcEE12_Alloc_hiderD1Ev
	.set	_ZNSt7__cxx1112basic_stringIcSt11char_traitsIcESaIcEE12_Alloc_hiderD1Ev,_ZNSt7__cxx1112basic_stringIcSt11char_traitsIcESaIcEE12_Alloc_hiderD2Ev
	.section	.text._ZNSt7__cxx1112basic_stringIcSt11char_traitsIcESaIcEEC2IS3_EEmcRKS3_,"axG",@progbits,_ZNSt7__cxx1112basic_stringIcSt11char_traitsIcESaIcEEC5IS3_EEmcRKS3_,comdat
	.align	2
	.weak	_ZNSt7__cxx1112basic_stringIcSt11char_traitsIcESaIcEEC2IS3_EEmcRKS3_
	.type	_ZNSt7__cxx1112basic_stringIcSt11char_traitsIcESaIcEEC2IS3_EEmcRKS3_, %function
_ZNSt7__cxx1112basic_stringIcSt11char_traitsIcESaIcEEC2IS3_EEmcRKS3_:
.LFB3755:
	.cfi_startproc
	.cfi_personality 0x9b,DW.ref.__gxx_personality_v0
	.cfi_lsda 0x1b,.LLSDA3755
	stp	x29, x30, [sp, -64]!
	.cfi_def_cfa_offset 64
	.cfi_offset 29, -64
	.cfi_offset 30, -56
	mov	x29, sp
	str	x19, [sp, 16]
	.cfi_offset 19, -48
	str	x0, [sp, 56]
	str	x1, [sp, 48]
	strb	w2, [sp, 47]
	str	x3, [sp, 32]
	ldr	x19, [sp, 56]
	ldr	x0, [sp, 56]
.LEHB96:
	bl	_ZNSt7__cxx1112basic_stringIcSt11char_traitsIcESaIcEE13_M_local_dataEv
	ldr	x2, [sp, 32]
	mov	x1, x0
	mov	x0, x19
	bl	_ZNSt7__cxx1112basic_stringIcSt11char_traitsIcESaIcEE12_Alloc_hiderC1EPcRKS3_
.LEHE96:
	ldrb	w2, [sp, 47]
	ldr	x1, [sp, 48]
	ldr	x0, [sp, 56]
.LEHB97:
	bl	_ZNSt7__cxx1112basic_stringIcSt11char_traitsIcESaIcEE12_M_constructEmc
.LEHE97:
	b	.L472
.L471:
	mov	x19, x0
	ldr	x0, [sp, 56]
	bl	_ZNSt7__cxx1112basic_stringIcSt11char_traitsIcESaIcEE12_Alloc_hiderD1Ev
	mov	x0, x19
.LEHB98:
	bl	_Unwind_Resume
.LEHE98:
.L472:
	ldr	x19, [sp, 16]
	ldp	x29, x30, [sp], 64
	.cfi_restore 30
	.cfi_restore 29
	.cfi_restore 19
	.cfi_def_cfa_offset 0
	ret
	.cfi_endproc
.LFE3755:
	.section	.gcc_except_table
.LLSDA3755:
	.byte	0xff
	.byte	0xff
	.byte	0x1
	.uleb128 .LLSDACSE3755-.LLSDACSB3755
.LLSDACSB3755:
	.uleb128 .LEHB96-.LFB3755
	.uleb128 .LEHE96-.LEHB96
	.uleb128 0
	.uleb128 0
	.uleb128 .LEHB97-.LFB3755
	.uleb128 .LEHE97-.LEHB97
	.uleb128 .L471-.LFB3755
	.uleb128 0
	.uleb128 .LEHB98-.LFB3755
	.uleb128 .LEHE98-.LEHB98
	.uleb128 0
	.uleb128 0
.LLSDACSE3755:
	.section	.text._ZNSt7__cxx1112basic_stringIcSt11char_traitsIcESaIcEEC2IS3_EEmcRKS3_,"axG",@progbits,_ZNSt7__cxx1112basic_stringIcSt11char_traitsIcESaIcEEC5IS3_EEmcRKS3_,comdat
	.size	_ZNSt7__cxx1112basic_stringIcSt11char_traitsIcESaIcEEC2IS3_EEmcRKS3_, .-_ZNSt7__cxx1112basic_stringIcSt11char_traitsIcESaIcEEC2IS3_EEmcRKS3_
	.weak	_ZNSt7__cxx1112basic_stringIcSt11char_traitsIcESaIcEEC1IS3_EEmcRKS3_
	.set	_ZNSt7__cxx1112basic_stringIcSt11char_traitsIcESaIcEEC1IS3_EEmcRKS3_,_ZNSt7__cxx1112basic_stringIcSt11char_traitsIcESaIcEEC2IS3_EEmcRKS3_
	.weak	_ZZNSt8__detail18__to_chars_10_implIjEEvPcjT_E8__digits
	.section	.rodata._ZZNSt8__detail18__to_chars_10_implIjEEvPcjT_E8__digits,"aG",@progbits,_ZZNSt8__detail18__to_chars_10_implIjEEvPcjT_E8__digits,comdat
	.align	3
	.type	_ZZNSt8__detail18__to_chars_10_implIjEEvPcjT_E8__digits, %gnu_unique_object
	.size	_ZZNSt8__detail18__to_chars_10_implIjEEvPcjT_E8__digits, 201
_ZZNSt8__detail18__to_chars_10_implIjEEvPcjT_E8__digits:
	.string	"00010203040506070809101112131415161718192021222324252627282930313233343536373839404142434445464748495051525354555657585960616263646566676869707172737475767778798081828384858687888990919293949596979899"
	.section	.text._ZNSt8__detail18__to_chars_10_implIjEEvPcjT_,"axG",@progbits,_ZNSt8__detail18__to_chars_10_implIjEEvPcjT_,comdat
	.align	2
	.weak	_ZNSt8__detail18__to_chars_10_implIjEEvPcjT_
	.type	_ZNSt8__detail18__to_chars_10_implIjEEvPcjT_, %function
_ZNSt8__detail18__to_chars_10_implIjEEvPcjT_:
.LFB3761:
	.cfi_startproc
	sub	sp, sp, #32
	.cfi_def_cfa_offset 32
	str	x0, [sp, 8]
	str	w1, [sp, 4]
	str	w2, [sp]
	ldr	w0, [sp, 4]
	sub	w0, w0, #1
	str	w0, [sp, 20]
	b	.L474
.L475:
	ldr	w1, [sp]
	mov	w0, 34079
	movk	w0, 0x51eb, lsl 16
	umull	x0, w1, w0
	lsr	x0, x0, 32
	lsr	w0, w0, 5
	mov	w2, 100
	mul	w0, w0, w2
	sub	w0, w1, w0
	lsl	w0, w0, 1
	str	w0, [sp, 28]
	ldr	w1, [sp]
	mov	w0, 34079
	movk	w0, 0x51eb, lsl 16
	umull	x0, w1, w0
	lsr	x0, x0, 32
	lsr	w0, w0, 5
	str	w0, [sp]
	ldr	w0, [sp, 28]
	add	w3, w0, 1
	ldr	w0, [sp, 20]
	ldr	x1, [sp, 8]
	add	x0, x1, x0
	adrp	x1, _ZZNSt8__detail18__to_chars_10_implIjEEvPcjT_E8__digits
	add	x2, x1, :lo12:_ZZNSt8__detail18__to_chars_10_implIjEEvPcjT_E8__digits
	uxtw	x1, w3
	ldrb	w1, [x2, x1]
	strb	w1, [x0]
	ldr	w0, [sp, 20]
	sub	w0, w0, #1
	uxtw	x0, w0
	ldr	x1, [sp, 8]
	add	x0, x1, x0
	adrp	x1, _ZZNSt8__detail18__to_chars_10_implIjEEvPcjT_E8__digits
	add	x2, x1, :lo12:_ZZNSt8__detail18__to_chars_10_implIjEEvPcjT_E8__digits
	ldr	w1, [sp, 28]
	ldrb	w1, [x2, x1]
	strb	w1, [x0]
	ldr	w0, [sp, 20]
	sub	w0, w0, #2
	str	w0, [sp, 20]
.L474:
	ldr	w0, [sp]
	cmp	w0, 99
	bhi	.L475
	ldr	w0, [sp]
	cmp	w0, 9
	bls	.L476
	ldr	w0, [sp]
	lsl	w0, w0, 1
	str	w0, [sp, 24]
	ldr	w0, [sp, 24]
	add	w3, w0, 1
	ldr	x0, [sp, 8]
	add	x0, x0, 1
	adrp	x1, _ZZNSt8__detail18__to_chars_10_implIjEEvPcjT_E8__digits
	add	x2, x1, :lo12:_ZZNSt8__detail18__to_chars_10_implIjEEvPcjT_E8__digits
	uxtw	x1, w3
	ldrb	w1, [x2, x1]
	strb	w1, [x0]
	adrp	x0, _ZZNSt8__detail18__to_chars_10_implIjEEvPcjT_E8__digits
	add	x1, x0, :lo12:_ZZNSt8__detail18__to_chars_10_implIjEEvPcjT_E8__digits
	ldr	w0, [sp, 24]
	ldrb	w1, [x1, x0]
	ldr	x0, [sp, 8]
	strb	w1, [x0]
	b	.L478
.L476:
	ldr	w0, [sp]
	and	w0, w0, 255
	add	w0, w0, 48
	and	w1, w0, 255
	ldr	x0, [sp, 8]
	strb	w1, [x0]
.L478:
	nop
	add	sp, sp, 32
	.cfi_def_cfa_offset 0
	ret
	.cfi_endproc
.LFE3761:
	.size	_ZNSt8__detail18__to_chars_10_implIjEEvPcjT_, .-_ZNSt8__detail18__to_chars_10_implIjEEvPcjT_
	.section	.text._ZStplIcSt11char_traitsIcESaIcEENSt7__cxx1112basic_stringIT_T0_T1_EEPKS5_OS8_,"axG",@progbits,_ZStplIcSt11char_traitsIcESaIcEENSt7__cxx1112basic_stringIT_T0_T1_EEPKS5_OS8_,comdat
	.align	2
	.weak	_ZStplIcSt11char_traitsIcESaIcEENSt7__cxx1112basic_stringIT_T0_T1_EEPKS5_OS8_
	.type	_ZStplIcSt11char_traitsIcESaIcEENSt7__cxx1112basic_stringIT_T0_T1_EEPKS5_OS8_, %function
_ZStplIcSt11char_traitsIcESaIcEENSt7__cxx1112basic_stringIT_T0_T1_EEPKS5_OS8_:
.LFB3903:
	.cfi_startproc
	stp	x29, x30, [sp, -48]!
	.cfi_def_cfa_offset 48
	.cfi_offset 29, -48
	.cfi_offset 30, -40
	mov	x29, sp
	str	x19, [sp, 16]
	.cfi_offset 19, -32
	mov	x19, x8
	str	x0, [sp, 40]
	str	x1, [sp, 32]
	ldr	x2, [sp, 40]
	mov	x1, 0
	ldr	x0, [sp, 32]
	bl	_ZNSt7__cxx1112basic_stringIcSt11char_traitsIcESaIcEE6insertEmPKc
	bl	_ZSt4moveIRNSt7__cxx1112basic_stringIcSt11char_traitsIcESaIcEEEEONSt16remove_referenceIT_E4typeEOS8_
	mov	x1, x0
	mov	x0, x19
	bl	_ZNSt7__cxx1112basic_stringIcSt11char_traitsIcESaIcEEC1EOS4_
	mov	x0, x19
	ldr	x19, [sp, 16]
	ldp	x29, x30, [sp], 48
	.cfi_restore 30
	.cfi_restore 29
	.cfi_restore 19
	.cfi_def_cfa_offset 0
	ret
	.cfi_endproc
.LFE3903:
	.size	_ZStplIcSt11char_traitsIcESaIcEENSt7__cxx1112basic_stringIT_T0_T1_EEPKS5_OS8_, .-_ZStplIcSt11char_traitsIcESaIcEENSt7__cxx1112basic_stringIT_T0_T1_EEPKS5_OS8_
	.section	.text._ZSt3getIN10subprocess10PipeOptionEJS1_NSt7__cxx1112basic_stringIcSt11char_traitsIcESaIcEEEiPSiPSoP8_IO_FILEEERKT_RKSt7variantIJDpT0_EE,"axG",@progbits,_ZSt3getIN10subprocess10PipeOptionEJS1_NSt7__cxx1112basic_stringIcSt11char_traitsIcESaIcEEEiPSiPSoP8_IO_FILEEERKT_RKSt7variantIJDpT0_EE,comdat
	.align	2
	.weak	_ZSt3getIN10subprocess10PipeOptionEJS1_NSt7__cxx1112basic_stringIcSt11char_traitsIcESaIcEEEiPSiPSoP8_IO_FILEEERKT_RKSt7variantIJDpT0_EE
	.type	_ZSt3getIN10subprocess10PipeOptionEJS1_NSt7__cxx1112basic_stringIcSt11char_traitsIcESaIcEEEiPSiPSoP8_IO_FILEEERKT_RKSt7variantIJDpT0_EE, %function
_ZSt3getIN10subprocess10PipeOptionEJS1_NSt7__cxx1112basic_stringIcSt11char_traitsIcESaIcEEEiPSiPSoP8_IO_FILEEERKT_RKSt7variantIJDpT0_EE:
.LFB3906:
	.cfi_startproc
	stp	x29, x30, [sp, -32]!
	.cfi_def_cfa_offset 32
	.cfi_offset 29, -32
	.cfi_offset 30, -24
	mov	x29, sp
	str	x0, [sp, 24]
	ldr	x0, [sp, 24]
	bl	_ZSt3getILm0EJN10subprocess10PipeOptionENSt7__cxx1112basic_stringIcSt11char_traitsIcESaIcEEEiPSiPSoP8_IO_FILEEERKNSt19variant_alternativeIXT_ESt7variantIJDpT0_EEE4typeERKSG_
	ldp	x29, x30, [sp], 32
	.cfi_restore 30
	.cfi_restore 29
	.cfi_def_cfa_offset 0
	ret
	.cfi_endproc
.LFE3906:
	.size	_ZSt3getIN10subprocess10PipeOptionEJS1_NSt7__cxx1112basic_stringIcSt11char_traitsIcESaIcEEEiPSiPSoP8_IO_FILEEERKT_RKSt7variantIJDpT0_EE, .-_ZSt3getIN10subprocess10PipeOptionEJS1_NSt7__cxx1112basic_stringIcSt11char_traitsIcESaIcEEEiPSiPSoP8_IO_FILEEERKT_RKSt7variantIJDpT0_EE
	.section	.text._ZSt7forwardIN10subprocess10PipeOptionEEOT_RNSt16remove_referenceIS2_E4typeE,"axG",@progbits,_ZSt7forwardIN10subprocess10PipeOptionEEOT_RNSt16remove_referenceIS2_E4typeE,comdat
	.align	2
	.weak	_ZSt7forwardIN10subprocess10PipeOptionEEOT_RNSt16remove_referenceIS2_E4typeE
	.type	_ZSt7forwardIN10subprocess10PipeOptionEEOT_RNSt16remove_referenceIS2_E4typeE, %function
_ZSt7forwardIN10subprocess10PipeOptionEEOT_RNSt16remove_referenceIS2_E4typeE:
.LFB3911:
	.cfi_startproc
	sub	sp, sp, #16
	.cfi_def_cfa_offset 16
	str	x0, [sp, 8]
	ldr	x0, [sp, 8]
	add	sp, sp, 16
	.cfi_def_cfa_offset 0
	ret
	.cfi_endproc
.LFE3911:
	.size	_ZSt7forwardIN10subprocess10PipeOptionEEOT_RNSt16remove_referenceIS2_E4typeE, .-_ZSt7forwardIN10subprocess10PipeOptionEEOT_RNSt16remove_referenceIS2_E4typeE
	.section	.text._ZNSt8__detail9__variant16_Variant_storageILb0EJN10subprocess10PipeOptionENSt7__cxx1112basic_stringIcSt11char_traitsIcESaIcEEEiPSiPSoP8_IO_FILEEED2Ev,"axG",@progbits,_ZNSt8__detail9__variant16_Variant_storageILb0EJN10subprocess10PipeOptionENSt7__cxx1112basic_stringIcSt11char_traitsIcESaIcEEEiPSiPSoP8_IO_FILEEED5Ev,comdat
	.align	2
	.weak	_ZNSt8__detail9__variant16_Variant_storageILb0EJN10subprocess10PipeOptionENSt7__cxx1112basic_stringIcSt11char_traitsIcESaIcEEEiPSiPSoP8_IO_FILEEED2Ev
	.type	_ZNSt8__detail9__variant16_Variant_storageILb0EJN10subprocess10PipeOptionENSt7__cxx1112basic_stringIcSt11char_traitsIcESaIcEEEiPSiPSoP8_IO_FILEEED2Ev, %function
_ZNSt8__detail9__variant16_Variant_storageILb0EJN10subprocess10PipeOptionENSt7__cxx1112basic_stringIcSt11char_traitsIcESaIcEEEiPSiPSoP8_IO_FILEEED2Ev:
.LFB3915:
	.cfi_startproc
	.cfi_personality 0x9b,DW.ref.__gxx_personality_v0
	.cfi_lsda 0x1b,.LLSDA3915
	stp	x29, x30, [sp, -32]!
	.cfi_def_cfa_offset 32
	.cfi_offset 29, -32
	.cfi_offset 30, -24
	mov	x29, sp
	str	x0, [sp, 24]
	ldr	x0, [sp, 24]
	bl	_ZNSt8__detail9__variant16_Variant_storageILb0EJN10subprocess10PipeOptionENSt7__cxx1112basic_stringIcSt11char_traitsIcESaIcEEEiPSiPSoP8_IO_FILEEE8_M_resetEv
	nop
	ldp	x29, x30, [sp], 32
	.cfi_restore 30
	.cfi_restore 29
	.cfi_def_cfa_offset 0
	ret
	.cfi_endproc
.LFE3915:
	.section	.gcc_except_table
.LLSDA3915:
	.byte	0xff
	.byte	0xff
	.byte	0x1
	.uleb128 .LLSDACSE3915-.LLSDACSB3915
.LLSDACSB3915:
.LLSDACSE3915:
	.section	.text._ZNSt8__detail9__variant16_Variant_storageILb0EJN10subprocess10PipeOptionENSt7__cxx1112basic_stringIcSt11char_traitsIcESaIcEEEiPSiPSoP8_IO_FILEEED2Ev,"axG",@progbits,_ZNSt8__detail9__variant16_Variant_storageILb0EJN10subprocess10PipeOptionENSt7__cxx1112basic_stringIcSt11char_traitsIcESaIcEEEiPSiPSoP8_IO_FILEEED5Ev,comdat
	.size	_ZNSt8__detail9__variant16_Variant_storageILb0EJN10subprocess10PipeOptionENSt7__cxx1112basic_stringIcSt11char_traitsIcESaIcEEEiPSiPSoP8_IO_FILEEED2Ev, .-_ZNSt8__detail9__variant16_Variant_storageILb0EJN10subprocess10PipeOptionENSt7__cxx1112basic_stringIcSt11char_traitsIcESaIcEEEiPSiPSoP8_IO_FILEEED2Ev
	.weak	_ZNSt8__detail9__variant16_Variant_storageILb0EJN10subprocess10PipeOptionENSt7__cxx1112basic_stringIcSt11char_traitsIcESaIcEEEiPSiPSoP8_IO_FILEEED1Ev
	.set	_ZNSt8__detail9__variant16_Variant_storageILb0EJN10subprocess10PipeOptionENSt7__cxx1112basic_stringIcSt11char_traitsIcESaIcEEEiPSiPSoP8_IO_FILEEED1Ev,_ZNSt8__detail9__variant16_Variant_storageILb0EJN10subprocess10PipeOptionENSt7__cxx1112basic_stringIcSt11char_traitsIcESaIcEEEiPSiPSoP8_IO_FILEEED2Ev
	.section	.text._ZNSt12_Vector_baseINSt7__cxx1112basic_stringIcSt11char_traitsIcESaIcEEESaIS5_EE12_Vector_implC2Ev,"axG",@progbits,_ZNSt12_Vector_baseINSt7__cxx1112basic_stringIcSt11char_traitsIcESaIcEEESaIS5_EE12_Vector_implC5Ev,comdat
	.align	2
	.weak	_ZNSt12_Vector_baseINSt7__cxx1112basic_stringIcSt11char_traitsIcESaIcEEESaIS5_EE12_Vector_implC2Ev
	.type	_ZNSt12_Vector_baseINSt7__cxx1112basic_stringIcSt11char_traitsIcESaIcEEESaIS5_EE12_Vector_implC2Ev, %function
_ZNSt12_Vector_baseINSt7__cxx1112basic_stringIcSt11char_traitsIcESaIcEEESaIS5_EE12_Vector_implC2Ev:
.LFB3918:
	.cfi_startproc
	stp	x29, x30, [sp, -32]!
	.cfi_def_cfa_offset 32
	.cfi_offset 29, -32
	.cfi_offset 30, -24
	mov	x29, sp
	str	x0, [sp, 24]
	ldr	x0, [sp, 24]
	bl	_ZNSaINSt7__cxx1112basic_stringIcSt11char_traitsIcESaIcEEEEC2Ev
	ldr	x0, [sp, 24]
	bl	_ZNSt12_Vector_baseINSt7__cxx1112basic_stringIcSt11char_traitsIcESaIcEEESaIS5_EE17_Vector_impl_dataC2Ev
	nop
	ldp	x29, x30, [sp], 32
	.cfi_restore 30
	.cfi_restore 29
	.cfi_def_cfa_offset 0
	ret
	.cfi_endproc
.LFE3918:
	.size	_ZNSt12_Vector_baseINSt7__cxx1112basic_stringIcSt11char_traitsIcESaIcEEESaIS5_EE12_Vector_implC2Ev, .-_ZNSt12_Vector_baseINSt7__cxx1112basic_stringIcSt11char_traitsIcESaIcEEESaIS5_EE12_Vector_implC2Ev
	.weak	_ZNSt12_Vector_baseINSt7__cxx1112basic_stringIcSt11char_traitsIcESaIcEEESaIS5_EE12_Vector_implC1Ev
	.set	_ZNSt12_Vector_baseINSt7__cxx1112basic_stringIcSt11char_traitsIcESaIcEEESaIS5_EE12_Vector_implC1Ev,_ZNSt12_Vector_baseINSt7__cxx1112basic_stringIcSt11char_traitsIcESaIcEEESaIS5_EE12_Vector_implC2Ev
	.section	.text._ZNSaINSt7__cxx1112basic_stringIcSt11char_traitsIcESaIcEEEED2Ev,"axG",@progbits,_ZNSaINSt7__cxx1112basic_stringIcSt11char_traitsIcESaIcEEEED5Ev,comdat
	.align	2
	.weak	_ZNSaINSt7__cxx1112basic_stringIcSt11char_traitsIcESaIcEEEED2Ev
	.type	_ZNSaINSt7__cxx1112basic_stringIcSt11char_traitsIcESaIcEEEED2Ev, %function
_ZNSaINSt7__cxx1112basic_stringIcSt11char_traitsIcESaIcEEEED2Ev:
.LFB3921:
	.cfi_startproc
	stp	x29, x30, [sp, -32]!
	.cfi_def_cfa_offset 32
	.cfi_offset 29, -32
	.cfi_offset 30, -24
	mov	x29, sp
	str	x0, [sp, 24]
	ldr	x0, [sp, 24]
	bl	_ZN9__gnu_cxx13new_allocatorINSt7__cxx1112basic_stringIcSt11char_traitsIcESaIcEEEED2Ev
	nop
	ldp	x29, x30, [sp], 32
	.cfi_restore 30
	.cfi_restore 29
	.cfi_def_cfa_offset 0
	ret
	.cfi_endproc
.LFE3921:
	.size	_ZNSaINSt7__cxx1112basic_stringIcSt11char_traitsIcESaIcEEEED2Ev, .-_ZNSaINSt7__cxx1112basic_stringIcSt11char_traitsIcESaIcEEEED2Ev
	.weak	_ZNSaINSt7__cxx1112basic_stringIcSt11char_traitsIcESaIcEEEED1Ev
	.set	_ZNSaINSt7__cxx1112basic_stringIcSt11char_traitsIcESaIcEEEED1Ev,_ZNSaINSt7__cxx1112basic_stringIcSt11char_traitsIcESaIcEEEED2Ev
	.section	.text._ZNSt12_Vector_baseINSt7__cxx1112basic_stringIcSt11char_traitsIcESaIcEEESaIS5_EED2Ev,"axG",@progbits,_ZNSt12_Vector_baseINSt7__cxx1112basic_stringIcSt11char_traitsIcESaIcEEESaIS5_EED5Ev,comdat
	.align	2
	.weak	_ZNSt12_Vector_baseINSt7__cxx1112basic_stringIcSt11char_traitsIcESaIcEEESaIS5_EED2Ev
	.type	_ZNSt12_Vector_baseINSt7__cxx1112basic_stringIcSt11char_traitsIcESaIcEEESaIS5_EED2Ev, %function
_ZNSt12_Vector_baseINSt7__cxx1112basic_stringIcSt11char_traitsIcESaIcEEESaIS5_EED2Ev:
.LFB3924:
	.cfi_startproc
	.cfi_personality 0x9b,DW.ref.__gxx_personality_v0
	.cfi_lsda 0x1b,.LLSDA3924
	stp	x29, x30, [sp, -32]!
	.cfi_def_cfa_offset 32
	.cfi_offset 29, -32
	.cfi_offset 30, -24
	mov	x29, sp
	str	x0, [sp, 24]
	ldr	x0, [sp, 24]
	ldr	x3, [x0]
	ldr	x0, [sp, 24]
	ldr	x1, [x0, 16]
	ldr	x0, [sp, 24]
	ldr	x0, [x0]
	sub	x0, x1, x0
	asr	x0, x0, 5
	mov	x2, x0
	mov	x1, x3
	ldr	x0, [sp, 24]
	bl	_ZNSt12_Vector_baseINSt7__cxx1112basic_stringIcSt11char_traitsIcESaIcEEESaIS5_EE13_M_deallocateEPS5_m
	ldr	x0, [sp, 24]
	bl	_ZNSt12_Vector_baseINSt7__cxx1112basic_stringIcSt11char_traitsIcESaIcEEESaIS5_EE12_Vector_implD1Ev
	nop
	ldp	x29, x30, [sp], 32
	.cfi_restore 30
	.cfi_restore 29
	.cfi_def_cfa_offset 0
	ret
	.cfi_endproc
.LFE3924:
	.section	.gcc_except_table
.LLSDA3924:
	.byte	0xff
	.byte	0xff
	.byte	0x1
	.uleb128 .LLSDACSE3924-.LLSDACSB3924
.LLSDACSB3924:
.LLSDACSE3924:
	.section	.text._ZNSt12_Vector_baseINSt7__cxx1112basic_stringIcSt11char_traitsIcESaIcEEESaIS5_EED2Ev,"axG",@progbits,_ZNSt12_Vector_baseINSt7__cxx1112basic_stringIcSt11char_traitsIcESaIcEEESaIS5_EED5Ev,comdat
	.size	_ZNSt12_Vector_baseINSt7__cxx1112basic_stringIcSt11char_traitsIcESaIcEEESaIS5_EED2Ev, .-_ZNSt12_Vector_baseINSt7__cxx1112basic_stringIcSt11char_traitsIcESaIcEEESaIS5_EED2Ev
	.weak	_ZNSt12_Vector_baseINSt7__cxx1112basic_stringIcSt11char_traitsIcESaIcEEESaIS5_EED1Ev
	.set	_ZNSt12_Vector_baseINSt7__cxx1112basic_stringIcSt11char_traitsIcESaIcEEESaIS5_EED1Ev,_ZNSt12_Vector_baseINSt7__cxx1112basic_stringIcSt11char_traitsIcESaIcEEESaIS5_EED2Ev
	.section	.text._ZNSt6vectorINSt7__cxx1112basic_stringIcSt11char_traitsIcESaIcEEESaIS5_EED2Ev,"axG",@progbits,_ZNSt6vectorINSt7__cxx1112basic_stringIcSt11char_traitsIcESaIcEEESaIS5_EED5Ev,comdat
	.align	2
	.weak	_ZNSt6vectorINSt7__cxx1112basic_stringIcSt11char_traitsIcESaIcEEESaIS5_EED2Ev
	.type	_ZNSt6vectorINSt7__cxx1112basic_stringIcSt11char_traitsIcESaIcEEESaIS5_EED2Ev, %function
_ZNSt6vectorINSt7__cxx1112basic_stringIcSt11char_traitsIcESaIcEEESaIS5_EED2Ev:
.LFB3927:
	.cfi_startproc
	.cfi_personality 0x9b,DW.ref.__gxx_personality_v0
	.cfi_lsda 0x1b,.LLSDA3927
	stp	x29, x30, [sp, -48]!
	.cfi_def_cfa_offset 48
	.cfi_offset 29, -48
	.cfi_offset 30, -40
	mov	x29, sp
	stp	x19, x20, [sp, 16]
	.cfi_offset 19, -32
	.cfi_offset 20, -24
	str	x0, [sp, 40]
	ldr	x0, [sp, 40]
	ldr	x19, [x0]
	ldr	x0, [sp, 40]
	ldr	x20, [x0, 8]
	ldr	x0, [sp, 40]
	bl	_ZNSt12_Vector_baseINSt7__cxx1112basic_stringIcSt11char_traitsIcESaIcEEESaIS5_EE19_M_get_Tp_allocatorEv
	mov	x2, x0
	mov	x1, x20
	mov	x0, x19
	bl	_ZSt8_DestroyIPNSt7__cxx1112basic_stringIcSt11char_traitsIcESaIcEEES5_EvT_S7_RSaIT0_E
	ldr	x0, [sp, 40]
	bl	_ZNSt12_Vector_baseINSt7__cxx1112basic_stringIcSt11char_traitsIcESaIcEEESaIS5_EED2Ev
	nop
	ldp	x19, x20, [sp, 16]
	ldp	x29, x30, [sp], 48
	.cfi_restore 30
	.cfi_restore 29
	.cfi_restore 19
	.cfi_restore 20
	.cfi_def_cfa_offset 0
	ret
	.cfi_endproc
.LFE3927:
	.section	.gcc_except_table
.LLSDA3927:
	.byte	0xff
	.byte	0xff
	.byte	0x1
	.uleb128 .LLSDACSE3927-.LLSDACSB3927
.LLSDACSB3927:
.LLSDACSE3927:
	.section	.text._ZNSt6vectorINSt7__cxx1112basic_stringIcSt11char_traitsIcESaIcEEESaIS5_EED2Ev,"axG",@progbits,_ZNSt6vectorINSt7__cxx1112basic_stringIcSt11char_traitsIcESaIcEEESaIS5_EED5Ev,comdat
	.size	_ZNSt6vectorINSt7__cxx1112basic_stringIcSt11char_traitsIcESaIcEEESaIS5_EED2Ev, .-_ZNSt6vectorINSt7__cxx1112basic_stringIcSt11char_traitsIcESaIcEEESaIS5_EED2Ev
	.weak	_ZNSt6vectorINSt7__cxx1112basic_stringIcSt11char_traitsIcESaIcEEESaIS5_EED1Ev
	.set	_ZNSt6vectorINSt7__cxx1112basic_stringIcSt11char_traitsIcESaIcEEESaIS5_EED1Ev,_ZNSt6vectorINSt7__cxx1112basic_stringIcSt11char_traitsIcESaIcEEESaIS5_EED2Ev
	.section	.text._ZNSt8_Rb_treeINSt7__cxx1112basic_stringIcSt11char_traitsIcESaIcEEESt4pairIKS5_S5_ESt10_Select1stIS8_ESt4lessIS5_ESaIS8_EE13_Rb_tree_implISC_Lb1EEC2Ev,"axG",@progbits,_ZNSt8_Rb_treeINSt7__cxx1112basic_stringIcSt11char_traitsIcESaIcEEESt4pairIKS5_S5_ESt10_Select1stIS8_ESt4lessIS5_ESaIS8_EE13_Rb_tree_implISC_Lb1EEC5Ev,comdat
	.align	2
	.weak	_ZNSt8_Rb_treeINSt7__cxx1112basic_stringIcSt11char_traitsIcESaIcEEESt4pairIKS5_S5_ESt10_Select1stIS8_ESt4lessIS5_ESaIS8_EE13_Rb_tree_implISC_Lb1EEC2Ev
	.type	_ZNSt8_Rb_treeINSt7__cxx1112basic_stringIcSt11char_traitsIcESaIcEEESt4pairIKS5_S5_ESt10_Select1stIS8_ESt4lessIS5_ESaIS8_EE13_Rb_tree_implISC_Lb1EEC2Ev, %function
_ZNSt8_Rb_treeINSt7__cxx1112basic_stringIcSt11char_traitsIcESaIcEEESt4pairIKS5_S5_ESt10_Select1stIS8_ESt4lessIS5_ESaIS8_EE13_Rb_tree_implISC_Lb1EEC2Ev:
.LFB3933:
	.cfi_startproc
	stp	x29, x30, [sp, -32]!
	.cfi_def_cfa_offset 32
	.cfi_offset 29, -32
	.cfi_offset 30, -24
	mov	x29, sp
	str	x0, [sp, 24]
	ldr	x0, [sp, 24]
	bl	_ZNSaISt13_Rb_tree_nodeISt4pairIKNSt7__cxx1112basic_stringIcSt11char_traitsIcESaIcEEES6_EEEC2Ev
	ldr	x0, [sp, 24]
	bl	_ZNSt20_Rb_tree_key_compareISt4lessINSt7__cxx1112basic_stringIcSt11char_traitsIcESaIcEEEEEC2Ev
	ldr	x0, [sp, 24]
	add	x0, x0, 8
	bl	_ZNSt15_Rb_tree_headerC2Ev
	nop
	ldp	x29, x30, [sp], 32
	.cfi_restore 30
	.cfi_restore 29
	.cfi_def_cfa_offset 0
	ret
	.cfi_endproc
.LFE3933:
	.size	_ZNSt8_Rb_treeINSt7__cxx1112basic_stringIcSt11char_traitsIcESaIcEEESt4pairIKS5_S5_ESt10_Select1stIS8_ESt4lessIS5_ESaIS8_EE13_Rb_tree_implISC_Lb1EEC2Ev, .-_ZNSt8_Rb_treeINSt7__cxx1112basic_stringIcSt11char_traitsIcESaIcEEESt4pairIKS5_S5_ESt10_Select1stIS8_ESt4lessIS5_ESaIS8_EE13_Rb_tree_implISC_Lb1EEC2Ev
	.weak	_ZNSt8_Rb_treeINSt7__cxx1112basic_stringIcSt11char_traitsIcESaIcEEESt4pairIKS5_S5_ESt10_Select1stIS8_ESt4lessIS5_ESaIS8_EE13_Rb_tree_implISC_Lb1EEC1Ev
	.set	_ZNSt8_Rb_treeINSt7__cxx1112basic_stringIcSt11char_traitsIcESaIcEEESt4pairIKS5_S5_ESt10_Select1stIS8_ESt4lessIS5_ESaIS8_EE13_Rb_tree_implISC_Lb1EEC1Ev,_ZNSt8_Rb_treeINSt7__cxx1112basic_stringIcSt11char_traitsIcESaIcEEESt4pairIKS5_S5_ESt10_Select1stIS8_ESt4lessIS5_ESaIS8_EE13_Rb_tree_implISC_Lb1EEC2Ev
	.section	.text._ZNSaISt13_Rb_tree_nodeISt4pairIKNSt7__cxx1112basic_stringIcSt11char_traitsIcESaIcEEES6_EEED2Ev,"axG",@progbits,_ZNSaISt13_Rb_tree_nodeISt4pairIKNSt7__cxx1112basic_stringIcSt11char_traitsIcESaIcEEES6_EEED5Ev,comdat
	.align	2
	.weak	_ZNSaISt13_Rb_tree_nodeISt4pairIKNSt7__cxx1112basic_stringIcSt11char_traitsIcESaIcEEES6_EEED2Ev
	.type	_ZNSaISt13_Rb_tree_nodeISt4pairIKNSt7__cxx1112basic_stringIcSt11char_traitsIcESaIcEEES6_EEED2Ev, %function
_ZNSaISt13_Rb_tree_nodeISt4pairIKNSt7__cxx1112basic_stringIcSt11char_traitsIcESaIcEEES6_EEED2Ev:
.LFB3936:
	.cfi_startproc
	stp	x29, x30, [sp, -32]!
	.cfi_def_cfa_offset 32
	.cfi_offset 29, -32
	.cfi_offset 30, -24
	mov	x29, sp
	str	x0, [sp, 24]
	ldr	x0, [sp, 24]
	bl	_ZN9__gnu_cxx13new_allocatorISt13_Rb_tree_nodeISt4pairIKNSt7__cxx1112basic_stringIcSt11char_traitsIcESaIcEEES8_EEED2Ev
	nop
	ldp	x29, x30, [sp], 32
	.cfi_restore 30
	.cfi_restore 29
	.cfi_def_cfa_offset 0
	ret
	.cfi_endproc
.LFE3936:
	.size	_ZNSaISt13_Rb_tree_nodeISt4pairIKNSt7__cxx1112basic_stringIcSt11char_traitsIcESaIcEEES6_EEED2Ev, .-_ZNSaISt13_Rb_tree_nodeISt4pairIKNSt7__cxx1112basic_stringIcSt11char_traitsIcESaIcEEES6_EEED2Ev
	.weak	_ZNSaISt13_Rb_tree_nodeISt4pairIKNSt7__cxx1112basic_stringIcSt11char_traitsIcESaIcEEES6_EEED1Ev
	.set	_ZNSaISt13_Rb_tree_nodeISt4pairIKNSt7__cxx1112basic_stringIcSt11char_traitsIcESaIcEEES6_EEED1Ev,_ZNSaISt13_Rb_tree_nodeISt4pairIKNSt7__cxx1112basic_stringIcSt11char_traitsIcESaIcEEES6_EEED2Ev
	.section	.text._ZNSt8_Rb_treeINSt7__cxx1112basic_stringIcSt11char_traitsIcESaIcEEESt4pairIKS5_S5_ESt10_Select1stIS8_ESt4lessIS5_ESaIS8_EED2Ev,"axG",@progbits,_ZNSt8_Rb_treeINSt7__cxx1112basic_stringIcSt11char_traitsIcESaIcEEESt4pairIKS5_S5_ESt10_Select1stIS8_ESt4lessIS5_ESaIS8_EED5Ev,comdat
	.align	2
	.weak	_ZNSt8_Rb_treeINSt7__cxx1112basic_stringIcSt11char_traitsIcESaIcEEESt4pairIKS5_S5_ESt10_Select1stIS8_ESt4lessIS5_ESaIS8_EED2Ev
	.type	_ZNSt8_Rb_treeINSt7__cxx1112basic_stringIcSt11char_traitsIcESaIcEEESt4pairIKS5_S5_ESt10_Select1stIS8_ESt4lessIS5_ESaIS8_EED2Ev, %function
_ZNSt8_Rb_treeINSt7__cxx1112basic_stringIcSt11char_traitsIcESaIcEEESt4pairIKS5_S5_ESt10_Select1stIS8_ESt4lessIS5_ESaIS8_EED2Ev:
.LFB3939:
	.cfi_startproc
	.cfi_personality 0x9b,DW.ref.__gxx_personality_v0
	.cfi_lsda 0x1b,.LLSDA3939
	stp	x29, x30, [sp, -32]!
	.cfi_def_cfa_offset 32
	.cfi_offset 29, -32
	.cfi_offset 30, -24
	mov	x29, sp
	str	x0, [sp, 24]
	ldr	x0, [sp, 24]
	bl	_ZNSt8_Rb_treeINSt7__cxx1112basic_stringIcSt11char_traitsIcESaIcEEESt4pairIKS5_S5_ESt10_Select1stIS8_ESt4lessIS5_ESaIS8_EE8_M_beginEv
	mov	x1, x0
	ldr	x0, [sp, 24]
	bl	_ZNSt8_Rb_treeINSt7__cxx1112basic_stringIcSt11char_traitsIcESaIcEEESt4pairIKS5_S5_ESt10_Select1stIS8_ESt4lessIS5_ESaIS8_EE8_M_eraseEPSt13_Rb_tree_nodeIS8_E
	ldr	x0, [sp, 24]
	bl	_ZNSt8_Rb_treeINSt7__cxx1112basic_stringIcSt11char_traitsIcESaIcEEESt4pairIKS5_S5_ESt10_Select1stIS8_ESt4lessIS5_ESaIS8_EE13_Rb_tree_implISC_Lb1EED1Ev
	nop
	ldp	x29, x30, [sp], 32
	.cfi_restore 30
	.cfi_restore 29
	.cfi_def_cfa_offset 0
	ret
	.cfi_endproc
.LFE3939:
	.section	.gcc_except_table
.LLSDA3939:
	.byte	0xff
	.byte	0xff
	.byte	0x1
	.uleb128 .LLSDACSE3939-.LLSDACSB3939
.LLSDACSB3939:
.LLSDACSE3939:
	.section	.text._ZNSt8_Rb_treeINSt7__cxx1112basic_stringIcSt11char_traitsIcESaIcEEESt4pairIKS5_S5_ESt10_Select1stIS8_ESt4lessIS5_ESaIS8_EED2Ev,"axG",@progbits,_ZNSt8_Rb_treeINSt7__cxx1112basic_stringIcSt11char_traitsIcESaIcEEESt4pairIKS5_S5_ESt10_Select1stIS8_ESt4lessIS5_ESaIS8_EED5Ev,comdat
	.size	_ZNSt8_Rb_treeINSt7__cxx1112basic_stringIcSt11char_traitsIcESaIcEEESt4pairIKS5_S5_ESt10_Select1stIS8_ESt4lessIS5_ESaIS8_EED2Ev, .-_ZNSt8_Rb_treeINSt7__cxx1112basic_stringIcSt11char_traitsIcESaIcEEESt4pairIKS5_S5_ESt10_Select1stIS8_ESt4lessIS5_ESaIS8_EED2Ev
	.weak	_ZNSt8_Rb_treeINSt7__cxx1112basic_stringIcSt11char_traitsIcESaIcEEESt4pairIKS5_S5_ESt10_Select1stIS8_ESt4lessIS5_ESaIS8_EED1Ev
	.set	_ZNSt8_Rb_treeINSt7__cxx1112basic_stringIcSt11char_traitsIcESaIcEEESt4pairIKS5_S5_ESt10_Select1stIS8_ESt4lessIS5_ESaIS8_EED1Ev,_ZNSt8_Rb_treeINSt7__cxx1112basic_stringIcSt11char_traitsIcESaIcEEESt4pairIKS5_S5_ESt10_Select1stIS8_ESt4lessIS5_ESaIS8_EED2Ev
	.section	.text._ZNSt6vectorINSt7__cxx1112basic_stringIcSt11char_traitsIcESaIcEEESaIS5_EEC2ERKS7_,"axG",@progbits,_ZNSt6vectorINSt7__cxx1112basic_stringIcSt11char_traitsIcESaIcEEESaIS5_EEC5ERKS7_,comdat
	.align	2
	.weak	_ZNSt6vectorINSt7__cxx1112basic_stringIcSt11char_traitsIcESaIcEEESaIS5_EEC2ERKS7_
	.type	_ZNSt6vectorINSt7__cxx1112basic_stringIcSt11char_traitsIcESaIcEEESaIS5_EEC2ERKS7_, %function
_ZNSt6vectorINSt7__cxx1112basic_stringIcSt11char_traitsIcESaIcEEESaIS5_EEC2ERKS7_:
.LFB3942:
	.cfi_startproc
	.cfi_personality 0x9b,DW.ref.__gxx_personality_v0
	.cfi_lsda 0x1b,.LLSDA3942
	stp	x29, x30, [sp, -80]!
	.cfi_def_cfa_offset 80
	.cfi_offset 29, -80
	.cfi_offset 30, -72
	mov	x29, sp
	stp	x19, x20, [sp, 16]
	str	x21, [sp, 32]
	.cfi_offset 19, -64
	.cfi_offset 20, -56
	.cfi_offset 21, -48
	str	x0, [sp, 56]
	str	x1, [sp, 48]
	adrp	x0, :got:__stack_chk_guard
	ldr	x0, [x0, #:got_lo12:__stack_chk_guard]
	ldr	x1, [x0]
	str	x1, [sp, 72]
	mov	x1, 0
	ldr	x19, [sp, 56]
	ldr	x0, [sp, 48]
	bl	_ZNKSt6vectorINSt7__cxx1112basic_stringIcSt11char_traitsIcESaIcEEESaIS5_EE4sizeEv
	mov	x20, x0
	ldr	x0, [sp, 48]
	bl	_ZNKSt12_Vector_baseINSt7__cxx1112basic_stringIcSt11char_traitsIcESaIcEEESaIS5_EE19_M_get_Tp_allocatorEv
	mov	x1, x0
	add	x0, sp, 64
	mov	x8, x0
	mov	x0, x1
.LEHB99:
	bl	_ZN9__gnu_cxx14__alloc_traitsISaINSt7__cxx1112basic_stringIcSt11char_traitsIcESaIcEEEES6_E17_S_select_on_copyERKS7_
.LEHE99:
	add	x0, sp, 64
	mov	x2, x0
	mov	x1, x20
	mov	x0, x19
.LEHB100:
	bl	_ZNSt12_Vector_baseINSt7__cxx1112basic_stringIcSt11char_traitsIcESaIcEEESaIS5_EEC2EmRKS6_
.LEHE100:
	add	x0, sp, 64
	bl	_ZNSaINSt7__cxx1112basic_stringIcSt11char_traitsIcESaIcEEEED1Ev
	ldr	x0, [sp, 48]
	bl	_ZNKSt6vectorINSt7__cxx1112basic_stringIcSt11char_traitsIcESaIcEEESaIS5_EE5beginEv
	mov	x20, x0
	ldr	x0, [sp, 48]
	bl	_ZNKSt6vectorINSt7__cxx1112basic_stringIcSt11char_traitsIcESaIcEEESaIS5_EE3endEv
	mov	x21, x0
	ldr	x0, [sp, 56]
	ldr	x19, [x0]
	ldr	x0, [sp, 56]
	bl	_ZNSt12_Vector_baseINSt7__cxx1112basic_stringIcSt11char_traitsIcESaIcEEESaIS5_EE19_M_get_Tp_allocatorEv
	mov	x3, x0
	mov	x2, x19
	mov	x1, x21
	mov	x0, x20
.LEHB101:
	bl	_ZSt22__uninitialized_copy_aIN9__gnu_cxx17__normal_iteratorIPKNSt7__cxx1112basic_stringIcSt11char_traitsIcESaIcEEESt6vectorIS7_SaIS7_EEEEPS7_S7_ET0_T_SG_SF_RSaIT1_E
.LEHE101:
	mov	x1, x0
	ldr	x0, [sp, 56]
	str	x1, [x0, 8]
	nop
	adrp	x0, :got:__stack_chk_guard
	ldr	x0, [x0, #:got_lo12:__stack_chk_guard]
	ldr	x2, [sp, 72]
	ldr	x1, [x0]
	subs	x2, x2, x1
	mov	x1, 0
	beq	.L496
	b	.L499
.L497:
	mov	x19, x0
	add	x0, sp, 64
	bl	_ZNSaINSt7__cxx1112basic_stringIcSt11char_traitsIcESaIcEEEED1Ev
	mov	x0, x19
.LEHB102:
	bl	_Unwind_Resume
.L498:
	mov	x19, x0
	ldr	x0, [sp, 56]
	bl	_ZNSt12_Vector_baseINSt7__cxx1112basic_stringIcSt11char_traitsIcESaIcEEESaIS5_EED2Ev
	mov	x0, x19
	bl	_Unwind_Resume
.LEHE102:
.L499:
	bl	__stack_chk_fail
.L496:
	ldp	x19, x20, [sp, 16]
	ldr	x21, [sp, 32]
	ldp	x29, x30, [sp], 80
	.cfi_restore 30
	.cfi_restore 29
	.cfi_restore 21
	.cfi_restore 19
	.cfi_restore 20
	.cfi_def_cfa_offset 0
	ret
	.cfi_endproc
.LFE3942:
	.section	.gcc_except_table
.LLSDA3942:
	.byte	0xff
	.byte	0xff
	.byte	0x1
	.uleb128 .LLSDACSE3942-.LLSDACSB3942
.LLSDACSB3942:
	.uleb128 .LEHB99-.LFB3942
	.uleb128 .LEHE99-.LEHB99
	.uleb128 0
	.uleb128 0
	.uleb128 .LEHB100-.LFB3942
	.uleb128 .LEHE100-.LEHB100
	.uleb128 .L497-.LFB3942
	.uleb128 0
	.uleb128 .LEHB101-.LFB3942
	.uleb128 .LEHE101-.LEHB101
	.uleb128 .L498-.LFB3942
	.uleb128 0
	.uleb128 .LEHB102-.LFB3942
	.uleb128 .LEHE102-.LEHB102
	.uleb128 0
	.uleb128 0
.LLSDACSE3942:
	.section	.text._ZNSt6vectorINSt7__cxx1112basic_stringIcSt11char_traitsIcESaIcEEESaIS5_EEC2ERKS7_,"axG",@progbits,_ZNSt6vectorINSt7__cxx1112basic_stringIcSt11char_traitsIcESaIcEEESaIS5_EEC5ERKS7_,comdat
	.size	_ZNSt6vectorINSt7__cxx1112basic_stringIcSt11char_traitsIcESaIcEEESaIS5_EEC2ERKS7_, .-_ZNSt6vectorINSt7__cxx1112basic_stringIcSt11char_traitsIcESaIcEEESaIS5_EEC2ERKS7_
	.weak	_ZNSt6vectorINSt7__cxx1112basic_stringIcSt11char_traitsIcESaIcEEESaIS5_EEC1ERKS7_
	.set	_ZNSt6vectorINSt7__cxx1112basic_stringIcSt11char_traitsIcESaIcEEESaIS5_EEC1ERKS7_,_ZNSt6vectorINSt7__cxx1112basic_stringIcSt11char_traitsIcESaIcEEESaIS5_EEC2ERKS7_
	.section	.text._ZNSaINSt7__cxx1112basic_stringIcSt11char_traitsIcESaIcEEEEC2Ev,"axG",@progbits,_ZNSaINSt7__cxx1112basic_stringIcSt11char_traitsIcESaIcEEEEC5Ev,comdat
	.align	2
	.weak	_ZNSaINSt7__cxx1112basic_stringIcSt11char_traitsIcESaIcEEEEC2Ev
	.type	_ZNSaINSt7__cxx1112basic_stringIcSt11char_traitsIcESaIcEEEEC2Ev, %function
_ZNSaINSt7__cxx1112basic_stringIcSt11char_traitsIcESaIcEEEEC2Ev:
.LFB3945:
	.cfi_startproc
	stp	x29, x30, [sp, -32]!
	.cfi_def_cfa_offset 32
	.cfi_offset 29, -32
	.cfi_offset 30, -24
	mov	x29, sp
	str	x0, [sp, 24]
	ldr	x0, [sp, 24]
	bl	_ZN9__gnu_cxx13new_allocatorINSt7__cxx1112basic_stringIcSt11char_traitsIcESaIcEEEEC2Ev
	nop
	ldp	x29, x30, [sp], 32
	.cfi_restore 30
	.cfi_restore 29
	.cfi_def_cfa_offset 0
	ret
	.cfi_endproc
.LFE3945:
	.size	_ZNSaINSt7__cxx1112basic_stringIcSt11char_traitsIcESaIcEEEEC2Ev, .-_ZNSaINSt7__cxx1112basic_stringIcSt11char_traitsIcESaIcEEEEC2Ev
	.weak	_ZNSaINSt7__cxx1112basic_stringIcSt11char_traitsIcESaIcEEEEC1Ev
	.set	_ZNSaINSt7__cxx1112basic_stringIcSt11char_traitsIcESaIcEEEEC1Ev,_ZNSaINSt7__cxx1112basic_stringIcSt11char_traitsIcESaIcEEEEC2Ev
	.section	.text._ZN9__gnu_cxx14__alloc_traitsISaISt13_Rb_tree_nodeISt4pairIKNSt7__cxx1112basic_stringIcSt11char_traitsIcESaIcEEES8_EEESB_E27_S_propagate_on_copy_assignEv,"axG",@progbits,_ZN9__gnu_cxx14__alloc_traitsISaISt13_Rb_tree_nodeISt4pairIKNSt7__cxx1112basic_stringIcSt11char_traitsIcESaIcEEES8_EEESB_E27_S_propagate_on_copy_assignEv,comdat
	.align	2
	.weak	_ZN9__gnu_cxx14__alloc_traitsISaISt13_Rb_tree_nodeISt4pairIKNSt7__cxx1112basic_stringIcSt11char_traitsIcESaIcEEES8_EEESB_E27_S_propagate_on_copy_assignEv
	.type	_ZN9__gnu_cxx14__alloc_traitsISaISt13_Rb_tree_nodeISt4pairIKNSt7__cxx1112basic_stringIcSt11char_traitsIcESaIcEEES8_EEESB_E27_S_propagate_on_copy_assignEv, %function
_ZN9__gnu_cxx14__alloc_traitsISaISt13_Rb_tree_nodeISt4pairIKNSt7__cxx1112basic_stringIcSt11char_traitsIcESaIcEEES8_EEESB_E27_S_propagate_on_copy_assignEv:
.LFB3956:
	.cfi_startproc
	mov	w0, 0
	ret
	.cfi_endproc
.LFE3956:
	.size	_ZN9__gnu_cxx14__alloc_traitsISaISt13_Rb_tree_nodeISt4pairIKNSt7__cxx1112basic_stringIcSt11char_traitsIcESaIcEEES8_EEESB_E27_S_propagate_on_copy_assignEv, .-_ZN9__gnu_cxx14__alloc_traitsISaISt13_Rb_tree_nodeISt4pairIKNSt7__cxx1112basic_stringIcSt11char_traitsIcESaIcEEES8_EEESB_E27_S_propagate_on_copy_assignEv
	.section	.text._ZN9__gnu_cxx14__alloc_traitsISaISt13_Rb_tree_nodeISt4pairIKNSt7__cxx1112basic_stringIcSt11char_traitsIcESaIcEEES8_EEESB_E15_S_always_equalEv,"axG",@progbits,_ZN9__gnu_cxx14__alloc_traitsISaISt13_Rb_tree_nodeISt4pairIKNSt7__cxx1112basic_stringIcSt11char_traitsIcESaIcEEES8_EEESB_E15_S_always_equalEv,comdat
	.align	2
	.weak	_ZN9__gnu_cxx14__alloc_traitsISaISt13_Rb_tree_nodeISt4pairIKNSt7__cxx1112basic_stringIcSt11char_traitsIcESaIcEEES8_EEESB_E15_S_always_equalEv
	.type	_ZN9__gnu_cxx14__alloc_traitsISaISt13_Rb_tree_nodeISt4pairIKNSt7__cxx1112basic_stringIcSt11char_traitsIcESaIcEEES8_EEESB_E15_S_always_equalEv, %function
_ZN9__gnu_cxx14__alloc_traitsISaISt13_Rb_tree_nodeISt4pairIKNSt7__cxx1112basic_stringIcSt11char_traitsIcESaIcEEES8_EEESB_E15_S_always_equalEv:
.LFB3957:
	.cfi_startproc
	mov	w0, 1
	ret
	.cfi_endproc
.LFE3957:
	.size	_ZN9__gnu_cxx14__alloc_traitsISaISt13_Rb_tree_nodeISt4pairIKNSt7__cxx1112basic_stringIcSt11char_traitsIcESaIcEEES8_EEESB_E15_S_always_equalEv, .-_ZN9__gnu_cxx14__alloc_traitsISaISt13_Rb_tree_nodeISt4pairIKNSt7__cxx1112basic_stringIcSt11char_traitsIcESaIcEEES8_EEESB_E15_S_always_equalEv
	.section	.text._ZNSt8_Rb_treeINSt7__cxx1112basic_stringIcSt11char_traitsIcESaIcEEESt4pairIKS5_S5_ESt10_Select1stIS8_ESt4lessIS5_ESaIS8_EEaSERKSE_,"axG",@progbits,_ZNSt8_Rb_treeINSt7__cxx1112basic_stringIcSt11char_traitsIcESaIcEEESt4pairIKS5_S5_ESt10_Select1stIS8_ESt4lessIS5_ESaIS8_EEaSERKSE_,comdat
	.align	2
	.weak	_ZNSt8_Rb_treeINSt7__cxx1112basic_stringIcSt11char_traitsIcESaIcEEESt4pairIKS5_S5_ESt10_Select1stIS8_ESt4lessIS5_ESaIS8_EEaSERKSE_
	.type	_ZNSt8_Rb_treeINSt7__cxx1112basic_stringIcSt11char_traitsIcESaIcEEESt4pairIKS5_S5_ESt10_Select1stIS8_ESt4lessIS5_ESaIS8_EEaSERKSE_, %function
_ZNSt8_Rb_treeINSt7__cxx1112basic_stringIcSt11char_traitsIcESaIcEEESt4pairIKS5_S5_ESt10_Select1stIS8_ESt4lessIS5_ESaIS8_EEaSERKSE_:
.LFB3954:
	.cfi_startproc
	.cfi_personality 0x9b,DW.ref.__gxx_personality_v0
	.cfi_lsda 0x1b,.LLSDA3954
	stp	x29, x30, [sp, -96]!
	.cfi_def_cfa_offset 96
	.cfi_offset 29, -96
	.cfi_offset 30, -88
	mov	x29, sp
	str	x19, [sp, 16]
	.cfi_offset 19, -80
	str	x0, [sp, 40]
	str	x1, [sp, 32]
	adrp	x0, :got:__stack_chk_guard
	ldr	x0, [x0, #:got_lo12:__stack_chk_guard]
	ldr	x1, [x0]
	str	x1, [sp, 88]
	mov	x1, 0
	ldr	x1, [sp, 40]
	ldr	x0, [sp, 32]
	cmp	x1, x0
	beq	.L506
	bl	_ZN9__gnu_cxx14__alloc_traitsISaISt13_Rb_tree_nodeISt4pairIKNSt7__cxx1112basic_stringIcSt11char_traitsIcESaIcEEES8_EEESB_E27_S_propagate_on_copy_assignEv
	and	w0, w0, 255
	cmp	w0, 0
	beq	.L507
	ldr	x0, [sp, 40]
	bl	_ZNSt8_Rb_treeINSt7__cxx1112basic_stringIcSt11char_traitsIcESaIcEEESt4pairIKS5_S5_ESt10_Select1stIS8_ESt4lessIS5_ESaIS8_EE21_M_get_Node_allocatorEv
	str	x0, [sp, 48]
	ldr	x0, [sp, 32]
	bl	_ZNKSt8_Rb_treeINSt7__cxx1112basic_stringIcSt11char_traitsIcESaIcEEESt4pairIKS5_S5_ESt10_Select1stIS8_ESt4lessIS5_ESaIS8_EE21_M_get_Node_allocatorEv
	str	x0, [sp, 56]
	bl	_ZN9__gnu_cxx14__alloc_traitsISaISt13_Rb_tree_nodeISt4pairIKNSt7__cxx1112basic_stringIcSt11char_traitsIcESaIcEEES8_EEESB_E15_S_always_equalEv
	and	w0, w0, 255
	eor	w0, w0, 1
	and	w0, w0, 255
	cmp	w0, 0
	beq	.L508
	ldr	x1, [sp, 56]
	ldr	x0, [sp, 48]
	bl	_ZStneRKSaISt13_Rb_tree_nodeISt4pairIKNSt7__cxx1112basic_stringIcSt11char_traitsIcESaIcEEES6_EEESC_
	and	w0, w0, 255
	cmp	w0, 0
	beq	.L508
	mov	w0, 1
	b	.L509
.L508:
	mov	w0, 0
.L509:
	cmp	w0, 0
	beq	.L507
	ldr	x0, [sp, 40]
	bl	_ZNSt8_Rb_treeINSt7__cxx1112basic_stringIcSt11char_traitsIcESaIcEEESt4pairIKS5_S5_ESt10_Select1stIS8_ESt4lessIS5_ESaIS8_EE5clearEv
	ldr	x1, [sp, 56]
	ldr	x0, [sp, 48]
	bl	_ZSt15__alloc_on_copyISaISt13_Rb_tree_nodeISt4pairIKNSt7__cxx1112basic_stringIcSt11char_traitsIcESaIcEEES7_EEEEvRT_RKSC_
.L507:
	add	x0, sp, 64
	ldr	x1, [sp, 40]
	bl	_ZNSt8_Rb_treeINSt7__cxx1112basic_stringIcSt11char_traitsIcESaIcEEESt4pairIKS5_S5_ESt10_Select1stIS8_ESt4lessIS5_ESaIS8_EE20_Reuse_or_alloc_nodeC1ERSE_
	ldr	x0, [sp, 40]
	add	x0, x0, 8
	bl	_ZNSt15_Rb_tree_header8_M_resetEv
	ldr	x0, [sp, 32]
	bl	_ZNKSt8_Rb_treeINSt7__cxx1112basic_stringIcSt11char_traitsIcESaIcEEESt4pairIKS5_S5_ESt10_Select1stIS8_ESt4lessIS5_ESaIS8_EE7_M_rootEv
	cmp	x0, 0
	cset	w0, ne
	and	w0, w0, 255
	cmp	w0, 0
	beq	.L510
	add	x0, sp, 64
	mov	x2, x0
	ldr	x1, [sp, 32]
	ldr	x0, [sp, 40]
.LEHB103:
	bl	_ZNSt8_Rb_treeINSt7__cxx1112basic_stringIcSt11char_traitsIcESaIcEEESt4pairIKS5_S5_ESt10_Select1stIS8_ESt4lessIS5_ESaIS8_EE7_M_copyILb0ENSE_20_Reuse_or_alloc_nodeEEEPSt13_Rb_tree_nodeIS8_ERKSE_RT0_
.LEHE103:
	mov	x19, x0
	ldr	x0, [sp, 40]
	bl	_ZNSt8_Rb_treeINSt7__cxx1112basic_stringIcSt11char_traitsIcESaIcEEESt4pairIKS5_S5_ESt10_Select1stIS8_ESt4lessIS5_ESaIS8_EE7_M_rootEv
	str	x19, [x0]
.L510:
	add	x0, sp, 64
	bl	_ZNSt8_Rb_treeINSt7__cxx1112basic_stringIcSt11char_traitsIcESaIcEEESt4pairIKS5_S5_ESt10_Select1stIS8_ESt4lessIS5_ESaIS8_EE20_Reuse_or_alloc_nodeD1Ev
.L506:
	ldr	x0, [sp, 40]
	mov	x1, x0
	adrp	x0, :got:__stack_chk_guard
	ldr	x0, [x0, #:got_lo12:__stack_chk_guard]
	ldr	x3, [sp, 88]
	ldr	x2, [x0]
	subs	x3, x3, x2
	mov	x2, 0
	beq	.L513
	b	.L515
.L514:
	mov	x19, x0
	add	x0, sp, 64
	bl	_ZNSt8_Rb_treeINSt7__cxx1112basic_stringIcSt11char_traitsIcESaIcEEESt4pairIKS5_S5_ESt10_Select1stIS8_ESt4lessIS5_ESaIS8_EE20_Reuse_or_alloc_nodeD1Ev
	mov	x0, x19
.LEHB104:
	bl	_Unwind_Resume
.LEHE104:
.L515:
	bl	__stack_chk_fail
.L513:
	mov	x0, x1
	ldr	x19, [sp, 16]
	ldp	x29, x30, [sp], 96
	.cfi_restore 30
	.cfi_restore 29
	.cfi_restore 19
	.cfi_def_cfa_offset 0
	ret
	.cfi_endproc
.LFE3954:
	.section	.gcc_except_table
.LLSDA3954:
	.byte	0xff
	.byte	0xff
	.byte	0x1
	.uleb128 .LLSDACSE3954-.LLSDACSB3954
.LLSDACSB3954:
	.uleb128 .LEHB103-.LFB3954
	.uleb128 .LEHE103-.LEHB103
	.uleb128 .L514-.LFB3954
	.uleb128 0
	.uleb128 .LEHB104-.LFB3954
	.uleb128 .LEHE104-.LEHB104
	.uleb128 0
	.uleb128 0
.LLSDACSE3954:
	.section	.text._ZNSt8_Rb_treeINSt7__cxx1112basic_stringIcSt11char_traitsIcESaIcEEESt4pairIKS5_S5_ESt10_Select1stIS8_ESt4lessIS5_ESaIS8_EEaSERKSE_,"axG",@progbits,_ZNSt8_Rb_treeINSt7__cxx1112basic_stringIcSt11char_traitsIcESaIcEEESt4pairIKS5_S5_ESt10_Select1stIS8_ESt4lessIS5_ESaIS8_EEaSERKSE_,comdat
	.size	_ZNSt8_Rb_treeINSt7__cxx1112basic_stringIcSt11char_traitsIcESaIcEEESt4pairIKS5_S5_ESt10_Select1stIS8_ESt4lessIS5_ESaIS8_EEaSERKSE_, .-_ZNSt8_Rb_treeINSt7__cxx1112basic_stringIcSt11char_traitsIcESaIcEEESt4pairIKS5_S5_ESt10_Select1stIS8_ESt4lessIS5_ESaIS8_EEaSERKSE_
