	.arch armv8-a
	.file	"shell_utils.cpp"
	.text
	.weak	_ZSt19piecewise_construct
	.section	.rodata._ZSt19piecewise_construct,"aG",@progbits,_ZSt19piecewise_construct,comdat
	.align	3
	.type	_ZSt19piecewise_construct, %gnu_unique_object
	.size	_ZSt19piecewise_construct, 1
_ZSt19piecewise_construct:
	.zero	1
	.section	.text._ZNSt11char_traitsIcE6lengthEPKc,"axG",@progbits,_ZNSt11char_traitsIcE6lengthEPKc,comdat
	.align	2
	.weak	_ZNSt11char_traitsIcE6lengthEPKc
	.type	_ZNSt11char_traitsIcE6lengthEPKc, %function
_ZNSt11char_traitsIcE6lengthEPKc:
.LFB381:
	.cfi_startproc
	stp	x29, x30, [sp, -48]!
	.cfi_def_cfa_offset 48
	.cfi_offset 29, -48
	.cfi_offset 30, -40
	mov	x29, sp
	str	x0, [sp, 24]
	ldr	x0, [sp, 24]
	str	x0, [sp, 40]
	mov	w0, 0
	cmp	w0, 0
	beq	.L3
	ldr	x0, [sp, 24]
	bl	_ZN9__gnu_cxx11char_traitsIcE6lengthEPKc
	b	.L4
.L3:
	ldr	x0, [sp, 24]
	bl	strlen
	nop
.L4:
	ldp	x29, x30, [sp], 48
	.cfi_restore 30
	.cfi_restore 29
	.cfi_def_cfa_offset 0
	ret
	.cfi_endproc
.LFE381:
	.size	_ZNSt11char_traitsIcE6lengthEPKc, .-_ZNSt11char_traitsIcE6lengthEPKc
	.section	.text._ZNSt9exceptionC2Ev,"axG",@progbits,_ZNSt9exceptionC5Ev,comdat
	.align	2
	.weak	_ZNSt9exceptionC2Ev
	.type	_ZNSt9exceptionC2Ev, %function
_ZNSt9exceptionC2Ev:
.LFB437:
	.cfi_startproc
	sub	sp, sp, #16
	.cfi_def_cfa_offset 16
	str	x0, [sp, 8]
	adrp	x0, :got:_ZTVSt9exception
	ldr	x0, [x0, #:got_lo12:_ZTVSt9exception]
	add	x1, x0, 16
	ldr	x0, [sp, 8]
	str	x1, [x0]
	nop
	add	sp, sp, 16
	.cfi_def_cfa_offset 0
	ret
	.cfi_endproc
.LFE437:
	.size	_ZNSt9exceptionC2Ev, .-_ZNSt9exceptionC2Ev
	.weak	_ZNSt9exceptionC1Ev
	.set	_ZNSt9exceptionC1Ev,_ZNSt9exceptionC2Ev
	.section	.text._ZnwmPv,"axG",@progbits,_ZnwmPv,comdat
	.align	2
	.weak	_ZnwmPv
	.type	_ZnwmPv, %function
_ZnwmPv:
.LFB445:
	.cfi_startproc
	sub	sp, sp, #16
	.cfi_def_cfa_offset 16
	str	x0, [sp, 8]
	str	x1, [sp]
	ldr	x0, [sp]
	add	sp, sp, 16
	.cfi_def_cfa_offset 0
	ret
	.cfi_endproc
.LFE445:
	.size	_ZnwmPv, .-_ZnwmPv
	.section	.text._ZdlPvS_,"axG",@progbits,_ZdlPvS_,comdat
	.align	2
	.weak	_ZdlPvS_
	.type	_ZdlPvS_, %function
_ZdlPvS_:
.LFB447:
	.cfi_startproc
	sub	sp, sp, #16
	.cfi_def_cfa_offset 16
	str	x0, [sp, 8]
	str	x1, [sp]
	nop
	add	sp, sp, 16
	.cfi_def_cfa_offset 0
	ret
	.cfi_endproc
.LFE447:
	.size	_ZdlPvS_, .-_ZdlPvS_
	.text
	.align	2
	.type	_ZL18__gthread_active_pv, %function
_ZL18__gthread_active_pv:
.LFB636:
	.cfi_startproc
	mov	w0, 1
	ret
	.cfi_endproc
.LFE636:
	.size	_ZL18__gthread_active_pv, .-_ZL18__gthread_active_pv
	.section	.text._ZL20__gthread_mutex_lockP15pthread_mutex_t,"axG",@progbits,_ZNSt5mutex4lockEv,comdat
	.align	2
	.type	_ZL20__gthread_mutex_lockP15pthread_mutex_t, %function
_ZL20__gthread_mutex_lockP15pthread_mutex_t:
.LFB650:
	.cfi_startproc
	stp	x29, x30, [sp, -32]!
	.cfi_def_cfa_offset 32
	.cfi_offset 29, -32
	.cfi_offset 30, -24
	mov	x29, sp
	str	x0, [sp, 24]
	bl	_ZL18__gthread_active_pv
	cmp	w0, 0
	cset	w0, ne
	and	w0, w0, 255
	cmp	w0, 0
	beq	.L12
	ldr	x0, [sp, 24]
	bl	pthread_mutex_lock
	b	.L13
.L12:
	mov	w0, 0
.L13:
	ldp	x29, x30, [sp], 32
	.cfi_restore 30
	.cfi_restore 29
	.cfi_def_cfa_offset 0
	ret
	.cfi_endproc
.LFE650:
	.size	_ZL20__gthread_mutex_lockP15pthread_mutex_t, .-_ZL20__gthread_mutex_lockP15pthread_mutex_t
	.section	.text._ZL22__gthread_mutex_unlockP15pthread_mutex_t,"axG",@progbits,_ZNSt5mutex6unlockEv,comdat
	.align	2
	.type	_ZL22__gthread_mutex_unlockP15pthread_mutex_t, %function
_ZL22__gthread_mutex_unlockP15pthread_mutex_t:
.LFB653:
	.cfi_startproc
	stp	x29, x30, [sp, -32]!
	.cfi_def_cfa_offset 32
	.cfi_offset 29, -32
	.cfi_offset 30, -24
	mov	x29, sp
	str	x0, [sp, 24]
	bl	_ZL18__gthread_active_pv
	cmp	w0, 0
	cset	w0, ne
	and	w0, w0, 255
	cmp	w0, 0
	beq	.L15
	ldr	x0, [sp, 24]
	bl	pthread_mutex_unlock
	b	.L16
.L15:
	mov	w0, 0
.L16:
	ldp	x29, x30, [sp], 32
	.cfi_restore 30
	.cfi_restore 29
	.cfi_def_cfa_offset 0
	ret
	.cfi_endproc
.LFE653:
	.size	_ZL22__gthread_mutex_unlockP15pthread_mutex_t, .-_ZL22__gthread_mutex_unlockP15pthread_mutex_t
	.section	.text._ZNSt18_Rb_tree_node_base10_S_minimumEPS_,"axG",@progbits,_ZNSt18_Rb_tree_node_base10_S_minimumEPS_,comdat
	.align	2
	.weak	_ZNSt18_Rb_tree_node_base10_S_minimumEPS_
	.type	_ZNSt18_Rb_tree_node_base10_S_minimumEPS_, %function
_ZNSt18_Rb_tree_node_base10_S_minimumEPS_:
.LFB1198:
	.cfi_startproc
	sub	sp, sp, #16
	.cfi_def_cfa_offset 16
	str	x0, [sp, 8]
	b	.L18
.L19:
	ldr	x0, [sp, 8]
	ldr	x0, [x0, 16]
	str	x0, [sp, 8]
.L18:
	ldr	x0, [sp, 8]
	ldr	x0, [x0, 16]
	cmp	x0, 0
	bne	.L19
	ldr	x0, [sp, 8]
	add	sp, sp, 16
	.cfi_def_cfa_offset 0
	ret
	.cfi_endproc
.LFE1198:
	.size	_ZNSt18_Rb_tree_node_base10_S_minimumEPS_, .-_ZNSt18_Rb_tree_node_base10_S_minimumEPS_
	.section	.text._ZNSt18_Rb_tree_node_base10_S_maximumEPS_,"axG",@progbits,_ZNSt18_Rb_tree_node_base10_S_maximumEPS_,comdat
	.align	2
	.weak	_ZNSt18_Rb_tree_node_base10_S_maximumEPS_
	.type	_ZNSt18_Rb_tree_node_base10_S_maximumEPS_, %function
_ZNSt18_Rb_tree_node_base10_S_maximumEPS_:
.LFB1200:
	.cfi_startproc
	sub	sp, sp, #16
	.cfi_def_cfa_offset 16
	str	x0, [sp, 8]
	b	.L22
.L23:
	ldr	x0, [sp, 8]
	ldr	x0, [x0, 24]
	str	x0, [sp, 8]
.L22:
	ldr	x0, [sp, 8]
	ldr	x0, [x0, 24]
	cmp	x0, 0
	bne	.L23
	ldr	x0, [sp, 8]
	add	sp, sp, 16
	.cfi_def_cfa_offset 0
	ret
	.cfi_endproc
.LFE1200:
	.size	_ZNSt18_Rb_tree_node_base10_S_maximumEPS_, .-_ZNSt18_Rb_tree_node_base10_S_maximumEPS_
	.section	.text._ZNSt15_Rb_tree_headerC2Ev,"axG",@progbits,_ZNSt15_Rb_tree_headerC5Ev,comdat
	.align	2
	.weak	_ZNSt15_Rb_tree_headerC2Ev
	.type	_ZNSt15_Rb_tree_headerC2Ev, %function
_ZNSt15_Rb_tree_headerC2Ev:
.LFB1206:
	.cfi_startproc
	stp	x29, x30, [sp, -32]!
	.cfi_def_cfa_offset 32
	.cfi_offset 29, -32
	.cfi_offset 30, -24
	mov	x29, sp
	str	x0, [sp, 24]
	ldr	x0, [sp, 24]
	str	wzr, [x0]
	ldr	x0, [sp, 24]
	bl	_ZNSt15_Rb_tree_header8_M_resetEv
	nop
	ldp	x29, x30, [sp], 32
	.cfi_restore 30
	.cfi_restore 29
	.cfi_def_cfa_offset 0
	ret
	.cfi_endproc
.LFE1206:
	.size	_ZNSt15_Rb_tree_headerC2Ev, .-_ZNSt15_Rb_tree_headerC2Ev
	.weak	_ZNSt15_Rb_tree_headerC1Ev
	.set	_ZNSt15_Rb_tree_headerC1Ev,_ZNSt15_Rb_tree_headerC2Ev
	.section	.text._ZNSt15_Rb_tree_header8_M_resetEv,"axG",@progbits,_ZNSt15_Rb_tree_header8_M_resetEv,comdat
	.align	2
	.weak	_ZNSt15_Rb_tree_header8_M_resetEv
	.type	_ZNSt15_Rb_tree_header8_M_resetEv, %function
_ZNSt15_Rb_tree_header8_M_resetEv:
.LFB1212:
	.cfi_startproc
	sub	sp, sp, #16
	.cfi_def_cfa_offset 16
	str	x0, [sp, 8]
	ldr	x0, [sp, 8]
	str	xzr, [x0, 8]
	ldr	x1, [sp, 8]
	ldr	x0, [sp, 8]
	str	x1, [x0, 16]
	ldr	x1, [sp, 8]
	ldr	x0, [sp, 8]
	str	x1, [x0, 24]
	ldr	x0, [sp, 8]
	str	xzr, [x0, 32]
	nop
	add	sp, sp, 16
	.cfi_def_cfa_offset 0
	ret
	.cfi_endproc
.LFE1212:
	.size	_ZNSt15_Rb_tree_header8_M_resetEv, .-_ZNSt15_Rb_tree_header8_M_resetEv
	.section	.rodata
	.type	_ZN10subprocessL8kIsWin32E, %object
	.size	_ZN10subprocessL8kIsWin32E, 1
_ZN10subprocessL8kIsWin32E:
	.zero	1
	.type	_ZN10subprocessL14kPathDelimiterE, %object
	.size	_ZN10subprocessL14kPathDelimiterE, 1
_ZN10subprocessL14kPathDelimiterE:
	.byte	58
	.align	2
	.type	_ZN10subprocessL13kBadPipeValueE, %object
	.size	_ZN10subprocessL13kBadPipeValueE, 4
_ZN10subprocessL13kBadPipeValueE:
	.word	-1
	.align	2
	.type	_ZN10subprocessL11kStdInValueE, %object
	.size	_ZN10subprocessL11kStdInValueE, 4
_ZN10subprocessL11kStdInValueE:
	.zero	4
	.align	2
	.type	_ZN10subprocessL12kStdOutValueE, %object
	.size	_ZN10subprocessL12kStdOutValueE, 4
_ZN10subprocessL12kStdOutValueE:
	.word	1
	.align	2
	.type	_ZN10subprocessL12kStdErrValueE, %object
	.size	_ZN10subprocessL12kStdErrValueE, 4
_ZN10subprocessL12kStdErrValueE:
	.word	2
	.align	2
	.type	_ZN10subprocessL14kBadReturnCodeE, %object
	.size	_ZN10subprocessL14kBadReturnCodeE, 4
_ZN10subprocessL14kBadReturnCodeE:
	.word	-1000
	.section	.text._ZNSt5mutex4lockEv,"axG",@progbits,_ZNSt5mutex4lockEv,comdat
	.align	2
	.weak	_ZNSt5mutex4lockEv
	.type	_ZNSt5mutex4lockEv, %function
_ZNSt5mutex4lockEv:
.LFB2576:
	.cfi_startproc
	stp	x29, x30, [sp, -48]!
	.cfi_def_cfa_offset 48
	.cfi_offset 29, -48
	.cfi_offset 30, -40
	mov	x29, sp
	str	x0, [sp, 24]
	ldr	x0, [sp, 24]
	bl	_ZL20__gthread_mutex_lockP15pthread_mutex_t
	str	w0, [sp, 44]
	ldr	w0, [sp, 44]
	cmp	w0, 0
	beq	.L29
	ldr	w0, [sp, 44]
	bl	_ZSt20__throw_system_errori
.L29:
	nop
	ldp	x29, x30, [sp], 48
	.cfi_restore 30
	.cfi_restore 29
	.cfi_def_cfa_offset 0
	ret
	.cfi_endproc
.LFE2576:
	.size	_ZNSt5mutex4lockEv, .-_ZNSt5mutex4lockEv
	.section	.text._ZNSt5mutex6unlockEv,"axG",@progbits,_ZNSt5mutex6unlockEv,comdat
	.align	2
	.weak	_ZNSt5mutex6unlockEv
	.type	_ZNSt5mutex6unlockEv, %function
_ZNSt5mutex6unlockEv:
.LFB2578:
	.cfi_startproc
	stp	x29, x30, [sp, -32]!
	.cfi_def_cfa_offset 32
	.cfi_offset 29, -32
	.cfi_offset 30, -24
	mov	x29, sp
	str	x0, [sp, 24]
	ldr	x0, [sp, 24]
	bl	_ZL22__gthread_mutex_unlockP15pthread_mutex_t
	nop
	ldp	x29, x30, [sp], 32
	.cfi_restore 30
	.cfi_restore 29
	.cfi_def_cfa_offset 0
	ret
	.cfi_endproc
.LFE2578:
	.size	_ZNSt5mutex6unlockEv, .-_ZNSt5mutex6unlockEv
	.section	.text._ZStorSt13_Ios_OpenmodeS_,"axG",@progbits,_ZStorSt13_Ios_OpenmodeS_,comdat
	.align	2
	.weak	_ZStorSt13_Ios_OpenmodeS_
	.type	_ZStorSt13_Ios_OpenmodeS_, %function
_ZStorSt13_Ios_OpenmodeS_:
.LFB2738:
	.cfi_startproc
	sub	sp, sp, #16
	.cfi_def_cfa_offset 16
	str	w0, [sp, 12]
	str	w1, [sp, 8]
	ldr	w1, [sp, 12]
	ldr	w0, [sp, 8]
	orr	w0, w1, w0
	add	sp, sp, 16
	.cfi_def_cfa_offset 0
	ret
	.cfi_endproc
.LFE2738:
	.size	_ZStorSt13_Ios_OpenmodeS_, .-_ZStorSt13_Ios_OpenmodeS_
	.section	.rodata
	.align	2
	.type	_ZN9__gnu_cxxL21__default_lock_policyE, %object
	.size	_ZN9__gnu_cxxL21__default_lock_policyE, 4
_ZN9__gnu_cxxL21__default_lock_policyE:
	.word	2
	.section	.text._ZNSt10filesystem7__cxx114path5_ListD2Ev,"axG",@progbits,_ZNSt10filesystem7__cxx114path5_ListD5Ev,comdat
	.align	2
	.weak	_ZNSt10filesystem7__cxx114path5_ListD2Ev
	.type	_ZNSt10filesystem7__cxx114path5_ListD2Ev, %function
_ZNSt10filesystem7__cxx114path5_ListD2Ev:
.LFB3847:
	.cfi_startproc
	stp	x29, x30, [sp, -32]!
	.cfi_def_cfa_offset 32
	.cfi_offset 29, -32
	.cfi_offset 30, -24
	mov	x29, sp
	str	x0, [sp, 24]
	ldr	x0, [sp, 24]
	bl	_ZNSt10unique_ptrINSt10filesystem7__cxx114path5_List5_ImplENS3_13_Impl_deleterEED1Ev
	nop
	ldp	x29, x30, [sp], 32
	.cfi_restore 30
	.cfi_restore 29
	.cfi_def_cfa_offset 0
	ret
	.cfi_endproc
.LFE3847:
	.size	_ZNSt10filesystem7__cxx114path5_ListD2Ev, .-_ZNSt10filesystem7__cxx114path5_ListD2Ev
	.weak	_ZNSt10filesystem7__cxx114path5_ListD1Ev
	.set	_ZNSt10filesystem7__cxx114path5_ListD1Ev,_ZNSt10filesystem7__cxx114path5_ListD2Ev
	.section	.text._ZNSt10filesystem7__cxx114pathD2Ev,"axG",@progbits,_ZNSt10filesystem7__cxx114pathD5Ev,comdat
	.align	2
	.weak	_ZNSt10filesystem7__cxx114pathD2Ev
	.type	_ZNSt10filesystem7__cxx114pathD2Ev, %function
_ZNSt10filesystem7__cxx114pathD2Ev:
.LFB3849:
	.cfi_startproc
	stp	x29, x30, [sp, -32]!
	.cfi_def_cfa_offset 32
	.cfi_offset 29, -32
	.cfi_offset 30, -24
	mov	x29, sp
	str	x0, [sp, 24]
	ldr	x0, [sp, 24]
	add	x0, x0, 32
	bl	_ZNSt10filesystem7__cxx114path5_ListD1Ev
	ldr	x0, [sp, 24]
	bl	_ZNSt7__cxx1112basic_stringIcSt11char_traitsIcESaIcEED1Ev
	nop
	ldp	x29, x30, [sp], 32
	.cfi_restore 30
	.cfi_restore 29
	.cfi_def_cfa_offset 0
	ret
	.cfi_endproc
.LFE3849:
	.size	_ZNSt10filesystem7__cxx114pathD2Ev, .-_ZNSt10filesystem7__cxx114pathD2Ev
	.weak	_ZNSt10filesystem7__cxx114pathD1Ev
	.set	_ZNSt10filesystem7__cxx114pathD1Ev,_ZNSt10filesystem7__cxx114pathD2Ev
	.section	.text._ZNKSt10filesystem7__cxx114path6stringEv,"axG",@progbits,_ZNKSt10filesystem7__cxx114path6stringEv,comdat
	.align	2
	.weak	_ZNKSt10filesystem7__cxx114path6stringEv
	.type	_ZNKSt10filesystem7__cxx114path6stringEv, %function
_ZNKSt10filesystem7__cxx114path6stringEv:
.LFB3957:
	.cfi_startproc
	.cfi_personality 0x9b,DW.ref.__gxx_personality_v0
	.cfi_lsda 0x1b,.LLSDA3957
	stp	x29, x30, [sp, -64]!
	.cfi_def_cfa_offset 64
	.cfi_offset 29, -64
	.cfi_offset 30, -56
	mov	x29, sp
	str	x19, [sp, 16]
	.cfi_offset 19, -48
	mov	x19, x8
	str	x0, [sp, 40]
	adrp	x0, :got:__stack_chk_guard
	ldr	x0, [x0, #:got_lo12:__stack_chk_guard]
	ldr	x1, [x0]
	str	x1, [sp, 56]
	mov	x1, 0
	add	x0, sp, 48
	bl	_ZNSaIcEC1Ev
	add	x0, sp, 48
	mov	x8, x19
	mov	x1, x0
	ldr	x0, [sp, 40]
.LEHB0:
	bl	_ZNKSt10filesystem7__cxx114path6stringIcSt11char_traitsIcESaIcEEENSt7__cxx1112basic_stringIT_T0_T1_EERKSA_
.LEHE0:
	add	x0, sp, 48
	bl	_ZNSaIcED1Ev
	adrp	x0, :got:__stack_chk_guard
	ldr	x0, [x0, #:got_lo12:__stack_chk_guard]
	ldr	x2, [sp, 56]
	ldr	x1, [x0]
	subs	x2, x2, x1
	mov	x1, 0
	beq	.L38
	b	.L40
.L39:
	mov	x19, x0
	add	x0, sp, 48
	bl	_ZNSaIcED1Ev
	mov	x0, x19
.LEHB1:
	bl	_Unwind_Resume
.LEHE1:
.L40:
	bl	__stack_chk_fail
.L38:
	mov	x0, x19
	ldr	x19, [sp, 16]
	ldp	x29, x30, [sp], 64
	.cfi_restore 30
	.cfi_restore 29
	.cfi_restore 19
	.cfi_def_cfa_offset 0
	ret
	.cfi_endproc
.LFE3957:
	.global	__gxx_personality_v0
	.section	.gcc_except_table._ZNKSt10filesystem7__cxx114path6stringEv,"aG",@progbits,_ZNKSt10filesystem7__cxx114path6stringEv,comdat
.LLSDA3957:
	.byte	0xff
	.byte	0xff
	.byte	0x1
	.uleb128 .LLSDACSE3957-.LLSDACSB3957
.LLSDACSB3957:
	.uleb128 .LEHB0-.LFB3957
	.uleb128 .LEHE0-.LEHB0
	.uleb128 .L39-.LFB3957
	.uleb128 0
	.uleb128 .LEHB1-.LFB3957
	.uleb128 .LEHE1-.LEHB1
	.uleb128 0
	.uleb128 0
.LLSDACSE3957:
	.section	.text._ZNKSt10filesystem7__cxx114path6stringEv,"axG",@progbits,_ZNKSt10filesystem7__cxx114path6stringEv,comdat
	.size	_ZNKSt10filesystem7__cxx114path6stringEv, .-_ZNKSt10filesystem7__cxx114path6stringEv
	.section	.text._ZNKSt10filesystem11file_status4typeEv,"axG",@progbits,_ZNKSt10filesystem11file_status4typeEv,comdat
	.align	2
	.weak	_ZNKSt10filesystem11file_status4typeEv
	.type	_ZNKSt10filesystem11file_status4typeEv, %function
_ZNKSt10filesystem11file_status4typeEv:
.LFB3993:
	.cfi_startproc
	sub	sp, sp, #16
	.cfi_def_cfa_offset 16
	str	x0, [sp, 8]
	ldr	x0, [sp, 8]
	ldrsb	w0, [x0]
	add	sp, sp, 16
	.cfi_def_cfa_offset 0
	ret
	.cfi_endproc
.LFE3993:
	.size	_ZNKSt10filesystem11file_status4typeEv, .-_ZNKSt10filesystem11file_status4typeEv
	.section	.text._ZNSt10filesystem15is_regular_fileENS_11file_statusE,"axG",@progbits,_ZNSt10filesystem15is_regular_fileENS_11file_statusE,comdat
	.align	2
	.weak	_ZNSt10filesystem15is_regular_fileENS_11file_statusE
	.type	_ZNSt10filesystem15is_regular_fileENS_11file_statusE, %function
_ZNSt10filesystem15is_regular_fileENS_11file_statusE:
.LFB4156:
	.cfi_startproc
	stp	x29, x30, [sp, -32]!
	.cfi_def_cfa_offset 32
	.cfi_offset 29, -32
	.cfi_offset 30, -24
	mov	x29, sp
	str	x0, [sp, 24]
	add	x0, sp, 24
	bl	_ZNKSt10filesystem11file_status4typeEv
	sxtb	w0, w0
	cmp	w0, 1
	cset	w0, eq
	and	w0, w0, 255
	ldp	x29, x30, [sp], 32
	.cfi_restore 30
	.cfi_restore 29
	.cfi_def_cfa_offset 0
	ret
	.cfi_endproc
.LFE4156:
	.size	_ZNSt10filesystem15is_regular_fileENS_11file_statusE, .-_ZNSt10filesystem15is_regular_fileENS_11file_statusE
	.section	.text._ZNSt10filesystem15is_regular_fileERKNS_7__cxx114pathE,"axG",@progbits,_ZNSt10filesystem15is_regular_fileERKNS_7__cxx114pathE,comdat
	.align	2
	.weak	_ZNSt10filesystem15is_regular_fileERKNS_7__cxx114pathE
	.type	_ZNSt10filesystem15is_regular_fileERKNS_7__cxx114pathE, %function
_ZNSt10filesystem15is_regular_fileERKNS_7__cxx114pathE:
.LFB4157:
	.cfi_startproc
	stp	x29, x30, [sp, -32]!
	.cfi_def_cfa_offset 32
	.cfi_offset 29, -32
	.cfi_offset 30, -24
	mov	x29, sp
	str	x0, [sp, 24]
	ldr	x0, [sp, 24]
	bl	_ZNSt10filesystem6statusERKNS_7__cxx114pathE
	bl	_ZNSt10filesystem15is_regular_fileENS_11file_statusE
	and	w0, w0, 255
	ldp	x29, x30, [sp], 32
	.cfi_restore 30
	.cfi_restore 29
	.cfi_def_cfa_offset 0
	ret
	.cfi_endproc
.LFE4157:
	.size	_ZNSt10filesystem15is_regular_fileERKNS_7__cxx114pathE, .-_ZNSt10filesystem15is_regular_fileERKNS_7__cxx114pathE
	.local	_ZStL8__ioinit
	.comm	_ZStL8__ioinit,1,8
	.section	.text._ZNKSt18bad_variant_access4whatEv,"axG",@progbits,_ZNKSt18bad_variant_access4whatEv,comdat
	.align	2
	.weak	_ZNKSt18bad_variant_access4whatEv
	.type	_ZNKSt18bad_variant_access4whatEv, %function
_ZNKSt18bad_variant_access4whatEv:
.LFB4278:
	.cfi_startproc
	sub	sp, sp, #16
	.cfi_def_cfa_offset 16
	str	x0, [sp, 8]
	ldr	x0, [sp, 8]
	ldr	x0, [x0, 8]
	add	sp, sp, 16
	.cfi_def_cfa_offset 0
	ret
	.cfi_endproc
.LFE4278:
	.size	_ZNKSt18bad_variant_access4whatEv, .-_ZNKSt18bad_variant_access4whatEv
	.section	.text._ZNSt18bad_variant_accessC2EPKc,"axG",@progbits,_ZNSt18bad_variant_accessC5EPKc,comdat
	.align	2
	.weak	_ZNSt18bad_variant_accessC2EPKc
	.type	_ZNSt18bad_variant_accessC2EPKc, %function
_ZNSt18bad_variant_accessC2EPKc:
.LFB4280:
	.cfi_startproc
	stp	x29, x30, [sp, -32]!
	.cfi_def_cfa_offset 32
	.cfi_offset 29, -32
	.cfi_offset 30, -24
	mov	x29, sp
	str	x0, [sp, 24]
	str	x1, [sp, 16]
	ldr	x0, [sp, 24]
	bl	_ZNSt9exceptionC2Ev
	adrp	x0, _ZTVSt18bad_variant_access+16
	add	x1, x0, :lo12:_ZTVSt18bad_variant_access+16
	ldr	x0, [sp, 24]
	str	x1, [x0]
	ldr	x0, [sp, 24]
	ldr	x1, [sp, 16]
	str	x1, [x0, 8]
	nop
	ldp	x29, x30, [sp], 32
	.cfi_restore 30
	.cfi_restore 29
	.cfi_def_cfa_offset 0
	ret
	.cfi_endproc
.LFE4280:
	.size	_ZNSt18bad_variant_accessC2EPKc, .-_ZNSt18bad_variant_accessC2EPKc
	.weak	_ZNSt18bad_variant_accessC1EPKc
	.set	_ZNSt18bad_variant_accessC1EPKc,_ZNSt18bad_variant_accessC2EPKc
	.section	.text._ZSt26__throw_bad_variant_accessPKc,"axG",@progbits,_ZSt26__throw_bad_variant_accessPKc,comdat
	.align	2
	.weak	_ZSt26__throw_bad_variant_accessPKc
	.type	_ZSt26__throw_bad_variant_accessPKc, %function
_ZSt26__throw_bad_variant_accessPKc:
.LFB4282:
	.cfi_startproc
	stp	x29, x30, [sp, -48]!
	.cfi_def_cfa_offset 48
	.cfi_offset 29, -48
	.cfi_offset 30, -40
	mov	x29, sp
	str	x19, [sp, 16]
	.cfi_offset 19, -32
	str	x0, [sp, 40]
	mov	x0, 16
	bl	__cxa_allocate_exception
	mov	x19, x0
	ldr	x1, [sp, 40]
	mov	x0, x19
	bl	_ZNSt18bad_variant_accessC1EPKc
	adrp	x0, _ZNSt18bad_variant_accessD1Ev
	add	x2, x0, :lo12:_ZNSt18bad_variant_accessD1Ev
	adrp	x0, _ZTISt18bad_variant_access
	add	x1, x0, :lo12:_ZTISt18bad_variant_access
	mov	x0, x19
	bl	__cxa_throw
	.cfi_endproc
.LFE4282:
	.size	_ZSt26__throw_bad_variant_accessPKc, .-_ZSt26__throw_bad_variant_accessPKc
	.section	.rodata
	.align	3
.LC0:
	.string	"std::get: variant is valueless"
	.align	3
.LC1:
	.string	"std::get: wrong index for variant"
	.section	.text._ZSt26__throw_bad_variant_accessb,"axG",@progbits,_ZSt26__throw_bad_variant_accessb,comdat
	.align	2
	.weak	_ZSt26__throw_bad_variant_accessb
	.type	_ZSt26__throw_bad_variant_accessb, %function
_ZSt26__throw_bad_variant_accessb:
.LFB4283:
	.cfi_startproc
	stp	x29, x30, [sp, -32]!
	.cfi_def_cfa_offset 32
	.cfi_offset 29, -32
	.cfi_offset 30, -24
	mov	x29, sp
	strb	w0, [sp, 31]
	ldrb	w0, [sp, 31]
	cmp	w0, 0
	beq	.L52
	adrp	x0, .LC0
	add	x0, x0, :lo12:.LC0
	bl	_ZSt26__throw_bad_variant_accessPKc
	b	.L54
.L52:
	adrp	x0, .LC1
	add	x0, x0, :lo12:.LC1
	bl	_ZSt26__throw_bad_variant_accessPKc
.L54:
	nop
	ldp	x29, x30, [sp], 32
	.cfi_restore 30
	.cfi_restore 29
	.cfi_def_cfa_offset 0
	ret
	.cfi_endproc
.LFE4283:
	.size	_ZSt26__throw_bad_variant_accessb, .-_ZSt26__throw_bad_variant_accessb
	.section	.text._ZNKSt7variantIJN10subprocess10PipeOptionENSt7__cxx1112basic_stringIcSt11char_traitsIcESaIcEEEiPSiPSoP8_IO_FILEEE5indexEv,"axG",@progbits,_ZNKSt7variantIJN10subprocess10PipeOptionENSt7__cxx1112basic_stringIcSt11char_traitsIcESaIcEEEiPSiPSoP8_IO_FILEEE5indexEv,comdat
	.align	2
	.weak	_ZNKSt7variantIJN10subprocess10PipeOptionENSt7__cxx1112basic_stringIcSt11char_traitsIcESaIcEEEiPSiPSoP8_IO_FILEEE5indexEv
	.type	_ZNKSt7variantIJN10subprocess10PipeOptionENSt7__cxx1112basic_stringIcSt11char_traitsIcESaIcEEEiPSiPSoP8_IO_FILEEE5indexEv, %function
_ZNKSt7variantIJN10subprocess10PipeOptionENSt7__cxx1112basic_stringIcSt11char_traitsIcESaIcEEEiPSiPSoP8_IO_FILEEE5indexEv:
.LFB4314:
	.cfi_startproc
	sub	sp, sp, #16
	.cfi_def_cfa_offset 16
	str	x0, [sp, 8]
	ldr	x0, [sp, 8]
	ldrb	w0, [x0, 32]
	and	x0, x0, 255
	add	sp, sp, 16
	.cfi_def_cfa_offset 0
	ret
	.cfi_endproc
.LFE4314:
	.size	_ZNKSt7variantIJN10subprocess10PipeOptionENSt7__cxx1112basic_stringIcSt11char_traitsIcESaIcEEEiPSiPSoP8_IO_FILEEE5indexEv, .-_ZNKSt7variantIJN10subprocess10PipeOptionENSt7__cxx1112basic_stringIcSt11char_traitsIcESaIcEEEiPSiPSoP8_IO_FILEEE5indexEv
	.section	.text._ZNSt8__detail9__variant15_Copy_ctor_baseILb0EJN10subprocess10PipeOptionENSt7__cxx1112basic_stringIcSt11char_traitsIcESaIcEEEiPSiPSoP8_IO_FILEEED2Ev,"axG",@progbits,_ZNSt8__detail9__variant15_Copy_ctor_baseILb0EJN10subprocess10PipeOptionENSt7__cxx1112basic_stringIcSt11char_traitsIcESaIcEEEiPSiPSoP8_IO_FILEEED5Ev,comdat
	.align	2
	.weak	_ZNSt8__detail9__variant15_Copy_ctor_baseILb0EJN10subprocess10PipeOptionENSt7__cxx1112basic_stringIcSt11char_traitsIcESaIcEEEiPSiPSoP8_IO_FILEEED2Ev
	.type	_ZNSt8__detail9__variant15_Copy_ctor_baseILb0EJN10subprocess10PipeOptionENSt7__cxx1112basic_stringIcSt11char_traitsIcESaIcEEEiPSiPSoP8_IO_FILEEED2Ev, %function
_ZNSt8__detail9__variant15_Copy_ctor_baseILb0EJN10subprocess10PipeOptionENSt7__cxx1112basic_stringIcSt11char_traitsIcESaIcEEEiPSiPSoP8_IO_FILEEED2Ev:
.LFB4322:
	.cfi_startproc
	stp	x29, x30, [sp, -32]!
	.cfi_def_cfa_offset 32
	.cfi_offset 29, -32
	.cfi_offset 30, -24
	mov	x29, sp
	str	x0, [sp, 24]
	ldr	x0, [sp, 24]
	bl	_ZNSt8__detail9__variant16_Variant_storageILb0EJN10subprocess10PipeOptionENSt7__cxx1112basic_stringIcSt11char_traitsIcESaIcEEEiPSiPSoP8_IO_FILEEED2Ev
	nop
	ldp	x29, x30, [sp], 32
	.cfi_restore 30
	.cfi_restore 29
	.cfi_def_cfa_offset 0
	ret
	.cfi_endproc
.LFE4322:
	.size	_ZNSt8__detail9__variant15_Copy_ctor_baseILb0EJN10subprocess10PipeOptionENSt7__cxx1112basic_stringIcSt11char_traitsIcESaIcEEEiPSiPSoP8_IO_FILEEED2Ev, .-_ZNSt8__detail9__variant15_Copy_ctor_baseILb0EJN10subprocess10PipeOptionENSt7__cxx1112basic_stringIcSt11char_traitsIcESaIcEEEiPSiPSoP8_IO_FILEEED2Ev
	.weak	_ZNSt8__detail9__variant15_Copy_ctor_baseILb0EJN10subprocess10PipeOptionENSt7__cxx1112basic_stringIcSt11char_traitsIcESaIcEEEiPSiPSoP8_IO_FILEEED1Ev
	.set	_ZNSt8__detail9__variant15_Copy_ctor_baseILb0EJN10subprocess10PipeOptionENSt7__cxx1112basic_stringIcSt11char_traitsIcESaIcEEEiPSiPSoP8_IO_FILEEED1Ev,_ZNSt8__detail9__variant15_Copy_ctor_baseILb0EJN10subprocess10PipeOptionENSt7__cxx1112basic_stringIcSt11char_traitsIcESaIcEEEiPSiPSoP8_IO_FILEEED2Ev
	.section	.text._ZNSt8__detail9__variant15_Move_ctor_baseILb0EJN10subprocess10PipeOptionENSt7__cxx1112basic_stringIcSt11char_traitsIcESaIcEEEiPSiPSoP8_IO_FILEEED2Ev,"axG",@progbits,_ZNSt8__detail9__variant15_Move_ctor_baseILb0EJN10subprocess10PipeOptionENSt7__cxx1112basic_stringIcSt11char_traitsIcESaIcEEEiPSiPSoP8_IO_FILEEED5Ev,comdat
	.align	2
	.weak	_ZNSt8__detail9__variant15_Move_ctor_baseILb0EJN10subprocess10PipeOptionENSt7__cxx1112basic_stringIcSt11char_traitsIcESaIcEEEiPSiPSoP8_IO_FILEEED2Ev
	.type	_ZNSt8__detail9__variant15_Move_ctor_baseILb0EJN10subprocess10PipeOptionENSt7__cxx1112basic_stringIcSt11char_traitsIcESaIcEEEiPSiPSoP8_IO_FILEEED2Ev, %function
_ZNSt8__detail9__variant15_Move_ctor_baseILb0EJN10subprocess10PipeOptionENSt7__cxx1112basic_stringIcSt11char_traitsIcESaIcEEEiPSiPSoP8_IO_FILEEED2Ev:
.LFB4324:
	.cfi_startproc
	stp	x29, x30, [sp, -32]!
	.cfi_def_cfa_offset 32
	.cfi_offset 29, -32
	.cfi_offset 30, -24
	mov	x29, sp
	str	x0, [sp, 24]
	ldr	x0, [sp, 24]
	bl	_ZNSt8__detail9__variant15_Copy_ctor_baseILb0EJN10subprocess10PipeOptionENSt7__cxx1112basic_stringIcSt11char_traitsIcESaIcEEEiPSiPSoP8_IO_FILEEED2Ev
	nop
	ldp	x29, x30, [sp], 32
	.cfi_restore 30
	.cfi_restore 29
	.cfi_def_cfa_offset 0
	ret
	.cfi_endproc
.LFE4324:
	.size	_ZNSt8__detail9__variant15_Move_ctor_baseILb0EJN10subprocess10PipeOptionENSt7__cxx1112basic_stringIcSt11char_traitsIcESaIcEEEiPSiPSoP8_IO_FILEEED2Ev, .-_ZNSt8__detail9__variant15_Move_ctor_baseILb0EJN10subprocess10PipeOptionENSt7__cxx1112basic_stringIcSt11char_traitsIcESaIcEEEiPSiPSoP8_IO_FILEEED2Ev
	.weak	_ZNSt8__detail9__variant15_Move_ctor_baseILb0EJN10subprocess10PipeOptionENSt7__cxx1112basic_stringIcSt11char_traitsIcESaIcEEEiPSiPSoP8_IO_FILEEED1Ev
	.set	_ZNSt8__detail9__variant15_Move_ctor_baseILb0EJN10subprocess10PipeOptionENSt7__cxx1112basic_stringIcSt11char_traitsIcESaIcEEEiPSiPSoP8_IO_FILEEED1Ev,_ZNSt8__detail9__variant15_Move_ctor_baseILb0EJN10subprocess10PipeOptionENSt7__cxx1112basic_stringIcSt11char_traitsIcESaIcEEEiPSiPSoP8_IO_FILEEED2Ev
	.section	.text._ZNSt8__detail9__variant17_Copy_assign_baseILb0EJN10subprocess10PipeOptionENSt7__cxx1112basic_stringIcSt11char_traitsIcESaIcEEEiPSiPSoP8_IO_FILEEED2Ev,"axG",@progbits,_ZNSt8__detail9__variant17_Copy_assign_baseILb0EJN10subprocess10PipeOptionENSt7__cxx1112basic_stringIcSt11char_traitsIcESaIcEEEiPSiPSoP8_IO_FILEEED5Ev,comdat
	.align	2
	.weak	_ZNSt8__detail9__variant17_Copy_assign_baseILb0EJN10subprocess10PipeOptionENSt7__cxx1112basic_stringIcSt11char_traitsIcESaIcEEEiPSiPSoP8_IO_FILEEED2Ev
	.type	_ZNSt8__detail9__variant17_Copy_assign_baseILb0EJN10subprocess10PipeOptionENSt7__cxx1112basic_stringIcSt11char_traitsIcESaIcEEEiPSiPSoP8_IO_FILEEED2Ev, %function
_ZNSt8__detail9__variant17_Copy_assign_baseILb0EJN10subprocess10PipeOptionENSt7__cxx1112basic_stringIcSt11char_traitsIcESaIcEEEiPSiPSoP8_IO_FILEEED2Ev:
.LFB4326:
	.cfi_startproc
	stp	x29, x30, [sp, -32]!
	.cfi_def_cfa_offset 32
	.cfi_offset 29, -32
	.cfi_offset 30, -24
	mov	x29, sp
	str	x0, [sp, 24]
	ldr	x0, [sp, 24]
	bl	_ZNSt8__detail9__variant15_Move_ctor_baseILb0EJN10subprocess10PipeOptionENSt7__cxx1112basic_stringIcSt11char_traitsIcESaIcEEEiPSiPSoP8_IO_FILEEED2Ev
	nop
	ldp	x29, x30, [sp], 32
	.cfi_restore 30
	.cfi_restore 29
	.cfi_def_cfa_offset 0
	ret
	.cfi_endproc
.LFE4326:
	.size	_ZNSt8__detail9__variant17_Copy_assign_baseILb0EJN10subprocess10PipeOptionENSt7__cxx1112basic_stringIcSt11char_traitsIcESaIcEEEiPSiPSoP8_IO_FILEEED2Ev, .-_ZNSt8__detail9__variant17_Copy_assign_baseILb0EJN10subprocess10PipeOptionENSt7__cxx1112basic_stringIcSt11char_traitsIcESaIcEEEiPSiPSoP8_IO_FILEEED2Ev
	.weak	_ZNSt8__detail9__variant17_Copy_assign_baseILb0EJN10subprocess10PipeOptionENSt7__cxx1112basic_stringIcSt11char_traitsIcESaIcEEEiPSiPSoP8_IO_FILEEED1Ev
	.set	_ZNSt8__detail9__variant17_Copy_assign_baseILb0EJN10subprocess10PipeOptionENSt7__cxx1112basic_stringIcSt11char_traitsIcESaIcEEEiPSiPSoP8_IO_FILEEED1Ev,_ZNSt8__detail9__variant17_Copy_assign_baseILb0EJN10subprocess10PipeOptionENSt7__cxx1112basic_stringIcSt11char_traitsIcESaIcEEEiPSiPSoP8_IO_FILEEED2Ev
	.section	.text._ZNSt8__detail9__variant17_Move_assign_baseILb0EJN10subprocess10PipeOptionENSt7__cxx1112basic_stringIcSt11char_traitsIcESaIcEEEiPSiPSoP8_IO_FILEEED2Ev,"axG",@progbits,_ZNSt8__detail9__variant17_Move_assign_baseILb0EJN10subprocess10PipeOptionENSt7__cxx1112basic_stringIcSt11char_traitsIcESaIcEEEiPSiPSoP8_IO_FILEEED5Ev,comdat
	.align	2
	.weak	_ZNSt8__detail9__variant17_Move_assign_baseILb0EJN10subprocess10PipeOptionENSt7__cxx1112basic_stringIcSt11char_traitsIcESaIcEEEiPSiPSoP8_IO_FILEEED2Ev
	.type	_ZNSt8__detail9__variant17_Move_assign_baseILb0EJN10subprocess10PipeOptionENSt7__cxx1112basic_stringIcSt11char_traitsIcESaIcEEEiPSiPSoP8_IO_FILEEED2Ev, %function
_ZNSt8__detail9__variant17_Move_assign_baseILb0EJN10subprocess10PipeOptionENSt7__cxx1112basic_stringIcSt11char_traitsIcESaIcEEEiPSiPSoP8_IO_FILEEED2Ev:
.LFB4328:
	.cfi_startproc
	stp	x29, x30, [sp, -32]!
	.cfi_def_cfa_offset 32
	.cfi_offset 29, -32
	.cfi_offset 30, -24
	mov	x29, sp
	str	x0, [sp, 24]
	ldr	x0, [sp, 24]
	bl	_ZNSt8__detail9__variant17_Copy_assign_baseILb0EJN10subprocess10PipeOptionENSt7__cxx1112basic_stringIcSt11char_traitsIcESaIcEEEiPSiPSoP8_IO_FILEEED2Ev
	nop
	ldp	x29, x30, [sp], 32
	.cfi_restore 30
	.cfi_restore 29
	.cfi_def_cfa_offset 0
	ret
	.cfi_endproc
.LFE4328:
	.size	_ZNSt8__detail9__variant17_Move_assign_baseILb0EJN10subprocess10PipeOptionENSt7__cxx1112basic_stringIcSt11char_traitsIcESaIcEEEiPSiPSoP8_IO_FILEEED2Ev, .-_ZNSt8__detail9__variant17_Move_assign_baseILb0EJN10subprocess10PipeOptionENSt7__cxx1112basic_stringIcSt11char_traitsIcESaIcEEEiPSiPSoP8_IO_FILEEED2Ev
	.weak	_ZNSt8__detail9__variant17_Move_assign_baseILb0EJN10subprocess10PipeOptionENSt7__cxx1112basic_stringIcSt11char_traitsIcESaIcEEEiPSiPSoP8_IO_FILEEED1Ev
	.set	_ZNSt8__detail9__variant17_Move_assign_baseILb0EJN10subprocess10PipeOptionENSt7__cxx1112basic_stringIcSt11char_traitsIcESaIcEEEiPSiPSoP8_IO_FILEEED1Ev,_ZNSt8__detail9__variant17_Move_assign_baseILb0EJN10subprocess10PipeOptionENSt7__cxx1112basic_stringIcSt11char_traitsIcESaIcEEEiPSiPSoP8_IO_FILEEED2Ev
	.section	.text._ZNSt8__detail9__variant13_Variant_baseIJN10subprocess10PipeOptionENSt7__cxx1112basic_stringIcSt11char_traitsIcESaIcEEEiPSiPSoP8_IO_FILEEED2Ev,"axG",@progbits,_ZNSt8__detail9__variant13_Variant_baseIJN10subprocess10PipeOptionENSt7__cxx1112basic_stringIcSt11char_traitsIcESaIcEEEiPSiPSoP8_IO_FILEEED5Ev,comdat
	.align	2
	.weak	_ZNSt8__detail9__variant13_Variant_baseIJN10subprocess10PipeOptionENSt7__cxx1112basic_stringIcSt11char_traitsIcESaIcEEEiPSiPSoP8_IO_FILEEED2Ev
	.type	_ZNSt8__detail9__variant13_Variant_baseIJN10subprocess10PipeOptionENSt7__cxx1112basic_stringIcSt11char_traitsIcESaIcEEEiPSiPSoP8_IO_FILEEED2Ev, %function
_ZNSt8__detail9__variant13_Variant_baseIJN10subprocess10PipeOptionENSt7__cxx1112basic_stringIcSt11char_traitsIcESaIcEEEiPSiPSoP8_IO_FILEEED2Ev:
.LFB4330:
	.cfi_startproc
	stp	x29, x30, [sp, -32]!
	.cfi_def_cfa_offset 32
	.cfi_offset 29, -32
	.cfi_offset 30, -24
	mov	x29, sp
	str	x0, [sp, 24]
	ldr	x0, [sp, 24]
	bl	_ZNSt8__detail9__variant17_Move_assign_baseILb0EJN10subprocess10PipeOptionENSt7__cxx1112basic_stringIcSt11char_traitsIcESaIcEEEiPSiPSoP8_IO_FILEEED2Ev
	nop
	ldp	x29, x30, [sp], 32
	.cfi_restore 30
	.cfi_restore 29
	.cfi_def_cfa_offset 0
	ret
	.cfi_endproc
.LFE4330:
	.size	_ZNSt8__detail9__variant13_Variant_baseIJN10subprocess10PipeOptionENSt7__cxx1112basic_stringIcSt11char_traitsIcESaIcEEEiPSiPSoP8_IO_FILEEED2Ev, .-_ZNSt8__detail9__variant13_Variant_baseIJN10subprocess10PipeOptionENSt7__cxx1112basic_stringIcSt11char_traitsIcESaIcEEEiPSiPSoP8_IO_FILEEED2Ev
	.weak	_ZNSt8__detail9__variant13_Variant_baseIJN10subprocess10PipeOptionENSt7__cxx1112basic_stringIcSt11char_traitsIcESaIcEEEiPSiPSoP8_IO_FILEEED1Ev
	.set	_ZNSt8__detail9__variant13_Variant_baseIJN10subprocess10PipeOptionENSt7__cxx1112basic_stringIcSt11char_traitsIcESaIcEEEiPSiPSoP8_IO_FILEEED1Ev,_ZNSt8__detail9__variant13_Variant_baseIJN10subprocess10PipeOptionENSt7__cxx1112basic_stringIcSt11char_traitsIcESaIcEEEiPSiPSoP8_IO_FILEEED2Ev
	.section	.text._ZNSt7variantIJN10subprocess10PipeOptionENSt7__cxx1112basic_stringIcSt11char_traitsIcESaIcEEEiPSiPSoP8_IO_FILEEED2Ev,"axG",@progbits,_ZNSt7variantIJN10subprocess10PipeOptionENSt7__cxx1112basic_stringIcSt11char_traitsIcESaIcEEEiPSiPSoP8_IO_FILEEED5Ev,comdat
	.align	2
	.weak	_ZNSt7variantIJN10subprocess10PipeOptionENSt7__cxx1112basic_stringIcSt11char_traitsIcESaIcEEEiPSiPSoP8_IO_FILEEED2Ev
	.type	_ZNSt7variantIJN10subprocess10PipeOptionENSt7__cxx1112basic_stringIcSt11char_traitsIcESaIcEEEiPSiPSoP8_IO_FILEEED2Ev, %function
_ZNSt7variantIJN10subprocess10PipeOptionENSt7__cxx1112basic_stringIcSt11char_traitsIcESaIcEEEiPSiPSoP8_IO_FILEEED2Ev:
.LFB4332:
	.cfi_startproc
	stp	x29, x30, [sp, -32]!
	.cfi_def_cfa_offset 32
	.cfi_offset 29, -32
	.cfi_offset 30, -24
	mov	x29, sp
	str	x0, [sp, 24]
	ldr	x0, [sp, 24]
	bl	_ZNSt8__detail9__variant13_Variant_baseIJN10subprocess10PipeOptionENSt7__cxx1112basic_stringIcSt11char_traitsIcESaIcEEEiPSiPSoP8_IO_FILEEED2Ev
	nop
	ldp	x29, x30, [sp], 32
	.cfi_restore 30
	.cfi_restore 29
	.cfi_def_cfa_offset 0
	ret
	.cfi_endproc
.LFE4332:
	.size	_ZNSt7variantIJN10subprocess10PipeOptionENSt7__cxx1112basic_stringIcSt11char_traitsIcESaIcEEEiPSiPSoP8_IO_FILEEED2Ev, .-_ZNSt7variantIJN10subprocess10PipeOptionENSt7__cxx1112basic_stringIcSt11char_traitsIcESaIcEEEiPSiPSoP8_IO_FILEEED2Ev
	.weak	_ZNSt7variantIJN10subprocess10PipeOptionENSt7__cxx1112basic_stringIcSt11char_traitsIcESaIcEEEiPSiPSoP8_IO_FILEEED1Ev
	.set	_ZNSt7variantIJN10subprocess10PipeOptionENSt7__cxx1112basic_stringIcSt11char_traitsIcESaIcEEEiPSiPSoP8_IO_FILEEED1Ev,_ZNSt7variantIJN10subprocess10PipeOptionENSt7__cxx1112basic_stringIcSt11char_traitsIcESaIcEEEiPSiPSoP8_IO_FILEEED2Ev
	.section	.text._ZNSt12_Vector_baseINSt7__cxx1112basic_stringIcSt11char_traitsIcESaIcEEESaIS5_EE12_Vector_implD2Ev,"axG",@progbits,_ZNSt12_Vector_baseINSt7__cxx1112basic_stringIcSt11char_traitsIcESaIcEEESaIS5_EE12_Vector_implD5Ev,comdat
	.align	2
	.weak	_ZNSt12_Vector_baseINSt7__cxx1112basic_stringIcSt11char_traitsIcESaIcEEESaIS5_EE12_Vector_implD2Ev
	.type	_ZNSt12_Vector_baseINSt7__cxx1112basic_stringIcSt11char_traitsIcESaIcEEESaIS5_EE12_Vector_implD2Ev, %function
_ZNSt12_Vector_baseINSt7__cxx1112basic_stringIcSt11char_traitsIcESaIcEEESaIS5_EE12_Vector_implD2Ev:
.LFB4339:
	.cfi_startproc
	stp	x29, x30, [sp, -32]!
	.cfi_def_cfa_offset 32
	.cfi_offset 29, -32
	.cfi_offset 30, -24
	mov	x29, sp
	str	x0, [sp, 24]
	ldr	x0, [sp, 24]
	bl	_ZNSaINSt7__cxx1112basic_stringIcSt11char_traitsIcESaIcEEEED2Ev
	nop
	ldp	x29, x30, [sp], 32
	.cfi_restore 30
	.cfi_restore 29
	.cfi_def_cfa_offset 0
	ret
	.cfi_endproc
.LFE4339:
	.size	_ZNSt12_Vector_baseINSt7__cxx1112basic_stringIcSt11char_traitsIcESaIcEEESaIS5_EE12_Vector_implD2Ev, .-_ZNSt12_Vector_baseINSt7__cxx1112basic_stringIcSt11char_traitsIcESaIcEEESaIS5_EE12_Vector_implD2Ev
	.weak	_ZNSt12_Vector_baseINSt7__cxx1112basic_stringIcSt11char_traitsIcESaIcEEESaIS5_EE12_Vector_implD1Ev
	.set	_ZNSt12_Vector_baseINSt7__cxx1112basic_stringIcSt11char_traitsIcESaIcEEESaIS5_EE12_Vector_implD1Ev,_ZNSt12_Vector_baseINSt7__cxx1112basic_stringIcSt11char_traitsIcESaIcEEESaIS5_EE12_Vector_implD2Ev
	.section	.text._ZNSt12_Vector_baseINSt7__cxx1112basic_stringIcSt11char_traitsIcESaIcEEESaIS5_EEC2Ev,"axG",@progbits,_ZNSt12_Vector_baseINSt7__cxx1112basic_stringIcSt11char_traitsIcESaIcEEESaIS5_EEC5Ev,comdat
	.align	2
	.weak	_ZNSt12_Vector_baseINSt7__cxx1112basic_stringIcSt11char_traitsIcESaIcEEESaIS5_EEC2Ev
	.type	_ZNSt12_Vector_baseINSt7__cxx1112basic_stringIcSt11char_traitsIcESaIcEEESaIS5_EEC2Ev, %function
_ZNSt12_Vector_baseINSt7__cxx1112basic_stringIcSt11char_traitsIcESaIcEEESaIS5_EEC2Ev:
.LFB4341:
	.cfi_startproc
	stp	x29, x30, [sp, -32]!
	.cfi_def_cfa_offset 32
	.cfi_offset 29, -32
	.cfi_offset 30, -24
	mov	x29, sp
	str	x0, [sp, 24]
	ldr	x0, [sp, 24]
	bl	_ZNSt12_Vector_baseINSt7__cxx1112basic_stringIcSt11char_traitsIcESaIcEEESaIS5_EE12_Vector_implC1Ev
	nop
	ldp	x29, x30, [sp], 32
	.cfi_restore 30
	.cfi_restore 29
	.cfi_def_cfa_offset 0
	ret
	.cfi_endproc
.LFE4341:
	.size	_ZNSt12_Vector_baseINSt7__cxx1112basic_stringIcSt11char_traitsIcESaIcEEESaIS5_EEC2Ev, .-_ZNSt12_Vector_baseINSt7__cxx1112basic_stringIcSt11char_traitsIcESaIcEEESaIS5_EEC2Ev
	.weak	_ZNSt12_Vector_baseINSt7__cxx1112basic_stringIcSt11char_traitsIcESaIcEEESaIS5_EEC1Ev
	.set	_ZNSt12_Vector_baseINSt7__cxx1112basic_stringIcSt11char_traitsIcESaIcEEESaIS5_EEC1Ev,_ZNSt12_Vector_baseINSt7__cxx1112basic_stringIcSt11char_traitsIcESaIcEEESaIS5_EEC2Ev
	.section	.text._ZNSt6vectorINSt7__cxx1112basic_stringIcSt11char_traitsIcESaIcEEESaIS5_EEC2Ev,"axG",@progbits,_ZNSt6vectorINSt7__cxx1112basic_stringIcSt11char_traitsIcESaIcEEESaIS5_EEC5Ev,comdat
	.align	2
	.weak	_ZNSt6vectorINSt7__cxx1112basic_stringIcSt11char_traitsIcESaIcEEESaIS5_EEC2Ev
	.type	_ZNSt6vectorINSt7__cxx1112basic_stringIcSt11char_traitsIcESaIcEEESaIS5_EEC2Ev, %function
_ZNSt6vectorINSt7__cxx1112basic_stringIcSt11char_traitsIcESaIcEEESaIS5_EEC2Ev:
.LFB4343:
	.cfi_startproc
	stp	x29, x30, [sp, -32]!
	.cfi_def_cfa_offset 32
	.cfi_offset 29, -32
	.cfi_offset 30, -24
	mov	x29, sp
	str	x0, [sp, 24]
	ldr	x0, [sp, 24]
	bl	_ZNSt12_Vector_baseINSt7__cxx1112basic_stringIcSt11char_traitsIcESaIcEEESaIS5_EEC2Ev
	nop
	ldp	x29, x30, [sp], 32
	.cfi_restore 30
	.cfi_restore 29
	.cfi_def_cfa_offset 0
	ret
	.cfi_endproc
.LFE4343:
	.size	_ZNSt6vectorINSt7__cxx1112basic_stringIcSt11char_traitsIcESaIcEEESaIS5_EEC2Ev, .-_ZNSt6vectorINSt7__cxx1112basic_stringIcSt11char_traitsIcESaIcEEESaIS5_EEC2Ev
	.weak	_ZNSt6vectorINSt7__cxx1112basic_stringIcSt11char_traitsIcESaIcEEESaIS5_EEC1Ev
	.set	_ZNSt6vectorINSt7__cxx1112basic_stringIcSt11char_traitsIcESaIcEEESaIS5_EEC1Ev,_ZNSt6vectorINSt7__cxx1112basic_stringIcSt11char_traitsIcESaIcEEESaIS5_EEC2Ev
	.section	.text._ZNSt8_Rb_treeINSt7__cxx1112basic_stringIcSt11char_traitsIcESaIcEEESt4pairIKS5_S5_ESt10_Select1stIS8_ESt4lessIS5_ESaIS8_EE13_Rb_tree_implISC_Lb1EED2Ev,"axG",@progbits,_ZNSt8_Rb_treeINSt7__cxx1112basic_stringIcSt11char_traitsIcESaIcEEESt4pairIKS5_S5_ESt10_Select1stIS8_ESt4lessIS5_ESaIS8_EE13_Rb_tree_implISC_Lb1EED5Ev,comdat
	.align	2
	.weak	_ZNSt8_Rb_treeINSt7__cxx1112basic_stringIcSt11char_traitsIcESaIcEEESt4pairIKS5_S5_ESt10_Select1stIS8_ESt4lessIS5_ESaIS8_EE13_Rb_tree_implISC_Lb1EED2Ev
	.type	_ZNSt8_Rb_treeINSt7__cxx1112basic_stringIcSt11char_traitsIcESaIcEEESt4pairIKS5_S5_ESt10_Select1stIS8_ESt4lessIS5_ESaIS8_EE13_Rb_tree_implISC_Lb1EED2Ev, %function
_ZNSt8_Rb_treeINSt7__cxx1112basic_stringIcSt11char_traitsIcESaIcEEESt4pairIKS5_S5_ESt10_Select1stIS8_ESt4lessIS5_ESaIS8_EE13_Rb_tree_implISC_Lb1EED2Ev:
.LFB4360:
	.cfi_startproc
	stp	x29, x30, [sp, -32]!
	.cfi_def_cfa_offset 32
	.cfi_offset 29, -32
	.cfi_offset 30, -24
	mov	x29, sp
	str	x0, [sp, 24]
	ldr	x0, [sp, 24]
	bl	_ZNSaISt13_Rb_tree_nodeISt4pairIKNSt7__cxx1112basic_stringIcSt11char_traitsIcESaIcEEES6_EEED2Ev
	nop
	ldp	x29, x30, [sp], 32
	.cfi_restore 30
	.cfi_restore 29
	.cfi_def_cfa_offset 0
	ret
	.cfi_endproc
.LFE4360:
	.size	_ZNSt8_Rb_treeINSt7__cxx1112basic_stringIcSt11char_traitsIcESaIcEEESt4pairIKS5_S5_ESt10_Select1stIS8_ESt4lessIS5_ESaIS8_EE13_Rb_tree_implISC_Lb1EED2Ev, .-_ZNSt8_Rb_treeINSt7__cxx1112basic_stringIcSt11char_traitsIcESaIcEEESt4pairIKS5_S5_ESt10_Select1stIS8_ESt4lessIS5_ESaIS8_EE13_Rb_tree_implISC_Lb1EED2Ev
	.weak	_ZNSt8_Rb_treeINSt7__cxx1112basic_stringIcSt11char_traitsIcESaIcEEESt4pairIKS5_S5_ESt10_Select1stIS8_ESt4lessIS5_ESaIS8_EE13_Rb_tree_implISC_Lb1EED1Ev
	.set	_ZNSt8_Rb_treeINSt7__cxx1112basic_stringIcSt11char_traitsIcESaIcEEESt4pairIKS5_S5_ESt10_Select1stIS8_ESt4lessIS5_ESaIS8_EE13_Rb_tree_implISC_Lb1EED1Ev,_ZNSt8_Rb_treeINSt7__cxx1112basic_stringIcSt11char_traitsIcESaIcEEESt4pairIKS5_S5_ESt10_Select1stIS8_ESt4lessIS5_ESaIS8_EE13_Rb_tree_implISC_Lb1EED2Ev
	.section	.text._ZNSt8_Rb_treeINSt7__cxx1112basic_stringIcSt11char_traitsIcESaIcEEESt4pairIKS5_S5_ESt10_Select1stIS8_ESt4lessIS5_ESaIS8_EEC2Ev,"axG",@progbits,_ZNSt8_Rb_treeINSt7__cxx1112basic_stringIcSt11char_traitsIcESaIcEEESt4pairIKS5_S5_ESt10_Select1stIS8_ESt4lessIS5_ESaIS8_EEC5Ev,comdat
	.align	2
	.weak	_ZNSt8_Rb_treeINSt7__cxx1112basic_stringIcSt11char_traitsIcESaIcEEESt4pairIKS5_S5_ESt10_Select1stIS8_ESt4lessIS5_ESaIS8_EEC2Ev
	.type	_ZNSt8_Rb_treeINSt7__cxx1112basic_stringIcSt11char_traitsIcESaIcEEESt4pairIKS5_S5_ESt10_Select1stIS8_ESt4lessIS5_ESaIS8_EEC2Ev, %function
_ZNSt8_Rb_treeINSt7__cxx1112basic_stringIcSt11char_traitsIcESaIcEEESt4pairIKS5_S5_ESt10_Select1stIS8_ESt4lessIS5_ESaIS8_EEC2Ev:
.LFB4362:
	.cfi_startproc
	stp	x29, x30, [sp, -32]!
	.cfi_def_cfa_offset 32
	.cfi_offset 29, -32
	.cfi_offset 30, -24
	mov	x29, sp
	str	x0, [sp, 24]
	ldr	x0, [sp, 24]
	bl	_ZNSt8_Rb_treeINSt7__cxx1112basic_stringIcSt11char_traitsIcESaIcEEESt4pairIKS5_S5_ESt10_Select1stIS8_ESt4lessIS5_ESaIS8_EE13_Rb_tree_implISC_Lb1EEC1Ev
	nop
	ldp	x29, x30, [sp], 32
	.cfi_restore 30
	.cfi_restore 29
	.cfi_def_cfa_offset 0
	ret
	.cfi_endproc
.LFE4362:
	.size	_ZNSt8_Rb_treeINSt7__cxx1112basic_stringIcSt11char_traitsIcESaIcEEESt4pairIKS5_S5_ESt10_Select1stIS8_ESt4lessIS5_ESaIS8_EEC2Ev, .-_ZNSt8_Rb_treeINSt7__cxx1112basic_stringIcSt11char_traitsIcESaIcEEESt4pairIKS5_S5_ESt10_Select1stIS8_ESt4lessIS5_ESaIS8_EEC2Ev
	.weak	_ZNSt8_Rb_treeINSt7__cxx1112basic_stringIcSt11char_traitsIcESaIcEEESt4pairIKS5_S5_ESt10_Select1stIS8_ESt4lessIS5_ESaIS8_EEC1Ev
	.set	_ZNSt8_Rb_treeINSt7__cxx1112basic_stringIcSt11char_traitsIcESaIcEEESt4pairIKS5_S5_ESt10_Select1stIS8_ESt4lessIS5_ESaIS8_EEC1Ev,_ZNSt8_Rb_treeINSt7__cxx1112basic_stringIcSt11char_traitsIcESaIcEEESt4pairIKS5_S5_ESt10_Select1stIS8_ESt4lessIS5_ESaIS8_EEC2Ev
	.section	.text._ZNSt3mapINSt7__cxx1112basic_stringIcSt11char_traitsIcESaIcEEES5_St4lessIS5_ESaISt4pairIKS5_S5_EEEC2Ev,"axG",@progbits,_ZNSt3mapINSt7__cxx1112basic_stringIcSt11char_traitsIcESaIcEEES5_St4lessIS5_ESaISt4pairIKS5_S5_EEEC5Ev,comdat
	.align	2
	.weak	_ZNSt3mapINSt7__cxx1112basic_stringIcSt11char_traitsIcESaIcEEES5_St4lessIS5_ESaISt4pairIKS5_S5_EEEC2Ev
	.type	_ZNSt3mapINSt7__cxx1112basic_stringIcSt11char_traitsIcESaIcEEES5_St4lessIS5_ESaISt4pairIKS5_S5_EEEC2Ev, %function
_ZNSt3mapINSt7__cxx1112basic_stringIcSt11char_traitsIcESaIcEEES5_St4lessIS5_ESaISt4pairIKS5_S5_EEEC2Ev:
.LFB4364:
	.cfi_startproc
	stp	x29, x30, [sp, -32]!
	.cfi_def_cfa_offset 32
	.cfi_offset 29, -32
	.cfi_offset 30, -24
	mov	x29, sp
	str	x0, [sp, 24]
	ldr	x0, [sp, 24]
	bl	_ZNSt8_Rb_treeINSt7__cxx1112basic_stringIcSt11char_traitsIcESaIcEEESt4pairIKS5_S5_ESt10_Select1stIS8_ESt4lessIS5_ESaIS8_EEC1Ev
	nop
	ldp	x29, x30, [sp], 32
	.cfi_restore 30
	.cfi_restore 29
	.cfi_def_cfa_offset 0
	ret
	.cfi_endproc
.LFE4364:
	.size	_ZNSt3mapINSt7__cxx1112basic_stringIcSt11char_traitsIcESaIcEEES5_St4lessIS5_ESaISt4pairIKS5_S5_EEEC2Ev, .-_ZNSt3mapINSt7__cxx1112basic_stringIcSt11char_traitsIcESaIcEEES5_St4lessIS5_ESaISt4pairIKS5_S5_EEEC2Ev
	.weak	_ZNSt3mapINSt7__cxx1112basic_stringIcSt11char_traitsIcESaIcEEES5_St4lessIS5_ESaISt4pairIKS5_S5_EEEC1Ev
	.set	_ZNSt3mapINSt7__cxx1112basic_stringIcSt11char_traitsIcESaIcEEES5_St4lessIS5_ESaISt4pairIKS5_S5_EEEC1Ev,_ZNSt3mapINSt7__cxx1112basic_stringIcSt11char_traitsIcESaIcEEES5_St4lessIS5_ESaISt4pairIKS5_S5_EEEC2Ev
	.section	.text._ZNSt3mapINSt7__cxx1112basic_stringIcSt11char_traitsIcESaIcEEES5_St4lessIS5_ESaISt4pairIKS5_S5_EEED2Ev,"axG",@progbits,_ZNSt3mapINSt7__cxx1112basic_stringIcSt11char_traitsIcESaIcEEES5_St4lessIS5_ESaISt4pairIKS5_S5_EEED5Ev,comdat
	.align	2
	.weak	_ZNSt3mapINSt7__cxx1112basic_stringIcSt11char_traitsIcESaIcEEES5_St4lessIS5_ESaISt4pairIKS5_S5_EEED2Ev
	.type	_ZNSt3mapINSt7__cxx1112basic_stringIcSt11char_traitsIcESaIcEEES5_St4lessIS5_ESaISt4pairIKS5_S5_EEED2Ev, %function
_ZNSt3mapINSt7__cxx1112basic_stringIcSt11char_traitsIcESaIcEEES5_St4lessIS5_ESaISt4pairIKS5_S5_EEED2Ev:
.LFB4367:
	.cfi_startproc
	stp	x29, x30, [sp, -32]!
	.cfi_def_cfa_offset 32
	.cfi_offset 29, -32
	.cfi_offset 30, -24
	mov	x29, sp
	str	x0, [sp, 24]
	ldr	x0, [sp, 24]
	bl	_ZNSt8_Rb_treeINSt7__cxx1112basic_stringIcSt11char_traitsIcESaIcEEESt4pairIKS5_S5_ESt10_Select1stIS8_ESt4lessIS5_ESaIS8_EED1Ev
	nop
	ldp	x29, x30, [sp], 32
	.cfi_restore 30
	.cfi_restore 29
	.cfi_def_cfa_offset 0
	ret
	.cfi_endproc
.LFE4367:
	.size	_ZNSt3mapINSt7__cxx1112basic_stringIcSt11char_traitsIcESaIcEEES5_St4lessIS5_ESaISt4pairIKS5_S5_EEED2Ev, .-_ZNSt3mapINSt7__cxx1112basic_stringIcSt11char_traitsIcESaIcEEES5_St4lessIS5_ESaISt4pairIKS5_S5_EEED2Ev
	.weak	_ZNSt3mapINSt7__cxx1112basic_stringIcSt11char_traitsIcESaIcEEES5_St4lessIS5_ESaISt4pairIKS5_S5_EEED1Ev
	.set	_ZNSt3mapINSt7__cxx1112basic_stringIcSt11char_traitsIcESaIcEEES5_St4lessIS5_ESaISt4pairIKS5_S5_EEED1Ev,_ZNSt3mapINSt7__cxx1112basic_stringIcSt11char_traitsIcESaIcEEES5_St4lessIS5_ESaISt4pairIKS5_S5_EEED2Ev
	.section	.text._ZN10subprocess10RunOptionsC2Ev,"axG",@progbits,_ZN10subprocess10RunOptionsC5Ev,comdat
	.align	2
	.weak	_ZN10subprocess10RunOptionsC2Ev
	.type	_ZN10subprocess10RunOptionsC2Ev, %function
_ZN10subprocess10RunOptionsC2Ev:
.LFB4369:
	.cfi_startproc
	stp	x29, x30, [sp, -64]!
	.cfi_def_cfa_offset 64
	.cfi_offset 29, -64
	.cfi_offset 30, -56
	mov	x29, sp
	str	x0, [sp, 24]
	adrp	x0, :got:__stack_chk_guard
	ldr	x0, [x0, #:got_lo12:__stack_chk_guard]
	ldr	x1, [x0]
	str	x1, [sp, 56]
	mov	x1, 0
	ldr	x0, [sp, 24]
	strb	wzr, [x0]
	ldr	x0, [sp, 24]
	add	x0, x0, 8
	mov	w1, 0
	str	w1, [sp, 44]
	add	x1, sp, 44
	bl	_ZNSt7variantIJN10subprocess10PipeOptionENSt7__cxx1112basic_stringIcSt11char_traitsIcESaIcEEEiPSiPSoP8_IO_FILEEEC1IS1_vvS1_vEEOT_
	ldr	x0, [sp, 24]
	add	x0, x0, 48
	mov	w1, 0
	str	w1, [sp, 48]
	add	x1, sp, 48
	bl	_ZNSt7variantIJN10subprocess10PipeOptionENSt7__cxx1112basic_stringIcSt11char_traitsIcESaIcEEEiPSiPSoP8_IO_FILEEEC1IS1_vvS1_vEEOT_
	ldr	x0, [sp, 24]
	add	x0, x0, 88
	mov	w1, 0
	str	w1, [sp, 52]
	add	x1, sp, 52
	bl	_ZNSt7variantIJN10subprocess10PipeOptionENSt7__cxx1112basic_stringIcSt11char_traitsIcESaIcEEEiPSiPSoP8_IO_FILEEEC1IS1_vvS1_vEEOT_
	ldr	x0, [sp, 24]
	strb	wzr, [x0, 128]
	ldr	x0, [sp, 24]
	add	x0, x0, 136
	bl	_ZNSt7__cxx1112basic_stringIcSt11char_traitsIcESaIcEEC1Ev
	ldr	x0, [sp, 24]
	add	x0, x0, 168
	bl	_ZNSt3mapINSt7__cxx1112basic_stringIcSt11char_traitsIcESaIcEEES5_St4lessIS5_ESaISt4pairIKS5_S5_EEEC1Ev
	ldr	x0, [sp, 24]
	fmov	d0, -1.0e+0
	str	d0, [x0, 216]
	nop
	adrp	x0, :got:__stack_chk_guard
	ldr	x0, [x0, #:got_lo12:__stack_chk_guard]
	ldr	x2, [sp, 56]
	ldr	x1, [x0]
	subs	x2, x2, x1
	mov	x1, 0
	beq	.L71
	bl	__stack_chk_fail
.L71:
	ldp	x29, x30, [sp], 64
	.cfi_restore 30
	.cfi_restore 29
	.cfi_def_cfa_offset 0
	ret
	.cfi_endproc
.LFE4369:
	.size	_ZN10subprocess10RunOptionsC2Ev, .-_ZN10subprocess10RunOptionsC2Ev
	.weak	_ZN10subprocess10RunOptionsC1Ev
	.set	_ZN10subprocess10RunOptionsC1Ev,_ZN10subprocess10RunOptionsC2Ev
	.section	.text._ZN10subprocess10RunOptionsD2Ev,"axG",@progbits,_ZN10subprocess10RunOptionsD5Ev,comdat
	.align	2
	.weak	_ZN10subprocess10RunOptionsD2Ev
	.type	_ZN10subprocess10RunOptionsD2Ev, %function
_ZN10subprocess10RunOptionsD2Ev:
.LFB4372:
	.cfi_startproc
	stp	x29, x30, [sp, -32]!
	.cfi_def_cfa_offset 32
	.cfi_offset 29, -32
	.cfi_offset 30, -24
	mov	x29, sp
	str	x0, [sp, 24]
	ldr	x0, [sp, 24]
	add	x0, x0, 168
	bl	_ZNSt3mapINSt7__cxx1112basic_stringIcSt11char_traitsIcESaIcEEES5_St4lessIS5_ESaISt4pairIKS5_S5_EEED1Ev
	ldr	x0, [sp, 24]
	add	x0, x0, 136
	bl	_ZNSt7__cxx1112basic_stringIcSt11char_traitsIcESaIcEED1Ev
	ldr	x0, [sp, 24]
	add	x0, x0, 88
	bl	_ZNSt7variantIJN10subprocess10PipeOptionENSt7__cxx1112basic_stringIcSt11char_traitsIcESaIcEEEiPSiPSoP8_IO_FILEEED1Ev
	ldr	x0, [sp, 24]
	add	x0, x0, 48
	bl	_ZNSt7variantIJN10subprocess10PipeOptionENSt7__cxx1112basic_stringIcSt11char_traitsIcESaIcEEEiPSiPSoP8_IO_FILEEED1Ev
	ldr	x0, [sp, 24]
	add	x0, x0, 8
	bl	_ZNSt7variantIJN10subprocess10PipeOptionENSt7__cxx1112basic_stringIcSt11char_traitsIcESaIcEEEiPSiPSoP8_IO_FILEEED1Ev
	nop
	ldp	x29, x30, [sp], 32
	.cfi_restore 30
	.cfi_restore 29
	.cfi_def_cfa_offset 0
	ret
	.cfi_endproc
.LFE4372:
	.size	_ZN10subprocess10RunOptionsD2Ev, .-_ZN10subprocess10RunOptionsD2Ev
	.weak	_ZN10subprocess10RunOptionsD1Ev
	.set	_ZN10subprocess10RunOptionsD1Ev,_ZN10subprocess10RunOptionsD2Ev
	.section	.text._ZN10subprocess10RunBuilderC2Ev,"axG",@progbits,_ZN10subprocess10RunBuilderC5Ev,comdat
	.align	2
	.weak	_ZN10subprocess10RunBuilderC2Ev
	.type	_ZN10subprocess10RunBuilderC2Ev, %function
_ZN10subprocess10RunBuilderC2Ev:
.LFB4374:
	.cfi_startproc
	stp	x29, x30, [sp, -32]!
	.cfi_def_cfa_offset 32
	.cfi_offset 29, -32
	.cfi_offset 30, -24
	mov	x29, sp
	str	x0, [sp, 24]
	ldr	x0, [sp, 24]
	bl	_ZN10subprocess10RunOptionsC1Ev
	ldr	x0, [sp, 24]
	add	x0, x0, 224
	bl	_ZNSt6vectorINSt7__cxx1112basic_stringIcSt11char_traitsIcESaIcEEESaIS5_EEC1Ev
	nop
	ldp	x29, x30, [sp], 32
	.cfi_restore 30
	.cfi_restore 29
	.cfi_def_cfa_offset 0
	ret
	.cfi_endproc
.LFE4374:
	.size	_ZN10subprocess10RunBuilderC2Ev, .-_ZN10subprocess10RunBuilderC2Ev
	.weak	_ZN10subprocess10RunBuilderC1Ev
	.set	_ZN10subprocess10RunBuilderC1Ev,_ZN10subprocess10RunBuilderC2Ev
	.section	.text._ZNSt8__detail9__variant17_Move_assign_baseILb0EJN10subprocess10PipeOptionENSt7__cxx1112basic_stringIcSt11char_traitsIcESaIcEEEiPSiPSoP8_IO_FILEEEaSERKSE_,"axG",@progbits,_ZNSt8__detail9__variant17_Move_assign_baseILb0EJN10subprocess10PipeOptionENSt7__cxx1112basic_stringIcSt11char_traitsIcESaIcEEEiPSiPSoP8_IO_FILEEEaSERKSE_,comdat
	.align	2
	.weak	_ZNSt8__detail9__variant17_Move_assign_baseILb0EJN10subprocess10PipeOptionENSt7__cxx1112basic_stringIcSt11char_traitsIcESaIcEEEiPSiPSoP8_IO_FILEEEaSERKSE_
	.type	_ZNSt8__detail9__variant17_Move_assign_baseILb0EJN10subprocess10PipeOptionENSt7__cxx1112basic_stringIcSt11char_traitsIcESaIcEEEiPSiPSoP8_IO_FILEEEaSERKSE_, %function
_ZNSt8__detail9__variant17_Move_assign_baseILb0EJN10subprocess10PipeOptionENSt7__cxx1112basic_stringIcSt11char_traitsIcESaIcEEEiPSiPSoP8_IO_FILEEEaSERKSE_:
.LFB4386:
	.cfi_startproc
	stp	x29, x30, [sp, -32]!
	.cfi_def_cfa_offset 32
	.cfi_offset 29, -32
	.cfi_offset 30, -24
	mov	x29, sp
	str	x0, [sp, 24]
	str	x1, [sp, 16]
	ldr	x0, [sp, 24]
	ldr	x1, [sp, 16]
	bl	_ZNSt8__detail9__variant17_Copy_assign_baseILb0EJN10subprocess10PipeOptionENSt7__cxx1112basic_stringIcSt11char_traitsIcESaIcEEEiPSiPSoP8_IO_FILEEEaSERKSE_
	ldr	x0, [sp, 24]
	ldp	x29, x30, [sp], 32
	.cfi_restore 30
	.cfi_restore 29
	.cfi_def_cfa_offset 0
	ret
	.cfi_endproc
.LFE4386:
	.size	_ZNSt8__detail9__variant17_Move_assign_baseILb0EJN10subprocess10PipeOptionENSt7__cxx1112basic_stringIcSt11char_traitsIcESaIcEEEiPSiPSoP8_IO_FILEEEaSERKSE_, .-_ZNSt8__detail9__variant17_Move_assign_baseILb0EJN10subprocess10PipeOptionENSt7__cxx1112basic_stringIcSt11char_traitsIcESaIcEEEiPSiPSoP8_IO_FILEEEaSERKSE_
	.section	.text._ZNSt8__detail9__variant13_Variant_baseIJN10subprocess10PipeOptionENSt7__cxx1112basic_stringIcSt11char_traitsIcESaIcEEEiPSiPSoP8_IO_FILEEEaSERKSE_,"axG",@progbits,_ZNSt8__detail9__variant13_Variant_baseIJN10subprocess10PipeOptionENSt7__cxx1112basic_stringIcSt11char_traitsIcESaIcEEEiPSiPSoP8_IO_FILEEEaSERKSE_,comdat
	.align	2
	.weak	_ZNSt8__detail9__variant13_Variant_baseIJN10subprocess10PipeOptionENSt7__cxx1112basic_stringIcSt11char_traitsIcESaIcEEEiPSiPSoP8_IO_FILEEEaSERKSE_
	.type	_ZNSt8__detail9__variant13_Variant_baseIJN10subprocess10PipeOptionENSt7__cxx1112basic_stringIcSt11char_traitsIcESaIcEEEiPSiPSoP8_IO_FILEEEaSERKSE_, %function
_ZNSt8__detail9__variant13_Variant_baseIJN10subprocess10PipeOptionENSt7__cxx1112basic_stringIcSt11char_traitsIcESaIcEEEiPSiPSoP8_IO_FILEEEaSERKSE_:
.LFB4385:
	.cfi_startproc
	stp	x29, x30, [sp, -32]!
	.cfi_def_cfa_offset 32
	.cfi_offset 29, -32
	.cfi_offset 30, -24
	mov	x29, sp
	str	x0, [sp, 24]
	str	x1, [sp, 16]
	ldr	x0, [sp, 24]
	ldr	x1, [sp, 16]
	bl	_ZNSt8__detail9__variant17_Move_assign_baseILb0EJN10subprocess10PipeOptionENSt7__cxx1112basic_stringIcSt11char_traitsIcESaIcEEEiPSiPSoP8_IO_FILEEEaSERKSE_
	ldr	x0, [sp, 24]
	ldp	x29, x30, [sp], 32
	.cfi_restore 30
	.cfi_restore 29
	.cfi_def_cfa_offset 0
	ret
	.cfi_endproc
.LFE4385:
	.size	_ZNSt8__detail9__variant13_Variant_baseIJN10subprocess10PipeOptionENSt7__cxx1112basic_stringIcSt11char_traitsIcESaIcEEEiPSiPSoP8_IO_FILEEEaSERKSE_, .-_ZNSt8__detail9__variant13_Variant_baseIJN10subprocess10PipeOptionENSt7__cxx1112basic_stringIcSt11char_traitsIcESaIcEEEiPSiPSoP8_IO_FILEEEaSERKSE_
	.section	.text._ZNSt7variantIJN10subprocess10PipeOptionENSt7__cxx1112basic_stringIcSt11char_traitsIcESaIcEEEiPSiPSoP8_IO_FILEEEaSERKSC_,"axG",@progbits,_ZNSt7variantIJN10subprocess10PipeOptionENSt7__cxx1112basic_stringIcSt11char_traitsIcESaIcEEEiPSiPSoP8_IO_FILEEEaSERKSC_,comdat
	.align	2
	.weak	_ZNSt7variantIJN10subprocess10PipeOptionENSt7__cxx1112basic_stringIcSt11char_traitsIcESaIcEEEiPSiPSoP8_IO_FILEEEaSERKSC_
	.type	_ZNSt7variantIJN10subprocess10PipeOptionENSt7__cxx1112basic_stringIcSt11char_traitsIcESaIcEEEiPSiPSoP8_IO_FILEEEaSERKSC_, %function
_ZNSt7variantIJN10subprocess10PipeOptionENSt7__cxx1112basic_stringIcSt11char_traitsIcESaIcEEEiPSiPSoP8_IO_FILEEEaSERKSC_:
.LFB4384:
	.cfi_startproc
	stp	x29, x30, [sp, -32]!
	.cfi_def_cfa_offset 32
	.cfi_offset 29, -32
	.cfi_offset 30, -24
	mov	x29, sp
	str	x0, [sp, 24]
	str	x1, [sp, 16]
	ldr	x0, [sp, 24]
	ldr	x1, [sp, 16]
	bl	_ZNSt8__detail9__variant13_Variant_baseIJN10subprocess10PipeOptionENSt7__cxx1112basic_stringIcSt11char_traitsIcESaIcEEEiPSiPSoP8_IO_FILEEEaSERKSE_
	ldr	x0, [sp, 24]
	ldp	x29, x30, [sp], 32
	.cfi_restore 30
	.cfi_restore 29
	.cfi_def_cfa_offset 0
	ret
	.cfi_endproc
.LFE4384:
	.size	_ZNSt7variantIJN10subprocess10PipeOptionENSt7__cxx1112basic_stringIcSt11char_traitsIcESaIcEEEiPSiPSoP8_IO_FILEEEaSERKSC_, .-_ZNSt7variantIJN10subprocess10PipeOptionENSt7__cxx1112basic_stringIcSt11char_traitsIcESaIcEEEiPSiPSoP8_IO_FILEEEaSERKSC_
	.section	.text._ZN10subprocess10RunBuilder4coutERKSt7variantIJNS_10PipeOptionENSt7__cxx1112basic_stringIcSt11char_traitsIcESaIcEEEiPSiPSoP8_IO_FILEEE,"axG",@progbits,_ZN10subprocess10RunBuilder4coutERKSt7variantIJNS_10PipeOptionENSt7__cxx1112basic_stringIcSt11char_traitsIcESaIcEEEiPSiPSoP8_IO_FILEEE,comdat
	.align	2
	.weak	_ZN10subprocess10RunBuilder4coutERKSt7variantIJNS_10PipeOptionENSt7__cxx1112basic_stringIcSt11char_traitsIcESaIcEEEiPSiPSoP8_IO_FILEEE
	.type	_ZN10subprocess10RunBuilder4coutERKSt7variantIJNS_10PipeOptionENSt7__cxx1112basic_stringIcSt11char_traitsIcESaIcEEEiPSiPSoP8_IO_FILEEE, %function
_ZN10subprocess10RunBuilder4coutERKSt7variantIJNS_10PipeOptionENSt7__cxx1112basic_stringIcSt11char_traitsIcESaIcEEEiPSiPSoP8_IO_FILEEE:
.LFB4387:
	.cfi_startproc
	stp	x29, x30, [sp, -32]!
	.cfi_def_cfa_offset 32
	.cfi_offset 29, -32
	.cfi_offset 30, -24
	mov	x29, sp
	str	x0, [sp, 24]
	str	x1, [sp, 16]
	ldr	x0, [sp, 24]
	add	x0, x0, 48
	ldr	x1, [sp, 16]
	bl	_ZNSt7variantIJN10subprocess10PipeOptionENSt7__cxx1112basic_stringIcSt11char_traitsIcESaIcEEEiPSiPSoP8_IO_FILEEEaSERKSC_
	ldr	x0, [sp, 24]
	ldp	x29, x30, [sp], 32
	.cfi_restore 30
	.cfi_restore 29
	.cfi_def_cfa_offset 0
	ret
	.cfi_endproc
.LFE4387:
	.size	_ZN10subprocess10RunBuilder4coutERKSt7variantIJNS_10PipeOptionENSt7__cxx1112basic_stringIcSt11char_traitsIcESaIcEEEiPSiPSoP8_IO_FILEEE, .-_ZN10subprocess10RunBuilder4coutERKSt7variantIJNS_10PipeOptionENSt7__cxx1112basic_stringIcSt11char_traitsIcESaIcEEEiPSiPSoP8_IO_FILEEE
	.section	.text._ZN10subprocess10RunBuilder4cerrERKSt7variantIJNS_10PipeOptionENSt7__cxx1112basic_stringIcSt11char_traitsIcESaIcEEEiPSiPSoP8_IO_FILEEE,"axG",@progbits,_ZN10subprocess10RunBuilder4cerrERKSt7variantIJNS_10PipeOptionENSt7__cxx1112basic_stringIcSt11char_traitsIcESaIcEEEiPSiPSoP8_IO_FILEEE,comdat
	.align	2
	.weak	_ZN10subprocess10RunBuilder4cerrERKSt7variantIJNS_10PipeOptionENSt7__cxx1112basic_stringIcSt11char_traitsIcESaIcEEEiPSiPSoP8_IO_FILEEE
	.type	_ZN10subprocess10RunBuilder4cerrERKSt7variantIJNS_10PipeOptionENSt7__cxx1112basic_stringIcSt11char_traitsIcESaIcEEEiPSiPSoP8_IO_FILEEE, %function
_ZN10subprocess10RunBuilder4cerrERKSt7variantIJNS_10PipeOptionENSt7__cxx1112basic_stringIcSt11char_traitsIcESaIcEEEiPSiPSoP8_IO_FILEEE:
.LFB4388:
	.cfi_startproc
	stp	x29, x30, [sp, -32]!
	.cfi_def_cfa_offset 32
	.cfi_offset 29, -32
	.cfi_offset 30, -24
	mov	x29, sp
	str	x0, [sp, 24]
	str	x1, [sp, 16]
	ldr	x0, [sp, 24]
	add	x0, x0, 88
	ldr	x1, [sp, 16]
	bl	_ZNSt7variantIJN10subprocess10PipeOptionENSt7__cxx1112basic_stringIcSt11char_traitsIcESaIcEEEiPSiPSoP8_IO_FILEEEaSERKSC_
	ldr	x0, [sp, 24]
	ldp	x29, x30, [sp], 32
	.cfi_restore 30
	.cfi_restore 29
	.cfi_def_cfa_offset 0
	ret
	.cfi_endproc
.LFE4388:
	.size	_ZN10subprocess10RunBuilder4cerrERKSt7variantIJNS_10PipeOptionENSt7__cxx1112basic_stringIcSt11char_traitsIcESaIcEEEiPSiPSoP8_IO_FILEEE, .-_ZN10subprocess10RunBuilder4cerrERKSt7variantIJNS_10PipeOptionENSt7__cxx1112basic_stringIcSt11char_traitsIcESaIcEEEiPSiPSoP8_IO_FILEEE
	.section	.text._ZNSt8__detail9__variant15_Move_ctor_baseILb0EJN10subprocess10PipeOptionENSt7__cxx1112basic_stringIcSt11char_traitsIcESaIcEEEiPSiPSoP8_IO_FILEEEC2ERKSE_,"axG",@progbits,_ZNSt8__detail9__variant15_Move_ctor_baseILb0EJN10subprocess10PipeOptionENSt7__cxx1112basic_stringIcSt11char_traitsIcESaIcEEEiPSiPSoP8_IO_FILEEEC5ERKSE_,comdat
	.align	2
	.weak	_ZNSt8__detail9__variant15_Move_ctor_baseILb0EJN10subprocess10PipeOptionENSt7__cxx1112basic_stringIcSt11char_traitsIcESaIcEEEiPSiPSoP8_IO_FILEEEC2ERKSE_
	.type	_ZNSt8__detail9__variant15_Move_ctor_baseILb0EJN10subprocess10PipeOptionENSt7__cxx1112basic_stringIcSt11char_traitsIcESaIcEEEiPSiPSoP8_IO_FILEEEC2ERKSE_, %function
_ZNSt8__detail9__variant15_Move_ctor_baseILb0EJN10subprocess10PipeOptionENSt7__cxx1112basic_stringIcSt11char_traitsIcESaIcEEEiPSiPSoP8_IO_FILEEEC2ERKSE_:
.LFB4401:
	.cfi_startproc
	stp	x29, x30, [sp, -32]!
	.cfi_def_cfa_offset 32
	.cfi_offset 29, -32
	.cfi_offset 30, -24
	mov	x29, sp
	str	x0, [sp, 24]
	str	x1, [sp, 16]
	ldr	x0, [sp, 24]
	ldr	x1, [sp, 16]
	bl	_ZNSt8__detail9__variant15_Copy_ctor_baseILb0EJN10subprocess10PipeOptionENSt7__cxx1112basic_stringIcSt11char_traitsIcESaIcEEEiPSiPSoP8_IO_FILEEEC2ERKSE_
	nop
	ldp	x29, x30, [sp], 32
	.cfi_restore 30
	.cfi_restore 29
	.cfi_def_cfa_offset 0
	ret
	.cfi_endproc
.LFE4401:
	.size	_ZNSt8__detail9__variant15_Move_ctor_baseILb0EJN10subprocess10PipeOptionENSt7__cxx1112basic_stringIcSt11char_traitsIcESaIcEEEiPSiPSoP8_IO_FILEEEC2ERKSE_, .-_ZNSt8__detail9__variant15_Move_ctor_baseILb0EJN10subprocess10PipeOptionENSt7__cxx1112basic_stringIcSt11char_traitsIcESaIcEEEiPSiPSoP8_IO_FILEEEC2ERKSE_
	.weak	_ZNSt8__detail9__variant15_Move_ctor_baseILb0EJN10subprocess10PipeOptionENSt7__cxx1112basic_stringIcSt11char_traitsIcESaIcEEEiPSiPSoP8_IO_FILEEEC1ERKSE_
	.set	_ZNSt8__detail9__variant15_Move_ctor_baseILb0EJN10subprocess10PipeOptionENSt7__cxx1112basic_stringIcSt11char_traitsIcESaIcEEEiPSiPSoP8_IO_FILEEEC1ERKSE_,_ZNSt8__detail9__variant15_Move_ctor_baseILb0EJN10subprocess10PipeOptionENSt7__cxx1112basic_stringIcSt11char_traitsIcESaIcEEEiPSiPSoP8_IO_FILEEEC2ERKSE_
	.section	.text._ZNSt8__detail9__variant17_Copy_assign_baseILb0EJN10subprocess10PipeOptionENSt7__cxx1112basic_stringIcSt11char_traitsIcESaIcEEEiPSiPSoP8_IO_FILEEEC2ERKSE_,"axG",@progbits,_ZNSt8__detail9__variant17_Copy_assign_baseILb0EJN10subprocess10PipeOptionENSt7__cxx1112basic_stringIcSt11char_traitsIcESaIcEEEiPSiPSoP8_IO_FILEEEC5ERKSE_,comdat
	.align	2
	.weak	_ZNSt8__detail9__variant17_Copy_assign_baseILb0EJN10subprocess10PipeOptionENSt7__cxx1112basic_stringIcSt11char_traitsIcESaIcEEEiPSiPSoP8_IO_FILEEEC2ERKSE_
	.type	_ZNSt8__detail9__variant17_Copy_assign_baseILb0EJN10subprocess10PipeOptionENSt7__cxx1112basic_stringIcSt11char_traitsIcESaIcEEEiPSiPSoP8_IO_FILEEEC2ERKSE_, %function
_ZNSt8__detail9__variant17_Copy_assign_baseILb0EJN10subprocess10PipeOptionENSt7__cxx1112basic_stringIcSt11char_traitsIcESaIcEEEiPSiPSoP8_IO_FILEEEC2ERKSE_:
.LFB4403:
	.cfi_startproc
	stp	x29, x30, [sp, -32]!
	.cfi_def_cfa_offset 32
	.cfi_offset 29, -32
	.cfi_offset 30, -24
	mov	x29, sp
	str	x0, [sp, 24]
	str	x1, [sp, 16]
	ldr	x0, [sp, 24]
	ldr	x1, [sp, 16]
	bl	_ZNSt8__detail9__variant15_Move_ctor_baseILb0EJN10subprocess10PipeOptionENSt7__cxx1112basic_stringIcSt11char_traitsIcESaIcEEEiPSiPSoP8_IO_FILEEEC2ERKSE_
	nop
	ldp	x29, x30, [sp], 32
	.cfi_restore 30
	.cfi_restore 29
	.cfi_def_cfa_offset 0
	ret
	.cfi_endproc
.LFE4403:
	.size	_ZNSt8__detail9__variant17_Copy_assign_baseILb0EJN10subprocess10PipeOptionENSt7__cxx1112basic_stringIcSt11char_traitsIcESaIcEEEiPSiPSoP8_IO_FILEEEC2ERKSE_, .-_ZNSt8__detail9__variant17_Copy_assign_baseILb0EJN10subprocess10PipeOptionENSt7__cxx1112basic_stringIcSt11char_traitsIcESaIcEEEiPSiPSoP8_IO_FILEEEC2ERKSE_
	.weak	_ZNSt8__detail9__variant17_Copy_assign_baseILb0EJN10subprocess10PipeOptionENSt7__cxx1112basic_stringIcSt11char_traitsIcESaIcEEEiPSiPSoP8_IO_FILEEEC1ERKSE_
	.set	_ZNSt8__detail9__variant17_Copy_assign_baseILb0EJN10subprocess10PipeOptionENSt7__cxx1112basic_stringIcSt11char_traitsIcESaIcEEEiPSiPSoP8_IO_FILEEEC1ERKSE_,_ZNSt8__detail9__variant17_Copy_assign_baseILb0EJN10subprocess10PipeOptionENSt7__cxx1112basic_stringIcSt11char_traitsIcESaIcEEEiPSiPSoP8_IO_FILEEEC2ERKSE_
	.section	.text._ZNSt8__detail9__variant17_Move_assign_baseILb0EJN10subprocess10PipeOptionENSt7__cxx1112basic_stringIcSt11char_traitsIcESaIcEEEiPSiPSoP8_IO_FILEEEC2ERKSE_,"axG",@progbits,_ZNSt8__detail9__variant17_Move_assign_baseILb0EJN10subprocess10PipeOptionENSt7__cxx1112basic_stringIcSt11char_traitsIcESaIcEEEiPSiPSoP8_IO_FILEEEC5ERKSE_,comdat
	.align	2
	.weak	_ZNSt8__detail9__variant17_Move_assign_baseILb0EJN10subprocess10PipeOptionENSt7__cxx1112basic_stringIcSt11char_traitsIcESaIcEEEiPSiPSoP8_IO_FILEEEC2ERKSE_
	.type	_ZNSt8__detail9__variant17_Move_assign_baseILb0EJN10subprocess10PipeOptionENSt7__cxx1112basic_stringIcSt11char_traitsIcESaIcEEEiPSiPSoP8_IO_FILEEEC2ERKSE_, %function
_ZNSt8__detail9__variant17_Move_assign_baseILb0EJN10subprocess10PipeOptionENSt7__cxx1112basic_stringIcSt11char_traitsIcESaIcEEEiPSiPSoP8_IO_FILEEEC2ERKSE_:
.LFB4405:
	.cfi_startproc
	stp	x29, x30, [sp, -32]!
	.cfi_def_cfa_offset 32
	.cfi_offset 29, -32
	.cfi_offset 30, -24
	mov	x29, sp
	str	x0, [sp, 24]
	str	x1, [sp, 16]
	ldr	x0, [sp, 24]
	ldr	x1, [sp, 16]
	bl	_ZNSt8__detail9__variant17_Copy_assign_baseILb0EJN10subprocess10PipeOptionENSt7__cxx1112basic_stringIcSt11char_traitsIcESaIcEEEiPSiPSoP8_IO_FILEEEC2ERKSE_
	nop
	ldp	x29, x30, [sp], 32
	.cfi_restore 30
	.cfi_restore 29
	.cfi_def_cfa_offset 0
	ret
	.cfi_endproc
.LFE4405:
	.size	_ZNSt8__detail9__variant17_Move_assign_baseILb0EJN10subprocess10PipeOptionENSt7__cxx1112basic_stringIcSt11char_traitsIcESaIcEEEiPSiPSoP8_IO_FILEEEC2ERKSE_, .-_ZNSt8__detail9__variant17_Move_assign_baseILb0EJN10subprocess10PipeOptionENSt7__cxx1112basic_stringIcSt11char_traitsIcESaIcEEEiPSiPSoP8_IO_FILEEEC2ERKSE_
	.weak	_ZNSt8__detail9__variant17_Move_assign_baseILb0EJN10subprocess10PipeOptionENSt7__cxx1112basic_stringIcSt11char_traitsIcESaIcEEEiPSiPSoP8_IO_FILEEEC1ERKSE_
	.set	_ZNSt8__detail9__variant17_Move_assign_baseILb0EJN10subprocess10PipeOptionENSt7__cxx1112basic_stringIcSt11char_traitsIcESaIcEEEiPSiPSoP8_IO_FILEEEC1ERKSE_,_ZNSt8__detail9__variant17_Move_assign_baseILb0EJN10subprocess10PipeOptionENSt7__cxx1112basic_stringIcSt11char_traitsIcESaIcEEEiPSiPSoP8_IO_FILEEEC2ERKSE_
	.section	.text._ZNSt8__detail9__variant13_Variant_baseIJN10subprocess10PipeOptionENSt7__cxx1112basic_stringIcSt11char_traitsIcESaIcEEEiPSiPSoP8_IO_FILEEEC2ERKSE_,"axG",@progbits,_ZNSt8__detail9__variant13_Variant_baseIJN10subprocess10PipeOptionENSt7__cxx1112basic_stringIcSt11char_traitsIcESaIcEEEiPSiPSoP8_IO_FILEEEC5ERKSE_,comdat
	.align	2
	.weak	_ZNSt8__detail9__variant13_Variant_baseIJN10subprocess10PipeOptionENSt7__cxx1112basic_stringIcSt11char_traitsIcESaIcEEEiPSiPSoP8_IO_FILEEEC2ERKSE_
	.type	_ZNSt8__detail9__variant13_Variant_baseIJN10subprocess10PipeOptionENSt7__cxx1112basic_stringIcSt11char_traitsIcESaIcEEEiPSiPSoP8_IO_FILEEEC2ERKSE_, %function
_ZNSt8__detail9__variant13_Variant_baseIJN10subprocess10PipeOptionENSt7__cxx1112basic_stringIcSt11char_traitsIcESaIcEEEiPSiPSoP8_IO_FILEEEC2ERKSE_:
.LFB4407:
	.cfi_startproc
	stp	x29, x30, [sp, -32]!
	.cfi_def_cfa_offset 32
	.cfi_offset 29, -32
	.cfi_offset 30, -24
	mov	x29, sp
	str	x0, [sp, 24]
	str	x1, [sp, 16]
	ldr	x0, [sp, 24]
	ldr	x1, [sp, 16]
	bl	_ZNSt8__detail9__variant17_Move_assign_baseILb0EJN10subprocess10PipeOptionENSt7__cxx1112basic_stringIcSt11char_traitsIcESaIcEEEiPSiPSoP8_IO_FILEEEC2ERKSE_
	nop
	ldp	x29, x30, [sp], 32
	.cfi_restore 30
	.cfi_restore 29
	.cfi_def_cfa_offset 0
	ret
	.cfi_endproc
.LFE4407:
	.size	_ZNSt8__detail9__variant13_Variant_baseIJN10subprocess10PipeOptionENSt7__cxx1112basic_stringIcSt11char_traitsIcESaIcEEEiPSiPSoP8_IO_FILEEEC2ERKSE_, .-_ZNSt8__detail9__variant13_Variant_baseIJN10subprocess10PipeOptionENSt7__cxx1112basic_stringIcSt11char_traitsIcESaIcEEEiPSiPSoP8_IO_FILEEEC2ERKSE_
	.weak	_ZNSt8__detail9__variant13_Variant_baseIJN10subprocess10PipeOptionENSt7__cxx1112basic_stringIcSt11char_traitsIcESaIcEEEiPSiPSoP8_IO_FILEEEC1ERKSE_
	.set	_ZNSt8__detail9__variant13_Variant_baseIJN10subprocess10PipeOptionENSt7__cxx1112basic_stringIcSt11char_traitsIcESaIcEEEiPSiPSoP8_IO_FILEEEC1ERKSE_,_ZNSt8__detail9__variant13_Variant_baseIJN10subprocess10PipeOptionENSt7__cxx1112basic_stringIcSt11char_traitsIcESaIcEEEiPSiPSoP8_IO_FILEEEC2ERKSE_
	.section	.text._ZNSt7variantIJN10subprocess10PipeOptionENSt7__cxx1112basic_stringIcSt11char_traitsIcESaIcEEEiPSiPSoP8_IO_FILEEEC2ERKSC_,"axG",@progbits,_ZNSt7variantIJN10subprocess10PipeOptionENSt7__cxx1112basic_stringIcSt11char_traitsIcESaIcEEEiPSiPSoP8_IO_FILEEEC5ERKSC_,comdat
	.align	2
	.weak	_ZNSt7variantIJN10subprocess10PipeOptionENSt7__cxx1112basic_stringIcSt11char_traitsIcESaIcEEEiPSiPSoP8_IO_FILEEEC2ERKSC_
	.type	_ZNSt7variantIJN10subprocess10PipeOptionENSt7__cxx1112basic_stringIcSt11char_traitsIcESaIcEEEiPSiPSoP8_IO_FILEEEC2ERKSC_, %function
_ZNSt7variantIJN10subprocess10PipeOptionENSt7__cxx1112basic_stringIcSt11char_traitsIcESaIcEEEiPSiPSoP8_IO_FILEEEC2ERKSC_:
.LFB4409:
	.cfi_startproc
	stp	x29, x30, [sp, -32]!
	.cfi_def_cfa_offset 32
	.cfi_offset 29, -32
	.cfi_offset 30, -24
	mov	x29, sp
	str	x0, [sp, 24]
	str	x1, [sp, 16]
	ldr	x0, [sp, 24]
	ldr	x1, [sp, 16]
	bl	_ZNSt8__detail9__variant13_Variant_baseIJN10subprocess10PipeOptionENSt7__cxx1112basic_stringIcSt11char_traitsIcESaIcEEEiPSiPSoP8_IO_FILEEEC2ERKSE_
	nop
	ldp	x29, x30, [sp], 32
	.cfi_restore 30
	.cfi_restore 29
	.cfi_def_cfa_offset 0
	ret
	.cfi_endproc
.LFE4409:
	.size	_ZNSt7variantIJN10subprocess10PipeOptionENSt7__cxx1112basic_stringIcSt11char_traitsIcESaIcEEEiPSiPSoP8_IO_FILEEEC2ERKSC_, .-_ZNSt7variantIJN10subprocess10PipeOptionENSt7__cxx1112basic_stringIcSt11char_traitsIcESaIcEEEiPSiPSoP8_IO_FILEEEC2ERKSC_
	.weak	_ZNSt7variantIJN10subprocess10PipeOptionENSt7__cxx1112basic_stringIcSt11char_traitsIcESaIcEEEiPSiPSoP8_IO_FILEEEC1ERKSC_
	.set	_ZNSt7variantIJN10subprocess10PipeOptionENSt7__cxx1112basic_stringIcSt11char_traitsIcESaIcEEEiPSiPSoP8_IO_FILEEEC1ERKSC_,_ZNSt7variantIJN10subprocess10PipeOptionENSt7__cxx1112basic_stringIcSt11char_traitsIcESaIcEEEiPSiPSoP8_IO_FILEEEC2ERKSC_
	.section	.text._ZNSt3mapINSt7__cxx1112basic_stringIcSt11char_traitsIcESaIcEEES5_St4lessIS5_ESaISt4pairIKS5_S5_EEEC2ERKSC_,"axG",@progbits,_ZNSt3mapINSt7__cxx1112basic_stringIcSt11char_traitsIcESaIcEEES5_St4lessIS5_ESaISt4pairIKS5_S5_EEEC5ERKSC_,comdat
	.align	2
	.weak	_ZNSt3mapINSt7__cxx1112basic_stringIcSt11char_traitsIcESaIcEEES5_St4lessIS5_ESaISt4pairIKS5_S5_EEEC2ERKSC_
	.type	_ZNSt3mapINSt7__cxx1112basic_stringIcSt11char_traitsIcESaIcEEES5_St4lessIS5_ESaISt4pairIKS5_S5_EEEC2ERKSC_, %function
_ZNSt3mapINSt7__cxx1112basic_stringIcSt11char_traitsIcESaIcEEES5_St4lessIS5_ESaISt4pairIKS5_S5_EEEC2ERKSC_:
.LFB4412:
	.cfi_startproc
	stp	x29, x30, [sp, -32]!
	.cfi_def_cfa_offset 32
	.cfi_offset 29, -32
	.cfi_offset 30, -24
	mov	x29, sp
	str	x0, [sp, 24]
	str	x1, [sp, 16]
	ldr	x0, [sp, 24]
	ldr	x1, [sp, 16]
	bl	_ZNSt8_Rb_treeINSt7__cxx1112basic_stringIcSt11char_traitsIcESaIcEEESt4pairIKS5_S5_ESt10_Select1stIS8_ESt4lessIS5_ESaIS8_EEC1ERKSE_
	nop
	ldp	x29, x30, [sp], 32
	.cfi_restore 30
	.cfi_restore 29
	.cfi_def_cfa_offset 0
	ret
	.cfi_endproc
.LFE4412:
	.size	_ZNSt3mapINSt7__cxx1112basic_stringIcSt11char_traitsIcESaIcEEES5_St4lessIS5_ESaISt4pairIKS5_S5_EEEC2ERKSC_, .-_ZNSt3mapINSt7__cxx1112basic_stringIcSt11char_traitsIcESaIcEEES5_St4lessIS5_ESaISt4pairIKS5_S5_EEEC2ERKSC_
	.weak	_ZNSt3mapINSt7__cxx1112basic_stringIcSt11char_traitsIcESaIcEEES5_St4lessIS5_ESaISt4pairIKS5_S5_EEEC1ERKSC_
	.set	_ZNSt3mapINSt7__cxx1112basic_stringIcSt11char_traitsIcESaIcEEES5_St4lessIS5_ESaISt4pairIKS5_S5_EEEC1ERKSC_,_ZNSt3mapINSt7__cxx1112basic_stringIcSt11char_traitsIcESaIcEEES5_St4lessIS5_ESaISt4pairIKS5_S5_EEEC2ERKSC_
	.section	.text._ZN10subprocess10RunOptionsC2ERKS0_,"axG",@progbits,_ZN10subprocess10RunOptionsC5ERKS0_,comdat
	.align	2
	.weak	_ZN10subprocess10RunOptionsC2ERKS0_
	.type	_ZN10subprocess10RunOptionsC2ERKS0_, %function
_ZN10subprocess10RunOptionsC2ERKS0_:
.LFB4414:
	.cfi_startproc
	.cfi_personality 0x9b,DW.ref.__gxx_personality_v0
	.cfi_lsda 0x1b,.LLSDA4414
	stp	x29, x30, [sp, -48]!
	.cfi_def_cfa_offset 48
	.cfi_offset 29, -48
	.cfi_offset 30, -40
	mov	x29, sp
	str	x19, [sp, 16]
	.cfi_offset 19, -32
	str	x0, [sp, 40]
	str	x1, [sp, 32]
	ldr	x0, [sp, 32]
	ldrb	w1, [x0]
	ldr	x0, [sp, 40]
	strb	w1, [x0]
	ldr	x0, [sp, 40]
	add	x2, x0, 8
	ldr	x0, [sp, 32]
	add	x0, x0, 8
	mov	x1, x0
	mov	x0, x2
.LEHB2:
	bl	_ZNSt7variantIJN10subprocess10PipeOptionENSt7__cxx1112basic_stringIcSt11char_traitsIcESaIcEEEiPSiPSoP8_IO_FILEEEC1ERKSC_
.LEHE2:
	ldr	x0, [sp, 40]
	add	x2, x0, 48
	ldr	x0, [sp, 32]
	add	x0, x0, 48
	mov	x1, x0
	mov	x0, x2
.LEHB3:
	bl	_ZNSt7variantIJN10subprocess10PipeOptionENSt7__cxx1112basic_stringIcSt11char_traitsIcESaIcEEEiPSiPSoP8_IO_FILEEEC1ERKSC_
.LEHE3:
	ldr	x0, [sp, 40]
	add	x2, x0, 88
	ldr	x0, [sp, 32]
	add	x0, x0, 88
	mov	x1, x0
	mov	x0, x2
.LEHB4:
	bl	_ZNSt7variantIJN10subprocess10PipeOptionENSt7__cxx1112basic_stringIcSt11char_traitsIcESaIcEEEiPSiPSoP8_IO_FILEEEC1ERKSC_
.LEHE4:
	ldr	x0, [sp, 32]
	ldrb	w1, [x0, 128]
	ldr	x0, [sp, 40]
	strb	w1, [x0, 128]
	ldr	x0, [sp, 40]
	add	x2, x0, 136
	ldr	x0, [sp, 32]
	add	x0, x0, 136
	mov	x1, x0
	mov	x0, x2
.LEHB5:
	bl	_ZNSt7__cxx1112basic_stringIcSt11char_traitsIcESaIcEEC1ERKS4_
.LEHE5:
	ldr	x0, [sp, 40]
	add	x2, x0, 168
	ldr	x0, [sp, 32]
	add	x0, x0, 168
	mov	x1, x0
	mov	x0, x2
.LEHB6:
	bl	_ZNSt3mapINSt7__cxx1112basic_stringIcSt11char_traitsIcESaIcEEES5_St4lessIS5_ESaISt4pairIKS5_S5_EEEC1ERKSC_
.LEHE6:
	ldr	x0, [sp, 32]
	ldr	d0, [x0, 216]
	ldr	x0, [sp, 40]
	str	d0, [x0, 216]
	b	.L99
.L98:
	mov	x19, x0
	ldr	x0, [sp, 40]
	add	x0, x0, 136
	bl	_ZNSt7__cxx1112basic_stringIcSt11char_traitsIcESaIcEED1Ev
	b	.L92
.L97:
	mov	x19, x0
.L92:
	ldr	x0, [sp, 40]
	add	x0, x0, 88
	bl	_ZNSt7variantIJN10subprocess10PipeOptionENSt7__cxx1112basic_stringIcSt11char_traitsIcESaIcEEEiPSiPSoP8_IO_FILEEED1Ev
	b	.L93
.L96:
	mov	x19, x0
.L93:
	ldr	x0, [sp, 40]
	add	x0, x0, 48
	bl	_ZNSt7variantIJN10subprocess10PipeOptionENSt7__cxx1112basic_stringIcSt11char_traitsIcESaIcEEEiPSiPSoP8_IO_FILEEED1Ev
	b	.L94
.L95:
	mov	x19, x0
.L94:
	ldr	x0, [sp, 40]
	add	x0, x0, 8
	bl	_ZNSt7variantIJN10subprocess10PipeOptionENSt7__cxx1112basic_stringIcSt11char_traitsIcESaIcEEEiPSiPSoP8_IO_FILEEED1Ev
	mov	x0, x19
.LEHB7:
	bl	_Unwind_Resume
.LEHE7:
.L99:
	ldr	x19, [sp, 16]
	ldp	x29, x30, [sp], 48
	.cfi_restore 30
	.cfi_restore 29
	.cfi_restore 19
	.cfi_def_cfa_offset 0
	ret
	.cfi_endproc
.LFE4414:
	.section	.gcc_except_table._ZN10subprocess10RunOptionsC2ERKS0_,"aG",@progbits,_ZN10subprocess10RunOptionsC5ERKS0_,comdat
.LLSDA4414:
	.byte	0xff
	.byte	0xff
	.byte	0x1
	.uleb128 .LLSDACSE4414-.LLSDACSB4414
.LLSDACSB4414:
	.uleb128 .LEHB2-.LFB4414
	.uleb128 .LEHE2-.LEHB2
	.uleb128 0
	.uleb128 0
	.uleb128 .LEHB3-.LFB4414
	.uleb128 .LEHE3-.LEHB3
	.uleb128 .L95-.LFB4414
	.uleb128 0
	.uleb128 .LEHB4-.LFB4414
	.uleb128 .LEHE4-.LEHB4
	.uleb128 .L96-.LFB4414
	.uleb128 0
	.uleb128 .LEHB5-.LFB4414
	.uleb128 .LEHE5-.LEHB5
	.uleb128 .L97-.LFB4414
	.uleb128 0
	.uleb128 .LEHB6-.LFB4414
	.uleb128 .LEHE6-.LEHB6
	.uleb128 .L98-.LFB4414
	.uleb128 0
	.uleb128 .LEHB7-.LFB4414
	.uleb128 .LEHE7-.LEHB7
	.uleb128 0
	.uleb128 0
.LLSDACSE4414:
	.section	.text._ZN10subprocess10RunOptionsC2ERKS0_,"axG",@progbits,_ZN10subprocess10RunOptionsC5ERKS0_,comdat
	.size	_ZN10subprocess10RunOptionsC2ERKS0_, .-_ZN10subprocess10RunOptionsC2ERKS0_
	.weak	_ZN10subprocess10RunOptionsC1ERKS0_
	.set	_ZN10subprocess10RunOptionsC1ERKS0_,_ZN10subprocess10RunOptionsC2ERKS0_
	.section	.text._ZNK10subprocess10RunBuildercvNS_10RunOptionsEEv,"axG",@progbits,_ZNK10subprocess10RunBuildercvNS_10RunOptionsEEv,comdat
	.align	2
	.weak	_ZNK10subprocess10RunBuildercvNS_10RunOptionsEEv
	.type	_ZNK10subprocess10RunBuildercvNS_10RunOptionsEEv, %function
_ZNK10subprocess10RunBuildercvNS_10RunOptionsEEv:
.LFB4394:
	.cfi_startproc
	stp	x29, x30, [sp, -48]!
	.cfi_def_cfa_offset 48
	.cfi_offset 29, -48
	.cfi_offset 30, -40
	mov	x29, sp
	str	x19, [sp, 16]
	.cfi_offset 19, -32
	mov	x19, x8
	str	x0, [sp, 40]
	ldr	x0, [sp, 40]
	mov	x1, x0
	mov	x0, x19
	bl	_ZN10subprocess10RunOptionsC1ERKS0_
	mov	x0, x19
	ldr	x19, [sp, 16]
	ldp	x29, x30, [sp], 48
	.cfi_restore 30
	.cfi_restore 29
	.cfi_restore 19
	.cfi_def_cfa_offset 0
	ret
	.cfi_endproc
.LFE4394:
	.size	_ZNK10subprocess10RunBuildercvNS_10RunOptionsEEv, .-_ZNK10subprocess10RunBuildercvNS_10RunOptionsEEv
	.section	.text._ZN10subprocess16CompletedProcessD2Ev,"axG",@progbits,_ZN10subprocess16CompletedProcessD5Ev,comdat
	.align	2
	.weak	_ZN10subprocess16CompletedProcessD2Ev
	.type	_ZN10subprocess16CompletedProcessD2Ev, %function
_ZN10subprocess16CompletedProcessD2Ev:
.LFB4418:
	.cfi_startproc
	stp	x29, x30, [sp, -32]!
	.cfi_def_cfa_offset 32
	.cfi_offset 29, -32
	.cfi_offset 30, -24
	mov	x29, sp
	str	x0, [sp, 24]
	ldr	x0, [sp, 24]
	add	x0, x0, 64
	bl	_ZNSt7__cxx1112basic_stringIcSt11char_traitsIcESaIcEED1Ev
	ldr	x0, [sp, 24]
	add	x0, x0, 32
	bl	_ZNSt7__cxx1112basic_stringIcSt11char_traitsIcESaIcEED1Ev
	ldr	x0, [sp, 24]
	bl	_ZNSt6vectorINSt7__cxx1112basic_stringIcSt11char_traitsIcESaIcEEESaIS5_EED1Ev
	nop
	ldp	x29, x30, [sp], 32
	.cfi_restore 30
	.cfi_restore 29
	.cfi_def_cfa_offset 0
	ret
	.cfi_endproc
.LFE4418:
	.size	_ZN10subprocess16CompletedProcessD2Ev, .-_ZN10subprocess16CompletedProcessD2Ev
	.weak	_ZN10subprocess16CompletedProcessD1Ev
	.set	_ZN10subprocess16CompletedProcessD1Ev,_ZN10subprocess16CompletedProcessD2Ev
	.text
	.align	2
	.global	_ZN10subprocess6getcwdB5cxx11Ev
	.type	_ZN10subprocess6getcwdB5cxx11Ev, %function
_ZN10subprocess6getcwdB5cxx11Ev:
.LFB4426:
	.cfi_startproc
	.cfi_personality 0x9b,DW.ref.__gxx_personality_v0
	.cfi_lsda 0x1b,.LLSDA4426
	stp	x29, x30, [sp, -80]!
	.cfi_def_cfa_offset 80
	.cfi_offset 29, -80
	.cfi_offset 30, -72
	mov	x29, sp
	str	x19, [sp, 16]
	.cfi_offset 19, -64
	mov	x19, x8
	adrp	x0, :got:__stack_chk_guard
	ldr	x0, [x0, #:got_lo12:__stack_chk_guard]
	ldr	x1, [x0]
	str	x1, [sp, 72]
	mov	x1, 0
	add	x0, sp, 32
	mov	x8, x0
.LEHB8:
	bl	_ZNSt10filesystem12current_pathB5cxx11Ev
.LEHE8:
	add	x0, sp, 32
	mov	x8, x19
.LEHB9:
	bl	_ZNKSt10filesystem7__cxx114path6stringEv
.LEHE9:
	nop
	add	x0, sp, 32
	bl	_ZNSt10filesystem7__cxx114pathD1Ev
	nop
	adrp	x0, :got:__stack_chk_guard
	ldr	x0, [x0, #:got_lo12:__stack_chk_guard]
	ldr	x2, [sp, 72]
	ldr	x1, [x0]
	subs	x2, x2, x1
	mov	x1, 0
	beq	.L106
	b	.L108
.L107:
	mov	x19, x0
	add	x0, sp, 32
	bl	_ZNSt10filesystem7__cxx114pathD1Ev
	mov	x0, x19
.LEHB10:
	bl	_Unwind_Resume
.LEHE10:
.L108:
	bl	__stack_chk_fail
.L106:
	mov	x0, x19
	ldr	x19, [sp, 16]
	ldp	x29, x30, [sp], 80
	.cfi_restore 30
	.cfi_restore 29
	.cfi_restore 19
	.cfi_def_cfa_offset 0
	ret
	.cfi_endproc
.LFE4426:
	.section	.gcc_except_table,"a",@progbits
.LLSDA4426:
	.byte	0xff
	.byte	0xff
	.byte	0x1
	.uleb128 .LLSDACSE4426-.LLSDACSB4426
.LLSDACSB4426:
	.uleb128 .LEHB8-.LFB4426
	.uleb128 .LEHE8-.LEHB8
	.uleb128 0
	.uleb128 0
	.uleb128 .LEHB9-.LFB4426
	.uleb128 .LEHE9-.LEHB9
	.uleb128 .L107-.LFB4426
	.uleb128 0
	.uleb128 .LEHB10-.LFB4426
	.uleb128 .LEHE10-.LEHB10
	.uleb128 0
	.uleb128 0
.LLSDACSE4426:
	.text
	.size	_ZN10subprocess6getcwdB5cxx11Ev, .-_ZN10subprocess6getcwdB5cxx11Ev
	.align	2
	.global	_ZN10subprocess6setcwdERKNSt7__cxx1112basic_stringIcSt11char_traitsIcESaIcEEE
	.type	_ZN10subprocess6setcwdERKNSt7__cxx1112basic_stringIcSt11char_traitsIcESaIcEEE, %function
_ZN10subprocess6setcwdERKNSt7__cxx1112basic_stringIcSt11char_traitsIcESaIcEEE:
.LFB4427:
	.cfi_startproc
	.cfi_personality 0x9b,DW.ref.__gxx_personality_v0
	.cfi_lsda 0x1b,.LLSDA4427
	stp	x29, x30, [sp, -96]!
	.cfi_def_cfa_offset 96
	.cfi_offset 29, -96
	.cfi_offset 30, -88
	mov	x29, sp
	str	x19, [sp, 16]
	.cfi_offset 19, -80
	str	x0, [sp, 40]
	adrp	x0, :got:__stack_chk_guard
	ldr	x0, [x0, #:got_lo12:__stack_chk_guard]
	ldr	x1, [x0]
	str	x1, [sp, 88]
	mov	x1, 0
	add	x0, sp, 48
	mov	w2, 2
	ldr	x1, [sp, 40]
.LEHB11:
	bl	_ZNSt10filesystem7__cxx114pathC1INSt7__cxx1112basic_stringIcSt11char_traitsIcESaIcEEES1_EERKT_NS1_6formatE
.LEHE11:
	add	x0, sp, 48
.LEHB12:
	bl	_ZNSt10filesystem12current_pathERKNS_7__cxx114pathE
.LEHE12:
	add	x0, sp, 48
	bl	_ZNSt10filesystem7__cxx114pathD1Ev
	nop
	adrp	x0, :got:__stack_chk_guard
	ldr	x0, [x0, #:got_lo12:__stack_chk_guard]
	ldr	x2, [sp, 88]
	ldr	x1, [x0]
	subs	x2, x2, x1
	mov	x1, 0
	beq	.L111
	b	.L113
.L112:
	mov	x19, x0
	add	x0, sp, 48
	bl	_ZNSt10filesystem7__cxx114pathD1Ev
	mov	x0, x19
.LEHB13:
	bl	_Unwind_Resume
.LEHE13:
.L113:
	bl	__stack_chk_fail
.L111:
	ldr	x19, [sp, 16]
	ldp	x29, x30, [sp], 96
	.cfi_restore 30
	.cfi_restore 29
	.cfi_restore 19
	.cfi_def_cfa_offset 0
	ret
	.cfi_endproc
.LFE4427:
	.section	.gcc_except_table
.LLSDA4427:
	.byte	0xff
	.byte	0xff
	.byte	0x1
	.uleb128 .LLSDACSE4427-.LLSDACSB4427
.LLSDACSB4427:
	.uleb128 .LEHB11-.LFB4427
	.uleb128 .LEHE11-.LEHB11
	.uleb128 0
	.uleb128 0
	.uleb128 .LEHB12-.LFB4427
	.uleb128 .LEHE12-.LEHB12
	.uleb128 .L112-.LFB4427
	.uleb128 0
	.uleb128 .LEHB13-.LFB4427
	.uleb128 .LEHE13-.LEHB13
	.uleb128 0
	.uleb128 0
.LLSDACSE4427:
	.text
	.size	_ZN10subprocess6setcwdERKNSt7__cxx1112basic_stringIcSt11char_traitsIcESaIcEEE, .-_ZN10subprocess6setcwdERKNSt7__cxx1112basic_stringIcSt11char_traitsIcESaIcEEE
	.align	2
	.type	_ZN12_GLOBAL__N_17is_fileERKNSt7__cxx1112basic_stringIcSt11char_traitsIcESaIcEEE, %function
_ZN12_GLOBAL__N_17is_fileERKNSt7__cxx1112basic_stringIcSt11char_traitsIcESaIcEEE:
.LFB4428:
	.cfi_startproc
	.cfi_personality 0x9b,DW.ref.__gxx_personality_v0
	.cfi_lsda 0x1b,.LLSDA4428
	stp	x29, x30, [sp, -112]!
	.cfi_def_cfa_offset 112
	.cfi_offset 29, -112
	.cfi_offset 30, -104
	mov	x29, sp
	stp	x19, x20, [sp, 16]
	.cfi_offset 19, -96
	.cfi_offset 20, -88
	str	x0, [sp, 40]
	adrp	x0, :got:__stack_chk_guard
	ldr	x0, [x0, #:got_lo12:__stack_chk_guard]
	ldr	x1, [x0]
	str	x1, [sp, 104]
	mov	x1, 0
	ldr	x0, [sp, 40]
	bl	_ZNKSt7__cxx1112basic_stringIcSt11char_traitsIcESaIcEE5emptyEv
	and	w0, w0, 255
	cmp	w0, 0
	beq	.L115
	mov	w19, 0
	b	.L116
.L115:
	add	x0, sp, 64
	mov	w2, 2
	ldr	x1, [sp, 40]
.LEHB14:
	bl	_ZNSt10filesystem7__cxx114pathC1INSt7__cxx1112basic_stringIcSt11char_traitsIcESaIcEEES1_EERKT_NS1_6formatE
.LEHE14:
	add	x0, sp, 64
.LEHB15:
	bl	_ZNSt10filesystem15is_regular_fileERKNS_7__cxx114pathE
.LEHE15:
	and	w19, w0, 255
	nop
	add	x0, sp, 64
	bl	_ZNSt10filesystem7__cxx114pathD1Ev
.L116:
	mov	w1, w19
	adrp	x0, :got:__stack_chk_guard
	ldr	x0, [x0, #:got_lo12:__stack_chk_guard]
	ldr	x3, [sp, 104]
	ldr	x2, [x0]
	subs	x3, x3, x2
	mov	x2, 0
	beq	.L120
	b	.L123
.L122:
	mov	x20, x0
	mov	x19, x1
	add	x0, sp, 64
	bl	_ZNSt10filesystem7__cxx114pathD1Ev
	mov	x0, x20
	mov	x1, x19
	b	.L118
.L121:
.L118:
	cmp	x1, 1
	beq	.L119
.LEHB16:
	bl	_Unwind_Resume
.L119:
	bl	__cxa_begin_catch
	str	x0, [sp, 56]
	mov	w19, 0
	bl	__cxa_end_catch
.LEHE16:
	b	.L116
.L123:
	bl	__stack_chk_fail
.L120:
	mov	w0, w1
	ldp	x19, x20, [sp, 16]
	ldp	x29, x30, [sp], 112
	.cfi_restore 30
	.cfi_restore 29
	.cfi_restore 19
	.cfi_restore 20
	.cfi_def_cfa_offset 0
	ret
	.cfi_endproc
.LFE4428:
	.section	.gcc_except_table
	.align	2
.LLSDA4428:
	.byte	0xff
	.byte	0x9b
	.uleb128 .LLSDATT4428-.LLSDATTD4428
.LLSDATTD4428:
	.byte	0x1
	.uleb128 .LLSDACSE4428-.LLSDACSB4428
.LLSDACSB4428:
	.uleb128 .LEHB14-.LFB4428
	.uleb128 .LEHE14-.LEHB14
	.uleb128 .L121-.LFB4428
	.uleb128 0x1
	.uleb128 .LEHB15-.LFB4428
	.uleb128 .LEHE15-.LEHB15
	.uleb128 .L122-.LFB4428
	.uleb128 0x3
	.uleb128 .LEHB16-.LFB4428
	.uleb128 .LEHE16-.LEHB16
	.uleb128 0
	.uleb128 0
.LLSDACSE4428:
	.byte	0x1
	.byte	0
	.byte	0
	.byte	0x7d
	.align	2
	.4byte	DW.ref._ZTINSt10filesystem7__cxx1116filesystem_errorE-.
.LLSDATT4428:
	.text
	.size	_ZN12_GLOBAL__N_17is_fileERKNSt7__cxx1112basic_stringIcSt11char_traitsIcESaIcEEE, .-_ZN12_GLOBAL__N_17is_fileERKNSt7__cxx1112basic_stringIcSt11char_traitsIcESaIcEEE
	.align	2
	.type	_ZN12_GLOBAL__N_15splitERKNSt7__cxx1112basic_stringIcSt11char_traitsIcESaIcEEEc, %function
_ZN12_GLOBAL__N_15splitERKNSt7__cxx1112basic_stringIcSt11char_traitsIcESaIcEEEc:
.LFB4429:
	.cfi_startproc
	.cfi_personality 0x9b,DW.ref.__gxx_personality_v0
	.cfi_lsda 0x1b,.LLSDA4429
	stp	x29, x30, [sp, -480]!
	.cfi_def_cfa_offset 480
	.cfi_offset 29, -480
	.cfi_offset 30, -472
	mov	x29, sp
	stp	x19, x20, [sp, 16]
	.cfi_offset 19, -464
	.cfi_offset 20, -456
	mov	x19, x8
	str	x0, [sp, 40]
	strb	w1, [sp, 39]
	adrp	x0, :got:__stack_chk_guard
	ldr	x0, [x0, #:got_lo12:__stack_chk_guard]
	ldr	x1, [x0]
	str	x1, [sp, 472]
	mov	x1, 0
	mov	x0, x19
	bl	_ZNSt6vectorINSt7__cxx1112basic_stringIcSt11char_traitsIcESaIcEEESaIS5_EEC1Ev
	mov	w1, 8
	mov	w0, 16
	bl	_ZStorSt13_Ios_OpenmodeS_
	mov	w1, w0
	add	x0, sp, 80
	mov	w2, w1
	ldr	x1, [sp, 40]
.LEHB17:
	bl	_ZNSt7__cxx1118basic_stringstreamIcSt11char_traitsIcESaIcEEC1ERKNS_12basic_stringIcS2_S3_EESt13_Ios_Openmode
.LEHE17:
	add	x0, sp, 48
	bl	_ZNSt7__cxx1112basic_stringIcSt11char_traitsIcESaIcEEC1Ev
	b	.L125
.L126:
	add	x0, sp, 48
	mov	x1, x0
	mov	x0, x19
.LEHB18:
	bl	_ZNSt6vectorINSt7__cxx1112basic_stringIcSt11char_traitsIcESaIcEEESaIS5_EE9push_backERKS5_
.L125:
	add	x1, sp, 48
	add	x0, sp, 80
	ldrb	w2, [sp, 39]
	bl	_ZSt7getlineIcSt11char_traitsIcESaIcEERSt13basic_istreamIT_T0_ES7_RNSt7__cxx1112basic_stringIS4_S5_T1_EES4_
	ldr	x1, [x0]
	sub	x1, x1, #24
	ldr	x1, [x1]
	add	x0, x0, x1
	bl	_ZNKSt9basic_iosIcSt11char_traitsIcEEcvbEv
.LEHE18:
	and	w0, w0, 255
	cmp	w0, 0
	bne	.L126
	nop
	add	x0, sp, 48
	bl	_ZNSt7__cxx1112basic_stringIcSt11char_traitsIcESaIcEED1Ev
	add	x0, sp, 80
	bl	_ZNSt7__cxx1118basic_stringstreamIcSt11char_traitsIcESaIcEED1Ev
	nop
	adrp	x0, :got:__stack_chk_guard
	ldr	x0, [x0, #:got_lo12:__stack_chk_guard]
	ldr	x2, [sp, 472]
	ldr	x1, [x0]
	subs	x2, x2, x1
	mov	x1, 0
	beq	.L130
	b	.L133
.L132:
	mov	x20, x0
	add	x0, sp, 48
	bl	_ZNSt7__cxx1112basic_stringIcSt11char_traitsIcESaIcEED1Ev
	add	x0, sp, 80
	bl	_ZNSt7__cxx1118basic_stringstreamIcSt11char_traitsIcESaIcEED1Ev
	b	.L129
.L131:
	mov	x20, x0
.L129:
	mov	x0, x19
	bl	_ZNSt6vectorINSt7__cxx1112basic_stringIcSt11char_traitsIcESaIcEEESaIS5_EED1Ev
	mov	x0, x20
.LEHB19:
	bl	_Unwind_Resume
.LEHE19:
.L133:
	bl	__stack_chk_fail
.L130:
	mov	x0, x19
	ldp	x19, x20, [sp, 16]
	ldp	x29, x30, [sp], 480
	.cfi_restore 30
	.cfi_restore 29
	.cfi_restore 19
	.cfi_restore 20
	.cfi_def_cfa_offset 0
	ret
	.cfi_endproc
.LFE4429:
	.section	.gcc_except_table
.LLSDA4429:
	.byte	0xff
	.byte	0xff
	.byte	0x1
	.uleb128 .LLSDACSE4429-.LLSDACSB4429
.LLSDACSB4429:
	.uleb128 .LEHB17-.LFB4429
	.uleb128 .LEHE17-.LEHB17
	.uleb128 .L131-.LFB4429
	.uleb128 0
	.uleb128 .LEHB18-.LFB4429
	.uleb128 .LEHE18-.LEHB18
	.uleb128 .L132-.LFB4429
	.uleb128 0
	.uleb128 .LEHB19-.LFB4429
	.uleb128 .LEHE19-.LEHB19
	.uleb128 0
	.uleb128 0
.LLSDACSE4429:
	.text
	.size	_ZN12_GLOBAL__N_15splitERKNSt7__cxx1112basic_stringIcSt11char_traitsIcESaIcEEEc, .-_ZN12_GLOBAL__N_15splitERKNSt7__cxx1112basic_stringIcSt11char_traitsIcESaIcEEEc
	.align	2
	.type	_ZN12_GLOBAL__N_116is_absolute_pathERKNSt7__cxx1112basic_stringIcSt11char_traitsIcESaIcEEE, %function
_ZN12_GLOBAL__N_116is_absolute_pathERKNSt7__cxx1112basic_stringIcSt11char_traitsIcESaIcEEE:
.LFB4436:
	.cfi_startproc
	stp	x29, x30, [sp, -32]!
	.cfi_def_cfa_offset 32
	.cfi_offset 29, -32
	.cfi_offset 30, -24
	mov	x29, sp
	str	x0, [sp, 24]
	ldr	x0, [sp, 24]
	bl	_ZNKSt7__cxx1112basic_stringIcSt11char_traitsIcESaIcEE5emptyEv
	and	w0, w0, 255
	cmp	w0, 0
	beq	.L135
	mov	w0, 0
	b	.L136
.L135:
	mov	x1, 0
	ldr	x0, [sp, 24]
	bl	_ZNKSt7__cxx1112basic_stringIcSt11char_traitsIcESaIcEEixEm
	ldrb	w0, [x0]
	cmp	w0, 47
	cset	w0, eq
	and	w0, w0, 255
	cmp	w0, 0
	beq	.L137
	mov	w0, 1
	b	.L136
.L137:
	mov	w0, 0
.L136:
	ldp	x29, x30, [sp], 32
	.cfi_restore 30
	.cfi_restore 29
	.cfi_def_cfa_offset 0
	ret
	.cfi_endproc
.LFE4436:
	.size	_ZN12_GLOBAL__N_116is_absolute_pathERKNSt7__cxx1112basic_stringIcSt11char_traitsIcESaIcEEE, .-_ZN12_GLOBAL__N_116is_absolute_pathERKNSt7__cxx1112basic_stringIcSt11char_traitsIcESaIcEEE
	.align	2
	.type	_ZN12_GLOBAL__N_110clean_pathENSt7__cxx1112basic_stringIcSt11char_traitsIcESaIcEEE, %function
_ZN12_GLOBAL__N_110clean_pathENSt7__cxx1112basic_stringIcSt11char_traitsIcESaIcEEE:
.LFB4437:
	.cfi_startproc
	stp	x29, x30, [sp, -64]!
	.cfi_def_cfa_offset 64
	.cfi_offset 29, -64
	.cfi_offset 30, -56
	mov	x29, sp
	str	x19, [sp, 16]
	.cfi_offset 19, -48
	mov	x19, x8
	str	x0, [sp, 40]
	str	xzr, [sp, 56]
	b	.L139
.L141:
	ldr	x1, [sp, 56]
	ldr	x0, [sp, 40]
	bl	_ZNSt7__cxx1112basic_stringIcSt11char_traitsIcESaIcEEixEm
	ldrb	w0, [x0]
	cmp	w0, 92
	cset	w0, eq
	and	w0, w0, 255
	cmp	w0, 0
	beq	.L140
	ldr	x1, [sp, 56]
	ldr	x0, [sp, 40]
	bl	_ZNSt7__cxx1112basic_stringIcSt11char_traitsIcESaIcEEixEm
	mov	x1, x0
	mov	w0, 47
	strb	w0, [x1]
.L140:
	ldr	x0, [sp, 56]
	add	x0, x0, 1
	str	x0, [sp, 56]
.L139:
	ldr	x0, [sp, 40]
	bl	_ZNKSt7__cxx1112basic_stringIcSt11char_traitsIcESaIcEE4sizeEv
	mov	x1, x0
	ldr	x0, [sp, 56]
	cmp	x0, x1
	cset	w0, cc
	and	w0, w0, 255
	cmp	w0, 0
	bne	.L141
	b	.L142
.L145:
	ldr	x0, [sp, 40]
	bl	_ZNKSt7__cxx1112basic_stringIcSt11char_traitsIcESaIcEE4sizeEv
	sub	x0, x0, #1
	mov	x1, x0
	ldr	x0, [sp, 40]
	bl	_ZNSt7__cxx1112basic_stringIcSt11char_traitsIcESaIcEE6resizeEm
.L142:
	ldr	x0, [sp, 40]
	bl	_ZNKSt7__cxx1112basic_stringIcSt11char_traitsIcESaIcEE4sizeEv
	cmp	x0, 1
	bls	.L143
	ldr	x0, [sp, 40]
	bl	_ZNKSt7__cxx1112basic_stringIcSt11char_traitsIcESaIcEE4sizeEv
	sub	x0, x0, #1
	mov	x1, x0
	ldr	x0, [sp, 40]
	bl	_ZNSt7__cxx1112basic_stringIcSt11char_traitsIcESaIcEEixEm
	ldrb	w0, [x0]
	cmp	w0, 47
	bne	.L143
	ldr	x0, [sp, 40]
	bl	_ZNKSt7__cxx1112basic_stringIcSt11char_traitsIcESaIcEE4sizeEv
	sub	x0, x0, #2
	mov	x1, x0
	ldr	x0, [sp, 40]
	bl	_ZNSt7__cxx1112basic_stringIcSt11char_traitsIcESaIcEEixEm
	ldrb	w0, [x0]
	cmp	w0, 47
	bne	.L143
	mov	w0, 1
	b	.L144
.L143:
	mov	w0, 0
.L144:
	cmp	w0, 0
	bne	.L145
	ldr	x1, [sp, 40]
	mov	x0, x19
	bl	_ZNSt7__cxx1112basic_stringIcSt11char_traitsIcESaIcEEC1EOS4_
	mov	x0, x19
	ldr	x19, [sp, 16]
	ldp	x29, x30, [sp], 64
	.cfi_restore 30
	.cfi_restore 29
	.cfi_restore 19
	.cfi_def_cfa_offset 0
	ret
	.cfi_endproc
.LFE4437:
	.size	_ZN12_GLOBAL__N_110clean_pathENSt7__cxx1112basic_stringIcSt11char_traitsIcESaIcEEE, .-_ZN12_GLOBAL__N_110clean_pathENSt7__cxx1112basic_stringIcSt11char_traitsIcESaIcEEE
	.section	.rodata
	.align	3
.LC2:
	.string	"."
	.text
	.align	2
	.type	_ZN12_GLOBAL__N_19join_pathENSt7__cxx1112basic_stringIcSt11char_traitsIcESaIcEEES5_, %function
_ZN12_GLOBAL__N_19join_pathENSt7__cxx1112basic_stringIcSt11char_traitsIcESaIcEEES5_:
.LFB4438:
	.cfi_startproc
	.cfi_personality 0x9b,DW.ref.__gxx_personality_v0
	.cfi_lsda 0x1b,.LLSDA4438
	stp	x29, x30, [sp, -128]!
	.cfi_def_cfa_offset 128
	.cfi_offset 29, -128
	.cfi_offset 30, -120
	mov	x29, sp
	str	x19, [sp, 16]
	.cfi_offset 19, -112
	mov	x19, x8
	str	x0, [sp, 40]
	str	x1, [sp, 32]
	adrp	x0, :got:__stack_chk_guard
	ldr	x0, [x0, #:got_lo12:__stack_chk_guard]
	ldr	x1, [x0]
	str	x1, [sp, 120]
	mov	x1, 0
	ldr	x0, [sp, 32]
	bl	_ZNKSt7__cxx1112basic_stringIcSt11char_traitsIcESaIcEE5emptyEv
	and	w0, w0, 255
	cmp	w0, 0
	beq	.L148
	ldr	x1, [sp, 40]
	mov	x0, x19
	bl	_ZNSt7__cxx1112basic_stringIcSt11char_traitsIcESaIcEEC1EOS4_
	b	.L149
.L148:
	adrp	x0, .LC2
	add	x1, x0, :lo12:.LC2
	ldr	x0, [sp, 32]
	bl	_ZSteqIcSt11char_traitsIcESaIcEEbRKNSt7__cxx1112basic_stringIT_T0_T1_EEPKS5_
	and	w0, w0, 255
	cmp	w0, 0
	beq	.L150
	ldr	x1, [sp, 40]
	mov	x0, x19
	bl	_ZNSt7__cxx1112basic_stringIcSt11char_traitsIcESaIcEEC1EOS4_
	b	.L149
.L150:
	mov	x2, 0
	mov	w1, 58
	ldr	x0, [sp, 32]
	bl	_ZNKSt7__cxx1112basic_stringIcSt11char_traitsIcESaIcEE4findEcm
	cmn	x0, #1
	add	x0, sp, 56
	ldr	x1, [sp, 40]
.LEHB20:
	bl	_ZNSt7__cxx1112basic_stringIcSt11char_traitsIcESaIcEEC1ERKS4_
.LEHE20:
	add	x0, sp, 56
	add	x1, sp, 88
	mov	x8, x1
.LEHB21:
	bl	_ZN12_GLOBAL__N_110clean_pathENSt7__cxx1112basic_stringIcSt11char_traitsIcESaIcEEE
.LEHE21:
	add	x0, sp, 88
	mov	x1, x0
	ldr	x0, [sp, 40]
	bl	_ZNSt7__cxx1112basic_stringIcSt11char_traitsIcESaIcEEaSEOS4_
	add	x0, sp, 88
	bl	_ZNSt7__cxx1112basic_stringIcSt11char_traitsIcESaIcEED1Ev
	add	x0, sp, 56
	bl	_ZNSt7__cxx1112basic_stringIcSt11char_traitsIcESaIcEED1Ev
	add	x0, sp, 56
	ldr	x1, [sp, 32]
.LEHB22:
	bl	_ZNSt7__cxx1112basic_stringIcSt11char_traitsIcESaIcEEC1ERKS4_
.LEHE22:
	add	x0, sp, 56
	add	x1, sp, 88
	mov	x8, x1
.LEHB23:
	bl	_ZN12_GLOBAL__N_110clean_pathENSt7__cxx1112basic_stringIcSt11char_traitsIcESaIcEEE
.LEHE23:
	add	x0, sp, 88
	mov	x1, x0
	ldr	x0, [sp, 32]
	bl	_ZNSt7__cxx1112basic_stringIcSt11char_traitsIcESaIcEEaSEOS4_
	add	x0, sp, 88
	bl	_ZNSt7__cxx1112basic_stringIcSt11char_traitsIcESaIcEED1Ev
	add	x0, sp, 56
	bl	_ZNSt7__cxx1112basic_stringIcSt11char_traitsIcESaIcEED1Ev
	b	.L151
.L156:
	mov	x1, 0
	ldr	x0, [sp, 32]
.LEHB24:
	bl	_ZNSt7__cxx1112basic_stringIcSt11char_traitsIcESaIcEEixEm
	ldrb	w0, [x0]
	cmp	w0, 46
	bne	.L152
	mov	x1, 1
	ldr	x0, [sp, 32]
	bl	_ZNSt7__cxx1112basic_stringIcSt11char_traitsIcESaIcEEixEm
	ldrb	w0, [x0]
	cmp	w0, 47
	bne	.L152
	mov	w0, 1
	b	.L153
.L152:
	mov	w0, 0
.L153:
	cmp	w0, 0
	beq	.L180
	add	x0, sp, 88
	mov	x8, x0
	mov	x2, -1
	mov	x1, 2
	ldr	x0, [sp, 32]
	bl	_ZNKSt7__cxx1112basic_stringIcSt11char_traitsIcESaIcEE6substrEmm
	add	x0, sp, 88
	mov	x1, x0
	ldr	x0, [sp, 32]
	bl	_ZNSt7__cxx1112basic_stringIcSt11char_traitsIcESaIcEEaSEOS4_
	add	x0, sp, 88
	bl	_ZNSt7__cxx1112basic_stringIcSt11char_traitsIcESaIcEED1Ev
.L151:
	ldr	x0, [sp, 32]
	bl	_ZNKSt7__cxx1112basic_stringIcSt11char_traitsIcESaIcEE4sizeEv
	cmp	x0, 1
	cset	w0, hi
	and	w0, w0, 255
	cmp	w0, 0
	bne	.L156
	b	.L155
.L180:
	nop
.L155:
	ldr	x0, [sp, 40]
	bl	_ZNKSt7__cxx1112basic_stringIcSt11char_traitsIcESaIcEE4sizeEv
	sub	x0, x0, #1
	mov	x1, x0
	ldr	x0, [sp, 40]
	bl	_ZNSt7__cxx1112basic_stringIcSt11char_traitsIcESaIcEEixEm
	ldrb	w0, [x0]
	cmp	w0, 47
	cset	w0, eq
	and	w0, w0, 255
	cmp	w0, 0
	beq	.L157
	mov	x1, 0
	ldr	x0, [sp, 32]
	bl	_ZNSt7__cxx1112basic_stringIcSt11char_traitsIcESaIcEEixEm
	ldrb	w0, [x0]
	cmp	w0, 47
	cset	w0, eq
	and	w0, w0, 255
	cmp	w0, 0
	beq	.L158
	add	x0, sp, 88
	mov	x8, x0
	mov	x2, -1
	mov	x1, 1
	ldr	x0, [sp, 32]
	bl	_ZNKSt7__cxx1112basic_stringIcSt11char_traitsIcESaIcEE6substrEmm
.LEHE24:
	add	x0, sp, 88
	mov	x1, x0
	ldr	x0, [sp, 40]
.LEHB25:
	bl	_ZNSt7__cxx1112basic_stringIcSt11char_traitsIcESaIcEEpLERKS4_
.LEHE25:
	add	x0, sp, 88
	bl	_ZNSt7__cxx1112basic_stringIcSt11char_traitsIcESaIcEED1Ev
	b	.L159
.L158:
	mov	x1, 0
	ldr	x0, [sp, 32]
.LEHB26:
	bl	_ZNSt7__cxx1112basic_stringIcSt11char_traitsIcESaIcEEixEm
	ldrb	w0, [x0]
	cmp	w0, 46
	bne	.L160
	mov	x1, 1
	ldr	x0, [sp, 32]
	bl	_ZNSt7__cxx1112basic_stringIcSt11char_traitsIcESaIcEEixEm
	ldrb	w0, [x0]
	cmp	w0, 47
	bne	.L160
	mov	w0, 1
	b	.L161
.L160:
	mov	w0, 0
.L161:
	cmp	w0, 0
	beq	.L162
	add	x0, sp, 88
	mov	x8, x0
	mov	x2, -1
	mov	x1, 2
	ldr	x0, [sp, 32]
	bl	_ZNKSt7__cxx1112basic_stringIcSt11char_traitsIcESaIcEE6substrEmm
.LEHE26:
	add	x0, sp, 88
	mov	x1, x0
	ldr	x0, [sp, 40]
.LEHB27:
	bl	_ZNSt7__cxx1112basic_stringIcSt11char_traitsIcESaIcEEpLERKS4_
.LEHE27:
	add	x0, sp, 88
	bl	_ZNSt7__cxx1112basic_stringIcSt11char_traitsIcESaIcEED1Ev
	b	.L159
.L162:
	ldr	x1, [sp, 32]
	ldr	x0, [sp, 40]
.LEHB28:
	bl	_ZNSt7__cxx1112basic_stringIcSt11char_traitsIcESaIcEEpLERKS4_
.L159:
	ldr	x1, [sp, 40]
	mov	x0, x19
	bl	_ZNSt7__cxx1112basic_stringIcSt11char_traitsIcESaIcEEC1EOS4_
	b	.L149
.L157:
	mov	x1, 0
	ldr	x0, [sp, 32]
	bl	_ZNSt7__cxx1112basic_stringIcSt11char_traitsIcESaIcEEixEm
	ldrb	w0, [x0]
	cmp	w0, 47
	cset	w0, eq
	and	w0, w0, 255
	cmp	w0, 0
	beq	.L163
	ldr	x1, [sp, 32]
	ldr	x0, [sp, 40]
	bl	_ZNSt7__cxx1112basic_stringIcSt11char_traitsIcESaIcEEpLERKS4_
	b	.L164
.L163:
	mov	x1, 0
	ldr	x0, [sp, 32]
	bl	_ZNSt7__cxx1112basic_stringIcSt11char_traitsIcESaIcEEixEm
	ldrb	w0, [x0]
	cmp	w0, 46
	bne	.L165
	mov	x1, 1
	ldr	x0, [sp, 32]
	bl	_ZNSt7__cxx1112basic_stringIcSt11char_traitsIcESaIcEEixEm
	ldrb	w0, [x0]
	cmp	w0, 47
	bne	.L165
	mov	w0, 1
	b	.L166
.L165:
	mov	w0, 0
.L166:
	cmp	w0, 0
	beq	.L167
	add	x0, sp, 88
	mov	x8, x0
	mov	x2, -1
	mov	x1, 1
	ldr	x0, [sp, 32]
	bl	_ZNKSt7__cxx1112basic_stringIcSt11char_traitsIcESaIcEE6substrEmm
.LEHE28:
	add	x0, sp, 88
	mov	x1, x0
	ldr	x0, [sp, 40]
.LEHB29:
	bl	_ZNSt7__cxx1112basic_stringIcSt11char_traitsIcESaIcEEpLERKS4_
.LEHE29:
	add	x0, sp, 88
	bl	_ZNSt7__cxx1112basic_stringIcSt11char_traitsIcESaIcEED1Ev
	b	.L164
.L167:
	mov	w1, 47
	ldr	x0, [sp, 40]
.LEHB30:
	bl	_ZNSt7__cxx1112basic_stringIcSt11char_traitsIcESaIcEEpLEc
	ldr	x1, [sp, 32]
	ldr	x0, [sp, 40]
	bl	_ZNSt7__cxx1112basic_stringIcSt11char_traitsIcESaIcEEpLERKS4_
.L164:
	ldr	x1, [sp, 40]
	mov	x0, x19
	bl	_ZNSt7__cxx1112basic_stringIcSt11char_traitsIcESaIcEEC1EOS4_
.L149:
	adrp	x0, :got:__stack_chk_guard
	ldr	x0, [x0, #:got_lo12:__stack_chk_guard]
	ldr	x2, [sp, 120]
	ldr	x1, [x0]
	subs	x2, x2, x1
	mov	x1, 0
	beq	.L173
	b	.L179
.L174:
	mov	x19, x0
	add	x0, sp, 56
	bl	_ZNSt7__cxx1112basic_stringIcSt11char_traitsIcESaIcEED1Ev
	mov	x0, x19
	bl	_Unwind_Resume
.L175:
	mov	x19, x0
	add	x0, sp, 56
	bl	_ZNSt7__cxx1112basic_stringIcSt11char_traitsIcESaIcEED1Ev
	mov	x0, x19
	bl	_Unwind_Resume
.L176:
	mov	x19, x0
	add	x0, sp, 88
	bl	_ZNSt7__cxx1112basic_stringIcSt11char_traitsIcESaIcEED1Ev
	mov	x0, x19
	bl	_Unwind_Resume
.L177:
	mov	x19, x0
	add	x0, sp, 88
	bl	_ZNSt7__cxx1112basic_stringIcSt11char_traitsIcESaIcEED1Ev
	mov	x0, x19
	bl	_Unwind_Resume
.L178:
	mov	x19, x0
	add	x0, sp, 88
	bl	_ZNSt7__cxx1112basic_stringIcSt11char_traitsIcESaIcEED1Ev
	mov	x0, x19
	bl	_Unwind_Resume
.LEHE30:
.L179:
	bl	__stack_chk_fail
.L173:
	mov	x0, x19
	ldr	x19, [sp, 16]
	ldp	x29, x30, [sp], 128
	.cfi_restore 30
	.cfi_restore 29
	.cfi_restore 19
	.cfi_def_cfa_offset 0
	ret
	.cfi_endproc
.LFE4438:
	.section	.gcc_except_table
.LLSDA4438:
	.byte	0xff
	.byte	0xff
	.byte	0x1
	.uleb128 .LLSDACSE4438-.LLSDACSB4438
.LLSDACSB4438:
	.uleb128 .LEHB20-.LFB4438
	.uleb128 .LEHE20-.LEHB20
	.uleb128 0
	.uleb128 0
	.uleb128 .LEHB21-.LFB4438
	.uleb128 .LEHE21-.LEHB21
	.uleb128 .L174-.LFB4438
	.uleb128 0
	.uleb128 .LEHB22-.LFB4438
	.uleb128 .LEHE22-.LEHB22
	.uleb128 0
	.uleb128 0
	.uleb128 .LEHB23-.LFB4438
	.uleb128 .LEHE23-.LEHB23
	.uleb128 .L175-.LFB4438
	.uleb128 0
	.uleb128 .LEHB24-.LFB4438
	.uleb128 .LEHE24-.LEHB24
	.uleb128 0
	.uleb128 0
	.uleb128 .LEHB25-.LFB4438
	.uleb128 .LEHE25-.LEHB25
	.uleb128 .L176-.LFB4438
	.uleb128 0
	.uleb128 .LEHB26-.LFB4438
	.uleb128 .LEHE26-.LEHB26
	.uleb128 0
	.uleb128 0
	.uleb128 .LEHB27-.LFB4438
	.uleb128 .LEHE27-.LEHB27
	.uleb128 .L177-.LFB4438
	.uleb128 0
	.uleb128 .LEHB28-.LFB4438
	.uleb128 .LEHE28-.LEHB28
	.uleb128 0
	.uleb128 0
	.uleb128 .LEHB29-.LFB4438
	.uleb128 .LEHE29-.LEHB29
	.uleb128 .L178-.LFB4438
	.uleb128 0
	.uleb128 .LEHB30-.LFB4438
	.uleb128 .LEHE30-.LEHB30
	.uleb128 0
	.uleb128 0
.LLSDACSE4438:
	.text
	.size	_ZN12_GLOBAL__N_19join_pathENSt7__cxx1112basic_stringIcSt11char_traitsIcESaIcEEES5_, .-_ZN12_GLOBAL__N_19join_pathENSt7__cxx1112basic_stringIcSt11char_traitsIcESaIcEEES5_
	.align	2
	.global	_ZN10subprocess7abspathENSt7__cxx1112basic_stringIcSt11char_traitsIcESaIcEEES5_
	.type	_ZN10subprocess7abspathENSt7__cxx1112basic_stringIcSt11char_traitsIcESaIcEEES5_, %function
_ZN10subprocess7abspathENSt7__cxx1112basic_stringIcSt11char_traitsIcESaIcEEES5_:
.LFB4439:
	.cfi_startproc
	.cfi_personality 0x9b,DW.ref.__gxx_personality_v0
	.cfi_lsda 0x1b,.LLSDA4439
	stp	x29, x30, [sp, -160]!
	.cfi_def_cfa_offset 160
	.cfi_offset 29, -160
	.cfi_offset 30, -152
	mov	x29, sp
	str	x19, [sp, 16]
	.cfi_offset 19, -144
	mov	x19, x8
	str	x0, [sp, 40]
	str	x1, [sp, 32]
	adrp	x0, :got:__stack_chk_guard
	ldr	x0, [x0, #:got_lo12:__stack_chk_guard]
	ldr	x1, [x0]
	str	x1, [sp, 152]
	mov	x1, 0
	add	x0, sp, 88
	ldr	x1, [sp, 40]
.LEHB31:
	bl	_ZNSt7__cxx1112basic_stringIcSt11char_traitsIcESaIcEEC1ERKS4_
.LEHE31:
	add	x0, sp, 88
	add	x1, sp, 120
	mov	x8, x1
.LEHB32:
	bl	_ZN12_GLOBAL__N_110clean_pathENSt7__cxx1112basic_stringIcSt11char_traitsIcESaIcEEE
.LEHE32:
	add	x0, sp, 120
	mov	x1, x0
	ldr	x0, [sp, 40]
	bl	_ZNSt7__cxx1112basic_stringIcSt11char_traitsIcESaIcEEaSEOS4_
	add	x0, sp, 120
	bl	_ZNSt7__cxx1112basic_stringIcSt11char_traitsIcESaIcEED1Ev
	add	x0, sp, 88
	bl	_ZNSt7__cxx1112basic_stringIcSt11char_traitsIcESaIcEED1Ev
	ldr	x0, [sp, 40]
	bl	_ZN12_GLOBAL__N_116is_absolute_pathERKNSt7__cxx1112basic_stringIcSt11char_traitsIcESaIcEEE
	and	w0, w0, 255
	cmp	w0, 0
	beq	.L182
	ldr	x1, [sp, 40]
	mov	x0, x19
	bl	_ZNSt7__cxx1112basic_stringIcSt11char_traitsIcESaIcEEC1EOS4_
	b	.L181
.L182:
	ldr	x0, [sp, 32]
	bl	_ZNKSt7__cxx1112basic_stringIcSt11char_traitsIcESaIcEE5emptyEv
	and	w0, w0, 255
	cmp	w0, 0
	beq	.L184
	add	x0, sp, 120
	mov	x8, x0
.LEHB33:
	bl	_ZN10subprocess6getcwdB5cxx11Ev
	add	x0, sp, 120
	mov	x1, x0
	ldr	x0, [sp, 32]
	bl	_ZNSt7__cxx1112basic_stringIcSt11char_traitsIcESaIcEEaSEOS4_
	add	x0, sp, 120
	bl	_ZNSt7__cxx1112basic_stringIcSt11char_traitsIcESaIcEED1Ev
.L184:
	ldr	x0, [sp, 32]
	bl	_ZN12_GLOBAL__N_116is_absolute_pathERKNSt7__cxx1112basic_stringIcSt11char_traitsIcESaIcEEE
	and	w0, w0, 255
	eor	w0, w0, 1
	and	w0, w0, 255
	cmp	w0, 0
	beq	.L185
	add	x0, sp, 56
	mov	x8, x0
	bl	_ZN10subprocess6getcwdB5cxx11Ev
.LEHE33:
	add	x0, sp, 88
	ldr	x1, [sp, 32]
.LEHB34:
	bl	_ZNSt7__cxx1112basic_stringIcSt11char_traitsIcESaIcEEC1ERKS4_
.LEHE34:
	add	x1, sp, 88
	add	x0, sp, 56
	add	x2, sp, 120
	mov	x8, x2
.LEHB35:
	bl	_ZN12_GLOBAL__N_19join_pathENSt7__cxx1112basic_stringIcSt11char_traitsIcESaIcEEES5_
.LEHE35:
	add	x0, sp, 120
	mov	x1, x0
	ldr	x0, [sp, 32]
	bl	_ZNSt7__cxx1112basic_stringIcSt11char_traitsIcESaIcEEaSEOS4_
	add	x0, sp, 120
	bl	_ZNSt7__cxx1112basic_stringIcSt11char_traitsIcESaIcEED1Ev
	add	x0, sp, 88
	bl	_ZNSt7__cxx1112basic_stringIcSt11char_traitsIcESaIcEED1Ev
	add	x0, sp, 56
	bl	_ZNSt7__cxx1112basic_stringIcSt11char_traitsIcESaIcEED1Ev
.L185:
	add	x0, sp, 88
	ldr	x1, [sp, 32]
.LEHB36:
	bl	_ZNSt7__cxx1112basic_stringIcSt11char_traitsIcESaIcEEC1ERKS4_
.LEHE36:
	add	x0, sp, 120
	ldr	x1, [sp, 40]
.LEHB37:
	bl	_ZNSt7__cxx1112basic_stringIcSt11char_traitsIcESaIcEEC1ERKS4_
.LEHE37:
	add	x1, sp, 120
	add	x0, sp, 88
	mov	x8, x19
.LEHB38:
	bl	_ZN12_GLOBAL__N_19join_pathENSt7__cxx1112basic_stringIcSt11char_traitsIcESaIcEEES5_
.LEHE38:
	add	x0, sp, 120
	bl	_ZNSt7__cxx1112basic_stringIcSt11char_traitsIcESaIcEED1Ev
	add	x0, sp, 88
	bl	_ZNSt7__cxx1112basic_stringIcSt11char_traitsIcESaIcEED1Ev
	b	.L181
.L192:
	mov	x19, x0
	add	x0, sp, 88
	bl	_ZNSt7__cxx1112basic_stringIcSt11char_traitsIcESaIcEED1Ev
	mov	x0, x19
.LEHB39:
	bl	_Unwind_Resume
.L194:
	mov	x19, x0
	add	x0, sp, 88
	bl	_ZNSt7__cxx1112basic_stringIcSt11char_traitsIcESaIcEED1Ev
	b	.L188
.L193:
	mov	x19, x0
.L188:
	add	x0, sp, 56
	bl	_ZNSt7__cxx1112basic_stringIcSt11char_traitsIcESaIcEED1Ev
	mov	x0, x19
	bl	_Unwind_Resume
.L196:
	mov	x19, x0
	add	x0, sp, 120
	bl	_ZNSt7__cxx1112basic_stringIcSt11char_traitsIcESaIcEED1Ev
	b	.L190
.L195:
	mov	x19, x0
.L190:
	add	x0, sp, 88
	bl	_ZNSt7__cxx1112basic_stringIcSt11char_traitsIcESaIcEED1Ev
	mov	x0, x19
	bl	_Unwind_Resume
.LEHE39:
.L181:
	adrp	x0, :got:__stack_chk_guard
	ldr	x0, [x0, #:got_lo12:__stack_chk_guard]
	ldr	x2, [sp, 152]
	ldr	x1, [x0]
	subs	x2, x2, x1
	mov	x1, 0
	beq	.L191
	bl	__stack_chk_fail
.L191:
	mov	x0, x19
	ldr	x19, [sp, 16]
	ldp	x29, x30, [sp], 160
	.cfi_restore 30
	.cfi_restore 29
	.cfi_restore 19
	.cfi_def_cfa_offset 0
	ret
	.cfi_endproc
.LFE4439:
	.section	.gcc_except_table
.LLSDA4439:
	.byte	0xff
	.byte	0xff
	.byte	0x1
	.uleb128 .LLSDACSE4439-.LLSDACSB4439
.LLSDACSB4439:
	.uleb128 .LEHB31-.LFB4439
	.uleb128 .LEHE31-.LEHB31
	.uleb128 0
	.uleb128 0
	.uleb128 .LEHB32-.LFB4439
	.uleb128 .LEHE32-.LEHB32
	.uleb128 .L192-.LFB4439
	.uleb128 0
	.uleb128 .LEHB33-.LFB4439
	.uleb128 .LEHE33-.LEHB33
	.uleb128 0
	.uleb128 0
	.uleb128 .LEHB34-.LFB4439
	.uleb128 .LEHE34-.LEHB34
	.uleb128 .L193-.LFB4439
	.uleb128 0
	.uleb128 .LEHB35-.LFB4439
	.uleb128 .LEHE35-.LEHB35
	.uleb128 .L194-.LFB4439
	.uleb128 0
	.uleb128 .LEHB36-.LFB4439
	.uleb128 .LEHE36-.LEHB36
	.uleb128 0
	.uleb128 0
	.uleb128 .LEHB37-.LFB4439
	.uleb128 .LEHE37-.LEHB37
	.uleb128 .L195-.LFB4439
	.uleb128 0
	.uleb128 .LEHB38-.LFB4439
	.uleb128 .LEHE38-.LEHB38
	.uleb128 .L196-.LFB4439
	.uleb128 0
	.uleb128 .LEHB39-.LFB4439
	.uleb128 .LEHE39-.LEHB39
	.uleb128 0
	.uleb128 0
.LLSDACSE4439:
	.text
	.size	_ZN10subprocess7abspathENSt7__cxx1112basic_stringIcSt11char_traitsIcESaIcEEES5_, .-_ZN10subprocess7abspathENSt7__cxx1112basic_stringIcSt11char_traitsIcESaIcEEES5_
	.section	.rodata
	.align	3
.LC3:
	.string	""
	.text
	.align	2
	.global	_ZN10subprocess6getenvERKNSt7__cxx1112basic_stringIcSt11char_traitsIcESaIcEEE
	.type	_ZN10subprocess6getenvERKNSt7__cxx1112basic_stringIcSt11char_traitsIcESaIcEEE, %function
_ZN10subprocess6getenvERKNSt7__cxx1112basic_stringIcSt11char_traitsIcESaIcEEE:
.LFB4440:
	.cfi_startproc
	.cfi_personality 0x9b,DW.ref.__gxx_personality_v0
	.cfi_lsda 0x1b,.LLSDA4440
	stp	x29, x30, [sp, -80]!
	.cfi_def_cfa_offset 80
	.cfi_offset 29, -80
	.cfi_offset 30, -72
	mov	x29, sp
	stp	x19, x20, [sp, 16]
	.cfi_offset 19, -64
	.cfi_offset 20, -56
	mov	x19, x8
	str	x0, [sp, 40]
	adrp	x0, :got:__stack_chk_guard
	ldr	x0, [x0, #:got_lo12:__stack_chk_guard]
	ldr	x1, [x0]
	str	x1, [sp, 72]
	mov	x1, 0
	ldr	x0, [sp, 40]
	bl	_ZNKSt7__cxx1112basic_stringIcSt11char_traitsIcESaIcEE5c_strEv
	bl	getenv
	str	x0, [sp, 64]
	ldr	x0, [sp, 64]
	cmp	x0, 0
	bne	.L198
	add	x0, sp, 56
	bl	_ZNSaIcEC1Ev
	add	x0, sp, 56
	mov	x2, x0
	adrp	x0, .LC3
	add	x1, x0, :lo12:.LC3
	mov	x0, x19
.LEHB40:
	bl	_ZNSt7__cxx1112basic_stringIcSt11char_traitsIcESaIcEEC1IS3_EEPKcRKS3_
.LEHE40:
	add	x0, sp, 56
	bl	_ZNSaIcED1Ev
	b	.L197
.L198:
	ldr	x20, [sp, 64]
	add	x0, sp, 56
	bl	_ZNSaIcEC1Ev
	add	x0, sp, 56
	mov	x2, x0
	mov	x1, x20
	mov	x0, x19
.LEHB41:
	bl	_ZNSt7__cxx1112basic_stringIcSt11char_traitsIcESaIcEEC1IS3_EEPKcRKS3_
.LEHE41:
	add	x0, sp, 56
	bl	_ZNSaIcED1Ev
	b	.L197
.L204:
	mov	x19, x0
	add	x0, sp, 56
	bl	_ZNSaIcED1Ev
	mov	x0, x19
.LEHB42:
	bl	_Unwind_Resume
.L205:
	mov	x19, x0
	add	x0, sp, 56
	bl	_ZNSaIcED1Ev
	mov	x0, x19
	bl	_Unwind_Resume
.LEHE42:
.L197:
	adrp	x0, :got:__stack_chk_guard
	ldr	x0, [x0, #:got_lo12:__stack_chk_guard]
	ldr	x2, [sp, 72]
	ldr	x1, [x0]
	subs	x2, x2, x1
	mov	x1, 0
	beq	.L203
	bl	__stack_chk_fail
.L203:
	mov	x0, x19
	ldp	x19, x20, [sp, 16]
	ldp	x29, x30, [sp], 80
	.cfi_restore 30
	.cfi_restore 29
	.cfi_restore 19
	.cfi_restore 20
	.cfi_def_cfa_offset 0
	ret
	.cfi_endproc
.LFE4440:
	.section	.gcc_except_table
.LLSDA4440:
	.byte	0xff
	.byte	0xff
	.byte	0x1
	.uleb128 .LLSDACSE4440-.LLSDACSB4440
.LLSDACSB4440:
	.uleb128 .LEHB40-.LFB4440
	.uleb128 .LEHE40-.LEHB40
	.uleb128 .L204-.LFB4440
	.uleb128 0
	.uleb128 .LEHB41-.LFB4440
	.uleb128 .LEHE41-.LEHB41
	.uleb128 .L205-.LFB4440
	.uleb128 0
	.uleb128 .LEHB42-.LFB4440
	.uleb128 .LEHE42-.LEHB42
	.uleb128 0
	.uleb128 0
.LLSDACSE4440:
	.text
	.size	_ZN10subprocess6getenvERKNSt7__cxx1112basic_stringIcSt11char_traitsIcESaIcEEE, .-_ZN10subprocess6getenvERKNSt7__cxx1112basic_stringIcSt11char_traitsIcESaIcEEE
	.align	2
	.global	_ZN10subprocess7try_exeENSt7__cxx1112basic_stringIcSt11char_traitsIcESaIcEEE
	.type	_ZN10subprocess7try_exeENSt7__cxx1112basic_stringIcSt11char_traitsIcESaIcEEE, %function
_ZN10subprocess7try_exeENSt7__cxx1112basic_stringIcSt11char_traitsIcESaIcEEE:
.LFB4441:
	.cfi_startproc
	.cfi_personality 0x9b,DW.ref.__gxx_personality_v0
	.cfi_lsda 0x1b,.LLSDA4441
	stp	x29, x30, [sp, -64]!
	.cfi_def_cfa_offset 64
	.cfi_offset 29, -64
	.cfi_offset 30, -56
	mov	x29, sp
	str	x19, [sp, 16]
	.cfi_offset 19, -48
	mov	x19, x8
	str	x0, [sp, 40]
	adrp	x0, :got:__stack_chk_guard
	ldr	x0, [x0, #:got_lo12:__stack_chk_guard]
	ldr	x1, [x0]
	str	x1, [sp, 56]
	mov	x1, 0
	ldr	x0, [sp, 40]
.LEHB43:
	bl	_ZN12_GLOBAL__N_17is_fileERKNSt7__cxx1112basic_stringIcSt11char_traitsIcESaIcEEE
.LEHE43:
	and	w0, w0, 255
	cmp	w0, 0
	beq	.L207
	ldr	x1, [sp, 40]
	mov	x0, x19
	bl	_ZNSt7__cxx1112basic_stringIcSt11char_traitsIcESaIcEEC1EOS4_
	b	.L206
.L207:
	add	x0, sp, 48
	bl	_ZNSaIcEC1Ev
	add	x0, sp, 48
	mov	x2, x0
	adrp	x0, .LC3
	add	x1, x0, :lo12:.LC3
	mov	x0, x19
.LEHB44:
	bl	_ZNSt7__cxx1112basic_stringIcSt11char_traitsIcESaIcEEC1IS3_EEPKcRKS3_
.LEHE44:
	add	x0, sp, 48
	bl	_ZNSaIcED1Ev
	b	.L206
.L211:
	mov	x19, x0
	add	x0, sp, 48
	bl	_ZNSaIcED1Ev
	mov	x0, x19
.LEHB45:
	bl	_Unwind_Resume
.LEHE45:
.L206:
	adrp	x0, :got:__stack_chk_guard
	ldr	x0, [x0, #:got_lo12:__stack_chk_guard]
	ldr	x2, [sp, 56]
	ldr	x1, [x0]
	subs	x2, x2, x1
	mov	x1, 0
	beq	.L210
	bl	__stack_chk_fail
.L210:
	mov	x0, x19
	ldr	x19, [sp, 16]
	ldp	x29, x30, [sp], 64
	.cfi_restore 30
	.cfi_restore 29
	.cfi_restore 19
	.cfi_def_cfa_offset 0
	ret
	.cfi_endproc
.LFE4441:
	.section	.gcc_except_table
.LLSDA4441:
	.byte	0xff
	.byte	0xff
	.byte	0x1
	.uleb128 .LLSDACSE4441-.LLSDACSB4441
.LLSDACSB4441:
	.uleb128 .LEHB43-.LFB4441
	.uleb128 .LEHE43-.LEHB43
	.uleb128 0
	.uleb128 0
	.uleb128 .LEHB44-.LFB4441
	.uleb128 .LEHE44-.LEHB44
	.uleb128 .L211-.LFB4441
	.uleb128 0
	.uleb128 .LEHB45-.LFB4441
	.uleb128 .LEHE45-.LEHB45
	.uleb128 0
	.uleb128 0
.LLSDACSE4441:
	.text
	.size	_ZN10subprocess7try_exeENSt7__cxx1112basic_stringIcSt11char_traitsIcESaIcEEE, .-_ZN10subprocess7try_exeENSt7__cxx1112basic_stringIcSt11char_traitsIcESaIcEEE
	.local	_ZN10subprocessL21g_program_cache_mutexE
	.comm	_ZN10subprocessL21g_program_cache_mutexE,48,8
	.local	_ZN10subprocessL15g_program_cacheE
	.comm	_ZN10subprocessL15g_program_cacheE,48,8
	.section	.rodata
	.align	3
.LC4:
	.string	"PATH"
	.text
	.align	2
	.type	_ZN10subprocessL20find_program_in_pathERKNSt7__cxx1112basic_stringIcSt11char_traitsIcESaIcEEE, %function
_ZN10subprocessL20find_program_in_pathERKNSt7__cxx1112basic_stringIcSt11char_traitsIcESaIcEEE:
.LFB4448:
	.cfi_startproc
	.cfi_personality 0x9b,DW.ref.__gxx_personality_v0
	.cfi_lsda 0x1b,.LLSDA4448
	stp	x29, x30, [sp, -272]!
	.cfi_def_cfa_offset 272
	.cfi_offset 29, -272
	.cfi_offset 30, -264
	mov	x29, sp
	stp	x19, x20, [sp, 16]
	.cfi_offset 19, -256
	.cfi_offset 20, -248
	mov	x19, x8
	str	x0, [sp, 40]
	adrp	x0, :got:__stack_chk_guard
	ldr	x0, [x0, #:got_lo12:__stack_chk_guard]
	ldr	x1, [x0]
	str	x1, [sp, 264]
	mov	x1, 0
	add	x2, sp, 96
	adrp	x0, _ZN10subprocessL21g_program_cache_mutexE
	add	x1, x0, :lo12:_ZN10subprocessL21g_program_cache_mutexE
	mov	x0, x2
.LEHB46:
	bl	_ZNSt11unique_lockISt5mutexEC1ERS0_
.LEHE46:
	adrp	x0, _ZN10subprocessL15g_program_cacheE
	add	x0, x0, :lo12:_ZN10subprocessL15g_program_cacheE
	str	x0, [sp, 80]
	ldr	x0, [sp, 40]
	bl	_ZNKSt7__cxx1112basic_stringIcSt11char_traitsIcESaIcEE5emptyEv
	and	w0, w0, 255
	cmp	w0, 0
	beq	.L213
	add	x0, sp, 112
	bl	_ZNSaIcEC1Ev
	add	x0, sp, 112
	mov	x2, x0
	adrp	x0, .LC3
	add	x1, x0, :lo12:.LC3
	mov	x0, x19
.LEHB47:
	bl	_ZNSt7__cxx1112basic_stringIcSt11char_traitsIcESaIcEEC1IS3_EEPKcRKS3_
.LEHE47:
	add	x0, sp, 112
	bl	_ZNSaIcED1Ev
	b	.L214
.L213:
	ldr	x0, [sp, 40]
	bl	_ZNKSt7__cxx1112basic_stringIcSt11char_traitsIcESaIcEE4sizeEv
	cmp	x0, 1
	cset	w0, hi
	and	w0, w0, 255
	cmp	w0, 0
	beq	.L215
	mov	x1, 0
	ldr	x0, [sp, 40]
	bl	_ZNKSt7__cxx1112basic_stringIcSt11char_traitsIcESaIcEEixEm
	ldrb	w0, [x0]
	cmp	w0, 46
	bne	.L216
	mov	x1, 1
	ldr	x0, [sp, 40]
	bl	_ZNKSt7__cxx1112basic_stringIcSt11char_traitsIcESaIcEEixEm
	ldrb	w0, [x0]
	cmp	w0, 47
	beq	.L217
.L216:
	mov	x1, 0
	ldr	x0, [sp, 40]
	bl	_ZNKSt7__cxx1112basic_stringIcSt11char_traitsIcESaIcEEixEm
	ldrb	w0, [x0]
	cmp	w0, 47
	bne	.L218
.L217:
	mov	w0, 1
	b	.L219
.L218:
	mov	w0, 0
.L219:
	cmp	w0, 0
	beq	.L220
	ldr	x0, [sp, 40]
.LEHB48:
	bl	_ZN12_GLOBAL__N_17is_fileERKNSt7__cxx1112basic_stringIcSt11char_traitsIcESaIcEEE
	and	w0, w0, 255
	cmp	w0, 0
	beq	.L220
	add	x0, sp, 200
	ldr	x1, [sp, 40]
	bl	_ZNSt7__cxx1112basic_stringIcSt11char_traitsIcESaIcEEC1ERKS4_
.LEHE48:
	add	x0, sp, 112
	bl	_ZNSaIcEC1Ev
	add	x0, sp, 112
	add	x3, sp, 232
	mov	x2, x0
	adrp	x0, .LC3
	add	x1, x0, :lo12:.LC3
	mov	x0, x3
.LEHB49:
	bl	_ZNSt7__cxx1112basic_stringIcSt11char_traitsIcESaIcEEC1IS3_EEPKcRKS3_
.LEHE49:
	add	x1, sp, 232
	add	x0, sp, 200
	mov	x8, x19
.LEHB50:
	bl	_ZN10subprocess7abspathENSt7__cxx1112basic_stringIcSt11char_traitsIcESaIcEEES5_
.LEHE50:
	add	x0, sp, 232
	bl	_ZNSt7__cxx1112basic_stringIcSt11char_traitsIcESaIcEED1Ev
	add	x0, sp, 112
	bl	_ZNSaIcED1Ev
	add	x0, sp, 200
	bl	_ZNSt7__cxx1112basic_stringIcSt11char_traitsIcESaIcEED1Ev
	b	.L214
.L220:
	ldr	x0, [sp, 40]
	bl	_ZN12_GLOBAL__N_116is_absolute_pathERKNSt7__cxx1112basic_stringIcSt11char_traitsIcESaIcEEE
	and	w0, w0, 255
	cmp	w0, 0
	bne	.L221
	mov	x1, 0
	ldr	x0, [sp, 40]
	bl	_ZNKSt7__cxx1112basic_stringIcSt11char_traitsIcESaIcEEixEm
	ldrb	w0, [x0]
	cmp	w0, 46
	bne	.L222
	mov	x1, 1
	ldr	x0, [sp, 40]
	bl	_ZNKSt7__cxx1112basic_stringIcSt11char_traitsIcESaIcEEixEm
	ldrb	w0, [x0]
	cmp	w0, 47
	bne	.L222
.L221:
	mov	w0, 1
	b	.L223
.L222:
	mov	w0, 0
.L223:
	cmp	w0, 0
	beq	.L215
	add	x0, sp, 232
	ldr	x1, [sp, 40]
.LEHB51:
	bl	_ZNSt7__cxx1112basic_stringIcSt11char_traitsIcESaIcEEC1ERKS4_
.LEHE51:
	add	x0, sp, 232
	add	x1, sp, 168
	mov	x8, x1
.LEHB52:
	bl	_ZN10subprocess7try_exeENSt7__cxx1112basic_stringIcSt11char_traitsIcESaIcEEE
.LEHE52:
	add	x0, sp, 232
	bl	_ZNSt7__cxx1112basic_stringIcSt11char_traitsIcESaIcEED1Ev
	add	x0, sp, 168
	bl	_ZNKSt7__cxx1112basic_stringIcSt11char_traitsIcESaIcEE5emptyEv
	and	w0, w0, 255
	eor	w0, w0, 1
	and	w0, w0, 255
	cmp	w0, 0
	beq	.L224
	add	x0, sp, 168
.LEHB53:
	bl	_ZN12_GLOBAL__N_17is_fileERKNSt7__cxx1112basic_stringIcSt11char_traitsIcESaIcEEE
	and	w0, w0, 255
	cmp	w0, 0
	beq	.L224
	add	x1, sp, 168
	add	x0, sp, 200
	bl	_ZNSt7__cxx1112basic_stringIcSt11char_traitsIcESaIcEEC1ERKS4_
.LEHE53:
	add	x0, sp, 112
	bl	_ZNSaIcEC1Ev
	add	x0, sp, 112
	add	x3, sp, 232
	mov	x2, x0
	adrp	x0, .LC3
	add	x1, x0, :lo12:.LC3
	mov	x0, x3
.LEHB54:
	bl	_ZNSt7__cxx1112basic_stringIcSt11char_traitsIcESaIcEEC1IS3_EEPKcRKS3_
.LEHE54:
	add	x1, sp, 232
	add	x0, sp, 200
	mov	x8, x19
.LEHB55:
	bl	_ZN10subprocess7abspathENSt7__cxx1112basic_stringIcSt11char_traitsIcESaIcEEES5_
.LEHE55:
	add	x0, sp, 232
	bl	_ZNSt7__cxx1112basic_stringIcSt11char_traitsIcESaIcEED1Ev
	add	x0, sp, 112
	bl	_ZNSaIcED1Ev
	add	x0, sp, 200
	bl	_ZNSt7__cxx1112basic_stringIcSt11char_traitsIcESaIcEED1Ev
	mov	w20, 0
	b	.L225
.L224:
	mov	w20, 1
.L225:
	add	x0, sp, 168
	bl	_ZNSt7__cxx1112basic_stringIcSt11char_traitsIcESaIcEED1Ev
	cmp	w20, 1
	bne	.L214
.L215:
	ldr	x1, [sp, 40]
	ldr	x0, [sp, 80]
.LEHB56:
	bl	_ZNSt3mapINSt7__cxx1112basic_stringIcSt11char_traitsIcESaIcEEES5_St4lessIS5_ESaISt4pairIKS5_S5_EEE4findERS9_
	str	x0, [sp, 56]
	ldr	x0, [sp, 80]
	bl	_ZNSt3mapINSt7__cxx1112basic_stringIcSt11char_traitsIcESaIcEEES5_St4lessIS5_ESaISt4pairIKS5_S5_EEE3endEv
	str	x0, [sp, 112]
	add	x1, sp, 112
	add	x0, sp, 56
	bl	_ZStneRKSt17_Rb_tree_iteratorISt4pairIKNSt7__cxx1112basic_stringIcSt11char_traitsIcESaIcEEES6_EESB_
	and	w0, w0, 255
	cmp	w0, 0
	beq	.L227
	add	x0, sp, 56
	bl	_ZNKSt17_Rb_tree_iteratorISt4pairIKNSt7__cxx1112basic_stringIcSt11char_traitsIcESaIcEEES6_EEptEv
	add	x0, x0, 32
	mov	x1, x0
	mov	x0, x19
	bl	_ZNSt7__cxx1112basic_stringIcSt11char_traitsIcESaIcEEC1ERKS4_
.LEHE56:
	b	.L214
.L227:
	add	x0, sp, 112
	bl	_ZNSaIcEC1Ev
	add	x0, sp, 112
	add	x3, sp, 232
	mov	x2, x0
	adrp	x0, .LC4
	add	x1, x0, :lo12:.LC4
	mov	x0, x3
.LEHB57:
	bl	_ZNSt7__cxx1112basic_stringIcSt11char_traitsIcESaIcEEC1IS3_EEPKcRKS3_
.LEHE57:
	add	x0, sp, 232
	add	x1, sp, 136
	mov	x8, x1
.LEHB58:
	bl	_ZN10subprocess6getenvERKNSt7__cxx1112basic_stringIcSt11char_traitsIcESaIcEEE
.LEHE58:
	add	x0, sp, 232
	bl	_ZNSt7__cxx1112basic_stringIcSt11char_traitsIcESaIcEED1Ev
	add	x0, sp, 112
	bl	_ZNSaIcED1Ev
	add	x0, sp, 136
	add	x1, sp, 112
	mov	x8, x1
	mov	w1, 58
.LEHB59:
	bl	_ZN12_GLOBAL__N_15splitERKNSt7__cxx1112basic_stringIcSt11char_traitsIcESaIcEEEc
.LEHE59:
	add	x0, sp, 112
	str	x0, [sp, 88]
	ldr	x0, [sp, 88]
	bl	_ZNSt6vectorINSt7__cxx1112basic_stringIcSt11char_traitsIcESaIcEEESaIS5_EE5beginEv
	str	x0, [sp, 64]
	ldr	x0, [sp, 88]
	bl	_ZNSt6vectorINSt7__cxx1112basic_stringIcSt11char_traitsIcESaIcEEESaIS5_EE3endEv
	str	x0, [sp, 72]
	b	.L228
.L237:
	add	x0, sp, 64
	bl	_ZNK9__gnu_cxx17__normal_iteratorIPNSt7__cxx1112basic_stringIcSt11char_traitsIcESaIcEEESt6vectorIS6_SaIS6_EEEdeEv
	mov	x1, x0
	add	x0, sp, 168
.LEHB60:
	bl	_ZNSt7__cxx1112basic_stringIcSt11char_traitsIcESaIcEEC1ERKS4_
.LEHE60:
	add	x0, sp, 168
	bl	_ZNKSt7__cxx1112basic_stringIcSt11char_traitsIcESaIcEE5emptyEv
	and	w0, w0, 255
	cmp	w0, 0
	beq	.L229
	mov	w20, 0
	b	.L230
.L229:
	add	x0, sp, 168
	mov	w1, 47
.LEHB61:
	bl	_ZNSt7__cxx1112basic_stringIcSt11char_traitsIcESaIcEEpLEc
	add	x0, sp, 168
	ldr	x1, [sp, 40]
	bl	_ZNSt7__cxx1112basic_stringIcSt11char_traitsIcESaIcEEpLERKS4_
	add	x1, sp, 168
	add	x0, sp, 200
	bl	_ZNSt7__cxx1112basic_stringIcSt11char_traitsIcESaIcEEC1ERKS4_
.LEHE61:
	add	x0, sp, 200
	add	x1, sp, 232
	mov	x8, x1
.LEHB62:
	bl	_ZN10subprocess7try_exeENSt7__cxx1112basic_stringIcSt11char_traitsIcESaIcEEE
.LEHE62:
	add	x1, sp, 232
	add	x0, sp, 168
	bl	_ZNSt7__cxx1112basic_stringIcSt11char_traitsIcESaIcEEaSEOS4_
	add	x0, sp, 232
	bl	_ZNSt7__cxx1112basic_stringIcSt11char_traitsIcESaIcEED1Ev
	add	x0, sp, 200
	bl	_ZNSt7__cxx1112basic_stringIcSt11char_traitsIcESaIcEED1Ev
	add	x0, sp, 168
	bl	_ZNKSt7__cxx1112basic_stringIcSt11char_traitsIcESaIcEE5emptyEv
	and	w0, w0, 255
	eor	w0, w0, 1
	and	w0, w0, 255
	cmp	w0, 0
	beq	.L231
	add	x0, sp, 168
.LEHB63:
	bl	_ZN12_GLOBAL__N_17is_fileERKNSt7__cxx1112basic_stringIcSt11char_traitsIcESaIcEEE
	and	w0, w0, 255
	cmp	w0, 0
	beq	.L231
	mov	w0, 1
	b	.L232
.L231:
	mov	w0, 0
.L232:
	cmp	w0, 0
	beq	.L233
	ldr	x1, [sp, 40]
	ldr	x0, [sp, 80]
	bl	_ZNSt3mapINSt7__cxx1112basic_stringIcSt11char_traitsIcESaIcEEES5_St4lessIS5_ESaISt4pairIKS5_S5_EEEixERS9_
	mov	x2, x0
	add	x0, sp, 168
	mov	x1, x0
	mov	x0, x2
	bl	_ZNSt7__cxx1112basic_stringIcSt11char_traitsIcESaIcEEaSERKS4_
.LEHE63:
	add	x0, sp, 168
	mov	x1, x0
	mov	x0, x19
	bl	_ZNSt7__cxx1112basic_stringIcSt11char_traitsIcESaIcEEC1EOS4_
	mov	w20, 1
	b	.L230
.L233:
	mov	w20, 2
.L230:
	add	x0, sp, 168
	bl	_ZNSt7__cxx1112basic_stringIcSt11char_traitsIcESaIcEED1Ev
	cmp	w20, 0
	beq	.L234
	cmp	w20, 2
	beq	.L234
	mov	w20, 0
	b	.L236
.L234:
	add	x0, sp, 64
	bl	_ZN9__gnu_cxx17__normal_iteratorIPNSt7__cxx1112basic_stringIcSt11char_traitsIcESaIcEEESt6vectorIS6_SaIS6_EEEppEv
.L228:
	add	x1, sp, 72
	add	x0, sp, 64
	bl	_ZN9__gnu_cxxneIPNSt7__cxx1112basic_stringIcSt11char_traitsIcESaIcEEESt6vectorIS6_SaIS6_EEEEbRKNS_17__normal_iteratorIT_T0_EESG_
	and	w0, w0, 255
	cmp	w0, 0
	bne	.L237
	mov	w20, 1
.L236:
	add	x0, sp, 112
	bl	_ZNSt6vectorINSt7__cxx1112basic_stringIcSt11char_traitsIcESaIcEEESaIS5_EED1Ev
	cmp	w20, 1
	bne	.L240
	nop
	add	x0, sp, 112
	bl	_ZNSaIcEC1Ev
	add	x0, sp, 112
	mov	x2, x0
	adrp	x0, .LC3
	add	x1, x0, :lo12:.LC3
	mov	x0, x19
.LEHB64:
	bl	_ZNSt7__cxx1112basic_stringIcSt11char_traitsIcESaIcEEC1IS3_EEPKcRKS3_
.LEHE64:
	add	x0, sp, 112
	bl	_ZNSaIcED1Ev
.L240:
	add	x0, sp, 136
	bl	_ZNSt7__cxx1112basic_stringIcSt11char_traitsIcESaIcEED1Ev
.L214:
	add	x0, sp, 96
	bl	_ZNSt11unique_lockISt5mutexED1Ev
	adrp	x0, :got:__stack_chk_guard
	ldr	x0, [x0, #:got_lo12:__stack_chk_guard]
	ldr	x2, [sp, 264]
	ldr	x1, [x0]
	subs	x2, x2, x1
	mov	x1, 0
	beq	.L257
	b	.L273
.L258:
	mov	x19, x0
	add	x0, sp, 112
	bl	_ZNSaIcED1Ev
	b	.L243
.L261:
	mov	x19, x0
	add	x0, sp, 232
	bl	_ZNSt7__cxx1112basic_stringIcSt11char_traitsIcESaIcEED1Ev
	b	.L245
.L260:
	mov	x19, x0
.L245:
	add	x0, sp, 112
	bl	_ZNSaIcED1Ev
	add	x0, sp, 200
	bl	_ZNSt7__cxx1112basic_stringIcSt11char_traitsIcESaIcEED1Ev
	b	.L243
.L262:
	mov	x19, x0
	add	x0, sp, 232
	bl	_ZNSt7__cxx1112basic_stringIcSt11char_traitsIcESaIcEED1Ev
	b	.L243
.L265:
	mov	x19, x0
	add	x0, sp, 232
	bl	_ZNSt7__cxx1112basic_stringIcSt11char_traitsIcESaIcEED1Ev
	b	.L248
.L264:
	mov	x19, x0
.L248:
	add	x0, sp, 112
	bl	_ZNSaIcED1Ev
	add	x0, sp, 200
	bl	_ZNSt7__cxx1112basic_stringIcSt11char_traitsIcESaIcEED1Ev
	b	.L249
.L263:
	mov	x19, x0
.L249:
	add	x0, sp, 168
	bl	_ZNSt7__cxx1112basic_stringIcSt11char_traitsIcESaIcEED1Ev
	b	.L243
.L267:
	mov	x19, x0
	add	x0, sp, 232
	bl	_ZNSt7__cxx1112basic_stringIcSt11char_traitsIcESaIcEED1Ev
	b	.L251
.L266:
	mov	x19, x0
.L251:
	add	x0, sp, 112
	bl	_ZNSaIcED1Ev
	b	.L243
.L270:
	mov	x19, x0
	add	x0, sp, 200
	bl	_ZNSt7__cxx1112basic_stringIcSt11char_traitsIcESaIcEED1Ev
	b	.L253
.L269:
	mov	x19, x0
.L253:
	add	x0, sp, 168
	bl	_ZNSt7__cxx1112basic_stringIcSt11char_traitsIcESaIcEED1Ev
	b	.L254
.L268:
	mov	x19, x0
.L254:
	add	x0, sp, 112
	bl	_ZNSt6vectorINSt7__cxx1112basic_stringIcSt11char_traitsIcESaIcEEESaIS5_EED1Ev
	b	.L255
.L272:
	mov	x19, x0
	add	x0, sp, 112
	bl	_ZNSaIcED1Ev
	b	.L255
.L271:
	mov	x19, x0
.L255:
	add	x0, sp, 136
	bl	_ZNSt7__cxx1112basic_stringIcSt11char_traitsIcESaIcEED1Ev
	b	.L243
.L259:
	mov	x19, x0
.L243:
	add	x0, sp, 96
	bl	_ZNSt11unique_lockISt5mutexED1Ev
	mov	x0, x19
.LEHB65:
	bl	_Unwind_Resume
.LEHE65:
.L273:
	bl	__stack_chk_fail
.L257:
	mov	x0, x19
	ldp	x19, x20, [sp, 16]
	ldp	x29, x30, [sp], 272
	.cfi_restore 30
	.cfi_restore 29
	.cfi_restore 19
	.cfi_restore 20
	.cfi_def_cfa_offset 0
	ret
	.cfi_endproc
.LFE4448:
	.section	.gcc_except_table
.LLSDA4448:
	.byte	0xff
	.byte	0xff
	.byte	0x1
	.uleb128 .LLSDACSE4448-.LLSDACSB4448
.LLSDACSB4448:
	.uleb128 .LEHB46-.LFB4448
	.uleb128 .LEHE46-.LEHB46
	.uleb128 0
	.uleb128 0
	.uleb128 .LEHB47-.LFB4448
	.uleb128 .LEHE47-.LEHB47
	.uleb128 .L258-.LFB4448
	.uleb128 0
	.uleb128 .LEHB48-.LFB4448
	.uleb128 .LEHE48-.LEHB48
	.uleb128 .L259-.LFB4448
	.uleb128 0
	.uleb128 .LEHB49-.LFB4448
	.uleb128 .LEHE49-.LEHB49
	.uleb128 .L260-.LFB4448
	.uleb128 0
	.uleb128 .LEHB50-.LFB4448
	.uleb128 .LEHE50-.LEHB50
	.uleb128 .L261-.LFB4448
	.uleb128 0
	.uleb128 .LEHB51-.LFB4448
	.uleb128 .LEHE51-.LEHB51
	.uleb128 .L259-.LFB4448
	.uleb128 0
	.uleb128 .LEHB52-.LFB4448
	.uleb128 .LEHE52-.LEHB52
	.uleb128 .L262-.LFB4448
	.uleb128 0
	.uleb128 .LEHB53-.LFB4448
	.uleb128 .LEHE53-.LEHB53
	.uleb128 .L263-.LFB4448
	.uleb128 0
	.uleb128 .LEHB54-.LFB4448
	.uleb128 .LEHE54-.LEHB54
	.uleb128 .L264-.LFB4448
	.uleb128 0
	.uleb128 .LEHB55-.LFB4448
	.uleb128 .LEHE55-.LEHB55
	.uleb128 .L265-.LFB4448
	.uleb128 0
	.uleb128 .LEHB56-.LFB4448
	.uleb128 .LEHE56-.LEHB56
	.uleb128 .L259-.LFB4448
	.uleb128 0
	.uleb128 .LEHB57-.LFB4448
	.uleb128 .LEHE57-.LEHB57
	.uleb128 .L266-.LFB4448
	.uleb128 0
	.uleb128 .LEHB58-.LFB4448
	.uleb128 .LEHE58-.LEHB58
	.uleb128 .L267-.LFB4448
	.uleb128 0
	.uleb128 .LEHB59-.LFB4448
	.uleb128 .LEHE59-.LEHB59
	.uleb128 .L271-.LFB4448
	.uleb128 0
	.uleb128 .LEHB60-.LFB4448
	.uleb128 .LEHE60-.LEHB60
	.uleb128 .L268-.LFB4448
	.uleb128 0
	.uleb128 .LEHB61-.LFB4448
	.uleb128 .LEHE61-.LEHB61
	.uleb128 .L269-.LFB4448
	.uleb128 0
	.uleb128 .LEHB62-.LFB4448
	.uleb128 .LEHE62-.LEHB62
	.uleb128 .L270-.LFB4448
	.uleb128 0
	.uleb128 .LEHB63-.LFB4448
	.uleb128 .LEHE63-.LEHB63
	.uleb128 .L269-.LFB4448
	.uleb128 0
	.uleb128 .LEHB64-.LFB4448
	.uleb128 .LEHE64-.LEHB64
	.uleb128 .L272-.LFB4448
	.uleb128 0
	.uleb128 .LEHB65-.LFB4448
	.uleb128 .LEHE65-.LEHB65
	.uleb128 0
	.uleb128 0
.LLSDACSE4448:
	.text
	.size	_ZN10subprocessL20find_program_in_pathERKNSt7__cxx1112basic_stringIcSt11char_traitsIcESaIcEEE, .-_ZN10subprocessL20find_program_in_pathERKNSt7__cxx1112basic_stringIcSt11char_traitsIcESaIcEEE
	.section	.text._ZN10subprocess10RunBuilderD2Ev,"axG",@progbits,_ZN10subprocess10RunBuilderD5Ev,comdat
	.align	2
	.weak	_ZN10subprocess10RunBuilderD2Ev
	.type	_ZN10subprocess10RunBuilderD2Ev, %function
_ZN10subprocess10RunBuilderD2Ev:
.LFB4452:
	.cfi_startproc
	stp	x29, x30, [sp, -32]!
	.cfi_def_cfa_offset 32
	.cfi_offset 29, -32
	.cfi_offset 30, -24
	mov	x29, sp
	str	x0, [sp, 24]
	ldr	x0, [sp, 24]
	add	x0, x0, 224
	bl	_ZNSt6vectorINSt7__cxx1112basic_stringIcSt11char_traitsIcESaIcEEESaIS5_EED1Ev
	ldr	x0, [sp, 24]
	bl	_ZN10subprocess10RunOptionsD1Ev
	nop
	ldp	x29, x30, [sp], 32
	.cfi_restore 30
	.cfi_restore 29
	.cfi_def_cfa_offset 0
	ret
	.cfi_endproc
.LFE4452:
	.size	_ZN10subprocess10RunBuilderD2Ev, .-_ZN10subprocess10RunBuilderD2Ev
	.weak	_ZN10subprocess10RunBuilderD1Ev
	.set	_ZN10subprocess10RunBuilderD1Ev,_ZN10subprocess10RunBuilderD2Ev
	.section	.rodata
	.align	3
.LC5:
	.string	"--version"
	.text
	.align	2
	.type	_ZN10subprocessL10is_python3ENSt7__cxx1112basic_stringIcSt11char_traitsIcESaIcEEE, %function
_ZN10subprocessL10is_python3ENSt7__cxx1112basic_stringIcSt11char_traitsIcESaIcEEE:
.LFB4450:
	.cfi_startproc
	.cfi_personality 0x9b,DW.ref.__gxx_personality_v0
	.cfi_lsda 0x1b,.LLSDA4450
	sub	sp, sp, #848
	.cfi_def_cfa_offset 848
	stp	x29, x30, [sp]
	.cfi_offset 29, -848
	.cfi_offset 30, -840
	mov	x29, sp
	stp	x19, x20, [sp, 16]
	str	x21, [sp, 32]
	.cfi_offset 19, -832
	.cfi_offset 20, -824
	.cfi_offset 21, -816
	str	x0, [sp, 56]
	adrp	x0, :got:__stack_chk_guard
	ldr	x0, [x0, #:got_lo12:__stack_chk_guard]
	ldr	x1, [x0]
	str	x1, [sp, 840]
	mov	x1, 0
	add	x0, sp, 208
	ldr	x1, [sp, 56]
.LEHB66:
	bl	_ZNSt7__cxx1112basic_stringIcSt11char_traitsIcESaIcEEC1ERKS4_
.LEHE66:
	add	x0, sp, 72
	bl	_ZNSaIcEC1Ev
	add	x1, sp, 72
	add	x0, sp, 208
	add	x3, x0, 32
	mov	x2, x1
	adrp	x0, .LC5
	add	x1, x0, :lo12:.LC5
	mov	x0, x3
.LEHB67:
	bl	_ZNSt7__cxx1112basic_stringIcSt11char_traitsIcESaIcEEC1IS3_EEPKcRKS3_
.LEHE67:
	add	x0, sp, 208
	mov	x20, x0
	mov	x21, 2
	add	x0, sp, 80
	bl	_ZNSaINSt7__cxx1112basic_stringIcSt11char_traitsIcESaIcEEEEC1Ev
	add	x1, sp, 80
	add	x0, sp, 104
	mov	x3, x1
	mov	x1, x20
	mov	x2, x21
.LEHB68:
	bl	_ZNSt6vectorINSt7__cxx1112basic_stringIcSt11char_traitsIcESaIcEEESaIS5_EEC1ESt16initializer_listIS5_ERKS6_
.LEHE68:
	add	x0, sp, 592
	bl	_ZN10subprocess10RunBuilderC1Ev
	mov	w0, 4
	str	w0, [sp, 88]
	add	x1, sp, 88
	add	x0, sp, 128
	bl	_ZNSt7variantIJN10subprocess10PipeOptionENSt7__cxx1112basic_stringIcSt11char_traitsIcESaIcEEEiPSiPSoP8_IO_FILEEEC1IS1_vvS1_vEEOT_
	add	x1, sp, 128
	add	x0, sp, 592
.LEHB69:
	bl	_ZN10subprocess10RunBuilder4coutERKSt7variantIJNS_10PipeOptionENSt7__cxx1112basic_stringIcSt11char_traitsIcESaIcEEEiPSiPSoP8_IO_FILEEE
.LEHE69:
	mov	x19, x0
	mov	w0, 1
	str	w0, [sp, 92]
	add	x1, sp, 92
	add	x0, sp, 168
	bl	_ZNSt7variantIJN10subprocess10PipeOptionENSt7__cxx1112basic_stringIcSt11char_traitsIcESaIcEEEiPSiPSoP8_IO_FILEEEC1IS1_vvS1_vEEOT_
	add	x0, sp, 168
	mov	x1, x0
	mov	x0, x19
.LEHB70:
	bl	_ZN10subprocess10RunBuilder4cerrERKSt7variantIJNS_10PipeOptionENSt7__cxx1112basic_stringIcSt11char_traitsIcESaIcEEEiPSiPSoP8_IO_FILEEE
	mov	x1, x0
	add	x0, sp, 368
	mov	x8, x0
	mov	x0, x1
	bl	_ZNK10subprocess10RunBuildercvNS_10RunOptionsEEv
.LEHE70:
	add	x1, sp, 368
	add	x0, sp, 104
	add	x2, sp, 272
	mov	x8, x2
.LEHB71:
	bl	_ZN10subprocess3runESt6vectorINSt7__cxx1112basic_stringIcSt11char_traitsIcESaIcEEESaIS6_EENS_10RunOptionsE
.LEHE71:
	add	x0, sp, 368
	bl	_ZN10subprocess10RunOptionsD1Ev
	add	x0, sp, 168
	bl	_ZNSt7variantIJN10subprocess10PipeOptionENSt7__cxx1112basic_stringIcSt11char_traitsIcESaIcEEEiPSiPSoP8_IO_FILEEED1Ev
	add	x0, sp, 128
	bl	_ZNSt7variantIJN10subprocess10PipeOptionENSt7__cxx1112basic_stringIcSt11char_traitsIcESaIcEEEiPSiPSoP8_IO_FILEEED1Ev
	add	x0, sp, 592
	bl	_ZN10subprocess10RunBuilderD1Ev
	add	x0, sp, 104
	bl	_ZNSt6vectorINSt7__cxx1112basic_stringIcSt11char_traitsIcESaIcEEESaIS5_EED1Ev
	add	x0, sp, 80
	bl	_ZNSaINSt7__cxx1112basic_stringIcSt11char_traitsIcESaIcEEEED1Ev
	add	x19, sp, 208
	add	x19, x19, 64
.L277:
	add	x0, sp, 208
	cmp	x19, x0
	beq	.L276
	sub	x19, x19, #32
	mov	x0, x19
	bl	_ZNSt7__cxx1112basic_stringIcSt11char_traitsIcESaIcEED1Ev
	b	.L277
.L276:
	add	x0, sp, 72
	bl	_ZNSaIcED1Ev
	str	xzr, [sp, 96]
	b	.L278
.L284:
	add	x0, sp, 272
	add	x0, x0, 32
	ldr	x1, [sp, 96]
.LEHB72:
	bl	_ZNSt7__cxx1112basic_stringIcSt11char_traitsIcESaIcEEixEm
	ldrb	w0, [x0]
	strb	w0, [sp, 87]
	ldrb	w0, [sp, 87]
	cmp	w0, 47
	bls	.L279
	ldrb	w0, [sp, 87]
	cmp	w0, 57
	bhi	.L279
	ldrb	w0, [sp, 87]
	cmp	w0, 51
	bne	.L280
	ldr	x0, [sp, 96]
	add	x1, x0, 1
	add	x0, sp, 272
	add	x0, x0, 32
	bl	_ZNSt7__cxx1112basic_stringIcSt11char_traitsIcESaIcEEixEm
.LEHE72:
	ldrb	w0, [x0]
	cmp	w0, 46
	bne	.L280
	mov	w0, 1
	b	.L281
.L280:
	mov	w0, 0
.L281:
	cmp	w0, 0
	beq	.L282
	mov	w19, 1
	b	.L283
.L282:
	mov	w19, 0
	b	.L283
.L279:
	ldr	x0, [sp, 96]
	add	x0, x0, 1
	str	x0, [sp, 96]
.L278:
	add	x0, sp, 272
	add	x0, x0, 32
	bl	_ZNKSt7__cxx1112basic_stringIcSt11char_traitsIcESaIcEE4sizeEv
	sub	x0, x0, #1
	ldr	x1, [sp, 96]
	cmp	x1, x0
	cset	w0, cc
	and	w0, w0, 255
	cmp	w0, 0
	bne	.L284
	mov	w19, 0
.L283:
	add	x0, sp, 272
	bl	_ZN10subprocess16CompletedProcessD1Ev
	mov	w1, w19
	adrp	x0, :got:__stack_chk_guard
	ldr	x0, [x0, #:got_lo12:__stack_chk_guard]
	ldr	x3, [sp, 840]
	ldr	x2, [x0]
	subs	x3, x3, x2
	mov	x2, 0
	beq	.L294
	b	.L301
.L299:
	mov	x19, x0
	add	x0, sp, 368
	bl	_ZN10subprocess10RunOptionsD1Ev
	b	.L287
.L298:
	mov	x19, x0
.L287:
	add	x0, sp, 168
	bl	_ZNSt7variantIJN10subprocess10PipeOptionENSt7__cxx1112basic_stringIcSt11char_traitsIcESaIcEEEiPSiPSoP8_IO_FILEEED1Ev
	b	.L288
.L297:
	mov	x19, x0
.L288:
	add	x0, sp, 128
	bl	_ZNSt7variantIJN10subprocess10PipeOptionENSt7__cxx1112basic_stringIcSt11char_traitsIcESaIcEEEiPSiPSoP8_IO_FILEEED1Ev
	add	x0, sp, 592
	bl	_ZN10subprocess10RunBuilderD1Ev
	add	x0, sp, 104
	bl	_ZNSt6vectorINSt7__cxx1112basic_stringIcSt11char_traitsIcESaIcEEESaIS5_EED1Ev
	b	.L289
.L296:
	mov	x19, x0
.L289:
	add	x0, sp, 80
	bl	_ZNSaINSt7__cxx1112basic_stringIcSt11char_traitsIcESaIcEEEED1Ev
	mov	x20, x19
	add	x19, sp, 208
	add	x19, x19, 64
.L291:
	add	x0, sp, 208
	cmp	x19, x0
	beq	.L290
	sub	x19, x19, #32
	mov	x0, x19
	bl	_ZNSt7__cxx1112basic_stringIcSt11char_traitsIcESaIcEED1Ev
	b	.L291
.L290:
	mov	x19, x20
	b	.L292
.L295:
	mov	x19, x0
.L292:
	add	x0, sp, 72
	bl	_ZNSaIcED1Ev
	mov	x0, x19
.LEHB73:
	bl	_Unwind_Resume
.L300:
	mov	x19, x0
	add	x0, sp, 272
	bl	_ZN10subprocess16CompletedProcessD1Ev
	mov	x0, x19
	bl	_Unwind_Resume
.LEHE73:
.L301:
	bl	__stack_chk_fail
.L294:
	mov	w0, w1
	ldp	x19, x20, [sp, 16]
	ldr	x21, [sp, 32]
	ldp	x29, x30, [sp]
	add	sp, sp, 848
	.cfi_restore 29
	.cfi_restore 30
	.cfi_restore 21
	.cfi_restore 19
	.cfi_restore 20
	.cfi_def_cfa_offset 0
	ret
	.cfi_endproc
.LFE4450:
	.section	.gcc_except_table
.LLSDA4450:
	.byte	0xff
	.byte	0xff
	.byte	0x1
	.uleb128 .LLSDACSE4450-.LLSDACSB4450
.LLSDACSB4450:
	.uleb128 .LEHB66-.LFB4450
	.uleb128 .LEHE66-.LEHB66
	.uleb128 0
	.uleb128 0
	.uleb128 .LEHB67-.LFB4450
	.uleb128 .LEHE67-.LEHB67
	.uleb128 .L295-.LFB4450
	.uleb128 0
	.uleb128 .LEHB68-.LFB4450
	.uleb128 .LEHE68-.LEHB68
	.uleb128 .L296-.LFB4450
	.uleb128 0
	.uleb128 .LEHB69-.LFB4450
	.uleb128 .LEHE69-.LEHB69
	.uleb128 .L297-.LFB4450
	.uleb128 0
	.uleb128 .LEHB70-.LFB4450
	.uleb128 .LEHE70-.LEHB70
	.uleb128 .L298-.LFB4450
	.uleb128 0
	.uleb128 .LEHB71-.LFB4450
	.uleb128 .LEHE71-.LEHB71
	.uleb128 .L299-.LFB4450
	.uleb128 0
	.uleb128 .LEHB72-.LFB4450
	.uleb128 .LEHE72-.LEHB72
	.uleb128 .L300-.LFB4450
	.uleb128 0
	.uleb128 .LEHB73-.LFB4450
	.uleb128 .LEHE73-.LEHB73
	.uleb128 0
	.uleb128 0
.LLSDACSE4450:
	.text
	.size	_ZN10subprocessL10is_python3ENSt7__cxx1112basic_stringIcSt11char_traitsIcESaIcEEE, .-_ZN10subprocessL10is_python3ENSt7__cxx1112basic_stringIcSt11char_traitsIcESaIcEEE
	.section	.rodata
	.align	3
.LC6:
	.string	"python3"
	.align	3
.LC7:
	.string	"python"
	.text
	.align	2
	.global	_ZN10subprocess12find_programERKNSt7__cxx1112basic_stringIcSt11char_traitsIcESaIcEEE
	.type	_ZN10subprocess12find_programERKNSt7__cxx1112basic_stringIcSt11char_traitsIcESaIcEEE, %function
_ZN10subprocess12find_programERKNSt7__cxx1112basic_stringIcSt11char_traitsIcESaIcEEE:
.LFB4454:
	.cfi_startproc
	.cfi_personality 0x9b,DW.ref.__gxx_personality_v0
	.cfi_lsda 0x1b,.LLSDA4454
	stp	x29, x30, [sp, -272]!
	.cfi_def_cfa_offset 272
	.cfi_offset 29, -272
	.cfi_offset 30, -264
	mov	x29, sp
	stp	x19, x20, [sp, 16]
	.cfi_offset 19, -256
	.cfi_offset 20, -248
	mov	x19, x8
	str	x0, [sp, 40]
	adrp	x0, :got:__stack_chk_guard
	ldr	x0, [x0, #:got_lo12:__stack_chk_guard]
	ldr	x1, [x0]
	str	x1, [sp, 264]
	mov	x1, 0
	adrp	x0, .LC6
	add	x1, x0, :lo12:.LC6
	ldr	x0, [sp, 40]
	bl	_ZStneIcSt11char_traitsIcESaIcEEbRKNSt7__cxx1112basic_stringIT_T0_T1_EEPKS5_
	and	w0, w0, 255
	cmp	w0, 0
	beq	.L303
	mov	x8, x19
	ldr	x0, [sp, 40]
.LEHB74:
	bl	_ZN10subprocessL20find_program_in_pathERKNSt7__cxx1112basic_stringIcSt11char_traitsIcESaIcEEE
	b	.L302
.L303:
	add	x0, sp, 104
	mov	x8, x0
	ldr	x0, [sp, 40]
	bl	_ZN10subprocessL20find_program_in_pathERKNSt7__cxx1112basic_stringIcSt11char_traitsIcESaIcEEE
.LEHE74:
	add	x0, sp, 104
	bl	_ZNKSt7__cxx1112basic_stringIcSt11char_traitsIcESaIcEE5emptyEv
	and	w0, w0, 255
	eor	w0, w0, 1
	and	w0, w0, 255
	cmp	w0, 0
	beq	.L305
	add	x0, sp, 104
	mov	x1, x0
	mov	x0, x19
	bl	_ZNSt7__cxx1112basic_stringIcSt11char_traitsIcESaIcEEC1EOS4_
	b	.L306
.L305:
	add	x0, sp, 80
	bl	_ZNSaIcEC1Ev
	add	x0, sp, 80
	add	x3, sp, 232
	mov	x2, x0
	adrp	x0, .LC4
	add	x1, x0, :lo12:.LC4
	mov	x0, x3
.LEHB75:
	bl	_ZNSt7__cxx1112basic_stringIcSt11char_traitsIcESaIcEEC1IS3_EEPKcRKS3_
.LEHE75:
	add	x0, sp, 232
	add	x1, sp, 136
	mov	x8, x1
.LEHB76:
	bl	_ZN10subprocess6getenvERKNSt7__cxx1112basic_stringIcSt11char_traitsIcESaIcEEE
.LEHE76:
	add	x0, sp, 232
	bl	_ZNSt7__cxx1112basic_stringIcSt11char_traitsIcESaIcEED1Ev
	add	x0, sp, 80
	bl	_ZNSaIcED1Ev
	add	x0, sp, 136
	add	x1, sp, 80
	mov	x8, x1
	mov	w1, 58
.LEHB77:
	bl	_ZN12_GLOBAL__N_15splitERKNSt7__cxx1112basic_stringIcSt11char_traitsIcESaIcEEEc
.LEHE77:
	add	x0, sp, 80
	str	x0, [sp, 72]
	ldr	x0, [sp, 72]
	bl	_ZNSt6vectorINSt7__cxx1112basic_stringIcSt11char_traitsIcESaIcEEESaIS5_EE5beginEv
	str	x0, [sp, 56]
	ldr	x0, [sp, 72]
	bl	_ZNSt6vectorINSt7__cxx1112basic_stringIcSt11char_traitsIcESaIcEEESaIS5_EE3endEv
	str	x0, [sp, 64]
	b	.L307
.L316:
	add	x0, sp, 56
	bl	_ZNK9__gnu_cxx17__normal_iteratorIPNSt7__cxx1112basic_stringIcSt11char_traitsIcESaIcEEESt6vectorIS6_SaIS6_EEEdeEv
	mov	x1, x0
	add	x0, sp, 168
.LEHB78:
	bl	_ZNSt7__cxx1112basic_stringIcSt11char_traitsIcESaIcEEC1ERKS4_
.LEHE78:
	add	x0, sp, 168
	bl	_ZNKSt7__cxx1112basic_stringIcSt11char_traitsIcESaIcEE5emptyEv
	and	w0, w0, 255
	cmp	w0, 0
	beq	.L308
	mov	w20, 0
	b	.L309
.L308:
	add	x0, sp, 168
	mov	w1, 47
.LEHB79:
	bl	_ZNSt7__cxx1112basic_stringIcSt11char_traitsIcESaIcEEpLEc
	add	x2, sp, 168
	adrp	x0, .LC7
	add	x1, x0, :lo12:.LC7
	mov	x0, x2
	bl	_ZNSt7__cxx1112basic_stringIcSt11char_traitsIcESaIcEEpLEPKc
	add	x1, sp, 168
	add	x0, sp, 200
	bl	_ZNSt7__cxx1112basic_stringIcSt11char_traitsIcESaIcEEC1ERKS4_
.LEHE79:
	add	x0, sp, 200
	add	x1, sp, 232
	mov	x8, x1
.LEHB80:
	bl	_ZN10subprocess7try_exeENSt7__cxx1112basic_stringIcSt11char_traitsIcESaIcEEE
.LEHE80:
	add	x1, sp, 232
	add	x0, sp, 168
	bl	_ZNSt7__cxx1112basic_stringIcSt11char_traitsIcESaIcEEaSEOS4_
	add	x0, sp, 232
	bl	_ZNSt7__cxx1112basic_stringIcSt11char_traitsIcESaIcEED1Ev
	add	x0, sp, 200
	bl	_ZNSt7__cxx1112basic_stringIcSt11char_traitsIcESaIcEED1Ev
	add	x0, sp, 168
	bl	_ZNKSt7__cxx1112basic_stringIcSt11char_traitsIcESaIcEE5emptyEv
	and	w0, w0, 255
	eor	w0, w0, 1
	and	w0, w0, 255
	cmp	w0, 0
	beq	.L310
	add	x0, sp, 168
.LEHB81:
	bl	_ZN12_GLOBAL__N_17is_fileERKNSt7__cxx1112basic_stringIcSt11char_traitsIcESaIcEEE
	and	w0, w0, 255
	cmp	w0, 0
	beq	.L310
	mov	w0, 1
	b	.L311
.L310:
	mov	w0, 0
.L311:
	cmp	w0, 0
	beq	.L312
	add	x1, sp, 168
	add	x0, sp, 232
	bl	_ZNSt7__cxx1112basic_stringIcSt11char_traitsIcESaIcEEC1ERKS4_
.LEHE81:
	add	x0, sp, 232
.LEHB82:
	bl	_ZN10subprocessL10is_python3ENSt7__cxx1112basic_stringIcSt11char_traitsIcESaIcEEE
.LEHE82:
	and	w20, w0, 255
	add	x0, sp, 232
	bl	_ZNSt7__cxx1112basic_stringIcSt11char_traitsIcESaIcEED1Ev
	cmp	w20, 0
	beq	.L312
	add	x0, sp, 168
	mov	x1, x0
	mov	x0, x19
	bl	_ZNSt7__cxx1112basic_stringIcSt11char_traitsIcESaIcEEC1EOS4_
	mov	w20, 1
	b	.L309
.L312:
	mov	w20, 2
.L309:
	add	x0, sp, 168
	bl	_ZNSt7__cxx1112basic_stringIcSt11char_traitsIcESaIcEED1Ev
	cmp	w20, 0
	beq	.L313
	cmp	w20, 2
	beq	.L313
	mov	w20, 0
	b	.L315
.L313:
	add	x0, sp, 56
	bl	_ZN9__gnu_cxx17__normal_iteratorIPNSt7__cxx1112basic_stringIcSt11char_traitsIcESaIcEEESt6vectorIS6_SaIS6_EEEppEv
.L307:
	add	x1, sp, 64
	add	x0, sp, 56
	bl	_ZN9__gnu_cxxneIPNSt7__cxx1112basic_stringIcSt11char_traitsIcESaIcEEESt6vectorIS6_SaIS6_EEEEbRKNS_17__normal_iteratorIT_T0_EESG_
	and	w0, w0, 255
	cmp	w0, 0
	bne	.L316
	mov	w20, 1
.L315:
	add	x0, sp, 80
	bl	_ZNSt6vectorINSt7__cxx1112basic_stringIcSt11char_traitsIcESaIcEEESaIS5_EED1Ev
	cmp	w20, 1
	bne	.L319
	nop
	add	x0, sp, 80
	bl	_ZNSaIcEC1Ev
	add	x0, sp, 80
	mov	x2, x0
	adrp	x0, .LC3
	add	x1, x0, :lo12:.LC3
	mov	x0, x19
.LEHB83:
	bl	_ZNSt7__cxx1112basic_stringIcSt11char_traitsIcESaIcEEC1IS3_EEPKcRKS3_
.LEHE83:
	add	x0, sp, 80
	bl	_ZNSaIcED1Ev
.L319:
	add	x0, sp, 136
	bl	_ZNSt7__cxx1112basic_stringIcSt11char_traitsIcESaIcEED1Ev
.L306:
	add	x0, sp, 104
	bl	_ZNSt7__cxx1112basic_stringIcSt11char_traitsIcESaIcEED1Ev
	b	.L302
.L332:
	mov	x19, x0
	add	x0, sp, 232
	bl	_ZNSt7__cxx1112basic_stringIcSt11char_traitsIcESaIcEED1Ev
	b	.L322
.L331:
	mov	x19, x0
.L322:
	add	x0, sp, 80
	bl	_ZNSaIcED1Ev
	b	.L323
.L335:
	mov	x19, x0
	add	x0, sp, 200
	bl	_ZNSt7__cxx1112basic_stringIcSt11char_traitsIcESaIcEED1Ev
	b	.L325
.L336:
	mov	x19, x0
	add	x0, sp, 232
	bl	_ZNSt7__cxx1112basic_stringIcSt11char_traitsIcESaIcEED1Ev
	b	.L325
.L334:
	mov	x19, x0
.L325:
	add	x0, sp, 168
	bl	_ZNSt7__cxx1112basic_stringIcSt11char_traitsIcESaIcEED1Ev
	b	.L327
.L333:
	mov	x19, x0
.L327:
	add	x0, sp, 80
	bl	_ZNSt6vectorINSt7__cxx1112basic_stringIcSt11char_traitsIcESaIcEEESaIS5_EED1Ev
	b	.L328
.L338:
	mov	x19, x0
	add	x0, sp, 80
	bl	_ZNSaIcED1Ev
	b	.L328
.L337:
	mov	x19, x0
.L328:
	add	x0, sp, 136
	bl	_ZNSt7__cxx1112basic_stringIcSt11char_traitsIcESaIcEED1Ev
.L323:
	add	x0, sp, 104
	bl	_ZNSt7__cxx1112basic_stringIcSt11char_traitsIcESaIcEED1Ev
	mov	x0, x19
.LEHB84:
	bl	_Unwind_Resume
.LEHE84:
.L302:
	adrp	x0, :got:__stack_chk_guard
	ldr	x0, [x0, #:got_lo12:__stack_chk_guard]
	ldr	x2, [sp, 264]
	ldr	x1, [x0]
	subs	x2, x2, x1
	mov	x1, 0
	beq	.L330
	bl	__stack_chk_fail
.L330:
	mov	x0, x19
	ldp	x19, x20, [sp, 16]
	ldp	x29, x30, [sp], 272
	.cfi_restore 30
	.cfi_restore 29
	.cfi_restore 19
	.cfi_restore 20
	.cfi_def_cfa_offset 0
	ret
	.cfi_endproc
.LFE4454:
	.section	.gcc_except_table
.LLSDA4454:
	.byte	0xff
	.byte	0xff
	.byte	0x1
	.uleb128 .LLSDACSE4454-.LLSDACSB4454
.LLSDACSB4454:
	.uleb128 .LEHB74-.LFB4454
	.uleb128 .LEHE74-.LEHB74
	.uleb128 0
	.uleb128 0
	.uleb128 .LEHB75-.LFB4454
	.uleb128 .LEHE75-.LEHB75
	.uleb128 .L331-.LFB4454
	.uleb128 0
	.uleb128 .LEHB76-.LFB4454
	.uleb128 .LEHE76-.LEHB76
	.uleb128 .L332-.LFB4454
	.uleb128 0
	.uleb128 .LEHB77-.LFB4454
	.uleb128 .LEHE77-.LEHB77
	.uleb128 .L337-.LFB4454
	.uleb128 0
	.uleb128 .LEHB78-.LFB4454
	.uleb128 .LEHE78-.LEHB78
	.uleb128 .L333-.LFB4454
	.uleb128 0
	.uleb128 .LEHB79-.LFB4454
	.uleb128 .LEHE79-.LEHB79
	.uleb128 .L334-.LFB4454
	.uleb128 0
	.uleb128 .LEHB80-.LFB4454
	.uleb128 .LEHE80-.LEHB80
	.uleb128 .L335-.LFB4454
	.uleb128 0
	.uleb128 .LEHB81-.LFB4454
	.uleb128 .LEHE81-.LEHB81
	.uleb128 .L334-.LFB4454
	.uleb128 0
	.uleb128 .LEHB82-.LFB4454
	.uleb128 .LEHE82-.LEHB82
	.uleb128 .L336-.LFB4454
	.uleb128 0
	.uleb128 .LEHB83-.LFB4454
	.uleb128 .LEHE83-.LEHB83
	.uleb128 .L338-.LFB4454
	.uleb128 0
	.uleb128 .LEHB84-.LFB4454
	.uleb128 .LEHE84-.LEHB84
	.uleb128 0
	.uleb128 0
.LLSDACSE4454:
	.text
	.size	_ZN10subprocess12find_programERKNSt7__cxx1112basic_stringIcSt11char_traitsIcESaIcEEE, .-_ZN10subprocess12find_programERKNSt7__cxx1112basic_stringIcSt11char_traitsIcESaIcEEE
	.align	2
	.global	_ZN10subprocess24find_program_clear_cacheEv
	.type	_ZN10subprocess24find_program_clear_cacheEv, %function
_ZN10subprocess24find_program_clear_cacheEv:
.LFB4455:
	.cfi_startproc
	stp	x29, x30, [sp, -48]!
	.cfi_def_cfa_offset 48
	.cfi_offset 29, -48
	.cfi_offset 30, -40
	mov	x29, sp
	adrp	x0, :got:__stack_chk_guard
	ldr	x0, [x0, #:got_lo12:__stack_chk_guard]
	ldr	x1, [x0]
	str	x1, [sp, 40]
	mov	x1, 0
	add	x2, sp, 24
	adrp	x0, _ZN10subprocessL21g_program_cache_mutexE
	add	x1, x0, :lo12:_ZN10subprocessL21g_program_cache_mutexE
	mov	x0, x2
	bl	_ZNSt11unique_lockISt5mutexEC1ERS0_
	adrp	x0, _ZN10subprocessL15g_program_cacheE
	add	x0, x0, :lo12:_ZN10subprocessL15g_program_cacheE
	bl	_ZNSt3mapINSt7__cxx1112basic_stringIcSt11char_traitsIcESaIcEEES5_St4lessIS5_ESaISt4pairIKS5_S5_EEE5clearEv
	add	x0, sp, 24
	bl	_ZNSt11unique_lockISt5mutexED1Ev
	adrp	x0, :got:__stack_chk_guard
	ldr	x0, [x0, #:got_lo12:__stack_chk_guard]
	ldr	x2, [sp, 40]
	ldr	x1, [x0]
	subs	x2, x2, x1
	mov	x1, 0
	beq	.L340
	bl	__stack_chk_fail
.L340:
	ldp	x29, x30, [sp], 48
	.cfi_restore 30
	.cfi_restore 29
	.cfi_def_cfa_offset 0
	ret
	.cfi_endproc
.LFE4455:
	.size	_ZN10subprocess24find_program_clear_cacheEv, .-_ZN10subprocess24find_program_clear_cacheEv
	.section	.rodata
	.align	3
.LC8:
	.string	"\""
	.text
	.align	2
	.global	_ZN10subprocess16escape_shell_argENSt7__cxx1112basic_stringIcSt11char_traitsIcESaIcEEE
	.type	_ZN10subprocess16escape_shell_argENSt7__cxx1112basic_stringIcSt11char_traitsIcESaIcEEE, %function
_ZN10subprocess16escape_shell_argENSt7__cxx1112basic_stringIcSt11char_traitsIcESaIcEEE:
.LFB4456:
	.cfi_startproc
	.cfi_personality 0x9b,DW.ref.__gxx_personality_v0
	.cfi_lsda 0x1b,.LLSDA4456
	stp	x29, x30, [sp, -112]!
	.cfi_def_cfa_offset 112
	.cfi_offset 29, -112
	.cfi_offset 30, -104
	mov	x29, sp
	stp	x19, x20, [sp, 16]
	.cfi_offset 19, -96
	.cfi_offset 20, -88
	mov	x19, x8
	str	x0, [sp, 40]
	adrp	x0, :got:__stack_chk_guard
	ldr	x0, [x0, #:got_lo12:__stack_chk_guard]
	ldr	x1, [x0]
	str	x1, [sp, 104]
	mov	x1, 0
	strb	wzr, [sp, 59]
	str	xzr, [sp, 64]
	b	.L342
.L352:
	ldr	x1, [sp, 64]
	ldr	x0, [sp, 40]
.LEHB85:
	bl	_ZNSt7__cxx1112basic_stringIcSt11char_traitsIcESaIcEEixEm
	ldrb	w0, [x0]
	bl	isalpha
	cmp	w0, 0
	cset	w0, ne
	and	w0, w0, 255
	cmp	w0, 0
	bne	.L367
	ldr	x1, [sp, 64]
	ldr	x0, [sp, 40]
	bl	_ZNSt7__cxx1112basic_stringIcSt11char_traitsIcESaIcEEixEm
	ldrb	w0, [x0]
	sub	w0, w0, #48
	cmp	w0, 9
	cset	w0, ls
	and	w0, w0, 255
	cmp	w0, 0
	cset	w0, ne
	and	w0, w0, 255
	cmp	w0, 0
	bne	.L368
	ldr	x1, [sp, 64]
	ldr	x0, [sp, 40]
	bl	_ZNSt7__cxx1112basic_stringIcSt11char_traitsIcESaIcEEixEm
	ldrb	w0, [x0]
	cmp	w0, 46
	cset	w0, eq
	and	w0, w0, 255
	cmp	w0, 0
	bne	.L369
	ldr	x1, [sp, 64]
	ldr	x0, [sp, 40]
	bl	_ZNSt7__cxx1112basic_stringIcSt11char_traitsIcESaIcEEixEm
	ldrb	w0, [x0]
	cmp	w0, 95
	beq	.L347
	ldr	x1, [sp, 64]
	ldr	x0, [sp, 40]
	bl	_ZNSt7__cxx1112basic_stringIcSt11char_traitsIcESaIcEEixEm
	ldrb	w0, [x0]
	cmp	w0, 45
	beq	.L347
	ldr	x1, [sp, 64]
	ldr	x0, [sp, 40]
	bl	_ZNSt7__cxx1112basic_stringIcSt11char_traitsIcESaIcEEixEm
	ldrb	w0, [x0]
	cmp	w0, 43
	beq	.L347
	ldr	x1, [sp, 64]
	ldr	x0, [sp, 40]
	bl	_ZNSt7__cxx1112basic_stringIcSt11char_traitsIcESaIcEEixEm
.LEHE85:
	ldrb	w0, [x0]
	cmp	w0, 47
	bne	.L348
.L347:
	mov	w0, 1
	b	.L349
.L348:
	mov	w0, 0
.L349:
	cmp	w0, 0
	bne	.L370
	mov	w0, 1
	strb	w0, [sp, 59]
	b	.L351
.L367:
	nop
	b	.L344
.L368:
	nop
	b	.L344
.L369:
	nop
	b	.L344
.L370:
	nop
.L344:
	ldr	x0, [sp, 64]
	add	x0, x0, 1
	str	x0, [sp, 64]
.L342:
	ldr	x0, [sp, 40]
	bl	_ZNKSt7__cxx1112basic_stringIcSt11char_traitsIcESaIcEE4sizeEv
	mov	x1, x0
	ldr	x0, [sp, 64]
	cmp	x0, x1
	cset	w0, cc
	and	w0, w0, 255
	cmp	w0, 0
	bne	.L352
.L351:
	ldrb	w0, [sp, 59]
	eor	w0, w0, 1
	and	w0, w0, 255
	cmp	w0, 0
	beq	.L353
	ldr	x1, [sp, 40]
	mov	x0, x19
	bl	_ZNSt7__cxx1112basic_stringIcSt11char_traitsIcESaIcEEC1EOS4_
	b	.L341
.L353:
	add	x0, sp, 56
	bl	_ZNSaIcEC1Ev
	add	x0, sp, 56
	add	x3, sp, 72
	mov	x2, x0
	adrp	x0, .LC8
	add	x1, x0, :lo12:.LC8
	mov	x0, x3
.LEHB86:
	bl	_ZNSt7__cxx1112basic_stringIcSt11char_traitsIcESaIcEEC1IS3_EEPKcRKS3_
.LEHE86:
	add	x0, sp, 56
	bl	_ZNSaIcED1Ev
	str	wzr, [sp, 60]
	b	.L355
.L360:
	ldr	w0, [sp, 60]
	mov	x1, x0
	ldr	x0, [sp, 40]
.LEHB87:
	bl	_ZNSt7__cxx1112basic_stringIcSt11char_traitsIcESaIcEEixEm
	ldrb	w0, [x0]
	cmp	w0, 34
	beq	.L356
	ldr	w0, [sp, 60]
	mov	x1, x0
	ldr	x0, [sp, 40]
	bl	_ZNSt7__cxx1112basic_stringIcSt11char_traitsIcESaIcEEixEm
	ldrb	w0, [x0]
	cmp	w0, 92
	bne	.L357
.L356:
	mov	w0, 1
	b	.L358
.L357:
	mov	w0, 0
.L358:
	cmp	w0, 0
	beq	.L359
	add	x0, sp, 72
	mov	w1, 92
	bl	_ZNSt7__cxx1112basic_stringIcSt11char_traitsIcESaIcEEpLEc
.L359:
	ldr	w0, [sp, 60]
	mov	x1, x0
	ldr	x0, [sp, 40]
	bl	_ZNSt7__cxx1112basic_stringIcSt11char_traitsIcESaIcEEixEm
	ldrb	w1, [x0]
	add	x0, sp, 72
	bl	_ZNSt7__cxx1112basic_stringIcSt11char_traitsIcESaIcEEpLEc
	ldr	w0, [sp, 60]
	add	w0, w0, 1
	str	w0, [sp, 60]
.L355:
	ldr	w20, [sp, 60]
	ldr	x0, [sp, 40]
	bl	_ZNKSt7__cxx1112basic_stringIcSt11char_traitsIcESaIcEE4sizeEv
	cmp	x20, x0
	cset	w0, cc
	and	w0, w0, 255
	cmp	w0, 0
	bne	.L360
	add	x2, sp, 72
	adrp	x0, .LC8
	add	x1, x0, :lo12:.LC8
	mov	x0, x2
	bl	_ZNSt7__cxx1112basic_stringIcSt11char_traitsIcESaIcEEpLEPKc
.LEHE87:
	add	x0, sp, 72
	mov	x1, x0
	mov	x0, x19
	bl	_ZNSt7__cxx1112basic_stringIcSt11char_traitsIcESaIcEEC1EOS4_
	add	x0, sp, 72
	bl	_ZNSt7__cxx1112basic_stringIcSt11char_traitsIcESaIcEED1Ev
	b	.L341
.L365:
	mov	x19, x0
	add	x0, sp, 56
	bl	_ZNSaIcED1Ev
	mov	x0, x19
.LEHB88:
	bl	_Unwind_Resume
.L366:
	mov	x19, x0
	add	x0, sp, 72
	bl	_ZNSt7__cxx1112basic_stringIcSt11char_traitsIcESaIcEED1Ev
	mov	x0, x19
	bl	_Unwind_Resume
.LEHE88:
.L341:
	adrp	x0, :got:__stack_chk_guard
	ldr	x0, [x0, #:got_lo12:__stack_chk_guard]
	ldr	x2, [sp, 104]
	ldr	x1, [x0]
	subs	x2, x2, x1
	mov	x1, 0
	beq	.L364
	bl	__stack_chk_fail
.L364:
	mov	x0, x19
	ldp	x19, x20, [sp, 16]
	ldp	x29, x30, [sp], 112
	.cfi_restore 30
	.cfi_restore 29
	.cfi_restore 19
	.cfi_restore 20
	.cfi_def_cfa_offset 0
	ret
	.cfi_endproc
.LFE4456:
	.section	.gcc_except_table
.LLSDA4456:
	.byte	0xff
	.byte	0xff
	.byte	0x1
	.uleb128 .LLSDACSE4456-.LLSDACSB4456
.LLSDACSB4456:
	.uleb128 .LEHB85-.LFB4456
	.uleb128 .LEHE85-.LEHB85
	.uleb128 0
	.uleb128 0
	.uleb128 .LEHB86-.LFB4456
	.uleb128 .LEHE86-.LEHB86
	.uleb128 .L365-.LFB4456
	.uleb128 0
	.uleb128 .LEHB87-.LFB4456
	.uleb128 .LEHE87-.LEHB87
	.uleb128 .L366-.LFB4456
	.uleb128 0
	.uleb128 .LEHB88-.LFB4456
	.uleb128 .LEHE88-.LEHB88
	.uleb128 0
	.uleb128 0
.LLSDACSE4456:
	.text
	.size	_ZN10subprocess16escape_shell_argENSt7__cxx1112basic_stringIcSt11char_traitsIcESaIcEEE, .-_ZN10subprocess16escape_shell_argENSt7__cxx1112basic_stringIcSt11char_traitsIcESaIcEEE
	.section	.text._ZN9__gnu_cxx11char_traitsIcE2eqERKcS3_,"axG",@progbits,_ZN9__gnu_cxx11char_traitsIcE2eqERKcS3_,comdat
	.align	2
	.weak	_ZN9__gnu_cxx11char_traitsIcE2eqERKcS3_
	.type	_ZN9__gnu_cxx11char_traitsIcE2eqERKcS3_, %function
_ZN9__gnu_cxx11char_traitsIcE2eqERKcS3_:
.LFB4458:
	.cfi_startproc
	sub	sp, sp, #16
	.cfi_def_cfa_offset 16
	str	x0, [sp, 8]
	str	x1, [sp]
	ldr	x0, [sp, 8]
	ldrb	w1, [x0]
	ldr	x0, [sp]
	ldrb	w0, [x0]
	cmp	w1, w0
	cset	w0, eq
	and	w0, w0, 255
	add	sp, sp, 16
	.cfi_def_cfa_offset 0
	ret
	.cfi_endproc
.LFE4458:
	.size	_ZN9__gnu_cxx11char_traitsIcE2eqERKcS3_, .-_ZN9__gnu_cxx11char_traitsIcE2eqERKcS3_
	.section	.text._ZN9__gnu_cxx11char_traitsIcE6lengthEPKc,"axG",@progbits,_ZN9__gnu_cxx11char_traitsIcE6lengthEPKc,comdat
	.align	2
	.weak	_ZN9__gnu_cxx11char_traitsIcE6lengthEPKc
	.type	_ZN9__gnu_cxx11char_traitsIcE6lengthEPKc, %function
_ZN9__gnu_cxx11char_traitsIcE6lengthEPKc:
.LFB4457:
	.cfi_startproc
	stp	x29, x30, [sp, -64]!
	.cfi_def_cfa_offset 64
	.cfi_offset 29, -64
	.cfi_offset 30, -56
	mov	x29, sp
	str	x0, [sp, 24]
	adrp	x0, :got:__stack_chk_guard
	ldr	x0, [x0, #:got_lo12:__stack_chk_guard]
	ldr	x1, [x0]
	str	x1, [sp, 56]
	mov	x1, 0
	str	xzr, [sp, 48]
	b	.L374
.L375:
	ldr	x0, [sp, 48]
	add	x0, x0, 1
	str	x0, [sp, 48]
.L374:
	ldr	x1, [sp, 24]
	ldr	x0, [sp, 48]
	add	x0, x1, x0
	strb	wzr, [sp, 47]
	add	x1, sp, 47
	bl	_ZN9__gnu_cxx11char_traitsIcE2eqERKcS3_
	and	w0, w0, 255
	eor	w0, w0, 1
	and	w0, w0, 255
	cmp	w0, 0
	bne	.L375
	ldr	x0, [sp, 48]
	mov	x1, x0
	adrp	x0, :got:__stack_chk_guard
	ldr	x0, [x0, #:got_lo12:__stack_chk_guard]
	ldr	x3, [sp, 56]
	ldr	x2, [x0]
	subs	x3, x3, x2
	mov	x2, 0
	beq	.L377
	bl	__stack_chk_fail
.L377:
	mov	x0, x1
	ldp	x29, x30, [sp], 64
	.cfi_restore 30
	.cfi_restore 29
	.cfi_def_cfa_offset 0
	ret
	.cfi_endproc
.LFE4457:
	.size	_ZN9__gnu_cxx11char_traitsIcE6lengthEPKc, .-_ZN9__gnu_cxx11char_traitsIcE6lengthEPKc
	.section	.text._ZNSt7__cxx1112basic_stringIcSt11char_traitsIcESaIcEE12_Alloc_hiderD2Ev,"axG",@progbits,_ZNSt7__cxx1112basic_stringIcSt11char_traitsIcESaIcEE12_Alloc_hiderD5Ev,comdat
	.align	2
	.weak	_ZNSt7__cxx1112basic_stringIcSt11char_traitsIcESaIcEE12_Alloc_hiderD2Ev
	.type	_ZNSt7__cxx1112basic_stringIcSt11char_traitsIcESaIcEE12_Alloc_hiderD2Ev, %function
_ZNSt7__cxx1112basic_stringIcSt11char_traitsIcESaIcEE12_Alloc_hiderD2Ev:
.LFB4565:
	.cfi_startproc
	stp	x29, x30, [sp, -32]!
	.cfi_def_cfa_offset 32
	.cfi_offset 29, -32
	.cfi_offset 30, -24
	mov	x29, sp
	str	x0, [sp, 24]
	ldr	x0, [sp, 24]
	bl	_ZNSaIcED2Ev
	nop
	ldp	x29, x30, [sp], 32
	.cfi_restore 30
	.cfi_restore 29
	.cfi_def_cfa_offset 0
	ret
	.cfi_endproc
.LFE4565:
	.size	_ZNSt7__cxx1112basic_stringIcSt11char_traitsIcESaIcEE12_Alloc_hiderD2Ev, .-_ZNSt7__cxx1112basic_stringIcSt11char_traitsIcESaIcEE12_Alloc_hiderD2Ev
	.weak	_ZNSt7__cxx1112basic_stringIcSt11char_traitsIcESaIcEE12_Alloc_hiderD1Ev
	.set	_ZNSt7__cxx1112basic_stringIcSt11char_traitsIcESaIcEE12_Alloc_hiderD1Ev,_ZNSt7__cxx1112basic_stringIcSt11char_traitsIcESaIcEE12_Alloc_hiderD2Ev
	.section	.text._ZNSt10unique_ptrINSt10filesystem7__cxx114path5_List5_ImplENS3_13_Impl_deleterEED2Ev,"axG",@progbits,_ZNSt10unique_ptrINSt10filesystem7__cxx114path5_List5_ImplENS3_13_Impl_deleterEED5Ev,comdat
	.align	2
	.weak	_ZNSt10unique_ptrINSt10filesystem7__cxx114path5_List5_ImplENS3_13_Impl_deleterEED2Ev
	.type	_ZNSt10unique_ptrINSt10filesystem7__cxx114path5_List5_ImplENS3_13_Impl_deleterEED2Ev, %function
_ZNSt10unique_ptrINSt10filesystem7__cxx114path5_List5_ImplENS3_13_Impl_deleterEED2Ev:
.LFB4761:
	.cfi_startproc
	stp	x29, x30, [sp, -64]!
	.cfi_def_cfa_offset 64
	.cfi_offset 29, -64
	.cfi_offset 30, -56
	mov	x29, sp
	str	x19, [sp, 16]
	.cfi_offset 19, -48
	str	x0, [sp, 40]
	ldr	x0, [sp, 40]
	bl	_ZNSt15__uniq_ptr_implINSt10filesystem7__cxx114path5_List5_ImplENS3_13_Impl_deleterEE6_M_ptrEv
	str	x0, [sp, 56]
	ldr	x0, [sp, 56]
	ldr	x0, [x0]
	cmp	x0, 0
	beq	.L380
	ldr	x0, [sp, 40]
	bl	_ZNSt10unique_ptrINSt10filesystem7__cxx114path5_List5_ImplENS3_13_Impl_deleterEE11get_deleterEv
	mov	x19, x0
	ldr	x0, [sp, 56]
	bl	_ZSt4moveIRPNSt10filesystem7__cxx114path5_List5_ImplEEONSt16remove_referenceIT_E4typeEOS8_
	ldr	x0, [x0]
	mov	x1, x0
	mov	x0, x19
	bl	_ZNKSt10filesystem7__cxx114path5_List13_Impl_deleterclEPNS2_5_ImplE
.L380:
	ldr	x0, [sp, 56]
	str	xzr, [x0]
	nop
	ldr	x19, [sp, 16]
	ldp	x29, x30, [sp], 64
	.cfi_restore 30
	.cfi_restore 29
	.cfi_restore 19
	.cfi_def_cfa_offset 0
	ret
	.cfi_endproc
.LFE4761:
	.size	_ZNSt10unique_ptrINSt10filesystem7__cxx114path5_List5_ImplENS3_13_Impl_deleterEED2Ev, .-_ZNSt10unique_ptrINSt10filesystem7__cxx114path5_List5_ImplENS3_13_Impl_deleterEED2Ev
	.weak	_ZNSt10unique_ptrINSt10filesystem7__cxx114path5_List5_ImplENS3_13_Impl_deleterEED1Ev
	.set	_ZNSt10unique_ptrINSt10filesystem7__cxx114path5_List5_ImplENS3_13_Impl_deleterEED1Ev,_ZNSt10unique_ptrINSt10filesystem7__cxx114path5_List5_ImplENS3_13_Impl_deleterEED2Ev
	.section	.text._ZSt4moveIRNSt7__cxx1112basic_stringIcSt11char_traitsIcESaIcEEEEONSt16remove_referenceIT_E4typeEOS8_,"axG",@progbits,_ZSt4moveIRNSt7__cxx1112basic_stringIcSt11char_traitsIcESaIcEEEEONSt16remove_referenceIT_E4typeEOS8_,comdat
	.align	2
	.weak	_ZSt4moveIRNSt7__cxx1112basic_stringIcSt11char_traitsIcESaIcEEEEONSt16remove_referenceIT_E4typeEOS8_
	.type	_ZSt4moveIRNSt7__cxx1112basic_stringIcSt11char_traitsIcESaIcEEEEONSt16remove_referenceIT_E4typeEOS8_, %function
_ZSt4moveIRNSt7__cxx1112basic_stringIcSt11char_traitsIcESaIcEEEEONSt16remove_referenceIT_E4typeEOS8_:
.LFB4766:
	.cfi_startproc
	sub	sp, sp, #16
	.cfi_def_cfa_offset 16
	str	x0, [sp, 8]
	ldr	x0, [sp, 8]
	add	sp, sp, 16
	.cfi_def_cfa_offset 0
	ret
	.cfi_endproc
.LFE4766:
	.size	_ZSt4moveIRNSt7__cxx1112basic_stringIcSt11char_traitsIcESaIcEEEEONSt16remove_referenceIT_E4typeEOS8_, .-_ZSt4moveIRNSt7__cxx1112basic_stringIcSt11char_traitsIcESaIcEEEEONSt16remove_referenceIT_E4typeEOS8_
	.section	.text._ZNSt7__cxx1112basic_stringIcSt11char_traitsIcESaIcEEC2ISt17basic_string_viewIcS2_EvEERKT_RKS3_,"axG",@progbits,_ZNSt7__cxx1112basic_stringIcSt11char_traitsIcESaIcEEC5ISt17basic_string_viewIcS2_EvEERKT_RKS3_,comdat
	.align	2
	.weak	_ZNSt7__cxx1112basic_stringIcSt11char_traitsIcESaIcEEC2ISt17basic_string_viewIcS2_EvEERKT_RKS3_
	.type	_ZNSt7__cxx1112basic_stringIcSt11char_traitsIcESaIcEEC2ISt17basic_string_viewIcS2_EvEERKT_RKS3_, %function
_ZNSt7__cxx1112basic_stringIcSt11char_traitsIcESaIcEEC2ISt17basic_string_viewIcS2_EvEERKT_RKS3_:
.LFB4783:
	.cfi_startproc
	stp	x29, x30, [sp, -80]!
	.cfi_def_cfa_offset 80
	.cfi_offset 29, -80
	.cfi_offset 30, -72
	mov	x29, sp
	str	x0, [sp, 40]
	str	x1, [sp, 32]
	str	x2, [sp, 24]
	adrp	x0, :got:__stack_chk_guard
	ldr	x0, [x0, #:got_lo12:__stack_chk_guard]
	ldr	x1, [x0]
	str	x1, [sp, 72]
	mov	x1, 0
	ldr	x0, [sp, 32]
	ldp	x0, x1, [x0]
	bl	_ZNSt7__cxx1112basic_stringIcSt11char_traitsIcESaIcEE17_S_to_string_viewESt17basic_string_viewIcS2_E
	add	x3, sp, 56
	mov	x2, x1
	mov	x1, x0
	mov	x0, x3
	bl	_ZNSt7__cxx1112basic_stringIcSt11char_traitsIcESaIcEE12__sv_wrapperC1ESt17basic_string_viewIcS2_E
	ldr	x3, [sp, 24]
	ldp	x1, x2, [sp, 56]
	ldr	x0, [sp, 40]
	bl	_ZNSt7__cxx1112basic_stringIcSt11char_traitsIcESaIcEEC1ENS4_12__sv_wrapperERKS3_
	nop
	adrp	x0, :got:__stack_chk_guard
	ldr	x0, [x0, #:got_lo12:__stack_chk_guard]
	ldr	x2, [sp, 72]
	ldr	x1, [x0]
	subs	x2, x2, x1
	mov	x1, 0
	beq	.L384
	bl	__stack_chk_fail
.L384:
	ldp	x29, x30, [sp], 80
	.cfi_restore 30
	.cfi_restore 29
	.cfi_def_cfa_offset 0
	ret
	.cfi_endproc
.LFE4783:
	.size	_ZNSt7__cxx1112basic_stringIcSt11char_traitsIcESaIcEEC2ISt17basic_string_viewIcS2_EvEERKT_RKS3_, .-_ZNSt7__cxx1112basic_stringIcSt11char_traitsIcESaIcEEC2ISt17basic_string_viewIcS2_EvEERKT_RKS3_
	.weak	_ZNSt7__cxx1112basic_stringIcSt11char_traitsIcESaIcEEC1ISt17basic_string_viewIcS2_EvEERKT_RKS3_
	.set	_ZNSt7__cxx1112basic_stringIcSt11char_traitsIcESaIcEEC1ISt17basic_string_viewIcS2_EvEERKT_RKS3_,_ZNSt7__cxx1112basic_stringIcSt11char_traitsIcESaIcEEC2ISt17basic_string_viewIcS2_EvEERKT_RKS3_
	.section	.text._ZNSt7__cxx1112basic_stringIcSt11char_traitsIcESaIcEEC2IS3_EEPKcRKS3_,"axG",@progbits,_ZNSt7__cxx1112basic_stringIcSt11char_traitsIcESaIcEEC5IS3_EEPKcRKS3_,comdat
	.align	2
	.weak	_ZNSt7__cxx1112basic_stringIcSt11char_traitsIcESaIcEEC2IS3_EEPKcRKS3_
	.type	_ZNSt7__cxx1112basic_stringIcSt11char_traitsIcESaIcEEC2IS3_EEPKcRKS3_, %function
_ZNSt7__cxx1112basic_stringIcSt11char_traitsIcESaIcEEC2IS3_EEPKcRKS3_:
.LFB4788:
	.cfi_startproc
	.cfi_personality 0x9b,DW.ref.__gxx_personality_v0
	.cfi_lsda 0x1b,.LLSDA4788
	stp	x29, x30, [sp, -96]!
	.cfi_def_cfa_offset 96
	.cfi_offset 29, -96
	.cfi_offset 30, -88
	mov	x29, sp
	stp	x19, x20, [sp, 16]
	.cfi_offset 19, -80
	.cfi_offset 20, -72
	str	x0, [sp, 56]
	str	x1, [sp, 48]
	str	x2, [sp, 40]
	adrp	x0, :got:__stack_chk_guard
	ldr	x0, [x0, #:got_lo12:__stack_chk_guard]
	ldr	x1, [x0]
	str	x1, [sp, 88]
	mov	x1, 0
	ldr	x19, [sp, 56]
	ldr	x0, [sp, 56]
.LEHB89:
	bl	_ZNSt7__cxx1112basic_stringIcSt11char_traitsIcESaIcEE13_M_local_dataEv
	ldr	x2, [sp, 40]
	mov	x1, x0
	mov	x0, x19
	bl	_ZNSt7__cxx1112basic_stringIcSt11char_traitsIcESaIcEE12_Alloc_hiderC1EPcRKS3_
.LEHE89:
	ldr	x0, [sp, 48]
	cmp	x0, 0
	beq	.L386
	ldr	x0, [sp, 48]
.LEHB90:
	bl	_ZNSt11char_traitsIcE6lengthEPKc
	mov	x1, x0
	ldr	x0, [sp, 48]
	add	x0, x0, x1
	b	.L387
.L386:
	mov	x0, 1
.L387:
	str	x0, [sp, 80]
	mov	w3, w20
	ldr	x2, [sp, 80]
	ldr	x1, [sp, 48]
	ldr	x0, [sp, 56]
	bl	_ZNSt7__cxx1112basic_stringIcSt11char_traitsIcESaIcEE12_M_constructIPKcEEvT_S8_St20forward_iterator_tag
.LEHE90:
	b	.L391
.L390:
	mov	x19, x0
	ldr	x0, [sp, 56]
	bl	_ZNSt7__cxx1112basic_stringIcSt11char_traitsIcESaIcEE12_Alloc_hiderD1Ev
	mov	x0, x19
.LEHB91:
	bl	_Unwind_Resume
.LEHE91:
.L391:
	adrp	x0, :got:__stack_chk_guard
	ldr	x0, [x0, #:got_lo12:__stack_chk_guard]
	ldr	x2, [sp, 88]
	ldr	x1, [x0]
	subs	x2, x2, x1
	mov	x1, 0
	beq	.L389
	bl	__stack_chk_fail
.L389:
	ldp	x19, x20, [sp, 16]
	ldp	x29, x30, [sp], 96
	.cfi_restore 30
	.cfi_restore 29
	.cfi_restore 19
	.cfi_restore 20
	.cfi_def_cfa_offset 0
	ret
	.cfi_endproc
.LFE4788:
	.section	.gcc_except_table
.LLSDA4788:
	.byte	0xff
	.byte	0xff
	.byte	0x1
	.uleb128 .LLSDACSE4788-.LLSDACSB4788
.LLSDACSB4788:
	.uleb128 .LEHB89-.LFB4788
	.uleb128 .LEHE89-.LEHB89
	.uleb128 0
	.uleb128 0
	.uleb128 .LEHB90-.LFB4788
	.uleb128 .LEHE90-.LEHB90
	.uleb128 .L390-.LFB4788
	.uleb128 0
	.uleb128 .LEHB91-.LFB4788
	.uleb128 .LEHE91-.LEHB91
	.uleb128 0
	.uleb128 0
.LLSDACSE4788:
	.section	.text._ZNSt7__cxx1112basic_stringIcSt11char_traitsIcESaIcEEC2IS3_EEPKcRKS3_,"axG",@progbits,_ZNSt7__cxx1112basic_stringIcSt11char_traitsIcESaIcEEC5IS3_EEPKcRKS3_,comdat
	.size	_ZNSt7__cxx1112basic_stringIcSt11char_traitsIcESaIcEEC2IS3_EEPKcRKS3_, .-_ZNSt7__cxx1112basic_stringIcSt11char_traitsIcESaIcEEC2IS3_EEPKcRKS3_
	.weak	_ZNSt7__cxx1112basic_stringIcSt11char_traitsIcESaIcEEC1IS3_EEPKcRKS3_
	.set	_ZNSt7__cxx1112basic_stringIcSt11char_traitsIcESaIcEEC1IS3_EEPKcRKS3_,_ZNSt7__cxx1112basic_stringIcSt11char_traitsIcESaIcEEC2IS3_EEPKcRKS3_
	.section	.text._ZSt11__addressofINSt7__cxx1112basic_stringIcSt11char_traitsIcESaIcEEEEPT_RS6_,"axG",@progbits,_ZSt11__addressofINSt7__cxx1112basic_stringIcSt11char_traitsIcESaIcEEEEPT_RS6_,comdat
	.align	2
	.weak	_ZSt11__addressofINSt7__cxx1112basic_stringIcSt11char_traitsIcESaIcEEEEPT_RS6_
	.type	_ZSt11__addressofINSt7__cxx1112basic_stringIcSt11char_traitsIcESaIcEEEEPT_RS6_, %function
_ZSt11__addressofINSt7__cxx1112basic_stringIcSt11char_traitsIcESaIcEEEEPT_RS6_:
.LFB4793:
	.cfi_startproc
	sub	sp, sp, #16
	.cfi_def_cfa_offset 16
	str	x0, [sp, 8]
	ldr	x0, [sp, 8]
	add	sp, sp, 16
	.cfi_def_cfa_offset 0
	ret
	.cfi_endproc
.LFE4793:
	.size	_ZSt11__addressofINSt7__cxx1112basic_stringIcSt11char_traitsIcESaIcEEEEPT_RS6_, .-_ZSt11__addressofINSt7__cxx1112basic_stringIcSt11char_traitsIcESaIcEEEEPT_RS6_
	.section	.text._ZNKSt10filesystem7__cxx114path6stringIcSt11char_traitsIcESaIcEEENSt7__cxx1112basic_stringIT_T0_T1_EERKSA_,"axG",@progbits,_ZNKSt10filesystem7__cxx114path6stringIcSt11char_traitsIcESaIcEEENSt7__cxx1112basic_stringIT_T0_T1_EERKSA_,comdat
	.align	2
	.weak	_ZNKSt10filesystem7__cxx114path6stringIcSt11char_traitsIcESaIcEEENSt7__cxx1112basic_stringIT_T0_T1_EERKSA_
	.type	_ZNKSt10filesystem7__cxx114path6stringIcSt11char_traitsIcESaIcEEENSt7__cxx1112basic_stringIT_T0_T1_EERKSA_, %function
_ZNKSt10filesystem7__cxx114path6stringIcSt11char_traitsIcESaIcEEENSt7__cxx1112basic_stringIT_T0_T1_EERKSA_:
.LFB4799:
	.cfi_startproc
	stp	x29, x30, [sp, -48]!
	.cfi_def_cfa_offset 48
	.cfi_offset 29, -48
	.cfi_offset 30, -40
	mov	x29, sp
	stp	x19, x20, [sp, 16]
	.cfi_offset 19, -32
	.cfi_offset 20, -24
	mov	x19, x8
	str	x0, [sp, 40]
	str	x1, [sp, 32]
	ldr	x0, [sp, 40]
	bl	_ZNKSt7__cxx1112basic_stringIcSt11char_traitsIcESaIcEE5c_strEv
	mov	x20, x0
	ldr	x0, [sp, 40]
	bl	_ZNKSt7__cxx1112basic_stringIcSt11char_traitsIcESaIcEE6lengthEv
	ldr	x3, [sp, 32]
	mov	x2, x0
	mov	x1, x20
	mov	x0, x19
	bl	_ZNSt7__cxx1112basic_stringIcSt11char_traitsIcESaIcEEC1EPKcmRKS3_
	mov	x0, x19
	ldp	x19, x20, [sp, 16]
	ldp	x29, x30, [sp], 48
	.cfi_restore 30
	.cfi_restore 29
	.cfi_restore 19
	.cfi_restore 20
	.cfi_def_cfa_offset 0
	ret
	.cfi_endproc
.LFE4799:
	.size	_ZNKSt10filesystem7__cxx114path6stringIcSt11char_traitsIcESaIcEEENSt7__cxx1112basic_stringIT_T0_T1_EERKSA_, .-_ZNKSt10filesystem7__cxx114path6stringIcSt11char_traitsIcESaIcEEENSt7__cxx1112basic_stringIT_T0_T1_EERKSA_
	.section	.text._ZNSt7variantIJN10subprocess10PipeOptionENSt7__cxx1112basic_stringIcSt11char_traitsIcESaIcEEEiPSiPSoP8_IO_FILEEEC2ILm0EJS1_ES1_vEESt16in_place_index_tIXT_EEDpOT0_,"axG",@progbits,_ZNSt7variantIJN10subprocess10PipeOptionENSt7__cxx1112basic_stringIcSt11char_traitsIcESaIcEEEiPSiPSoP8_IO_FILEEEC5ILm0EJS1_ES1_vEESt16in_place_index_tIXT_EEDpOT0_,comdat
	.align	2
	.weak	_ZNSt7variantIJN10subprocess10PipeOptionENSt7__cxx1112basic_stringIcSt11char_traitsIcESaIcEEEiPSiPSoP8_IO_FILEEEC2ILm0EJS1_ES1_vEESt16in_place_index_tIXT_EEDpOT0_
	.type	_ZNSt7variantIJN10subprocess10PipeOptionENSt7__cxx1112basic_stringIcSt11char_traitsIcESaIcEEEiPSiPSoP8_IO_FILEEEC2ILm0EJS1_ES1_vEESt16in_place_index_tIXT_EEDpOT0_, %function
_ZNSt7variantIJN10subprocess10PipeOptionENSt7__cxx1112basic_stringIcSt11char_traitsIcESaIcEEEiPSiPSoP8_IO_FILEEEC2ILm0EJS1_ES1_vEESt16in_place_index_tIXT_EEDpOT0_:
.LFB4828:
	.cfi_startproc
	stp	x29, x30, [sp, -80]!
	.cfi_def_cfa_offset 80
	.cfi_offset 29, -80
	.cfi_offset 30, -72
	mov	x29, sp
	stp	x19, x20, [sp, 16]
	str	x21, [sp, 32]
	.cfi_offset 19, -64
	.cfi_offset 20, -56
	.cfi_offset 21, -48
	str	x0, [sp, 72]
	strb	w1, [sp, 64]
	str	x2, [sp, 56]
	ldr	x19, [sp, 72]
	ldr	x0, [sp, 56]
	bl	_ZSt7forwardIN10subprocess10PipeOptionEEOT_RNSt16remove_referenceIS2_E4typeE
	mov	x2, x0
	mov	w1, w21
	mov	x0, x19
	bl	_ZNSt8__detail9__variant13_Variant_baseIJN10subprocess10PipeOptionENSt7__cxx1112basic_stringIcSt11char_traitsIcESaIcEEEiPSiPSoP8_IO_FILEEEC2ILm0EJS3_EEESt16in_place_index_tIXT_EEDpOT0_
	mov	w1, w20
	ldr	x0, [sp, 72]
	bl	_ZNSt27_Enable_default_constructorILb1ESt7variantIJN10subprocess10PipeOptionENSt7__cxx1112basic_stringIcSt11char_traitsIcESaIcEEEiPSiPSoP8_IO_FILEEEEC2ESt31_Enable_default_constructor_tag
	nop
	ldp	x19, x20, [sp, 16]
	ldr	x21, [sp, 32]
	ldp	x29, x30, [sp], 80
	.cfi_restore 30
	.cfi_restore 29
	.cfi_restore 21
	.cfi_restore 19
	.cfi_restore 20
	.cfi_def_cfa_offset 0
	ret
	.cfi_endproc
.LFE4828:
	.size	_ZNSt7variantIJN10subprocess10PipeOptionENSt7__cxx1112basic_stringIcSt11char_traitsIcESaIcEEEiPSiPSoP8_IO_FILEEEC2ILm0EJS1_ES1_vEESt16in_place_index_tIXT_EEDpOT0_, .-_ZNSt7variantIJN10subprocess10PipeOptionENSt7__cxx1112basic_stringIcSt11char_traitsIcESaIcEEEiPSiPSoP8_IO_FILEEEC2ILm0EJS1_ES1_vEESt16in_place_index_tIXT_EEDpOT0_
	.weak	_ZNSt7variantIJN10subprocess10PipeOptionENSt7__cxx1112basic_stringIcSt11char_traitsIcESaIcEEEiPSiPSoP8_IO_FILEEEC1ILm0EJS1_ES1_vEESt16in_place_index_tIXT_EEDpOT0_
	.set	_ZNSt7variantIJN10subprocess10PipeOptionENSt7__cxx1112basic_stringIcSt11char_traitsIcESaIcEEEiPSiPSoP8_IO_FILEEEC1ILm0EJS1_ES1_vEESt16in_place_index_tIXT_EEDpOT0_,_ZNSt7variantIJN10subprocess10PipeOptionENSt7__cxx1112basic_stringIcSt11char_traitsIcESaIcEEEiPSiPSoP8_IO_FILEEEC2ILm0EJS1_ES1_vEESt16in_place_index_tIXT_EEDpOT0_
	.section	.text._ZSt7forwardIN10subprocess10PipeOptionEEOT_RNSt16remove_referenceIS2_E4typeE,"axG",@progbits,_ZSt7forwardIN10subprocess10PipeOptionEEOT_RNSt16remove_referenceIS2_E4typeE,comdat
	.align	2
	.weak	_ZSt7forwardIN10subprocess10PipeOptionEEOT_RNSt16remove_referenceIS2_E4typeE
	.type	_ZSt7forwardIN10subprocess10PipeOptionEEOT_RNSt16remove_referenceIS2_E4typeE, %function
_ZSt7forwardIN10subprocess10PipeOptionEEOT_RNSt16remove_referenceIS2_E4typeE:
.LFB4830:
	.cfi_startproc
	sub	sp, sp, #16
	.cfi_def_cfa_offset 16
	str	x0, [sp, 8]
	ldr	x0, [sp, 8]
	add	sp, sp, 16
	.cfi_def_cfa_offset 0
	ret
	.cfi_endproc
.LFE4830:
	.size	_ZSt7forwardIN10subprocess10PipeOptionEEOT_RNSt16remove_referenceIS2_E4typeE, .-_ZSt7forwardIN10subprocess10PipeOptionEEOT_RNSt16remove_referenceIS2_E4typeE
	.section	.text._ZNSt7variantIJN10subprocess10PipeOptionENSt7__cxx1112basic_stringIcSt11char_traitsIcESaIcEEEiPSiPSoP8_IO_FILEEEC2IS1_vvS1_vEEOT_,"axG",@progbits,_ZNSt7variantIJN10subprocess10PipeOptionENSt7__cxx1112basic_stringIcSt11char_traitsIcESaIcEEEiPSiPSoP8_IO_FILEEEC5IS1_vvS1_vEEOT_,comdat
	.align	2
	.weak	_ZNSt7variantIJN10subprocess10PipeOptionENSt7__cxx1112basic_stringIcSt11char_traitsIcESaIcEEEiPSiPSoP8_IO_FILEEEC2IS1_vvS1_vEEOT_
	.type	_ZNSt7variantIJN10subprocess10PipeOptionENSt7__cxx1112basic_stringIcSt11char_traitsIcESaIcEEEiPSiPSoP8_IO_FILEEEC2IS1_vvS1_vEEOT_, %function
_ZNSt7variantIJN10subprocess10PipeOptionENSt7__cxx1112basic_stringIcSt11char_traitsIcESaIcEEEiPSiPSoP8_IO_FILEEEC2IS1_vvS1_vEEOT_:
.LFB4831:
	.cfi_startproc
	.cfi_personality 0x9b,DW.ref.__gxx_personality_v0
	.cfi_lsda 0x1b,.LLSDA4831
	stp	x29, x30, [sp, -48]!
	.cfi_def_cfa_offset 48
	.cfi_offset 29, -48
	.cfi_offset 30, -40
	mov	x29, sp
	str	x19, [sp, 16]
	.cfi_offset 19, -32
	str	x0, [sp, 40]
	str	x1, [sp, 32]
	ldr	x0, [sp, 32]
	bl	_ZSt7forwardIN10subprocess10PipeOptionEEOT_RNSt16remove_referenceIS2_E4typeE
	mov	x2, x0
	mov	w1, w19
	ldr	x0, [sp, 40]
	bl	_ZNSt7variantIJN10subprocess10PipeOptionENSt7__cxx1112basic_stringIcSt11char_traitsIcESaIcEEEiPSiPSoP8_IO_FILEEEC1ILm0EJS1_ES1_vEESt16in_place_index_tIXT_EEDpOT0_
	nop
	ldr	x19, [sp, 16]
	ldp	x29, x30, [sp], 48
	.cfi_restore 30
	.cfi_restore 29
	.cfi_restore 19
	.cfi_def_cfa_offset 0
	ret
	.cfi_endproc
.LFE4831:
	.section	.gcc_except_table
.LLSDA4831:
	.byte	0xff
	.byte	0xff
	.byte	0x1
	.uleb128 .LLSDACSE4831-.LLSDACSB4831
.LLSDACSB4831:
.LLSDACSE4831:
	.section	.text._ZNSt7variantIJN10subprocess10PipeOptionENSt7__cxx1112basic_stringIcSt11char_traitsIcESaIcEEEiPSiPSoP8_IO_FILEEEC2IS1_vvS1_vEEOT_,"axG",@progbits,_ZNSt7variantIJN10subprocess10PipeOptionENSt7__cxx1112basic_stringIcSt11char_traitsIcESaIcEEEiPSiPSoP8_IO_FILEEEC5IS1_vvS1_vEEOT_,comdat
	.size	_ZNSt7variantIJN10subprocess10PipeOptionENSt7__cxx1112basic_stringIcSt11char_traitsIcESaIcEEEiPSiPSoP8_IO_FILEEEC2IS1_vvS1_vEEOT_, .-_ZNSt7variantIJN10subprocess10PipeOptionENSt7__cxx1112basic_stringIcSt11char_traitsIcESaIcEEEiPSiPSoP8_IO_FILEEEC2IS1_vvS1_vEEOT_
	.weak	_ZNSt7variantIJN10subprocess10PipeOptionENSt7__cxx1112basic_stringIcSt11char_traitsIcESaIcEEEiPSiPSoP8_IO_FILEEEC1IS1_vvS1_vEEOT_
	.set	_ZNSt7variantIJN10subprocess10PipeOptionENSt7__cxx1112basic_stringIcSt11char_traitsIcESaIcEEEiPSiPSoP8_IO_FILEEEC1IS1_vvS1_vEEOT_,_ZNSt7variantIJN10subprocess10PipeOptionENSt7__cxx1112basic_stringIcSt11char_traitsIcESaIcEEEiPSiPSoP8_IO_FILEEEC2IS1_vvS1_vEEOT_
	.section	.text._ZNSt8__detail9__variant16_Variant_storageILb0EJN10subprocess10PipeOptionENSt7__cxx1112basic_stringIcSt11char_traitsIcESaIcEEEiPSiPSoP8_IO_FILEEED2Ev,"axG",@progbits,_ZNSt8__detail9__variant16_Variant_storageILb0EJN10subprocess10PipeOptionENSt7__cxx1112basic_stringIcSt11char_traitsIcESaIcEEEiPSiPSoP8_IO_FILEEED5Ev,comdat
	.align	2
	.weak	_ZNSt8__detail9__variant16_Variant_storageILb0EJN10subprocess10PipeOptionENSt7__cxx1112basic_stringIcSt11char_traitsIcESaIcEEEiPSiPSoP8_IO_FILEEED2Ev
	.type	_ZNSt8__detail9__variant16_Variant_storageILb0EJN10subprocess10PipeOptionENSt7__cxx1112basic_stringIcSt11char_traitsIcESaIcEEEiPSiPSoP8_IO_FILEEED2Ev, %function
_ZNSt8__detail9__variant16_Variant_storageILb0EJN10subprocess10PipeOptionENSt7__cxx1112basic_stringIcSt11char_traitsIcESaIcEEEiPSiPSoP8_IO_FILEEED2Ev:
.LFB4834:
	.cfi_startproc
	.cfi_personality 0x9b,DW.ref.__gxx_personality_v0
	.cfi_lsda 0x1b,.LLSDA4834
	stp	x29, x30, [sp, -32]!
	.cfi_def_cfa_offset 32
	.cfi_offset 29, -32
	.cfi_offset 30, -24
	mov	x29, sp
	str	x0, [sp, 24]
	ldr	x0, [sp, 24]
	bl	_ZNSt8__detail9__variant16_Variant_storageILb0EJN10subprocess10PipeOptionENSt7__cxx1112basic_stringIcSt11char_traitsIcESaIcEEEiPSiPSoP8_IO_FILEEE8_M_resetEv
	nop
	ldp	x29, x30, [sp], 32
	.cfi_restore 30
	.cfi_restore 29
	.cfi_def_cfa_offset 0
	ret
	.cfi_endproc
.LFE4834:
	.section	.gcc_except_table
.LLSDA4834:
	.byte	0xff
	.byte	0xff
	.byte	0x1
	.uleb128 .LLSDACSE4834-.LLSDACSB4834
.LLSDACSB4834:
.LLSDACSE4834:
	.section	.text._ZNSt8__detail9__variant16_Variant_storageILb0EJN10subprocess10PipeOptionENSt7__cxx1112basic_stringIcSt11char_traitsIcESaIcEEEiPSiPSoP8_IO_FILEEED2Ev,"axG",@progbits,_ZNSt8__detail9__variant16_Variant_storageILb0EJN10subprocess10PipeOptionENSt7__cxx1112basic_stringIcSt11char_traitsIcESaIcEEEiPSiPSoP8_IO_FILEEED5Ev,comdat
	.size	_ZNSt8__detail9__variant16_Variant_storageILb0EJN10subprocess10PipeOptionENSt7__cxx1112basic_stringIcSt11char_traitsIcESaIcEEEiPSiPSoP8_IO_FILEEED2Ev, .-_ZNSt8__detail9__variant16_Variant_storageILb0EJN10subprocess10PipeOptionENSt7__cxx1112basic_stringIcSt11char_traitsIcESaIcEEEiPSiPSoP8_IO_FILEEED2Ev
	.weak	_ZNSt8__detail9__variant16_Variant_storageILb0EJN10subprocess10PipeOptionENSt7__cxx1112basic_stringIcSt11char_traitsIcESaIcEEEiPSiPSoP8_IO_FILEEED1Ev
	.set	_ZNSt8__detail9__variant16_Variant_storageILb0EJN10subprocess10PipeOptionENSt7__cxx1112basic_stringIcSt11char_traitsIcESaIcEEEiPSiPSoP8_IO_FILEEED1Ev,_ZNSt8__detail9__variant16_Variant_storageILb0EJN10subprocess10PipeOptionENSt7__cxx1112basic_stringIcSt11char_traitsIcESaIcEEEiPSiPSoP8_IO_FILEEED2Ev
	.section	.text._ZNSt12_Vector_baseINSt7__cxx1112basic_stringIcSt11char_traitsIcESaIcEEESaIS5_EE12_Vector_implC2Ev,"axG",@progbits,_ZNSt12_Vector_baseINSt7__cxx1112basic_stringIcSt11char_traitsIcESaIcEEESaIS5_EE12_Vector_implC5Ev,comdat
	.align	2
	.weak	_ZNSt12_Vector_baseINSt7__cxx1112basic_stringIcSt11char_traitsIcESaIcEEESaIS5_EE12_Vector_implC2Ev
	.type	_ZNSt12_Vector_baseINSt7__cxx1112basic_stringIcSt11char_traitsIcESaIcEEESaIS5_EE12_Vector_implC2Ev, %function
_ZNSt12_Vector_baseINSt7__cxx1112basic_stringIcSt11char_traitsIcESaIcEEESaIS5_EE12_Vector_implC2Ev:
.LFB4837:
	.cfi_startproc
	stp	x29, x30, [sp, -32]!
	.cfi_def_cfa_offset 32
	.cfi_offset 29, -32
	.cfi_offset 30, -24
	mov	x29, sp
	str	x0, [sp, 24]
	ldr	x0, [sp, 24]
	bl	_ZNSaINSt7__cxx1112basic_stringIcSt11char_traitsIcESaIcEEEEC2Ev
	ldr	x0, [sp, 24]
	bl	_ZNSt12_Vector_baseINSt7__cxx1112basic_stringIcSt11char_traitsIcESaIcEEESaIS5_EE17_Vector_impl_dataC2Ev
	nop
	ldp	x29, x30, [sp], 32
	.cfi_restore 30
	.cfi_restore 29
	.cfi_def_cfa_offset 0
	ret
	.cfi_endproc
.LFE4837:
	.size	_ZNSt12_Vector_baseINSt7__cxx1112basic_stringIcSt11char_traitsIcESaIcEEESaIS5_EE12_Vector_implC2Ev, .-_ZNSt12_Vector_baseINSt7__cxx1112basic_stringIcSt11char_traitsIcESaIcEEESaIS5_EE12_Vector_implC2Ev
	.weak	_ZNSt12_Vector_baseINSt7__cxx1112basic_stringIcSt11char_traitsIcESaIcEEESaIS5_EE12_Vector_implC1Ev
	.set	_ZNSt12_Vector_baseINSt7__cxx1112basic_stringIcSt11char_traitsIcESaIcEEESaIS5_EE12_Vector_implC1Ev,_ZNSt12_Vector_baseINSt7__cxx1112basic_stringIcSt11char_traitsIcESaIcEEESaIS5_EE12_Vector_implC2Ev
	.section	.text._ZNSaINSt7__cxx1112basic_stringIcSt11char_traitsIcESaIcEEEED2Ev,"axG",@progbits,_ZNSaINSt7__cxx1112basic_stringIcSt11char_traitsIcESaIcEEEED5Ev,comdat
	.align	2
	.weak	_ZNSaINSt7__cxx1112basic_stringIcSt11char_traitsIcESaIcEEEED2Ev
	.type	_ZNSaINSt7__cxx1112basic_stringIcSt11char_traitsIcESaIcEEEED2Ev, %function
_ZNSaINSt7__cxx1112basic_stringIcSt11char_traitsIcESaIcEEEED2Ev:
.LFB4840:
	.cfi_startproc
	stp	x29, x30, [sp, -32]!
	.cfi_def_cfa_offset 32
	.cfi_offset 29, -32
	.cfi_offset 30, -24
	mov	x29, sp
	str	x0, [sp, 24]
	ldr	x0, [sp, 24]
	bl	_ZN9__gnu_cxx13new_allocatorINSt7__cxx1112basic_stringIcSt11char_traitsIcESaIcEEEED2Ev
	nop
	ldp	x29, x30, [sp], 32
	.cfi_restore 30
	.cfi_restore 29
	.cfi_def_cfa_offset 0
	ret
	.cfi_endproc
.LFE4840:
	.size	_ZNSaINSt7__cxx1112basic_stringIcSt11char_traitsIcESaIcEEEED2Ev, .-_ZNSaINSt7__cxx1112basic_stringIcSt11char_traitsIcESaIcEEEED2Ev
	.weak	_ZNSaINSt7__cxx1112basic_stringIcSt11char_traitsIcESaIcEEEED1Ev
	.set	_ZNSaINSt7__cxx1112basic_stringIcSt11char_traitsIcESaIcEEEED1Ev,_ZNSaINSt7__cxx1112basic_stringIcSt11char_traitsIcESaIcEEEED2Ev
	.section	.text._ZNSt12_Vector_baseINSt7__cxx1112basic_stringIcSt11char_traitsIcESaIcEEESaIS5_EED2Ev,"axG",@progbits,_ZNSt12_Vector_baseINSt7__cxx1112basic_stringIcSt11char_traitsIcESaIcEEESaIS5_EED5Ev,comdat
	.align	2
	.weak	_ZNSt12_Vector_baseINSt7__cxx1112basic_stringIcSt11char_traitsIcESaIcEEESaIS5_EED2Ev
	.type	_ZNSt12_Vector_baseINSt7__cxx1112basic_stringIcSt11char_traitsIcESaIcEEESaIS5_EED2Ev, %function
_ZNSt12_Vector_baseINSt7__cxx1112basic_stringIcSt11char_traitsIcESaIcEEESaIS5_EED2Ev:
.LFB4843:
	.cfi_startproc
	.cfi_personality 0x9b,DW.ref.__gxx_personality_v0
	.cfi_lsda 0x1b,.LLSDA4843
	stp	x29, x30, [sp, -32]!
	.cfi_def_cfa_offset 32
	.cfi_offset 29, -32
	.cfi_offset 30, -24
	mov	x29, sp
	str	x0, [sp, 24]
	ldr	x0, [sp, 24]
	ldr	x3, [x0]
	ldr	x0, [sp, 24]
	ldr	x1, [x0, 16]
	ldr	x0, [sp, 24]
	ldr	x0, [x0]
	sub	x0, x1, x0
	asr	x0, x0, 5
	mov	x2, x0
	mov	x1, x3
	ldr	x0, [sp, 24]
	bl	_ZNSt12_Vector_baseINSt7__cxx1112basic_stringIcSt11char_traitsIcESaIcEEESaIS5_EE13_M_deallocateEPS5_m
	ldr	x0, [sp, 24]
	bl	_ZNSt12_Vector_baseINSt7__cxx1112basic_stringIcSt11char_traitsIcESaIcEEESaIS5_EE12_Vector_implD1Ev
	nop
	ldp	x29, x30, [sp], 32
	.cfi_restore 30
	.cfi_restore 29
	.cfi_def_cfa_offset 0
	ret
	.cfi_endproc
.LFE4843:
	.section	.gcc_except_table
.LLSDA4843:
	.byte	0xff
	.byte	0xff
	.byte	0x1
	.uleb128 .LLSDACSE4843-.LLSDACSB4843
.LLSDACSB4843:
.LLSDACSE4843:
	.section	.text._ZNSt12_Vector_baseINSt7__cxx1112basic_stringIcSt11char_traitsIcESaIcEEESaIS5_EED2Ev,"axG",@progbits,_ZNSt12_Vector_baseINSt7__cxx1112basic_stringIcSt11char_traitsIcESaIcEEESaIS5_EED5Ev,comdat
	.size	_ZNSt12_Vector_baseINSt7__cxx1112basic_stringIcSt11char_traitsIcESaIcEEESaIS5_EED2Ev, .-_ZNSt12_Vector_baseINSt7__cxx1112basic_stringIcSt11char_traitsIcESaIcEEESaIS5_EED2Ev
	.weak	_ZNSt12_Vector_baseINSt7__cxx1112basic_stringIcSt11char_traitsIcESaIcEEESaIS5_EED1Ev
	.set	_ZNSt12_Vector_baseINSt7__cxx1112basic_stringIcSt11char_traitsIcESaIcEEESaIS5_EED1Ev,_ZNSt12_Vector_baseINSt7__cxx1112basic_stringIcSt11char_traitsIcESaIcEEESaIS5_EED2Ev
	.section	.text._ZNSt6vectorINSt7__cxx1112basic_stringIcSt11char_traitsIcESaIcEEESaIS5_EED2Ev,"axG",@progbits,_ZNSt6vectorINSt7__cxx1112basic_stringIcSt11char_traitsIcESaIcEEESaIS5_EED5Ev,comdat
	.align	2
	.weak	_ZNSt6vectorINSt7__cxx1112basic_stringIcSt11char_traitsIcESaIcEEESaIS5_EED2Ev
	.type	_ZNSt6vectorINSt7__cxx1112basic_stringIcSt11char_traitsIcESaIcEEESaIS5_EED2Ev, %function
_ZNSt6vectorINSt7__cxx1112basic_stringIcSt11char_traitsIcESaIcEEESaIS5_EED2Ev:
.LFB4846:
	.cfi_startproc
	.cfi_personality 0x9b,DW.ref.__gxx_personality_v0
	.cfi_lsda 0x1b,.LLSDA4846
	stp	x29, x30, [sp, -48]!
	.cfi_def_cfa_offset 48
	.cfi_offset 29, -48
	.cfi_offset 30, -40
	mov	x29, sp
	stp	x19, x20, [sp, 16]
	.cfi_offset 19, -32
	.cfi_offset 20, -24
	str	x0, [sp, 40]
	ldr	x0, [sp, 40]
	ldr	x19, [x0]
	ldr	x0, [sp, 40]
	ldr	x20, [x0, 8]
	ldr	x0, [sp, 40]
	bl	_ZNSt12_Vector_baseINSt7__cxx1112basic_stringIcSt11char_traitsIcESaIcEEESaIS5_EE19_M_get_Tp_allocatorEv
	mov	x2, x0
	mov	x1, x20
	mov	x0, x19
	bl	_ZSt8_DestroyIPNSt7__cxx1112basic_stringIcSt11char_traitsIcESaIcEEES5_EvT_S7_RSaIT0_E
	ldr	x0, [sp, 40]
	bl	_ZNSt12_Vector_baseINSt7__cxx1112basic_stringIcSt11char_traitsIcESaIcEEESaIS5_EED2Ev
	nop
	ldp	x19, x20, [sp, 16]
	ldp	x29, x30, [sp], 48
	.cfi_restore 30
	.cfi_restore 29
	.cfi_restore 19
	.cfi_restore 20
	.cfi_def_cfa_offset 0
	ret
	.cfi_endproc
.LFE4846:
	.section	.gcc_except_table
.LLSDA4846:
	.byte	0xff
	.byte	0xff
	.byte	0x1
	.uleb128 .LLSDACSE4846-.LLSDACSB4846
.LLSDACSB4846:
.LLSDACSE4846:
	.section	.text._ZNSt6vectorINSt7__cxx1112basic_stringIcSt11char_traitsIcESaIcEEESaIS5_EED2Ev,"axG",@progbits,_ZNSt6vectorINSt7__cxx1112basic_stringIcSt11char_traitsIcESaIcEEESaIS5_EED5Ev,comdat
	.size	_ZNSt6vectorINSt7__cxx1112basic_stringIcSt11char_traitsIcESaIcEEESaIS5_EED2Ev, .-_ZNSt6vectorINSt7__cxx1112basic_stringIcSt11char_traitsIcESaIcEEESaIS5_EED2Ev
	.weak	_ZNSt6vectorINSt7__cxx1112basic_stringIcSt11char_traitsIcESaIcEEESaIS5_EED1Ev
	.set	_ZNSt6vectorINSt7__cxx1112basic_stringIcSt11char_traitsIcESaIcEEESaIS5_EED1Ev,_ZNSt6vectorINSt7__cxx1112basic_stringIcSt11char_traitsIcESaIcEEESaIS5_EED2Ev
	.section	.text._ZNSt8_Rb_treeINSt7__cxx1112basic_stringIcSt11char_traitsIcESaIcEEESt4pairIKS5_S5_ESt10_Select1stIS8_ESt4lessIS5_ESaIS8_EE13_Rb_tree_implISC_Lb1EEC2Ev,"axG",@progbits,_ZNSt8_Rb_treeINSt7__cxx1112basic_stringIcSt11char_traitsIcESaIcEEESt4pairIKS5_S5_ESt10_Select1stIS8_ESt4lessIS5_ESaIS8_EE13_Rb_tree_implISC_Lb1EEC5Ev,comdat
	.align	2
	.weak	_ZNSt8_Rb_treeINSt7__cxx1112basic_stringIcSt11char_traitsIcESaIcEEESt4pairIKS5_S5_ESt10_Select1stIS8_ESt4lessIS5_ESaIS8_EE13_Rb_tree_implISC_Lb1EEC2Ev
	.type	_ZNSt8_Rb_treeINSt7__cxx1112basic_stringIcSt11char_traitsIcESaIcEEESt4pairIKS5_S5_ESt10_Select1stIS8_ESt4lessIS5_ESaIS8_EE13_Rb_tree_implISC_Lb1EEC2Ev, %function
_ZNSt8_Rb_treeINSt7__cxx1112basic_stringIcSt11char_traitsIcESaIcEEESt4pairIKS5_S5_ESt10_Select1stIS8_ESt4lessIS5_ESaIS8_EE13_Rb_tree_implISC_Lb1EEC2Ev:
.LFB4849:
	.cfi_startproc
	stp	x29, x30, [sp, -32]!
	.cfi_def_cfa_offset 32
	.cfi_offset 29, -32
	.cfi_offset 30, -24
	mov	x29, sp
	str	x0, [sp, 24]
	ldr	x0, [sp, 24]
	bl	_ZNSaISt13_Rb_tree_nodeISt4pairIKNSt7__cxx1112basic_stringIcSt11char_traitsIcESaIcEEES6_EEEC2Ev
	ldr	x0, [sp, 24]
	bl	_ZNSt20_Rb_tree_key_compareISt4lessINSt7__cxx1112basic_stringIcSt11char_traitsIcESaIcEEEEEC2Ev
	ldr	x0, [sp, 24]
	add	x0, x0, 8
	bl	_ZNSt15_Rb_tree_headerC2Ev
	nop
	ldp	x29, x30, [sp], 32
	.cfi_restore 30
	.cfi_restore 29
	.cfi_def_cfa_offset 0
	ret
	.cfi_endproc
.LFE4849:
	.size	_ZNSt8_Rb_treeINSt7__cxx1112basic_stringIcSt11char_traitsIcESaIcEEESt4pairIKS5_S5_ESt10_Select1stIS8_ESt4lessIS5_ESaIS8_EE13_Rb_tree_implISC_Lb1EEC2Ev, .-_ZNSt8_Rb_treeINSt7__cxx1112basic_stringIcSt11char_traitsIcESaIcEEESt4pairIKS5_S5_ESt10_Select1stIS8_ESt4lessIS5_ESaIS8_EE13_Rb_tree_implISC_Lb1EEC2Ev
	.weak	_ZNSt8_Rb_treeINSt7__cxx1112basic_stringIcSt11char_traitsIcESaIcEEESt4pairIKS5_S5_ESt10_Select1stIS8_ESt4lessIS5_ESaIS8_EE13_Rb_tree_implISC_Lb1EEC1Ev
	.set	_ZNSt8_Rb_treeINSt7__cxx1112basic_stringIcSt11char_traitsIcESaIcEEESt4pairIKS5_S5_ESt10_Select1stIS8_ESt4lessIS5_ESaIS8_EE13_Rb_tree_implISC_Lb1EEC1Ev,_ZNSt8_Rb_treeINSt7__cxx1112basic_stringIcSt11char_traitsIcESaIcEEESt4pairIKS5_S5_ESt10_Select1stIS8_ESt4lessIS5_ESaIS8_EE13_Rb_tree_implISC_Lb1EEC2Ev
	.section	.text._ZNSaISt13_Rb_tree_nodeISt4pairIKNSt7__cxx1112basic_stringIcSt11char_traitsIcESaIcEEES6_EEED2Ev,"axG",@progbits,_ZNSaISt13_Rb_tree_nodeISt4pairIKNSt7__cxx1112basic_stringIcSt11char_traitsIcESaIcEEES6_EEED5Ev,comdat
	.align	2
	.weak	_ZNSaISt13_Rb_tree_nodeISt4pairIKNSt7__cxx1112basic_stringIcSt11char_traitsIcESaIcEEES6_EEED2Ev
	.type	_ZNSaISt13_Rb_tree_nodeISt4pairIKNSt7__cxx1112basic_stringIcSt11char_traitsIcESaIcEEES6_EEED2Ev, %function
_ZNSaISt13_Rb_tree_nodeISt4pairIKNSt7__cxx1112basic_stringIcSt11char_traitsIcESaIcEEES6_EEED2Ev:
.LFB4852:
	.cfi_startproc
	stp	x29, x30, [sp, -32]!
	.cfi_def_cfa_offset 32
	.cfi_offset 29, -32
	.cfi_offset 30, -24
	mov	x29, sp
	str	x0, [sp, 24]
	ldr	x0, [sp, 24]
	bl	_ZN9__gnu_cxx13new_allocatorISt13_Rb_tree_nodeISt4pairIKNSt7__cxx1112basic_stringIcSt11char_traitsIcESaIcEEES8_EEED2Ev
	nop
	ldp	x29, x30, [sp], 32
	.cfi_restore 30
	.cfi_restore 29
	.cfi_def_cfa_offset 0
	ret
	.cfi_endproc
.LFE4852:
	.size	_ZNSaISt13_Rb_tree_nodeISt4pairIKNSt7__cxx1112basic_stringIcSt11char_traitsIcESaIcEEES6_EEED2Ev, .-_ZNSaISt13_Rb_tree_nodeISt4pairIKNSt7__cxx1112basic_stringIcSt11char_traitsIcESaIcEEES6_EEED2Ev
	.weak	_ZNSaISt13_Rb_tree_nodeISt4pairIKNSt7__cxx1112basic_stringIcSt11char_traitsIcESaIcEEES6_EEED1Ev
	.set	_ZNSaISt13_Rb_tree_nodeISt4pairIKNSt7__cxx1112basic_stringIcSt11char_traitsIcESaIcEEES6_EEED1Ev,_ZNSaISt13_Rb_tree_nodeISt4pairIKNSt7__cxx1112basic_stringIcSt11char_traitsIcESaIcEEES6_EEED2Ev
	.section	.text._ZNSt8_Rb_treeINSt7__cxx1112basic_stringIcSt11char_traitsIcESaIcEEESt4pairIKS5_S5_ESt10_Select1stIS8_ESt4lessIS5_ESaIS8_EED2Ev,"axG",@progbits,_ZNSt8_Rb_treeINSt7__cxx1112basic_stringIcSt11char_traitsIcESaIcEEESt4pairIKS5_S5_ESt10_Select1stIS8_ESt4lessIS5_ESaIS8_EED5Ev,comdat
	.align	2
	.weak	_ZNSt8_Rb_treeINSt7__cxx1112basic_stringIcSt11char_traitsIcESaIcEEESt4pairIKS5_S5_ESt10_Select1stIS8_ESt4lessIS5_ESaIS8_EED2Ev
	.type	_ZNSt8_Rb_treeINSt7__cxx1112basic_stringIcSt11char_traitsIcESaIcEEESt4pairIKS5_S5_ESt10_Select1stIS8_ESt4lessIS5_ESaIS8_EED2Ev, %function
_ZNSt8_Rb_treeINSt7__cxx1112basic_stringIcSt11char_traitsIcESaIcEEESt4pairIKS5_S5_ESt10_Select1stIS8_ESt4lessIS5_ESaIS8_EED2Ev:
.LFB4855:
	.cfi_startproc
	.cfi_personality 0x9b,DW.ref.__gxx_personality_v0
	.cfi_lsda 0x1b,.LLSDA4855
	stp	x29, x30, [sp, -32]!
	.cfi_def_cfa_offset 32
	.cfi_offset 29, -32
	.cfi_offset 30, -24
	mov	x29, sp
	str	x0, [sp, 24]
	ldr	x0, [sp, 24]
	bl	_ZNSt8_Rb_treeINSt7__cxx1112basic_stringIcSt11char_traitsIcESaIcEEESt4pairIKS5_S5_ESt10_Select1stIS8_ESt4lessIS5_ESaIS8_EE8_M_beginEv
	mov	x1, x0
	ldr	x0, [sp, 24]
	bl	_ZNSt8_Rb_treeINSt7__cxx1112basic_stringIcSt11char_traitsIcESaIcEEESt4pairIKS5_S5_ESt10_Select1stIS8_ESt4lessIS5_ESaIS8_EE8_M_eraseEPSt13_Rb_tree_nodeIS8_E
	ldr	x0, [sp, 24]
	bl	_ZNSt8_Rb_treeINSt7__cxx1112basic_stringIcSt11char_traitsIcESaIcEEESt4pairIKS5_S5_ESt10_Select1stIS8_ESt4lessIS5_ESaIS8_EE13_Rb_tree_implISC_Lb1EED1Ev
	nop
	ldp	x29, x30, [sp], 32
	.cfi_restore 30
	.cfi_restore 29
	.cfi_def_cfa_offset 0
	ret
	.cfi_endproc
.LFE4855:
	.section	.gcc_except_table
.LLSDA4855:
	.byte	0xff
	.byte	0xff
	.byte	0x1
	.uleb128 .LLSDACSE4855-.LLSDACSB4855
.LLSDACSB4855:
.LLSDACSE4855:
	.section	.text._ZNSt8_Rb_treeINSt7__cxx1112basic_stringIcSt11char_traitsIcESaIcEEESt4pairIKS5_S5_ESt10_Select1stIS8_ESt4lessIS5_ESaIS8_EED2Ev,"axG",@progbits,_ZNSt8_Rb_treeINSt7__cxx1112basic_stringIcSt11char_traitsIcESaIcEEESt4pairIKS5_S5_ESt10_Select1stIS8_ESt4lessIS5_ESaIS8_EED5Ev,comdat
	.size	_ZNSt8_Rb_treeINSt7__cxx1112basic_stringIcSt11char_traitsIcESaIcEEESt4pairIKS5_S5_ESt10_Select1stIS8_ESt4lessIS5_ESaIS8_EED2Ev, .-_ZNSt8_Rb_treeINSt7__cxx1112basic_stringIcSt11char_traitsIcESaIcEEESt4pairIKS5_S5_ESt10_Select1stIS8_ESt4lessIS5_ESaIS8_EED2Ev
	.weak	_ZNSt8_Rb_treeINSt7__cxx1112basic_stringIcSt11char_traitsIcESaIcEEESt4pairIKS5_S5_ESt10_Select1stIS8_ESt4lessIS5_ESaIS8_EED1Ev
	.set	_ZNSt8_Rb_treeINSt7__cxx1112basic_stringIcSt11char_traitsIcESaIcEEESt4pairIKS5_S5_ESt10_Select1stIS8_ESt4lessIS5_ESaIS8_EED1Ev,_ZNSt8_Rb_treeINSt7__cxx1112basic_stringIcSt11char_traitsIcESaIcEEESt4pairIKS5_S5_ESt10_Select1stIS8_ESt4lessIS5_ESaIS8_EED2Ev
	.section	.text._ZNSaINSt7__cxx1112basic_stringIcSt11char_traitsIcESaIcEEEEC2Ev,"axG",@progbits,_ZNSaINSt7__cxx1112basic_stringIcSt11char_traitsIcESaIcEEEEC5Ev,comdat
	.align	2
	.weak	_ZNSaINSt7__cxx1112basic_stringIcSt11char_traitsIcESaIcEEEEC2Ev
	.type	_ZNSaINSt7__cxx1112basic_stringIcSt11char_traitsIcESaIcEEEEC2Ev, %function
_ZNSaINSt7__cxx1112basic_stringIcSt11char_traitsIcESaIcEEEEC2Ev:
.LFB4861:
	.cfi_startproc
	stp	x29, x30, [sp, -32]!
	.cfi_def_cfa_offset 32
	.cfi_offset 29, -32
	.cfi_offset 30, -24
	mov	x29, sp
	str	x0, [sp, 24]
	ldr	x0, [sp, 24]
	bl	_ZN9__gnu_cxx13new_allocatorINSt7__cxx1112basic_stringIcSt11char_traitsIcESaIcEEEEC2Ev
	nop
	ldp	x29, x30, [sp], 32
	.cfi_restore 30
	.cfi_restore 29
	.cfi_def_cfa_offset 0
	ret
	.cfi_endproc
.LFE4861:
	.size	_ZNSaINSt7__cxx1112basic_stringIcSt11char_traitsIcESaIcEEEEC2Ev, .-_ZNSaINSt7__cxx1112basic_stringIcSt11char_traitsIcESaIcEEEEC2Ev
	.weak	_ZNSaINSt7__cxx1112basic_stringIcSt11char_traitsIcESaIcEEEEC1Ev
	.set	_ZNSaINSt7__cxx1112basic_stringIcSt11char_traitsIcESaIcEEEEC1Ev,_ZNSaINSt7__cxx1112basic_stringIcSt11char_traitsIcESaIcEEEEC2Ev
	.section	.text._ZNSt6vectorINSt7__cxx1112basic_stringIcSt11char_traitsIcESaIcEEESaIS5_EEC2ESt16initializer_listIS5_ERKS6_,"axG",@progbits,_ZNSt6vectorINSt7__cxx1112basic_stringIcSt11char_traitsIcESaIcEEESaIS5_EEC5ESt16initializer_listIS5_ERKS6_,comdat
	.align	2
	.weak	_ZNSt6vectorINSt7__cxx1112basic_stringIcSt11char_traitsIcESaIcEEESaIS5_EEC2ESt16initializer_listIS5_ERKS6_
	.type	_ZNSt6vectorINSt7__cxx1112basic_stringIcSt11char_traitsIcESaIcEEESaIS5_EEC2ESt16initializer_listIS5_ERKS6_, %function
_ZNSt6vectorINSt7__cxx1112basic_stringIcSt11char_traitsIcESaIcEEESaIS5_EEC2ESt16initializer_listIS5_ERKS6_:
.LFB4864:
	.cfi_startproc
	.cfi_personality 0x9b,DW.ref.__gxx_personality_v0
	.cfi_lsda 0x1b,.LLSDA4864
	stp	x29, x30, [sp, -80]!
	.cfi_def_cfa_offset 80
	.cfi_offset 29, -80
	.cfi_offset 30, -72
	mov	x29, sp
	stp	x19, x20, [sp, 16]
	.cfi_offset 19, -64
	.cfi_offset 20, -56
	str	x0, [sp, 56]
	stp	x1, x2, [sp, 40]
	str	x3, [sp, 32]
	adrp	x0, :got:__stack_chk_guard
	ldr	x0, [x0, #:got_lo12:__stack_chk_guard]
	ldr	x1, [x0]
	str	x1, [sp, 72]
	mov	x1, 0
	ldr	x0, [sp, 56]
	ldr	x1, [sp, 32]
	bl	_ZNSt12_Vector_baseINSt7__cxx1112basic_stringIcSt11char_traitsIcESaIcEEESaIS5_EEC2ERKS6_
	add	x0, sp, 40
	bl	_ZNKSt16initializer_listINSt7__cxx1112basic_stringIcSt11char_traitsIcESaIcEEEE5beginEv
	mov	x19, x0
	add	x0, sp, 40
	bl	_ZNKSt16initializer_listINSt7__cxx1112basic_stringIcSt11char_traitsIcESaIcEEEE3endEv
	mov	w3, w20
	mov	x2, x0
	mov	x1, x19
	ldr	x0, [sp, 56]
.LEHB92:
	bl	_ZNSt6vectorINSt7__cxx1112basic_stringIcSt11char_traitsIcESaIcEEESaIS5_EE19_M_range_initializeIPKS5_EEvT_SB_St20forward_iterator_tag
.LEHE92:
	b	.L413
.L412:
	mov	x19, x0
	ldr	x0, [sp, 56]
	bl	_ZNSt12_Vector_baseINSt7__cxx1112basic_stringIcSt11char_traitsIcESaIcEEESaIS5_EED2Ev
	mov	x0, x19
.LEHB93:
	bl	_Unwind_Resume
.LEHE93:
.L413:
	adrp	x0, :got:__stack_chk_guard
	ldr	x0, [x0, #:got_lo12:__stack_chk_guard]
	ldr	x2, [sp, 72]
	ldr	x1, [x0]
	subs	x2, x2, x1
	mov	x1, 0
	beq	.L411
	bl	__stack_chk_fail
.L411:
	ldp	x19, x20, [sp, 16]
	ldp	x29, x30, [sp], 80
	.cfi_restore 30
	.cfi_restore 29
	.cfi_restore 19
	.cfi_restore 20
	.cfi_def_cfa_offset 0
	ret
	.cfi_endproc
.LFE4864:
	.section	.gcc_except_table
.LLSDA4864:
	.byte	0xff
	.byte	0xff
	.byte	0x1
	.uleb128 .LLSDACSE4864-.LLSDACSB4864
.LLSDACSB4864:
	.uleb128 .LEHB92-.LFB4864
	.uleb128 .LEHE92-.LEHB92
	.uleb128 .L412-.LFB4864
	.uleb128 0
	.uleb128 .LEHB93-.LFB4864
	.uleb128 .LEHE93-.LEHB93
	.uleb128 0
	.uleb128 0
.LLSDACSE4864:
	.section	.text._ZNSt6vectorINSt7__cxx1112basic_stringIcSt11char_traitsIcESaIcEEESaIS5_EEC2ESt16initializer_listIS5_ERKS6_,"axG",@progbits,_ZNSt6vectorINSt7__cxx1112basic_stringIcSt11char_traitsIcESaIcEEESaIS5_EEC5ESt16initializer_listIS5_ERKS6_,comdat
	.size	_ZNSt6vectorINSt7__cxx1112basic_stringIcSt11char_traitsIcESaIcEEESaIS5_EEC2ESt16initializer_listIS5_ERKS6_, .-_ZNSt6vectorINSt7__cxx1112basic_stringIcSt11char_traitsIcESaIcEEESaIS5_EEC2ESt16initializer_listIS5_ERKS6_
	.weak	_ZNSt6vectorINSt7__cxx1112basic_stringIcSt11char_traitsIcESaIcEEESaIS5_EEC1ESt16initializer_listIS5_ERKS6_
	.set	_ZNSt6vectorINSt7__cxx1112basic_stringIcSt11char_traitsIcESaIcEEESaIS5_EEC1ESt16initializer_listIS5_ERKS6_,_ZNSt6vectorINSt7__cxx1112basic_stringIcSt11char_traitsIcESaIcEEESaIS5_EEC2ESt16initializer_listIS5_ERKS6_
	.section	.text._ZSt14__variant_castIJN10subprocess10PipeOptionENSt7__cxx1112basic_stringIcSt11char_traitsIcESaIcEEEiPSiPSoP8_IO_FILEERKNSt8__detail9__variant17_Copy_assign_baseILb0EJS1_S7_iS8_S9_SB_EEEEDcOT0_,"axG",@progbits,_ZSt14__variant_castIJN10subprocess10PipeOptionENSt7__cxx1112basic_stringIcSt11char_traitsIcESaIcEEEiPSiPSoP8_IO_FILEERKNSt8__detail9__variant17_Copy_assign_baseILb0EJS1_S7_iS8_S9_SB_EEEEDcOT0_,comdat
	.align	2
	.weak	_ZSt14__variant_castIJN10subprocess10PipeOptionENSt7__cxx1112basic_stringIcSt11char_traitsIcESaIcEEEiPSiPSoP8_IO_FILEERKNSt8__detail9__variant17_Copy_assign_baseILb0EJS1_S7_iS8_S9_SB_EEEEDcOT0_
	.type	_ZSt14__variant_castIJN10subprocess10PipeOptionENSt7__cxx1112basic_stringIcSt11char_traitsIcESaIcEEEiPSiPSoP8_IO_FILEERKNSt8__detail9__variant17_Copy_assign_baseILb0EJS1_S7_iS8_S9_SB_EEEEDcOT0_, %function
_ZSt14__variant_castIJN10subprocess10PipeOptionENSt7__cxx1112basic_stringIcSt11char_traitsIcESaIcEEEiPSiPSoP8_IO_FILEERKNSt8__detail9__variant17_Copy_assign_baseILb0EJS1_S7_iS8_S9_SB_EEEEDcOT0_:
.LFB4868:
	.cfi_startproc
	sub	sp, sp, #16
	.cfi_def_cfa_offset 16
	str	x0, [sp, 8]
	ldr	x0, [sp, 8]
	add	sp, sp, 16
	.cfi_def_cfa_offset 0
	ret
	.cfi_endproc
.LFE4868:
	.size	_ZSt14__variant_castIJN10subprocess10PipeOptionENSt7__cxx1112basic_stringIcSt11char_traitsIcESaIcEEEiPSiPSoP8_IO_FILEERKNSt8__detail9__variant17_Copy_assign_baseILb0EJS1_S7_iS8_S9_SB_EEEEDcOT0_, .-_ZSt14__variant_castIJN10subprocess10PipeOptionENSt7__cxx1112basic_stringIcSt11char_traitsIcESaIcEEEiPSiPSoP8_IO_FILEERKNSt8__detail9__variant17_Copy_assign_baseILb0EJS1_S7_iS8_S9_SB_EEEEDcOT0_
	.section	.text._ZNSt8__detail9__variant17_Copy_assign_baseILb0EJN10subprocess10PipeOptionENSt7__cxx1112basic_stringIcSt11char_traitsIcESaIcEEEiPSiPSoP8_IO_FILEEEaSERKSE_,"axG",@progbits,_ZNSt8__detail9__variant17_Copy_assign_baseILb0EJN10subprocess10PipeOptionENSt7__cxx1112basic_stringIcSt11char_traitsIcESaIcEEEiPSiPSoP8_IO_FILEEEaSERKSE_,comdat
	.align	2
	.weak	_ZNSt8__detail9__variant17_Copy_assign_baseILb0EJN10subprocess10PipeOptionENSt7__cxx1112basic_stringIcSt11char_traitsIcESaIcEEEiPSiPSoP8_IO_FILEEEaSERKSE_
	.type	_ZNSt8__detail9__variant17_Copy_assign_baseILb0EJN10subprocess10PipeOptionENSt7__cxx1112basic_stringIcSt11char_traitsIcESaIcEEEiPSiPSoP8_IO_FILEEEaSERKSE_, %function
_ZNSt8__detail9__variant17_Copy_assign_baseILb0EJN10subprocess10PipeOptionENSt7__cxx1112basic_stringIcSt11char_traitsIcESaIcEEEiPSiPSoP8_IO_FILEEEaSERKSE_:
.LFB4866:
	.cfi_startproc
	stp	x29, x30, [sp, -48]!
	.cfi_def_cfa_offset 48
	.cfi_offset 29, -48
	.cfi_offset 30, -40
	mov	x29, sp
	str	x0, [sp, 24]
	str	x1, [sp, 16]
	adrp	x0, :got:__stack_chk_guard
	ldr	x0, [x0, #:got_lo12:__stack_chk_guard]
	ldr	x1, [x0]
	str	x1, [sp, 40]
	mov	x1, 0
	ldr	x0, [sp, 24]
	str	x0, [sp, 32]
	ldr	x0, [sp, 16]
	bl	_ZSt14__variant_castIJN10subprocess10PipeOptionENSt7__cxx1112basic_stringIcSt11char_traitsIcESaIcEEEiPSiPSoP8_IO_FILEERKNSt8__detail9__variant17_Copy_assign_baseILb0EJS1_S7_iS8_S9_SB_EEEEDcOT0_
	mov	x1, x0
	add	x0, sp, 32
	bl	_ZNSt8__detail9__variant15__raw_idx_visitIZNS0_17_Copy_assign_baseILb0EJN10subprocess10PipeOptionENSt7__cxx1112basic_stringIcSt11char_traitsIcESaIcEEEiPSiPSoP8_IO_FILEEEaSERKSF_EUlOT_T0_E_JRKSt7variantIJS4_SA_iSB_SC_SE_EEEEEvSJ_DpOT0_
	ldr	x0, [sp, 24]
	mov	x1, x0
	adrp	x0, :got:__stack_chk_guard
	ldr	x0, [x0, #:got_lo12:__stack_chk_guard]
	ldr	x3, [sp, 40]
	ldr	x2, [x0]
	subs	x3, x3, x2
	mov	x2, 0
	beq	.L418
	bl	__stack_chk_fail
.L418:
	mov	x0, x1
	ldp	x29, x30, [sp], 48
	.cfi_restore 30
	.cfi_restore 29
	.cfi_def_cfa_offset 0
	ret
	.cfi_endproc
.LFE4866:
	.size	_ZNSt8__detail9__variant17_Copy_assign_baseILb0EJN10subprocess10PipeOptionENSt7__cxx1112basic_stringIcSt11char_traitsIcESaIcEEEiPSiPSoP8_IO_FILEEEaSERKSE_, .-_ZNSt8__detail9__variant17_Copy_assign_baseILb0EJN10subprocess10PipeOptionENSt7__cxx1112basic_stringIcSt11char_traitsIcESaIcEEEiPSiPSoP8_IO_FILEEEaSERKSE_
	.section	.text._ZNSt8__detail9__variant15_Copy_ctor_baseILb0EJN10subprocess10PipeOptionENSt7__cxx1112basic_stringIcSt11char_traitsIcESaIcEEEiPSiPSoP8_IO_FILEEEC2ERKSE_,"axG",@progbits,_ZNSt8__detail9__variant15_Copy_ctor_baseILb0EJN10subprocess10PipeOptionENSt7__cxx1112basic_stringIcSt11char_traitsIcESaIcEEEiPSiPSoP8_IO_FILEEEC5ERKSE_,comdat
	.align	2
	.weak	_ZNSt8__detail9__variant15_Copy_ctor_baseILb0EJN10subprocess10PipeOptionENSt7__cxx1112basic_stringIcSt11char_traitsIcESaIcEEEiPSiPSoP8_IO_FILEEEC2ERKSE_
	.type	_ZNSt8__detail9__variant15_Copy_ctor_baseILb0EJN10subprocess10PipeOptionENSt7__cxx1112basic_stringIcSt11char_traitsIcESaIcEEEiPSiPSoP8_IO_FILEEEC2ERKSE_, %function
_ZNSt8__detail9__variant15_Copy_ctor_baseILb0EJN10subprocess10PipeOptionENSt7__cxx1112basic_stringIcSt11char_traitsIcESaIcEEEiPSiPSoP8_IO_FILEEEC2ERKSE_:
.LFB4874:
	.cfi_startproc
	.cfi_personality 0x9b,DW.ref.__gxx_personality_v0
	.cfi_lsda 0x1b,.LLSDA4874
	stp	x29, x30, [sp, -48]!
	.cfi_def_cfa_offset 48
	.cfi_offset 29, -48
	.cfi_offset 30, -40
	mov	x29, sp
	str	x19, [sp, 16]
	.cfi_offset 19, -32
	str	x0, [sp, 40]
	str	x1, [sp, 32]
	ldr	x0, [sp, 40]
.LEHB94:
	bl	_ZNSt8__detail9__variant16_Variant_storageILb0EJN10subprocess10PipeOptionENSt7__cxx1112basic_stringIcSt11char_traitsIcESaIcEEEiPSiPSoP8_IO_FILEEEC2Ev
.LEHE94:
	ldr	x1, [sp, 32]
	ldr	x0, [sp, 40]
.LEHB95:
	bl	_ZNSt8__detail9__variant19__variant_constructIJN10subprocess10PipeOptionENSt7__cxx1112basic_stringIcSt11char_traitsIcESaIcEEEiPSiPSoP8_IO_FILEERNS0_15_Copy_ctor_baseILb0EJS3_S9_iSA_SB_SD_EEERKSF_EEvOT0_OT1_
.LEHE95:
	b	.L422
.L421:
	mov	x19, x0
	ldr	x0, [sp, 40]
	bl	_ZNSt8__detail9__variant16_Variant_storageILb0EJN10subprocess10PipeOptionENSt7__cxx1112basic_stringIcSt11char_traitsIcESaIcEEEiPSiPSoP8_IO_FILEEED2Ev
	mov	x0, x19
.LEHB96:
	bl	_Unwind_Resume
.LEHE96:
.L422:
	ldr	x19, [sp, 16]
	ldp	x29, x30, [sp], 48
	.cfi_restore 30
	.cfi_restore 29
	.cfi_restore 19
	.cfi_def_cfa_offset 0
	ret
	.cfi_endproc
.LFE4874:
	.section	.gcc_except_table
.LLSDA4874:
	.byte	0xff
	.byte	0xff
	.byte	0x1
	.uleb128 .LLSDACSE4874-.LLSDACSB4874
.LLSDACSB4874:
	.uleb128 .LEHB94-.LFB4874
	.uleb128 .LEHE94-.LEHB94
	.uleb128 0
	.uleb128 0
	.uleb128 .LEHB95-.LFB4874
	.uleb128 .LEHE95-.LEHB95
	.uleb128 .L421-.LFB4874
	.uleb128 0
	.uleb128 .LEHB96-.LFB4874
	.uleb128 .LEHE96-.LEHB96
	.uleb128 0
	.uleb128 0
.LLSDACSE4874:
	.section	.text._ZNSt8__detail9__variant15_Copy_ctor_baseILb0EJN10subprocess10PipeOptionENSt7__cxx1112basic_stringIcSt11char_traitsIcESaIcEEEiPSiPSoP8_IO_FILEEEC2ERKSE_,"axG",@progbits,_ZNSt8__detail9__variant15_Copy_ctor_baseILb0EJN10subprocess10PipeOptionENSt7__cxx1112basic_stringIcSt11char_traitsIcESaIcEEEiPSiPSoP8_IO_FILEEEC5ERKSE_,comdat
	.size	_ZNSt8__detail9__variant15_Copy_ctor_baseILb0EJN10subprocess10PipeOptionENSt7__cxx1112basic_stringIcSt11char_traitsIcESaIcEEEiPSiPSoP8_IO_FILEEEC2ERKSE_, .-_ZNSt8__detail9__variant15_Copy_ctor_baseILb0EJN10subprocess10PipeOptionENSt7__cxx1112basic_stringIcSt11char_traitsIcESaIcEEEiPSiPSoP8_IO_FILEEEC2ERKSE_
	.weak	_ZNSt8__detail9__variant15_Copy_ctor_baseILb0EJN10subprocess10PipeOptionENSt7__cxx1112basic_stringIcSt11char_traitsIcESaIcEEEiPSiPSoP8_IO_FILEEEC1ERKSE_
	.set	_ZNSt8__detail9__variant15_Copy_ctor_baseILb0EJN10subprocess10PipeOptionENSt7__cxx1112basic_stringIcSt11char_traitsIcESaIcEEEiPSiPSoP8_IO_FILEEEC1ERKSE_,_ZNSt8__detail9__variant15_Copy_ctor_baseILb0EJN10subprocess10PipeOptionENSt7__cxx1112basic_stringIcSt11char_traitsIcESaIcEEEiPSiPSoP8_IO_FILEEEC2ERKSE_
	.section	.text._ZNSt8_Rb_treeINSt7__cxx1112basic_stringIcSt11char_traitsIcESaIcEEESt4pairIKS5_S5_ESt10_Select1stIS8_ESt4lessIS5_ESaIS8_EEC2ERKSE_,"axG",@progbits,_ZNSt8_Rb_treeINSt7__cxx1112basic_stringIcSt11char_traitsIcESaIcEEESt4pairIKS5_S5_ESt10_Select1stIS8_ESt4lessIS5_ESaIS8_EEC5ERKSE_,comdat
	.align	2
	.weak	_ZNSt8_Rb_treeINSt7__cxx1112basic_stringIcSt11char_traitsIcESaIcEEESt4pairIKS5_S5_ESt10_Select1stIS8_ESt4lessIS5_ESaIS8_EEC2ERKSE_
	.type	_ZNSt8_Rb_treeINSt7__cxx1112basic_stringIcSt11char_traitsIcESaIcEEESt4pairIKS5_S5_ESt10_Select1stIS8_ESt4lessIS5_ESaIS8_EEC2ERKSE_, %function
_ZNSt8_Rb_treeINSt7__cxx1112basic_stringIcSt11char_traitsIcESaIcEEESt4pairIKS5_S5_ESt10_Select1stIS8_ESt4lessIS5_ESaIS8_EEC2ERKSE_:
.LFB4877:
	.cfi_startproc
	.cfi_personality 0x9b,DW.ref.__gxx_personality_v0
	.cfi_lsda 0x1b,.LLSDA4877
	stp	x29, x30, [sp, -48]!
	.cfi_def_cfa_offset 48
	.cfi_offset 29, -48
	.cfi_offset 30, -40
	mov	x29, sp
	str	x19, [sp, 16]
	.cfi_offset 19, -32
	str	x0, [sp, 40]
	str	x1, [sp, 32]
	ldr	x0, [sp, 40]
	ldr	x1, [sp, 32]
.LEHB97:
	bl	_ZNSt8_Rb_treeINSt7__cxx1112basic_stringIcSt11char_traitsIcESaIcEEESt4pairIKS5_S5_ESt10_Select1stIS8_ESt4lessIS5_ESaIS8_EE13_Rb_tree_implISC_Lb1EEC1ERKSG_
.LEHE97:
	ldr	x0, [sp, 32]
	bl	_ZNKSt8_Rb_treeINSt7__cxx1112basic_stringIcSt11char_traitsIcESaIcEEESt4pairIKS5_S5_ESt10_Select1stIS8_ESt4lessIS5_ESaIS8_EE7_M_rootEv
	cmp	x0, 0
	cset	w0, ne
	and	w0, w0, 255
	cmp	w0, 0
	beq	.L427
	ldr	x1, [sp, 32]
	ldr	x0, [sp, 40]
.LEHB98:
	bl	_ZNSt8_Rb_treeINSt7__cxx1112basic_stringIcSt11char_traitsIcESaIcEEESt4pairIKS5_S5_ESt10_Select1stIS8_ESt4lessIS5_ESaIS8_EE7_M_copyERKSE_
.LEHE98:
	mov	x19, x0
	ldr	x0, [sp, 40]
	bl	_ZNSt8_Rb_treeINSt7__cxx1112basic_stringIcSt11char_traitsIcESaIcEEESt4pairIKS5_S5_ESt10_Select1stIS8_ESt4lessIS5_ESaIS8_EE7_M_rootEv
	str	x19, [x0]
	b	.L427
.L426:
	mov	x19, x0
	ldr	x0, [sp, 40]
	bl	_ZNSt8_Rb_treeINSt7__cxx1112basic_stringIcSt11char_traitsIcESaIcEEESt4pairIKS5_S5_ESt10_Select1stIS8_ESt4lessIS5_ESaIS8_EE13_Rb_tree_implISC_Lb1EED1Ev
	mov	x0, x19
.LEHB99:
	bl	_Unwind_Resume
.LEHE99:
.L427:
	nop
	ldr	x19, [sp, 16]
	ldp	x29, x30, [sp], 48
	.cfi_restore 30
	.cfi_restore 29
	.cfi_restore 19
	.cfi_def_cfa_offset 0
	ret
	.cfi_endproc
.LFE4877:
	.section	.gcc_except_table
.LLSDA4877:
	.byte	0xff
	.byte	0xff
	.byte	0x1
	.uleb128 .LLSDACSE4877-.LLSDACSB4877
.LLSDACSB4877:
	.uleb128 .LEHB97-.LFB4877
	.uleb128 .LEHE97-.LEHB97
	.uleb128 0
	.uleb128 0
	.uleb128 .LEHB98-.LFB4877
	.uleb128 .LEHE98-.LEHB98
	.uleb128 .L426-.LFB4877
	.uleb128 0
	.uleb128 .LEHB99-.LFB4877
	.uleb128 .LEHE99-.LEHB99
	.uleb128 0
	.uleb128 0
.LLSDACSE4877:
	.section	.text._ZNSt8_Rb_treeINSt7__cxx1112basic_stringIcSt11char_traitsIcESaIcEEESt4pairIKS5_S5_ESt10_Select1stIS8_ESt4lessIS5_ESaIS8_EEC2ERKSE_,"axG",@progbits,_ZNSt8_Rb_treeINSt7__cxx1112basic_stringIcSt11char_traitsIcESaIcEEESt4pairIKS5_S5_ESt10_Select1stIS8_ESt4lessIS5_ESaIS8_EEC5ERKSE_,comdat
	.size	_ZNSt8_Rb_treeINSt7__cxx1112basic_stringIcSt11char_traitsIcESaIcEEESt4pairIKS5_S5_ESt10_Select1stIS8_ESt4lessIS5_ESaIS8_EEC2ERKSE_, .-_ZNSt8_Rb_treeINSt7__cxx1112basic_stringIcSt11char_traitsIcESaIcEEESt4pairIKS5_S5_ESt10_Select1stIS8_ESt4lessIS5_ESaIS8_EEC2ERKSE_
	.weak	_ZNSt8_Rb_treeINSt7__cxx1112basic_stringIcSt11char_traitsIcESaIcEEESt4pairIKS5_S5_ESt10_Select1stIS8_ESt4lessIS5_ESaIS8_EEC1ERKSE_
	.set	_ZNSt8_Rb_treeINSt7__cxx1112basic_stringIcSt11char_traitsIcESaIcEEESt4pairIKS5_S5_ESt10_Select1stIS8_ESt4lessIS5_ESaIS8_EEC1ERKSE_,_ZNSt8_Rb_treeINSt7__cxx1112basic_stringIcSt11char_traitsIcESaIcEEESt4pairIKS5_S5_ESt10_Select1stIS8_ESt4lessIS5_ESaIS8_EEC2ERKSE_
	.section	.text._ZNSt10filesystem7__cxx114path10_S_convertISt17basic_string_viewIcSt11char_traitsIcEEEEDaRKT_,"axG",@progbits,_ZNSt10filesystem7__cxx114path10_S_convertISt17basic_string_viewIcSt11char_traitsIcEEEEDaRKT_,comdat
	.align	2
	.weak	_ZNSt10filesystem7__cxx114path10_S_convertISt17basic_string_viewIcSt11char_traitsIcEEEEDaRKT_
	.type	_ZNSt10filesystem7__cxx114path10_S_convertISt17basic_string_viewIcSt11char_traitsIcEEEEDaRKT_, %function
_ZNSt10filesystem7__cxx114path10_S_convertISt17basic_string_viewIcSt11char_traitsIcEEEEDaRKT_:
.LFB4880:
	.cfi_startproc
	sub	sp, sp, #16
	.cfi_def_cfa_offset 16
	str	x0, [sp, 8]
	ldr	x0, [sp, 8]
	ldp	x0, x1, [x0]
	add	sp, sp, 16
	.cfi_def_cfa_offset 0
	ret
	.cfi_endproc
.LFE4880:
	.size	_ZNSt10filesystem7__cxx114path10_S_convertISt17basic_string_viewIcSt11char_traitsIcEEEEDaRKT_, .-_ZNSt10filesystem7__cxx114path10_S_convertISt17basic_string_viewIcSt11char_traitsIcEEEEDaRKT_
	.section	.text._ZNSt10filesystem7__cxx114pathC2INSt7__cxx1112basic_stringIcSt11char_traitsIcESaIcEEES1_EERKT_NS1_6formatE,"axG",@progbits,_ZNSt10filesystem7__cxx114pathC5INSt7__cxx1112basic_stringIcSt11char_traitsIcESaIcEEES1_EERKT_NS1_6formatE,comdat
	.align	2
	.weak	_ZNSt10filesystem7__cxx114pathC2INSt7__cxx1112basic_stringIcSt11char_traitsIcESaIcEEES1_EERKT_NS1_6formatE
	.type	_ZNSt10filesystem7__cxx114pathC2INSt7__cxx1112basic_stringIcSt11char_traitsIcESaIcEEES1_EERKT_NS1_6formatE, %function
_ZNSt10filesystem7__cxx114pathC2INSt7__cxx1112basic_stringIcSt11char_traitsIcESaIcEEES1_EERKT_NS1_6formatE:
.LFB4881:
	.cfi_startproc
	.cfi_personality 0x9b,DW.ref.__gxx_personality_v0
	.cfi_lsda 0x1b,.LLSDA4881
	stp	x29, x30, [sp, -112]!
	.cfi_def_cfa_offset 112
	.cfi_offset 29, -112
	.cfi_offset 30, -104
	mov	x29, sp
	str	x19, [sp, 16]
	.cfi_offset 19, -96
	str	x0, [sp, 56]
	str	x1, [sp, 48]
	strb	w2, [sp, 47]
	adrp	x0, :got:__stack_chk_guard
	ldr	x0, [x0, #:got_lo12:__stack_chk_guard]
	ldr	x1, [x0]
	str	x1, [sp, 104]
	mov	x1, 0
	ldr	x19, [sp, 56]
	ldr	x0, [sp, 48]
	bl	_ZNSt10filesystem7__cxx118__detail17__effective_rangeIcSt11char_traitsIcESaIcEEESt17basic_string_viewIT_T0_ERKNSt7__cxx1112basic_stringIS7_S8_T1_EE
	stp	x0, x1, [sp, 88]
	add	x0, sp, 88
	bl	_ZNSt10filesystem7__cxx114path10_S_convertISt17basic_string_viewIcSt11char_traitsIcEEEEDaRKT_
	stp	x0, x1, [sp, 72]
	add	x0, sp, 64
	bl	_ZNSaIcEC1Ev
	add	x1, sp, 64
	add	x0, sp, 72
	mov	x2, x1
	mov	x1, x0
	mov	x0, x19
.LEHB100:
	bl	_ZNSt7__cxx1112basic_stringIcSt11char_traitsIcESaIcEEC1ISt17basic_string_viewIcS2_EvEERKT_RKS3_
.LEHE100:
	add	x0, sp, 64
	bl	_ZNSaIcED1Ev
	ldr	x0, [sp, 56]
	add	x0, x0, 32
.LEHB101:
	bl	_ZNSt10filesystem7__cxx114path5_ListC1Ev
.LEHE101:
	ldr	x0, [sp, 56]
.LEHB102:
	bl	_ZNSt10filesystem7__cxx114path14_M_split_cmptsEv
.LEHE102:
	b	.L438
.L435:
	mov	x19, x0
	add	x0, sp, 64
	bl	_ZNSaIcED1Ev
	mov	x0, x19
.LEHB103:
	bl	_Unwind_Resume
.L437:
	mov	x19, x0
	ldr	x0, [sp, 56]
	add	x0, x0, 32
	bl	_ZNSt10filesystem7__cxx114path5_ListD1Ev
	b	.L433
.L436:
	mov	x19, x0
.L433:
	ldr	x0, [sp, 56]
	bl	_ZNSt7__cxx1112basic_stringIcSt11char_traitsIcESaIcEED1Ev
	mov	x0, x19
	bl	_Unwind_Resume
.LEHE103:
.L438:
	adrp	x0, :got:__stack_chk_guard
	ldr	x0, [x0, #:got_lo12:__stack_chk_guard]
	ldr	x2, [sp, 104]
	ldr	x1, [x0]
	subs	x2, x2, x1
	mov	x1, 0
	beq	.L434
	bl	__stack_chk_fail
.L434:
	ldr	x19, [sp, 16]
	ldp	x29, x30, [sp], 112
	.cfi_restore 30
	.cfi_restore 29
	.cfi_restore 19
	.cfi_def_cfa_offset 0
	ret
	.cfi_endproc
.LFE4881:
	.section	.gcc_except_table
.LLSDA4881:
	.byte	0xff
	.byte	0xff
	.byte	0x1
	.uleb128 .LLSDACSE4881-.LLSDACSB4881
.LLSDACSB4881:
	.uleb128 .LEHB100-.LFB4881
	.uleb128 .LEHE100-.LEHB100
	.uleb128 .L435-.LFB4881
	.uleb128 0
	.uleb128 .LEHB101-.LFB4881
	.uleb128 .LEHE101-.LEHB101
	.uleb128 .L436-.LFB4881
	.uleb128 0
	.uleb128 .LEHB102-.LFB4881
	.uleb128 .LEHE102-.LEHB102
	.uleb128 .L437-.LFB4881
	.uleb128 0
	.uleb128 .LEHB103-.LFB4881
	.uleb128 .LEHE103-.LEHB103
	.uleb128 0
	.uleb128 0
.LLSDACSE4881:
	.section	.text._ZNSt10filesystem7__cxx114pathC2INSt7__cxx1112basic_stringIcSt11char_traitsIcESaIcEEES1_EERKT_NS1_6formatE,"axG",@progbits,_ZNSt10filesystem7__cxx114pathC5INSt7__cxx1112basic_stringIcSt11char_traitsIcESaIcEEES1_EERKT_NS1_6formatE,comdat
	.size	_ZNSt10filesystem7__cxx114pathC2INSt7__cxx1112basic_stringIcSt11char_traitsIcESaIcEEES1_EERKT_NS1_6formatE, .-_ZNSt10filesystem7__cxx114pathC2INSt7__cxx1112basic_stringIcSt11char_traitsIcESaIcEEES1_EERKT_NS1_6formatE
	.weak	_ZNSt10filesystem7__cxx114pathC1INSt7__cxx1112basic_stringIcSt11char_traitsIcESaIcEEES1_EERKT_NS1_6formatE
	.set	_ZNSt10filesystem7__cxx114pathC1INSt7__cxx1112basic_stringIcSt11char_traitsIcESaIcEEES1_EERKT_NS1_6formatE,_ZNSt10filesystem7__cxx114pathC2INSt7__cxx1112basic_stringIcSt11char_traitsIcESaIcEEES1_EERKT_NS1_6formatE
	.section	.text._ZNSt6vectorINSt7__cxx1112basic_stringIcSt11char_traitsIcESaIcEEESaIS5_EE9push_backERKS5_,"axG",@progbits,_ZNSt6vectorINSt7__cxx1112basic_stringIcSt11char_traitsIcESaIcEEESaIS5_EE9push_backERKS5_,comdat
	.align	2
	.weak	_ZNSt6vectorINSt7__cxx1112basic_stringIcSt11char_traitsIcESaIcEEESaIS5_EE9push_backERKS5_
	.type	_ZNSt6vectorINSt7__cxx1112basic_stringIcSt11char_traitsIcESaIcEEESaIS5_EE9push_backERKS5_, %function
_ZNSt6vectorINSt7__cxx1112basic_stringIcSt11char_traitsIcESaIcEEESaIS5_EE9push_backERKS5_:
.LFB4895:
	.cfi_startproc
	stp	x29, x30, [sp, -32]!
	.cfi_def_cfa_offset 32
	.cfi_offset 29, -32
	.cfi_offset 30, -24
	mov	x29, sp
	str	x0, [sp, 24]
	str	x1, [sp, 16]
	ldr	x0, [sp, 24]
	ldr	x1, [x0, 8]
	ldr	x0, [sp, 24]
	ldr	x0, [x0, 16]
	cmp	x1, x0
	beq	.L440
	ldr	x3, [sp, 24]
	ldr	x0, [sp, 24]
	ldr	x0, [x0, 8]
	ldr	x2, [sp, 16]
	mov	x1, x0
	mov	x0, x3
	bl	_ZNSt16allocator_traitsISaINSt7__cxx1112basic_stringIcSt11char_traitsIcESaIcEEEEE9constructIS5_JRKS5_EEEvRS6_PT_DpOT0_
	ldr	x0, [sp, 24]
	ldr	x0, [x0, 8]
	add	x1, x0, 32
	ldr	x0, [sp, 24]
	str	x1, [x0, 8]
	b	.L442
.L440:
	ldr	x0, [sp, 24]
	bl	_ZNSt6vectorINSt7__cxx1112basic_stringIcSt11char_traitsIcESaIcEEESaIS5_EE3endEv
	ldr	x2, [sp, 16]
	mov	x1, x0
	ldr	x0, [sp, 24]
	bl	_ZNSt6vectorINSt7__cxx1112basic_stringIcSt11char_traitsIcESaIcEEESaIS5_EE17_M_realloc_insertIJRKS5_EEEvN9__gnu_cxx17__normal_iteratorIPS5_S7_EEDpOT_
.L442:
	nop
	ldp	x29, x30, [sp], 32
	.cfi_restore 30
	.cfi_restore 29
	.cfi_def_cfa_offset 0
	ret
	.cfi_endproc
.LFE4895:
	.size	_ZNSt6vectorINSt7__cxx1112basic_stringIcSt11char_traitsIcESaIcEEESaIS5_EE9push_backERKS5_, .-_ZNSt6vectorINSt7__cxx1112basic_stringIcSt11char_traitsIcESaIcEEESaIS5_EE9push_backERKS5_
	.section	.text._ZSteqIcSt11char_traitsIcESaIcEEbRKNSt7__cxx1112basic_stringIT_T0_T1_EEPKS5_,"axG",@progbits,_ZSteqIcSt11char_traitsIcESaIcEEbRKNSt7__cxx1112basic_stringIT_T0_T1_EEPKS5_,comdat
	.align	2
	.weak	_ZSteqIcSt11char_traitsIcESaIcEEbRKNSt7__cxx1112basic_stringIT_T0_T1_EEPKS5_
	.type	_ZSteqIcSt11char_traitsIcESaIcEEbRKNSt7__cxx1112basic_stringIT_T0_T1_EEPKS5_, %function
_ZSteqIcSt11char_traitsIcESaIcEEbRKNSt7__cxx1112basic_stringIT_T0_T1_EEPKS5_:
.LFB4901:
	.cfi_startproc
	stp	x29, x30, [sp, -32]!
	.cfi_def_cfa_offset 32
	.cfi_offset 29, -32
	.cfi_offset 30, -24
	mov	x29, sp
	str	x0, [sp, 24]
	str	x1, [sp, 16]
	ldr	x1, [sp, 16]
	ldr	x0, [sp, 24]
	bl	_ZNKSt7__cxx1112basic_stringIcSt11char_traitsIcESaIcEE7compareEPKc
	cmp	w0, 0
	cset	w0, eq
	and	w0, w0, 255
	ldp	x29, x30, [sp], 32
	.cfi_restore 30
	.cfi_restore 29
	.cfi_def_cfa_offset 0
	ret
	.cfi_endproc
.LFE4901:
	.size	_ZSteqIcSt11char_traitsIcESaIcEEbRKNSt7__cxx1112basic_stringIT_T0_T1_EEPKS5_, .-_ZSteqIcSt11char_traitsIcESaIcEEbRKNSt7__cxx1112basic_stringIT_T0_T1_EEPKS5_
	.section	.text._ZNSt11unique_lockISt5mutexEC2ERS0_,"axG",@progbits,_ZNSt11unique_lockISt5mutexEC5ERS0_,comdat
	.align	2
	.weak	_ZNSt11unique_lockISt5mutexEC2ERS0_
	.type	_ZNSt11unique_lockISt5mutexEC2ERS0_, %function
_ZNSt11unique_lockISt5mutexEC2ERS0_:
.LFB4905:
	.cfi_startproc
	stp	x29, x30, [sp, -32]!
	.cfi_def_cfa_offset 32
	.cfi_offset 29, -32
	.cfi_offset 30, -24
	mov	x29, sp
	str	x0, [sp, 24]
	str	x1, [sp, 16]
	ldr	x0, [sp, 16]
	bl	_ZSt11__addressofISt5mutexEPT_RS1_
	mov	x1, x0
	ldr	x0, [sp, 24]
	str	x1, [x0]
	ldr	x0, [sp, 24]
	strb	wzr, [x0, 8]
	ldr	x0, [sp, 24]
	bl	_ZNSt11unique_lockISt5mutexE4lockEv
	ldr	x0, [sp, 24]
	mov	w1, 1
	strb	w1, [x0, 8]
	nop
	ldp	x29, x30, [sp], 32
	.cfi_restore 30
	.cfi_restore 29
	.cfi_def_cfa_offset 0
	ret
	.cfi_endproc
.LFE4905:
	.size	_ZNSt11unique_lockISt5mutexEC2ERS0_, .-_ZNSt11unique_lockISt5mutexEC2ERS0_
	.weak	_ZNSt11unique_lockISt5mutexEC1ERS0_
	.set	_ZNSt11unique_lockISt5mutexEC1ERS0_,_ZNSt11unique_lockISt5mutexEC2ERS0_
	.section	.text._ZNSt11unique_lockISt5mutexED2Ev,"axG",@progbits,_ZNSt11unique_lockISt5mutexED5Ev,comdat
	.align	2
	.weak	_ZNSt11unique_lockISt5mutexED2Ev
	.type	_ZNSt11unique_lockISt5mutexED2Ev, %function
_ZNSt11unique_lockISt5mutexED2Ev:
.LFB4908:
	.cfi_startproc
	.cfi_personality 0x9b,DW.ref.__gxx_personality_v0
	.cfi_lsda 0x1b,.LLSDA4908
	stp	x29, x30, [sp, -32]!
	.cfi_def_cfa_offset 32
	.cfi_offset 29, -32
	.cfi_offset 30, -24
	mov	x29, sp
	str	x0, [sp, 24]
	ldr	x0, [sp, 24]
	ldrb	w0, [x0, 8]
	cmp	w0, 0
	beq	.L448
	ldr	x0, [sp, 24]
	bl	_ZNSt11unique_lockISt5mutexE6unlockEv
.L448:
	nop
	ldp	x29, x30, [sp], 32
	.cfi_restore 30
	.cfi_restore 29
	.cfi_def_cfa_offset 0
	ret
	.cfi_endproc
.LFE4908:
	.section	.gcc_except_table
.LLSDA4908:
	.byte	0xff
	.byte	0xff
	.byte	0x1
	.uleb128 .LLSDACSE4908-.LLSDACSB4908
.LLSDACSB4908:
.LLSDACSE4908:
	.section	.text._ZNSt11unique_lockISt5mutexED2Ev,"axG",@progbits,_ZNSt11unique_lockISt5mutexED5Ev,comdat
	.size	_ZNSt11unique_lockISt5mutexED2Ev, .-_ZNSt11unique_lockISt5mutexED2Ev
	.weak	_ZNSt11unique_lockISt5mutexED1Ev
	.set	_ZNSt11unique_lockISt5mutexED1Ev,_ZNSt11unique_lockISt5mutexED2Ev
	.section	.text._ZNSt3mapINSt7__cxx1112basic_stringIcSt11char_traitsIcESaIcEEES5_St4lessIS5_ESaISt4pairIKS5_S5_EEE4findERS9_,"axG",@progbits,_ZNSt3mapINSt7__cxx1112basic_stringIcSt11char_traitsIcESaIcEEES5_St4lessIS5_ESaISt4pairIKS5_S5_EEE4findERS9_,comdat
	.align	2
	.weak	_ZNSt3mapINSt7__cxx1112basic_stringIcSt11char_traitsIcESaIcEEES5_St4lessIS5_ESaISt4pairIKS5_S5_EEE4findERS9_
	.type	_ZNSt3mapINSt7__cxx1112basic_stringIcSt11char_traitsIcESaIcEEES5_St4lessIS5_ESaISt4pairIKS5_S5_EEE4findERS9_, %function
_ZNSt3mapINSt7__cxx1112basic_stringIcSt11char_traitsIcESaIcEEES5_St4lessIS5_ESaISt4pairIKS5_S5_EEE4findERS9_:
.LFB4910:
	.cfi_startproc
	stp	x29, x30, [sp, -32]!
	.cfi_def_cfa_offset 32
	.cfi_offset 29, -32
	.cfi_offset 30, -24
	mov	x29, sp
	str	x0, [sp, 24]
	str	x1, [sp, 16]
	ldr	x0, [sp, 24]
	ldr	x1, [sp, 16]
	bl	_ZNSt8_Rb_treeINSt7__cxx1112basic_stringIcSt11char_traitsIcESaIcEEESt4pairIKS5_S5_ESt10_Select1stIS8_ESt4lessIS5_ESaIS8_EE4findERS7_
	ldp	x29, x30, [sp], 32
	.cfi_restore 30
	.cfi_restore 29
	.cfi_def_cfa_offset 0
	ret
	.cfi_endproc
.LFE4910:
	.size	_ZNSt3mapINSt7__cxx1112basic_stringIcSt11char_traitsIcESaIcEEES5_St4lessIS5_ESaISt4pairIKS5_S5_EEE4findERS9_, .-_ZNSt3mapINSt7__cxx1112basic_stringIcSt11char_traitsIcESaIcEEES5_St4lessIS5_ESaISt4pairIKS5_S5_EEE4findERS9_
	.section	.text._ZNSt3mapINSt7__cxx1112basic_stringIcSt11char_traitsIcESaIcEEES5_St4lessIS5_ESaISt4pairIKS5_S5_EEE3endEv,"axG",@progbits,_ZNSt3mapINSt7__cxx1112basic_stringIcSt11char_traitsIcESaIcEEES5_St4lessIS5_ESaISt4pairIKS5_S5_EEE3endEv,comdat
	.align	2
	.weak	_ZNSt3mapINSt7__cxx1112basic_stringIcSt11char_traitsIcESaIcEEES5_St4lessIS5_ESaISt4pairIKS5_S5_EEE3endEv
	.type	_ZNSt3mapINSt7__cxx1112basic_stringIcSt11char_traitsIcESaIcEEES5_St4lessIS5_ESaISt4pairIKS5_S5_EEE3endEv, %function
_ZNSt3mapINSt7__cxx1112basic_stringIcSt11char_traitsIcESaIcEEES5_St4lessIS5_ESaISt4pairIKS5_S5_EEE3endEv:
.LFB4911:
	.cfi_startproc
	stp	x29, x30, [sp, -32]!
	.cfi_def_cfa_offset 32
	.cfi_offset 29, -32
	.cfi_offset 30, -24
	mov	x29, sp
	str	x0, [sp, 24]
	ldr	x0, [sp, 24]
	bl	_ZNSt8_Rb_treeINSt7__cxx1112basic_stringIcSt11char_traitsIcESaIcEEESt4pairIKS5_S5_ESt10_Select1stIS8_ESt4lessIS5_ESaIS8_EE3endEv
	ldp	x29, x30, [sp], 32
	.cfi_restore 30
	.cfi_restore 29
	.cfi_def_cfa_offset 0
	ret
	.cfi_endproc
.LFE4911:
	.size	_ZNSt3mapINSt7__cxx1112basic_stringIcSt11char_traitsIcESaIcEEES5_St4lessIS5_ESaISt4pairIKS5_S5_EEE3endEv, .-_ZNSt3mapINSt7__cxx1112basic_stringIcSt11char_traitsIcESaIcEEES5_St4lessIS5_ESaISt4pairIKS5_S5_EEE3endEv
	.section	.text._ZStneRKSt17_Rb_tree_iteratorISt4pairIKNSt7__cxx1112basic_stringIcSt11char_traitsIcESaIcEEES6_EESB_,"axG",@progbits,_ZStneRKSt17_Rb_tree_iteratorISt4pairIKNSt7__cxx1112basic_stringIcSt11char_traitsIcESaIcEEES6_EESB_,comdat
	.align	2
	.weak	_ZStneRKSt17_Rb_tree_iteratorISt4pairIKNSt7__cxx1112basic_stringIcSt11char_traitsIcESaIcEEES6_EESB_
	.type	_ZStneRKSt17_Rb_tree_iteratorISt4pairIKNSt7__cxx1112basic_stringIcSt11char_traitsIcESaIcEEES6_EESB_, %function
_ZStneRKSt17_Rb_tree_iteratorISt4pairIKNSt7__cxx1112basic_stringIcSt11char_traitsIcESaIcEEES6_EESB_:
.LFB4912:
	.cfi_startproc
	sub	sp, sp, #16
	.cfi_def_cfa_offset 16
	str	x0, [sp, 8]
	str	x1, [sp]
	ldr	x0, [sp, 8]
	ldr	x1, [x0]
	ldr	x0, [sp]
	ldr	x0, [x0]
	cmp	x1, x0
	cset	w0, ne
	and	w0, w0, 255
	add	sp, sp, 16
	.cfi_def_cfa_offset 0
	ret
	.cfi_endproc
.LFE4912:
	.size	_ZStneRKSt17_Rb_tree_iteratorISt4pairIKNSt7__cxx1112basic_stringIcSt11char_traitsIcESaIcEEES6_EESB_, .-_ZStneRKSt17_Rb_tree_iteratorISt4pairIKNSt7__cxx1112basic_stringIcSt11char_traitsIcESaIcEEES6_EESB_
	.section	.text._ZNKSt17_Rb_tree_iteratorISt4pairIKNSt7__cxx1112basic_stringIcSt11char_traitsIcESaIcEEES6_EEptEv,"axG",@progbits,_ZNKSt17_Rb_tree_iteratorISt4pairIKNSt7__cxx1112basic_stringIcSt11char_traitsIcESaIcEEES6_EEptEv,comdat
	.align	2
	.weak	_ZNKSt17_Rb_tree_iteratorISt4pairIKNSt7__cxx1112basic_stringIcSt11char_traitsIcESaIcEEES6_EEptEv
	.type	_ZNKSt17_Rb_tree_iteratorISt4pairIKNSt7__cxx1112basic_stringIcSt11char_traitsIcESaIcEEES6_EEptEv, %function
_ZNKSt17_Rb_tree_iteratorISt4pairIKNSt7__cxx1112basic_stringIcSt11char_traitsIcESaIcEEES6_EEptEv:
.LFB4913:
	.cfi_startproc
	stp	x29, x30, [sp, -32]!
	.cfi_def_cfa_offset 32
	.cfi_offset 29, -32
	.cfi_offset 30, -24
	mov	x29, sp
	str	x0, [sp, 24]
	ldr	x0, [sp, 24]
	ldr	x0, [x0]
	bl	_ZNSt13_Rb_tree_nodeISt4pairIKNSt7__cxx1112basic_stringIcSt11char_traitsIcESaIcEEES6_EE9_M_valptrEv
	ldp	x29, x30, [sp], 32
	.cfi_restore 30
	.cfi_restore 29
	.cfi_def_cfa_offset 0
	ret
	.cfi_endproc
.LFE4913:
	.size	_ZNKSt17_Rb_tree_iteratorISt4pairIKNSt7__cxx1112basic_stringIcSt11char_traitsIcESaIcEEES6_EEptEv, .-_ZNKSt17_Rb_tree_iteratorISt4pairIKNSt7__cxx1112basic_stringIcSt11char_traitsIcESaIcEEES6_EEptEv
	.section	.text._ZNSt6vectorINSt7__cxx1112basic_stringIcSt11char_traitsIcESaIcEEESaIS5_EE5beginEv,"axG",@progbits,_ZNSt6vectorINSt7__cxx1112basic_stringIcSt11char_traitsIcESaIcEEESaIS5_EE5beginEv,comdat
	.align	2
	.weak	_ZNSt6vectorINSt7__cxx1112basic_stringIcSt11char_traitsIcESaIcEEESaIS5_EE5beginEv
	.type	_ZNSt6vectorINSt7__cxx1112basic_stringIcSt11char_traitsIcESaIcEEESaIS5_EE5beginEv, %function
_ZNSt6vectorINSt7__cxx1112basic_stringIcSt11char_traitsIcESaIcEEESaIS5_EE5beginEv:
.LFB4914:
	.cfi_startproc
	stp	x29, x30, [sp, -48]!
	.cfi_def_cfa_offset 48
	.cfi_offset 29, -48
	.cfi_offset 30, -40
	mov	x29, sp
	str	x0, [sp, 24]
	adrp	x0, :got:__stack_chk_guard
	ldr	x0, [x0, #:got_lo12:__stack_chk_guard]
	ldr	x1, [x0]
	str	x1, [sp, 40]
	mov	x1, 0
	ldr	x1, [sp, 24]
	add	x0, sp, 32
	bl	_ZN9__gnu_cxx17__normal_iteratorIPNSt7__cxx1112basic_stringIcSt11char_traitsIcESaIcEEESt6vectorIS6_SaIS6_EEEC1ERKS7_
	ldr	x0, [sp, 32]
	mov	x1, x0
	adrp	x0, :got:__stack_chk_guard
	ldr	x0, [x0, #:got_lo12:__stack_chk_guard]
	ldr	x3, [sp, 40]
	ldr	x2, [x0]
	subs	x3, x3, x2
	mov	x2, 0
	beq	.L459
	bl	__stack_chk_fail
.L459:
	mov	x0, x1
	ldp	x29, x30, [sp], 48
	.cfi_restore 30
	.cfi_restore 29
	.cfi_def_cfa_offset 0
	ret
	.cfi_endproc
.LFE4914:
	.size	_ZNSt6vectorINSt7__cxx1112basic_stringIcSt11char_traitsIcESaIcEEESaIS5_EE5beginEv, .-_ZNSt6vectorINSt7__cxx1112basic_stringIcSt11char_traitsIcESaIcEEESaIS5_EE5beginEv
	.section	.text._ZNSt6vectorINSt7__cxx1112basic_stringIcSt11char_traitsIcESaIcEEESaIS5_EE3endEv,"axG",@progbits,_ZNSt6vectorINSt7__cxx1112basic_stringIcSt11char_traitsIcESaIcEEESaIS5_EE3endEv,comdat
	.align	2
	.weak	_ZNSt6vectorINSt7__cxx1112basic_stringIcSt11char_traitsIcESaIcEEESaIS5_EE3endEv
	.type	_ZNSt6vectorINSt7__cxx1112basic_stringIcSt11char_traitsIcESaIcEEESaIS5_EE3endEv, %function
_ZNSt6vectorINSt7__cxx1112basic_stringIcSt11char_traitsIcESaIcEEESaIS5_EE3endEv:
.LFB4915:
	.cfi_startproc
	stp	x29, x30, [sp, -48]!
	.cfi_def_cfa_offset 48
	.cfi_offset 29, -48
	.cfi_offset 30, -40
	mov	x29, sp
	str	x0, [sp, 24]
	adrp	x0, :got:__stack_chk_guard
	ldr	x0, [x0, #:got_lo12:__stack_chk_guard]
	ldr	x1, [x0]
	str	x1, [sp, 40]
	mov	x1, 0
	ldr	x0, [sp, 24]
	add	x1, x0, 8
	add	x0, sp, 32
	bl	_ZN9__gnu_cxx17__normal_iteratorIPNSt7__cxx1112basic_stringIcSt11char_traitsIcESaIcEEESt6vectorIS6_SaIS6_EEEC1ERKS7_
	ldr	x0, [sp, 32]
	mov	x1, x0
	adrp	x0, :got:__stack_chk_guard
	ldr	x0, [x0, #:got_lo12:__stack_chk_guard]
	ldr	x3, [sp, 40]
	ldr	x2, [x0]
	subs	x3, x3, x2
	mov	x2, 0
	beq	.L462
	bl	__stack_chk_fail
.L462:
	mov	x0, x1
	ldp	x29, x30, [sp], 48
	.cfi_restore 30
	.cfi_restore 29
	.cfi_def_cfa_offset 0
	ret
	.cfi_endproc
.LFE4915:
	.size	_ZNSt6vectorINSt7__cxx1112basic_stringIcSt11char_traitsIcESaIcEEESaIS5_EE3endEv, .-_ZNSt6vectorINSt7__cxx1112basic_stringIcSt11char_traitsIcESaIcEEESaIS5_EE3endEv
	.section	.text._ZN9__gnu_cxxneIPNSt7__cxx1112basic_stringIcSt11char_traitsIcESaIcEEESt6vectorIS6_SaIS6_EEEEbRKNS_17__normal_iteratorIT_T0_EESG_,"axG",@progbits,_ZN9__gnu_cxxneIPNSt7__cxx1112basic_stringIcSt11char_traitsIcESaIcEEESt6vectorIS6_SaIS6_EEEEbRKNS_17__normal_iteratorIT_T0_EESG_,comdat
	.align	2
	.weak	_ZN9__gnu_cxxneIPNSt7__cxx1112basic_stringIcSt11char_traitsIcESaIcEEESt6vectorIS6_SaIS6_EEEEbRKNS_17__normal_iteratorIT_T0_EESG_
	.type	_ZN9__gnu_cxxneIPNSt7__cxx1112basic_stringIcSt11char_traitsIcESaIcEEESt6vectorIS6_SaIS6_EEEEbRKNS_17__normal_iteratorIT_T0_EESG_, %function
_ZN9__gnu_cxxneIPNSt7__cxx1112basic_stringIcSt11char_traitsIcESaIcEEESt6vectorIS6_SaIS6_EEEEbRKNS_17__normal_iteratorIT_T0_EESG_:
.LFB4916:
	.cfi_startproc
	stp	x29, x30, [sp, -48]!
	.cfi_def_cfa_offset 48
	.cfi_offset 29, -48
	.cfi_offset 30, -40
	mov	x29, sp
	str	x19, [sp, 16]
	.cfi_offset 19, -32
	str	x0, [sp, 40]
	str	x1, [sp, 32]
	ldr	x0, [sp, 40]
	bl	_ZNK9__gnu_cxx17__normal_iteratorIPNSt7__cxx1112basic_stringIcSt11char_traitsIcESaIcEEESt6vectorIS6_SaIS6_EEE4baseEv
	ldr	x19, [x0]
	ldr	x0, [sp, 32]
	bl	_ZNK9__gnu_cxx17__normal_iteratorIPNSt7__cxx1112basic_stringIcSt11char_traitsIcESaIcEEESt6vectorIS6_SaIS6_EEE4baseEv
	ldr	x0, [x0]
	cmp	x19, x0
	cset	w0, ne
	and	w0, w0, 255
	ldr	x19, [sp, 16]
	ldp	x29, x30, [sp], 48
	.cfi_restore 30
	.cfi_restore 29
	.cfi_restore 19
	.cfi_def_cfa_offset 0
	ret
	.cfi_endproc
.LFE4916:
	.size	_ZN9__gnu_cxxneIPNSt7__cxx1112basic_stringIcSt11char_traitsIcESaIcEEESt6vectorIS6_SaIS6_EEEEbRKNS_17__normal_iteratorIT_T0_EESG_, .-_ZN9__gnu_cxxneIPNSt7__cxx1112basic_stringIcSt11char_traitsIcESaIcEEESt6vectorIS6_SaIS6_EEEEbRKNS_17__normal_iteratorIT_T0_EESG_
	.section	.text._ZN9__gnu_cxx17__normal_iteratorIPNSt7__cxx1112basic_stringIcSt11char_traitsIcESaIcEEESt6vectorIS6_SaIS6_EEEppEv,"axG",@progbits,_ZN9__gnu_cxx17__normal_iteratorIPNSt7__cxx1112basic_stringIcSt11char_traitsIcESaIcEEESt6vectorIS6_SaIS6_EEEppEv,comdat
	.align	2
	.weak	_ZN9__gnu_cxx17__normal_iteratorIPNSt7__cxx1112basic_stringIcSt11char_traitsIcESaIcEEESt6vectorIS6_SaIS6_EEEppEv
	.type	_ZN9__gnu_cxx17__normal_iteratorIPNSt7__cxx1112basic_stringIcSt11char_traitsIcESaIcEEESt6vectorIS6_SaIS6_EEEppEv, %function
_ZN9__gnu_cxx17__normal_iteratorIPNSt7__cxx1112basic_stringIcSt11char_traitsIcESaIcEEESt6vectorIS6_SaIS6_EEEppEv:
.LFB4917:
	.cfi_startproc
	sub	sp, sp, #16
	.cfi_def_cfa_offset 16
	str	x0, [sp, 8]
	ldr	x0, [sp, 8]
	ldr	x0, [x0]
	add	x1, x0, 32
	ldr	x0, [sp, 8]
	str	x1, [x0]
	ldr	x0, [sp, 8]
	add	sp, sp, 16
	.cfi_def_cfa_offset 0
	ret
	.cfi_endproc
.LFE4917:
	.size	_ZN9__gnu_cxx17__normal_iteratorIPNSt7__cxx1112basic_stringIcSt11char_traitsIcESaIcEEESt6vectorIS6_SaIS6_EEEppEv, .-_ZN9__gnu_cxx17__normal_iteratorIPNSt7__cxx1112basic_stringIcSt11char_traitsIcESaIcEEESt6vectorIS6_SaIS6_EEEppEv
	.section	.text._ZNK9__gnu_cxx17__normal_iteratorIPNSt7__cxx1112basic_stringIcSt11char_traitsIcESaIcEEESt6vectorIS6_SaIS6_EEEdeEv,"axG",@progbits,_ZNK9__gnu_cxx17__normal_iteratorIPNSt7__cxx1112basic_stringIcSt11char_traitsIcESaIcEEESt6vectorIS6_SaIS6_EEEdeEv,comdat
	.align	2
	.weak	_ZNK9__gnu_cxx17__normal_iteratorIPNSt7__cxx1112basic_stringIcSt11char_traitsIcESaIcEEESt6vectorIS6_SaIS6_EEEdeEv
	.type	_ZNK9__gnu_cxx17__normal_iteratorIPNSt7__cxx1112basic_stringIcSt11char_traitsIcESaIcEEESt6vectorIS6_SaIS6_EEEdeEv, %function
_ZNK9__gnu_cxx17__normal_iteratorIPNSt7__cxx1112basic_stringIcSt11char_traitsIcESaIcEEESt6vectorIS6_SaIS6_EEEdeEv:
.LFB4918:
	.cfi_startproc
	sub	sp, sp, #16
	.cfi_def_cfa_offset 16
	str	x0, [sp, 8]
	ldr	x0, [sp, 8]
	ldr	x0, [x0]
	add	sp, sp, 16
	.cfi_def_cfa_offset 0
	ret
	.cfi_endproc
.LFE4918:
	.size	_ZNK9__gnu_cxx17__normal_iteratorIPNSt7__cxx1112basic_stringIcSt11char_traitsIcESaIcEEESt6vectorIS6_SaIS6_EEEdeEv, .-_ZNK9__gnu_cxx17__normal_iteratorIPNSt7__cxx1112basic_stringIcSt11char_traitsIcESaIcEEESt6vectorIS6_SaIS6_EEEdeEv
	.section	.text._ZNSt3mapINSt7__cxx1112basic_stringIcSt11char_traitsIcESaIcEEES5_St4lessIS5_ESaISt4pairIKS5_S5_EEEixERS9_,"axG",@progbits,_ZNSt3mapINSt7__cxx1112basic_stringIcSt11char_traitsIcESaIcEEES5_St4lessIS5_ESaISt4pairIKS5_S5_EEEixERS9_,comdat
	.align	2
	.weak	_ZNSt3mapINSt7__cxx1112basic_stringIcSt11char_traitsIcESaIcEEES5_St4lessIS5_ESaISt4pairIKS5_S5_EEEixERS9_
	.type	_ZNSt3mapINSt7__cxx1112basic_stringIcSt11char_traitsIcESaIcEEES5_St4lessIS5_ESaISt4pairIKS5_S5_EEEixERS9_, %function
_ZNSt3mapINSt7__cxx1112basic_stringIcSt11char_traitsIcESaIcEEES5_St4lessIS5_ESaISt4pairIKS5_S5_EEEixERS9_:
.LFB4919:
	.cfi_startproc
	stp	x29, x30, [sp, -96]!
	.cfi_def_cfa_offset 96
	.cfi_offset 29, -96
	.cfi_offset 30, -88
	mov	x29, sp
	str	x19, [sp, 16]
	.cfi_offset 19, -80
	str	x0, [sp, 40]
	str	x1, [sp, 32]
	adrp	x0, :got:__stack_chk_guard
	ldr	x0, [x0, #:got_lo12:__stack_chk_guard]
	ldr	x1, [x0]
	str	x1, [sp, 88]
	mov	x1, 0
	ldr	x1, [sp, 32]
	ldr	x0, [sp, 40]
	bl	_ZNSt3mapINSt7__cxx1112basic_stringIcSt11char_traitsIcESaIcEEES5_St4lessIS5_ESaISt4pairIKS5_S5_EEE11lower_boundERS9_
	str	x0, [sp, 64]
	ldr	x0, [sp, 40]
	bl	_ZNSt3mapINSt7__cxx1112basic_stringIcSt11char_traitsIcESaIcEEES5_St4lessIS5_ESaISt4pairIKS5_S5_EEE3endEv
	str	x0, [sp, 80]
	add	x1, sp, 80
	add	x0, sp, 64
	bl	_ZSteqRKSt17_Rb_tree_iteratorISt4pairIKNSt7__cxx1112basic_stringIcSt11char_traitsIcESaIcEEES6_EESB_
	and	w0, w0, 255
	cmp	w0, 0
	bne	.L470
	ldr	x0, [sp, 40]
	bl	_ZNKSt3mapINSt7__cxx1112basic_stringIcSt11char_traitsIcESaIcEEES5_St4lessIS5_ESaISt4pairIKS5_S5_EEE8key_compEv
	add	x0, sp, 64
	bl	_ZNKSt17_Rb_tree_iteratorISt4pairIKNSt7__cxx1112basic_stringIcSt11char_traitsIcESaIcEEES6_EEdeEv
	mov	x1, x0
	add	x0, sp, 72
	mov	x2, x1
	ldr	x1, [sp, 32]
	bl	_ZNKSt4lessINSt7__cxx1112basic_stringIcSt11char_traitsIcESaIcEEEEclERKS5_S8_
	and	w0, w0, 255
	cmp	w0, 0
	beq	.L471
.L470:
	mov	w0, 1
	b	.L472
.L471:
	mov	w0, 0
.L472:
	cmp	w0, 0
	beq	.L473
	ldr	x19, [sp, 40]
	add	x1, sp, 64
	add	x0, sp, 80
	bl	_ZNSt23_Rb_tree_const_iteratorISt4pairIKNSt7__cxx1112basic_stringIcSt11char_traitsIcESaIcEEES6_EEC1ERKSt17_Rb_tree_iteratorIS8_E
	add	x0, sp, 72
	ldr	x1, [sp, 32]
	bl	_ZNSt5tupleIJRKNSt7__cxx1112basic_stringIcSt11char_traitsIcESaIcEEEEEC1ILb1ELb1EEES7_
	add	x1, sp, 56
	add	x0, sp, 72
	mov	x4, x1
	mov	x3, x0
	adrp	x0, _ZSt19piecewise_construct
	add	x2, x0, :lo12:_ZSt19piecewise_construct
	ldr	x1, [sp, 80]
	mov	x0, x19
	bl	_ZNSt8_Rb_treeINSt7__cxx1112basic_stringIcSt11char_traitsIcESaIcEEESt4pairIKS5_S5_ESt10_Select1stIS8_ESt4lessIS5_ESaIS8_EE22_M_emplace_hint_uniqueIJRKSt21piecewise_construct_tSt5tupleIJRS7_EESJ_IJEEEEESt17_Rb_tree_iteratorIS8_ESt23_Rb_tree_const_iteratorIS8_EDpOT_
	str	x0, [sp, 64]
.L473:
	add	x0, sp, 64
	bl	_ZNKSt17_Rb_tree_iteratorISt4pairIKNSt7__cxx1112basic_stringIcSt11char_traitsIcESaIcEEES6_EEdeEv
	add	x0, x0, 32
	mov	x1, x0
	adrp	x0, :got:__stack_chk_guard
	ldr	x0, [x0, #:got_lo12:__stack_chk_guard]
	ldr	x3, [sp, 88]
	ldr	x2, [x0]
	subs	x3, x3, x2
	mov	x2, 0
	beq	.L475
	bl	__stack_chk_fail
.L475:
	mov	x0, x1
	ldr	x19, [sp, 16]
	ldp	x29, x30, [sp], 96
	.cfi_restore 30
	.cfi_restore 29
	.cfi_restore 19
	.cfi_def_cfa_offset 0
	ret
	.cfi_endproc
.LFE4919:
	.size	_ZNSt3mapINSt7__cxx1112basic_stringIcSt11char_traitsIcESaIcEEES5_St4lessIS5_ESaISt4pairIKS5_S5_EEEixERS9_, .-_ZNSt3mapINSt7__cxx1112basic_stringIcSt11char_traitsIcESaIcEEES5_St4lessIS5_ESaISt4pairIKS5_S5_EEEixERS9_
	.section	.text._ZStneIcSt11char_traitsIcESaIcEEbRKNSt7__cxx1112basic_stringIT_T0_T1_EEPKS5_,"axG",@progbits,_ZStneIcSt11char_traitsIcESaIcEEbRKNSt7__cxx1112basic_stringIT_T0_T1_EEPKS5_,comdat
	.align	2
	.weak	_ZStneIcSt11char_traitsIcESaIcEEbRKNSt7__cxx1112basic_stringIT_T0_T1_EEPKS5_
	.type	_ZStneIcSt11char_traitsIcESaIcEEbRKNSt7__cxx1112basic_stringIT_T0_T1_EEPKS5_, %function
_ZStneIcSt11char_traitsIcESaIcEEbRKNSt7__cxx1112basic_stringIT_T0_T1_EEPKS5_:
.LFB4926:
	.cfi_startproc
	stp	x29, x30, [sp, -32]!
	.cfi_def_cfa_offset 32
	.cfi_offset 29, -32
	.cfi_offset 30, -24
	mov	x29, sp
	str	x0, [sp, 24]
	str	x1, [sp, 16]
	ldr	x1, [sp, 16]
	ldr	x0, [sp, 24]
	bl	_ZSteqIcSt11char_traitsIcESaIcEEbRKNSt7__cxx1112basic_stringIT_T0_T1_EEPKS5_
	and	w0, w0, 255
	eor	w0, w0, 1
	and	w0, w0, 255
	ldp	x29, x30, [sp], 32
	.cfi_restore 30
	.cfi_restore 29
	.cfi_def_cfa_offset 0
	ret
	.cfi_endproc
.LFE4926:
	.size	_ZStneIcSt11char_traitsIcESaIcEEbRKNSt7__cxx1112basic_stringIT_T0_T1_EEPKS5_, .-_ZStneIcSt11char_traitsIcESaIcEEbRKNSt7__cxx1112basic_stringIT_T0_T1_EEPKS5_
	.section	.text._ZNSt3mapINSt7__cxx1112basic_stringIcSt11char_traitsIcESaIcEEES5_St4lessIS5_ESaISt4pairIKS5_S5_EEE5clearEv,"axG",@progbits,_ZNSt3mapINSt7__cxx1112basic_stringIcSt11char_traitsIcESaIcEEES5_St4lessIS5_ESaISt4pairIKS5_S5_EEE5clearEv,comdat
	.align	2
	.weak	_ZNSt3mapINSt7__cxx1112basic_stringIcSt11char_traitsIcESaIcEEES5_St4lessIS5_ESaISt4pairIKS5_S5_EEE5clearEv
	.type	_ZNSt3mapINSt7__cxx1112basic_stringIcSt11char_traitsIcESaIcEEES5_St4lessIS5_ESaISt4pairIKS5_S5_EEE5clearEv, %function
_ZNSt3mapINSt7__cxx1112basic_stringIcSt11char_traitsIcESaIcEEES5_St4lessIS5_ESaISt4pairIKS5_S5_EEE5clearEv:
.LFB4928:
	.cfi_startproc
	stp	x29, x30, [sp, -32]!
	.cfi_def_cfa_offset 32
	.cfi_offset 29, -32
	.cfi_offset 30, -24
	mov	x29, sp
	str	x0, [sp, 24]
	ldr	x0, [sp, 24]
	bl	_ZNSt8_Rb_treeINSt7__cxx1112basic_stringIcSt11char_traitsIcESaIcEEESt4pairIKS5_S5_ESt10_Select1stIS8_ESt4lessIS5_ESaIS8_EE5clearEv
	nop
	ldp	x29, x30, [sp], 32
	.cfi_restore 30
	.cfi_restore 29
	.cfi_def_cfa_offset 0
	ret
	.cfi_endproc
.LFE4928:
	.size	_ZNSt3mapINSt7__cxx1112basic_stringIcSt11char_traitsIcESaIcEEES5_St4lessIS5_ESaISt4pairIKS5_S5_EEE5clearEv, .-_ZNSt3mapINSt7__cxx1112basic_stringIcSt11char_traitsIcESaIcEEES5_St4lessIS5_ESaISt4pairIKS5_S5_EEE5clearEv
	.section	.text._ZNSt15__uniq_ptr_implINSt10filesystem7__cxx114path5_List5_ImplENS3_13_Impl_deleterEE6_M_ptrEv,"axG",@progbits,_ZNSt15__uniq_ptr_implINSt10filesystem7__cxx114path5_List5_ImplENS3_13_Impl_deleterEE6_M_ptrEv,comdat
	.align	2
	.weak	_ZNSt15__uniq_ptr_implINSt10filesystem7__cxx114path5_List5_ImplENS3_13_Impl_deleterEE6_M_ptrEv
	.type	_ZNSt15__uniq_ptr_implINSt10filesystem7__cxx114path5_List5_ImplENS3_13_Impl_deleterEE6_M_ptrEv, %function
_ZNSt15__uniq_ptr_implINSt10filesystem7__cxx114path5_List5_ImplENS3_13_Impl_deleterEE6_M_ptrEv:
.LFB5016:
	.cfi_startproc
	stp	x29, x30, [sp, -32]!
	.cfi_def_cfa_offset 32
	.cfi_offset 29, -32
	.cfi_offset 30, -24
	mov	x29, sp
	str	x0, [sp, 24]
	ldr	x0, [sp, 24]
	bl	_ZSt3getILm0EJPNSt10filesystem7__cxx114path5_List5_ImplENS3_13_Impl_deleterEEERNSt13tuple_elementIXT_ESt5tupleIJDpT0_EEE4typeERSB_
	ldp	x29, x30, [sp], 32
	.cfi_restore 30
	.cfi_restore 29
	.cfi_def_cfa_offset 0
	ret
	.cfi_endproc
.LFE5016:
	.size	_ZNSt15__uniq_ptr_implINSt10filesystem7__cxx114path5_List5_ImplENS3_13_Impl_deleterEE6_M_ptrEv, .-_ZNSt15__uniq_ptr_implINSt10filesystem7__cxx114path5_List5_ImplENS3_13_Impl_deleterEE6_M_ptrEv
	.section	.text._ZNSt10unique_ptrINSt10filesystem7__cxx114path5_List5_ImplENS3_13_Impl_deleterEE11get_deleterEv,"axG",@progbits,_ZNSt10unique_ptrINSt10filesystem7__cxx114path5_List5_ImplENS3_13_Impl_deleterEE11get_deleterEv,comdat
	.align	2
	.weak	_ZNSt10unique_ptrINSt10filesystem7__cxx114path5_List5_ImplENS3_13_Impl_deleterEE11get_deleterEv
	.type	_ZNSt10unique_ptrINSt10filesystem7__cxx114path5_List5_ImplENS3_13_Impl_deleterEE11get_deleterEv, %function
_ZNSt10unique_ptrINSt10filesystem7__cxx114path5_List5_ImplENS3_13_Impl_deleterEE11get_deleterEv:
.LFB5017:
	.cfi_startproc
	stp	x29, x30, [sp, -32]!
	.cfi_def_cfa_offset 32
	.cfi_offset 29, -32
	.cfi_offset 30, -24
	mov	x29, sp
	str	x0, [sp, 24]
	ldr	x0, [sp, 24]
	bl	_ZNSt15__uniq_ptr_implINSt10filesystem7__cxx114path5_List5_ImplENS3_13_Impl_deleterEE10_M_deleterEv
	ldp	x29, x30, [sp], 32
	.cfi_restore 30
	.cfi_restore 29
	.cfi_def_cfa_offset 0
	ret
	.cfi_endproc
.LFE5017:
	.size	_ZNSt10unique_ptrINSt10filesystem7__cxx114path5_List5_ImplENS3_13_Impl_deleterEE11get_deleterEv, .-_ZNSt10unique_ptrINSt10filesystem7__cxx114path5_List5_ImplENS3_13_Impl_deleterEE11get_deleterEv
	.section	.text._ZSt4moveIRPNSt10filesystem7__cxx114path5_List5_ImplEEONSt16remove_referenceIT_E4typeEOS8_,"axG",@progbits,_ZSt4moveIRPNSt10filesystem7__cxx114path5_List5_ImplEEONSt16remove_referenceIT_E4typeEOS8_,comdat
	.align	2
	.weak	_ZSt4moveIRPNSt10filesystem7__cxx114path5_List5_ImplEEONSt16remove_referenceIT_E4typeEOS8_
	.type	_ZSt4moveIRPNSt10filesystem7__cxx114path5_List5_ImplEEONSt16remove_referenceIT_E4typeEOS8_, %function
_ZSt4moveIRPNSt10filesystem7__cxx114path5_List5_ImplEEONSt16remove_referenceIT_E4typeEOS8_:
.LFB5018:
	.cfi_startproc
	sub	sp, sp, #16
	.cfi_def_cfa_offset 16
	str	x0, [sp, 8]
	ldr	x0, [sp, 8]
	add	sp, sp, 16
	.cfi_def_cfa_offset 0
	ret
	.cfi_endproc
.LFE5018:
	.size	_ZSt4moveIRPNSt10filesystem7__cxx114path5_List5_ImplEEONSt16remove_referenceIT_E4typeEOS8_, .-_ZSt4moveIRPNSt10filesystem7__cxx114path5_List5_ImplEEONSt16remove_referenceIT_E4typeEOS8_
	.section	.text._ZSt8distanceIPKcENSt15iterator_traitsIT_E15difference_typeES3_S3_,"axG",@progbits,_ZSt8distanceIPKcENSt15iterator_traitsIT_E15difference_typeES3_S3_,comdat
	.align	2
	.weak	_ZSt8distanceIPKcENSt15iterator_traitsIT_E15difference_typeES3_S3_
	.type	_ZSt8distanceIPKcENSt15iterator_traitsIT_E15difference_typeES3_S3_, %function
_ZSt8distanceIPKcENSt15iterator_traitsIT_E15difference_typeES3_S3_:
.LFB5036:
	.cfi_startproc
	stp	x29, x30, [sp, -48]!
	.cfi_def_cfa_offset 48
	.cfi_offset 29, -48
	.cfi_offset 30, -40
	mov	x29, sp
	stp	x19, x20, [sp, 16]
	.cfi_offset 19, -32
	.cfi_offset 20, -24
	str	x0, [sp, 40]
	str	x1, [sp, 32]
	ldr	x19, [sp, 40]
	add	x0, sp, 40
	bl	_ZSt19__iterator_categoryIPKcENSt15iterator_traitsIT_E17iterator_categoryERKS3_
	mov	w2, w20
	ldr	x1, [sp, 32]
	mov	x0, x19
	bl	_ZSt10__distanceIPKcENSt15iterator_traitsIT_E15difference_typeES3_S3_St26random_access_iterator_tag
	ldp	x19, x20, [sp, 16]
	ldp	x29, x30, [sp], 48
	.cfi_restore 30
	.cfi_restore 29
	.cfi_restore 19
	.cfi_restore 20
	.cfi_def_cfa_offset 0
	ret
	.cfi_endproc
.LFE5036:
	.size	_ZSt8distanceIPKcENSt15iterator_traitsIT_E15difference_typeES3_S3_, .-_ZSt8distanceIPKcENSt15iterator_traitsIT_E15difference_typeES3_S3_
	.section	.rodata
	.align	3
.LC9:
	.string	"basic_string::_M_construct null not valid"
	.section	.text._ZNSt7__cxx1112basic_stringIcSt11char_traitsIcESaIcEE12_M_constructIPKcEEvT_S8_St20forward_iterator_tag,"axG",@progbits,_ZNSt7__cxx1112basic_stringIcSt11char_traitsIcESaIcEE12_M_constructIPKcEEvT_S8_St20forward_iterator_tag,comdat
	.align	2
	.weak	_ZNSt7__cxx1112basic_stringIcSt11char_traitsIcESaIcEE12_M_constructIPKcEEvT_S8_St20forward_iterator_tag
	.type	_ZNSt7__cxx1112basic_stringIcSt11char_traitsIcESaIcEE12_M_constructIPKcEEvT_S8_St20forward_iterator_tag, %function
_ZNSt7__cxx1112basic_stringIcSt11char_traitsIcESaIcEE12_M_constructIPKcEEvT_S8_St20forward_iterator_tag:
.LFB5035:
	.cfi_startproc
	.cfi_personality 0x9b,DW.ref.__gxx_personality_v0
	.cfi_lsda 0x1b,.LLSDA5035
	stp	x29, x30, [sp, -80]!
	.cfi_def_cfa_offset 80
	.cfi_offset 29, -80
	.cfi_offset 30, -72
	mov	x29, sp
	str	x19, [sp, 16]
	.cfi_offset 19, -64
	str	x0, [sp, 56]
	str	x1, [sp, 48]
	str	x2, [sp, 40]
	strb	w3, [sp, 32]
	adrp	x0, :got:__stack_chk_guard
	ldr	x0, [x0, #:got_lo12:__stack_chk_guard]
	ldr	x1, [x0]
	str	x1, [sp, 72]
	mov	x1, 0
	ldr	x0, [sp, 48]
	bl	_ZN9__gnu_cxx17__is_null_pointerIKcEEbPT_
	and	w0, w0, 255
	cmp	w0, 0
	beq	.L488
	ldr	x1, [sp, 48]
	ldr	x0, [sp, 40]
	cmp	x1, x0
	beq	.L488
	mov	w0, 1
	b	.L489
.L488:
	mov	w0, 0
.L489:
	cmp	w0, 0
	beq	.L490
	adrp	x0, .LC9
	add	x0, x0, :lo12:.LC9
.LEHB104:
	bl	_ZSt19__throw_logic_errorPKc
.L490:
	ldr	x1, [sp, 40]
	ldr	x0, [sp, 48]
	bl	_ZSt8distanceIPKcENSt15iterator_traitsIT_E15difference_typeES3_S3_
	str	x0, [sp, 64]
	ldr	x0, [sp, 64]
	cmp	x0, 15
	bls	.L491
	add	x0, sp, 64
	mov	x2, 0
	mov	x1, x0
	ldr	x0, [sp, 56]
	bl	_ZNSt7__cxx1112basic_stringIcSt11char_traitsIcESaIcEE9_M_createERmm
	mov	x1, x0
	ldr	x0, [sp, 56]
	bl	_ZNSt7__cxx1112basic_stringIcSt11char_traitsIcESaIcEE7_M_dataEPc
	ldr	x0, [sp, 64]
	mov	x1, x0
	ldr	x0, [sp, 56]
	bl	_ZNSt7__cxx1112basic_stringIcSt11char_traitsIcESaIcEE11_M_capacityEm
.LEHE104:
.L491:
	ldr	x0, [sp, 56]
.LEHB105:
	bl	_ZNKSt7__cxx1112basic_stringIcSt11char_traitsIcESaIcEE7_M_dataEv
.LEHE105:
	ldr	x2, [sp, 40]
	ldr	x1, [sp, 48]
	bl	_ZNSt7__cxx1112basic_stringIcSt11char_traitsIcESaIcEE13_S_copy_charsEPcPKcS7_
	ldr	x0, [sp, 64]
	mov	x1, x0
	ldr	x0, [sp, 56]
.LEHB106:
	bl	_ZNSt7__cxx1112basic_stringIcSt11char_traitsIcESaIcEE13_M_set_lengthEm
.LEHE106:
	nop
	adrp	x0, :got:__stack_chk_guard
	ldr	x0, [x0, #:got_lo12:__stack_chk_guard]
	ldr	x2, [sp, 72]
	ldr	x1, [x0]
	subs	x2, x2, x1
	mov	x1, 0
	beq	.L494
	b	.L497
.L495:
	bl	__cxa_begin_catch
	ldr	x0, [sp, 56]
.LEHB107:
	bl	_ZNSt7__cxx1112basic_stringIcSt11char_traitsIcESaIcEE10_M_disposeEv
	bl	__cxa_rethrow
.LEHE107:
.L496:
	mov	x19, x0
	bl	__cxa_end_catch
	mov	x0, x19
.LEHB108:
	bl	_Unwind_Resume
.LEHE108:
.L497:
	bl	__stack_chk_fail
.L494:
	ldr	x19, [sp, 16]
	ldp	x29, x30, [sp], 80
	.cfi_restore 30
	.cfi_restore 29
	.cfi_restore 19
	.cfi_def_cfa_offset 0
	ret
	.cfi_endproc
.LFE5035:
	.section	.gcc_except_table
	.align	2
.LLSDA5035:
	.byte	0xff
	.byte	0x9b
	.uleb128 .LLSDATT5035-.LLSDATTD5035
.LLSDATTD5035:
	.byte	0x1
	.uleb128 .LLSDACSE5035-.LLSDACSB5035
.LLSDACSB5035:
	.uleb128 .LEHB104-.LFB5035
	.uleb128 .LEHE104-.LEHB104
	.uleb128 0
	.uleb128 0
	.uleb128 .LEHB105-.LFB5035
	.uleb128 .LEHE105-.LEHB105
	.uleb128 .L495-.LFB5035
	.uleb128 0x1
	.uleb128 .LEHB106-.LFB5035
	.uleb128 .LEHE106-.LEHB106
	.uleb128 0
	.uleb128 0
	.uleb128 .LEHB107-.LFB5035
	.uleb128 .LEHE107-.LEHB107
	.uleb128 .L496-.LFB5035
	.uleb128 0
	.uleb128 .LEHB108-.LFB5035
	.uleb128 .LEHE108-.LEHB108
	.uleb128 0
	.uleb128 0
.LLSDACSE5035:
	.byte	0x1
	.byte	0
	.align	2
	.4byte	0

.LLSDATT5035:
	.section	.text._ZNSt7__cxx1112basic_stringIcSt11char_traitsIcESaIcEE12_M_constructIPKcEEvT_S8_St20forward_iterator_tag,"axG",@progbits,_ZNSt7__cxx1112basic_stringIcSt11char_traitsIcESaIcEE12_M_constructIPKcEEvT_S8_St20forward_iterator_tag,comdat
	.size	_ZNSt7__cxx1112basic_stringIcSt11char_traitsIcESaIcEE12_M_constructIPKcEEvT_S8_St20forward_iterator_tag, .-_ZNSt7__cxx1112basic_stringIcSt11char_traitsIcESaIcEE12_M_constructIPKcEEvT_S8_St20forward_iterator_tag
	.section	.text._ZNSt15__uniq_ptr_implINSt10filesystem7__cxx114path5_List5_ImplENS3_13_Impl_deleterEE10_M_deleterEv,"axG",@progbits,_ZNSt15__uniq_ptr_implINSt10filesystem7__cxx114path5_List5_ImplENS3_13_Impl_deleterEE10_M_deleterEv,comdat
	.align	2
	.weak	_ZNSt15__uniq_ptr_implINSt10filesystem7__cxx114path5_List5_ImplENS3_13_Impl_deleterEE10_M_deleterEv
	.type	_ZNSt15__uniq_ptr_implINSt10filesystem7__cxx114path5_List5_ImplENS3_13_Impl_deleterEE10_M_deleterEv, %function
_ZNSt15__uniq_ptr_implINSt10filesystem7__cxx114path5_List5_ImplENS3_13_Impl_deleterEE10_M_deleterEv:
.LFB5048:
	.cfi_startproc
	stp	x29, x30, [sp, -32]!
	.cfi_def_cfa_offset 32
	.cfi_offset 29, -32
	.cfi_offset 30, -24
	mov	x29, sp
	str	x0, [sp, 24]
	ldr	x0, [sp, 24]
	bl	_ZSt3getILm1EJPNSt10filesystem7__cxx114path5_List5_ImplENS3_13_Impl_deleterEEERNSt13tuple_elementIXT_ESt5tupleIJDpT0_EEE4typeERSB_
	ldp	x29, x30, [sp], 32
	.cfi_restore 30
	.cfi_restore 29
	.cfi_def_cfa_offset 0
	ret
	.cfi_endproc
.LFE5048:
	.size	_ZNSt15__uniq_ptr_implINSt10filesystem7__cxx114path5_List5_ImplENS3_13_Impl_deleterEE10_M_deleterEv, .-_ZNSt15__uniq_ptr_implINSt10filesystem7__cxx114path5_List5_ImplENS3_13_Impl_deleterEE10_M_deleterEv
	.section	.text._ZNSt8__detail9__variant5__getIRKNS0_15_Variadic_unionIJN10subprocess10PipeOptionENSt7__cxx1112basic_stringIcSt11char_traitsIcESaIcEEEiPSiPSoP8_IO_FILEEEEEEDcSt16in_place_index_tILm0EEOT_,"axG",@progbits,_ZNSt8__detail9__variant5__getIRKNS0_15_Variadic_unionIJN10subprocess10PipeOptionENSt7__cxx1112basic_stringIcSt11char_traitsIcESaIcEEEiPSiPSoP8_IO_FILEEEEEEDcSt16in_place_index_tILm0EEOT_,comdat
	.align	2
	.weak	_ZNSt8__detail9__variant5__getIRKNS0_15_Variadic_unionIJN10subprocess10PipeOptionENSt7__cxx1112basic_stringIcSt11char_traitsIcESaIcEEEiPSiPSoP8_IO_FILEEEEEEDcSt16in_place_index_tILm0EEOT_
	.type	_ZNSt8__detail9__variant5__getIRKNS0_15_Variadic_unionIJN10subprocess10PipeOptionENSt7__cxx1112basic_stringIcSt11char_traitsIcESaIcEEEiPSiPSoP8_IO_FILEEEEEEDcSt16in_place_index_tILm0EEOT_, %function
_ZNSt8__detail9__variant5__getIRKNS0_15_Variadic_unionIJN10subprocess10PipeOptionENSt7__cxx1112basic_stringIcSt11char_traitsIcESaIcEEEiPSiPSoP8_IO_FILEEEEEEDcSt16in_place_index_tILm0EEOT_:
.LFB5098:
	.cfi_startproc
	stp	x29, x30, [sp, -32]!
	.cfi_def_cfa_offset 32
	.cfi_offset 29, -32
	.cfi_offset 30, -24
	mov	x29, sp
	strb	w0, [sp, 24]
	str	x1, [sp, 16]
	ldr	x0, [sp, 16]
	bl	_ZSt7forwardIRKNSt8__detail9__variant15_Variadic_unionIJN10subprocess10PipeOptionENSt7__cxx1112basic_stringIcSt11char_traitsIcESaIcEEEiPSiPSoP8_IO_FILEEEEEOT_RNSt16remove_referenceISI_E4typeE
	bl	_ZNKRSt8__detail9__variant14_UninitializedIN10subprocess10PipeOptionELb1EE6_M_getEv
	ldp	x29, x30, [sp], 32
	.cfi_restore 30
	.cfi_restore 29
	.cfi_def_cfa_offset 0
	ret
	.cfi_endproc
.LFE5098:
	.size	_ZNSt8__detail9__variant5__getIRKNS0_15_Variadic_unionIJN10subprocess10PipeOptionENSt7__cxx1112basic_stringIcSt11char_traitsIcESaIcEEEiPSiPSoP8_IO_FILEEEEEEDcSt16in_place_index_tILm0EEOT_, .-_ZNSt8__detail9__variant5__getIRKNS0_15_Variadic_unionIJN10subprocess10PipeOptionENSt7__cxx1112basic_stringIcSt11char_traitsIcESaIcEEEiPSiPSoP8_IO_FILEEEEEEDcSt16in_place_index_tILm0EEOT_
	.section	.text._ZNSt8__detail9__variant5__getILm0ERKSt7variantIJN10subprocess10PipeOptionENSt7__cxx1112basic_stringIcSt11char_traitsIcESaIcEEEiPSiPSoP8_IO_FILEEEEEDcOT0_,"axG",@progbits,_ZNSt8__detail9__variant5__getILm0ERKSt7variantIJN10subprocess10PipeOptionENSt7__cxx1112basic_stringIcSt11char_traitsIcESaIcEEEiPSiPSoP8_IO_FILEEEEEDcOT0_,comdat
	.align	2
	.weak	_ZNSt8__detail9__variant5__getILm0ERKSt7variantIJN10subprocess10PipeOptionENSt7__cxx1112basic_stringIcSt11char_traitsIcESaIcEEEiPSiPSoP8_IO_FILEEEEEDcOT0_
	.type	_ZNSt8__detail9__variant5__getILm0ERKSt7variantIJN10subprocess10PipeOptionENSt7__cxx1112basic_stringIcSt11char_traitsIcESaIcEEEiPSiPSoP8_IO_FILEEEEEDcOT0_, %function
_ZNSt8__detail9__variant5__getILm0ERKSt7variantIJN10subprocess10PipeOptionENSt7__cxx1112basic_stringIcSt11char_traitsIcESaIcEEEiPSiPSoP8_IO_FILEEEEEDcOT0_:
.LFB5097:
	.cfi_startproc
	stp	x29, x30, [sp, -48]!
	.cfi_def_cfa_offset 48
	.cfi_offset 29, -48
	.cfi_offset 30, -40
	mov	x29, sp
	str	x19, [sp, 16]
	.cfi_offset 19, -32
	str	x0, [sp, 40]
	ldr	x0, [sp, 40]
	bl	_ZSt7forwardIRKSt7variantIJN10subprocess10PipeOptionENSt7__cxx1112basic_stringIcSt11char_traitsIcESaIcEEEiPSiPSoP8_IO_FILEEEEOT_RNSt16remove_referenceISG_E4typeE
	mov	x1, x0
	mov	w0, w19
	bl	_ZNSt8__detail9__variant5__getIRKNS0_15_Variadic_unionIJN10subprocess10PipeOptionENSt7__cxx1112basic_stringIcSt11char_traitsIcESaIcEEEiPSiPSoP8_IO_FILEEEEEEDcSt16in_place_index_tILm0EEOT_
	ldr	x19, [sp, 16]
	ldp	x29, x30, [sp], 48
	.cfi_restore 30
	.cfi_restore 29
	.cfi_restore 19
	.cfi_def_cfa_offset 0
	ret
	.cfi_endproc
.LFE5097:
	.size	_ZNSt8__detail9__variant5__getILm0ERKSt7variantIJN10subprocess10PipeOptionENSt7__cxx1112basic_stringIcSt11char_traitsIcESaIcEEEiPSiPSoP8_IO_FILEEEEEDcOT0_, .-_ZNSt8__detail9__variant5__getILm0ERKSt7variantIJN10subprocess10PipeOptionENSt7__cxx1112basic_stringIcSt11char_traitsIcESaIcEEEiPSiPSoP8_IO_FILEEEEEDcOT0_
	.section	.text._ZNSt8__detail9__variant15_Copy_ctor_baseILb0EJN10subprocess10PipeOptionENSt7__cxx1112basic_stringIcSt11char_traitsIcESaIcEEEiPSiPSoP8_IO_FILEEECI2NS0_16_Variant_storageILb0EJS3_S9_iSA_SB_SD_EEEILm0EJS3_EEESt16in_place_index_tIXT_EEDpOT0_,"axG",@progbits,_ZNSt8__detail9__variant15_Copy_ctor_baseILb0EJN10subprocess10PipeOptionENSt7__cxx1112basic_stringIcSt11char_traitsIcESaIcEEEiPSiPSoP8_IO_FILEEECI5NS0_16_Variant_storageILb0EJS3_S9_iSA_SB_SD_EEEILm0EJS3_EEESt16in_place_index_tIXT_EEDpOT0_,comdat
	.align	2
	.weak	_ZNSt8__detail9__variant15_Copy_ctor_baseILb0EJN10subprocess10PipeOptionENSt7__cxx1112basic_stringIcSt11char_traitsIcESaIcEEEiPSiPSoP8_IO_FILEEECI2NS0_16_Variant_storageILb0EJS3_S9_iSA_SB_SD_EEEILm0EJS3_EEESt16in_place_index_tIXT_EEDpOT0_
	.type	_ZNSt8__detail9__variant15_Copy_ctor_baseILb0EJN10subprocess10PipeOptionENSt7__cxx1112basic_stringIcSt11char_traitsIcESaIcEEEiPSiPSoP8_IO_FILEEECI2NS0_16_Variant_storageILb0EJS3_S9_iSA_SB_SD_EEEILm0EJS3_EEESt16in_place_index_tIXT_EEDpOT0_, %function
_ZNSt8__detail9__variant15_Copy_ctor_baseILb0EJN10subprocess10PipeOptionENSt7__cxx1112basic_stringIcSt11char_traitsIcESaIcEEEiPSiPSoP8_IO_FILEEECI2NS0_16_Variant_storageILb0EJS3_S9_iSA_SB_SD_EEEILm0EJS3_EEESt16in_place_index_tIXT_EEDpOT0_:
.LFB5104:
	.cfi_startproc
	stp	x29, x30, [sp, -48]!
	.cfi_def_cfa_offset 48
	.cfi_offset 29, -48
	.cfi_offset 30, -40
	mov	x29, sp
	str	x0, [sp, 40]
	strb	w1, [sp, 32]
	str	x2, [sp, 24]
	ldr	x0, [sp, 40]
	ldr	x2, [sp, 24]
	mov	w1, w3
	bl	_ZNSt8__detail9__variant16_Variant_storageILb0EJN10subprocess10PipeOptionENSt7__cxx1112basic_stringIcSt11char_traitsIcESaIcEEEiPSiPSoP8_IO_FILEEEC2ILm0EJS3_EEESt16in_place_index_tIXT_EEDpOT0_
	nop
	ldp	x29, x30, [sp], 48
	.cfi_restore 30
	.cfi_restore 29
	.cfi_def_cfa_offset 0
	ret
	.cfi_endproc
.LFE5104:
	.size	_ZNSt8__detail9__variant15_Copy_ctor_baseILb0EJN10subprocess10PipeOptionENSt7__cxx1112basic_stringIcSt11char_traitsIcESaIcEEEiPSiPSoP8_IO_FILEEECI2NS0_16_Variant_storageILb0EJS3_S9_iSA_SB_SD_EEEILm0EJS3_EEESt16in_place_index_tIXT_EEDpOT0_, .-_ZNSt8__detail9__variant15_Copy_ctor_baseILb0EJN10subprocess10PipeOptionENSt7__cxx1112basic_stringIcSt11char_traitsIcESaIcEEEiPSiPSoP8_IO_FILEEECI2NS0_16_Variant_storageILb0EJS3_S9_iSA_SB_SD_EEEILm0EJS3_EEESt16in_place_index_tIXT_EEDpOT0_
	.weak	_ZNSt8__detail9__variant15_Copy_ctor_baseILb0EJN10subprocess10PipeOptionENSt7__cxx1112basic_stringIcSt11char_traitsIcESaIcEEEiPSiPSoP8_IO_FILEEECI1NS0_16_Variant_storageILb0EJS3_S9_iSA_SB_SD_EEEILm0EJS3_EEESt16in_place_index_tIXT_EEDpOT0_
	.set	_ZNSt8__detail9__variant15_Copy_ctor_baseILb0EJN10subprocess10PipeOptionENSt7__cxx1112basic_stringIcSt11char_traitsIcESaIcEEEiPSiPSoP8_IO_FILEEECI1NS0_16_Variant_storageILb0EJS3_S9_iSA_SB_SD_EEEILm0EJS3_EEESt16in_place_index_tIXT_EEDpOT0_,_ZNSt8__detail9__variant15_Copy_ctor_baseILb0EJN10subprocess10PipeOptionENSt7__cxx1112basic_stringIcSt11char_traitsIcESaIcEEEiPSiPSoP8_IO_FILEEECI2NS0_16_Variant_storageILb0EJS3_S9_iSA_SB_SD_EEEILm0EJS3_EEESt16in_place_index_tIXT_EEDpOT0_
	.section	.text._ZNSt8__detail9__variant15_Move_ctor_baseILb0EJN10subprocess10PipeOptionENSt7__cxx1112basic_stringIcSt11char_traitsIcESaIcEEEiPSiPSoP8_IO_FILEEECI2NS0_16_Variant_storageILb0EJS3_S9_iSA_SB_SD_EEEILm0EJS3_EEESt16in_place_index_tIXT_EEDpOT0_,"axG",@progbits,_ZNSt8__detail9__variant15_Move_ctor_baseILb0EJN10subprocess10PipeOptionENSt7__cxx1112basic_stringIcSt11char_traitsIcESaIcEEEiPSiPSoP8_IO_FILEEECI5NS0_16_Variant_storageILb0EJS3_S9_iSA_SB_SD_EEEILm0EJS3_EEESt16in_place_index_tIXT_EEDpOT0_,comdat
	.align	2
	.weak	_ZNSt8__detail9__variant15_Move_ctor_baseILb0EJN10subprocess10PipeOptionENSt7__cxx1112basic_stringIcSt11char_traitsIcESaIcEEEiPSiPSoP8_IO_FILEEECI2NS0_16_Variant_storageILb0EJS3_S9_iSA_SB_SD_EEEILm0EJS3_EEESt16in_place_index_tIXT_EEDpOT0_
	.type	_ZNSt8__detail9__variant15_Move_ctor_baseILb0EJN10subprocess10PipeOptionENSt7__cxx1112basic_stringIcSt11char_traitsIcESaIcEEEiPSiPSoP8_IO_FILEEECI2NS0_16_Variant_storageILb0EJS3_S9_iSA_SB_SD_EEEILm0EJS3_EEESt16in_place_index_tIXT_EEDpOT0_, %function
_ZNSt8__detail9__variant15_Move_ctor_baseILb0EJN10subprocess10PipeOptionENSt7__cxx1112basic_stringIcSt11char_traitsIcESaIcEEEiPSiPSoP8_IO_FILEEECI2NS0_16_Variant_storageILb0EJS3_S9_iSA_SB_SD_EEEILm0EJS3_EEESt16in_place_index_tIXT_EEDpOT0_:
.LFB5106:
	.cfi_startproc
	stp	x29, x30, [sp, -48]!
	.cfi_def_cfa_offset 48
	.cfi_offset 29, -48
	.cfi_offset 30, -40
	mov	x29, sp
	str	x0, [sp, 40]
	strb	w1, [sp, 32]
	str	x2, [sp, 24]
	ldr	x0, [sp, 40]
	ldr	x2, [sp, 24]
	mov	w1, w3
	bl	_ZNSt8__detail9__variant15_Copy_ctor_baseILb0EJN10subprocess10PipeOptionENSt7__cxx1112basic_stringIcSt11char_traitsIcESaIcEEEiPSiPSoP8_IO_FILEEECI2NS0_16_Variant_storageILb0EJS3_S9_iSA_SB_SD_EEEILm0EJS3_EEESt16in_place_index_tIXT_EEDpOT0_
	nop
	ldp	x29, x30, [sp], 48
	.cfi_restore 30
	.cfi_restore 29
	.cfi_def_cfa_offset 0
	ret
	.cfi_endproc
.LFE5106:
	.size	_ZNSt8__detail9__variant15_Move_ctor_baseILb0EJN10subprocess10PipeOptionENSt7__cxx1112basic_stringIcSt11char_traitsIcESaIcEEEiPSiPSoP8_IO_FILEEECI2NS0_16_Variant_storageILb0EJS3_S9_iSA_SB_SD_EEEILm0EJS3_EEESt16in_place_index_tIXT_EEDpOT0_, .-_ZNSt8__detail9__variant15_Move_ctor_baseILb0EJN10subprocess10PipeOptionENSt7__cxx1112basic_stringIcSt11char_traitsIcESaIcEEEiPSiPSoP8_IO_FILEEECI2NS0_16_Variant_storageILb0EJS3_S9_iSA_SB_SD_EEEILm0EJS3_EEESt16in_place_index_tIXT_EEDpOT0_
	.weak	_ZNSt8__detail9__variant15_Move_ctor_baseILb0EJN10subprocess10PipeOptionENSt7__cxx1112basic_stringIcSt11char_traitsIcESaIcEEEiPSiPSoP8_IO_FILEEECI1NS0_16_Variant_storageILb0EJS3_S9_iSA_SB_SD_EEEILm0EJS3_EEESt16in_place_index_tIXT_EEDpOT0_
	.set	_ZNSt8__detail9__variant15_Move_ctor_baseILb0EJN10subprocess10PipeOptionENSt7__cxx1112basic_stringIcSt11char_traitsIcESaIcEEEiPSiPSoP8_IO_FILEEECI1NS0_16_Variant_storageILb0EJS3_S9_iSA_SB_SD_EEEILm0EJS3_EEESt16in_place_index_tIXT_EEDpOT0_,_ZNSt8__detail9__variant15_Move_ctor_baseILb0EJN10subprocess10PipeOptionENSt7__cxx1112basic_stringIcSt11char_traitsIcESaIcEEEiPSiPSoP8_IO_FILEEECI2NS0_16_Variant_storageILb0EJS3_S9_iSA_SB_SD_EEEILm0EJS3_EEESt16in_place_index_tIXT_EEDpOT0_
	.section	.text._ZNSt8__detail9__variant17_Copy_assign_baseILb0EJN10subprocess10PipeOptionENSt7__cxx1112basic_stringIcSt11char_traitsIcESaIcEEEiPSiPSoP8_IO_FILEEECI2NS0_16_Variant_storageILb0EJS3_S9_iSA_SB_SD_EEEILm0EJS3_EEESt16in_place_index_tIXT_EEDpOT0_,"axG",@progbits,_ZNSt8__detail9__variant17_Copy_assign_baseILb0EJN10subprocess10PipeOptionENSt7__cxx1112basic_stringIcSt11char_traitsIcESaIcEEEiPSiPSoP8_IO_FILEEECI5NS0_16_Variant_storageILb0EJS3_S9_iSA_SB_SD_EEEILm0EJS3_EEESt16in_place_index_tIXT_EEDpOT0_,comdat
	.align	2
	.weak	_ZNSt8__detail9__variant17_Copy_assign_baseILb0EJN10subprocess10PipeOptionENSt7__cxx1112basic_stringIcSt11char_traitsIcESaIcEEEiPSiPSoP8_IO_FILEEECI2NS0_16_Variant_storageILb0EJS3_S9_iSA_SB_SD_EEEILm0EJS3_EEESt16in_place_index_tIXT_EEDpOT0_
	.type	_ZNSt8__detail9__variant17_Copy_assign_baseILb0EJN10subprocess10PipeOptionENSt7__cxx1112basic_stringIcSt11char_traitsIcESaIcEEEiPSiPSoP8_IO_FILEEECI2NS0_16_Variant_storageILb0EJS3_S9_iSA_SB_SD_EEEILm0EJS3_EEESt16in_place_index_tIXT_EEDpOT0_, %function
_ZNSt8__detail9__variant17_Copy_assign_baseILb0EJN10subprocess10PipeOptionENSt7__cxx1112basic_stringIcSt11char_traitsIcESaIcEEEiPSiPSoP8_IO_FILEEECI2NS0_16_Variant_storageILb0EJS3_S9_iSA_SB_SD_EEEILm0EJS3_EEESt16in_place_index_tIXT_EEDpOT0_:
.LFB5108:
	.cfi_startproc
	stp	x29, x30, [sp, -48]!
	.cfi_def_cfa_offset 48
	.cfi_offset 29, -48
	.cfi_offset 30, -40
	mov	x29, sp
	str	x0, [sp, 40]
	strb	w1, [sp, 32]
	str	x2, [sp, 24]
	ldr	x0, [sp, 40]
	ldr	x2, [sp, 24]
	mov	w1, w3
	bl	_ZNSt8__detail9__variant15_Move_ctor_baseILb0EJN10subprocess10PipeOptionENSt7__cxx1112basic_stringIcSt11char_traitsIcESaIcEEEiPSiPSoP8_IO_FILEEECI2NS0_16_Variant_storageILb0EJS3_S9_iSA_SB_SD_EEEILm0EJS3_EEESt16in_place_index_tIXT_EEDpOT0_
	nop
	ldp	x29, x30, [sp], 48
	.cfi_restore 30
	.cfi_restore 29
	.cfi_def_cfa_offset 0
	ret
	.cfi_endproc
.LFE5108:
	.size	_ZNSt8__detail9__variant17_Copy_assign_baseILb0EJN10subprocess10PipeOptionENSt7__cxx1112basic_stringIcSt11char_traitsIcESaIcEEEiPSiPSoP8_IO_FILEEECI2NS0_16_Variant_storageILb0EJS3_S9_iSA_SB_SD_EEEILm0EJS3_EEESt16in_place_index_tIXT_EEDpOT0_, .-_ZNSt8__detail9__variant17_Copy_assign_baseILb0EJN10subprocess10PipeOptionENSt7__cxx1112basic_stringIcSt11char_traitsIcESaIcEEEiPSiPSoP8_IO_FILEEECI2NS0_16_Variant_storageILb0EJS3_S9_iSA_SB_SD_EEEILm0EJS3_EEESt16in_place_index_tIXT_EEDpOT0_
	.weak	_ZNSt8__detail9__variant17_Copy_assign_baseILb0EJN10subprocess10PipeOptionENSt7__cxx1112basic_stringIcSt11char_traitsIcESaIcEEEiPSiPSoP8_IO_FILEEECI1NS0_16_Variant_storageILb0EJS3_S9_iSA_SB_SD_EEEILm0EJS3_EEESt16in_place_index_tIXT_EEDpOT0_
	.set	_ZNSt8__detail9__variant17_Copy_assign_baseILb0EJN10subprocess10PipeOptionENSt7__cxx1112basic_stringIcSt11char_traitsIcESaIcEEEiPSiPSoP8_IO_FILEEECI1NS0_16_Variant_storageILb0EJS3_S9_iSA_SB_SD_EEEILm0EJS3_EEESt16in_place_index_tIXT_EEDpOT0_,_ZNSt8__detail9__variant17_Copy_assign_baseILb0EJN10subprocess10PipeOptionENSt7__cxx1112basic_stringIcSt11char_traitsIcESaIcEEEiPSiPSoP8_IO_FILEEECI2NS0_16_Variant_storageILb0EJS3_S9_iSA_SB_SD_EEEILm0EJS3_EEESt16in_place_index_tIXT_EEDpOT0_
	.section	.text._ZNSt8__detail9__variant17_Move_assign_baseILb0EJN10subprocess10PipeOptionENSt7__cxx1112basic_stringIcSt11char_traitsIcESaIcEEEiPSiPSoP8_IO_FILEEECI2NS0_16_Variant_storageILb0EJS3_S9_iSA_SB_SD_EEEILm0EJS3_EEESt16in_place_index_tIXT_EEDpOT0_,"axG",@progbits,_ZNSt8__detail9__variant17_Move_assign_baseILb0EJN10subprocess10PipeOptionENSt7__cxx1112basic_stringIcSt11char_traitsIcESaIcEEEiPSiPSoP8_IO_FILEEECI5NS0_16_Variant_storageILb0EJS3_S9_iSA_SB_SD_EEEILm0EJS3_EEESt16in_place_index_tIXT_EEDpOT0_,comdat
	.align	2
	.weak	_ZNSt8__detail9__variant17_Move_assign_baseILb0EJN10subprocess10PipeOptionENSt7__cxx1112basic_stringIcSt11char_traitsIcESaIcEEEiPSiPSoP8_IO_FILEEECI2NS0_16_Variant_storageILb0EJS3_S9_iSA_SB_SD_EEEILm0EJS3_EEESt16in_place_index_tIXT_EEDpOT0_
	.type	_ZNSt8__detail9__variant17_Move_assign_baseILb0EJN10subprocess10PipeOptionENSt7__cxx1112basic_stringIcSt11char_traitsIcESaIcEEEiPSiPSoP8_IO_FILEEECI2NS0_16_Variant_storageILb0EJS3_S9_iSA_SB_SD_EEEILm0EJS3_EEESt16in_place_index_tIXT_EEDpOT0_, %function
_ZNSt8__detail9__variant17_Move_assign_baseILb0EJN10subprocess10PipeOptionENSt7__cxx1112basic_stringIcSt11char_traitsIcESaIcEEEiPSiPSoP8_IO_FILEEECI2NS0_16_Variant_storageILb0EJS3_S9_iSA_SB_SD_EEEILm0EJS3_EEESt16in_place_index_tIXT_EEDpOT0_:
.LFB5110:
	.cfi_startproc
	stp	x29, x30, [sp, -48]!
	.cfi_def_cfa_offset 48
	.cfi_offset 29, -48
	.cfi_offset 30, -40
	mov	x29, sp
	str	x0, [sp, 40]
	strb	w1, [sp, 32]
	str	x2, [sp, 24]
	ldr	x0, [sp, 40]
	ldr	x2, [sp, 24]
	mov	w1, w3
	bl	_ZNSt8__detail9__variant17_Copy_assign_baseILb0EJN10subprocess10PipeOptionENSt7__cxx1112basic_stringIcSt11char_traitsIcESaIcEEEiPSiPSoP8_IO_FILEEECI2NS0_16_Variant_storageILb0EJS3_S9_iSA_SB_SD_EEEILm0EJS3_EEESt16in_place_index_tIXT_EEDpOT0_
	nop
	ldp	x29, x30, [sp], 48
	.cfi_restore 30
	.cfi_restore 29
	.cfi_def_cfa_offset 0
	ret
	.cfi_endproc
.LFE5110:
	.size	_ZNSt8__detail9__variant17_Move_assign_baseILb0EJN10subprocess10PipeOptionENSt7__cxx1112basic_stringIcSt11char_traitsIcESaIcEEEiPSiPSoP8_IO_FILEEECI2NS0_16_Variant_storageILb0EJS3_S9_iSA_SB_SD_EEEILm0EJS3_EEESt16in_place_index_tIXT_EEDpOT0_, .-_ZNSt8__detail9__variant17_Move_assign_baseILb0EJN10subprocess10PipeOptionENSt7__cxx1112basic_stringIcSt11char_traitsIcESaIcEEEiPSiPSoP8_IO_FILEEECI2NS0_16_Variant_storageILb0EJS3_S9_iSA_SB_SD_EEEILm0EJS3_EEESt16in_place_index_tIXT_EEDpOT0_
	.weak	_ZNSt8__detail9__variant17_Move_assign_baseILb0EJN10subprocess10PipeOptionENSt7__cxx1112basic_stringIcSt11char_traitsIcESaIcEEEiPSiPSoP8_IO_FILEEECI1NS0_16_Variant_storageILb0EJS3_S9_iSA_SB_SD_EEEILm0EJS3_EEESt16in_place_index_tIXT_EEDpOT0_
	.set	_ZNSt8__detail9__variant17_Move_assign_baseILb0EJN10subprocess10PipeOptionENSt7__cxx1112basic_stringIcSt11char_traitsIcESaIcEEEiPSiPSoP8_IO_FILEEECI1NS0_16_Variant_storageILb0EJS3_S9_iSA_SB_SD_EEEILm0EJS3_EEESt16in_place_index_tIXT_EEDpOT0_,_ZNSt8__detail9__variant17_Move_assign_baseILb0EJN10subprocess10PipeOptionENSt7__cxx1112basic_stringIcSt11char_traitsIcESaIcEEEiPSiPSoP8_IO_FILEEECI2NS0_16_Variant_storageILb0EJS3_S9_iSA_SB_SD_EEEILm0EJS3_EEESt16in_place_index_tIXT_EEDpOT0_
	.section	.text._ZNSt8__detail9__variant13_Variant_baseIJN10subprocess10PipeOptionENSt7__cxx1112basic_stringIcSt11char_traitsIcESaIcEEEiPSiPSoP8_IO_FILEEEC2ILm0EJS3_EEESt16in_place_index_tIXT_EEDpOT0_,"axG",@progbits,_ZNSt8__detail9__variant13_Variant_baseIJN10subprocess10PipeOptionENSt7__cxx1112basic_stringIcSt11char_traitsIcESaIcEEEiPSiPSoP8_IO_FILEEEC5ILm0EJS3_EEESt16in_place_index_tIXT_EEDpOT0_,comdat
	.align	2
	.weak	_ZNSt8__detail9__variant13_Variant_baseIJN10subprocess10PipeOptionENSt7__cxx1112basic_stringIcSt11char_traitsIcESaIcEEEiPSiPSoP8_IO_FILEEEC2ILm0EJS3_EEESt16in_place_index_tIXT_EEDpOT0_
	.type	_ZNSt8__detail9__variant13_Variant_baseIJN10subprocess10PipeOptionENSt7__cxx1112basic_stringIcSt11char_traitsIcESaIcEEEiPSiPSoP8_IO_FILEEEC2ILm0EJS3_EEESt16in_place_index_tIXT_EEDpOT0_, %function
_ZNSt8__detail9__variant13_Variant_baseIJN10subprocess10PipeOptionENSt7__cxx1112basic_stringIcSt11char_traitsIcESaIcEEEiPSiPSoP8_IO_FILEEEC2ILm0EJS3_EEESt16in_place_index_tIXT_EEDpOT0_:
.LFB5112:
	.cfi_startproc
	stp	x29, x30, [sp, -64]!
	.cfi_def_cfa_offset 64
	.cfi_offset 29, -64
	.cfi_offset 30, -56
	mov	x29, sp
	stp	x19, x20, [sp, 16]
	.cfi_offset 19, -48
	.cfi_offset 20, -40
	str	x0, [sp, 56]
	strb	w1, [sp, 48]
	str	x2, [sp, 40]
	ldr	x19, [sp, 56]
	ldr	x0, [sp, 40]
	bl	_ZSt7forwardIN10subprocess10PipeOptionEEOT_RNSt16remove_referenceIS2_E4typeE
	mov	x2, x0
	mov	w1, w20
	mov	x0, x19
	bl	_ZNSt8__detail9__variant17_Move_assign_baseILb0EJN10subprocess10PipeOptionENSt7__cxx1112basic_stringIcSt11char_traitsIcESaIcEEEiPSiPSoP8_IO_FILEEECI2NS0_16_Variant_storageILb0EJS3_S9_iSA_SB_SD_EEEILm0EJS3_EEESt16in_place_index_tIXT_EEDpOT0_
	nop
	ldp	x19, x20, [sp, 16]
	ldp	x29, x30, [sp], 64
	.cfi_restore 30
	.cfi_restore 29
	.cfi_restore 19
	.cfi_restore 20
	.cfi_def_cfa_offset 0
	ret
	.cfi_endproc
.LFE5112:
	.size	_ZNSt8__detail9__variant13_Variant_baseIJN10subprocess10PipeOptionENSt7__cxx1112basic_stringIcSt11char_traitsIcESaIcEEEiPSiPSoP8_IO_FILEEEC2ILm0EJS3_EEESt16in_place_index_tIXT_EEDpOT0_, .-_ZNSt8__detail9__variant13_Variant_baseIJN10subprocess10PipeOptionENSt7__cxx1112basic_stringIcSt11char_traitsIcESaIcEEEiPSiPSoP8_IO_FILEEEC2ILm0EJS3_EEESt16in_place_index_tIXT_EEDpOT0_
	.weak	_ZNSt8__detail9__variant13_Variant_baseIJN10subprocess10PipeOptionENSt7__cxx1112basic_stringIcSt11char_traitsIcESaIcEEEiPSiPSoP8_IO_FILEEEC1ILm0EJS3_EEESt16in_place_index_tIXT_EEDpOT0_
	.set	_ZNSt8__detail9__variant13_Variant_baseIJN10subprocess10PipeOptionENSt7__cxx1112basic_stringIcSt11char_traitsIcESaIcEEEiPSiPSoP8_IO_FILEEEC1ILm0EJS3_EEESt16in_place_index_tIXT_EEDpOT0_,_ZNSt8__detail9__variant13_Variant_baseIJN10subprocess10PipeOptionENSt7__cxx1112basic_stringIcSt11char_traitsIcESaIcEEEiPSiPSoP8_IO_FILEEEC2ILm0EJS3_EEESt16in_place_index_tIXT_EEDpOT0_
	.section	.text._ZNSt27_Enable_default_constructorILb1ESt7variantIJN10subprocess10PipeOptionENSt7__cxx1112basic_stringIcSt11char_traitsIcESaIcEEEiPSiPSoP8_IO_FILEEEEC2ESt31_Enable_default_constructor_tag,"axG",@progbits,_ZNSt27_Enable_default_constructorILb1ESt7variantIJN10subprocess10PipeOptionENSt7__cxx1112basic_stringIcSt11char_traitsIcESaIcEEEiPSiPSoP8_IO_FILEEEEC5ESt31_Enable_default_constructor_tag,comdat
	.align	2
	.weak	_ZNSt27_Enable_default_constructorILb1ESt7variantIJN10subprocess10PipeOptionENSt7__cxx1112basic_stringIcSt11char_traitsIcESaIcEEEiPSiPSoP8_IO_FILEEEEC2ESt31_Enable_default_constructor_tag
	.type	_ZNSt27_Enable_default_constructorILb1ESt7variantIJN10subprocess10PipeOptionENSt7__cxx1112basic_stringIcSt11char_traitsIcESaIcEEEiPSiPSoP8_IO_FILEEEEC2ESt31_Enable_default_constructor_tag, %function
_ZNSt27_Enable_default_constructorILb1ESt7variantIJN10subprocess10PipeOptionENSt7__cxx1112basic_stringIcSt11char_traitsIcESaIcEEEiPSiPSoP8_IO_FILEEEEC2ESt31_Enable_default_constructor_tag:
.LFB5115:
	.cfi_startproc
	sub	sp, sp, #16
	.cfi_def_cfa_offset 16
	str	x0, [sp, 8]
	strb	w1, [sp]
	nop
	add	sp, sp, 16
	.cfi_def_cfa_offset 0
	ret
	.cfi_endproc
.LFE5115:
	.size	_ZNSt27_Enable_default_constructorILb1ESt7variantIJN10subprocess10PipeOptionENSt7__cxx1112basic_stringIcSt11char_traitsIcESaIcEEEiPSiPSoP8_IO_FILEEEEC2ESt31_Enable_default_constructor_tag, .-_ZNSt27_Enable_default_constructorILb1ESt7variantIJN10subprocess10PipeOptionENSt7__cxx1112basic_stringIcSt11char_traitsIcESaIcEEEiPSiPSoP8_IO_FILEEEEC2ESt31_Enable_default_constructor_tag
	.weak	_ZNSt27_Enable_default_constructorILb1ESt7variantIJN10subprocess10PipeOptionENSt7__cxx1112basic_stringIcSt11char_traitsIcESaIcEEEiPSiPSoP8_IO_FILEEEEC1ESt31_Enable_default_constructor_tag
	.set	_ZNSt27_Enable_default_constructorILb1ESt7variantIJN10subprocess10PipeOptionENSt7__cxx1112basic_stringIcSt11char_traitsIcESaIcEEEiPSiPSoP8_IO_FILEEEEC1ESt31_Enable_default_constructor_tag,_ZNSt27_Enable_default_constructorILb1ESt7variantIJN10subprocess10PipeOptionENSt7__cxx1112basic_stringIcSt11char_traitsIcESaIcEEEiPSiPSoP8_IO_FILEEEEC2ESt31_Enable_default_constructor_tag
	.section	.text._ZNKSt8__detail9__variant16_Variant_storageILb0EJN10subprocess10PipeOptionENSt7__cxx1112basic_stringIcSt11char_traitsIcESaIcEEEiPSiPSoP8_IO_FILEEE8_M_validEv,"axG",@progbits,_ZNKSt8__detail9__variant16_Variant_storageILb0EJN10subprocess10PipeOptionENSt7__cxx1112basic_stringIcSt11char_traitsIcESaIcEEEiPSiPSoP8_IO_FILEEE8_M_validEv,comdat
	.align	2
	.weak	_ZNKSt8__detail9__variant16_Variant_storageILb0EJN10subprocess10PipeOptionENSt7__cxx1112basic_stringIcSt11char_traitsIcESaIcEEEiPSiPSoP8_IO_FILEEE8_M_validEv
	.type	_ZNKSt8__detail9__variant16_Variant_storageILb0EJN10subprocess10PipeOptionENSt7__cxx1112basic_stringIcSt11char_traitsIcESaIcEEEiPSiPSoP8_IO_FILEEE8_M_validEv, %function
_ZNKSt8__detail9__variant16_Variant_storageILb0EJN10subprocess10PipeOptionENSt7__cxx1112basic_stringIcSt11char_traitsIcESaIcEEEiPSiPSoP8_IO_FILEEE8_M_validEv:
.LFB5118:
	.cfi_startproc
	sub	sp, sp, #16
	.cfi_def_cfa_offset 16
	str	x0, [sp, 8]
	mov	w0, 1
	add	sp, sp, 16
	.cfi_def_cfa_offset 0
	ret
	.cfi_endproc
.LFE5118:
	.size	_ZNKSt8__detail9__variant16_Variant_storageILb0EJN10subprocess10PipeOptionENSt7__cxx1112basic_stringIcSt11char_traitsIcESaIcEEEiPSiPSoP8_IO_FILEEE8_M_validEv, .-_ZNKSt8__detail9__variant16_Variant_storageILb0EJN10subprocess10PipeOptionENSt7__cxx1112basic_stringIcSt11char_traitsIcESaIcEEEiPSiPSoP8_IO_FILEEE8_M_validEv
	.section	.text._ZSt14__variant_castIJN10subprocess10PipeOptionENSt7__cxx1112basic_stringIcSt11char_traitsIcESaIcEEEiPSiPSoP8_IO_FILEERNSt8__detail9__variant16_Variant_storageILb0EJS1_S7_iS8_S9_SB_EEEEDcOT0_,"axG",@progbits,_ZSt14__variant_castIJN10subprocess10PipeOptionENSt7__cxx1112basic_stringIcSt11char_traitsIcESaIcEEEiPSiPSoP8_IO_FILEERNSt8__detail9__variant16_Variant_storageILb0EJS1_S7_iS8_S9_SB_EEEEDcOT0_,comdat
	.align	2
