	.arch armv8-a
	.file	"utf8_to_utf16.cpp"
	.text
	.section	.text._ZNSt11char_traitsIDsE6assignERDsRKDs,"axG",@progbits,_ZNSt11char_traitsIDsE6assignERDsRKDs,comdat
	.align	2
	.weak	_ZNSt11char_traitsIDsE6assignERDsRKDs
	.type	_ZNSt11char_traitsIDsE6assignERDsRKDs, %function
_ZNSt11char_traitsIDsE6assignERDsRKDs:
.LFB408:
	.cfi_startproc
	sub	sp, sp, #16
	.cfi_def_cfa_offset 16
	str	x0, [sp, 8]
	str	x1, [sp]
	ldr	x0, [sp]
	ldrh	w1, [x0]
	ldr	x0, [sp, 8]
	strh	w1, [x0]
	nop
	add	sp, sp, 16
	.cfi_def_cfa_offset 0
	ret
	.cfi_endproc
.LFE408:
	.size	_ZNSt11char_traitsIDsE6assignERDsRKDs, .-_ZNSt11char_traitsIDsE6assignERDsRKDs
	.section	.text._ZNSt11char_traitsIDsE4moveEPDsPKDsm,"axG",@progbits,_ZNSt11char_traitsIDsE4moveEPDsPKDsm,comdat
	.align	2
	.weak	_ZNSt11char_traitsIDsE4moveEPDsPKDsm
	.type	_ZNSt11char_traitsIDsE4moveEPDsPKDsm, %function
_ZNSt11char_traitsIDsE4moveEPDsPKDsm:
.LFB414:
	.cfi_startproc
	stp	x29, x30, [sp, -48]!
	.cfi_def_cfa_offset 48
	.cfi_offset 29, -48
	.cfi_offset 30, -40
	mov	x29, sp
	str	x0, [sp, 40]
	str	x1, [sp, 32]
	str	x2, [sp, 24]
	ldr	x0, [sp, 24]
	cmp	x0, 0
	bne	.L3
	ldr	x0, [sp, 40]
	b	.L4
.L3:
	ldr	x0, [sp, 24]
	lsl	x0, x0, 1
	mov	x2, x0
	ldr	x1, [sp, 32]
	ldr	x0, [sp, 40]
	bl	memmove
	nop
.L4:
	ldp	x29, x30, [sp], 48
	.cfi_restore 30
	.cfi_restore 29
	.cfi_def_cfa_offset 0
	ret
	.cfi_endproc
.LFE414:
	.size	_ZNSt11char_traitsIDsE4moveEPDsPKDsm, .-_ZNSt11char_traitsIDsE4moveEPDsPKDsm
	.section	.text._ZNSt11char_traitsIDsE4copyEPDsPKDsm,"axG",@progbits,_ZNSt11char_traitsIDsE4copyEPDsPKDsm,comdat
	.align	2
	.weak	_ZNSt11char_traitsIDsE4copyEPDsPKDsm
	.type	_ZNSt11char_traitsIDsE4copyEPDsPKDsm, %function
_ZNSt11char_traitsIDsE4copyEPDsPKDsm:
.LFB415:
	.cfi_startproc
	stp	x29, x30, [sp, -48]!
	.cfi_def_cfa_offset 48
	.cfi_offset 29, -48
	.cfi_offset 30, -40
	mov	x29, sp
	str	x0, [sp, 40]
	str	x1, [sp, 32]
	str	x2, [sp, 24]
	ldr	x0, [sp, 24]
	cmp	x0, 0
	bne	.L6
	ldr	x0, [sp, 40]
	b	.L7
.L6:
	ldr	x0, [sp, 24]
	lsl	x0, x0, 1
	ldr	x2, [sp, 40]
	ldr	x1, [sp, 32]
	mov	x3, x2
	mov	x2, x0
	mov	x0, x3
	bl	memcpy
	nop
.L7:
	ldp	x29, x30, [sp], 48
	.cfi_restore 30
	.cfi_restore 29
	.cfi_def_cfa_offset 0
	ret
	.cfi_endproc
.LFE415:
	.size	_ZNSt11char_traitsIDsE4copyEPDsPKDsm, .-_ZNSt11char_traitsIDsE4copyEPDsPKDsm
	.section	.text._ZNSt11char_traitsIDsE6assignEPDsmDs,"axG",@progbits,_ZNSt11char_traitsIDsE6assignEPDsmDs,comdat
	.align	2
	.weak	_ZNSt11char_traitsIDsE6assignEPDsmDs
	.type	_ZNSt11char_traitsIDsE6assignEPDsmDs, %function
_ZNSt11char_traitsIDsE6assignEPDsmDs:
.LFB416:
	.cfi_startproc
	stp	x29, x30, [sp, -64]!
	.cfi_def_cfa_offset 64
	.cfi_offset 29, -64
	.cfi_offset 30, -56
	mov	x29, sp
	str	x0, [sp, 40]
	str	x1, [sp, 32]
	strh	w2, [sp, 30]
	str	xzr, [sp, 56]
	b	.L9
.L10:
	ldr	x0, [sp, 56]
	lsl	x0, x0, 1
	ldr	x1, [sp, 40]
	add	x0, x1, x0
	add	x1, sp, 30
	bl	_ZNSt11char_traitsIDsE6assignERDsRKDs
	ldr	x0, [sp, 56]
	add	x0, x0, 1
	str	x0, [sp, 56]
.L9:
	ldr	x1, [sp, 56]
	ldr	x0, [sp, 32]
	cmp	x1, x0
	bcc	.L10
	ldr	x0, [sp, 40]
	ldp	x29, x30, [sp], 64
	.cfi_restore 30
	.cfi_restore 29
	.cfi_def_cfa_offset 0
	ret
	.cfi_endproc
.LFE416:
	.size	_ZNSt11char_traitsIDsE6assignEPDsmDs, .-_ZNSt11char_traitsIDsE6assignEPDsmDs
	.section	.text._ZNSt6locale5facetC2Em,"axG",@progbits,_ZNSt6locale5facetC5Em,comdat
	.align	2
	.weak	_ZNSt6locale5facetC2Em
	.type	_ZNSt6locale5facetC2Em, %function
_ZNSt6locale5facetC2Em:
.LFB1166:
	.cfi_startproc
	sub	sp, sp, #16
	.cfi_def_cfa_offset 16
	str	x0, [sp, 8]
	str	x1, [sp]
	adrp	x0, :got:_ZTVNSt6locale5facetE
	ldr	x0, [x0, #:got_lo12:_ZTVNSt6locale5facetE]
	add	x1, x0, 16
	ldr	x0, [sp, 8]
	str	x1, [x0]
	ldr	x0, [sp]
	cmp	x0, 0
	beq	.L13
	mov	w0, 1
	b	.L14
.L13:
	mov	w0, 0
.L14:
	ldr	x1, [sp, 8]
	str	w0, [x1, 8]
	nop
	add	sp, sp, 16
	.cfi_def_cfa_offset 0
	ret
	.cfi_endproc
.LFE1166:
	.size	_ZNSt6locale5facetC2Em, .-_ZNSt6locale5facetC2Em
	.weak	_ZNSt6locale5facetC1Em
	.set	_ZNSt6locale5facetC1Em,_ZNSt6locale5facetC2Em
	.section	.text._ZNSt7codecvtIDsc11__mbstate_tEC2Em,"axG",@progbits,_ZNSt7codecvtIDsc11__mbstate_tEC5Em,comdat
	.align	2
	.weak	_ZNSt7codecvtIDsc11__mbstate_tEC2Em
	.type	_ZNSt7codecvtIDsc11__mbstate_tEC2Em, %function
_ZNSt7codecvtIDsc11__mbstate_tEC2Em:
.LFB1673:
	.cfi_startproc
	stp	x29, x30, [sp, -32]!
	.cfi_def_cfa_offset 32
	.cfi_offset 29, -32
	.cfi_offset 30, -24
	mov	x29, sp
	str	x0, [sp, 24]
	str	x1, [sp, 16]
	ldr	x0, [sp, 24]
	ldr	x1, [sp, 16]
	bl	_ZNSt23__codecvt_abstract_baseIDsc11__mbstate_tEC2Em
	adrp	x0, :got:_ZTVSt7codecvtIDsc11__mbstate_tE
	ldr	x0, [x0, #:got_lo12:_ZTVSt7codecvtIDsc11__mbstate_tE]
	add	x1, x0, 16
	ldr	x0, [sp, 24]
	str	x1, [x0]
	nop
	ldp	x29, x30, [sp], 32
	.cfi_restore 30
	.cfi_restore 29
	.cfi_def_cfa_offset 0
	ret
	.cfi_endproc
.LFE1673:
	.size	_ZNSt7codecvtIDsc11__mbstate_tEC2Em, .-_ZNSt7codecvtIDsc11__mbstate_tEC2Em
	.weak	_ZNSt7codecvtIDsc11__mbstate_tEC1Em
	.set	_ZNSt7codecvtIDsc11__mbstate_tEC1Em,_ZNSt7codecvtIDsc11__mbstate_tEC2Em
	.section	.text._ZNSt25__codecvt_utf8_utf16_baseIDsEC2EmSt12codecvt_modem,"axG",@progbits,_ZNSt25__codecvt_utf8_utf16_baseIDsEC5EmSt12codecvt_modem,comdat
	.align	2
	.weak	_ZNSt25__codecvt_utf8_utf16_baseIDsEC2EmSt12codecvt_modem
	.type	_ZNSt25__codecvt_utf8_utf16_baseIDsEC2EmSt12codecvt_modem, %function
_ZNSt25__codecvt_utf8_utf16_baseIDsEC2EmSt12codecvt_modem:
.LFB2098:
	.cfi_startproc
	stp	x29, x30, [sp, -48]!
	.cfi_def_cfa_offset 48
	.cfi_offset 29, -48
	.cfi_offset 30, -40
	mov	x29, sp
	str	x0, [sp, 40]
	str	x1, [sp, 32]
	str	w2, [sp, 28]
	str	x3, [sp, 16]
	ldr	x0, [sp, 40]
	ldr	x1, [sp, 16]
	bl	_ZNSt7codecvtIDsc11__mbstate_tEC2Em
	adrp	x0, :got:_ZTVSt25__codecvt_utf8_utf16_baseIDsE
	ldr	x0, [x0, #:got_lo12:_ZTVSt25__codecvt_utf8_utf16_baseIDsE]
	add	x1, x0, 16
	ldr	x0, [sp, 40]
	str	x1, [x0]
	ldr	x0, [sp, 40]
	ldr	x1, [sp, 32]
	str	x1, [x0, 16]
	ldr	x0, [sp, 40]
	ldr	w1, [sp, 28]
	str	w1, [x0, 24]
	nop
	ldp	x29, x30, [sp], 48
	.cfi_restore 30
	.cfi_restore 29
	.cfi_def_cfa_offset 0
	ret
	.cfi_endproc
.LFE2098:
	.size	_ZNSt25__codecvt_utf8_utf16_baseIDsEC2EmSt12codecvt_modem, .-_ZNSt25__codecvt_utf8_utf16_baseIDsEC2EmSt12codecvt_modem
	.weak	_ZNSt25__codecvt_utf8_utf16_baseIDsEC1EmSt12codecvt_modem
	.set	_ZNSt25__codecvt_utf8_utf16_baseIDsEC1EmSt12codecvt_modem,_ZNSt25__codecvt_utf8_utf16_baseIDsEC2EmSt12codecvt_modem
	.section	.text._ZNSt25__codecvt_utf8_utf16_baseIwEC2EmSt12codecvt_modem,"axG",@progbits,_ZNSt25__codecvt_utf8_utf16_baseIwEC5EmSt12codecvt_modem,comdat
	.align	2
	.weak	_ZNSt25__codecvt_utf8_utf16_baseIwEC2EmSt12codecvt_modem
	.type	_ZNSt25__codecvt_utf8_utf16_baseIwEC2EmSt12codecvt_modem, %function
_ZNSt25__codecvt_utf8_utf16_baseIwEC2EmSt12codecvt_modem:
.LFB2122:
	.cfi_startproc
	stp	x29, x30, [sp, -48]!
	.cfi_def_cfa_offset 48
	.cfi_offset 29, -48
	.cfi_offset 30, -40
	mov	x29, sp
	str	x0, [sp, 40]
	str	x1, [sp, 32]
	str	w2, [sp, 28]
	str	x3, [sp, 16]
	ldr	x0, [sp, 40]
	ldr	x1, [sp, 16]
	bl	_ZNSt7codecvtIwc11__mbstate_tEC2Em
	adrp	x0, :got:_ZTVSt25__codecvt_utf8_utf16_baseIwE
	ldr	x0, [x0, #:got_lo12:_ZTVSt25__codecvt_utf8_utf16_baseIwE]
	add	x1, x0, 16
	ldr	x0, [sp, 40]
	str	x1, [x0]
	ldr	x0, [sp, 40]
	ldr	x1, [sp, 32]
	str	x1, [x0, 24]
	ldr	x0, [sp, 40]
	ldr	w1, [sp, 28]
	str	w1, [x0, 32]
	nop
	ldp	x29, x30, [sp], 48
	.cfi_restore 30
	.cfi_restore 29
	.cfi_def_cfa_offset 0
	ret
	.cfi_endproc
.LFE2122:
	.size	_ZNSt25__codecvt_utf8_utf16_baseIwEC2EmSt12codecvt_modem, .-_ZNSt25__codecvt_utf8_utf16_baseIwEC2EmSt12codecvt_modem
	.weak	_ZNSt25__codecvt_utf8_utf16_baseIwEC1EmSt12codecvt_modem
	.set	_ZNSt25__codecvt_utf8_utf16_baseIwEC1EmSt12codecvt_modem,_ZNSt25__codecvt_utf8_utf16_baseIwEC2EmSt12codecvt_modem
	.section	.text._ZNSt7__cxx1115wstring_convertISt18codecvt_utf8_utf16IDsLm1114111ELSt12codecvt_mode0EEDsSaIDsESaIcEED2Ev,"axG",@progbits,_ZNSt7__cxx1115wstring_convertISt18codecvt_utf8_utf16IDsLm1114111ELSt12codecvt_mode0EEDsSaIDsESaIcEED5Ev,comdat
	.align	2
	.weak	_ZNSt7__cxx1115wstring_convertISt18codecvt_utf8_utf16IDsLm1114111ELSt12codecvt_mode0EEDsSaIDsESaIcEED2Ev
	.type	_ZNSt7__cxx1115wstring_convertISt18codecvt_utf8_utf16IDsLm1114111ELSt12codecvt_mode0EEDsSaIDsESaIcEED2Ev, %function
_ZNSt7__cxx1115wstring_convertISt18codecvt_utf8_utf16IDsLm1114111ELSt12codecvt_mode0EEDsSaIDsESaIcEED2Ev:
.LFB2135:
	.cfi_startproc
	stp	x29, x30, [sp, -32]!
	.cfi_def_cfa_offset 32
	.cfi_offset 29, -32
	.cfi_offset 30, -24
	mov	x29, sp
	str	x0, [sp, 24]
	ldr	x0, [sp, 24]
	add	x0, x0, 40
	bl	_ZNSt7__cxx1112basic_stringIDsSt11char_traitsIDsESaIDsEED1Ev
	ldr	x0, [sp, 24]
	add	x0, x0, 8
	bl	_ZNSt7__cxx1112basic_stringIcSt11char_traitsIcESaIcEED1Ev
	ldr	x0, [sp, 24]
	bl	_ZNSt10unique_ptrISt18codecvt_utf8_utf16IDsLm1114111ELSt12codecvt_mode0EESt14default_deleteIS2_EED1Ev
	nop
	ldp	x29, x30, [sp], 32
	.cfi_restore 30
	.cfi_restore 29
	.cfi_def_cfa_offset 0
	ret
	.cfi_endproc
.LFE2135:
	.size	_ZNSt7__cxx1115wstring_convertISt18codecvt_utf8_utf16IDsLm1114111ELSt12codecvt_mode0EEDsSaIDsESaIcEED2Ev, .-_ZNSt7__cxx1115wstring_convertISt18codecvt_utf8_utf16IDsLm1114111ELSt12codecvt_mode0EEDsSaIDsESaIcEED2Ev
	.weak	_ZNSt7__cxx1115wstring_convertISt18codecvt_utf8_utf16IDsLm1114111ELSt12codecvt_mode0EEDsSaIDsESaIcEED1Ev
	.set	_ZNSt7__cxx1115wstring_convertISt18codecvt_utf8_utf16IDsLm1114111ELSt12codecvt_mode0EEDsSaIDsESaIcEED1Ev,_ZNSt7__cxx1115wstring_convertISt18codecvt_utf8_utf16IDsLm1114111ELSt12codecvt_mode0EEDsSaIDsESaIcEED2Ev
	.text
	.align	2
	.global	_ZN10subprocess13utf8_to_utf16ERKNSt7__cxx1112basic_stringIcSt11char_traitsIcESaIcEEE
	.type	_ZN10subprocess13utf8_to_utf16ERKNSt7__cxx1112basic_stringIcSt11char_traitsIcESaIcEEE, %function
_ZN10subprocess13utf8_to_utf16ERKNSt7__cxx1112basic_stringIcSt11char_traitsIcESaIcEEE:
.LFB2125:
	.cfi_startproc
	.cfi_personality 0x9b,DW.ref.__gxx_personality_v0
	.cfi_lsda 0x1b,.LLSDA2125
	stp	x29, x30, [sp, -160]!
	.cfi_def_cfa_offset 160
	.cfi_offset 29, -160
	.cfi_offset 30, -152
	mov	x29, sp
	str	x19, [sp, 16]
	.cfi_offset 19, -144
	mov	x19, x8
	str	x0, [sp, 40]
	adrp	x0, :got:__stack_chk_guard
	ldr	x0, [x0, #:got_lo12:__stack_chk_guard]
	ldr	x1, [x0]
	str	x1, [sp, 152]
	mov	x1, 0
	add	x0, sp, 56
.LEHB0:
	bl	_ZNSt7__cxx1115wstring_convertISt18codecvt_utf8_utf16IDsLm1114111ELSt12codecvt_mode0EEDsSaIDsESaIcEEC1Ev
.LEHE0:
	add	x0, sp, 56
	mov	x8, x19
	ldr	x1, [sp, 40]
.LEHB1:
	bl	_ZNSt7__cxx1115wstring_convertISt18codecvt_utf8_utf16IDsLm1114111ELSt12codecvt_mode0EEDsSaIDsESaIcEE10from_bytesERKNS_12basic_stringIcSt11char_traitsIcES5_EE
.LEHE1:
	nop
	add	x0, sp, 56
	bl	_ZNSt7__cxx1115wstring_convertISt18codecvt_utf8_utf16IDsLm1114111ELSt12codecvt_mode0EEDsSaIDsESaIcEED1Ev
	nop
	adrp	x0, :got:__stack_chk_guard
	ldr	x0, [x0, #:got_lo12:__stack_chk_guard]
	ldr	x2, [sp, 152]
	ldr	x1, [x0]
	subs	x2, x2, x1
	mov	x1, 0
	beq	.L22
	b	.L24
.L23:
	mov	x19, x0
	add	x0, sp, 56
	bl	_ZNSt7__cxx1115wstring_convertISt18codecvt_utf8_utf16IDsLm1114111ELSt12codecvt_mode0EEDsSaIDsESaIcEED1Ev
	mov	x0, x19
.LEHB2:
	bl	_Unwind_Resume
.LEHE2:
.L24:
	bl	__stack_chk_fail
.L22:
	mov	x0, x19
	ldr	x19, [sp, 16]
	ldp	x29, x30, [sp], 160
	.cfi_restore 30
	.cfi_restore 29
	.cfi_restore 19
	.cfi_def_cfa_offset 0
	ret
	.cfi_endproc
.LFE2125:
	.global	__gxx_personality_v0
	.section	.gcc_except_table,"a",@progbits
.LLSDA2125:
	.byte	0xff
	.byte	0xff
	.byte	0x1
	.uleb128 .LLSDACSE2125-.LLSDACSB2125
.LLSDACSB2125:
	.uleb128 .LEHB0-.LFB2125
	.uleb128 .LEHE0-.LEHB0
	.uleb128 0
	.uleb128 0
	.uleb128 .LEHB1-.LFB2125
	.uleb128 .LEHE1-.LEHB1
	.uleb128 .L23-.LFB2125
	.uleb128 0
	.uleb128 .LEHB2-.LFB2125
	.uleb128 .LEHE2-.LEHB2
	.uleb128 0
	.uleb128 0
.LLSDACSE2125:
	.text
	.size	_ZN10subprocess13utf8_to_utf16ERKNSt7__cxx1112basic_stringIcSt11char_traitsIcESaIcEEE, .-_ZN10subprocess13utf8_to_utf16ERKNSt7__cxx1112basic_stringIcSt11char_traitsIcESaIcEEE
	.align	2
	.global	_ZN10subprocess13utf16_to_utf8ERKNSt7__cxx1112basic_stringIDsSt11char_traitsIDsESaIDsEEE
	.type	_ZN10subprocess13utf16_to_utf8ERKNSt7__cxx1112basic_stringIDsSt11char_traitsIDsESaIDsEEE, %function
_ZN10subprocess13utf16_to_utf8ERKNSt7__cxx1112basic_stringIDsSt11char_traitsIDsESaIDsEEE:
.LFB2137:
	.cfi_startproc
	.cfi_personality 0x9b,DW.ref.__gxx_personality_v0
	.cfi_lsda 0x1b,.LLSDA2137
	stp	x29, x30, [sp, -160]!
	.cfi_def_cfa_offset 160
	.cfi_offset 29, -160
	.cfi_offset 30, -152
	mov	x29, sp
	str	x19, [sp, 16]
	.cfi_offset 19, -144
	mov	x19, x8
	str	x0, [sp, 40]
	adrp	x0, :got:__stack_chk_guard
	ldr	x0, [x0, #:got_lo12:__stack_chk_guard]
	ldr	x1, [x0]
	str	x1, [sp, 152]
	mov	x1, 0
	add	x0, sp, 56
.LEHB3:
	bl	_ZNSt7__cxx1115wstring_convertISt18codecvt_utf8_utf16IDsLm1114111ELSt12codecvt_mode0EEDsSaIDsESaIcEEC1Ev
.LEHE3:
	add	x0, sp, 56
	mov	x8, x19
	ldr	x1, [sp, 40]
.LEHB4:
	bl	_ZNSt7__cxx1115wstring_convertISt18codecvt_utf8_utf16IDsLm1114111ELSt12codecvt_mode0EEDsSaIDsESaIcEE8to_bytesERKNS_12basic_stringIDsSt11char_traitsIDsES4_EE
.LEHE4:
	nop
	add	x0, sp, 56
	bl	_ZNSt7__cxx1115wstring_convertISt18codecvt_utf8_utf16IDsLm1114111ELSt12codecvt_mode0EEDsSaIDsESaIcEED1Ev
	nop
	adrp	x0, :got:__stack_chk_guard
	ldr	x0, [x0, #:got_lo12:__stack_chk_guard]
	ldr	x2, [sp, 152]
	ldr	x1, [x0]
	subs	x2, x2, x1
	mov	x1, 0
	beq	.L28
	b	.L30
.L29:
	mov	x19, x0
	add	x0, sp, 56
	bl	_ZNSt7__cxx1115wstring_convertISt18codecvt_utf8_utf16IDsLm1114111ELSt12codecvt_mode0EEDsSaIDsESaIcEED1Ev
	mov	x0, x19
.LEHB5:
	bl	_Unwind_Resume
.LEHE5:
.L30:
	bl	__stack_chk_fail
.L28:
	mov	x0, x19
	ldr	x19, [sp, 16]
	ldp	x29, x30, [sp], 160
	.cfi_restore 30
	.cfi_restore 29
	.cfi_restore 19
	.cfi_def_cfa_offset 0
	ret
	.cfi_endproc
.LFE2137:
	.section	.gcc_except_table
.LLSDA2137:
	.byte	0xff
	.byte	0xff
	.byte	0x1
	.uleb128 .LLSDACSE2137-.LLSDACSB2137
.LLSDACSB2137:
	.uleb128 .LEHB3-.LFB2137
	.uleb128 .LEHE3-.LEHB3
	.uleb128 0
	.uleb128 0
	.uleb128 .LEHB4-.LFB2137
	.uleb128 .LEHE4-.LEHB4
	.uleb128 .L29-.LFB2137
	.uleb128 0
	.uleb128 .LEHB5-.LFB2137
	.uleb128 .LEHE5-.LEHB5
	.uleb128 0
	.uleb128 0
.LLSDACSE2137:
	.text
	.size	_ZN10subprocess13utf16_to_utf8ERKNSt7__cxx1112basic_stringIDsSt11char_traitsIDsESaIDsEEE, .-_ZN10subprocess13utf16_to_utf8ERKNSt7__cxx1112basic_stringIDsSt11char_traitsIDsESaIDsEEE
	.section	.text._ZNSt7__cxx1115wstring_convertISt18codecvt_utf8_utf16IwLm1114111ELSt12codecvt_mode0EEwSaIwESaIcEED2Ev,"axG",@progbits,_ZNSt7__cxx1115wstring_convertISt18codecvt_utf8_utf16IwLm1114111ELSt12codecvt_mode0EEwSaIwESaIcEED5Ev,comdat
	.align	2
	.weak	_ZNSt7__cxx1115wstring_convertISt18codecvt_utf8_utf16IwLm1114111ELSt12codecvt_mode0EEwSaIwESaIcEED2Ev
	.type	_ZNSt7__cxx1115wstring_convertISt18codecvt_utf8_utf16IwLm1114111ELSt12codecvt_mode0EEwSaIwESaIcEED2Ev, %function
_ZNSt7__cxx1115wstring_convertISt18codecvt_utf8_utf16IwLm1114111ELSt12codecvt_mode0EEwSaIwESaIcEED2Ev:
.LFB2148:
	.cfi_startproc
	stp	x29, x30, [sp, -32]!
	.cfi_def_cfa_offset 32
	.cfi_offset 29, -32
	.cfi_offset 30, -24
	mov	x29, sp
	str	x0, [sp, 24]
	ldr	x0, [sp, 24]
	add	x0, x0, 40
	bl	_ZNSt7__cxx1112basic_stringIwSt11char_traitsIwESaIwEED1Ev
	ldr	x0, [sp, 24]
	add	x0, x0, 8
	bl	_ZNSt7__cxx1112basic_stringIcSt11char_traitsIcESaIcEED1Ev
	ldr	x0, [sp, 24]
	bl	_ZNSt10unique_ptrISt18codecvt_utf8_utf16IwLm1114111ELSt12codecvt_mode0EESt14default_deleteIS2_EED1Ev
	nop
	ldp	x29, x30, [sp], 32
	.cfi_restore 30
	.cfi_restore 29
	.cfi_def_cfa_offset 0
	ret
	.cfi_endproc
.LFE2148:
	.size	_ZNSt7__cxx1115wstring_convertISt18codecvt_utf8_utf16IwLm1114111ELSt12codecvt_mode0EEwSaIwESaIcEED2Ev, .-_ZNSt7__cxx1115wstring_convertISt18codecvt_utf8_utf16IwLm1114111ELSt12codecvt_mode0EEwSaIwESaIcEED2Ev
	.weak	_ZNSt7__cxx1115wstring_convertISt18codecvt_utf8_utf16IwLm1114111ELSt12codecvt_mode0EEwSaIwESaIcEED1Ev
	.set	_ZNSt7__cxx1115wstring_convertISt18codecvt_utf8_utf16IwLm1114111ELSt12codecvt_mode0EEwSaIwESaIcEED1Ev,_ZNSt7__cxx1115wstring_convertISt18codecvt_utf8_utf16IwLm1114111ELSt12codecvt_mode0EEwSaIwESaIcEED2Ev
	.text
	.align	2
	.global	_ZN10subprocess15utf8_to_utf16_wERKNSt7__cxx1112basic_stringIcSt11char_traitsIcESaIcEEE
	.type	_ZN10subprocess15utf8_to_utf16_wERKNSt7__cxx1112basic_stringIcSt11char_traitsIcESaIcEEE, %function
_ZN10subprocess15utf8_to_utf16_wERKNSt7__cxx1112basic_stringIcSt11char_traitsIcESaIcEEE:
.LFB2138:
	.cfi_startproc
	.cfi_personality 0x9b,DW.ref.__gxx_personality_v0
	.cfi_lsda 0x1b,.LLSDA2138
	stp	x29, x30, [sp, -160]!
	.cfi_def_cfa_offset 160
	.cfi_offset 29, -160
	.cfi_offset 30, -152
	mov	x29, sp
	str	x19, [sp, 16]
	.cfi_offset 19, -144
	mov	x19, x8
	str	x0, [sp, 40]
	adrp	x0, :got:__stack_chk_guard
	ldr	x0, [x0, #:got_lo12:__stack_chk_guard]
	ldr	x1, [x0]
	str	x1, [sp, 152]
	mov	x1, 0
	add	x0, sp, 56
.LEHB6:
	bl	_ZNSt7__cxx1115wstring_convertISt18codecvt_utf8_utf16IwLm1114111ELSt12codecvt_mode0EEwSaIwESaIcEEC1Ev
.LEHE6:
	add	x0, sp, 56
	mov	x8, x19
	ldr	x1, [sp, 40]
.LEHB7:
	bl	_ZNSt7__cxx1115wstring_convertISt18codecvt_utf8_utf16IwLm1114111ELSt12codecvt_mode0EEwSaIwESaIcEE10from_bytesERKNS_12basic_stringIcSt11char_traitsIcES5_EE
.LEHE7:
	nop
	add	x0, sp, 56
	bl	_ZNSt7__cxx1115wstring_convertISt18codecvt_utf8_utf16IwLm1114111ELSt12codecvt_mode0EEwSaIwESaIcEED1Ev
	nop
	adrp	x0, :got:__stack_chk_guard
	ldr	x0, [x0, #:got_lo12:__stack_chk_guard]
	ldr	x2, [sp, 152]
	ldr	x1, [x0]
	subs	x2, x2, x1
	mov	x1, 0
	beq	.L35
	b	.L37
.L36:
	mov	x19, x0
	add	x0, sp, 56
	bl	_ZNSt7__cxx1115wstring_convertISt18codecvt_utf8_utf16IwLm1114111ELSt12codecvt_mode0EEwSaIwESaIcEED1Ev
	mov	x0, x19
.LEHB8:
	bl	_Unwind_Resume
.LEHE8:
.L37:
	bl	__stack_chk_fail
.L35:
	mov	x0, x19
	ldr	x19, [sp, 16]
	ldp	x29, x30, [sp], 160
	.cfi_restore 30
	.cfi_restore 29
	.cfi_restore 19
	.cfi_def_cfa_offset 0
	ret
	.cfi_endproc
.LFE2138:
	.section	.gcc_except_table
.LLSDA2138:
	.byte	0xff
	.byte	0xff
	.byte	0x1
	.uleb128 .LLSDACSE2138-.LLSDACSB2138
.LLSDACSB2138:
	.uleb128 .LEHB6-.LFB2138
	.uleb128 .LEHE6-.LEHB6
	.uleb128 0
	.uleb128 0
	.uleb128 .LEHB7-.LFB2138
	.uleb128 .LEHE7-.LEHB7
	.uleb128 .L36-.LFB2138
	.uleb128 0
	.uleb128 .LEHB8-.LFB2138
	.uleb128 .LEHE8-.LEHB8
	.uleb128 0
	.uleb128 0
.LLSDACSE2138:
	.text
	.size	_ZN10subprocess15utf8_to_utf16_wERKNSt7__cxx1112basic_stringIcSt11char_traitsIcESaIcEEE, .-_ZN10subprocess15utf8_to_utf16_wERKNSt7__cxx1112basic_stringIcSt11char_traitsIcESaIcEEE
	.align	2
	.global	_ZN10subprocess13utf16_to_utf8ERKNSt7__cxx1112basic_stringIwSt11char_traitsIwESaIwEEE
	.type	_ZN10subprocess13utf16_to_utf8ERKNSt7__cxx1112basic_stringIwSt11char_traitsIwESaIwEEE, %function
_ZN10subprocess13utf16_to_utf8ERKNSt7__cxx1112basic_stringIwSt11char_traitsIwESaIwEEE:
.LFB2150:
	.cfi_startproc
	.cfi_personality 0x9b,DW.ref.__gxx_personality_v0
	.cfi_lsda 0x1b,.LLSDA2150
	stp	x29, x30, [sp, -160]!
	.cfi_def_cfa_offset 160
	.cfi_offset 29, -160
	.cfi_offset 30, -152
	mov	x29, sp
	str	x19, [sp, 16]
	.cfi_offset 19, -144
	mov	x19, x8
	str	x0, [sp, 40]
	adrp	x0, :got:__stack_chk_guard
	ldr	x0, [x0, #:got_lo12:__stack_chk_guard]
	ldr	x1, [x0]
	str	x1, [sp, 152]
	mov	x1, 0
	add	x0, sp, 56
.LEHB9:
	bl	_ZNSt7__cxx1115wstring_convertISt18codecvt_utf8_utf16IwLm1114111ELSt12codecvt_mode0EEwSaIwESaIcEEC1Ev
.LEHE9:
	add	x0, sp, 56
	mov	x8, x19
	ldr	x1, [sp, 40]
.LEHB10:
	bl	_ZNSt7__cxx1115wstring_convertISt18codecvt_utf8_utf16IwLm1114111ELSt12codecvt_mode0EEwSaIwESaIcEE8to_bytesERKNS_12basic_stringIwSt11char_traitsIwES4_EE
.LEHE10:
	nop
	add	x0, sp, 56
	bl	_ZNSt7__cxx1115wstring_convertISt18codecvt_utf8_utf16IwLm1114111ELSt12codecvt_mode0EEwSaIwESaIcEED1Ev
	nop
	adrp	x0, :got:__stack_chk_guard
	ldr	x0, [x0, #:got_lo12:__stack_chk_guard]
	ldr	x2, [sp, 152]
	ldr	x1, [x0]
	subs	x2, x2, x1
	mov	x1, 0
	beq	.L41
	b	.L43
.L42:
	mov	x19, x0
	add	x0, sp, 56
	bl	_ZNSt7__cxx1115wstring_convertISt18codecvt_utf8_utf16IwLm1114111ELSt12codecvt_mode0EEwSaIwESaIcEED1Ev
	mov	x0, x19
.LEHB11:
	bl	_Unwind_Resume
.LEHE11:
.L43:
	bl	__stack_chk_fail
.L41:
	mov	x0, x19
	ldr	x19, [sp, 16]
	ldp	x29, x30, [sp], 160
	.cfi_restore 30
	.cfi_restore 29
	.cfi_restore 19
	.cfi_def_cfa_offset 0
	ret
	.cfi_endproc
.LFE2150:
	.section	.gcc_except_table
.LLSDA2150:
	.byte	0xff
	.byte	0xff
	.byte	0x1
	.uleb128 .LLSDACSE2150-.LLSDACSB2150
.LLSDACSB2150:
	.uleb128 .LEHB9-.LFB2150
	.uleb128 .LEHE9-.LEHB9
	.uleb128 0
	.uleb128 0
	.uleb128 .LEHB10-.LFB2150
	.uleb128 .LEHE10-.LEHB10
	.uleb128 .L42-.LFB2150
	.uleb128 0
	.uleb128 .LEHB11-.LFB2150
	.uleb128 .LEHE11-.LEHB11
	.uleb128 0
	.uleb128 0
.LLSDACSE2150:
	.text
	.size	_ZN10subprocess13utf16_to_utf8ERKNSt7__cxx1112basic_stringIwSt11char_traitsIwESaIwEEE, .-_ZN10subprocess13utf16_to_utf8ERKNSt7__cxx1112basic_stringIwSt11char_traitsIwESaIwEEE
	.section	.text._ZNKSt7__cxx1112basic_stringIDsSt11char_traitsIDsESaIDsEE4dataEv,"axG",@progbits,_ZNKSt7__cxx1112basic_stringIDsSt11char_traitsIDsESaIDsEE4dataEv,comdat
	.align	2
	.weak	_ZNKSt7__cxx1112basic_stringIDsSt11char_traitsIDsESaIDsEE4dataEv
	.type	_ZNKSt7__cxx1112basic_stringIDsSt11char_traitsIDsESaIDsEE4dataEv, %function
_ZNKSt7__cxx1112basic_stringIDsSt11char_traitsIDsESaIDsEE4dataEv:
.LFB2359:
	.cfi_startproc
	stp	x29, x30, [sp, -32]!
	.cfi_def_cfa_offset 32
	.cfi_offset 29, -32
	.cfi_offset 30, -24
	mov	x29, sp
	str	x0, [sp, 24]
	ldr	x0, [sp, 24]
	bl	_ZNKSt7__cxx1112basic_stringIDsSt11char_traitsIDsESaIDsEE7_M_dataEv
	ldp	x29, x30, [sp], 32
	.cfi_restore 30
	.cfi_restore 29
	.cfi_def_cfa_offset 0
	ret
	.cfi_endproc
.LFE2359:
	.size	_ZNKSt7__cxx1112basic_stringIDsSt11char_traitsIDsESaIDsEE4dataEv, .-_ZNKSt7__cxx1112basic_stringIDsSt11char_traitsIDsESaIDsEE4dataEv
	.section	.text._ZNKSt7__cxx1112basic_stringIDsSt11char_traitsIDsESaIDsEE6lengthEv,"axG",@progbits,_ZNKSt7__cxx1112basic_stringIDsSt11char_traitsIDsESaIDsEE6lengthEv,comdat
	.align	2
	.weak	_ZNKSt7__cxx1112basic_stringIDsSt11char_traitsIDsESaIDsEE6lengthEv
	.type	_ZNKSt7__cxx1112basic_stringIDsSt11char_traitsIDsESaIDsEE6lengthEv, %function
_ZNKSt7__cxx1112basic_stringIDsSt11char_traitsIDsESaIDsEE6lengthEv:
.LFB2360:
	.cfi_startproc
	sub	sp, sp, #16
	.cfi_def_cfa_offset 16
	str	x0, [sp, 8]
	ldr	x0, [sp, 8]
	ldr	x0, [x0, 8]
	add	sp, sp, 16
	.cfi_def_cfa_offset 0
	ret
	.cfi_endproc
.LFE2360:
	.size	_ZNKSt7__cxx1112basic_stringIDsSt11char_traitsIDsESaIDsEE6lengthEv, .-_ZNKSt7__cxx1112basic_stringIDsSt11char_traitsIDsESaIDsEE6lengthEv
	.section	.text._ZNSaIDsEC2Ev,"axG",@progbits,_ZNSaIDsEC5Ev,comdat
	.align	2
	.weak	_ZNSaIDsEC2Ev
	.type	_ZNSaIDsEC2Ev, %function
_ZNSaIDsEC2Ev:
.LFB2376:
	.cfi_startproc
	stp	x29, x30, [sp, -32]!
	.cfi_def_cfa_offset 32
	.cfi_offset 29, -32
	.cfi_offset 30, -24
	mov	x29, sp
	str	x0, [sp, 24]
	ldr	x0, [sp, 24]
	bl	_ZN9__gnu_cxx13new_allocatorIDsEC2Ev
	nop
	ldp	x29, x30, [sp], 32
	.cfi_restore 30
	.cfi_restore 29
	.cfi_def_cfa_offset 0
	ret
	.cfi_endproc
.LFE2376:
	.size	_ZNSaIDsEC2Ev, .-_ZNSaIDsEC2Ev
	.weak	_ZNSaIDsEC1Ev
	.set	_ZNSaIDsEC1Ev,_ZNSaIDsEC2Ev
	.section	.text._ZNSaIDsED2Ev,"axG",@progbits,_ZNSaIDsED5Ev,comdat
	.align	2
	.weak	_ZNSaIDsED2Ev
	.type	_ZNSaIDsED2Ev, %function
_ZNSaIDsED2Ev:
.LFB2379:
	.cfi_startproc
	stp	x29, x30, [sp, -32]!
	.cfi_def_cfa_offset 32
	.cfi_offset 29, -32
	.cfi_offset 30, -24
	mov	x29, sp
	str	x0, [sp, 24]
	ldr	x0, [sp, 24]
	bl	_ZN9__gnu_cxx13new_allocatorIDsED2Ev
	nop
	ldp	x29, x30, [sp], 32
	.cfi_restore 30
	.cfi_restore 29
	.cfi_def_cfa_offset 0
	ret
	.cfi_endproc
.LFE2379:
	.size	_ZNSaIDsED2Ev, .-_ZNSaIDsED2Ev
	.weak	_ZNSaIDsED1Ev
	.set	_ZNSaIDsED1Ev,_ZNSaIDsED2Ev
	.section	.text._ZNSt7__cxx1112basic_stringIDsSt11char_traitsIDsESaIDsEE12_Alloc_hiderD2Ev,"axG",@progbits,_ZNSt7__cxx1112basic_stringIDsSt11char_traitsIDsESaIDsEE12_Alloc_hiderD5Ev,comdat
	.align	2
	.weak	_ZNSt7__cxx1112basic_stringIDsSt11char_traitsIDsESaIDsEE12_Alloc_hiderD2Ev
	.type	_ZNSt7__cxx1112basic_stringIDsSt11char_traitsIDsESaIDsEE12_Alloc_hiderD2Ev, %function
_ZNSt7__cxx1112basic_stringIDsSt11char_traitsIDsESaIDsEE12_Alloc_hiderD2Ev:
.LFB2383:
	.cfi_startproc
	stp	x29, x30, [sp, -32]!
	.cfi_def_cfa_offset 32
	.cfi_offset 29, -32
	.cfi_offset 30, -24
	mov	x29, sp
	str	x0, [sp, 24]
	ldr	x0, [sp, 24]
	bl	_ZNSaIDsED2Ev
	nop
	ldp	x29, x30, [sp], 32
	.cfi_restore 30
	.cfi_restore 29
	.cfi_def_cfa_offset 0
	ret
	.cfi_endproc
.LFE2383:
	.size	_ZNSt7__cxx1112basic_stringIDsSt11char_traitsIDsESaIDsEE12_Alloc_hiderD2Ev, .-_ZNSt7__cxx1112basic_stringIDsSt11char_traitsIDsESaIDsEE12_Alloc_hiderD2Ev
	.weak	_ZNSt7__cxx1112basic_stringIDsSt11char_traitsIDsESaIDsEE12_Alloc_hiderD1Ev
	.set	_ZNSt7__cxx1112basic_stringIDsSt11char_traitsIDsESaIDsEE12_Alloc_hiderD1Ev,_ZNSt7__cxx1112basic_stringIDsSt11char_traitsIDsESaIDsEE12_Alloc_hiderD2Ev
	.section	.text._ZNSt7__cxx1112basic_stringIDsSt11char_traitsIDsESaIDsEED2Ev,"axG",@progbits,_ZNSt7__cxx1112basic_stringIDsSt11char_traitsIDsESaIDsEED5Ev,comdat
	.align	2
	.weak	_ZNSt7__cxx1112basic_stringIDsSt11char_traitsIDsESaIDsEED2Ev
	.type	_ZNSt7__cxx1112basic_stringIDsSt11char_traitsIDsESaIDsEED2Ev, %function
_ZNSt7__cxx1112basic_stringIDsSt11char_traitsIDsESaIDsEED2Ev:
.LFB2388:
	.cfi_startproc
	.cfi_personality 0x9b,DW.ref.__gxx_personality_v0
	.cfi_lsda 0x1b,.LLSDA2388
	stp	x29, x30, [sp, -32]!
	.cfi_def_cfa_offset 32
	.cfi_offset 29, -32
	.cfi_offset 30, -24
	mov	x29, sp
	str	x0, [sp, 24]
	ldr	x0, [sp, 24]
	bl	_ZNSt7__cxx1112basic_stringIDsSt11char_traitsIDsESaIDsEE10_M_disposeEv
	ldr	x0, [sp, 24]
	bl	_ZNSt7__cxx1112basic_stringIDsSt11char_traitsIDsESaIDsEE12_Alloc_hiderD1Ev
	nop
	ldp	x29, x30, [sp], 32
	.cfi_restore 30
	.cfi_restore 29
	.cfi_def_cfa_offset 0
	ret
	.cfi_endproc
.LFE2388:
	.section	.gcc_except_table
.LLSDA2388:
	.byte	0xff
	.byte	0xff
	.byte	0x1
	.uleb128 .LLSDACSE2388-.LLSDACSB2388
.LLSDACSB2388:
.LLSDACSE2388:
	.section	.text._ZNSt7__cxx1112basic_stringIDsSt11char_traitsIDsESaIDsEED2Ev,"axG",@progbits,_ZNSt7__cxx1112basic_stringIDsSt11char_traitsIDsESaIDsEED5Ev,comdat
	.size	_ZNSt7__cxx1112basic_stringIDsSt11char_traitsIDsESaIDsEED2Ev, .-_ZNSt7__cxx1112basic_stringIDsSt11char_traitsIDsESaIDsEED2Ev
	.weak	_ZNSt7__cxx1112basic_stringIDsSt11char_traitsIDsESaIDsEED1Ev
	.set	_ZNSt7__cxx1112basic_stringIDsSt11char_traitsIDsESaIDsEED1Ev,_ZNSt7__cxx1112basic_stringIDsSt11char_traitsIDsESaIDsEED2Ev
	.section	.text._ZNSt23__codecvt_abstract_baseIDsc11__mbstate_tEC2Em,"axG",@progbits,_ZNSt23__codecvt_abstract_baseIDsc11__mbstate_tEC5Em,comdat
	.align	2
	.weak	_ZNSt23__codecvt_abstract_baseIDsc11__mbstate_tEC2Em
	.type	_ZNSt23__codecvt_abstract_baseIDsc11__mbstate_tEC2Em, %function
_ZNSt23__codecvt_abstract_baseIDsc11__mbstate_tEC2Em:
.LFB2412:
	.cfi_startproc
	stp	x29, x30, [sp, -32]!
	.cfi_def_cfa_offset 32
	.cfi_offset 29, -32
	.cfi_offset 30, -24
	mov	x29, sp
	str	x0, [sp, 24]
	str	x1, [sp, 16]
	ldr	x0, [sp, 24]
	ldr	x1, [sp, 16]
	bl	_ZNSt6locale5facetC2Em
	adrp	x0, _ZTVSt23__codecvt_abstract_baseIDsc11__mbstate_tE+16
	add	x1, x0, :lo12:_ZTVSt23__codecvt_abstract_baseIDsc11__mbstate_tE+16
	ldr	x0, [sp, 24]
	str	x1, [x0]
	nop
	ldp	x29, x30, [sp], 32
	.cfi_restore 30
	.cfi_restore 29
	.cfi_def_cfa_offset 0
	ret
	.cfi_endproc
.LFE2412:
	.size	_ZNSt23__codecvt_abstract_baseIDsc11__mbstate_tEC2Em, .-_ZNSt23__codecvt_abstract_baseIDsc11__mbstate_tEC2Em
	.weak	_ZNSt23__codecvt_abstract_baseIDsc11__mbstate_tEC1Em
	.set	_ZNSt23__codecvt_abstract_baseIDsc11__mbstate_tEC1Em,_ZNSt23__codecvt_abstract_baseIDsc11__mbstate_tEC2Em
	.section	.text._ZNSt7__cxx1115wstring_convertISt18codecvt_utf8_utf16IDsLm1114111ELSt12codecvt_mode0EEDsSaIDsESaIcEEC2Ev,"axG",@progbits,_ZNSt7__cxx1115wstring_convertISt18codecvt_utf8_utf16IDsLm1114111ELSt12codecvt_mode0EEDsSaIDsESaIcEEC5Ev,comdat
	.align	2
	.weak	_ZNSt7__cxx1115wstring_convertISt18codecvt_utf8_utf16IDsLm1114111ELSt12codecvt_mode0EEDsSaIDsESaIcEEC2Ev
	.type	_ZNSt7__cxx1115wstring_convertISt18codecvt_utf8_utf16IDsLm1114111ELSt12codecvt_mode0EEDsSaIDsESaIcEEC2Ev, %function
_ZNSt7__cxx1115wstring_convertISt18codecvt_utf8_utf16IDsLm1114111ELSt12codecvt_mode0EEDsSaIDsESaIcEEC2Ev:
.LFB2428:
	.cfi_startproc
	.cfi_personality 0x9b,DW.ref.__gxx_personality_v0
	.cfi_lsda 0x1b,.LLSDA2428
	stp	x29, x30, [sp, -48]!
	.cfi_def_cfa_offset 48
	.cfi_offset 29, -48
	.cfi_offset 30, -40
	mov	x29, sp
	stp	x19, x20, [sp, 16]
	.cfi_offset 19, -32
	.cfi_offset 20, -24
	str	x0, [sp, 40]
	ldr	x20, [sp, 40]
	mov	x0, 32
.LEHB12:
	bl	_Znwm
.LEHE12:
	mov	x19, x0
	mov	x1, 0
	mov	x0, x19
.LEHB13:
	bl	_ZNSt18codecvt_utf8_utf16IDsLm1114111ELSt12codecvt_mode0EEC1Em
.LEHE13:
	mov	x1, x19
	mov	x0, x20
	bl	_ZNSt10unique_ptrISt18codecvt_utf8_utf16IDsLm1114111ELSt12codecvt_mode0EESt14default_deleteIS2_EEC1IS4_vEEPS2_
	ldr	x0, [sp, 40]
	add	x0, x0, 8
	bl	_ZNSt7__cxx1112basic_stringIcSt11char_traitsIcESaIcEEC1Ev
	ldr	x0, [sp, 40]
	add	x0, x0, 40
	bl	_ZNSt7__cxx1112basic_stringIDsSt11char_traitsIDsESaIDsEEC1Ev
	ldr	x0, [sp, 40]
	str	wzr, [x0, 72]
	ldr	x0, [sp, 40]
	str	wzr, [x0, 76]
	ldr	x0, [sp, 40]
	str	xzr, [x0, 80]
	ldr	x0, [sp, 40]
	strb	wzr, [x0, 88]
	ldr	x0, [sp, 40]
	strb	wzr, [x0, 89]
	b	.L56
.L55:
	mov	x20, x0
	mov	x1, 32
	mov	x0, x19
	bl	_ZdlPvm
	mov	x0, x20
.LEHB14:
	bl	_Unwind_Resume
.LEHE14:
.L56:
	ldp	x19, x20, [sp, 16]
	ldp	x29, x30, [sp], 48
	.cfi_restore 30
	.cfi_restore 29
	.cfi_restore 19
	.cfi_restore 20
	.cfi_def_cfa_offset 0
	ret
	.cfi_endproc
.LFE2428:
	.section	.gcc_except_table
.LLSDA2428:
	.byte	0xff
	.byte	0xff
	.byte	0x1
	.uleb128 .LLSDACSE2428-.LLSDACSB2428
.LLSDACSB2428:
	.uleb128 .LEHB12-.LFB2428
	.uleb128 .LEHE12-.LEHB12
	.uleb128 0
	.uleb128 0
	.uleb128 .LEHB13-.LFB2428
	.uleb128 .LEHE13-.LEHB13
	.uleb128 .L55-.LFB2428
	.uleb128 0
	.uleb128 .LEHB14-.LFB2428
	.uleb128 .LEHE14-.LEHB14
	.uleb128 0
	.uleb128 0
.LLSDACSE2428:
	.section	.text._ZNSt7__cxx1115wstring_convertISt18codecvt_utf8_utf16IDsLm1114111ELSt12codecvt_mode0EEDsSaIDsESaIcEEC2Ev,"axG",@progbits,_ZNSt7__cxx1115wstring_convertISt18codecvt_utf8_utf16IDsLm1114111ELSt12codecvt_mode0EEDsSaIDsESaIcEEC5Ev,comdat
	.size	_ZNSt7__cxx1115wstring_convertISt18codecvt_utf8_utf16IDsLm1114111ELSt12codecvt_mode0EEDsSaIDsESaIcEEC2Ev, .-_ZNSt7__cxx1115wstring_convertISt18codecvt_utf8_utf16IDsLm1114111ELSt12codecvt_mode0EEDsSaIDsESaIcEEC2Ev
	.weak	_ZNSt7__cxx1115wstring_convertISt18codecvt_utf8_utf16IDsLm1114111ELSt12codecvt_mode0EEDsSaIDsESaIcEEC1Ev
	.set	_ZNSt7__cxx1115wstring_convertISt18codecvt_utf8_utf16IDsLm1114111ELSt12codecvt_mode0EEDsSaIDsESaIcEEC1Ev,_ZNSt7__cxx1115wstring_convertISt18codecvt_utf8_utf16IDsLm1114111ELSt12codecvt_mode0EEDsSaIDsESaIcEEC2Ev
	.section	.text._ZNSt10unique_ptrISt18codecvt_utf8_utf16IDsLm1114111ELSt12codecvt_mode0EESt14default_deleteIS2_EED2Ev,"axG",@progbits,_ZNSt10unique_ptrISt18codecvt_utf8_utf16IDsLm1114111ELSt12codecvt_mode0EESt14default_deleteIS2_EED5Ev,comdat
	.align	2
	.weak	_ZNSt10unique_ptrISt18codecvt_utf8_utf16IDsLm1114111ELSt12codecvt_mode0EESt14default_deleteIS2_EED2Ev
	.type	_ZNSt10unique_ptrISt18codecvt_utf8_utf16IDsLm1114111ELSt12codecvt_mode0EESt14default_deleteIS2_EED2Ev, %function
_ZNSt10unique_ptrISt18codecvt_utf8_utf16IDsLm1114111ELSt12codecvt_mode0EESt14default_deleteIS2_EED2Ev:
.LFB2431:
	.cfi_startproc
	stp	x29, x30, [sp, -64]!
	.cfi_def_cfa_offset 64
	.cfi_offset 29, -64
	.cfi_offset 30, -56
	mov	x29, sp
	str	x19, [sp, 16]
	.cfi_offset 19, -48
	str	x0, [sp, 40]
	ldr	x0, [sp, 40]
	bl	_ZNSt15__uniq_ptr_implISt18codecvt_utf8_utf16IDsLm1114111ELSt12codecvt_mode0EESt14default_deleteIS2_EE6_M_ptrEv
	str	x0, [sp, 56]
	ldr	x0, [sp, 56]
	ldr	x0, [x0]
	cmp	x0, 0
	beq	.L58
	ldr	x0, [sp, 40]
	bl	_ZNSt10unique_ptrISt18codecvt_utf8_utf16IDsLm1114111ELSt12codecvt_mode0EESt14default_deleteIS2_EE11get_deleterEv
	mov	x19, x0
	ldr	x0, [sp, 56]
	bl	_ZSt4moveIRPSt18codecvt_utf8_utf16IDsLm1114111ELSt12codecvt_mode0EEEONSt16remove_referenceIT_E4typeEOS6_
	ldr	x0, [x0]
	mov	x1, x0
	mov	x0, x19
	bl	_ZNKSt14default_deleteISt18codecvt_utf8_utf16IDsLm1114111ELSt12codecvt_mode0EEEclEPS2_
.L58:
	ldr	x0, [sp, 56]
	str	xzr, [x0]
	nop
	ldr	x19, [sp, 16]
	ldp	x29, x30, [sp], 64
	.cfi_restore 30
	.cfi_restore 29
	.cfi_restore 19
	.cfi_def_cfa_offset 0
	ret
	.cfi_endproc
.LFE2431:
	.size	_ZNSt10unique_ptrISt18codecvt_utf8_utf16IDsLm1114111ELSt12codecvt_mode0EESt14default_deleteIS2_EED2Ev, .-_ZNSt10unique_ptrISt18codecvt_utf8_utf16IDsLm1114111ELSt12codecvt_mode0EESt14default_deleteIS2_EED2Ev
	.weak	_ZNSt10unique_ptrISt18codecvt_utf8_utf16IDsLm1114111ELSt12codecvt_mode0EESt14default_deleteIS2_EED1Ev
	.set	_ZNSt10unique_ptrISt18codecvt_utf8_utf16IDsLm1114111ELSt12codecvt_mode0EESt14default_deleteIS2_EED1Ev,_ZNSt10unique_ptrISt18codecvt_utf8_utf16IDsLm1114111ELSt12codecvt_mode0EESt14default_deleteIS2_EED2Ev
	.section	.text._ZNSt7__cxx1115wstring_convertISt18codecvt_utf8_utf16IDsLm1114111ELSt12codecvt_mode0EEDsSaIDsESaIcEE10from_bytesERKNS_12basic_stringIcSt11char_traitsIcES5_EE,"axG",@progbits,_ZNSt7__cxx1115wstring_convertISt18codecvt_utf8_utf16IDsLm1114111ELSt12codecvt_mode0EEDsSaIDsESaIcEE10from_bytesERKNS_12basic_stringIcSt11char_traitsIcES5_EE,comdat
	.align	2
	.weak	_ZNSt7__cxx1115wstring_convertISt18codecvt_utf8_utf16IDsLm1114111ELSt12codecvt_mode0EEDsSaIDsESaIcEE10from_bytesERKNS_12basic_stringIcSt11char_traitsIcES5_EE
	.type	_ZNSt7__cxx1115wstring_convertISt18codecvt_utf8_utf16IDsLm1114111ELSt12codecvt_mode0EEDsSaIDsESaIcEE10from_bytesERKNS_12basic_stringIcSt11char_traitsIcES5_EE, %function
_ZNSt7__cxx1115wstring_convertISt18codecvt_utf8_utf16IDsLm1114111ELSt12codecvt_mode0EEDsSaIDsESaIcEE10from_bytesERKNS_12basic_stringIcSt11char_traitsIcES5_EE:
.LFB2433:
	.cfi_startproc
	stp	x29, x30, [sp, -64]!
	.cfi_def_cfa_offset 64
	.cfi_offset 29, -64
	.cfi_offset 30, -56
	mov	x29, sp
	str	x19, [sp, 16]
	.cfi_offset 19, -48
	mov	x19, x8
	str	x0, [sp, 40]
	str	x1, [sp, 32]
	adrp	x0, :got:__stack_chk_guard
	ldr	x0, [x0, #:got_lo12:__stack_chk_guard]
	ldr	x1, [x0]
	str	x1, [sp, 56]
	mov	x1, 0
	ldr	x0, [sp, 32]
	bl	_ZNKSt7__cxx1112basic_stringIcSt11char_traitsIcESaIcEE4dataEv
	str	x0, [sp, 48]
	ldr	x0, [sp, 32]
	bl	_ZNKSt7__cxx1112basic_stringIcSt11char_traitsIcESaIcEE4sizeEv
	mov	x1, x0
	ldr	x0, [sp, 48]
	add	x0, x0, x1
	mov	x8, x19
	mov	x2, x0
	ldr	x1, [sp, 48]
	ldr	x0, [sp, 40]
	bl	_ZNSt7__cxx1115wstring_convertISt18codecvt_utf8_utf16IDsLm1114111ELSt12codecvt_mode0EEDsSaIDsESaIcEE10from_bytesEPKcS8_
	adrp	x0, :got:__stack_chk_guard
	ldr	x0, [x0, #:got_lo12:__stack_chk_guard]
	ldr	x2, [sp, 56]
	ldr	x1, [x0]
	subs	x2, x2, x1
	mov	x1, 0
	beq	.L61
	bl	__stack_chk_fail
.L61:
	mov	x0, x19
	ldr	x19, [sp, 16]
	ldp	x29, x30, [sp], 64
	.cfi_restore 30
	.cfi_restore 29
	.cfi_restore 19
	.cfi_def_cfa_offset 0
	ret
	.cfi_endproc
.LFE2433:
	.size	_ZNSt7__cxx1115wstring_convertISt18codecvt_utf8_utf16IDsLm1114111ELSt12codecvt_mode0EEDsSaIDsESaIcEE10from_bytesERKNS_12basic_stringIcSt11char_traitsIcES5_EE, .-_ZNSt7__cxx1115wstring_convertISt18codecvt_utf8_utf16IDsLm1114111ELSt12codecvt_mode0EEDsSaIDsESaIcEE10from_bytesERKNS_12basic_stringIcSt11char_traitsIcES5_EE
	.section	.text._ZNSt7__cxx1112basic_stringIDsSt11char_traitsIDsESaIDsEEC2EOS4_,"axG",@progbits,_ZNSt7__cxx1112basic_stringIDsSt11char_traitsIDsESaIDsEEC5EOS4_,comdat
	.align	2
	.weak	_ZNSt7__cxx1112basic_stringIDsSt11char_traitsIDsESaIDsEEC2EOS4_
	.type	_ZNSt7__cxx1112basic_stringIDsSt11char_traitsIDsESaIDsEEC2EOS4_, %function
_ZNSt7__cxx1112basic_stringIDsSt11char_traitsIDsESaIDsEEC2EOS4_:
.LFB2435:
	.cfi_startproc
	.cfi_personality 0x9b,DW.ref.__gxx_personality_v0
	.cfi_lsda 0x1b,.LLSDA2435
	stp	x29, x30, [sp, -48]!
	.cfi_def_cfa_offset 48
	.cfi_offset 29, -48
	.cfi_offset 30, -40
	mov	x29, sp
	stp	x19, x20, [sp, 16]
	.cfi_offset 19, -32
	.cfi_offset 20, -24
	str	x0, [sp, 40]
	str	x1, [sp, 32]
	ldr	x19, [sp, 40]
	ldr	x0, [sp, 40]
	bl	_ZNSt7__cxx1112basic_stringIDsSt11char_traitsIDsESaIDsEE13_M_local_dataEv
	mov	x20, x0
	ldr	x0, [sp, 32]
	bl	_ZNSt7__cxx1112basic_stringIDsSt11char_traitsIDsESaIDsEE16_M_get_allocatorEv
	bl	_ZSt4moveIRSaIDsEEONSt16remove_referenceIT_E4typeEOS3_
	mov	x2, x0
	mov	x1, x20
	mov	x0, x19
	bl	_ZNSt7__cxx1112basic_stringIDsSt11char_traitsIDsESaIDsEE12_Alloc_hiderC1EPDsOS3_
	ldr	x0, [sp, 32]
	bl	_ZNKSt7__cxx1112basic_stringIDsSt11char_traitsIDsESaIDsEE11_M_is_localEv
	and	w0, w0, 255
	cmp	w0, 0
	beq	.L63
	ldr	x0, [sp, 40]
	add	x3, x0, 16
	ldr	x0, [sp, 32]
	add	x0, x0, 16
	mov	x2, 8
	mov	x1, x0
	mov	x0, x3
	bl	_ZNSt11char_traitsIDsE4copyEPDsPKDsm
	b	.L64
.L63:
	ldr	x0, [sp, 32]
	bl	_ZNKSt7__cxx1112basic_stringIDsSt11char_traitsIDsESaIDsEE7_M_dataEv
	mov	x1, x0
	ldr	x0, [sp, 40]
	bl	_ZNSt7__cxx1112basic_stringIDsSt11char_traitsIDsESaIDsEE7_M_dataEPDs
	ldr	x0, [sp, 32]
	ldr	x0, [x0, 16]
	mov	x1, x0
	ldr	x0, [sp, 40]
	bl	_ZNSt7__cxx1112basic_stringIDsSt11char_traitsIDsESaIDsEE11_M_capacityEm
.L64:
	ldr	x0, [sp, 32]
	bl	_ZNKSt7__cxx1112basic_stringIDsSt11char_traitsIDsESaIDsEE6lengthEv
	mov	x1, x0
	ldr	x0, [sp, 40]
	bl	_ZNSt7__cxx1112basic_stringIDsSt11char_traitsIDsESaIDsEE9_M_lengthEm
	ldr	x0, [sp, 32]
	bl	_ZNSt7__cxx1112basic_stringIDsSt11char_traitsIDsESaIDsEE13_M_local_dataEv
	mov	x1, x0
	ldr	x0, [sp, 32]
	bl	_ZNSt7__cxx1112basic_stringIDsSt11char_traitsIDsESaIDsEE7_M_dataEPDs
	mov	x1, 0
	ldr	x0, [sp, 32]
	bl	_ZNSt7__cxx1112basic_stringIDsSt11char_traitsIDsESaIDsEE13_M_set_lengthEm
	nop
	ldp	x19, x20, [sp, 16]
	ldp	x29, x30, [sp], 48
	.cfi_restore 30
	.cfi_restore 29
	.cfi_restore 19
	.cfi_restore 20
	.cfi_def_cfa_offset 0
	ret
	.cfi_endproc
.LFE2435:
	.section	.gcc_except_table
.LLSDA2435:
	.byte	0xff
	.byte	0xff
	.byte	0x1
	.uleb128 .LLSDACSE2435-.LLSDACSB2435
.LLSDACSB2435:
.LLSDACSE2435:
	.section	.text._ZNSt7__cxx1112basic_stringIDsSt11char_traitsIDsESaIDsEEC2EOS4_,"axG",@progbits,_ZNSt7__cxx1112basic_stringIDsSt11char_traitsIDsESaIDsEEC5EOS4_,comdat
	.size	_ZNSt7__cxx1112basic_stringIDsSt11char_traitsIDsESaIDsEEC2EOS4_, .-_ZNSt7__cxx1112basic_stringIDsSt11char_traitsIDsESaIDsEEC2EOS4_
	.weak	_ZNSt7__cxx1112basic_stringIDsSt11char_traitsIDsESaIDsEEC1EOS4_
	.set	_ZNSt7__cxx1112basic_stringIDsSt11char_traitsIDsESaIDsEEC1EOS4_,_ZNSt7__cxx1112basic_stringIDsSt11char_traitsIDsESaIDsEEC2EOS4_
	.section	.text._ZNSt7__cxx1115wstring_convertISt18codecvt_utf8_utf16IDsLm1114111ELSt12codecvt_mode0EEDsSaIDsESaIcEE8to_bytesERKNS_12basic_stringIDsSt11char_traitsIDsES4_EE,"axG",@progbits,_ZNSt7__cxx1115wstring_convertISt18codecvt_utf8_utf16IDsLm1114111ELSt12codecvt_mode0EEDsSaIDsESaIcEE8to_bytesERKNS_12basic_stringIDsSt11char_traitsIDsES4_EE,comdat
	.align	2
	.weak	_ZNSt7__cxx1115wstring_convertISt18codecvt_utf8_utf16IDsLm1114111ELSt12codecvt_mode0EEDsSaIDsESaIcEE8to_bytesERKNS_12basic_stringIDsSt11char_traitsIDsES4_EE
	.type	_ZNSt7__cxx1115wstring_convertISt18codecvt_utf8_utf16IDsLm1114111ELSt12codecvt_mode0EEDsSaIDsESaIcEE8to_bytesERKNS_12basic_stringIDsSt11char_traitsIDsES4_EE, %function
_ZNSt7__cxx1115wstring_convertISt18codecvt_utf8_utf16IDsLm1114111ELSt12codecvt_mode0EEDsSaIDsESaIcEE8to_bytesERKNS_12basic_stringIDsSt11char_traitsIDsES4_EE:
.LFB2437:
	.cfi_startproc
	stp	x29, x30, [sp, -64]!
	.cfi_def_cfa_offset 64
	.cfi_offset 29, -64
	.cfi_offset 30, -56
	mov	x29, sp
	str	x19, [sp, 16]
	.cfi_offset 19, -48
	mov	x19, x8
	str	x0, [sp, 40]
	str	x1, [sp, 32]
	adrp	x0, :got:__stack_chk_guard
	ldr	x0, [x0, #:got_lo12:__stack_chk_guard]
	ldr	x1, [x0]
	str	x1, [sp, 56]
	mov	x1, 0
	ldr	x0, [sp, 32]
	bl	_ZNKSt7__cxx1112basic_stringIDsSt11char_traitsIDsESaIDsEE4dataEv
	str	x0, [sp, 48]
	ldr	x0, [sp, 32]
	bl	_ZNKSt7__cxx1112basic_stringIDsSt11char_traitsIDsESaIDsEE4sizeEv
	lsl	x0, x0, 1
	ldr	x1, [sp, 48]
	add	x0, x1, x0
	mov	x8, x19
	mov	x2, x0
	ldr	x1, [sp, 48]
	ldr	x0, [sp, 40]
	bl	_ZNSt7__cxx1115wstring_convertISt18codecvt_utf8_utf16IDsLm1114111ELSt12codecvt_mode0EEDsSaIDsESaIcEE8to_bytesEPKDsS8_
	adrp	x0, :got:__stack_chk_guard
	ldr	x0, [x0, #:got_lo12:__stack_chk_guard]
	ldr	x2, [sp, 56]
	ldr	x1, [x0]
	subs	x2, x2, x1
	mov	x1, 0
	beq	.L67
	bl	__stack_chk_fail
.L67:
	mov	x0, x19
	ldr	x19, [sp, 16]
	ldp	x29, x30, [sp], 64
	.cfi_restore 30
	.cfi_restore 29
	.cfi_restore 19
	.cfi_def_cfa_offset 0
	ret
	.cfi_endproc
.LFE2437:
	.size	_ZNSt7__cxx1115wstring_convertISt18codecvt_utf8_utf16IDsLm1114111ELSt12codecvt_mode0EEDsSaIDsESaIcEE8to_bytesERKNS_12basic_stringIDsSt11char_traitsIDsES4_EE, .-_ZNSt7__cxx1115wstring_convertISt18codecvt_utf8_utf16IDsLm1114111ELSt12codecvt_mode0EEDsSaIDsESaIcEE8to_bytesERKNS_12basic_stringIDsSt11char_traitsIDsES4_EE
	.section	.text._ZNSt7__cxx1115wstring_convertISt18codecvt_utf8_utf16IwLm1114111ELSt12codecvt_mode0EEwSaIwESaIcEEC2Ev,"axG",@progbits,_ZNSt7__cxx1115wstring_convertISt18codecvt_utf8_utf16IwLm1114111ELSt12codecvt_mode0EEwSaIwESaIcEEC5Ev,comdat
	.align	2
	.weak	_ZNSt7__cxx1115wstring_convertISt18codecvt_utf8_utf16IwLm1114111ELSt12codecvt_mode0EEwSaIwESaIcEEC2Ev
	.type	_ZNSt7__cxx1115wstring_convertISt18codecvt_utf8_utf16IwLm1114111ELSt12codecvt_mode0EEwSaIwESaIcEEC2Ev, %function
_ZNSt7__cxx1115wstring_convertISt18codecvt_utf8_utf16IwLm1114111ELSt12codecvt_mode0EEwSaIwESaIcEEC2Ev:
.LFB2440:
	.cfi_startproc
	.cfi_personality 0x9b,DW.ref.__gxx_personality_v0
	.cfi_lsda 0x1b,.LLSDA2440
	stp	x29, x30, [sp, -48]!
	.cfi_def_cfa_offset 48
	.cfi_offset 29, -48
	.cfi_offset 30, -40
	mov	x29, sp
	stp	x19, x20, [sp, 16]
	.cfi_offset 19, -32
	.cfi_offset 20, -24
	str	x0, [sp, 40]
	ldr	x20, [sp, 40]
	mov	x0, 40
.LEHB15:
	bl	_Znwm
.LEHE15:
	mov	x19, x0
	mov	x1, 0
	mov	x0, x19
.LEHB16:
	bl	_ZNSt18codecvt_utf8_utf16IwLm1114111ELSt12codecvt_mode0EEC1Em
.LEHE16:
	mov	x1, x19
	mov	x0, x20
	bl	_ZNSt10unique_ptrISt18codecvt_utf8_utf16IwLm1114111ELSt12codecvt_mode0EESt14default_deleteIS2_EEC1IS4_vEEPS2_
	ldr	x0, [sp, 40]
	add	x0, x0, 8
	bl	_ZNSt7__cxx1112basic_stringIcSt11char_traitsIcESaIcEEC1Ev
	ldr	x0, [sp, 40]
	add	x0, x0, 40
	bl	_ZNSt7__cxx1112basic_stringIwSt11char_traitsIwESaIwEEC1Ev
	ldr	x0, [sp, 40]
	str	wzr, [x0, 72]
	ldr	x0, [sp, 40]
	str	wzr, [x0, 76]
	ldr	x0, [sp, 40]
	str	xzr, [x0, 80]
	ldr	x0, [sp, 40]
	strb	wzr, [x0, 88]
	ldr	x0, [sp, 40]
	strb	wzr, [x0, 89]
	b	.L71
.L70:
	mov	x20, x0
	mov	x1, 40
	mov	x0, x19
	bl	_ZdlPvm
	mov	x0, x20
.LEHB17:
	bl	_Unwind_Resume
.LEHE17:
.L71:
	ldp	x19, x20, [sp, 16]
	ldp	x29, x30, [sp], 48
	.cfi_restore 30
	.cfi_restore 29
	.cfi_restore 19
	.cfi_restore 20
	.cfi_def_cfa_offset 0
	ret
	.cfi_endproc
.LFE2440:
	.section	.gcc_except_table
.LLSDA2440:
	.byte	0xff
	.byte	0xff
	.byte	0x1
	.uleb128 .LLSDACSE2440-.LLSDACSB2440
.LLSDACSB2440:
	.uleb128 .LEHB15-.LFB2440
	.uleb128 .LEHE15-.LEHB15
	.uleb128 0
	.uleb128 0
	.uleb128 .LEHB16-.LFB2440
	.uleb128 .LEHE16-.LEHB16
	.uleb128 .L70-.LFB2440
	.uleb128 0
	.uleb128 .LEHB17-.LFB2440
	.uleb128 .LEHE17-.LEHB17
	.uleb128 0
	.uleb128 0
.LLSDACSE2440:
	.section	.text._ZNSt7__cxx1115wstring_convertISt18codecvt_utf8_utf16IwLm1114111ELSt12codecvt_mode0EEwSaIwESaIcEEC2Ev,"axG",@progbits,_ZNSt7__cxx1115wstring_convertISt18codecvt_utf8_utf16IwLm1114111ELSt12codecvt_mode0EEwSaIwESaIcEEC5Ev,comdat
	.size	_ZNSt7__cxx1115wstring_convertISt18codecvt_utf8_utf16IwLm1114111ELSt12codecvt_mode0EEwSaIwESaIcEEC2Ev, .-_ZNSt7__cxx1115wstring_convertISt18codecvt_utf8_utf16IwLm1114111ELSt12codecvt_mode0EEwSaIwESaIcEEC2Ev
	.weak	_ZNSt7__cxx1115wstring_convertISt18codecvt_utf8_utf16IwLm1114111ELSt12codecvt_mode0EEwSaIwESaIcEEC1Ev
	.set	_ZNSt7__cxx1115wstring_convertISt18codecvt_utf8_utf16IwLm1114111ELSt12codecvt_mode0EEwSaIwESaIcEEC1Ev,_ZNSt7__cxx1115wstring_convertISt18codecvt_utf8_utf16IwLm1114111ELSt12codecvt_mode0EEwSaIwESaIcEEC2Ev
	.section	.text._ZNSt10unique_ptrISt18codecvt_utf8_utf16IwLm1114111ELSt12codecvt_mode0EESt14default_deleteIS2_EED2Ev,"axG",@progbits,_ZNSt10unique_ptrISt18codecvt_utf8_utf16IwLm1114111ELSt12codecvt_mode0EESt14default_deleteIS2_EED5Ev,comdat
	.align	2
	.weak	_ZNSt10unique_ptrISt18codecvt_utf8_utf16IwLm1114111ELSt12codecvt_mode0EESt14default_deleteIS2_EED2Ev
	.type	_ZNSt10unique_ptrISt18codecvt_utf8_utf16IwLm1114111ELSt12codecvt_mode0EESt14default_deleteIS2_EED2Ev, %function
_ZNSt10unique_ptrISt18codecvt_utf8_utf16IwLm1114111ELSt12codecvt_mode0EESt14default_deleteIS2_EED2Ev:
.LFB2443:
	.cfi_startproc
	stp	x29, x30, [sp, -64]!
	.cfi_def_cfa_offset 64
	.cfi_offset 29, -64
	.cfi_offset 30, -56
	mov	x29, sp
	str	x19, [sp, 16]
	.cfi_offset 19, -48
	str	x0, [sp, 40]
	ldr	x0, [sp, 40]
	bl	_ZNSt15__uniq_ptr_implISt18codecvt_utf8_utf16IwLm1114111ELSt12codecvt_mode0EESt14default_deleteIS2_EE6_M_ptrEv
	str	x0, [sp, 56]
	ldr	x0, [sp, 56]
	ldr	x0, [x0]
	cmp	x0, 0
	beq	.L73
	ldr	x0, [sp, 40]
	bl	_ZNSt10unique_ptrISt18codecvt_utf8_utf16IwLm1114111ELSt12codecvt_mode0EESt14default_deleteIS2_EE11get_deleterEv
	mov	x19, x0
	ldr	x0, [sp, 56]
	bl	_ZSt4moveIRPSt18codecvt_utf8_utf16IwLm1114111ELSt12codecvt_mode0EEEONSt16remove_referenceIT_E4typeEOS6_
	ldr	x0, [x0]
	mov	x1, x0
	mov	x0, x19
	bl	_ZNKSt14default_deleteISt18codecvt_utf8_utf16IwLm1114111ELSt12codecvt_mode0EEEclEPS2_
.L73:
	ldr	x0, [sp, 56]
	str	xzr, [x0]
	nop
	ldr	x19, [sp, 16]
	ldp	x29, x30, [sp], 64
	.cfi_restore 30
	.cfi_restore 29
	.cfi_restore 19
	.cfi_def_cfa_offset 0
	ret
	.cfi_endproc
.LFE2443:
	.size	_ZNSt10unique_ptrISt18codecvt_utf8_utf16IwLm1114111ELSt12codecvt_mode0EESt14default_deleteIS2_EED2Ev, .-_ZNSt10unique_ptrISt18codecvt_utf8_utf16IwLm1114111ELSt12codecvt_mode0EESt14default_deleteIS2_EED2Ev
	.weak	_ZNSt10unique_ptrISt18codecvt_utf8_utf16IwLm1114111ELSt12codecvt_mode0EESt14default_deleteIS2_EED1Ev
	.set	_ZNSt10unique_ptrISt18codecvt_utf8_utf16IwLm1114111ELSt12codecvt_mode0EESt14default_deleteIS2_EED1Ev,_ZNSt10unique_ptrISt18codecvt_utf8_utf16IwLm1114111ELSt12codecvt_mode0EESt14default_deleteIS2_EED2Ev
	.section	.text._ZNSt7__cxx1115wstring_convertISt18codecvt_utf8_utf16IwLm1114111ELSt12codecvt_mode0EEwSaIwESaIcEE10from_bytesERKNS_12basic_stringIcSt11char_traitsIcES5_EE,"axG",@progbits,_ZNSt7__cxx1115wstring_convertISt18codecvt_utf8_utf16IwLm1114111ELSt12codecvt_mode0EEwSaIwESaIcEE10from_bytesERKNS_12basic_stringIcSt11char_traitsIcES5_EE,comdat
	.align	2
	.weak	_ZNSt7__cxx1115wstring_convertISt18codecvt_utf8_utf16IwLm1114111ELSt12codecvt_mode0EEwSaIwESaIcEE10from_bytesERKNS_12basic_stringIcSt11char_traitsIcES5_EE
	.type	_ZNSt7__cxx1115wstring_convertISt18codecvt_utf8_utf16IwLm1114111ELSt12codecvt_mode0EEwSaIwESaIcEE10from_bytesERKNS_12basic_stringIcSt11char_traitsIcES5_EE, %function
_ZNSt7__cxx1115wstring_convertISt18codecvt_utf8_utf16IwLm1114111ELSt12codecvt_mode0EEwSaIwESaIcEE10from_bytesERKNS_12basic_stringIcSt11char_traitsIcES5_EE:
.LFB2445:
	.cfi_startproc
	stp	x29, x30, [sp, -64]!
	.cfi_def_cfa_offset 64
	.cfi_offset 29, -64
	.cfi_offset 30, -56
	mov	x29, sp
	str	x19, [sp, 16]
	.cfi_offset 19, -48
	mov	x19, x8
	str	x0, [sp, 40]
	str	x1, [sp, 32]
	adrp	x0, :got:__stack_chk_guard
	ldr	x0, [x0, #:got_lo12:__stack_chk_guard]
	ldr	x1, [x0]
	str	x1, [sp, 56]
	mov	x1, 0
	ldr	x0, [sp, 32]
	bl	_ZNKSt7__cxx1112basic_stringIcSt11char_traitsIcESaIcEE4dataEv
	str	x0, [sp, 48]
	ldr	x0, [sp, 32]
	bl	_ZNKSt7__cxx1112basic_stringIcSt11char_traitsIcESaIcEE4sizeEv
	mov	x1, x0
	ldr	x0, [sp, 48]
	add	x0, x0, x1
	mov	x8, x19
	mov	x2, x0
	ldr	x1, [sp, 48]
	ldr	x0, [sp, 40]
	bl	_ZNSt7__cxx1115wstring_convertISt18codecvt_utf8_utf16IwLm1114111ELSt12codecvt_mode0EEwSaIwESaIcEE10from_bytesEPKcS8_
	adrp	x0, :got:__stack_chk_guard
	ldr	x0, [x0, #:got_lo12:__stack_chk_guard]
	ldr	x2, [sp, 56]
	ldr	x1, [x0]
	subs	x2, x2, x1
	mov	x1, 0
	beq	.L76
	bl	__stack_chk_fail
.L76:
	mov	x0, x19
	ldr	x19, [sp, 16]
	ldp	x29, x30, [sp], 64
	.cfi_restore 30
	.cfi_restore 29
	.cfi_restore 19
	.cfi_def_cfa_offset 0
	ret
	.cfi_endproc
.LFE2445:
	.size	_ZNSt7__cxx1115wstring_convertISt18codecvt_utf8_utf16IwLm1114111ELSt12codecvt_mode0EEwSaIwESaIcEE10from_bytesERKNS_12basic_stringIcSt11char_traitsIcES5_EE, .-_ZNSt7__cxx1115wstring_convertISt18codecvt_utf8_utf16IwLm1114111ELSt12codecvt_mode0EEwSaIwESaIcEE10from_bytesERKNS_12basic_stringIcSt11char_traitsIcES5_EE
	.section	.text._ZNSt7__cxx1115wstring_convertISt18codecvt_utf8_utf16IwLm1114111ELSt12codecvt_mode0EEwSaIwESaIcEE8to_bytesERKNS_12basic_stringIwSt11char_traitsIwES4_EE,"axG",@progbits,_ZNSt7__cxx1115wstring_convertISt18codecvt_utf8_utf16IwLm1114111ELSt12codecvt_mode0EEwSaIwESaIcEE8to_bytesERKNS_12basic_stringIwSt11char_traitsIwES4_EE,comdat
	.align	2
	.weak	_ZNSt7__cxx1115wstring_convertISt18codecvt_utf8_utf16IwLm1114111ELSt12codecvt_mode0EEwSaIwESaIcEE8to_bytesERKNS_12basic_stringIwSt11char_traitsIwES4_EE
	.type	_ZNSt7__cxx1115wstring_convertISt18codecvt_utf8_utf16IwLm1114111ELSt12codecvt_mode0EEwSaIwESaIcEE8to_bytesERKNS_12basic_stringIwSt11char_traitsIwES4_EE, %function
_ZNSt7__cxx1115wstring_convertISt18codecvt_utf8_utf16IwLm1114111ELSt12codecvt_mode0EEwSaIwESaIcEE8to_bytesERKNS_12basic_stringIwSt11char_traitsIwES4_EE:
.LFB2449:
	.cfi_startproc
	stp	x29, x30, [sp, -64]!
	.cfi_def_cfa_offset 64
	.cfi_offset 29, -64
	.cfi_offset 30, -56
	mov	x29, sp
	str	x19, [sp, 16]
	.cfi_offset 19, -48
	mov	x19, x8
	str	x0, [sp, 40]
	str	x1, [sp, 32]
	adrp	x0, :got:__stack_chk_guard
	ldr	x0, [x0, #:got_lo12:__stack_chk_guard]
	ldr	x1, [x0]
	str	x1, [sp, 56]
	mov	x1, 0
	ldr	x0, [sp, 32]
	bl	_ZNKSt7__cxx1112basic_stringIwSt11char_traitsIwESaIwEE4dataEv
	str	x0, [sp, 48]
	ldr	x0, [sp, 32]
	bl	_ZNKSt7__cxx1112basic_stringIwSt11char_traitsIwESaIwEE4sizeEv
	lsl	x0, x0, 2
	ldr	x1, [sp, 48]
	add	x0, x1, x0
	mov	x8, x19
	mov	x2, x0
	ldr	x1, [sp, 48]
	ldr	x0, [sp, 40]
	bl	_ZNSt7__cxx1115wstring_convertISt18codecvt_utf8_utf16IwLm1114111ELSt12codecvt_mode0EEwSaIwESaIcEE8to_bytesEPKwS8_
	adrp	x0, :got:__stack_chk_guard
	ldr	x0, [x0, #:got_lo12:__stack_chk_guard]
	ldr	x2, [sp, 56]
	ldr	x1, [x0]
	subs	x2, x2, x1
	mov	x1, 0
	beq	.L79
	bl	__stack_chk_fail
.L79:
	mov	x0, x19
	ldr	x19, [sp, 16]
	ldp	x29, x30, [sp], 64
	.cfi_restore 30
	.cfi_restore 29
	.cfi_restore 19
	.cfi_def_cfa_offset 0
	ret
	.cfi_endproc
.LFE2449:
	.size	_ZNSt7__cxx1115wstring_convertISt18codecvt_utf8_utf16IwLm1114111ELSt12codecvt_mode0EEwSaIwESaIcEE8to_bytesERKNS_12basic_stringIwSt11char_traitsIwES4_EE, .-_ZNSt7__cxx1115wstring_convertISt18codecvt_utf8_utf16IwLm1114111ELSt12codecvt_mode0EEwSaIwESaIcEE8to_bytesERKNS_12basic_stringIwSt11char_traitsIwES4_EE
	.section	.text._ZNKSt7__cxx1112basic_stringIDsSt11char_traitsIDsESaIDsEE7_M_dataEv,"axG",@progbits,_ZNKSt7__cxx1112basic_stringIDsSt11char_traitsIDsESaIDsEE7_M_dataEv,comdat
	.align	2
	.weak	_ZNKSt7__cxx1112basic_stringIDsSt11char_traitsIDsESaIDsEE7_M_dataEv
	.type	_ZNKSt7__cxx1112basic_stringIDsSt11char_traitsIDsESaIDsEE7_M_dataEv, %function
_ZNKSt7__cxx1112basic_stringIDsSt11char_traitsIDsESaIDsEE7_M_dataEv:
.LFB2480:
	.cfi_startproc
	sub	sp, sp, #16
	.cfi_def_cfa_offset 16
	str	x0, [sp, 8]
	ldr	x0, [sp, 8]
	ldr	x0, [x0]
	add	sp, sp, 16
	.cfi_def_cfa_offset 0
	ret
	.cfi_endproc
.LFE2480:
	.size	_ZNKSt7__cxx1112basic_stringIDsSt11char_traitsIDsESaIDsEE7_M_dataEv, .-_ZNKSt7__cxx1112basic_stringIDsSt11char_traitsIDsESaIDsEE7_M_dataEv
	.section	.text._ZN9__gnu_cxx13new_allocatorIDsEC2Ev,"axG",@progbits,_ZN9__gnu_cxx13new_allocatorIDsEC5Ev,comdat
	.align	2
	.weak	_ZN9__gnu_cxx13new_allocatorIDsEC2Ev
	.type	_ZN9__gnu_cxx13new_allocatorIDsEC2Ev, %function
_ZN9__gnu_cxx13new_allocatorIDsEC2Ev:
.LFB2495:
	.cfi_startproc
	sub	sp, sp, #16
	.cfi_def_cfa_offset 16
	str	x0, [sp, 8]
	nop
	add	sp, sp, 16
	.cfi_def_cfa_offset 0
	ret
	.cfi_endproc
.LFE2495:
	.size	_ZN9__gnu_cxx13new_allocatorIDsEC2Ev, .-_ZN9__gnu_cxx13new_allocatorIDsEC2Ev
	.weak	_ZN9__gnu_cxx13new_allocatorIDsEC1Ev
	.set	_ZN9__gnu_cxx13new_allocatorIDsEC1Ev,_ZN9__gnu_cxx13new_allocatorIDsEC2Ev
	.section	.text._ZN9__gnu_cxx13new_allocatorIDsED2Ev,"axG",@progbits,_ZN9__gnu_cxx13new_allocatorIDsED5Ev,comdat
	.align	2
	.weak	_ZN9__gnu_cxx13new_allocatorIDsED2Ev
	.type	_ZN9__gnu_cxx13new_allocatorIDsED2Ev, %function
_ZN9__gnu_cxx13new_allocatorIDsED2Ev:
.LFB2498:
	.cfi_startproc
	sub	sp, sp, #16
	.cfi_def_cfa_offset 16
	str	x0, [sp, 8]
	nop
	add	sp, sp, 16
	.cfi_def_cfa_offset 0
	ret
	.cfi_endproc
.LFE2498:
	.size	_ZN9__gnu_cxx13new_allocatorIDsED2Ev, .-_ZN9__gnu_cxx13new_allocatorIDsED2Ev
	.weak	_ZN9__gnu_cxx13new_allocatorIDsED1Ev
	.set	_ZN9__gnu_cxx13new_allocatorIDsED1Ev,_ZN9__gnu_cxx13new_allocatorIDsED2Ev
	.section	.text._ZNSt7__cxx1112basic_stringIDsSt11char_traitsIDsESaIDsEE13_M_local_dataEv,"axG",@progbits,_ZNSt7__cxx1112basic_stringIDsSt11char_traitsIDsESaIDsEE13_M_local_dataEv,comdat
	.align	2
	.weak	_ZNSt7__cxx1112basic_stringIDsSt11char_traitsIDsESaIDsEE13_M_local_dataEv
	.type	_ZNSt7__cxx1112basic_stringIDsSt11char_traitsIDsESaIDsEE13_M_local_dataEv, %function
_ZNSt7__cxx1112basic_stringIDsSt11char_traitsIDsESaIDsEE13_M_local_dataEv:
.LFB2500:
	.cfi_startproc
	stp	x29, x30, [sp, -32]!
	.cfi_def_cfa_offset 32
	.cfi_offset 29, -32
	.cfi_offset 30, -24
	mov	x29, sp
	str	x0, [sp, 24]
	ldr	x0, [sp, 24]
	add	x0, x0, 16
	bl	_ZNSt14pointer_traitsIPDsE10pointer_toERDs
	ldp	x29, x30, [sp], 32
	.cfi_restore 30
	.cfi_restore 29
	.cfi_def_cfa_offset 0
	ret
	.cfi_endproc
.LFE2500:
	.size	_ZNSt7__cxx1112basic_stringIDsSt11char_traitsIDsESaIDsEE13_M_local_dataEv, .-_ZNSt7__cxx1112basic_stringIDsSt11char_traitsIDsESaIDsEE13_M_local_dataEv
	.section	.text._ZNSt7__cxx1112basic_stringIDsSt11char_traitsIDsESaIDsEE12_Alloc_hiderC2EPDsRKS3_,"axG",@progbits,_ZNSt7__cxx1112basic_stringIDsSt11char_traitsIDsESaIDsEE12_Alloc_hiderC5EPDsRKS3_,comdat
	.align	2
	.weak	_ZNSt7__cxx1112basic_stringIDsSt11char_traitsIDsESaIDsEE12_Alloc_hiderC2EPDsRKS3_
	.type	_ZNSt7__cxx1112basic_stringIDsSt11char_traitsIDsESaIDsEE12_Alloc_hiderC2EPDsRKS3_, %function
_ZNSt7__cxx1112basic_stringIDsSt11char_traitsIDsESaIDsEE12_Alloc_hiderC2EPDsRKS3_:
.LFB2502:
	.cfi_startproc
	stp	x29, x30, [sp, -48]!
	.cfi_def_cfa_offset 48
	.cfi_offset 29, -48
	.cfi_offset 30, -40
	mov	x29, sp
	str	x0, [sp, 40]
	str	x1, [sp, 32]
	str	x2, [sp, 24]
	ldr	x1, [sp, 24]
	ldr	x0, [sp, 40]
	bl	_ZNSaIDsEC2ERKS_
	ldr	x0, [sp, 40]
	ldr	x1, [sp, 32]
	str	x1, [x0]
	nop
	ldp	x29, x30, [sp], 48
	.cfi_restore 30
	.cfi_restore 29
	.cfi_def_cfa_offset 0
	ret
	.cfi_endproc
.LFE2502:
	.size	_ZNSt7__cxx1112basic_stringIDsSt11char_traitsIDsESaIDsEE12_Alloc_hiderC2EPDsRKS3_, .-_ZNSt7__cxx1112basic_stringIDsSt11char_traitsIDsESaIDsEE12_Alloc_hiderC2EPDsRKS3_
	.weak	_ZNSt7__cxx1112basic_stringIDsSt11char_traitsIDsESaIDsEE12_Alloc_hiderC1EPDsRKS3_
	.set	_ZNSt7__cxx1112basic_stringIDsSt11char_traitsIDsESaIDsEE12_Alloc_hiderC1EPDsRKS3_,_ZNSt7__cxx1112basic_stringIDsSt11char_traitsIDsESaIDsEE12_Alloc_hiderC2EPDsRKS3_
	.section	.text._ZNSt7__cxx1112basic_stringIDsSt11char_traitsIDsESaIDsEE10_M_disposeEv,"axG",@progbits,_ZNSt7__cxx1112basic_stringIDsSt11char_traitsIDsESaIDsEE10_M_disposeEv,comdat
	.align	2
	.weak	_ZNSt7__cxx1112basic_stringIDsSt11char_traitsIDsESaIDsEE10_M_disposeEv
	.type	_ZNSt7__cxx1112basic_stringIDsSt11char_traitsIDsESaIDsEE10_M_disposeEv, %function
_ZNSt7__cxx1112basic_stringIDsSt11char_traitsIDsESaIDsEE10_M_disposeEv:
.LFB2505:
	.cfi_startproc
	stp	x29, x30, [sp, -32]!
	.cfi_def_cfa_offset 32
	.cfi_offset 29, -32
	.cfi_offset 30, -24
	mov	x29, sp
	str	x0, [sp, 24]
	ldr	x0, [sp, 24]
	bl	_ZNKSt7__cxx1112basic_stringIDsSt11char_traitsIDsESaIDsEE11_M_is_localEv
	and	w0, w0, 255
	eor	w0, w0, 1
	and	w0, w0, 255
	cmp	w0, 0
	beq	.L89
	ldr	x0, [sp, 24]
	ldr	x0, [x0, 16]
	mov	x1, x0
	ldr	x0, [sp, 24]
	bl	_ZNSt7__cxx1112basic_stringIDsSt11char_traitsIDsESaIDsEE10_M_destroyEm
.L89:
	nop
	ldp	x29, x30, [sp], 32
	.cfi_restore 30
	.cfi_restore 29
	.cfi_def_cfa_offset 0
	ret
	.cfi_endproc
.LFE2505:
	.size	_ZNSt7__cxx1112basic_stringIDsSt11char_traitsIDsESaIDsEE10_M_disposeEv, .-_ZNSt7__cxx1112basic_stringIDsSt11char_traitsIDsESaIDsEE10_M_disposeEv
	.section	.text._ZNSt18codecvt_utf8_utf16IDsLm1114111ELSt12codecvt_mode0EEC2Em,"axG",@progbits,_ZNSt18codecvt_utf8_utf16IDsLm1114111ELSt12codecvt_mode0EEC5Em,comdat
	.align	2
	.weak	_ZNSt18codecvt_utf8_utf16IDsLm1114111ELSt12codecvt_mode0EEC2Em
	.type	_ZNSt18codecvt_utf8_utf16IDsLm1114111ELSt12codecvt_mode0EEC2Em, %function
_ZNSt18codecvt_utf8_utf16IDsLm1114111ELSt12codecvt_mode0EEC2Em:
.LFB2528:
	.cfi_startproc
	stp	x29, x30, [sp, -80]!
	.cfi_def_cfa_offset 80
	.cfi_offset 29, -80
	.cfi_offset 30, -72
	mov	x29, sp
	str	x19, [sp, 16]
	.cfi_offset 19, -64
	str	x0, [sp, 40]
	str	x1, [sp, 32]
	adrp	x0, :got:__stack_chk_guard
	ldr	x0, [x0, #:got_lo12:__stack_chk_guard]
	ldr	x1, [x0]
	str	x1, [sp, 72]
	mov	x1, 0
	ldr	x19, [sp, 40]
	mov	w0, 1114111
	str	x0, [sp, 56]
	mov	w0, 1114111
	str	x0, [sp, 64]
	add	x1, sp, 64
	add	x0, sp, 56
	bl	_ZSt3minImERKT_S2_S2_
	ldr	x0, [x0]
	ldr	x3, [sp, 32]
	mov	w2, 0
	mov	x1, x0
	mov	x0, x19
	bl	_ZNSt25__codecvt_utf8_utf16_baseIDsEC2EmSt12codecvt_modem
	adrp	x0, _ZTVSt18codecvt_utf8_utf16IDsLm1114111ELSt12codecvt_mode0EE+16
	add	x1, x0, :lo12:_ZTVSt18codecvt_utf8_utf16IDsLm1114111ELSt12codecvt_mode0EE+16
	ldr	x0, [sp, 40]
	str	x1, [x0]
	nop
	adrp	x0, :got:__stack_chk_guard
	ldr	x0, [x0, #:got_lo12:__stack_chk_guard]
	ldr	x2, [sp, 72]
	ldr	x1, [x0]
	subs	x2, x2, x1
	mov	x1, 0
	beq	.L91
	bl	__stack_chk_fail
.L91:
	ldr	x19, [sp, 16]
	ldp	x29, x30, [sp], 80
	.cfi_restore 30
	.cfi_restore 29
	.cfi_restore 19
	.cfi_def_cfa_offset 0
	ret
	.cfi_endproc
.LFE2528:
	.size	_ZNSt18codecvt_utf8_utf16IDsLm1114111ELSt12codecvt_mode0EEC2Em, .-_ZNSt18codecvt_utf8_utf16IDsLm1114111ELSt12codecvt_mode0EEC2Em
	.weak	_ZNSt18codecvt_utf8_utf16IDsLm1114111ELSt12codecvt_mode0EEC1Em
	.set	_ZNSt18codecvt_utf8_utf16IDsLm1114111ELSt12codecvt_mode0EEC1Em,_ZNSt18codecvt_utf8_utf16IDsLm1114111ELSt12codecvt_mode0EEC2Em
	.section	.text._ZNSt15__uniq_ptr_dataISt18codecvt_utf8_utf16IDsLm1114111ELSt12codecvt_mode0EESt14default_deleteIS2_ELb1ELb1EECI2St15__uniq_ptr_implIS2_S4_EEPS2_,"axG",@progbits,_ZNSt15__uniq_ptr_dataISt18codecvt_utf8_utf16IDsLm1114111ELSt12codecvt_mode0EESt14default_deleteIS2_ELb1ELb1EECI5St15__uniq_ptr_implIS2_S4_EEPS2_,comdat
	.align	2
	.weak	_ZNSt15__uniq_ptr_dataISt18codecvt_utf8_utf16IDsLm1114111ELSt12codecvt_mode0EESt14default_deleteIS2_ELb1ELb1EECI2St15__uniq_ptr_implIS2_S4_EEPS2_
	.type	_ZNSt15__uniq_ptr_dataISt18codecvt_utf8_utf16IDsLm1114111ELSt12codecvt_mode0EESt14default_deleteIS2_ELb1ELb1EECI2St15__uniq_ptr_implIS2_S4_EEPS2_, %function
_ZNSt15__uniq_ptr_dataISt18codecvt_utf8_utf16IDsLm1114111ELSt12codecvt_mode0EESt14default_deleteIS2_ELb1ELb1EECI2St15__uniq_ptr_implIS2_S4_EEPS2_:
.LFB2532:
	.cfi_startproc
	stp	x29, x30, [sp, -32]!
	.cfi_def_cfa_offset 32
	.cfi_offset 29, -32
	.cfi_offset 30, -24
	mov	x29, sp
	str	x0, [sp, 24]
	str	x1, [sp, 16]
	ldr	x0, [sp, 24]
	ldr	x1, [sp, 16]
	bl	_ZNSt15__uniq_ptr_implISt18codecvt_utf8_utf16IDsLm1114111ELSt12codecvt_mode0EESt14default_deleteIS2_EEC2EPS2_
	nop
	ldp	x29, x30, [sp], 32
	.cfi_restore 30
	.cfi_restore 29
	.cfi_def_cfa_offset 0
	ret
	.cfi_endproc
.LFE2532:
	.size	_ZNSt15__uniq_ptr_dataISt18codecvt_utf8_utf16IDsLm1114111ELSt12codecvt_mode0EESt14default_deleteIS2_ELb1ELb1EECI2St15__uniq_ptr_implIS2_S4_EEPS2_, .-_ZNSt15__uniq_ptr_dataISt18codecvt_utf8_utf16IDsLm1114111ELSt12codecvt_mode0EESt14default_deleteIS2_ELb1ELb1EECI2St15__uniq_ptr_implIS2_S4_EEPS2_
	.weak	_ZNSt15__uniq_ptr_dataISt18codecvt_utf8_utf16IDsLm1114111ELSt12codecvt_mode0EESt14default_deleteIS2_ELb1ELb1EECI1St15__uniq_ptr_implIS2_S4_EEPS2_
	.set	_ZNSt15__uniq_ptr_dataISt18codecvt_utf8_utf16IDsLm1114111ELSt12codecvt_mode0EESt14default_deleteIS2_ELb1ELb1EECI1St15__uniq_ptr_implIS2_S4_EEPS2_,_ZNSt15__uniq_ptr_dataISt18codecvt_utf8_utf16IDsLm1114111ELSt12codecvt_mode0EESt14default_deleteIS2_ELb1ELb1EECI2St15__uniq_ptr_implIS2_S4_EEPS2_
	.section	.text._ZNSt10unique_ptrISt18codecvt_utf8_utf16IDsLm1114111ELSt12codecvt_mode0EESt14default_deleteIS2_EEC2IS4_vEEPS2_,"axG",@progbits,_ZNSt10unique_ptrISt18codecvt_utf8_utf16IDsLm1114111ELSt12codecvt_mode0EESt14default_deleteIS2_EEC5IS4_vEEPS2_,comdat
	.align	2
	.weak	_ZNSt10unique_ptrISt18codecvt_utf8_utf16IDsLm1114111ELSt12codecvt_mode0EESt14default_deleteIS2_EEC2IS4_vEEPS2_
	.type	_ZNSt10unique_ptrISt18codecvt_utf8_utf16IDsLm1114111ELSt12codecvt_mode0EESt14default_deleteIS2_EEC2IS4_vEEPS2_, %function
_ZNSt10unique_ptrISt18codecvt_utf8_utf16IDsLm1114111ELSt12codecvt_mode0EESt14default_deleteIS2_EEC2IS4_vEEPS2_:
.LFB2534:
	.cfi_startproc
	stp	x29, x30, [sp, -32]!
	.cfi_def_cfa_offset 32
	.cfi_offset 29, -32
	.cfi_offset 30, -24
	mov	x29, sp
	str	x0, [sp, 24]
	str	x1, [sp, 16]
	ldr	x0, [sp, 24]
	ldr	x1, [sp, 16]
	bl	_ZNSt15__uniq_ptr_dataISt18codecvt_utf8_utf16IDsLm1114111ELSt12codecvt_mode0EESt14default_deleteIS2_ELb1ELb1EECI1St15__uniq_ptr_implIS2_S4_EEPS2_
	nop
	ldp	x29, x30, [sp], 32
	.cfi_restore 30
	.cfi_restore 29
	.cfi_def_cfa_offset 0
	ret
	.cfi_endproc
.LFE2534:
	.size	_ZNSt10unique_ptrISt18codecvt_utf8_utf16IDsLm1114111ELSt12codecvt_mode0EESt14default_deleteIS2_EEC2IS4_vEEPS2_, .-_ZNSt10unique_ptrISt18codecvt_utf8_utf16IDsLm1114111ELSt12codecvt_mode0EESt14default_deleteIS2_EEC2IS4_vEEPS2_
	.weak	_ZNSt10unique_ptrISt18codecvt_utf8_utf16IDsLm1114111ELSt12codecvt_mode0EESt14default_deleteIS2_EEC1IS4_vEEPS2_
	.set	_ZNSt10unique_ptrISt18codecvt_utf8_utf16IDsLm1114111ELSt12codecvt_mode0EESt14default_deleteIS2_EEC1IS4_vEEPS2_,_ZNSt10unique_ptrISt18codecvt_utf8_utf16IDsLm1114111ELSt12codecvt_mode0EESt14default_deleteIS2_EEC2IS4_vEEPS2_
	.section	.text._ZNSt7__cxx1112basic_stringIDsSt11char_traitsIDsESaIDsEEC2Ev,"axG",@progbits,_ZNSt7__cxx1112basic_stringIDsSt11char_traitsIDsESaIDsEEC5Ev,comdat
	.align	2
	.weak	_ZNSt7__cxx1112basic_stringIDsSt11char_traitsIDsESaIDsEEC2Ev
	.type	_ZNSt7__cxx1112basic_stringIDsSt11char_traitsIDsESaIDsEEC2Ev, %function
_ZNSt7__cxx1112basic_stringIDsSt11char_traitsIDsESaIDsEEC2Ev:
.LFB2540:
	.cfi_startproc
	stp	x29, x30, [sp, -64]!
	.cfi_def_cfa_offset 64
	.cfi_offset 29, -64
	.cfi_offset 30, -56
	mov	x29, sp
	stp	x19, x20, [sp, 16]
	.cfi_offset 19, -48
	.cfi_offset 20, -40
	str	x0, [sp, 40]
	adrp	x0, :got:__stack_chk_guard
	ldr	x0, [x0, #:got_lo12:__stack_chk_guard]
	ldr	x1, [x0]
	str	x1, [sp, 56]
	mov	x1, 0
	ldr	x19, [sp, 40]
	ldr	x0, [sp, 40]
	bl	_ZNSt7__cxx1112basic_stringIDsSt11char_traitsIDsESaIDsEE13_M_local_dataEv
	mov	x20, x0
	add	x0, sp, 48
	bl	_ZNSaIDsEC1Ev
	add	x0, sp, 48
	mov	x2, x0
	mov	x1, x20
	mov	x0, x19
	bl	_ZNSt7__cxx1112basic_stringIDsSt11char_traitsIDsESaIDsEE12_Alloc_hiderC1EPDsOS3_
	add	x0, sp, 48
	bl	_ZNSaIDsED1Ev
	mov	x1, 0
	ldr	x0, [sp, 40]
	bl	_ZNSt7__cxx1112basic_stringIDsSt11char_traitsIDsESaIDsEE13_M_set_lengthEm
	nop
	adrp	x0, :got:__stack_chk_guard
	ldr	x0, [x0, #:got_lo12:__stack_chk_guard]
	ldr	x2, [sp, 56]
	ldr	x1, [x0]
	subs	x2, x2, x1
	mov	x1, 0
	beq	.L95
	bl	__stack_chk_fail
.L95:
	ldp	x19, x20, [sp, 16]
	ldp	x29, x30, [sp], 64
	.cfi_restore 30
	.cfi_restore 29
	.cfi_restore 19
	.cfi_restore 20
	.cfi_def_cfa_offset 0
	ret
	.cfi_endproc
.LFE2540:
	.size	_ZNSt7__cxx1112basic_stringIDsSt11char_traitsIDsESaIDsEEC2Ev, .-_ZNSt7__cxx1112basic_stringIDsSt11char_traitsIDsESaIDsEEC2Ev
	.weak	_ZNSt7__cxx1112basic_stringIDsSt11char_traitsIDsESaIDsEEC1Ev
	.set	_ZNSt7__cxx1112basic_stringIDsSt11char_traitsIDsESaIDsEEC1Ev,_ZNSt7__cxx1112basic_stringIDsSt11char_traitsIDsESaIDsEEC2Ev
	.section	.text._ZNSt15__uniq_ptr_implISt18codecvt_utf8_utf16IDsLm1114111ELSt12codecvt_mode0EESt14default_deleteIS2_EE6_M_ptrEv,"axG",@progbits,_ZNSt15__uniq_ptr_implISt18codecvt_utf8_utf16IDsLm1114111ELSt12codecvt_mode0EESt14default_deleteIS2_EE6_M_ptrEv,comdat
	.align	2
	.weak	_ZNSt15__uniq_ptr_implISt18codecvt_utf8_utf16IDsLm1114111ELSt12codecvt_mode0EESt14default_deleteIS2_EE6_M_ptrEv
	.type	_ZNSt15__uniq_ptr_implISt18codecvt_utf8_utf16IDsLm1114111ELSt12codecvt_mode0EESt14default_deleteIS2_EE6_M_ptrEv, %function
_ZNSt15__uniq_ptr_implISt18codecvt_utf8_utf16IDsLm1114111ELSt12codecvt_mode0EESt14default_deleteIS2_EE6_M_ptrEv:
.LFB2542:
	.cfi_startproc
	stp	x29, x30, [sp, -32]!
	.cfi_def_cfa_offset 32
	.cfi_offset 29, -32
	.cfi_offset 30, -24
	mov	x29, sp
	str	x0, [sp, 24]
	ldr	x0, [sp, 24]
	bl	_ZSt3getILm0EJPSt18codecvt_utf8_utf16IDsLm1114111ELSt12codecvt_mode0EESt14default_deleteIS2_EEERNSt13tuple_elementIXT_ESt5tupleIJDpT0_EEE4typeERSA_
	ldp	x29, x30, [sp], 32
	.cfi_restore 30
	.cfi_restore 29
	.cfi_def_cfa_offset 0
	ret
	.cfi_endproc
.LFE2542:
	.size	_ZNSt15__uniq_ptr_implISt18codecvt_utf8_utf16IDsLm1114111ELSt12codecvt_mode0EESt14default_deleteIS2_EE6_M_ptrEv, .-_ZNSt15__uniq_ptr_implISt18codecvt_utf8_utf16IDsLm1114111ELSt12codecvt_mode0EESt14default_deleteIS2_EE6_M_ptrEv
	.section	.text._ZNSt10unique_ptrISt18codecvt_utf8_utf16IDsLm1114111ELSt12codecvt_mode0EESt14default_deleteIS2_EE11get_deleterEv,"axG",@progbits,_ZNSt10unique_ptrISt18codecvt_utf8_utf16IDsLm1114111ELSt12codecvt_mode0EESt14default_deleteIS2_EE11get_deleterEv,comdat
	.align	2
	.weak	_ZNSt10unique_ptrISt18codecvt_utf8_utf16IDsLm1114111ELSt12codecvt_mode0EESt14default_deleteIS2_EE11get_deleterEv
	.type	_ZNSt10unique_ptrISt18codecvt_utf8_utf16IDsLm1114111ELSt12codecvt_mode0EESt14default_deleteIS2_EE11get_deleterEv, %function
_ZNSt10unique_ptrISt18codecvt_utf8_utf16IDsLm1114111ELSt12codecvt_mode0EESt14default_deleteIS2_EE11get_deleterEv:
.LFB2543:
	.cfi_startproc
	stp	x29, x30, [sp, -32]!
	.cfi_def_cfa_offset 32
	.cfi_offset 29, -32
	.cfi_offset 30, -24
	mov	x29, sp
	str	x0, [sp, 24]
	ldr	x0, [sp, 24]
	bl	_ZNSt15__uniq_ptr_implISt18codecvt_utf8_utf16IDsLm1114111ELSt12codecvt_mode0EESt14default_deleteIS2_EE10_M_deleterEv
	ldp	x29, x30, [sp], 32
	.cfi_restore 30
	.cfi_restore 29
	.cfi_def_cfa_offset 0
	ret
	.cfi_endproc
.LFE2543:
	.size	_ZNSt10unique_ptrISt18codecvt_utf8_utf16IDsLm1114111ELSt12codecvt_mode0EESt14default_deleteIS2_EE11get_deleterEv, .-_ZNSt10unique_ptrISt18codecvt_utf8_utf16IDsLm1114111ELSt12codecvt_mode0EESt14default_deleteIS2_EE11get_deleterEv
	.section	.text._ZSt4moveIRPSt18codecvt_utf8_utf16IDsLm1114111ELSt12codecvt_mode0EEEONSt16remove_referenceIT_E4typeEOS6_,"axG",@progbits,_ZSt4moveIRPSt18codecvt_utf8_utf16IDsLm1114111ELSt12codecvt_mode0EEEONSt16remove_referenceIT_E4typeEOS6_,comdat
	.align	2
	.weak	_ZSt4moveIRPSt18codecvt_utf8_utf16IDsLm1114111ELSt12codecvt_mode0EEEONSt16remove_referenceIT_E4typeEOS6_
	.type	_ZSt4moveIRPSt18codecvt_utf8_utf16IDsLm1114111ELSt12codecvt_mode0EEEONSt16remove_referenceIT_E4typeEOS6_, %function
_ZSt4moveIRPSt18codecvt_utf8_utf16IDsLm1114111ELSt12codecvt_mode0EEEONSt16remove_referenceIT_E4typeEOS6_:
.LFB2544:
	.cfi_startproc
	sub	sp, sp, #16
	.cfi_def_cfa_offset 16
	str	x0, [sp, 8]
	ldr	x0, [sp, 8]
	add	sp, sp, 16
	.cfi_def_cfa_offset 0
	ret
	.cfi_endproc
.LFE2544:
	.size	_ZSt4moveIRPSt18codecvt_utf8_utf16IDsLm1114111ELSt12codecvt_mode0EEEONSt16remove_referenceIT_E4typeEOS6_, .-_ZSt4moveIRPSt18codecvt_utf8_utf16IDsLm1114111ELSt12codecvt_mode0EEEONSt16remove_referenceIT_E4typeEOS6_
	.section	.text._ZNSt18codecvt_utf8_utf16IDsLm1114111ELSt12codecvt_mode0EED2Ev,"axG",@progbits,_ZNSt18codecvt_utf8_utf16IDsLm1114111ELSt12codecvt_mode0EED5Ev,comdat
	.align	2
	.weak	_ZNSt18codecvt_utf8_utf16IDsLm1114111ELSt12codecvt_mode0EED2Ev
	.type	_ZNSt18codecvt_utf8_utf16IDsLm1114111ELSt12codecvt_mode0EED2Ev, %function
_ZNSt18codecvt_utf8_utf16IDsLm1114111ELSt12codecvt_mode0EED2Ev:
.LFB2547:
	.cfi_startproc
	stp	x29, x30, [sp, -32]!
	.cfi_def_cfa_offset 32
	.cfi_offset 29, -32
	.cfi_offset 30, -24
	mov	x29, sp
	str	x0, [sp, 24]
	adrp	x0, _ZTVSt18codecvt_utf8_utf16IDsLm1114111ELSt12codecvt_mode0EE+16
	add	x1, x0, :lo12:_ZTVSt18codecvt_utf8_utf16IDsLm1114111ELSt12codecvt_mode0EE+16
	ldr	x0, [sp, 24]
	str	x1, [x0]
	ldr	x0, [sp, 24]
	bl	_ZNSt25__codecvt_utf8_utf16_baseIDsED2Ev
	nop
	ldp	x29, x30, [sp], 32
	.cfi_restore 30
	.cfi_restore 29
	.cfi_def_cfa_offset 0
	ret
	.cfi_endproc
.LFE2547:
	.size	_ZNSt18codecvt_utf8_utf16IDsLm1114111ELSt12codecvt_mode0EED2Ev, .-_ZNSt18codecvt_utf8_utf16IDsLm1114111ELSt12codecvt_mode0EED2Ev
	.weak	_ZNSt18codecvt_utf8_utf16IDsLm1114111ELSt12codecvt_mode0EED1Ev
	.set	_ZNSt18codecvt_utf8_utf16IDsLm1114111ELSt12codecvt_mode0EED1Ev,_ZNSt18codecvt_utf8_utf16IDsLm1114111ELSt12codecvt_mode0EED2Ev
	.section	.text._ZNSt18codecvt_utf8_utf16IDsLm1114111ELSt12codecvt_mode0EED0Ev,"axG",@progbits,_ZNSt18codecvt_utf8_utf16IDsLm1114111ELSt12codecvt_mode0EED5Ev,comdat
	.align	2
	.weak	_ZNSt18codecvt_utf8_utf16IDsLm1114111ELSt12codecvt_mode0EED0Ev
	.type	_ZNSt18codecvt_utf8_utf16IDsLm1114111ELSt12codecvt_mode0EED0Ev, %function
_ZNSt18codecvt_utf8_utf16IDsLm1114111ELSt12codecvt_mode0EED0Ev:
.LFB2549:
	.cfi_startproc
	stp	x29, x30, [sp, -32]!
	.cfi_def_cfa_offset 32
	.cfi_offset 29, -32
	.cfi_offset 30, -24
	mov	x29, sp
	str	x0, [sp, 24]
	ldr	x0, [sp, 24]
	bl	_ZNSt18codecvt_utf8_utf16IDsLm1114111ELSt12codecvt_mode0EED1Ev
	mov	x1, 32
	ldr	x0, [sp, 24]
	bl	_ZdlPvm
	ldp	x29, x30, [sp], 32
	.cfi_restore 30
	.cfi_restore 29
	.cfi_def_cfa_offset 0
	ret
	.cfi_endproc
.LFE2549:
	.size	_ZNSt18codecvt_utf8_utf16IDsLm1114111ELSt12codecvt_mode0EED0Ev, .-_ZNSt18codecvt_utf8_utf16IDsLm1114111ELSt12codecvt_mode0EED0Ev
	.section	.text._ZNKSt14default_deleteISt18codecvt_utf8_utf16IDsLm1114111ELSt12codecvt_mode0EEEclEPS2_,"axG",@progbits,_ZNKSt14default_deleteISt18codecvt_utf8_utf16IDsLm1114111ELSt12codecvt_mode0EEEclEPS2_,comdat
	.align	2
	.weak	_ZNKSt14default_deleteISt18codecvt_utf8_utf16IDsLm1114111ELSt12codecvt_mode0EEEclEPS2_
	.type	_ZNKSt14default_deleteISt18codecvt_utf8_utf16IDsLm1114111ELSt12codecvt_mode0EEEclEPS2_, %function
_ZNKSt14default_deleteISt18codecvt_utf8_utf16IDsLm1114111ELSt12codecvt_mode0EEEclEPS2_:
.LFB2545:
	.cfi_startproc
	stp	x29, x30, [sp, -32]!
	.cfi_def_cfa_offset 32
	.cfi_offset 29, -32
	.cfi_offset 30, -24
	mov	x29, sp
	str	x0, [sp, 24]
	str	x1, [sp, 16]
	ldr	x0, [sp, 16]
	cmp	x0, 0
	beq	.L106
	ldr	x1, [x0]
	add	x1, x1, 8
	ldr	x1, [x1]
	blr	x1
.L106:
	nop
	ldp	x29, x30, [sp], 32
	.cfi_restore 30
	.cfi_restore 29
	.cfi_def_cfa_offset 0
	ret
	.cfi_endproc
.LFE2545:
	.size	_ZNKSt14default_deleteISt18codecvt_utf8_utf16IDsLm1114111ELSt12codecvt_mode0EEEclEPS2_, .-_ZNKSt14default_deleteISt18codecvt_utf8_utf16IDsLm1114111ELSt12codecvt_mode0EEEclEPS2_
	.section	.rodata
	.align	3
.LC0:
	.string	"wstring_convert::from_bytes"
	.section	.text._ZNSt7__cxx1115wstring_convertISt18codecvt_utf8_utf16IDsLm1114111ELSt12codecvt_mode0EEDsSaIDsESaIcEE10from_bytesEPKcS8_,"axG",@progbits,_ZNSt7__cxx1115wstring_convertISt18codecvt_utf8_utf16IDsLm1114111ELSt12codecvt_mode0EEDsSaIDsESaIcEE10from_bytesEPKcS8_,comdat
	.align	2
	.weak	_ZNSt7__cxx1115wstring_convertISt18codecvt_utf8_utf16IDsLm1114111ELSt12codecvt_mode0EEDsSaIDsESaIcEE10from_bytesEPKcS8_
	.type	_ZNSt7__cxx1115wstring_convertISt18codecvt_utf8_utf16IDsLm1114111ELSt12codecvt_mode0EEDsSaIDsESaIcEE10from_bytesEPKcS8_, %function
_ZNSt7__cxx1115wstring_convertISt18codecvt_utf8_utf16IDsLm1114111ELSt12codecvt_mode0EEDsSaIDsESaIcEE10from_bytesEPKcS8_:
.LFB2550:
	.cfi_startproc
	.cfi_personality 0x9b,DW.ref.__gxx_personality_v0
	.cfi_lsda 0x1b,.LLSDA2550
	stp	x29, x30, [sp, -112]!
	.cfi_def_cfa_offset 112
	.cfi_offset 29, -112
	.cfi_offset 30, -104
	mov	x29, sp
	str	x19, [sp, 16]
	.cfi_offset 19, -96
	mov	x19, x8
	str	x0, [sp, 56]
	str	x1, [sp, 48]
	str	x2, [sp, 40]
	adrp	x0, :got:__stack_chk_guard
	ldr	x0, [x0, #:got_lo12:__stack_chk_guard]
	ldr	x1, [x0]
	str	x1, [sp, 104]
	mov	x1, 0
	ldr	x0, [sp, 56]
	ldrb	w0, [x0, 88]
	eor	w0, w0, 1
	and	w0, w0, 255
	cmp	w0, 0
	beq	.L108
	ldr	x0, [sp, 56]
	str	wzr, [x0, 72]
	ldr	x0, [sp, 56]
	str	wzr, [x0, 76]
.L108:
	ldr	x0, [sp, 56]
	add	x0, x0, 40
	add	x1, sp, 64
	mov	x8, x1
	bl	_ZNKSt7__cxx1112basic_stringIDsSt11char_traitsIDsESaIDsEE13get_allocatorEv
	add	x1, sp, 64
	add	x0, sp, 72
	bl	_ZNSt7__cxx1112basic_stringIDsSt11char_traitsIDsESaIDsEEC1ERKS3_
	add	x0, sp, 64
	bl	_ZNSaIDsED1Ev
	ldr	x0, [sp, 56]
	bl	_ZNKSt10unique_ptrISt18codecvt_utf8_utf16IDsLm1114111ELSt12codecvt_mode0EESt14default_deleteIS2_EEdeEv
	mov	x3, x0
	ldr	x0, [sp, 56]
	add	x1, x0, 72
	ldr	x0, [sp, 56]
	add	x2, x0, 80
	add	x0, sp, 72
	mov	x5, x2
	mov	x4, x1
	mov	x2, x0
	ldr	x1, [sp, 40]
	ldr	x0, [sp, 48]
.LEHB18:
	bl	_ZSt16__str_codecvt_inIDsSt11char_traitsIDsESaIDsE11__mbstate_tEbPKcS5_RNSt7__cxx1112basic_stringIT_T0_T1_EERKSt7codecvtIS8_cT2_ERSE_Rm
	and	w0, w0, 255
	cmp	w0, 0
	beq	.L109
	add	x0, sp, 72
	mov	x1, x0
	mov	x0, x19
	bl	_ZNSt7__cxx1112basic_stringIDsSt11char_traitsIDsESaIDsEEC1EOS4_
	b	.L110
.L109:
	ldr	x0, [sp, 56]
	ldrb	w0, [x0, 89]
	cmp	w0, 0
	beq	.L111
	ldr	x0, [sp, 56]
	add	x0, x0, 40
	mov	x1, x0
	mov	x0, x19
	bl	_ZNSt7__cxx1112basic_stringIDsSt11char_traitsIDsESaIDsEEC1ERKS4_
	b	.L110
.L111:
	adrp	x0, .LC0
	add	x0, x0, :lo12:.LC0
	bl	_ZSt19__throw_range_errorPKc
.LEHE18:
.L110:
	add	x0, sp, 72
	bl	_ZNSt7__cxx1112basic_stringIDsSt11char_traitsIDsESaIDsEED1Ev
	adrp	x0, :got:__stack_chk_guard
	ldr	x0, [x0, #:got_lo12:__stack_chk_guard]
	ldr	x2, [sp, 104]
	ldr	x1, [x0]
	subs	x2, x2, x1
	mov	x1, 0
	beq	.L114
	b	.L116
.L115:
	mov	x19, x0
	add	x0, sp, 72
	bl	_ZNSt7__cxx1112basic_stringIDsSt11char_traitsIDsESaIDsEED1Ev
	mov	x0, x19
.LEHB19:
	bl	_Unwind_Resume
.LEHE19:
.L116:
	bl	__stack_chk_fail
.L114:
	mov	x0, x19
	ldr	x19, [sp, 16]
	ldp	x29, x30, [sp], 112
	.cfi_restore 30
	.cfi_restore 29
	.cfi_restore 19
	.cfi_def_cfa_offset 0
	ret
	.cfi_endproc
.LFE2550:
	.section	.gcc_except_table
.LLSDA2550:
	.byte	0xff
	.byte	0xff
	.byte	0x1
	.uleb128 .LLSDACSE2550-.LLSDACSB2550
.LLSDACSB2550:
	.uleb128 .LEHB18-.LFB2550
	.uleb128 .LEHE18-.LEHB18
	.uleb128 .L115-.LFB2550
	.uleb128 0
	.uleb128 .LEHB19-.LFB2550
	.uleb128 .LEHE19-.LEHB19
	.uleb128 0
	.uleb128 0
.LLSDACSE2550:
	.section	.text._ZNSt7__cxx1115wstring_convertISt18codecvt_utf8_utf16IDsLm1114111ELSt12codecvt_mode0EEDsSaIDsESaIcEE10from_bytesEPKcS8_,"axG",@progbits,_ZNSt7__cxx1115wstring_convertISt18codecvt_utf8_utf16IDsLm1114111ELSt12codecvt_mode0EEDsSaIDsESaIcEE10from_bytesEPKcS8_,comdat
	.size	_ZNSt7__cxx1115wstring_convertISt18codecvt_utf8_utf16IDsLm1114111ELSt12codecvt_mode0EEDsSaIDsESaIcEE10from_bytesEPKcS8_, .-_ZNSt7__cxx1115wstring_convertISt18codecvt_utf8_utf16IDsLm1114111ELSt12codecvt_mode0EEDsSaIDsESaIcEE10from_bytesEPKcS8_
	.section	.text._ZNSt7__cxx1112basic_stringIDsSt11char_traitsIDsESaIDsEE16_M_get_allocatorEv,"axG",@progbits,_ZNSt7__cxx1112basic_stringIDsSt11char_traitsIDsESaIDsEE16_M_get_allocatorEv,comdat
	.align	2
	.weak	_ZNSt7__cxx1112basic_stringIDsSt11char_traitsIDsESaIDsEE16_M_get_allocatorEv
	.type	_ZNSt7__cxx1112basic_stringIDsSt11char_traitsIDsESaIDsEE16_M_get_allocatorEv, %function
_ZNSt7__cxx1112basic_stringIDsSt11char_traitsIDsESaIDsEE16_M_get_allocatorEv:
.LFB2551:
	.cfi_startproc
	sub	sp, sp, #16
	.cfi_def_cfa_offset 16
	str	x0, [sp, 8]
	ldr	x0, [sp, 8]
	add	sp, sp, 16
	.cfi_def_cfa_offset 0
	ret
	.cfi_endproc
.LFE2551:
	.size	_ZNSt7__cxx1112basic_stringIDsSt11char_traitsIDsESaIDsEE16_M_get_allocatorEv, .-_ZNSt7__cxx1112basic_stringIDsSt11char_traitsIDsESaIDsEE16_M_get_allocatorEv
	.section	.text._ZSt4moveIRSaIDsEEONSt16remove_referenceIT_E4typeEOS3_,"axG",@progbits,_ZSt4moveIRSaIDsEEONSt16remove_referenceIT_E4typeEOS3_,comdat
	.align	2
	.weak	_ZSt4moveIRSaIDsEEONSt16remove_referenceIT_E4typeEOS3_
	.type	_ZSt4moveIRSaIDsEEONSt16remove_referenceIT_E4typeEOS3_, %function
_ZSt4moveIRSaIDsEEONSt16remove_referenceIT_E4typeEOS3_:
.LFB2552:
	.cfi_startproc
	sub	sp, sp, #16
	.cfi_def_cfa_offset 16
	str	x0, [sp, 8]
	ldr	x0, [sp, 8]
	add	sp, sp, 16
	.cfi_def_cfa_offset 0
	ret
	.cfi_endproc
.LFE2552:
	.size	_ZSt4moveIRSaIDsEEONSt16remove_referenceIT_E4typeEOS3_, .-_ZSt4moveIRSaIDsEEONSt16remove_referenceIT_E4typeEOS3_
	.section	.text._ZNSt7__cxx1112basic_stringIDsSt11char_traitsIDsESaIDsEE12_Alloc_hiderC2EPDsOS3_,"axG",@progbits,_ZNSt7__cxx1112basic_stringIDsSt11char_traitsIDsESaIDsEE12_Alloc_hiderC5EPDsOS3_,comdat
	.align	2
	.weak	_ZNSt7__cxx1112basic_stringIDsSt11char_traitsIDsESaIDsEE12_Alloc_hiderC2EPDsOS3_
	.type	_ZNSt7__cxx1112basic_stringIDsSt11char_traitsIDsESaIDsEE12_Alloc_hiderC2EPDsOS3_, %function
_ZNSt7__cxx1112basic_stringIDsSt11char_traitsIDsESaIDsEE12_Alloc_hiderC2EPDsOS3_:
.LFB2554:
	.cfi_startproc
	stp	x29, x30, [sp, -48]!
	.cfi_def_cfa_offset 48
	.cfi_offset 29, -48
	.cfi_offset 30, -40
	mov	x29, sp
	str	x0, [sp, 40]
	str	x1, [sp, 32]
	str	x2, [sp, 24]
	ldr	x0, [sp, 24]
	bl	_ZSt4moveIRSaIDsEEONSt16remove_referenceIT_E4typeEOS3_
	mov	x1, x0
	ldr	x0, [sp, 40]
	bl	_ZNSaIDsEC2ERKS_
	ldr	x0, [sp, 40]
	ldr	x1, [sp, 32]
	str	x1, [x0]
	nop
	ldp	x29, x30, [sp], 48
	.cfi_restore 30
	.cfi_restore 29
	.cfi_def_cfa_offset 0
	ret
	.cfi_endproc
.LFE2554:
	.size	_ZNSt7__cxx1112basic_stringIDsSt11char_traitsIDsESaIDsEE12_Alloc_hiderC2EPDsOS3_, .-_ZNSt7__cxx1112basic_stringIDsSt11char_traitsIDsESaIDsEE12_Alloc_hiderC2EPDsOS3_
	.weak	_ZNSt7__cxx1112basic_stringIDsSt11char_traitsIDsESaIDsEE12_Alloc_hiderC1EPDsOS3_
	.set	_ZNSt7__cxx1112basic_stringIDsSt11char_traitsIDsESaIDsEE12_Alloc_hiderC1EPDsOS3_,_ZNSt7__cxx1112basic_stringIDsSt11char_traitsIDsESaIDsEE12_Alloc_hiderC2EPDsOS3_
	.section	.text._ZNKSt7__cxx1112basic_stringIDsSt11char_traitsIDsESaIDsEE11_M_is_localEv,"axG",@progbits,_ZNKSt7__cxx1112basic_stringIDsSt11char_traitsIDsESaIDsEE11_M_is_localEv,comdat
	.align	2
	.weak	_ZNKSt7__cxx1112basic_stringIDsSt11char_traitsIDsESaIDsEE11_M_is_localEv
	.type	_ZNKSt7__cxx1112basic_stringIDsSt11char_traitsIDsESaIDsEE11_M_is_localEv, %function
_ZNKSt7__cxx1112basic_stringIDsSt11char_traitsIDsESaIDsEE11_M_is_localEv:
.LFB2556:
	.cfi_startproc
	stp	x29, x30, [sp, -48]!
	.cfi_def_cfa_offset 48
	.cfi_offset 29, -48
	.cfi_offset 30, -40
	mov	x29, sp
	str	x19, [sp, 16]
	.cfi_offset 19, -32
	str	x0, [sp, 40]
	ldr	x0, [sp, 40]
	bl	_ZNKSt7__cxx1112basic_stringIDsSt11char_traitsIDsESaIDsEE7_M_dataEv
	mov	x19, x0
	ldr	x0, [sp, 40]
	bl	_ZNKSt7__cxx1112basic_stringIDsSt11char_traitsIDsESaIDsEE13_M_local_dataEv
	cmp	x19, x0
	cset	w0, eq
	and	w0, w0, 255
	ldr	x19, [sp, 16]
	ldp	x29, x30, [sp], 48
	.cfi_restore 30
	.cfi_restore 29
	.cfi_restore 19
	.cfi_def_cfa_offset 0
	ret
	.cfi_endproc
.LFE2556:
	.size	_ZNKSt7__cxx1112basic_stringIDsSt11char_traitsIDsESaIDsEE11_M_is_localEv, .-_ZNKSt7__cxx1112basic_stringIDsSt11char_traitsIDsESaIDsEE11_M_is_localEv
	.section	.text._ZNSt7__cxx1112basic_stringIDsSt11char_traitsIDsESaIDsEE7_M_dataEPDs,"axG",@progbits,_ZNSt7__cxx1112basic_stringIDsSt11char_traitsIDsESaIDsEE7_M_dataEPDs,comdat
	.align	2
	.weak	_ZNSt7__cxx1112basic_stringIDsSt11char_traitsIDsESaIDsEE7_M_dataEPDs
	.type	_ZNSt7__cxx1112basic_stringIDsSt11char_traitsIDsESaIDsEE7_M_dataEPDs, %function
_ZNSt7__cxx1112basic_stringIDsSt11char_traitsIDsESaIDsEE7_M_dataEPDs:
.LFB2557:
	.cfi_startproc
	sub	sp, sp, #16
	.cfi_def_cfa_offset 16
	str	x0, [sp, 8]
	str	x1, [sp]
	ldr	x0, [sp, 8]
	ldr	x1, [sp]
	str	x1, [x0]
	nop
	add	sp, sp, 16
	.cfi_def_cfa_offset 0
	ret
	.cfi_endproc
.LFE2557:
	.size	_ZNSt7__cxx1112basic_stringIDsSt11char_traitsIDsESaIDsEE7_M_dataEPDs, .-_ZNSt7__cxx1112basic_stringIDsSt11char_traitsIDsESaIDsEE7_M_dataEPDs
	.section	.text._ZNSt7__cxx1112basic_stringIDsSt11char_traitsIDsESaIDsEE11_M_capacityEm,"axG",@progbits,_ZNSt7__cxx1112basic_stringIDsSt11char_traitsIDsESaIDsEE11_M_capacityEm,comdat
	.align	2
	.weak	_ZNSt7__cxx1112basic_stringIDsSt11char_traitsIDsESaIDsEE11_M_capacityEm
	.type	_ZNSt7__cxx1112basic_stringIDsSt11char_traitsIDsESaIDsEE11_M_capacityEm, %function
_ZNSt7__cxx1112basic_stringIDsSt11char_traitsIDsESaIDsEE11_M_capacityEm:
.LFB2558:
	.cfi_startproc
	sub	sp, sp, #16
	.cfi_def_cfa_offset 16
	str	x0, [sp, 8]
	str	x1, [sp]
	ldr	x0, [sp, 8]
	ldr	x1, [sp]
	str	x1, [x0, 16]
	nop
	add	sp, sp, 16
	.cfi_def_cfa_offset 0
	ret
	.cfi_endproc
.LFE2558:
	.size	_ZNSt7__cxx1112basic_stringIDsSt11char_traitsIDsESaIDsEE11_M_capacityEm, .-_ZNSt7__cxx1112basic_stringIDsSt11char_traitsIDsESaIDsEE11_M_capacityEm
	.section	.text._ZNSt7__cxx1112basic_stringIDsSt11char_traitsIDsESaIDsEE9_M_lengthEm,"axG",@progbits,_ZNSt7__cxx1112basic_stringIDsSt11char_traitsIDsESaIDsEE9_M_lengthEm,comdat
	.align	2
	.weak	_ZNSt7__cxx1112basic_stringIDsSt11char_traitsIDsESaIDsEE9_M_lengthEm
	.type	_ZNSt7__cxx1112basic_stringIDsSt11char_traitsIDsESaIDsEE9_M_lengthEm, %function
_ZNSt7__cxx1112basic_stringIDsSt11char_traitsIDsESaIDsEE9_M_lengthEm:
.LFB2559:
	.cfi_startproc
	sub	sp, sp, #16
	.cfi_def_cfa_offset 16
	str	x0, [sp, 8]
	str	x1, [sp]
	ldr	x0, [sp, 8]
	ldr	x1, [sp]
	str	x1, [x0, 8]
	nop
	add	sp, sp, 16
	.cfi_def_cfa_offset 0
	ret
	.cfi_endproc
.LFE2559:
	.size	_ZNSt7__cxx1112basic_stringIDsSt11char_traitsIDsESaIDsEE9_M_lengthEm, .-_ZNSt7__cxx1112basic_stringIDsSt11char_traitsIDsESaIDsEE9_M_lengthEm
	.section	.text._ZNSt7__cxx1112basic_stringIDsSt11char_traitsIDsESaIDsEE13_M_set_lengthEm,"axG",@progbits,_ZNSt7__cxx1112basic_stringIDsSt11char_traitsIDsESaIDsEE13_M_set_lengthEm,comdat
	.align	2
	.weak	_ZNSt7__cxx1112basic_stringIDsSt11char_traitsIDsESaIDsEE13_M_set_lengthEm
	.type	_ZNSt7__cxx1112basic_stringIDsSt11char_traitsIDsESaIDsEE13_M_set_lengthEm, %function
_ZNSt7__cxx1112basic_stringIDsSt11char_traitsIDsESaIDsEE13_M_set_lengthEm:
.LFB2560:
	.cfi_startproc
	stp	x29, x30, [sp, -48]!
	.cfi_def_cfa_offset 48
	.cfi_offset 29, -48
	.cfi_offset 30, -40
	mov	x29, sp
	str	x0, [sp, 24]
	str	x1, [sp, 16]
	adrp	x0, :got:__stack_chk_guard
	ldr	x0, [x0, #:got_lo12:__stack_chk_guard]
	ldr	x1, [x0]
	str	x1, [sp, 40]
	mov	x1, 0
	ldr	x1, [sp, 16]
	ldr	x0, [sp, 24]
	bl	_ZNSt7__cxx1112basic_stringIDsSt11char_traitsIDsESaIDsEE9_M_lengthEm
	ldr	x0, [sp, 24]
	bl	_ZNKSt7__cxx1112basic_stringIDsSt11char_traitsIDsESaIDsEE7_M_dataEv
	mov	x1, x0
	ldr	x0, [sp, 16]
	lsl	x0, x0, 1
	add	x0, x1, x0
	strh	wzr, [sp, 38]
	add	x1, sp, 38
	bl	_ZNSt11char_traitsIDsE6assignERDsRKDs
	nop
	adrp	x0, :got:__stack_chk_guard
	ldr	x0, [x0, #:got_lo12:__stack_chk_guard]
	ldr	x2, [sp, 40]
	ldr	x1, [x0]
	subs	x2, x2, x1
	mov	x1, 0
	beq	.L128
	bl	__stack_chk_fail
.L128:
	ldp	x29, x30, [sp], 48
	.cfi_restore 30
	.cfi_restore 29
	.cfi_def_cfa_offset 0
	ret
	.cfi_endproc
.LFE2560:
	.size	_ZNSt7__cxx1112basic_stringIDsSt11char_traitsIDsESaIDsEE13_M_set_lengthEm, .-_ZNSt7__cxx1112basic_stringIDsSt11char_traitsIDsESaIDsEE13_M_set_lengthEm
	.section	.text._ZNKSt7__cxx1112basic_stringIDsSt11char_traitsIDsESaIDsEE4sizeEv,"axG",@progbits,_ZNKSt7__cxx1112basic_stringIDsSt11char_traitsIDsESaIDsEE4sizeEv,comdat
	.align	2
	.weak	_ZNKSt7__cxx1112basic_stringIDsSt11char_traitsIDsESaIDsEE4sizeEv
	.type	_ZNKSt7__cxx1112basic_stringIDsSt11char_traitsIDsESaIDsEE4sizeEv, %function
_ZNKSt7__cxx1112basic_stringIDsSt11char_traitsIDsESaIDsEE4sizeEv:
.LFB2561:
	.cfi_startproc
	sub	sp, sp, #16
	.cfi_def_cfa_offset 16
	str	x0, [sp, 8]
	ldr	x0, [sp, 8]
	ldr	x0, [x0, 8]
	add	sp, sp, 16
	.cfi_def_cfa_offset 0
	ret
	.cfi_endproc
.LFE2561:
	.size	_ZNKSt7__cxx1112basic_stringIDsSt11char_traitsIDsESaIDsEE4sizeEv, .-_ZNKSt7__cxx1112basic_stringIDsSt11char_traitsIDsESaIDsEE4sizeEv
	.section	.rodata
	.align	3
.LC1:
	.string	"wstring_convert::to_bytes"
	.section	.text._ZNSt7__cxx1115wstring_convertISt18codecvt_utf8_utf16IDsLm1114111ELSt12codecvt_mode0EEDsSaIDsESaIcEE8to_bytesEPKDsS8_,"axG",@progbits,_ZNSt7__cxx1115wstring_convertISt18codecvt_utf8_utf16IDsLm1114111ELSt12codecvt_mode0EEDsSaIDsESaIcEE8to_bytesEPKDsS8_,comdat
	.align	2
	.weak	_ZNSt7__cxx1115wstring_convertISt18codecvt_utf8_utf16IDsLm1114111ELSt12codecvt_mode0EEDsSaIDsESaIcEE8to_bytesEPKDsS8_
	.type	_ZNSt7__cxx1115wstring_convertISt18codecvt_utf8_utf16IDsLm1114111ELSt12codecvt_mode0EEDsSaIDsESaIcEE8to_bytesEPKDsS8_, %function
_ZNSt7__cxx1115wstring_convertISt18codecvt_utf8_utf16IDsLm1114111ELSt12codecvt_mode0EEDsSaIDsESaIcEE8to_bytesEPKDsS8_:
.LFB2562:
	.cfi_startproc
	.cfi_personality 0x9b,DW.ref.__gxx_personality_v0
	.cfi_lsda 0x1b,.LLSDA2562
	stp	x29, x30, [sp, -112]!
	.cfi_def_cfa_offset 112
	.cfi_offset 29, -112
	.cfi_offset 30, -104
	mov	x29, sp
	str	x19, [sp, 16]
	.cfi_offset 19, -96
	mov	x19, x8
	str	x0, [sp, 56]
	str	x1, [sp, 48]
	str	x2, [sp, 40]
	adrp	x0, :got:__stack_chk_guard
	ldr	x0, [x0, #:got_lo12:__stack_chk_guard]
	ldr	x1, [x0]
	str	x1, [sp, 104]
	mov	x1, 0
	ldr	x0, [sp, 56]
	ldrb	w0, [x0, 88]
	eor	w0, w0, 1
	and	w0, w0, 255
	cmp	w0, 0
	beq	.L132
	ldr	x0, [sp, 56]
	str	wzr, [x0, 72]
	ldr	x0, [sp, 56]
	str	wzr, [x0, 76]
.L132:
	ldr	x0, [sp, 56]
	add	x0, x0, 8
	add	x1, sp, 64
	mov	x8, x1
	bl	_ZNKSt7__cxx1112basic_stringIcSt11char_traitsIcESaIcEE13get_allocatorEv
	add	x1, sp, 64
	add	x0, sp, 72
	bl	_ZNSt7__cxx1112basic_stringIcSt11char_traitsIcESaIcEEC1ERKS3_
	add	x0, sp, 64
	bl	_ZNSaIcED1Ev
	ldr	x0, [sp, 56]
	bl	_ZNKSt10unique_ptrISt18codecvt_utf8_utf16IDsLm1114111ELSt12codecvt_mode0EESt14default_deleteIS2_EEdeEv
	mov	x3, x0
	ldr	x0, [sp, 56]
	add	x1, x0, 72
	ldr	x0, [sp, 56]
	add	x2, x0, 80
	add	x0, sp, 72
	mov	x5, x2
	mov	x4, x1
	mov	x2, x0
	ldr	x1, [sp, 40]
	ldr	x0, [sp, 48]
.LEHB20:
	bl	_ZSt17__str_codecvt_outIDsSt11char_traitsIcESaIcE11__mbstate_tEbPKT_S6_RNSt7__cxx1112basic_stringIcT0_T1_EERKSt7codecvtIS4_cT2_ERSE_Rm
	and	w0, w0, 255
	cmp	w0, 0
	beq	.L133
	add	x0, sp, 72
	mov	x1, x0
	mov	x0, x19
	bl	_ZNSt7__cxx1112basic_stringIcSt11char_traitsIcESaIcEEC1EOS4_
	b	.L134
.L133:
	ldr	x0, [sp, 56]
	ldrb	w0, [x0, 89]
	cmp	w0, 0
	beq	.L135
	ldr	x0, [sp, 56]
	add	x0, x0, 8
	mov	x1, x0
	mov	x0, x19
	bl	_ZNSt7__cxx1112basic_stringIcSt11char_traitsIcESaIcEEC1ERKS4_
	b	.L134
.L135:
	adrp	x0, .LC1
	add	x0, x0, :lo12:.LC1
	bl	_ZSt19__throw_range_errorPKc
.LEHE20:
.L134:
	add	x0, sp, 72
	bl	_ZNSt7__cxx1112basic_stringIcSt11char_traitsIcESaIcEED1Ev
	adrp	x0, :got:__stack_chk_guard
	ldr	x0, [x0, #:got_lo12:__stack_chk_guard]
	ldr	x2, [sp, 104]
	ldr	x1, [x0]
	subs	x2, x2, x1
	mov	x1, 0
	beq	.L138
	b	.L140
.L139:
	mov	x19, x0
	add	x0, sp, 72
	bl	_ZNSt7__cxx1112basic_stringIcSt11char_traitsIcESaIcEED1Ev
	mov	x0, x19
.LEHB21:
	bl	_Unwind_Resume
.LEHE21:
.L140:
	bl	__stack_chk_fail
.L138:
	mov	x0, x19
	ldr	x19, [sp, 16]
	ldp	x29, x30, [sp], 112
	.cfi_restore 30
	.cfi_restore 29
	.cfi_restore 19
	.cfi_def_cfa_offset 0
	ret
	.cfi_endproc
.LFE2562:
	.section	.gcc_except_table
.LLSDA2562:
	.byte	0xff
	.byte	0xff
	.byte	0x1
	.uleb128 .LLSDACSE2562-.LLSDACSB2562
.LLSDACSB2562:
	.uleb128 .LEHB20-.LFB2562
	.uleb128 .LEHE20-.LEHB20
	.uleb128 .L139-.LFB2562
	.uleb128 0
	.uleb128 .LEHB21-.LFB2562
	.uleb128 .LEHE21-.LEHB21
	.uleb128 0
	.uleb128 0
.LLSDACSE2562:
	.section	.text._ZNSt7__cxx1115wstring_convertISt18codecvt_utf8_utf16IDsLm1114111ELSt12codecvt_mode0EEDsSaIDsESaIcEE8to_bytesEPKDsS8_,"axG",@progbits,_ZNSt7__cxx1115wstring_convertISt18codecvt_utf8_utf16IDsLm1114111ELSt12codecvt_mode0EEDsSaIDsESaIcEE8to_bytesEPKDsS8_,comdat
	.size	_ZNSt7__cxx1115wstring_convertISt18codecvt_utf8_utf16IDsLm1114111ELSt12codecvt_mode0EEDsSaIDsESaIcEE8to_bytesEPKDsS8_, .-_ZNSt7__cxx1115wstring_convertISt18codecvt_utf8_utf16IDsLm1114111ELSt12codecvt_mode0EEDsSaIDsESaIcEE8to_bytesEPKDsS8_
	.section	.text._ZNSt18codecvt_utf8_utf16IwLm1114111ELSt12codecvt_mode0EEC2Em,"axG",@progbits,_ZNSt18codecvt_utf8_utf16IwLm1114111ELSt12codecvt_mode0EEC5Em,comdat
	.align	2
	.weak	_ZNSt18codecvt_utf8_utf16IwLm1114111ELSt12codecvt_mode0EEC2Em
	.type	_ZNSt18codecvt_utf8_utf16IwLm1114111ELSt12codecvt_mode0EEC2Em, %function
_ZNSt18codecvt_utf8_utf16IwLm1114111ELSt12codecvt_mode0EEC2Em:
.LFB2564:
	.cfi_startproc
	stp	x29, x30, [sp, -80]!
	.cfi_def_cfa_offset 80
	.cfi_offset 29, -80
	.cfi_offset 30, -72
	mov	x29, sp
	str	x19, [sp, 16]
	.cfi_offset 19, -64
	str	x0, [sp, 40]
	str	x1, [sp, 32]
	adrp	x0, :got:__stack_chk_guard
	ldr	x0, [x0, #:got_lo12:__stack_chk_guard]
	ldr	x1, [x0]
	str	x1, [sp, 72]
	mov	x1, 0
	ldr	x19, [sp, 40]
	mov	w0, 1114111
	str	x0, [sp, 56]
	mov	w0, 1114111
	str	x0, [sp, 64]
	add	x1, sp, 64
	add	x0, sp, 56
	bl	_ZSt3minImERKT_S2_S2_
	ldr	x0, [x0]
	ldr	x3, [sp, 32]
	mov	w2, 0
	mov	x1, x0
	mov	x0, x19
	bl	_ZNSt25__codecvt_utf8_utf16_baseIwEC2EmSt12codecvt_modem
	adrp	x0, _ZTVSt18codecvt_utf8_utf16IwLm1114111ELSt12codecvt_mode0EE+16
	add	x1, x0, :lo12:_ZTVSt18codecvt_utf8_utf16IwLm1114111ELSt12codecvt_mode0EE+16
	ldr	x0, [sp, 40]
	str	x1, [x0]
	nop
	adrp	x0, :got:__stack_chk_guard
	ldr	x0, [x0, #:got_lo12:__stack_chk_guard]
	ldr	x2, [sp, 72]
	ldr	x1, [x0]
	subs	x2, x2, x1
	mov	x1, 0
	beq	.L142
	bl	__stack_chk_fail
.L142:
	ldr	x19, [sp, 16]
	ldp	x29, x30, [sp], 80
	.cfi_restore 30
	.cfi_restore 29
	.cfi_restore 19
	.cfi_def_cfa_offset 0
	ret
	.cfi_endproc
.LFE2564:
	.size	_ZNSt18codecvt_utf8_utf16IwLm1114111ELSt12codecvt_mode0EEC2Em, .-_ZNSt18codecvt_utf8_utf16IwLm1114111ELSt12codecvt_mode0EEC2Em
	.weak	_ZNSt18codecvt_utf8_utf16IwLm1114111ELSt12codecvt_mode0EEC1Em
	.set	_ZNSt18codecvt_utf8_utf16IwLm1114111ELSt12codecvt_mode0EEC1Em,_ZNSt18codecvt_utf8_utf16IwLm1114111ELSt12codecvt_mode0EEC2Em
	.section	.text._ZNSt15__uniq_ptr_dataISt18codecvt_utf8_utf16IwLm1114111ELSt12codecvt_mode0EESt14default_deleteIS2_ELb1ELb1EECI2St15__uniq_ptr_implIS2_S4_EEPS2_,"axG",@progbits,_ZNSt15__uniq_ptr_dataISt18codecvt_utf8_utf16IwLm1114111ELSt12codecvt_mode0EESt14default_deleteIS2_ELb1ELb1EECI5St15__uniq_ptr_implIS2_S4_EEPS2_,comdat
	.align	2
	.weak	_ZNSt15__uniq_ptr_dataISt18codecvt_utf8_utf16IwLm1114111ELSt12codecvt_mode0EESt14default_deleteIS2_ELb1ELb1EECI2St15__uniq_ptr_implIS2_S4_EEPS2_
	.type	_ZNSt15__uniq_ptr_dataISt18codecvt_utf8_utf16IwLm1114111ELSt12codecvt_mode0EESt14default_deleteIS2_ELb1ELb1EECI2St15__uniq_ptr_implIS2_S4_EEPS2_, %function
_ZNSt15__uniq_ptr_dataISt18codecvt_utf8_utf16IwLm1114111ELSt12codecvt_mode0EESt14default_deleteIS2_ELb1ELb1EECI2St15__uniq_ptr_implIS2_S4_EEPS2_:
.LFB2568:
	.cfi_startproc
	stp	x29, x30, [sp, -32]!
	.cfi_def_cfa_offset 32
	.cfi_offset 29, -32
	.cfi_offset 30, -24
	mov	x29, sp
	str	x0, [sp, 24]
	str	x1, [sp, 16]
	ldr	x0, [sp, 24]
	ldr	x1, [sp, 16]
	bl	_ZNSt15__uniq_ptr_implISt18codecvt_utf8_utf16IwLm1114111ELSt12codecvt_mode0EESt14default_deleteIS2_EEC2EPS2_
	nop
	ldp	x29, x30, [sp], 32
	.cfi_restore 30
	.cfi_restore 29
	.cfi_def_cfa_offset 0
	ret
	.cfi_endproc
.LFE2568:
	.size	_ZNSt15__uniq_ptr_dataISt18codecvt_utf8_utf16IwLm1114111ELSt12codecvt_mode0EESt14default_deleteIS2_ELb1ELb1EECI2St15__uniq_ptr_implIS2_S4_EEPS2_, .-_ZNSt15__uniq_ptr_dataISt18codecvt_utf8_utf16IwLm1114111ELSt12codecvt_mode0EESt14default_deleteIS2_ELb1ELb1EECI2St15__uniq_ptr_implIS2_S4_EEPS2_
	.weak	_ZNSt15__uniq_ptr_dataISt18codecvt_utf8_utf16IwLm1114111ELSt12codecvt_mode0EESt14default_deleteIS2_ELb1ELb1EECI1St15__uniq_ptr_implIS2_S4_EEPS2_
	.set	_ZNSt15__uniq_ptr_dataISt18codecvt_utf8_utf16IwLm1114111ELSt12codecvt_mode0EESt14default_deleteIS2_ELb1ELb1EECI1St15__uniq_ptr_implIS2_S4_EEPS2_,_ZNSt15__uniq_ptr_dataISt18codecvt_utf8_utf16IwLm1114111ELSt12codecvt_mode0EESt14default_deleteIS2_ELb1ELb1EECI2St15__uniq_ptr_implIS2_S4_EEPS2_
	.section	.text._ZNSt10unique_ptrISt18codecvt_utf8_utf16IwLm1114111ELSt12codecvt_mode0EESt14default_deleteIS2_EEC2IS4_vEEPS2_,"axG",@progbits,_ZNSt10unique_ptrISt18codecvt_utf8_utf16IwLm1114111ELSt12codecvt_mode0EESt14default_deleteIS2_EEC5IS4_vEEPS2_,comdat
	.align	2
	.weak	_ZNSt10unique_ptrISt18codecvt_utf8_utf16IwLm1114111ELSt12codecvt_mode0EESt14default_deleteIS2_EEC2IS4_vEEPS2_
	.type	_ZNSt10unique_ptrISt18codecvt_utf8_utf16IwLm1114111ELSt12codecvt_mode0EESt14default_deleteIS2_EEC2IS4_vEEPS2_, %function
_ZNSt10unique_ptrISt18codecvt_utf8_utf16IwLm1114111ELSt12codecvt_mode0EESt14default_deleteIS2_EEC2IS4_vEEPS2_:
.LFB2570:
	.cfi_startproc
	stp	x29, x30, [sp, -32]!
	.cfi_def_cfa_offset 32
	.cfi_offset 29, -32
	.cfi_offset 30, -24
	mov	x29, sp
	str	x0, [sp, 24]
	str	x1, [sp, 16]
	ldr	x0, [sp, 24]
	ldr	x1, [sp, 16]
	bl	_ZNSt15__uniq_ptr_dataISt18codecvt_utf8_utf16IwLm1114111ELSt12codecvt_mode0EESt14default_deleteIS2_ELb1ELb1EECI1St15__uniq_ptr_implIS2_S4_EEPS2_
	nop
	ldp	x29, x30, [sp], 32
	.cfi_restore 30
	.cfi_restore 29
	.cfi_def_cfa_offset 0
	ret
	.cfi_endproc
.LFE2570:
	.size	_ZNSt10unique_ptrISt18codecvt_utf8_utf16IwLm1114111ELSt12codecvt_mode0EESt14default_deleteIS2_EEC2IS4_vEEPS2_, .-_ZNSt10unique_ptrISt18codecvt_utf8_utf16IwLm1114111ELSt12codecvt_mode0EESt14default_deleteIS2_EEC2IS4_vEEPS2_
	.weak	_ZNSt10unique_ptrISt18codecvt_utf8_utf16IwLm1114111ELSt12codecvt_mode0EESt14default_deleteIS2_EEC1IS4_vEEPS2_
	.set	_ZNSt10unique_ptrISt18codecvt_utf8_utf16IwLm1114111ELSt12codecvt_mode0EESt14default_deleteIS2_EEC1IS4_vEEPS2_,_ZNSt10unique_ptrISt18codecvt_utf8_utf16IwLm1114111ELSt12codecvt_mode0EESt14default_deleteIS2_EEC2IS4_vEEPS2_
	.section	.text._ZNSt15__uniq_ptr_implISt18codecvt_utf8_utf16IwLm1114111ELSt12codecvt_mode0EESt14default_deleteIS2_EE6_M_ptrEv,"axG",@progbits,_ZNSt15__uniq_ptr_implISt18codecvt_utf8_utf16IwLm1114111ELSt12codecvt_mode0EESt14default_deleteIS2_EE6_M_ptrEv,comdat
	.align	2
	.weak	_ZNSt15__uniq_ptr_implISt18codecvt_utf8_utf16IwLm1114111ELSt12codecvt_mode0EESt14default_deleteIS2_EE6_M_ptrEv
	.type	_ZNSt15__uniq_ptr_implISt18codecvt_utf8_utf16IwLm1114111ELSt12codecvt_mode0EESt14default_deleteIS2_EE6_M_ptrEv, %function
_ZNSt15__uniq_ptr_implISt18codecvt_utf8_utf16IwLm1114111ELSt12codecvt_mode0EESt14default_deleteIS2_EE6_M_ptrEv:
.LFB2575:
	.cfi_startproc
	stp	x29, x30, [sp, -32]!
	.cfi_def_cfa_offset 32
	.cfi_offset 29, -32
	.cfi_offset 30, -24
	mov	x29, sp
	str	x0, [sp, 24]
	ldr	x0, [sp, 24]
	bl	_ZSt3getILm0EJPSt18codecvt_utf8_utf16IwLm1114111ELSt12codecvt_mode0EESt14default_deleteIS2_EEERNSt13tuple_elementIXT_ESt5tupleIJDpT0_EEE4typeERSA_
	ldp	x29, x30, [sp], 32
	.cfi_restore 30
	.cfi_restore 29
	.cfi_def_cfa_offset 0
	ret
	.cfi_endproc
.LFE2575:
	.size	_ZNSt15__uniq_ptr_implISt18codecvt_utf8_utf16IwLm1114111ELSt12codecvt_mode0EESt14default_deleteIS2_EE6_M_ptrEv, .-_ZNSt15__uniq_ptr_implISt18codecvt_utf8_utf16IwLm1114111ELSt12codecvt_mode0EESt14default_deleteIS2_EE6_M_ptrEv
	.section	.text._ZNSt10unique_ptrISt18codecvt_utf8_utf16IwLm1114111ELSt12codecvt_mode0EESt14default_deleteIS2_EE11get_deleterEv,"axG",@progbits,_ZNSt10unique_ptrISt18codecvt_utf8_utf16IwLm1114111ELSt12codecvt_mode0EESt14default_deleteIS2_EE11get_deleterEv,comdat
	.align	2
	.weak	_ZNSt10unique_ptrISt18codecvt_utf8_utf16IwLm1114111ELSt12codecvt_mode0EESt14default_deleteIS2_EE11get_deleterEv
	.type	_ZNSt10unique_ptrISt18codecvt_utf8_utf16IwLm1114111ELSt12codecvt_mode0EESt14default_deleteIS2_EE11get_deleterEv, %function
_ZNSt10unique_ptrISt18codecvt_utf8_utf16IwLm1114111ELSt12codecvt_mode0EESt14default_deleteIS2_EE11get_deleterEv:
.LFB2576:
	.cfi_startproc
	stp	x29, x30, [sp, -32]!
	.cfi_def_cfa_offset 32
	.cfi_offset 29, -32
	.cfi_offset 30, -24
	mov	x29, sp
	str	x0, [sp, 24]
	ldr	x0, [sp, 24]
	bl	_ZNSt15__uniq_ptr_implISt18codecvt_utf8_utf16IwLm1114111ELSt12codecvt_mode0EESt14default_deleteIS2_EE10_M_deleterEv
	ldp	x29, x30, [sp], 32
	.cfi_restore 30
	.cfi_restore 29
	.cfi_def_cfa_offset 0
	ret
	.cfi_endproc
.LFE2576:
	.size	_ZNSt10unique_ptrISt18codecvt_utf8_utf16IwLm1114111ELSt12codecvt_mode0EESt14default_deleteIS2_EE11get_deleterEv, .-_ZNSt10unique_ptrISt18codecvt_utf8_utf16IwLm1114111ELSt12codecvt_mode0EESt14default_deleteIS2_EE11get_deleterEv
	.section	.text._ZSt4moveIRPSt18codecvt_utf8_utf16IwLm1114111ELSt12codecvt_mode0EEEONSt16remove_referenceIT_E4typeEOS6_,"axG",@progbits,_ZSt4moveIRPSt18codecvt_utf8_utf16IwLm1114111ELSt12codecvt_mode0EEEONSt16remove_referenceIT_E4typeEOS6_,comdat
	.align	2
	.weak	_ZSt4moveIRPSt18codecvt_utf8_utf16IwLm1114111ELSt12codecvt_mode0EEEONSt16remove_referenceIT_E4typeEOS6_
	.type	_ZSt4moveIRPSt18codecvt_utf8_utf16IwLm1114111ELSt12codecvt_mode0EEEONSt16remove_referenceIT_E4typeEOS6_, %function
_ZSt4moveIRPSt18codecvt_utf8_utf16IwLm1114111ELSt12codecvt_mode0EEEONSt16remove_referenceIT_E4typeEOS6_:
.LFB2577:
	.cfi_startproc
	sub	sp, sp, #16
	.cfi_def_cfa_offset 16
	str	x0, [sp, 8]
	ldr	x0, [sp, 8]
	add	sp, sp, 16
	.cfi_def_cfa_offset 0
	ret
	.cfi_endproc
.LFE2577:
	.size	_ZSt4moveIRPSt18codecvt_utf8_utf16IwLm1114111ELSt12codecvt_mode0EEEONSt16remove_referenceIT_E4typeEOS6_, .-_ZSt4moveIRPSt18codecvt_utf8_utf16IwLm1114111ELSt12codecvt_mode0EEEONSt16remove_referenceIT_E4typeEOS6_
	.section	.text._ZNSt18codecvt_utf8_utf16IwLm1114111ELSt12codecvt_mode0EED2Ev,"axG",@progbits,_ZNSt18codecvt_utf8_utf16IwLm1114111ELSt12codecvt_mode0EED5Ev,comdat
	.align	2
	.weak	_ZNSt18codecvt_utf8_utf16IwLm1114111ELSt12codecvt_mode0EED2Ev
	.type	_ZNSt18codecvt_utf8_utf16IwLm1114111ELSt12codecvt_mode0EED2Ev, %function
_ZNSt18codecvt_utf8_utf16IwLm1114111ELSt12codecvt_mode0EED2Ev:
.LFB2580:
	.cfi_startproc
	stp	x29, x30, [sp, -32]!
	.cfi_def_cfa_offset 32
	.cfi_offset 29, -32
	.cfi_offset 30, -24
	mov	x29, sp
	str	x0, [sp, 24]
	adrp	x0, _ZTVSt18codecvt_utf8_utf16IwLm1114111ELSt12codecvt_mode0EE+16
	add	x1, x0, :lo12:_ZTVSt18codecvt_utf8_utf16IwLm1114111ELSt12codecvt_mode0EE+16
	ldr	x0, [sp, 24]
	str	x1, [x0]
	ldr	x0, [sp, 24]
	bl	_ZNSt25__codecvt_utf8_utf16_baseIwED2Ev
	nop
	ldp	x29, x30, [sp], 32
	.cfi_restore 30
	.cfi_restore 29
	.cfi_def_cfa_offset 0
	ret
	.cfi_endproc
.LFE2580:
	.size	_ZNSt18codecvt_utf8_utf16IwLm1114111ELSt12codecvt_mode0EED2Ev, .-_ZNSt18codecvt_utf8_utf16IwLm1114111ELSt12codecvt_mode0EED2Ev
	.weak	_ZNSt18codecvt_utf8_utf16IwLm1114111ELSt12codecvt_mode0EED1Ev
	.set	_ZNSt18codecvt_utf8_utf16IwLm1114111ELSt12codecvt_mode0EED1Ev,_ZNSt18codecvt_utf8_utf16IwLm1114111ELSt12codecvt_mode0EED2Ev
	.section	.text._ZNSt18codecvt_utf8_utf16IwLm1114111ELSt12codecvt_mode0EED0Ev,"axG",@progbits,_ZNSt18codecvt_utf8_utf16IwLm1114111ELSt12codecvt_mode0EED5Ev,comdat
	.align	2
	.weak	_ZNSt18codecvt_utf8_utf16IwLm1114111ELSt12codecvt_mode0EED0Ev
	.type	_ZNSt18codecvt_utf8_utf16IwLm1114111ELSt12codecvt_mode0EED0Ev, %function
_ZNSt18codecvt_utf8_utf16IwLm1114111ELSt12codecvt_mode0EED0Ev:
.LFB2582:
	.cfi_startproc
	stp	x29, x30, [sp, -32]!
	.cfi_def_cfa_offset 32
	.cfi_offset 29, -32
	.cfi_offset 30, -24
	mov	x29, sp
	str	x0, [sp, 24]
	ldr	x0, [sp, 24]
	bl	_ZNSt18codecvt_utf8_utf16IwLm1114111ELSt12codecvt_mode0EED1Ev
	mov	x1, 40
	ldr	x0, [sp, 24]
	bl	_ZdlPvm
	ldp	x29, x30, [sp], 32
	.cfi_restore 30
	.cfi_restore 29
	.cfi_def_cfa_offset 0
	ret
	.cfi_endproc
.LFE2582:
	.size	_ZNSt18codecvt_utf8_utf16IwLm1114111ELSt12codecvt_mode0EED0Ev, .-_ZNSt18codecvt_utf8_utf16IwLm1114111ELSt12codecvt_mode0EED0Ev
	.section	.text._ZNKSt14default_deleteISt18codecvt_utf8_utf16IwLm1114111ELSt12codecvt_mode0EEEclEPS2_,"axG",@progbits,_ZNKSt14default_deleteISt18codecvt_utf8_utf16IwLm1114111ELSt12codecvt_mode0EEEclEPS2_,comdat
	.align	2
	.weak	_ZNKSt14default_deleteISt18codecvt_utf8_utf16IwLm1114111ELSt12codecvt_mode0EEEclEPS2_
	.type	_ZNKSt14default_deleteISt18codecvt_utf8_utf16IwLm1114111ELSt12codecvt_mode0EEEclEPS2_, %function
_ZNKSt14default_deleteISt18codecvt_utf8_utf16IwLm1114111ELSt12codecvt_mode0EEEclEPS2_:
.LFB2578:
	.cfi_startproc
	stp	x29, x30, [sp, -32]!
	.cfi_def_cfa_offset 32
	.cfi_offset 29, -32
	.cfi_offset 30, -24
	mov	x29, sp
	str	x0, [sp, 24]
	str	x1, [sp, 16]
	ldr	x0, [sp, 16]
	cmp	x0, 0
	beq	.L155
	ldr	x1, [x0]
	add	x1, x1, 8
	ldr	x1, [x1]
	blr	x1
.L155:
	nop
	ldp	x29, x30, [sp], 32
	.cfi_restore 30
	.cfi_restore 29
	.cfi_def_cfa_offset 0
	ret
	.cfi_endproc
.LFE2578:
	.size	_ZNKSt14default_deleteISt18codecvt_utf8_utf16IwLm1114111ELSt12codecvt_mode0EEEclEPS2_, .-_ZNKSt14default_deleteISt18codecvt_utf8_utf16IwLm1114111ELSt12codecvt_mode0EEEclEPS2_
	.section	.text._ZNSt7__cxx1115wstring_convertISt18codecvt_utf8_utf16IwLm1114111ELSt12codecvt_mode0EEwSaIwESaIcEE10from_bytesEPKcS8_,"axG",@progbits,_ZNSt7__cxx1115wstring_convertISt18codecvt_utf8_utf16IwLm1114111ELSt12codecvt_mode0EEwSaIwESaIcEE10from_bytesEPKcS8_,comdat
	.align	2
	.weak	_ZNSt7__cxx1115wstring_convertISt18codecvt_utf8_utf16IwLm1114111ELSt12codecvt_mode0EEwSaIwESaIcEE10from_bytesEPKcS8_
	.type	_ZNSt7__cxx1115wstring_convertISt18codecvt_utf8_utf16IwLm1114111ELSt12codecvt_mode0EEwSaIwESaIcEE10from_bytesEPKcS8_, %function
_ZNSt7__cxx1115wstring_convertISt18codecvt_utf8_utf16IwLm1114111ELSt12codecvt_mode0EEwSaIwESaIcEE10from_bytesEPKcS8_:
.LFB2583:
	.cfi_startproc
	.cfi_personality 0x9b,DW.ref.__gxx_personality_v0
	.cfi_lsda 0x1b,.LLSDA2583
	stp	x29, x30, [sp, -112]!
	.cfi_def_cfa_offset 112
	.cfi_offset 29, -112
	.cfi_offset 30, -104
	mov	x29, sp
	str	x19, [sp, 16]
	.cfi_offset 19, -96
	mov	x19, x8
	str	x0, [sp, 56]
	str	x1, [sp, 48]
	str	x2, [sp, 40]
	adrp	x0, :got:__stack_chk_guard
	ldr	x0, [x0, #:got_lo12:__stack_chk_guard]
	ldr	x1, [x0]
	str	x1, [sp, 104]
	mov	x1, 0
	ldr	x0, [sp, 56]
	ldrb	w0, [x0, 88]
	eor	w0, w0, 1
	and	w0, w0, 255
	cmp	w0, 0
	beq	.L157
	ldr	x0, [sp, 56]
	str	wzr, [x0, 72]
	ldr	x0, [sp, 56]
	str	wzr, [x0, 76]
.L157:
	ldr	x0, [sp, 56]
	add	x0, x0, 40
	add	x1, sp, 64
	mov	x8, x1
	bl	_ZNKSt7__cxx1112basic_stringIwSt11char_traitsIwESaIwEE13get_allocatorEv
	add	x1, sp, 64
	add	x0, sp, 72
	bl	_ZNSt7__cxx1112basic_stringIwSt11char_traitsIwESaIwEEC1ERKS3_
	add	x0, sp, 64
	bl	_ZNSaIwED1Ev
	ldr	x0, [sp, 56]
	bl	_ZNKSt10unique_ptrISt18codecvt_utf8_utf16IwLm1114111ELSt12codecvt_mode0EESt14default_deleteIS2_EEdeEv
	mov	x3, x0
	ldr	x0, [sp, 56]
	add	x1, x0, 72
	ldr	x0, [sp, 56]
	add	x2, x0, 80
	add	x0, sp, 72
	mov	x5, x2
	mov	x4, x1
	mov	x2, x0
	ldr	x1, [sp, 40]
	ldr	x0, [sp, 48]
.LEHB22:
	bl	_ZSt16__str_codecvt_inIwSt11char_traitsIwESaIwE11__mbstate_tEbPKcS5_RNSt7__cxx1112basic_stringIT_T0_T1_EERKSt7codecvtIS8_cT2_ERSE_Rm
	and	w0, w0, 255
	cmp	w0, 0
	beq	.L158
	add	x0, sp, 72
	mov	x1, x0
	mov	x0, x19
	bl	_ZNSt7__cxx1112basic_stringIwSt11char_traitsIwESaIwEEC1EOS4_
	b	.L159
.L158:
	ldr	x0, [sp, 56]
	ldrb	w0, [x0, 89]
	cmp	w0, 0
	beq	.L160
	ldr	x0, [sp, 56]
	add	x0, x0, 40
	mov	x1, x0
	mov	x0, x19
	bl	_ZNSt7__cxx1112basic_stringIwSt11char_traitsIwESaIwEEC1ERKS4_
	b	.L159
.L160:
	adrp	x0, .LC0
	add	x0, x0, :lo12:.LC0
	bl	_ZSt19__throw_range_errorPKc
.LEHE22:
.L159:
	add	x0, sp, 72
	bl	_ZNSt7__cxx1112basic_stringIwSt11char_traitsIwESaIwEED1Ev
	adrp	x0, :got:__stack_chk_guard
	ldr	x0, [x0, #:got_lo12:__stack_chk_guard]
	ldr	x2, [sp, 104]
	ldr	x1, [x0]
	subs	x2, x2, x1
	mov	x1, 0
	beq	.L163
	b	.L165
.L164:
	mov	x19, x0
	add	x0, sp, 72
	bl	_ZNSt7__cxx1112basic_stringIwSt11char_traitsIwESaIwEED1Ev
	mov	x0, x19
.LEHB23:
	bl	_Unwind_Resume
.LEHE23:
.L165:
	bl	__stack_chk_fail
.L163:
	mov	x0, x19
	ldr	x19, [sp, 16]
	ldp	x29, x30, [sp], 112
	.cfi_restore 30
	.cfi_restore 29
	.cfi_restore 19
	.cfi_def_cfa_offset 0
	ret
	.cfi_endproc
.LFE2583:
	.section	.gcc_except_table
.LLSDA2583:
	.byte	0xff
	.byte	0xff
	.byte	0x1
	.uleb128 .LLSDACSE2583-.LLSDACSB2583
.LLSDACSB2583:
	.uleb128 .LEHB22-.LFB2583
	.uleb128 .LEHE22-.LEHB22
	.uleb128 .L164-.LFB2583
	.uleb128 0
	.uleb128 .LEHB23-.LFB2583
	.uleb128 .LEHE23-.LEHB23
	.uleb128 0
	.uleb128 0
.LLSDACSE2583:
	.section	.text._ZNSt7__cxx1115wstring_convertISt18codecvt_utf8_utf16IwLm1114111ELSt12codecvt_mode0EEwSaIwESaIcEE10from_bytesEPKcS8_,"axG",@progbits,_ZNSt7__cxx1115wstring_convertISt18codecvt_utf8_utf16IwLm1114111ELSt12codecvt_mode0EEwSaIwESaIcEE10from_bytesEPKcS8_,comdat
	.size	_ZNSt7__cxx1115wstring_convertISt18codecvt_utf8_utf16IwLm1114111ELSt12codecvt_mode0EEwSaIwESaIcEE10from_bytesEPKcS8_, .-_ZNSt7__cxx1115wstring_convertISt18codecvt_utf8_utf16IwLm1114111ELSt12codecvt_mode0EEwSaIwESaIcEE10from_bytesEPKcS8_
	.section	.text._ZNSt7__cxx1115wstring_convertISt18codecvt_utf8_utf16IwLm1114111ELSt12codecvt_mode0EEwSaIwESaIcEE8to_bytesEPKwS8_,"axG",@progbits,_ZNSt7__cxx1115wstring_convertISt18codecvt_utf8_utf16IwLm1114111ELSt12codecvt_mode0EEwSaIwESaIcEE8to_bytesEPKwS8_,comdat
	.align	2
	.weak	_ZNSt7__cxx1115wstring_convertISt18codecvt_utf8_utf16IwLm1114111ELSt12codecvt_mode0EEwSaIwESaIcEE8to_bytesEPKwS8_
	.type	_ZNSt7__cxx1115wstring_convertISt18codecvt_utf8_utf16IwLm1114111ELSt12codecvt_mode0EEwSaIwESaIcEE8to_bytesEPKwS8_, %function
_ZNSt7__cxx1115wstring_convertISt18codecvt_utf8_utf16IwLm1114111ELSt12codecvt_mode0EEwSaIwESaIcEE8to_bytesEPKwS8_:
.LFB2595:
	.cfi_startproc
	.cfi_personality 0x9b,DW.ref.__gxx_personality_v0
	.cfi_lsda 0x1b,.LLSDA2595
	stp	x29, x30, [sp, -112]!
	.cfi_def_cfa_offset 112
	.cfi_offset 29, -112
	.cfi_offset 30, -104
	mov	x29, sp
	str	x19, [sp, 16]
	.cfi_offset 19, -96
	mov	x19, x8
	str	x0, [sp, 56]
	str	x1, [sp, 48]
	str	x2, [sp, 40]
	adrp	x0, :got:__stack_chk_guard
	ldr	x0, [x0, #:got_lo12:__stack_chk_guard]
	ldr	x1, [x0]
	str	x1, [sp, 104]
	mov	x1, 0
	ldr	x0, [sp, 56]
	ldrb	w0, [x0, 88]
	eor	w0, w0, 1
	and	w0, w0, 255
	cmp	w0, 0
	beq	.L167
	ldr	x0, [sp, 56]
	str	wzr, [x0, 72]
	ldr	x0, [sp, 56]
	str	wzr, [x0, 76]
.L167:
	ldr	x0, [sp, 56]
	add	x0, x0, 8
	add	x1, sp, 64
	mov	x8, x1
	bl	_ZNKSt7__cxx1112basic_stringIcSt11char_traitsIcESaIcEE13get_allocatorEv
	add	x1, sp, 64
	add	x0, sp, 72
	bl	_ZNSt7__cxx1112basic_stringIcSt11char_traitsIcESaIcEEC1ERKS3_
	add	x0, sp, 64
	bl	_ZNSaIcED1Ev
	ldr	x0, [sp, 56]
	bl	_ZNKSt10unique_ptrISt18codecvt_utf8_utf16IwLm1114111ELSt12codecvt_mode0EESt14default_deleteIS2_EEdeEv
	mov	x3, x0
	ldr	x0, [sp, 56]
	add	x1, x0, 72
	ldr	x0, [sp, 56]
	add	x2, x0, 80
	add	x0, sp, 72
	mov	x5, x2
	mov	x4, x1
	mov	x2, x0
	ldr	x1, [sp, 40]
	ldr	x0, [sp, 48]
.LEHB24:
	bl	_ZSt17__str_codecvt_outIwSt11char_traitsIcESaIcE11__mbstate_tEbPKT_S6_RNSt7__cxx1112basic_stringIcT0_T1_EERKSt7codecvtIS4_cT2_ERSE_Rm
	and	w0, w0, 255
	cmp	w0, 0
	beq	.L168
	add	x0, sp, 72
	mov	x1, x0
	mov	x0, x19
	bl	_ZNSt7__cxx1112basic_stringIcSt11char_traitsIcESaIcEEC1EOS4_
	b	.L169
.L168:
	ldr	x0, [sp, 56]
	ldrb	w0, [x0, 89]
	cmp	w0, 0
	beq	.L170
	ldr	x0, [sp, 56]
	add	x0, x0, 8
	mov	x1, x0
	mov	x0, x19
	bl	_ZNSt7__cxx1112basic_stringIcSt11char_traitsIcESaIcEEC1ERKS4_
	b	.L169
.L170:
	adrp	x0, .LC1
	add	x0, x0, :lo12:.LC1
	bl	_ZSt19__throw_range_errorPKc
.LEHE24:
.L169:
	add	x0, sp, 72
	bl	_ZNSt7__cxx1112basic_stringIcSt11char_traitsIcESaIcEED1Ev
	adrp	x0, :got:__stack_chk_guard
	ldr	x0, [x0, #:got_lo12:__stack_chk_guard]
	ldr	x2, [sp, 104]
	ldr	x1, [x0]
	subs	x2, x2, x1
	mov	x1, 0
	beq	.L173
	b	.L175
.L174:
	mov	x19, x0
	add	x0, sp, 72
	bl	_ZNSt7__cxx1112basic_stringIcSt11char_traitsIcESaIcEED1Ev
	mov	x0, x19
.LEHB25:
	bl	_Unwind_Resume
.LEHE25:
.L175:
	bl	__stack_chk_fail
.L173:
	mov	x0, x19
	ldr	x19, [sp, 16]
	ldp	x29, x30, [sp], 112
	.cfi_restore 30
	.cfi_restore 29
	.cfi_restore 19
	.cfi_def_cfa_offset 0
	ret
	.cfi_endproc
.LFE2595:
	.section	.gcc_except_table
.LLSDA2595:
	.byte	0xff
	.byte	0xff
	.byte	0x1
	.uleb128 .LLSDACSE2595-.LLSDACSB2595
.LLSDACSB2595:
	.uleb128 .LEHB24-.LFB2595
	.uleb128 .LEHE24-.LEHB24
	.uleb128 .L174-.LFB2595
	.uleb128 0
	.uleb128 .LEHB25-.LFB2595
	.uleb128 .LEHE25-.LEHB25
	.uleb128 0
	.uleb128 0
.LLSDACSE2595:
	.section	.text._ZNSt7__cxx1115wstring_convertISt18codecvt_utf8_utf16IwLm1114111ELSt12codecvt_mode0EEwSaIwESaIcEE8to_bytesEPKwS8_,"axG",@progbits,_ZNSt7__cxx1115wstring_convertISt18codecvt_utf8_utf16IwLm1114111ELSt12codecvt_mode0EEwSaIwESaIcEE8to_bytesEPKwS8_,comdat
	.size	_ZNSt7__cxx1115wstring_convertISt18codecvt_utf8_utf16IwLm1114111ELSt12codecvt_mode0EEwSaIwESaIcEE8to_bytesEPKwS8_, .-_ZNSt7__cxx1115wstring_convertISt18codecvt_utf8_utf16IwLm1114111ELSt12codecvt_mode0EEwSaIwESaIcEE8to_bytesEPKwS8_
	.section	.text._ZNSt14pointer_traitsIPDsE10pointer_toERDs,"axG",@progbits,_ZNSt14pointer_traitsIPDsE10pointer_toERDs,comdat
	.align	2
	.weak	_ZNSt14pointer_traitsIPDsE10pointer_toERDs
	.type	_ZNSt14pointer_traitsIPDsE10pointer_toERDs, %function
_ZNSt14pointer_traitsIPDsE10pointer_toERDs:
.LFB2611:
	.cfi_startproc
	stp	x29, x30, [sp, -32]!
	.cfi_def_cfa_offset 32
	.cfi_offset 29, -32
	.cfi_offset 30, -24
	mov	x29, sp
	str	x0, [sp, 24]
	ldr	x0, [sp, 24]
	bl	_ZSt9addressofIDsEPT_RS0_
	ldp	x29, x30, [sp], 32
	.cfi_restore 30
	.cfi_restore 29
	.cfi_def_cfa_offset 0
	ret
	.cfi_endproc
.LFE2611:
	.size	_ZNSt14pointer_traitsIPDsE10pointer_toERDs, .-_ZNSt14pointer_traitsIPDsE10pointer_toERDs
	.section	.text._ZNSaIDsEC2ERKS_,"axG",@progbits,_ZNSaIDsEC5ERKS_,comdat
	.align	2
	.weak	_ZNSaIDsEC2ERKS_
	.type	_ZNSaIDsEC2ERKS_, %function
_ZNSaIDsEC2ERKS_:
.LFB2613:
	.cfi_startproc
	stp	x29, x30, [sp, -32]!
	.cfi_def_cfa_offset 32
	.cfi_offset 29, -32
	.cfi_offset 30, -24
	mov	x29, sp
	str	x0, [sp, 24]
	str	x1, [sp, 16]
	ldr	x1, [sp, 16]
	ldr	x0, [sp, 24]
	bl	_ZN9__gnu_cxx13new_allocatorIDsEC2ERKS1_
	nop
	ldp	x29, x30, [sp], 32
	.cfi_restore 30
	.cfi_restore 29
	.cfi_def_cfa_offset 0
	ret
	.cfi_endproc
.LFE2613:
	.size	_ZNSaIDsEC2ERKS_, .-_ZNSaIDsEC2ERKS_
	.weak	_ZNSaIDsEC1ERKS_
	.set	_ZNSaIDsEC1ERKS_,_ZNSaIDsEC2ERKS_
	.section	.text._ZNSt7__cxx1112basic_stringIDsSt11char_traitsIDsESaIDsEE10_M_destroyEm,"axG",@progbits,_ZNSt7__cxx1112basic_stringIDsSt11char_traitsIDsESaIDsEE10_M_destroyEm,comdat
	.align	2
	.weak	_ZNSt7__cxx1112basic_stringIDsSt11char_traitsIDsESaIDsEE10_M_destroyEm
	.type	_ZNSt7__cxx1112basic_stringIDsSt11char_traitsIDsESaIDsEE10_M_destroyEm, %function
_ZNSt7__cxx1112basic_stringIDsSt11char_traitsIDsESaIDsEE10_M_destroyEm:
.LFB2616:
	.cfi_startproc
	.cfi_personality 0x9b,DW.ref.__gxx_personality_v0
	.cfi_lsda 0x1b,.LLSDA2616
	stp	x29, x30, [sp, -48]!
	.cfi_def_cfa_offset 48
	.cfi_offset 29, -48
	.cfi_offset 30, -40
	mov	x29, sp
	str	x19, [sp, 16]
	.cfi_offset 19, -32
	str	x0, [sp, 40]
	str	x1, [sp, 32]
	ldr	x0, [sp, 40]
	bl	_ZNSt7__cxx1112basic_stringIDsSt11char_traitsIDsESaIDsEE16_M_get_allocatorEv
	mov	x19, x0
	ldr	x0, [sp, 40]
	bl	_ZNKSt7__cxx1112basic_stringIDsSt11char_traitsIDsESaIDsEE7_M_dataEv
	mov	x1, x0
	ldr	x0, [sp, 32]
	add	x0, x0, 1
	mov	x2, x0
	mov	x0, x19
	bl	_ZNSt16allocator_traitsISaIDsEE10deallocateERS0_PDsm
	nop
	ldr	x19, [sp, 16]
	ldp	x29, x30, [sp], 48
	.cfi_restore 30
	.cfi_restore 29
	.cfi_restore 19
	.cfi_def_cfa_offset 0
	ret
	.cfi_endproc
.LFE2616:
	.section	.gcc_except_table
.LLSDA2616:
	.byte	0xff
	.byte	0xff
	.byte	0x1
	.uleb128 .LLSDACSE2616-.LLSDACSB2616
.LLSDACSB2616:
.LLSDACSE2616:
	.section	.text._ZNSt7__cxx1112basic_stringIDsSt11char_traitsIDsESaIDsEE10_M_destroyEm,"axG",@progbits,_ZNSt7__cxx1112basic_stringIDsSt11char_traitsIDsESaIDsEE10_M_destroyEm,comdat
	.size	_ZNSt7__cxx1112basic_stringIDsSt11char_traitsIDsESaIDsEE10_M_destroyEm, .-_ZNSt7__cxx1112basic_stringIDsSt11char_traitsIDsESaIDsEE10_M_destroyEm
	.section	.text._ZSt3minImERKT_S2_S2_,"axG",@progbits,_ZSt3minImERKT_S2_S2_,comdat
	.align	2
	.weak	_ZSt3minImERKT_S2_S2_
	.type	_ZSt3minImERKT_S2_S2_, %function
_ZSt3minImERKT_S2_S2_:
.LFB2628:
	.cfi_startproc
	sub	sp, sp, #16
	.cfi_def_cfa_offset 16
	str	x0, [sp, 8]
	str	x1, [sp]
	ldr	x0, [sp]
	ldr	x1, [x0]
	ldr	x0, [sp, 8]
	ldr	x0, [x0]
	cmp	x1, x0
	bcs	.L181
	ldr	x0, [sp]
	b	.L182
.L181:
	ldr	x0, [sp, 8]
.L182:
	add	sp, sp, 16
	.cfi_def_cfa_offset 0
	ret
	.cfi_endproc
.LFE2628:
	.size	_ZSt3minImERKT_S2_S2_, .-_ZSt3minImERKT_S2_S2_
	.section	.text._ZNSt15__uniq_ptr_implISt18codecvt_utf8_utf16IDsLm1114111ELSt12codecvt_mode0EESt14default_deleteIS2_EEC2EPS2_,"axG",@progbits,_ZNSt15__uniq_ptr_implISt18codecvt_utf8_utf16IDsLm1114111ELSt12codecvt_mode0EESt14default_deleteIS2_EEC5EPS2_,comdat
	.align	2
	.weak	_ZNSt15__uniq_ptr_implISt18codecvt_utf8_utf16IDsLm1114111ELSt12codecvt_mode0EESt14default_deleteIS2_EEC2EPS2_
	.type	_ZNSt15__uniq_ptr_implISt18codecvt_utf8_utf16IDsLm1114111ELSt12codecvt_mode0EESt14default_deleteIS2_EEC2EPS2_, %function
_ZNSt15__uniq_ptr_implISt18codecvt_utf8_utf16IDsLm1114111ELSt12codecvt_mode0EESt14default_deleteIS2_EEC2EPS2_:
.LFB2631:
	.cfi_startproc
	stp	x29, x30, [sp, -48]!
	.cfi_def_cfa_offset 48
	.cfi_offset 29, -48
	.cfi_offset 30, -40
	mov	x29, sp
	str	x19, [sp, 16]
	.cfi_offset 19, -32
	str	x0, [sp, 40]
	str	x1, [sp, 32]
	ldr	x0, [sp, 40]
	bl	_ZNSt5tupleIJPSt18codecvt_utf8_utf16IDsLm1114111ELSt12codecvt_mode0EESt14default_deleteIS2_EEEC1ILb1ELb1EEEv
	ldr	x19, [sp, 32]
	ldr	x0, [sp, 40]
	bl	_ZNSt15__uniq_ptr_implISt18codecvt_utf8_utf16IDsLm1114111ELSt12codecvt_mode0EESt14default_deleteIS2_EE6_M_ptrEv
	str	x19, [x0]
	nop
	ldr	x19, [sp, 16]
	ldp	x29, x30, [sp], 48
	.cfi_restore 30
	.cfi_restore 29
	.cfi_restore 19
	.cfi_def_cfa_offset 0
	ret
	.cfi_endproc
.LFE2631:
	.size	_ZNSt15__uniq_ptr_implISt18codecvt_utf8_utf16IDsLm1114111ELSt12codecvt_mode0EESt14default_deleteIS2_EEC2EPS2_, .-_ZNSt15__uniq_ptr_implISt18codecvt_utf8_utf16IDsLm1114111ELSt12codecvt_mode0EESt14default_deleteIS2_EEC2EPS2_
	.weak	_ZNSt15__uniq_ptr_implISt18codecvt_utf8_utf16IDsLm1114111ELSt12codecvt_mode0EESt14default_deleteIS2_EEC1EPS2_
	.set	_ZNSt15__uniq_ptr_implISt18codecvt_utf8_utf16IDsLm1114111ELSt12codecvt_mode0EESt14default_deleteIS2_EEC1EPS2_,_ZNSt15__uniq_ptr_implISt18codecvt_utf8_utf16IDsLm1114111ELSt12codecvt_mode0EESt14default_deleteIS2_EEC2EPS2_
	.section	.text._ZSt3getILm0EJPSt18codecvt_utf8_utf16IDsLm1114111ELSt12codecvt_mode0EESt14default_deleteIS2_EEERNSt13tuple_elementIXT_ESt5tupleIJDpT0_EEE4typeERSA_,"axG",@progbits,_ZSt3getILm0EJPSt18codecvt_utf8_utf16IDsLm1114111ELSt12codecvt_mode0EESt14default_deleteIS2_EEERNSt13tuple_elementIXT_ESt5tupleIJDpT0_EEE4typeERSA_,comdat
	.align	2
	.weak	_ZSt3getILm0EJPSt18codecvt_utf8_utf16IDsLm1114111ELSt12codecvt_mode0EESt14default_deleteIS2_EEERNSt13tuple_elementIXT_ESt5tupleIJDpT0_EEE4typeERSA_
	.type	_ZSt3getILm0EJPSt18codecvt_utf8_utf16IDsLm1114111ELSt12codecvt_mode0EESt14default_deleteIS2_EEERNSt13tuple_elementIXT_ESt5tupleIJDpT0_EEE4typeERSA_, %function
_ZSt3getILm0EJPSt18codecvt_utf8_utf16IDsLm1114111ELSt12codecvt_mode0EESt14default_deleteIS2_EEERNSt13tuple_elementIXT_ESt5tupleIJDpT0_EEE4typeERSA_:
.LFB2633:
	.cfi_startproc
	stp	x29, x30, [sp, -32]!
	.cfi_def_cfa_offset 32
	.cfi_offset 29, -32
	.cfi_offset 30, -24
	mov	x29, sp
	str	x0, [sp, 24]
	ldr	x0, [sp, 24]
	bl	_ZSt12__get_helperILm0EPSt18codecvt_utf8_utf16IDsLm1114111ELSt12codecvt_mode0EEJSt14default_deleteIS2_EEERT0_RSt11_Tuple_implIXT_EJS6_DpT1_EE
	ldp	x29, x30, [sp], 32
	.cfi_restore 30
	.cfi_restore 29
	.cfi_def_cfa_offset 0
	ret
	.cfi_endproc
.LFE2633:
	.size	_ZSt3getILm0EJPSt18codecvt_utf8_utf16IDsLm1114111ELSt12codecvt_mode0EESt14default_deleteIS2_EEERNSt13tuple_elementIXT_ESt5tupleIJDpT0_EEE4typeERSA_, .-_ZSt3getILm0EJPSt18codecvt_utf8_utf16IDsLm1114111ELSt12codecvt_mode0EESt14default_deleteIS2_EEERNSt13tuple_elementIXT_ESt5tupleIJDpT0_EEE4typeERSA_
	.section	.text._ZNSt15__uniq_ptr_implISt18codecvt_utf8_utf16IDsLm1114111ELSt12codecvt_mode0EESt14default_deleteIS2_EE10_M_deleterEv,"axG",@progbits,_ZNSt15__uniq_ptr_implISt18codecvt_utf8_utf16IDsLm1114111ELSt12codecvt_mode0EESt14default_deleteIS2_EE10_M_deleterEv,comdat
	.align	2
	.weak	_ZNSt15__uniq_ptr_implISt18codecvt_utf8_utf16IDsLm1114111ELSt12codecvt_mode0EESt14default_deleteIS2_EE10_M_deleterEv
	.type	_ZNSt15__uniq_ptr_implISt18codecvt_utf8_utf16IDsLm1114111ELSt12codecvt_mode0EESt14default_deleteIS2_EE10_M_deleterEv, %function
_ZNSt15__uniq_ptr_implISt18codecvt_utf8_utf16IDsLm1114111ELSt12codecvt_mode0EESt14default_deleteIS2_EE10_M_deleterEv:
.LFB2634:
	.cfi_startproc
	stp	x29, x30, [sp, -32]!
	.cfi_def_cfa_offset 32
	.cfi_offset 29, -32
	.cfi_offset 30, -24
	mov	x29, sp
	str	x0, [sp, 24]
	ldr	x0, [sp, 24]
	bl	_ZSt3getILm1EJPSt18codecvt_utf8_utf16IDsLm1114111ELSt12codecvt_mode0EESt14default_deleteIS2_EEERNSt13tuple_elementIXT_ESt5tupleIJDpT0_EEE4typeERSA_
	ldp	x29, x30, [sp], 32
	.cfi_restore 30
	.cfi_restore 29
	.cfi_def_cfa_offset 0
	ret
	.cfi_endproc
.LFE2634:
	.size	_ZNSt15__uniq_ptr_implISt18codecvt_utf8_utf16IDsLm1114111ELSt12codecvt_mode0EESt14default_deleteIS2_EE10_M_deleterEv, .-_ZNSt15__uniq_ptr_implISt18codecvt_utf8_utf16IDsLm1114111ELSt12codecvt_mode0EESt14default_deleteIS2_EE10_M_deleterEv
	.section	.text._ZNKSt7__cxx1112basic_stringIDsSt11char_traitsIDsESaIDsEE13get_allocatorEv,"axG",@progbits,_ZNKSt7__cxx1112basic_stringIDsSt11char_traitsIDsESaIDsEE13get_allocatorEv,comdat
	.align	2
	.weak	_ZNKSt7__cxx1112basic_stringIDsSt11char_traitsIDsESaIDsEE13get_allocatorEv
	.type	_ZNKSt7__cxx1112basic_stringIDsSt11char_traitsIDsESaIDsEE13get_allocatorEv, %function
_ZNKSt7__cxx1112basic_stringIDsSt11char_traitsIDsESaIDsEE13get_allocatorEv:
.LFB2635:
	.cfi_startproc
	stp	x29, x30, [sp, -48]!
	.cfi_def_cfa_offset 48
	.cfi_offset 29, -48
	.cfi_offset 30, -40
	mov	x29, sp
	str	x19, [sp, 16]
	.cfi_offset 19, -32
	mov	x19, x8
	str	x0, [sp, 40]
	ldr	x0, [sp, 40]
	bl	_ZNKSt7__cxx1112basic_stringIDsSt11char_traitsIDsESaIDsEE16_M_get_allocatorEv
	mov	x1, x0
	mov	x0, x19
	bl	_ZNSaIDsEC1ERKS_
	mov	x0, x19
	ldr	x19, [sp, 16]
	ldp	x29, x30, [sp], 48
	.cfi_restore 30
	.cfi_restore 29
	.cfi_restore 19
	.cfi_def_cfa_offset 0
	ret
	.cfi_endproc
.LFE2635:
	.size	_ZNKSt7__cxx1112basic_stringIDsSt11char_traitsIDsESaIDsEE13get_allocatorEv, .-_ZNKSt7__cxx1112basic_stringIDsSt11char_traitsIDsESaIDsEE13get_allocatorEv
	.section	.text._ZNSt7__cxx1112basic_stringIDsSt11char_traitsIDsESaIDsEEC2ERKS3_,"axG",@progbits,_ZNSt7__cxx1112basic_stringIDsSt11char_traitsIDsESaIDsEEC5ERKS3_,comdat
	.align	2
	.weak	_ZNSt7__cxx1112basic_stringIDsSt11char_traitsIDsESaIDsEEC2ERKS3_
	.type	_ZNSt7__cxx1112basic_stringIDsSt11char_traitsIDsESaIDsEEC2ERKS3_, %function
_ZNSt7__cxx1112basic_stringIDsSt11char_traitsIDsESaIDsEEC2ERKS3_:
.LFB2637:
	.cfi_startproc
	stp	x29, x30, [sp, -48]!
	.cfi_def_cfa_offset 48
	.cfi_offset 29, -48
	.cfi_offset 30, -40
	mov	x29, sp
	str	x19, [sp, 16]
	.cfi_offset 19, -32
	str	x0, [sp, 40]
	str	x1, [sp, 32]
	ldr	x19, [sp, 40]
	ldr	x0, [sp, 40]
	bl	_ZNSt7__cxx1112basic_stringIDsSt11char_traitsIDsESaIDsEE13_M_local_dataEv
	ldr	x2, [sp, 32]
	mov	x1, x0
	mov	x0, x19
	bl	_ZNSt7__cxx1112basic_stringIDsSt11char_traitsIDsESaIDsEE12_Alloc_hiderC1EPDsRKS3_
	mov	x1, 0
	ldr	x0, [sp, 40]
	bl	_ZNSt7__cxx1112basic_stringIDsSt11char_traitsIDsESaIDsEE13_M_set_lengthEm
	nop
	ldr	x19, [sp, 16]
	ldp	x29, x30, [sp], 48
	.cfi_restore 30
	.cfi_restore 29
	.cfi_restore 19
	.cfi_def_cfa_offset 0
	ret
	.cfi_endproc
.LFE2637:
	.size	_ZNSt7__cxx1112basic_stringIDsSt11char_traitsIDsESaIDsEEC2ERKS3_, .-_ZNSt7__cxx1112basic_stringIDsSt11char_traitsIDsESaIDsEEC2ERKS3_
	.weak	_ZNSt7__cxx1112basic_stringIDsSt11char_traitsIDsESaIDsEEC1ERKS3_
	.set	_ZNSt7__cxx1112basic_stringIDsSt11char_traitsIDsESaIDsEEC1ERKS3_,_ZNSt7__cxx1112basic_stringIDsSt11char_traitsIDsESaIDsEEC2ERKS3_
	.section	.text._ZNKSt10unique_ptrISt18codecvt_utf8_utf16IDsLm1114111ELSt12codecvt_mode0EESt14default_deleteIS2_EEdeEv,"axG",@progbits,_ZNKSt10unique_ptrISt18codecvt_utf8_utf16IDsLm1114111ELSt12codecvt_mode0EESt14default_deleteIS2_EEdeEv,comdat
	.align	2
	.weak	_ZNKSt10unique_ptrISt18codecvt_utf8_utf16IDsLm1114111ELSt12codecvt_mode0EESt14default_deleteIS2_EEdeEv
	.type	_ZNKSt10unique_ptrISt18codecvt_utf8_utf16IDsLm1114111ELSt12codecvt_mode0EESt14default_deleteIS2_EEdeEv, %function
_ZNKSt10unique_ptrISt18codecvt_utf8_utf16IDsLm1114111ELSt12codecvt_mode0EESt14default_deleteIS2_EEdeEv:
.LFB2639:
	.cfi_startproc
	stp	x29, x30, [sp, -32]!
	.cfi_def_cfa_offset 32
	.cfi_offset 29, -32
	.cfi_offset 30, -24
	mov	x29, sp
	str	x0, [sp, 24]
	mov	w0, 0
	cmp	w0, 0
	ldr	x0, [sp, 24]
	bl	_ZNKSt10unique_ptrISt18codecvt_utf8_utf16IDsLm1114111ELSt12codecvt_mode0EESt14default_deleteIS2_EE3getEv
	ldp	x29, x30, [sp], 32
	.cfi_restore 30
	.cfi_restore 29
	.cfi_def_cfa_offset 0
	ret
	.cfi_endproc
.LFE2639:
	.size	_ZNKSt10unique_ptrISt18codecvt_utf8_utf16IDsLm1114111ELSt12codecvt_mode0EESt14default_deleteIS2_EEdeEv, .-_ZNKSt10unique_ptrISt18codecvt_utf8_utf16IDsLm1114111ELSt12codecvt_mode0EESt14default_deleteIS2_EEdeEv
	.section	.text._ZSt16__str_codecvt_inIDsSt11char_traitsIDsESaIDsE11__mbstate_tEbPKcS5_RNSt7__cxx1112basic_stringIT_T0_T1_EERKSt7codecvtIS8_cT2_ERSE_Rm,"axG",@progbits,_ZSt16__str_codecvt_inIDsSt11char_traitsIDsESaIDsE11__mbstate_tEbPKcS5_RNSt7__cxx1112basic_stringIT_T0_T1_EERKSt7codecvtIS8_cT2_ERSE_Rm,comdat
	.align	2
	.weak	_ZSt16__str_codecvt_inIDsSt11char_traitsIDsESaIDsE11__mbstate_tEbPKcS5_RNSt7__cxx1112basic_stringIT_T0_T1_EERKSt7codecvtIS8_cT2_ERSE_Rm
	.type	_ZSt16__str_codecvt_inIDsSt11char_traitsIDsESaIDsE11__mbstate_tEbPKcS5_RNSt7__cxx1112basic_stringIT_T0_T1_EERKSt7codecvtIS8_cT2_ERSE_Rm, %function
_ZSt16__str_codecvt_inIDsSt11char_traitsIDsESaIDsE11__mbstate_tEbPKcS5_RNSt7__cxx1112basic_stringIT_T0_T1_EERKSt7codecvtIS8_cT2_ERSE_Rm:
.LFB2640:
	.cfi_startproc
	stp	x29, x30, [sp, -80]!
	.cfi_def_cfa_offset 80
	.cfi_offset 29, -80
	.cfi_offset 30, -72
	mov	x29, sp
	str	x0, [sp, 56]
	str	x1, [sp, 48]
	str	x2, [sp, 40]
	str	x3, [sp, 32]
	str	x4, [sp, 24]
	str	x5, [sp, 16]
	adrp	x0, _ZNKSt23__codecvt_abstract_baseIDsc11__mbstate_tE2inERS0_PKcS4_RS4_PDsS6_RS6_
	add	x0, x0, :lo12:_ZNKSt23__codecvt_abstract_baseIDsc11__mbstate_tE2inERS0_PKcS4_RS4_PDsS6_RS6_
	str	x0, [sp, 64]
	str	xzr, [sp, 72]
	ldp	x6, x7, [sp, 64]
	ldr	x5, [sp, 16]
	ldr	x4, [sp, 24]
	ldr	x3, [sp, 32]
	ldr	x2, [sp, 40]
	ldr	x1, [sp, 48]
	ldr	x0, [sp, 56]
	bl	_ZSt16__do_str_codecvtINSt7__cxx1112basic_stringIDsSt11char_traitsIDsESaIDsEEEcSt7codecvtIDsc11__mbstate_tES7_MS8_KFNSt12codecvt_base6resultERS7_PKcSD_RSD_PDsSF_RSF_EEbPKT0_SL_RT_RKT1_RT2_RmT3_
	and	w0, w0, 255
	ldp	x29, x30, [sp], 80
	.cfi_restore 30
	.cfi_restore 29
	.cfi_def_cfa_offset 0
	ret
	.cfi_endproc
.LFE2640:
	.size	_ZSt16__str_codecvt_inIDsSt11char_traitsIDsESaIDsE11__mbstate_tEbPKcS5_RNSt7__cxx1112basic_stringIT_T0_T1_EERKSt7codecvtIS8_cT2_ERSE_Rm, .-_ZSt16__str_codecvt_inIDsSt11char_traitsIDsESaIDsE11__mbstate_tEbPKcS5_RNSt7__cxx1112basic_stringIT_T0_T1_EERKSt7codecvtIS8_cT2_ERSE_Rm
	.section	.text._ZNSt7__cxx1112basic_stringIDsSt11char_traitsIDsESaIDsEEC2ERKS4_,"axG",@progbits,_ZNSt7__cxx1112basic_stringIDsSt11char_traitsIDsESaIDsEEC5ERKS4_,comdat
	.align	2
	.weak	_ZNSt7__cxx1112basic_stringIDsSt11char_traitsIDsESaIDsEEC2ERKS4_
	.type	_ZNSt7__cxx1112basic_stringIDsSt11char_traitsIDsESaIDsEEC2ERKS4_, %function
_ZNSt7__cxx1112basic_stringIDsSt11char_traitsIDsESaIDsEEC2ERKS4_:
.LFB2642:
	.cfi_startproc
	.cfi_personality 0x9b,DW.ref.__gxx_personality_v0
	.cfi_lsda 0x1b,.LLSDA2642
	stp	x29, x30, [sp, -64]!
	.cfi_def_cfa_offset 64
	.cfi_offset 29, -64
	.cfi_offset 30, -56
	mov	x29, sp
	stp	x19, x20, [sp, 16]
	.cfi_offset 19, -48
	.cfi_offset 20, -40
	str	x0, [sp, 40]
	str	x1, [sp, 32]
	adrp	x0, :got:__stack_chk_guard
	ldr	x0, [x0, #:got_lo12:__stack_chk_guard]
	ldr	x1, [x0]
	str	x1, [sp, 56]
	mov	x1, 0
	ldr	x19, [sp, 40]
	ldr	x0, [sp, 40]
	bl	_ZNSt7__cxx1112basic_stringIDsSt11char_traitsIDsESaIDsEE13_M_local_dataEv
	mov	x20, x0
	ldr	x0, [sp, 32]
	bl	_ZNKSt7__cxx1112basic_stringIDsSt11char_traitsIDsESaIDsEE16_M_get_allocatorEv
	mov	x1, x0
	add	x0, sp, 48
	mov	x8, x0
	mov	x0, x1
.LEHB26:
	bl	_ZN9__gnu_cxx14__alloc_traitsISaIDsEDsE17_S_select_on_copyERKS1_
.LEHE26:
	add	x0, sp, 48
	mov	x2, x0
	mov	x1, x20
	mov	x0, x19
	bl	_ZNSt7__cxx1112basic_stringIDsSt11char_traitsIDsESaIDsEE12_Alloc_hiderC1EPDsOS3_
	add	x0, sp, 48
	bl	_ZNSaIDsED1Ev
	ldr	x0, [sp, 32]
	bl	_ZNKSt7__cxx1112basic_stringIDsSt11char_traitsIDsESaIDsEE7_M_dataEv
	mov	x20, x0
	ldr	x0, [sp, 32]
	bl	_ZNKSt7__cxx1112basic_stringIDsSt11char_traitsIDsESaIDsEE7_M_dataEv
	mov	x19, x0
	ldr	x0, [sp, 32]
	bl	_ZNKSt7__cxx1112basic_stringIDsSt11char_traitsIDsESaIDsEE6lengthEv
	lsl	x0, x0, 1
	add	x0, x19, x0
	mov	x2, x0
	mov	x1, x20
	ldr	x0, [sp, 40]
.LEHB27:
	bl	_ZNSt7__cxx1112basic_stringIDsSt11char_traitsIDsESaIDsEE12_M_constructIPDsEEvT_S7_
.LEHE27:
	b	.L200
.L199:
	mov	x19, x0
	ldr	x0, [sp, 40]
	bl	_ZNSt7__cxx1112basic_stringIDsSt11char_traitsIDsESaIDsEE12_Alloc_hiderD1Ev
	mov	x0, x19
.LEHB28:
	bl	_Unwind_Resume
.LEHE28:
.L200:
	adrp	x0, :got:__stack_chk_guard
	ldr	x0, [x0, #:got_lo12:__stack_chk_guard]
	ldr	x2, [sp, 56]
	ldr	x1, [x0]
	subs	x2, x2, x1
	mov	x1, 0
	beq	.L198
	bl	__stack_chk_fail
.L198:
	ldp	x19, x20, [sp, 16]
	ldp	x29, x30, [sp], 64
	.cfi_restore 30
	.cfi_restore 29
	.cfi_restore 19
	.cfi_restore 20
	.cfi_def_cfa_offset 0
	ret
	.cfi_endproc
.LFE2642:
	.section	.gcc_except_table
.LLSDA2642:
	.byte	0xff
	.byte	0xff
	.byte	0x1
	.uleb128 .LLSDACSE2642-.LLSDACSB2642
.LLSDACSB2642:
	.uleb128 .LEHB26-.LFB2642
	.uleb128 .LEHE26-.LEHB26
	.uleb128 0
	.uleb128 0
	.uleb128 .LEHB27-.LFB2642
	.uleb128 .LEHE27-.LEHB27
	.uleb128 .L199-.LFB2642
	.uleb128 0
	.uleb128 .LEHB28-.LFB2642
	.uleb128 .LEHE28-.LEHB28
	.uleb128 0
	.uleb128 0
.LLSDACSE2642:
	.section	.text._ZNSt7__cxx1112basic_stringIDsSt11char_traitsIDsESaIDsEEC2ERKS4_,"axG",@progbits,_ZNSt7__cxx1112basic_stringIDsSt11char_traitsIDsESaIDsEEC5ERKS4_,comdat
	.size	_ZNSt7__cxx1112basic_stringIDsSt11char_traitsIDsESaIDsEEC2ERKS4_, .-_ZNSt7__cxx1112basic_stringIDsSt11char_traitsIDsESaIDsEEC2ERKS4_
	.weak	_ZNSt7__cxx1112basic_stringIDsSt11char_traitsIDsESaIDsEEC1ERKS4_
	.set	_ZNSt7__cxx1112basic_stringIDsSt11char_traitsIDsESaIDsEEC1ERKS4_,_ZNSt7__cxx1112basic_stringIDsSt11char_traitsIDsESaIDsEEC2ERKS4_
	.section	.text._ZNKSt7__cxx1112basic_stringIDsSt11char_traitsIDsESaIDsEE13_M_local_dataEv,"axG",@progbits,_ZNKSt7__cxx1112basic_stringIDsSt11char_traitsIDsESaIDsEE13_M_local_dataEv,comdat
	.align	2
	.weak	_ZNKSt7__cxx1112basic_stringIDsSt11char_traitsIDsESaIDsEE13_M_local_dataEv
	.type	_ZNKSt7__cxx1112basic_stringIDsSt11char_traitsIDsESaIDsEE13_M_local_dataEv, %function
_ZNKSt7__cxx1112basic_stringIDsSt11char_traitsIDsESaIDsEE13_M_local_dataEv:
.LFB2644:
	.cfi_startproc
	stp	x29, x30, [sp, -32]!
	.cfi_def_cfa_offset 32
	.cfi_offset 29, -32
	.cfi_offset 30, -24
	mov	x29, sp
	str	x0, [sp, 24]
	ldr	x0, [sp, 24]
	add	x0, x0, 16
	bl	_ZNSt14pointer_traitsIPKDsE10pointer_toERS0_
	ldp	x29, x30, [sp], 32
	.cfi_restore 30
	.cfi_restore 29
	.cfi_def_cfa_offset 0
	ret
	.cfi_endproc
.LFE2644:
	.size	_ZNKSt7__cxx1112basic_stringIDsSt11char_traitsIDsESaIDsEE13_M_local_dataEv, .-_ZNKSt7__cxx1112basic_stringIDsSt11char_traitsIDsESaIDsEE13_M_local_dataEv
	.section	.text._ZSt17__str_codecvt_outIDsSt11char_traitsIcESaIcE11__mbstate_tEbPKT_S6_RNSt7__cxx1112basic_stringIcT0_T1_EERKSt7codecvtIS4_cT2_ERSE_Rm,"axG",@progbits,_ZSt17__str_codecvt_outIDsSt11char_traitsIcESaIcE11__mbstate_tEbPKT_S6_RNSt7__cxx1112basic_stringIcT0_T1_EERKSt7codecvtIS4_cT2_ERSE_Rm,comdat
	.align	2
	.weak	_ZSt17__str_codecvt_outIDsSt11char_traitsIcESaIcE11__mbstate_tEbPKT_S6_RNSt7__cxx1112basic_stringIcT0_T1_EERKSt7codecvtIS4_cT2_ERSE_Rm
	.type	_ZSt17__str_codecvt_outIDsSt11char_traitsIcESaIcE11__mbstate_tEbPKT_S6_RNSt7__cxx1112basic_stringIcT0_T1_EERKSt7codecvtIS4_cT2_ERSE_Rm, %function
_ZSt17__str_codecvt_outIDsSt11char_traitsIcESaIcE11__mbstate_tEbPKT_S6_RNSt7__cxx1112basic_stringIcT0_T1_EERKSt7codecvtIS4_cT2_ERSE_Rm:
.LFB2649:
	.cfi_startproc
	stp	x29, x30, [sp, -80]!
	.cfi_def_cfa_offset 80
	.cfi_offset 29, -80
	.cfi_offset 30, -72
	mov	x29, sp
	str	x0, [sp, 56]
	str	x1, [sp, 48]
	str	x2, [sp, 40]
	str	x3, [sp, 32]
	str	x4, [sp, 24]
	str	x5, [sp, 16]
	adrp	x0, _ZNKSt23__codecvt_abstract_baseIDsc11__mbstate_tE3outERS0_PKDsS4_RS4_PcS6_RS6_
	add	x0, x0, :lo12:_ZNKSt23__codecvt_abstract_baseIDsc11__mbstate_tE3outERS0_PKDsS4_RS4_PcS6_RS6_
	str	x0, [sp, 64]
	str	xzr, [sp, 72]
	ldp	x6, x7, [sp, 64]
	ldr	x5, [sp, 16]
	ldr	x4, [sp, 24]
	ldr	x3, [sp, 32]
	ldr	x2, [sp, 40]
	ldr	x1, [sp, 48]
	ldr	x0, [sp, 56]
	bl	_ZSt16__do_str_codecvtINSt7__cxx1112basic_stringIcSt11char_traitsIcESaIcEEEDsSt7codecvtIDsc11__mbstate_tES7_MS8_KFNSt12codecvt_base6resultERS7_PKDsSD_RSD_PcSF_RSF_EEbPKT0_SL_RT_RKT1_RT2_RmT3_
	and	w0, w0, 255
	ldp	x29, x30, [sp], 80
	.cfi_restore 30
	.cfi_restore 29
	.cfi_def_cfa_offset 0
	ret
	.cfi_endproc
.LFE2649:
	.size	_ZSt17__str_codecvt_outIDsSt11char_traitsIcESaIcE11__mbstate_tEbPKT_S6_RNSt7__cxx1112basic_stringIcT0_T1_EERKSt7codecvtIS4_cT2_ERSE_Rm, .-_ZSt17__str_codecvt_outIDsSt11char_traitsIcESaIcE11__mbstate_tEbPKT_S6_RNSt7__cxx1112basic_stringIcT0_T1_EERKSt7codecvtIS4_cT2_ERSE_Rm
	.section	.text._ZNSt15__uniq_ptr_implISt18codecvt_utf8_utf16IwLm1114111ELSt12codecvt_mode0EESt14default_deleteIS2_EEC2EPS2_,"axG",@progbits,_ZNSt15__uniq_ptr_implISt18codecvt_utf8_utf16IwLm1114111ELSt12codecvt_mode0EESt14default_deleteIS2_EEC5EPS2_,comdat
	.align	2
	.weak	_ZNSt15__uniq_ptr_implISt18codecvt_utf8_utf16IwLm1114111ELSt12codecvt_mode0EESt14default_deleteIS2_EEC2EPS2_
	.type	_ZNSt15__uniq_ptr_implISt18codecvt_utf8_utf16IwLm1114111ELSt12codecvt_mode0EESt14default_deleteIS2_EEC2EPS2_, %function
_ZNSt15__uniq_ptr_implISt18codecvt_utf8_utf16IwLm1114111ELSt12codecvt_mode0EESt14default_deleteIS2_EEC2EPS2_:
.LFB2652:
	.cfi_startproc
	stp	x29, x30, [sp, -48]!
	.cfi_def_cfa_offset 48
	.cfi_offset 29, -48
	.cfi_offset 30, -40
	mov	x29, sp
	str	x19, [sp, 16]
	.cfi_offset 19, -32
	str	x0, [sp, 40]
	str	x1, [sp, 32]
	ldr	x0, [sp, 40]
	bl	_ZNSt5tupleIJPSt18codecvt_utf8_utf16IwLm1114111ELSt12codecvt_mode0EESt14default_deleteIS2_EEEC1ILb1ELb1EEEv
	ldr	x19, [sp, 32]
	ldr	x0, [sp, 40]
	bl	_ZNSt15__uniq_ptr_implISt18codecvt_utf8_utf16IwLm1114111ELSt12codecvt_mode0EESt14default_deleteIS2_EE6_M_ptrEv
	str	x19, [x0]
	nop
	ldr	x19, [sp, 16]
	ldp	x29, x30, [sp], 48
	.cfi_restore 30
	.cfi_restore 29
	.cfi_restore 19
	.cfi_def_cfa_offset 0
	ret
	.cfi_endproc
.LFE2652:
	.size	_ZNSt15__uniq_ptr_implISt18codecvt_utf8_utf16IwLm1114111ELSt12codecvt_mode0EESt14default_deleteIS2_EEC2EPS2_, .-_ZNSt15__uniq_ptr_implISt18codecvt_utf8_utf16IwLm1114111ELSt12codecvt_mode0EESt14default_deleteIS2_EEC2EPS2_
	.weak	_ZNSt15__uniq_ptr_implISt18codecvt_utf8_utf16IwLm1114111ELSt12codecvt_mode0EESt14default_deleteIS2_EEC1EPS2_
	.set	_ZNSt15__uniq_ptr_implISt18codecvt_utf8_utf16IwLm1114111ELSt12codecvt_mode0EESt14default_deleteIS2_EEC1EPS2_,_ZNSt15__uniq_ptr_implISt18codecvt_utf8_utf16IwLm1114111ELSt12codecvt_mode0EESt14default_deleteIS2_EEC2EPS2_
	.section	.text._ZSt3getILm0EJPSt18codecvt_utf8_utf16IwLm1114111ELSt12codecvt_mode0EESt14default_deleteIS2_EEERNSt13tuple_elementIXT_ESt5tupleIJDpT0_EEE4typeERSA_,"axG",@progbits,_ZSt3getILm0EJPSt18codecvt_utf8_utf16IwLm1114111ELSt12codecvt_mode0EESt14default_deleteIS2_EEERNSt13tuple_elementIXT_ESt5tupleIJDpT0_EEE4typeERSA_,comdat
	.align	2
	.weak	_ZSt3getILm0EJPSt18codecvt_utf8_utf16IwLm1114111ELSt12codecvt_mode0EESt14default_deleteIS2_EEERNSt13tuple_elementIXT_ESt5tupleIJDpT0_EEE4typeERSA_
	.type	_ZSt3getILm0EJPSt18codecvt_utf8_utf16IwLm1114111ELSt12codecvt_mode0EESt14default_deleteIS2_EEERNSt13tuple_elementIXT_ESt5tupleIJDpT0_EEE4typeERSA_, %function
_ZSt3getILm0EJPSt18codecvt_utf8_utf16IwLm1114111ELSt12codecvt_mode0EESt14default_deleteIS2_EEERNSt13tuple_elementIXT_ESt5tupleIJDpT0_EEE4typeERSA_:
.LFB2654:
	.cfi_startproc
	stp	x29, x30, [sp, -32]!
	.cfi_def_cfa_offset 32
	.cfi_offset 29, -32
	.cfi_offset 30, -24
	mov	x29, sp
	str	x0, [sp, 24]
	ldr	x0, [sp, 24]
	bl	_ZSt12__get_helperILm0EPSt18codecvt_utf8_utf16IwLm1114111ELSt12codecvt_mode0EEJSt14default_deleteIS2_EEERT0_RSt11_Tuple_implIXT_EJS6_DpT1_EE
	ldp	x29, x30, [sp], 32
	.cfi_restore 30
	.cfi_restore 29
	.cfi_def_cfa_offset 0
	ret
	.cfi_endproc
.LFE2654:
	.size	_ZSt3getILm0EJPSt18codecvt_utf8_utf16IwLm1114111ELSt12codecvt_mode0EESt14default_deleteIS2_EEERNSt13tuple_elementIXT_ESt5tupleIJDpT0_EEE4typeERSA_, .-_ZSt3getILm0EJPSt18codecvt_utf8_utf16IwLm1114111ELSt12codecvt_mode0EESt14default_deleteIS2_EEERNSt13tuple_elementIXT_ESt5tupleIJDpT0_EEE4typeERSA_
	.section	.text._ZNSt15__uniq_ptr_implISt18codecvt_utf8_utf16IwLm1114111ELSt12codecvt_mode0EESt14default_deleteIS2_EE10_M_deleterEv,"axG",@progbits,_ZNSt15__uniq_ptr_implISt18codecvt_utf8_utf16IwLm1114111ELSt12codecvt_mode0EESt14default_deleteIS2_EE10_M_deleterEv,comdat
	.align	2
	.weak	_ZNSt15__uniq_ptr_implISt18codecvt_utf8_utf16IwLm1114111ELSt12codecvt_mode0EESt14default_deleteIS2_EE10_M_deleterEv
	.type	_ZNSt15__uniq_ptr_implISt18codecvt_utf8_utf16IwLm1114111ELSt12codecvt_mode0EESt14default_deleteIS2_EE10_M_deleterEv, %function
_ZNSt15__uniq_ptr_implISt18codecvt_utf8_utf16IwLm1114111ELSt12codecvt_mode0EESt14default_deleteIS2_EE10_M_deleterEv:
.LFB2655:
	.cfi_startproc
	stp	x29, x30, [sp, -32]!
	.cfi_def_cfa_offset 32
	.cfi_offset 29, -32
	.cfi_offset 30, -24
	mov	x29, sp
	str	x0, [sp, 24]
	ldr	x0, [sp, 24]
	bl	_ZSt3getILm1EJPSt18codecvt_utf8_utf16IwLm1114111ELSt12codecvt_mode0EESt14default_deleteIS2_EEERNSt13tuple_elementIXT_ESt5tupleIJDpT0_EEE4typeERSA_
	ldp	x29, x30, [sp], 32
	.cfi_restore 30
	.cfi_restore 29
	.cfi_def_cfa_offset 0
	ret
	.cfi_endproc
.LFE2655:
	.size	_ZNSt15__uniq_ptr_implISt18codecvt_utf8_utf16IwLm1114111ELSt12codecvt_mode0EESt14default_deleteIS2_EE10_M_deleterEv, .-_ZNSt15__uniq_ptr_implISt18codecvt_utf8_utf16IwLm1114111ELSt12codecvt_mode0EESt14default_deleteIS2_EE10_M_deleterEv
	.section	.text._ZNKSt10unique_ptrISt18codecvt_utf8_utf16IwLm1114111ELSt12codecvt_mode0EESt14default_deleteIS2_EEdeEv,"axG",@progbits,_ZNKSt10unique_ptrISt18codecvt_utf8_utf16IwLm1114111ELSt12codecvt_mode0EESt14default_deleteIS2_EEdeEv,comdat
	.align	2
	.weak	_ZNKSt10unique_ptrISt18codecvt_utf8_utf16IwLm1114111ELSt12codecvt_mode0EESt14default_deleteIS2_EEdeEv
	.type	_ZNKSt10unique_ptrISt18codecvt_utf8_utf16IwLm1114111ELSt12codecvt_mode0EESt14default_deleteIS2_EEdeEv, %function
_ZNKSt10unique_ptrISt18codecvt_utf8_utf16IwLm1114111ELSt12codecvt_mode0EESt14default_deleteIS2_EEdeEv:
.LFB2660:
	.cfi_startproc
	stp	x29, x30, [sp, -32]!
	.cfi_def_cfa_offset 32
	.cfi_offset 29, -32
	.cfi_offset 30, -24
	mov	x29, sp
	str	x0, [sp, 24]
	mov	w0, 0
	cmp	w0, 0
	ldr	x0, [sp, 24]
	bl	_ZNKSt10unique_ptrISt18codecvt_utf8_utf16IwLm1114111ELSt12codecvt_mode0EESt14default_deleteIS2_EE3getEv
	ldp	x29, x30, [sp], 32
	.cfi_restore 30
	.cfi_restore 29
	.cfi_def_cfa_offset 0
	ret
	.cfi_endproc
.LFE2660:
	.size	_ZNKSt10unique_ptrISt18codecvt_utf8_utf16IwLm1114111ELSt12codecvt_mode0EESt14default_deleteIS2_EEdeEv, .-_ZNKSt10unique_ptrISt18codecvt_utf8_utf16IwLm1114111ELSt12codecvt_mode0EESt14default_deleteIS2_EEdeEv
	.section	.text._ZSt16__str_codecvt_inIwSt11char_traitsIwESaIwE11__mbstate_tEbPKcS5_RNSt7__cxx1112basic_stringIT_T0_T1_EERKSt7codecvtIS8_cT2_ERSE_Rm,"axG",@progbits,_ZSt16__str_codecvt_inIwSt11char_traitsIwESaIwE11__mbstate_tEbPKcS5_RNSt7__cxx1112basic_stringIT_T0_T1_EERKSt7codecvtIS8_cT2_ERSE_Rm,comdat
	.align	2
	.weak	_ZSt16__str_codecvt_inIwSt11char_traitsIwESaIwE11__mbstate_tEbPKcS5_RNSt7__cxx1112basic_stringIT_T0_T1_EERKSt7codecvtIS8_cT2_ERSE_Rm
	.type	_ZSt16__str_codecvt_inIwSt11char_traitsIwESaIwE11__mbstate_tEbPKcS5_RNSt7__cxx1112basic_stringIT_T0_T1_EERKSt7codecvtIS8_cT2_ERSE_Rm, %function
_ZSt16__str_codecvt_inIwSt11char_traitsIwESaIwE11__mbstate_tEbPKcS5_RNSt7__cxx1112basic_stringIT_T0_T1_EERKSt7codecvtIS8_cT2_ERSE_Rm:
.LFB2661:
	.cfi_startproc
	stp	x29, x30, [sp, -80]!
	.cfi_def_cfa_offset 80
	.cfi_offset 29, -80
	.cfi_offset 30, -72
	mov	x29, sp
	str	x0, [sp, 56]
	str	x1, [sp, 48]
	str	x2, [sp, 40]
	str	x3, [sp, 32]
	str	x4, [sp, 24]
	str	x5, [sp, 16]
	adrp	x0, _ZNKSt23__codecvt_abstract_baseIwc11__mbstate_tE2inERS0_PKcS4_RS4_PwS6_RS6_
	add	x0, x0, :lo12:_ZNKSt23__codecvt_abstract_baseIwc11__mbstate_tE2inERS0_PKcS4_RS4_PwS6_RS6_
	str	x0, [sp, 64]
	str	xzr, [sp, 72]
	ldp	x6, x7, [sp, 64]
	ldr	x5, [sp, 16]
	ldr	x4, [sp, 24]
	ldr	x3, [sp, 32]
	ldr	x2, [sp, 40]
	ldr	x1, [sp, 48]
	ldr	x0, [sp, 56]
	bl	_ZSt16__do_str_codecvtINSt7__cxx1112basic_stringIwSt11char_traitsIwESaIwEEEcSt7codecvtIwc11__mbstate_tES7_MS8_KFNSt12codecvt_base6resultERS7_PKcSD_RSD_PwSF_RSF_EEbPKT0_SL_RT_RKT1_RT2_RmT3_
	and	w0, w0, 255
	ldp	x29, x30, [sp], 80
	.cfi_restore 30
	.cfi_restore 29
	.cfi_def_cfa_offset 0
	ret
	.cfi_endproc
.LFE2661:
	.size	_ZSt16__str_codecvt_inIwSt11char_traitsIwESaIwE11__mbstate_tEbPKcS5_RNSt7__cxx1112basic_stringIT_T0_T1_EERKSt7codecvtIS8_cT2_ERSE_Rm, .-_ZSt16__str_codecvt_inIwSt11char_traitsIwESaIwE11__mbstate_tEbPKcS5_RNSt7__cxx1112basic_stringIT_T0_T1_EERKSt7codecvtIS8_cT2_ERSE_Rm
	.section	.text._ZSt17__str_codecvt_outIwSt11char_traitsIcESaIcE11__mbstate_tEbPKT_S6_RNSt7__cxx1112basic_stringIcT0_T1_EERKSt7codecvtIS4_cT2_ERSE_Rm,"axG",@progbits,_ZSt17__str_codecvt_outIwSt11char_traitsIcESaIcE11__mbstate_tEbPKT_S6_RNSt7__cxx1112basic_stringIcT0_T1_EERKSt7codecvtIS4_cT2_ERSE_Rm,comdat
	.align	2
	.weak	_ZSt17__str_codecvt_outIwSt11char_traitsIcESaIcE11__mbstate_tEbPKT_S6_RNSt7__cxx1112basic_stringIcT0_T1_EERKSt7codecvtIS4_cT2_ERSE_Rm
	.type	_ZSt17__str_codecvt_outIwSt11char_traitsIcESaIcE11__mbstate_tEbPKT_S6_RNSt7__cxx1112basic_stringIcT0_T1_EERKSt7codecvtIS4_cT2_ERSE_Rm, %function
_ZSt17__str_codecvt_outIwSt11char_traitsIcESaIcE11__mbstate_tEbPKT_S6_RNSt7__cxx1112basic_stringIcT0_T1_EERKSt7codecvtIS4_cT2_ERSE_Rm:
.LFB2666:
	.cfi_startproc
	stp	x29, x30, [sp, -80]!
	.cfi_def_cfa_offset 80
	.cfi_offset 29, -80
	.cfi_offset 30, -72
	mov	x29, sp
	str	x0, [sp, 56]
	str	x1, [sp, 48]
	str	x2, [sp, 40]
	str	x3, [sp, 32]
	str	x4, [sp, 24]
	str	x5, [sp, 16]
	adrp	x0, _ZNKSt23__codecvt_abstract_baseIwc11__mbstate_tE3outERS0_PKwS4_RS4_PcS6_RS6_
	add	x0, x0, :lo12:_ZNKSt23__codecvt_abstract_baseIwc11__mbstate_tE3outERS0_PKwS4_RS4_PcS6_RS6_
	str	x0, [sp, 64]
	str	xzr, [sp, 72]
	ldp	x6, x7, [sp, 64]
	ldr	x5, [sp, 16]
	ldr	x4, [sp, 24]
	ldr	x3, [sp, 32]
	ldr	x2, [sp, 40]
	ldr	x1, [sp, 48]
	ldr	x0, [sp, 56]
	bl	_ZSt16__do_str_codecvtINSt7__cxx1112basic_stringIcSt11char_traitsIcESaIcEEEwSt7codecvtIwc11__mbstate_tES7_MS8_KFNSt12codecvt_base6resultERS7_PKwSD_RSD_PcSF_RSF_EEbPKT0_SL_RT_RKT1_RT2_RmT3_
	and	w0, w0, 255
	ldp	x29, x30, [sp], 80
	.cfi_restore 30
	.cfi_restore 29
	.cfi_def_cfa_offset 0
	ret
	.cfi_endproc
.LFE2666:
	.size	_ZSt17__str_codecvt_outIwSt11char_traitsIcESaIcE11__mbstate_tEbPKT_S6_RNSt7__cxx1112basic_stringIcT0_T1_EERKSt7codecvtIS4_cT2_ERSE_Rm, .-_ZSt17__str_codecvt_outIwSt11char_traitsIcESaIcE11__mbstate_tEbPKT_S6_RNSt7__cxx1112basic_stringIcT0_T1_EERKSt7codecvtIS4_cT2_ERSE_Rm
	.section	.text._ZSt9addressofIDsEPT_RS0_,"axG",@progbits,_ZSt9addressofIDsEPT_RS0_,comdat
	.align	2
	.weak	_ZSt9addressofIDsEPT_RS0_
	.type	_ZSt9addressofIDsEPT_RS0_, %function
_ZSt9addressofIDsEPT_RS0_:
.LFB2684:
	.cfi_startproc
	stp	x29, x30, [sp, -32]!
	.cfi_def_cfa_offset 32
	.cfi_offset 29, -32
	.cfi_offset 30, -24
	mov	x29, sp
	str	x0, [sp, 24]
	ldr	x0, [sp, 24]
	bl	_ZSt11__addressofIDsEPT_RS0_
	ldp	x29, x30, [sp], 32
	.cfi_restore 30
	.cfi_restore 29
	.cfi_def_cfa_offset 0
	ret
	.cfi_endproc
.LFE2684:
	.size	_ZSt9addressofIDsEPT_RS0_, .-_ZSt9addressofIDsEPT_RS0_
	.section	.text._ZN9__gnu_cxx13new_allocatorIDsEC2ERKS1_,"axG",@progbits,_ZN9__gnu_cxx13new_allocatorIDsEC5ERKS1_,comdat
	.align	2
	.weak	_ZN9__gnu_cxx13new_allocatorIDsEC2ERKS1_
	.type	_ZN9__gnu_cxx13new_allocatorIDsEC2ERKS1_, %function
_ZN9__gnu_cxx13new_allocatorIDsEC2ERKS1_:
.LFB2686:
	.cfi_startproc
	sub	sp, sp, #16
	.cfi_def_cfa_offset 16
	str	x0, [sp, 8]
	str	x1, [sp]
	nop
	add	sp, sp, 16
	.cfi_def_cfa_offset 0
	ret
	.cfi_endproc
.LFE2686:
	.size	_ZN9__gnu_cxx13new_allocatorIDsEC2ERKS1_, .-_ZN9__gnu_cxx13new_allocatorIDsEC2ERKS1_
	.weak	_ZN9__gnu_cxx13new_allocatorIDsEC1ERKS1_
	.set	_ZN9__gnu_cxx13new_allocatorIDsEC1ERKS1_,_ZN9__gnu_cxx13new_allocatorIDsEC2ERKS1_
	.section	.text._ZNSt16allocator_traitsISaIDsEE10deallocateERS0_PDsm,"axG",@progbits,_ZNSt16allocator_traitsISaIDsEE10deallocateERS0_PDsm,comdat
	.align	2
	.weak	_ZNSt16allocator_traitsISaIDsEE10deallocateERS0_PDsm
	.type	_ZNSt16allocator_traitsISaIDsEE10deallocateERS0_PDsm, %function
_ZNSt16allocator_traitsISaIDsEE10deallocateERS0_PDsm:
.LFB2690:
	.cfi_startproc
	stp	x29, x30, [sp, -48]!
	.cfi_def_cfa_offset 48
	.cfi_offset 29, -48
	.cfi_offset 30, -40
	mov	x29, sp
	str	x0, [sp, 40]
	str	x1, [sp, 32]
	str	x2, [sp, 24]
	ldr	x2, [sp, 24]
	ldr	x1, [sp, 32]
	ldr	x0, [sp, 40]
	bl	_ZN9__gnu_cxx13new_allocatorIDsE10deallocateEPDsm
	nop
	ldp	x29, x30, [sp], 48
	.cfi_restore 30
	.cfi_restore 29
	.cfi_def_cfa_offset 0
	ret
	.cfi_endproc
.LFE2690:
	.size	_ZNSt16allocator_traitsISaIDsEE10deallocateERS0_PDsm, .-_ZNSt16allocator_traitsISaIDsEE10deallocateERS0_PDsm
	.section	.text._ZNSt5tupleIJPSt18codecvt_utf8_utf16IDsLm1114111ELSt12codecvt_mode0EESt14default_deleteIS2_EEEC2ILb1ELb1EEEv,"axG",@progbits,_ZNSt5tupleIJPSt18codecvt_utf8_utf16IDsLm1114111ELSt12codecvt_mode0EESt14default_deleteIS2_EEEC5ILb1ELb1EEEv,comdat
	.align	2
	.weak	_ZNSt5tupleIJPSt18codecvt_utf8_utf16IDsLm1114111ELSt12codecvt_mode0EESt14default_deleteIS2_EEEC2ILb1ELb1EEEv
	.type	_ZNSt5tupleIJPSt18codecvt_utf8_utf16IDsLm1114111ELSt12codecvt_mode0EESt14default_deleteIS2_EEEC2ILb1ELb1EEEv, %function
_ZNSt5tupleIJPSt18codecvt_utf8_utf16IDsLm1114111ELSt12codecvt_mode0EESt14default_deleteIS2_EEEC2ILb1ELb1EEEv:
.LFB2705:
	.cfi_startproc
	.cfi_personality 0x9b,DW.ref.__gxx_personality_v0
	.cfi_lsda 0x1b,.LLSDA2705
	stp	x29, x30, [sp, -32]!
	.cfi_def_cfa_offset 32
	.cfi_offset 29, -32
	.cfi_offset 30, -24
	mov	x29, sp
	str	x0, [sp, 24]
	ldr	x0, [sp, 24]
	bl	_ZNSt11_Tuple_implILm0EJPSt18codecvt_utf8_utf16IDsLm1114111ELSt12codecvt_mode0EESt14default_deleteIS2_EEEC2Ev
	nop
	ldp	x29, x30, [sp], 32
	.cfi_restore 30
	.cfi_restore 29
	.cfi_def_cfa_offset 0
	ret
	.cfi_endproc
.LFE2705:
	.section	.gcc_except_table
.LLSDA2705:
	.byte	0xff
	.byte	0xff
	.byte	0x1
	.uleb128 .LLSDACSE2705-.LLSDACSB2705
.LLSDACSB2705:
.LLSDACSE2705:
	.section	.text._ZNSt5tupleIJPSt18codecvt_utf8_utf16IDsLm1114111ELSt12codecvt_mode0EESt14default_deleteIS2_EEEC2ILb1ELb1EEEv,"axG",@progbits,_ZNSt5tupleIJPSt18codecvt_utf8_utf16IDsLm1114111ELSt12codecvt_mode0EESt14default_deleteIS2_EEEC5ILb1ELb1EEEv,comdat
	.size	_ZNSt5tupleIJPSt18codecvt_utf8_utf16IDsLm1114111ELSt12codecvt_mode0EESt14default_deleteIS2_EEEC2ILb1ELb1EEEv, .-_ZNSt5tupleIJPSt18codecvt_utf8_utf16IDsLm1114111ELSt12codecvt_mode0EESt14default_deleteIS2_EEEC2ILb1ELb1EEEv
	.weak	_ZNSt5tupleIJPSt18codecvt_utf8_utf16IDsLm1114111ELSt12codecvt_mode0EESt14default_deleteIS2_EEEC1ILb1ELb1EEEv
	.set	_ZNSt5tupleIJPSt18codecvt_utf8_utf16IDsLm1114111ELSt12codecvt_mode0EESt14default_deleteIS2_EEEC1ILb1ELb1EEEv,_ZNSt5tupleIJPSt18codecvt_utf8_utf16IDsLm1114111ELSt12codecvt_mode0EESt14default_deleteIS2_EEEC2ILb1ELb1EEEv
	.section	.text._ZSt12__get_helperILm0EPSt18codecvt_utf8_utf16IDsLm1114111ELSt12codecvt_mode0EEJSt14default_deleteIS2_EEERT0_RSt11_Tuple_implIXT_EJS6_DpT1_EE,"axG",@progbits,_ZSt12__get_helperILm0EPSt18codecvt_utf8_utf16IDsLm1114111ELSt12codecvt_mode0EEJSt14default_deleteIS2_EEERT0_RSt11_Tuple_implIXT_EJS6_DpT1_EE,comdat
	.align	2
	.weak	_ZSt12__get_helperILm0EPSt18codecvt_utf8_utf16IDsLm1114111ELSt12codecvt_mode0EEJSt14default_deleteIS2_EEERT0_RSt11_Tuple_implIXT_EJS6_DpT1_EE
	.type	_ZSt12__get_helperILm0EPSt18codecvt_utf8_utf16IDsLm1114111ELSt12codecvt_mode0EEJSt14default_deleteIS2_EEERT0_RSt11_Tuple_implIXT_EJS6_DpT1_EE, %function
_ZSt12__get_helperILm0EPSt18codecvt_utf8_utf16IDsLm1114111ELSt12codecvt_mode0EEJSt14default_deleteIS2_EEERT0_RSt11_Tuple_implIXT_EJS6_DpT1_EE:
.LFB2707:
	.cfi_startproc
	stp	x29, x30, [sp, -32]!
	.cfi_def_cfa_offset 32
	.cfi_offset 29, -32
	.cfi_offset 30, -24
	mov	x29, sp
	str	x0, [sp, 24]
	ldr	x0, [sp, 24]
	bl	_ZNSt11_Tuple_implILm0EJPSt18codecvt_utf8_utf16IDsLm1114111ELSt12codecvt_mode0EESt14default_deleteIS2_EEE7_M_headERS6_
	ldp	x29, x30, [sp], 32
	.cfi_restore 30
	.cfi_restore 29
	.cfi_def_cfa_offset 0
	ret
	.cfi_endproc
.LFE2707:
	.size	_ZSt12__get_helperILm0EPSt18codecvt_utf8_utf16IDsLm1114111ELSt12codecvt_mode0EEJSt14default_deleteIS2_EEERT0_RSt11_Tuple_implIXT_EJS6_DpT1_EE, .-_ZSt12__get_helperILm0EPSt18codecvt_utf8_utf16IDsLm1114111ELSt12codecvt_mode0EEJSt14default_deleteIS2_EEERT0_RSt11_Tuple_implIXT_EJS6_DpT1_EE
	.section	.text._ZSt3getILm1EJPSt18codecvt_utf8_utf16IDsLm1114111ELSt12codecvt_mode0EESt14default_deleteIS2_EEERNSt13tuple_elementIXT_ESt5tupleIJDpT0_EEE4typeERSA_,"axG",@progbits,_ZSt3getILm1EJPSt18codecvt_utf8_utf16IDsLm1114111ELSt12codecvt_mode0EESt14default_deleteIS2_EEERNSt13tuple_elementIXT_ESt5tupleIJDpT0_EEE4typeERSA_,comdat
	.align	2
	.weak	_ZSt3getILm1EJPSt18codecvt_utf8_utf16IDsLm1114111ELSt12codecvt_mode0EESt14default_deleteIS2_EEERNSt13tuple_elementIXT_ESt5tupleIJDpT0_EEE4typeERSA_
	.type	_ZSt3getILm1EJPSt18codecvt_utf8_utf16IDsLm1114111ELSt12codecvt_mode0EESt14default_deleteIS2_EEERNSt13tuple_elementIXT_ESt5tupleIJDpT0_EEE4typeERSA_, %function
_ZSt3getILm1EJPSt18codecvt_utf8_utf16IDsLm1114111ELSt12codecvt_mode0EESt14default_deleteIS2_EEERNSt13tuple_elementIXT_ESt5tupleIJDpT0_EEE4typeERSA_:
.LFB2708:
	.cfi_startproc
	stp	x29, x30, [sp, -32]!
	.cfi_def_cfa_offset 32
	.cfi_offset 29, -32
	.cfi_offset 30, -24
	mov	x29, sp
	str	x0, [sp, 24]
	ldr	x0, [sp, 24]
	bl	_ZSt12__get_helperILm1ESt14default_deleteISt18codecvt_utf8_utf16IDsLm1114111ELSt12codecvt_mode0EEEJEERT0_RSt11_Tuple_implIXT_EJS5_DpT1_EE
	ldp	x29, x30, [sp], 32
	.cfi_restore 30
	.cfi_restore 29
	.cfi_def_cfa_offset 0
	ret
	.cfi_endproc
.LFE2708:
	.size	_ZSt3getILm1EJPSt18codecvt_utf8_utf16IDsLm1114111ELSt12codecvt_mode0EESt14default_deleteIS2_EEERNSt13tuple_elementIXT_ESt5tupleIJDpT0_EEE4typeERSA_, .-_ZSt3getILm1EJPSt18codecvt_utf8_utf16IDsLm1114111ELSt12codecvt_mode0EESt14default_deleteIS2_EEERNSt13tuple_elementIXT_ESt5tupleIJDpT0_EEE4typeERSA_
	.section	.text._ZNKSt7__cxx1112basic_stringIDsSt11char_traitsIDsESaIDsEE16_M_get_allocatorEv,"axG",@progbits,_ZNKSt7__cxx1112basic_stringIDsSt11char_traitsIDsESaIDsEE16_M_get_allocatorEv,comdat
	.align	2
	.weak	_ZNKSt7__cxx1112basic_stringIDsSt11char_traitsIDsESaIDsEE16_M_get_allocatorEv
	.type	_ZNKSt7__cxx1112basic_stringIDsSt11char_traitsIDsESaIDsEE16_M_get_allocatorEv, %function
_ZNKSt7__cxx1112basic_stringIDsSt11char_traitsIDsESaIDsEE16_M_get_allocatorEv:
.LFB2709:
	.cfi_startproc
	sub	sp, sp, #16
	.cfi_def_cfa_offset 16
	str	x0, [sp, 8]
	ldr	x0, [sp, 8]
	add	sp, sp, 16
	.cfi_def_cfa_offset 0
	ret
	.cfi_endproc
.LFE2709:
	.size	_ZNKSt7__cxx1112basic_stringIDsSt11char_traitsIDsESaIDsEE16_M_get_allocatorEv, .-_ZNKSt7__cxx1112basic_stringIDsSt11char_traitsIDsESaIDsEE16_M_get_allocatorEv
	.section	.text._ZNKSt10unique_ptrISt18codecvt_utf8_utf16IDsLm1114111ELSt12codecvt_mode0EESt14default_deleteIS2_EE3getEv,"axG",@progbits,_ZNKSt10unique_ptrISt18codecvt_utf8_utf16IDsLm1114111ELSt12codecvt_mode0EESt14default_deleteIS2_EE3getEv,comdat
	.align	2
	.weak	_ZNKSt10unique_ptrISt18codecvt_utf8_utf16IDsLm1114111ELSt12codecvt_mode0EESt14default_deleteIS2_EE3getEv
	.type	_ZNKSt10unique_ptrISt18codecvt_utf8_utf16IDsLm1114111ELSt12codecvt_mode0EESt14default_deleteIS2_EE3getEv, %function
_ZNKSt10unique_ptrISt18codecvt_utf8_utf16IDsLm1114111ELSt12codecvt_mode0EESt14default_deleteIS2_EE3getEv:
.LFB2710:
	.cfi_startproc
	stp	x29, x30, [sp, -32]!
	.cfi_def_cfa_offset 32
	.cfi_offset 29, -32
	.cfi_offset 30, -24
	mov	x29, sp
	str	x0, [sp, 24]
	ldr	x0, [sp, 24]
	bl	_ZNKSt15__uniq_ptr_implISt18codecvt_utf8_utf16IDsLm1114111ELSt12codecvt_mode0EESt14default_deleteIS2_EE6_M_ptrEv
	ldp	x29, x30, [sp], 32
	.cfi_restore 30
	.cfi_restore 29
	.cfi_def_cfa_offset 0
	ret
	.cfi_endproc
.LFE2710:
	.size	_ZNKSt10unique_ptrISt18codecvt_utf8_utf16IDsLm1114111ELSt12codecvt_mode0EESt14default_deleteIS2_EE3getEv, .-_ZNKSt10unique_ptrISt18codecvt_utf8_utf16IDsLm1114111ELSt12codecvt_mode0EESt14default_deleteIS2_EE3getEv
	.section	.text._ZNKSt23__codecvt_abstract_baseIDsc11__mbstate_tE2inERS0_PKcS4_RS4_PDsS6_RS6_,"axG",@progbits,_ZNKSt23__codecvt_abstract_baseIDsc11__mbstate_tE2inERS0_PKcS4_RS4_PDsS6_RS6_,comdat
	.align	2
	.weak	_ZNKSt23__codecvt_abstract_baseIDsc11__mbstate_tE2inERS0_PKcS4_RS4_PDsS6_RS6_
	.type	_ZNKSt23__codecvt_abstract_baseIDsc11__mbstate_tE2inERS0_PKcS4_RS4_PDsS6_RS6_, %function
_ZNKSt23__codecvt_abstract_baseIDsc11__mbstate_tE2inERS0_PKcS4_RS4_PDsS6_RS6_:
.LFB2711:
	.cfi_startproc
	stp	x29, x30, [sp, -80]!
	.cfi_def_cfa_offset 80
	.cfi_offset 29, -80
	.cfi_offset 30, -72
	mov	x29, sp
	str	x0, [sp, 72]
	str	x1, [sp, 64]
	str	x2, [sp, 56]
	str	x3, [sp, 48]
	str	x4, [sp, 40]
	str	x5, [sp, 32]
	str	x6, [sp, 24]
	str	x7, [sp, 16]
	ldr	x0, [sp, 72]
	ldr	x0, [x0]
	add	x0, x0, 32
	ldr	x8, [x0]
	ldr	x7, [sp, 16]
	ldr	x6, [sp, 24]
	ldr	x5, [sp, 32]
	ldr	x4, [sp, 40]
	ldr	x3, [sp, 48]
	ldr	x2, [sp, 56]
	ldr	x1, [sp, 64]
	ldr	x0, [sp, 72]
	blr	x8
	ldp	x29, x30, [sp], 80
	.cfi_restore 30
	.cfi_restore 29
	.cfi_def_cfa_offset 0
	ret
	.cfi_endproc
.LFE2711:
	.size	_ZNKSt23__codecvt_abstract_baseIDsc11__mbstate_tE2inERS0_PKcS4_RS4_PDsS6_RS6_, .-_ZNKSt23__codecvt_abstract_baseIDsc11__mbstate_tE2inERS0_PKcS4_RS4_PDsS6_RS6_
	.section	.text._ZSt16__do_str_codecvtINSt7__cxx1112basic_stringIDsSt11char_traitsIDsESaIDsEEEcSt7codecvtIDsc11__mbstate_tES7_MS8_KFNSt12codecvt_base6resultERS7_PKcSD_RSD_PDsSF_RSF_EEbPKT0_SL_RT_RKT1_RT2_RmT3_,"axG",@progbits,_ZSt16__do_str_codecvtINSt7__cxx1112basic_stringIDsSt11char_traitsIDsESaIDsEEEcSt7codecvtIDsc11__mbstate_tES7_MS8_KFNSt12codecvt_base6resultERS7_PKcSD_RSD_PDsSF_RSF_EEbPKT0_SL_RT_RKT1_RT2_RmT3_,comdat
	.align	2
	.weak	_ZSt16__do_str_codecvtINSt7__cxx1112basic_stringIDsSt11char_traitsIDsESaIDsEEEcSt7codecvtIDsc11__mbstate_tES7_MS8_KFNSt12codecvt_base6resultERS7_PKcSD_RSD_PDsSF_RSF_EEbPKT0_SL_RT_RKT1_RT2_RmT3_
	.type	_ZSt16__do_str_codecvtINSt7__cxx1112basic_stringIDsSt11char_traitsIDsESaIDsEEEcSt7codecvtIDsc11__mbstate_tES7_MS8_KFNSt12codecvt_base6resultERS7_PKcSD_RSD_PDsSF_RSF_EEbPKT0_SL_RT_RKT1_RT2_RmT3_, %function
_ZSt16__do_str_codecvtINSt7__cxx1112basic_stringIDsSt11char_traitsIDsESaIDsEEEcSt7codecvtIDsc11__mbstate_tES7_MS8_KFNSt12codecvt_base6resultERS7_PKcSD_RSD_PDsSF_RSF_EEbPKT0_SL_RT_RKT1_RT2_RmT3_:
.LFB2712:
	.cfi_startproc
	stp	x29, x30, [sp, -144]!
	.cfi_def_cfa_offset 144
	.cfi_offset 29, -144
	.cfi_offset 30, -136
	mov	x29, sp
	str	x19, [sp, 16]
	.cfi_offset 19, -128
	str	x0, [sp, 88]
	str	x1, [sp, 80]
	str	x2, [sp, 72]
	str	x3, [sp, 64]
	str	x4, [sp, 56]
	str	x5, [sp, 48]
	stp	x6, x7, [sp, 32]
	adrp	x0, :got:__stack_chk_guard
	ldr	x0, [x0, #:got_lo12:__stack_chk_guard]
	ldr	x1, [x0]
	str	x1, [sp, 136]
	mov	x1, 0
	ldr	x1, [sp, 88]
	ldr	x0, [sp, 80]
	cmp	x1, x0
	bne	.L233
	ldr	x0, [sp, 72]
	bl	_ZNSt7__cxx1112basic_stringIDsSt11char_traitsIDsESaIDsEE5clearEv
	ldr	x0, [sp, 48]
	str	xzr, [x0]
	mov	w0, 1
	b	.L241
.L233:
	str	xzr, [sp, 120]
	ldr	x0, [sp, 88]
	str	x0, [sp, 104]
	ldr	x0, [sp, 64]
	bl	_ZNKSt23__codecvt_abstract_baseIDsc11__mbstate_tE10max_lengthEv
	add	w0, w0, 1
	str	w0, [sp, 96]
.L239:
	ldr	x0, [sp, 72]
	bl	_ZNKSt7__cxx1112basic_stringIDsSt11char_traitsIDsESaIDsEE4sizeEv
	mov	x2, x0
	ldr	x0, [sp, 104]
	ldr	x1, [sp, 80]
	sub	x1, x1, x0
	ldrsw	x0, [sp, 96]
	mul	x0, x1, x0
	add	x0, x2, x0
	mov	x1, x0
	ldr	x0, [sp, 72]
	bl	_ZNSt7__cxx1112basic_stringIDsSt11char_traitsIDsESaIDsEE6resizeEm
	ldr	x0, [sp, 72]
	bl	_ZNSt7__cxx1112basic_stringIDsSt11char_traitsIDsESaIDsEE5frontEv
	mov	x1, x0
	ldr	x0, [sp, 120]
	lsl	x0, x0, 1
	add	x0, x1, x0
	str	x0, [sp, 112]
	ldr	x0, [sp, 72]
	bl	_ZNSt7__cxx1112basic_stringIDsSt11char_traitsIDsESaIDsEE4backEv
	add	x0, x0, 2
	str	x0, [sp, 128]
	ldr	x0, [sp, 40]
	and	x0, x0, 1
	cmp	x0, 0
	beq	.L235
	ldr	x0, [sp, 40]
	asr	x0, x0, 1
	mov	x1, x0
	ldr	x0, [sp, 64]
	add	x0, x0, x1
	ldr	x0, [x0]
	ldr	x1, [sp, 32]
	add	x0, x0, x1
	ldr	x8, [x0]
	b	.L236
.L235:
	ldr	x8, [sp, 32]
.L236:
	ldr	x0, [sp, 40]
	asr	x0, x0, 1
	mov	x1, x0
	ldr	x0, [sp, 64]
	add	x0, x0, x1
	ldr	x1, [sp, 104]
	ldr	x3, [sp, 112]
	add	x4, sp, 112
	add	x2, sp, 104
	mov	x7, x4
	ldr	x6, [sp, 128]
	mov	x5, x3
	mov	x4, x2
	ldr	x3, [sp, 80]
	mov	x2, x1
	ldr	x1, [sp, 56]
	blr	x8
	str	w0, [sp, 100]
	ldr	x19, [sp, 112]
	ldr	x0, [sp, 72]
	bl	_ZNSt7__cxx1112basic_stringIDsSt11char_traitsIDsESaIDsEE5frontEv
	sub	x0, x19, x0
	asr	x0, x0, 1
	str	x0, [sp, 120]
	ldr	w0, [sp, 100]
	cmp	w0, 1
	bne	.L237
	ldr	x0, [sp, 104]
	ldr	x1, [sp, 80]
	cmp	x1, x0
	beq	.L237
	ldr	x0, [sp, 72]
	bl	_ZNKSt7__cxx1112basic_stringIDsSt11char_traitsIDsESaIDsEE4sizeEv
	mov	x1, x0
	ldr	x0, [sp, 120]
	sub	x0, x1, x0
	mov	x1, x0
	ldrsw	x0, [sp, 96]
	cmp	x1, x0
	bge	.L237
	mov	w0, 1
	b	.L238
.L237:
	mov	w0, 0
.L238:
	cmp	w0, 0
	bne	.L239
	ldr	w0, [sp, 100]
	cmp	w0, 2
	bne	.L240
	ldr	x1, [sp, 104]
	ldr	x0, [sp, 88]
	sub	x0, x1, x0
	mov	x1, x0
	ldr	x0, [sp, 48]
	str	x1, [x0]
	mov	w0, 0
	b	.L241
.L240:
	ldr	x1, [sp, 120]
	ldr	x0, [sp, 72]
	bl	_ZNSt7__cxx1112basic_stringIDsSt11char_traitsIDsESaIDsEE6resizeEm
	ldr	x1, [sp, 104]
	ldr	x0, [sp, 88]
	sub	x0, x1, x0
	mov	x1, x0
	ldr	x0, [sp, 48]
	str	x1, [x0]
	mov	w0, 1
.L241:
	mov	w1, w0
	adrp	x0, :got:__stack_chk_guard
	ldr	x0, [x0, #:got_lo12:__stack_chk_guard]
	ldr	x3, [sp, 136]
	ldr	x2, [x0]
	subs	x3, x3, x2
	mov	x2, 0
	beq	.L242
	bl	__stack_chk_fail
.L242:
	mov	w0, w1
	ldr	x19, [sp, 16]
	ldp	x29, x30, [sp], 144
	.cfi_restore 30
	.cfi_restore 29
	.cfi_restore 19
	.cfi_def_cfa_offset 0
	ret
	.cfi_endproc
.LFE2712:
	.size	_ZSt16__do_str_codecvtINSt7__cxx1112basic_stringIDsSt11char_traitsIDsESaIDsEEEcSt7codecvtIDsc11__mbstate_tES7_MS8_KFNSt12codecvt_base6resultERS7_PKcSD_RSD_PDsSF_RSF_EEbPKT0_SL_RT_RKT1_RT2_RmT3_, .-_ZSt16__do_str_codecvtINSt7__cxx1112basic_stringIDsSt11char_traitsIDsESaIDsEEEcSt7codecvtIDsc11__mbstate_tES7_MS8_KFNSt12codecvt_base6resultERS7_PKcSD_RSD_PDsSF_RSF_EEbPKT0_SL_RT_RKT1_RT2_RmT3_
	.section	.text._ZN9__gnu_cxx14__alloc_traitsISaIDsEDsE17_S_select_on_copyERKS1_,"axG",@progbits,_ZN9__gnu_cxx14__alloc_traitsISaIDsEDsE17_S_select_on_copyERKS1_,comdat
	.align	2
	.weak	_ZN9__gnu_cxx14__alloc_traitsISaIDsEDsE17_S_select_on_copyERKS1_
	.type	_ZN9__gnu_cxx14__alloc_traitsISaIDsEDsE17_S_select_on_copyERKS1_, %function
_ZN9__gnu_cxx14__alloc_traitsISaIDsEDsE17_S_select_on_copyERKS1_:
.LFB2714:
	.cfi_startproc
	stp	x29, x30, [sp, -64]!
	.cfi_def_cfa_offset 64
	.cfi_offset 29, -64
	.cfi_offset 30, -56
	mov	x29, sp
	str	x19, [sp, 16]
	.cfi_offset 19, -48
	mov	x19, x8
	str	x0, [sp, 40]
	adrp	x0, :got:__stack_chk_guard
	ldr	x0, [x0, #:got_lo12:__stack_chk_guard]
	ldr	x1, [x0]
	str	x1, [sp, 56]
	mov	x1, 0
	mov	x8, x19
	ldr	x0, [sp, 40]
	bl	_ZNSt16allocator_traitsISaIDsEE37select_on_container_copy_constructionERKS0_
	adrp	x0, :got:__stack_chk_guard
	ldr	x0, [x0, #:got_lo12:__stack_chk_guard]
	ldr	x2, [sp, 56]
	ldr	x1, [x0]
	subs	x2, x2, x1
	mov	x1, 0
	beq	.L245
	bl	__stack_chk_fail
.L245:
	mov	x0, x19
	ldr	x19, [sp, 16]
	ldp	x29, x30, [sp], 64
	.cfi_restore 30
	.cfi_restore 29
	.cfi_restore 19
	.cfi_def_cfa_offset 0
	ret
	.cfi_endproc
.LFE2714:
	.size	_ZN9__gnu_cxx14__alloc_traitsISaIDsEDsE17_S_select_on_copyERKS1_, .-_ZN9__gnu_cxx14__alloc_traitsISaIDsEDsE17_S_select_on_copyERKS1_
	.section	.text._ZNSt7__cxx1112basic_stringIDsSt11char_traitsIDsESaIDsEE12_M_constructIPDsEEvT_S7_,"axG",@progbits,_ZNSt7__cxx1112basic_stringIDsSt11char_traitsIDsESaIDsEE12_M_constructIPDsEEvT_S7_,comdat
	.align	2
	.weak	_ZNSt7__cxx1112basic_stringIDsSt11char_traitsIDsESaIDsEE12_M_constructIPDsEEvT_S7_
	.type	_ZNSt7__cxx1112basic_stringIDsSt11char_traitsIDsESaIDsEE12_M_constructIPDsEEvT_S7_, %function
_ZNSt7__cxx1112basic_stringIDsSt11char_traitsIDsESaIDsEE12_M_constructIPDsEEvT_S7_:
.LFB2715:
	.cfi_startproc
	stp	x29, x30, [sp, -48]!
	.cfi_def_cfa_offset 48
	.cfi_offset 29, -48
	.cfi_offset 30, -40
	mov	x29, sp
	str	x0, [sp, 40]
	str	x1, [sp, 32]
	str	x2, [sp, 24]
	ldr	x2, [sp, 24]
	ldr	x1, [sp, 32]
	ldr	x0, [sp, 40]
	bl	_ZNSt7__cxx1112basic_stringIDsSt11char_traitsIDsESaIDsEE16_M_construct_auxIPDsEEvT_S7_St12__false_type
	nop
	ldp	x29, x30, [sp], 48
	.cfi_restore 30
	.cfi_restore 29
	.cfi_def_cfa_offset 0
	ret
	.cfi_endproc
.LFE2715:
	.size	_ZNSt7__cxx1112basic_stringIDsSt11char_traitsIDsESaIDsEE12_M_constructIPDsEEvT_S7_, .-_ZNSt7__cxx1112basic_stringIDsSt11char_traitsIDsESaIDsEE12_M_constructIPDsEEvT_S7_
	.section	.text._ZNSt14pointer_traitsIPKDsE10pointer_toERS0_,"axG",@progbits,_ZNSt14pointer_traitsIPKDsE10pointer_toERS0_,comdat
	.align	2
	.weak	_ZNSt14pointer_traitsIPKDsE10pointer_toERS0_
	.type	_ZNSt14pointer_traitsIPKDsE10pointer_toERS0_, %function
_ZNSt14pointer_traitsIPKDsE10pointer_toERS0_:
.LFB2716:
	.cfi_startproc
	stp	x29, x30, [sp, -32]!
	.cfi_def_cfa_offset 32
	.cfi_offset 29, -32
	.cfi_offset 30, -24
	mov	x29, sp
	str	x0, [sp, 24]
	ldr	x0, [sp, 24]
	bl	_ZSt9addressofIKDsEPT_RS1_
	ldp	x29, x30, [sp], 32
	.cfi_restore 30
	.cfi_restore 29
	.cfi_def_cfa_offset 0
	ret
	.cfi_endproc
.LFE2716:
	.size	_ZNSt14pointer_traitsIPKDsE10pointer_toERS0_, .-_ZNSt14pointer_traitsIPKDsE10pointer_toERS0_
	.section	.text._ZNKSt23__codecvt_abstract_baseIDsc11__mbstate_tE3outERS0_PKDsS4_RS4_PcS6_RS6_,"axG",@progbits,_ZNKSt23__codecvt_abstract_baseIDsc11__mbstate_tE3outERS0_PKDsS4_RS4_PcS6_RS6_,comdat
	.align	2
	.weak	_ZNKSt23__codecvt_abstract_baseIDsc11__mbstate_tE3outERS0_PKDsS4_RS4_PcS6_RS6_
	.type	_ZNKSt23__codecvt_abstract_baseIDsc11__mbstate_tE3outERS0_PKDsS4_RS4_PcS6_RS6_, %function
_ZNKSt23__codecvt_abstract_baseIDsc11__mbstate_tE3outERS0_PKDsS4_RS4_PcS6_RS6_:
.LFB2717:
	.cfi_startproc
	stp	x29, x30, [sp, -80]!
	.cfi_def_cfa_offset 80
	.cfi_offset 29, -80
	.cfi_offset 30, -72
	mov	x29, sp
	str	x0, [sp, 72]
	str	x1, [sp, 64]
	str	x2, [sp, 56]
	str	x3, [sp, 48]
	str	x4, [sp, 40]
	str	x5, [sp, 32]
	str	x6, [sp, 24]
	str	x7, [sp, 16]
	ldr	x0, [sp, 72]
	ldr	x0, [x0]
	add	x0, x0, 16
	ldr	x8, [x0]
	ldr	x7, [sp, 16]
	ldr	x6, [sp, 24]
	ldr	x5, [sp, 32]
	ldr	x4, [sp, 40]
	ldr	x3, [sp, 48]
	ldr	x2, [sp, 56]
	ldr	x1, [sp, 64]
	ldr	x0, [sp, 72]
	blr	x8
	ldp	x29, x30, [sp], 80
	.cfi_restore 30
	.cfi_restore 29
	.cfi_def_cfa_offset 0
	ret
	.cfi_endproc
.LFE2717:
	.size	_ZNKSt23__codecvt_abstract_baseIDsc11__mbstate_tE3outERS0_PKDsS4_RS4_PcS6_RS6_, .-_ZNKSt23__codecvt_abstract_baseIDsc11__mbstate_tE3outERS0_PKDsS4_RS4_PcS6_RS6_
	.section	.text._ZSt16__do_str_codecvtINSt7__cxx1112basic_stringIcSt11char_traitsIcESaIcEEEDsSt7codecvtIDsc11__mbstate_tES7_MS8_KFNSt12codecvt_base6resultERS7_PKDsSD_RSD_PcSF_RSF_EEbPKT0_SL_RT_RKT1_RT2_RmT3_,"axG",@progbits,_ZSt16__do_str_codecvtINSt7__cxx1112basic_stringIcSt11char_traitsIcESaIcEEEDsSt7codecvtIDsc11__mbstate_tES7_MS8_KFNSt12codecvt_base6resultERS7_PKDsSD_RSD_PcSF_RSF_EEbPKT0_SL_RT_RKT1_RT2_RmT3_,comdat
	.align	2
	.weak	_ZSt16__do_str_codecvtINSt7__cxx1112basic_stringIcSt11char_traitsIcESaIcEEEDsSt7codecvtIDsc11__mbstate_tES7_MS8_KFNSt12codecvt_base6resultERS7_PKDsSD_RSD_PcSF_RSF_EEbPKT0_SL_RT_RKT1_RT2_RmT3_
	.type	_ZSt16__do_str_codecvtINSt7__cxx1112basic_stringIcSt11char_traitsIcESaIcEEEDsSt7codecvtIDsc11__mbstate_tES7_MS8_KFNSt12codecvt_base6resultERS7_PKDsSD_RSD_PcSF_RSF_EEbPKT0_SL_RT_RKT1_RT2_RmT3_, %function
_ZSt16__do_str_codecvtINSt7__cxx1112basic_stringIcSt11char_traitsIcESaIcEEEDsSt7codecvtIDsc11__mbstate_tES7_MS8_KFNSt12codecvt_base6resultERS7_PKDsSD_RSD_PcSF_RSF_EEbPKT0_SL_RT_RKT1_RT2_RmT3_:
.LFB2718:
	.cfi_startproc
	stp	x29, x30, [sp, -144]!
	.cfi_def_cfa_offset 144
	.cfi_offset 29, -144
	.cfi_offset 30, -136
	mov	x29, sp
	str	x19, [sp, 16]
	.cfi_offset 19, -128
	str	x0, [sp, 88]
	str	x1, [sp, 80]
	str	x2, [sp, 72]
	str	x3, [sp, 64]
	str	x4, [sp, 56]
	str	x5, [sp, 48]
	stp	x6, x7, [sp, 32]
	adrp	x0, :got:__stack_chk_guard
	ldr	x0, [x0, #:got_lo12:__stack_chk_guard]
	ldr	x1, [x0]
	str	x1, [sp, 136]
	mov	x1, 0
	ldr	x1, [sp, 88]
	ldr	x0, [sp, 80]
	cmp	x1, x0
	bne	.L252
	ldr	x0, [sp, 72]
	bl	_ZNSt7__cxx1112basic_stringIcSt11char_traitsIcESaIcEE5clearEv
	ldr	x0, [sp, 48]
	str	xzr, [x0]
	mov	w0, 1
	b	.L260
.L252:
	str	xzr, [sp, 120]
	ldr	x0, [sp, 88]
	str	x0, [sp, 104]
	ldr	x0, [sp, 64]
	bl	_ZNKSt23__codecvt_abstract_baseIDsc11__mbstate_tE10max_lengthEv
	add	w0, w0, 1
	str	w0, [sp, 96]
.L258:
	ldr	x0, [sp, 72]
	bl	_ZNKSt7__cxx1112basic_stringIcSt11char_traitsIcESaIcEE4sizeEv
	mov	x2, x0
	ldr	x0, [sp, 104]
	ldr	x1, [sp, 80]
	sub	x0, x1, x0
	asr	x0, x0, 1
	mov	x1, x0
	ldrsw	x0, [sp, 96]
	mul	x0, x1, x0
	add	x0, x2, x0
	mov	x1, x0
	ldr	x0, [sp, 72]
	bl	_ZNSt7__cxx1112basic_stringIcSt11char_traitsIcESaIcEE6resizeEm
	ldr	x0, [sp, 72]
	bl	_ZNSt7__cxx1112basic_stringIcSt11char_traitsIcESaIcEE5frontEv
	mov	x1, x0
	ldr	x0, [sp, 120]
	add	x0, x1, x0
	str	x0, [sp, 112]
	ldr	x0, [sp, 72]
	bl	_ZNSt7__cxx1112basic_stringIcSt11char_traitsIcESaIcEE4backEv
	add	x0, x0, 1
	str	x0, [sp, 128]
	ldr	x0, [sp, 40]
	and	x0, x0, 1
	cmp	x0, 0
	beq	.L254
	ldr	x0, [sp, 40]
	asr	x0, x0, 1
	mov	x1, x0
	ldr	x0, [sp, 64]
	add	x0, x0, x1
	ldr	x0, [x0]
	ldr	x1, [sp, 32]
	add	x0, x0, x1
	ldr	x8, [x0]
	b	.L255
.L254:
	ldr	x8, [sp, 32]
.L255:
	ldr	x0, [sp, 40]
	asr	x0, x0, 1
	mov	x1, x0
	ldr	x0, [sp, 64]
	add	x0, x0, x1
	ldr	x1, [sp, 104]
	ldr	x3, [sp, 112]
	add	x4, sp, 112
	add	x2, sp, 104
	mov	x7, x4
	ldr	x6, [sp, 128]
	mov	x5, x3
	mov	x4, x2
	ldr	x3, [sp, 80]
	mov	x2, x1
	ldr	x1, [sp, 56]
	blr	x8
	str	w0, [sp, 100]
	ldr	x19, [sp, 112]
	ldr	x0, [sp, 72]
	bl	_ZNSt7__cxx1112basic_stringIcSt11char_traitsIcESaIcEE5frontEv
	sub	x0, x19, x0
	str	x0, [sp, 120]
	ldr	w0, [sp, 100]
	cmp	w0, 1
	bne	.L256
	ldr	x0, [sp, 104]
	ldr	x1, [sp, 80]
	cmp	x1, x0
	beq	.L256
	ldr	x0, [sp, 72]
	bl	_ZNKSt7__cxx1112basic_stringIcSt11char_traitsIcESaIcEE4sizeEv
	mov	x1, x0
	ldr	x0, [sp, 120]
	sub	x0, x1, x0
	mov	x1, x0
	ldrsw	x0, [sp, 96]
	cmp	x1, x0
	bge	.L256
	mov	w0, 1
	b	.L257
.L256:
	mov	w0, 0
.L257:
	cmp	w0, 0
	bne	.L258
	ldr	w0, [sp, 100]
	cmp	w0, 2
	bne	.L259
	ldr	x1, [sp, 104]
	ldr	x0, [sp, 88]
	sub	x0, x1, x0
	asr	x0, x0, 1
	mov	x1, x0
	ldr	x0, [sp, 48]
	str	x1, [x0]
	mov	w0, 0
	b	.L260
.L259:
	ldr	x1, [sp, 120]
	ldr	x0, [sp, 72]
	bl	_ZNSt7__cxx1112basic_stringIcSt11char_traitsIcESaIcEE6resizeEm
	ldr	x1, [sp, 104]
	ldr	x0, [sp, 88]
	sub	x0, x1, x0
	asr	x0, x0, 1
	mov	x1, x0
	ldr	x0, [sp, 48]
	str	x1, [x0]
	mov	w0, 1
.L260:
	mov	w1, w0
	adrp	x0, :got:__stack_chk_guard
	ldr	x0, [x0, #:got_lo12:__stack_chk_guard]
	ldr	x3, [sp, 136]
	ldr	x2, [x0]
	subs	x3, x3, x2
	mov	x2, 0
	beq	.L261
	bl	__stack_chk_fail
.L261:
	mov	w0, w1
	ldr	x19, [sp, 16]
	ldp	x29, x30, [sp], 144
	.cfi_restore 30
	.cfi_restore 29
	.cfi_restore 19
	.cfi_def_cfa_offset 0
	ret
	.cfi_endproc
.LFE2718:
	.size	_ZSt16__do_str_codecvtINSt7__cxx1112basic_stringIcSt11char_traitsIcESaIcEEEDsSt7codecvtIDsc11__mbstate_tES7_MS8_KFNSt12codecvt_base6resultERS7_PKDsSD_RSD_PcSF_RSF_EEbPKT0_SL_RT_RKT1_RT2_RmT3_, .-_ZSt16__do_str_codecvtINSt7__cxx1112basic_stringIcSt11char_traitsIcESaIcEEEDsSt7codecvtIDsc11__mbstate_tES7_MS8_KFNSt12codecvt_base6resultERS7_PKDsSD_RSD_PcSF_RSF_EEbPKT0_SL_RT_RKT1_RT2_RmT3_
	.section	.text._ZNSt5tupleIJPSt18codecvt_utf8_utf16IwLm1114111ELSt12codecvt_mode0EESt14default_deleteIS2_EEEC2ILb1ELb1EEEv,"axG",@progbits,_ZNSt5tupleIJPSt18codecvt_utf8_utf16IwLm1114111ELSt12codecvt_mode0EESt14default_deleteIS2_EEEC5ILb1ELb1EEEv,comdat
	.align	2
	.weak	_ZNSt5tupleIJPSt18codecvt_utf8_utf16IwLm1114111ELSt12codecvt_mode0EESt14default_deleteIS2_EEEC2ILb1ELb1EEEv
	.type	_ZNSt5tupleIJPSt18codecvt_utf8_utf16IwLm1114111ELSt12codecvt_mode0EESt14default_deleteIS2_EEEC2ILb1ELb1EEEv, %function
_ZNSt5tupleIJPSt18codecvt_utf8_utf16IwLm1114111ELSt12codecvt_mode0EESt14default_deleteIS2_EEEC2ILb1ELb1EEEv:
.LFB2720:
	.cfi_startproc
	.cfi_personality 0x9b,DW.ref.__gxx_personality_v0
	.cfi_lsda 0x1b,.LLSDA2720
	stp	x29, x30, [sp, -32]!
	.cfi_def_cfa_offset 32
	.cfi_offset 29, -32
	.cfi_offset 30, -24
	mov	x29, sp
	str	x0, [sp, 24]
	ldr	x0, [sp, 24]
	bl	_ZNSt11_Tuple_implILm0EJPSt18codecvt_utf8_utf16IwLm1114111ELSt12codecvt_mode0EESt14default_deleteIS2_EEEC2Ev
	nop
	ldp	x29, x30, [sp], 32
	.cfi_restore 30
	.cfi_restore 29
	.cfi_def_cfa_offset 0
	ret
	.cfi_endproc
.LFE2720:
	.section	.gcc_except_table
.LLSDA2720:
	.byte	0xff
	.byte	0xff
	.byte	0x1
	.uleb128 .LLSDACSE2720-.LLSDACSB2720
.LLSDACSB2720:
.LLSDACSE2720:
	.section	.text._ZNSt5tupleIJPSt18codecvt_utf8_utf16IwLm1114111ELSt12codecvt_mode0EESt14default_deleteIS2_EEEC2ILb1ELb1EEEv,"axG",@progbits,_ZNSt5tupleIJPSt18codecvt_utf8_utf16IwLm1114111ELSt12codecvt_mode0EESt14default_deleteIS2_EEEC5ILb1ELb1EEEv,comdat
	.size	_ZNSt5tupleIJPSt18codecvt_utf8_utf16IwLm1114111ELSt12codecvt_mode0EESt14default_deleteIS2_EEEC2ILb1ELb1EEEv, .-_ZNSt5tupleIJPSt18codecvt_utf8_utf16IwLm1114111ELSt12codecvt_mode0EESt14default_deleteIS2_EEEC2ILb1ELb1EEEv
	.weak	_ZNSt5tupleIJPSt18codecvt_utf8_utf16IwLm1114111ELSt12codecvt_mode0EESt14default_deleteIS2_EEEC1ILb1ELb1EEEv
	.set	_ZNSt5tupleIJPSt18codecvt_utf8_utf16IwLm1114111ELSt12codecvt_mode0EESt14default_deleteIS2_EEEC1ILb1ELb1EEEv,_ZNSt5tupleIJPSt18codecvt_utf8_utf16IwLm1114111ELSt12codecvt_mode0EESt14default_deleteIS2_EEEC2ILb1ELb1EEEv
	.section	.text._ZSt12__get_helperILm0EPSt18codecvt_utf8_utf16IwLm1114111ELSt12codecvt_mode0EEJSt14default_deleteIS2_EEERT0_RSt11_Tuple_implIXT_EJS6_DpT1_EE,"axG",@progbits,_ZSt12__get_helperILm0EPSt18codecvt_utf8_utf16IwLm1114111ELSt12codecvt_mode0EEJSt14default_deleteIS2_EEERT0_RSt11_Tuple_implIXT_EJS6_DpT1_EE,comdat
	.align	2
	.weak	_ZSt12__get_helperILm0EPSt18codecvt_utf8_utf16IwLm1114111ELSt12codecvt_mode0EEJSt14default_deleteIS2_EEERT0_RSt11_Tuple_implIXT_EJS6_DpT1_EE
	.type	_ZSt12__get_helperILm0EPSt18codecvt_utf8_utf16IwLm1114111ELSt12codecvt_mode0EEJSt14default_deleteIS2_EEERT0_RSt11_Tuple_implIXT_EJS6_DpT1_EE, %function
_ZSt12__get_helperILm0EPSt18codecvt_utf8_utf16IwLm1114111ELSt12codecvt_mode0EEJSt14default_deleteIS2_EEERT0_RSt11_Tuple_implIXT_EJS6_DpT1_EE:
.LFB2722:
	.cfi_startproc
	stp	x29, x30, [sp, -32]!
	.cfi_def_cfa_offset 32
	.cfi_offset 29, -32
	.cfi_offset 30, -24
	mov	x29, sp
	str	x0, [sp, 24]
	ldr	x0, [sp, 24]
	bl	_ZNSt11_Tuple_implILm0EJPSt18codecvt_utf8_utf16IwLm1114111ELSt12codecvt_mode0EESt14default_deleteIS2_EEE7_M_headERS6_
	ldp	x29, x30, [sp], 32
	.cfi_restore 30
	.cfi_restore 29
	.cfi_def_cfa_offset 0
	ret
	.cfi_endproc
.LFE2722:
	.size	_ZSt12__get_helperILm0EPSt18codecvt_utf8_utf16IwLm1114111ELSt12codecvt_mode0EEJSt14default_deleteIS2_EEERT0_RSt11_Tuple_implIXT_EJS6_DpT1_EE, .-_ZSt12__get_helperILm0EPSt18codecvt_utf8_utf16IwLm1114111ELSt12codecvt_mode0EEJSt14default_deleteIS2_EEERT0_RSt11_Tuple_implIXT_EJS6_DpT1_EE
	.section	.text._ZSt3getILm1EJPSt18codecvt_utf8_utf16IwLm1114111ELSt12codecvt_mode0EESt14default_deleteIS2_EEERNSt13tuple_elementIXT_ESt5tupleIJDpT0_EEE4typeERSA_,"axG",@progbits,_ZSt3getILm1EJPSt18codecvt_utf8_utf16IwLm1114111ELSt12codecvt_mode0EESt14default_deleteIS2_EEERNSt13tuple_elementIXT_ESt5tupleIJDpT0_EEE4typeERSA_,comdat
	.align	2
	.weak	_ZSt3getILm1EJPSt18codecvt_utf8_utf16IwLm1114111ELSt12codecvt_mode0EESt14default_deleteIS2_EEERNSt13tuple_elementIXT_ESt5tupleIJDpT0_EEE4typeERSA_
	.type	_ZSt3getILm1EJPSt18codecvt_utf8_utf16IwLm1114111ELSt12codecvt_mode0EESt14default_deleteIS2_EEERNSt13tuple_elementIXT_ESt5tupleIJDpT0_EEE4typeERSA_, %function
_ZSt3getILm1EJPSt18codecvt_utf8_utf16IwLm1114111ELSt12codecvt_mode0EESt14default_deleteIS2_EEERNSt13tuple_elementIXT_ESt5tupleIJDpT0_EEE4typeERSA_:
.LFB2723:
	.cfi_startproc
	stp	x29, x30, [sp, -32]!
	.cfi_def_cfa_offset 32
	.cfi_offset 29, -32
	.cfi_offset 30, -24
	mov	x29, sp
	str	x0, [sp, 24]
	ldr	x0, [sp, 24]
	bl	_ZSt12__get_helperILm1ESt14default_deleteISt18codecvt_utf8_utf16IwLm1114111ELSt12codecvt_mode0EEEJEERT0_RSt11_Tuple_implIXT_EJS5_DpT1_EE
	ldp	x29, x30, [sp], 32
	.cfi_restore 30
	.cfi_restore 29
	.cfi_def_cfa_offset 0
	ret
	.cfi_endproc
.LFE2723:
	.size	_ZSt3getILm1EJPSt18codecvt_utf8_utf16IwLm1114111ELSt12codecvt_mode0EESt14default_deleteIS2_EEERNSt13tuple_elementIXT_ESt5tupleIJDpT0_EEE4typeERSA_, .-_ZSt3getILm1EJPSt18codecvt_utf8_utf16IwLm1114111ELSt12codecvt_mode0EESt14default_deleteIS2_EEERNSt13tuple_elementIXT_ESt5tupleIJDpT0_EEE4typeERSA_
	.section	.text._ZNKSt10unique_ptrISt18codecvt_utf8_utf16IwLm1114111ELSt12codecvt_mode0EESt14default_deleteIS2_EE3getEv,"axG",@progbits,_ZNKSt10unique_ptrISt18codecvt_utf8_utf16IwLm1114111ELSt12codecvt_mode0EESt14default_deleteIS2_EE3getEv,comdat
	.align	2
	.weak	_ZNKSt10unique_ptrISt18codecvt_utf8_utf16IwLm1114111ELSt12codecvt_mode0EESt14default_deleteIS2_EE3getEv
	.type	_ZNKSt10unique_ptrISt18codecvt_utf8_utf16IwLm1114111ELSt12codecvt_mode0EESt14default_deleteIS2_EE3getEv, %function
_ZNKSt10unique_ptrISt18codecvt_utf8_utf16IwLm1114111ELSt12codecvt_mode0EESt14default_deleteIS2_EE3getEv:
.LFB2725:
	.cfi_startproc
	stp	x29, x30, [sp, -32]!
	.cfi_def_cfa_offset 32
	.cfi_offset 29, -32
	.cfi_offset 30, -24
	mov	x29, sp
	str	x0, [sp, 24]
	ldr	x0, [sp, 24]
	bl	_ZNKSt15__uniq_ptr_implISt18codecvt_utf8_utf16IwLm1114111ELSt12codecvt_mode0EESt14default_deleteIS2_EE6_M_ptrEv
	ldp	x29, x30, [sp], 32
	.cfi_restore 30
	.cfi_restore 29
	.cfi_def_cfa_offset 0
	ret
	.cfi_endproc
.LFE2725:
	.size	_ZNKSt10unique_ptrISt18codecvt_utf8_utf16IwLm1114111ELSt12codecvt_mode0EESt14default_deleteIS2_EE3getEv, .-_ZNKSt10unique_ptrISt18codecvt_utf8_utf16IwLm1114111ELSt12codecvt_mode0EESt14default_deleteIS2_EE3getEv
	.section	.text._ZNKSt23__codecvt_abstract_baseIwc11__mbstate_tE2inERS0_PKcS4_RS4_PwS6_RS6_,"axG",@progbits,_ZNKSt23__codecvt_abstract_baseIwc11__mbstate_tE2inERS0_PKcS4_RS4_PwS6_RS6_,comdat
	.align	2
	.weak	_ZNKSt23__codecvt_abstract_baseIwc11__mbstate_tE2inERS0_PKcS4_RS4_PwS6_RS6_
	.type	_ZNKSt23__codecvt_abstract_baseIwc11__mbstate_tE2inERS0_PKcS4_RS4_PwS6_RS6_, %function
_ZNKSt23__codecvt_abstract_baseIwc11__mbstate_tE2inERS0_PKcS4_RS4_PwS6_RS6_:
.LFB2726:
	.cfi_startproc
	stp	x29, x30, [sp, -80]!
	.cfi_def_cfa_offset 80
	.cfi_offset 29, -80
	.cfi_offset 30, -72
	mov	x29, sp
	str	x0, [sp, 72]
	str	x1, [sp, 64]
	str	x2, [sp, 56]
	str	x3, [sp, 48]
	str	x4, [sp, 40]
	str	x5, [sp, 32]
	str	x6, [sp, 24]
	str	x7, [sp, 16]
	ldr	x0, [sp, 72]
	ldr	x0, [x0]
	add	x0, x0, 32
	ldr	x8, [x0]
	ldr	x7, [sp, 16]
	ldr	x6, [sp, 24]
	ldr	x5, [sp, 32]
	ldr	x4, [sp, 40]
	ldr	x3, [sp, 48]
	ldr	x2, [sp, 56]
	ldr	x1, [sp, 64]
	ldr	x0, [sp, 72]
	blr	x8
	ldp	x29, x30, [sp], 80
	.cfi_restore 30
	.cfi_restore 29
	.cfi_def_cfa_offset 0
	ret
	.cfi_endproc
.LFE2726:
	.size	_ZNKSt23__codecvt_abstract_baseIwc11__mbstate_tE2inERS0_PKcS4_RS4_PwS6_RS6_, .-_ZNKSt23__codecvt_abstract_baseIwc11__mbstate_tE2inERS0_PKcS4_RS4_PwS6_RS6_
	.section	.text._ZSt16__do_str_codecvtINSt7__cxx1112basic_stringIwSt11char_traitsIwESaIwEEEcSt7codecvtIwc11__mbstate_tES7_MS8_KFNSt12codecvt_base6resultERS7_PKcSD_RSD_PwSF_RSF_EEbPKT0_SL_RT_RKT1_RT2_RmT3_,"axG",@progbits,_ZSt16__do_str_codecvtINSt7__cxx1112basic_stringIwSt11char_traitsIwESaIwEEEcSt7codecvtIwc11__mbstate_tES7_MS8_KFNSt12codecvt_base6resultERS7_PKcSD_RSD_PwSF_RSF_EEbPKT0_SL_RT_RKT1_RT2_RmT3_,comdat
	.align	2
	.weak	_ZSt16__do_str_codecvtINSt7__cxx1112basic_stringIwSt11char_traitsIwESaIwEEEcSt7codecvtIwc11__mbstate_tES7_MS8_KFNSt12codecvt_base6resultERS7_PKcSD_RSD_PwSF_RSF_EEbPKT0_SL_RT_RKT1_RT2_RmT3_
	.type	_ZSt16__do_str_codecvtINSt7__cxx1112basic_stringIwSt11char_traitsIwESaIwEEEcSt7codecvtIwc11__mbstate_tES7_MS8_KFNSt12codecvt_base6resultERS7_PKcSD_RSD_PwSF_RSF_EEbPKT0_SL_RT_RKT1_RT2_RmT3_, %function
_ZSt16__do_str_codecvtINSt7__cxx1112basic_stringIwSt11char_traitsIwESaIwEEEcSt7codecvtIwc11__mbstate_tES7_MS8_KFNSt12codecvt_base6resultERS7_PKcSD_RSD_PwSF_RSF_EEbPKT0_SL_RT_RKT1_RT2_RmT3_:
.LFB2727:
	.cfi_startproc
	stp	x29, x30, [sp, -144]!
	.cfi_def_cfa_offset 144
	.cfi_offset 29, -144
	.cfi_offset 30, -136
	mov	x29, sp
	str	x19, [sp, 16]
	.cfi_offset 19, -128
	str	x0, [sp, 88]
	str	x1, [sp, 80]
	str	x2, [sp, 72]
	str	x3, [sp, 64]
	str	x4, [sp, 56]
	str	x5, [sp, 48]
	stp	x6, x7, [sp, 32]
	adrp	x0, :got:__stack_chk_guard
	ldr	x0, [x0, #:got_lo12:__stack_chk_guard]
	ldr	x1, [x0]
	str	x1, [sp, 136]
	mov	x1, 0
	ldr	x1, [sp, 88]
	ldr	x0, [sp, 80]
	cmp	x1, x0
	bne	.L272
	ldr	x0, [sp, 72]
	bl	_ZNSt7__cxx1112basic_stringIwSt11char_traitsIwESaIwEE5clearEv
	ldr	x0, [sp, 48]
	str	xzr, [x0]
	mov	w0, 1
	b	.L280
.L272:
	str	xzr, [sp, 120]
	ldr	x0, [sp, 88]
	str	x0, [sp, 104]
	ldr	x0, [sp, 64]
	bl	_ZNKSt23__codecvt_abstract_baseIwc11__mbstate_tE10max_lengthEv
	add	w0, w0, 1
	str	w0, [sp, 96]
.L278:
	ldr	x0, [sp, 72]
	bl	_ZNKSt7__cxx1112basic_stringIwSt11char_traitsIwESaIwEE4sizeEv
	mov	x2, x0
	ldr	x0, [sp, 104]
	ldr	x1, [sp, 80]
	sub	x1, x1, x0
	ldrsw	x0, [sp, 96]
	mul	x0, x1, x0
	add	x0, x2, x0
	mov	x1, x0
	ldr	x0, [sp, 72]
	bl	_ZNSt7__cxx1112basic_stringIwSt11char_traitsIwESaIwEE6resizeEm
	ldr	x0, [sp, 72]
	bl	_ZNSt7__cxx1112basic_stringIwSt11char_traitsIwESaIwEE5frontEv
	mov	x1, x0
	ldr	x0, [sp, 120]
	lsl	x0, x0, 2
	add	x0, x1, x0
	str	x0, [sp, 112]
	ldr	x0, [sp, 72]
	bl	_ZNSt7__cxx1112basic_stringIwSt11char_traitsIwESaIwEE4backEv
	add	x0, x0, 4
	str	x0, [sp, 128]
	ldr	x0, [sp, 40]
	and	x0, x0, 1
	cmp	x0, 0
	beq	.L274
	ldr	x0, [sp, 40]
	asr	x0, x0, 1
	mov	x1, x0
	ldr	x0, [sp, 64]
	add	x0, x0, x1
	ldr	x0, [x0]
	ldr	x1, [sp, 32]
	add	x0, x0, x1
	ldr	x8, [x0]
	b	.L275
.L274:
	ldr	x8, [sp, 32]
.L275:
	ldr	x0, [sp, 40]
	asr	x0, x0, 1
	mov	x1, x0
	ldr	x0, [sp, 64]
	add	x0, x0, x1
	ldr	x1, [sp, 104]
	ldr	x3, [sp, 112]
	add	x4, sp, 112
	add	x2, sp, 104
	mov	x7, x4
	ldr	x6, [sp, 128]
	mov	x5, x3
	mov	x4, x2
	ldr	x3, [sp, 80]
	mov	x2, x1
	ldr	x1, [sp, 56]
	blr	x8
	str	w0, [sp, 100]
	ldr	x19, [sp, 112]
	ldr	x0, [sp, 72]
	bl	_ZNSt7__cxx1112basic_stringIwSt11char_traitsIwESaIwEE5frontEv
	sub	x0, x19, x0
	asr	x0, x0, 2
	str	x0, [sp, 120]
	ldr	w0, [sp, 100]
	cmp	w0, 1
	bne	.L276
	ldr	x0, [sp, 104]
	ldr	x1, [sp, 80]
	cmp	x1, x0
	beq	.L276
	ldr	x0, [sp, 72]
	bl	_ZNKSt7__cxx1112basic_stringIwSt11char_traitsIwESaIwEE4sizeEv
	mov	x1, x0
	ldr	x0, [sp, 120]
	sub	x0, x1, x0
	mov	x1, x0
	ldrsw	x0, [sp, 96]
	cmp	x1, x0
	bge	.L276
	mov	w0, 1
	b	.L277
.L276:
	mov	w0, 0
.L277:
	cmp	w0, 0
	bne	.L278
	ldr	w0, [sp, 100]
	cmp	w0, 2
	bne	.L279
	ldr	x1, [sp, 104]
	ldr	x0, [sp, 88]
	sub	x0, x1, x0
	mov	x1, x0
	ldr	x0, [sp, 48]
	str	x1, [x0]
	mov	w0, 0
	b	.L280
.L279:
	ldr	x1, [sp, 120]
	ldr	x0, [sp, 72]
	bl	_ZNSt7__cxx1112basic_stringIwSt11char_traitsIwESaIwEE6resizeEm
	ldr	x1, [sp, 104]
	ldr	x0, [sp, 88]
	sub	x0, x1, x0
	mov	x1, x0
	ldr	x0, [sp, 48]
	str	x1, [x0]
	mov	w0, 1
.L280:
	mov	w1, w0
	adrp	x0, :got:__stack_chk_guard
	ldr	x0, [x0, #:got_lo12:__stack_chk_guard]
	ldr	x3, [sp, 136]
	ldr	x2, [x0]
	subs	x3, x3, x2
	mov	x2, 0
	beq	.L281
	bl	__stack_chk_fail
.L281:
	mov	w0, w1
	ldr	x19, [sp, 16]
	ldp	x29, x30, [sp], 144
	.cfi_restore 30
	.cfi_restore 29
	.cfi_restore 19
	.cfi_def_cfa_offset 0
	ret
	.cfi_endproc
.LFE2727:
	.size	_ZSt16__do_str_codecvtINSt7__cxx1112basic_stringIwSt11char_traitsIwESaIwEEEcSt7codecvtIwc11__mbstate_tES7_MS8_KFNSt12codecvt_base6resultERS7_PKcSD_RSD_PwSF_RSF_EEbPKT0_SL_RT_RKT1_RT2_RmT3_, .-_ZSt16__do_str_codecvtINSt7__cxx1112basic_stringIwSt11char_traitsIwESaIwEEEcSt7codecvtIwc11__mbstate_tES7_MS8_KFNSt12codecvt_base6resultERS7_PKcSD_RSD_PwSF_RSF_EEbPKT0_SL_RT_RKT1_RT2_RmT3_
	.section	.text._ZNKSt23__codecvt_abstract_baseIwc11__mbstate_tE3outERS0_PKwS4_RS4_PcS6_RS6_,"axG",@progbits,_ZNKSt23__codecvt_abstract_baseIwc11__mbstate_tE3outERS0_PKwS4_RS4_PcS6_RS6_,comdat
	.align	2
	.weak	_ZNKSt23__codecvt_abstract_baseIwc11__mbstate_tE3outERS0_PKwS4_RS4_PcS6_RS6_
	.type	_ZNKSt23__codecvt_abstract_baseIwc11__mbstate_tE3outERS0_PKwS4_RS4_PcS6_RS6_, %function
_ZNKSt23__codecvt_abstract_baseIwc11__mbstate_tE3outERS0_PKwS4_RS4_PcS6_RS6_:
.LFB2730:
	.cfi_startproc
	stp	x29, x30, [sp, -80]!
	.cfi_def_cfa_offset 80
	.cfi_offset 29, -80
	.cfi_offset 30, -72
	mov	x29, sp
	str	x0, [sp, 72]
	str	x1, [sp, 64]
	str	x2, [sp, 56]
	str	x3, [sp, 48]
	str	x4, [sp, 40]
	str	x5, [sp, 32]
	str	x6, [sp, 24]
	str	x7, [sp, 16]
	ldr	x0, [sp, 72]
	ldr	x0, [x0]
	add	x0, x0, 16
	ldr	x8, [x0]
	ldr	x7, [sp, 16]
	ldr	x6, [sp, 24]
	ldr	x5, [sp, 32]
	ldr	x4, [sp, 40]
	ldr	x3, [sp, 48]
	ldr	x2, [sp, 56]
	ldr	x1, [sp, 64]
	ldr	x0, [sp, 72]
	blr	x8
	ldp	x29, x30, [sp], 80
	.cfi_restore 30
	.cfi_restore 29
	.cfi_def_cfa_offset 0
	ret
	.cfi_endproc
.LFE2730:
	.size	_ZNKSt23__codecvt_abstract_baseIwc11__mbstate_tE3outERS0_PKwS4_RS4_PcS6_RS6_, .-_ZNKSt23__codecvt_abstract_baseIwc11__mbstate_tE3outERS0_PKwS4_RS4_PcS6_RS6_
	.section	.text._ZSt16__do_str_codecvtINSt7__cxx1112basic_stringIcSt11char_traitsIcESaIcEEEwSt7codecvtIwc11__mbstate_tES7_MS8_KFNSt12codecvt_base6resultERS7_PKwSD_RSD_PcSF_RSF_EEbPKT0_SL_RT_RKT1_RT2_RmT3_,"axG",@progbits,_ZSt16__do_str_codecvtINSt7__cxx1112basic_stringIcSt11char_traitsIcESaIcEEEwSt7codecvtIwc11__mbstate_tES7_MS8_KFNSt12codecvt_base6resultERS7_PKwSD_RSD_PcSF_RSF_EEbPKT0_SL_RT_RKT1_RT2_RmT3_,comdat
	.align	2
	.weak	_ZSt16__do_str_codecvtINSt7__cxx1112basic_stringIcSt11char_traitsIcESaIcEEEwSt7codecvtIwc11__mbstate_tES7_MS8_KFNSt12codecvt_base6resultERS7_PKwSD_RSD_PcSF_RSF_EEbPKT0_SL_RT_RKT1_RT2_RmT3_
	.type	_ZSt16__do_str_codecvtINSt7__cxx1112basic_stringIcSt11char_traitsIcESaIcEEEwSt7codecvtIwc11__mbstate_tES7_MS8_KFNSt12codecvt_base6resultERS7_PKwSD_RSD_PcSF_RSF_EEbPKT0_SL_RT_RKT1_RT2_RmT3_, %function
_ZSt16__do_str_codecvtINSt7__cxx1112basic_stringIcSt11char_traitsIcESaIcEEEwSt7codecvtIwc11__mbstate_tES7_MS8_KFNSt12codecvt_base6resultERS7_PKwSD_RSD_PcSF_RSF_EEbPKT0_SL_RT_RKT1_RT2_RmT3_:
.LFB2731:
	.cfi_startproc
	stp	x29, x30, [sp, -144]!
	.cfi_def_cfa_offset 144
	.cfi_offset 29, -144
	.cfi_offset 30, -136
	mov	x29, sp
	str	x19, [sp, 16]
	.cfi_offset 19, -128
	str	x0, [sp, 88]
	str	x1, [sp, 80]
	str	x2, [sp, 72]
	str	x3, [sp, 64]
	str	x4, [sp, 56]
	str	x5, [sp, 48]
	stp	x6, x7, [sp, 32]
	adrp	x0, :got:__stack_chk_guard
	ldr	x0, [x0, #:got_lo12:__stack_chk_guard]
	ldr	x1, [x0]
	str	x1, [sp, 136]
	mov	x1, 0
	ldr	x1, [sp, 88]
	ldr	x0, [sp, 80]
	cmp	x1, x0
	bne	.L285
	ldr	x0, [sp, 72]
	bl	_ZNSt7__cxx1112basic_stringIcSt11char_traitsIcESaIcEE5clearEv
	ldr	x0, [sp, 48]
	str	xzr, [x0]
	mov	w0, 1
	b	.L293
.L285:
	str	xzr, [sp, 120]
	ldr	x0, [sp, 88]
	str	x0, [sp, 104]
	ldr	x0, [sp, 64]
	bl	_ZNKSt23__codecvt_abstract_baseIwc11__mbstate_tE10max_lengthEv
	add	w0, w0, 1
	str	w0, [sp, 96]
.L291:
	ldr	x0, [sp, 72]
	bl	_ZNKSt7__cxx1112basic_stringIcSt11char_traitsIcESaIcEE4sizeEv
	mov	x2, x0
	ldr	x0, [sp, 104]
	ldr	x1, [sp, 80]
	sub	x0, x1, x0
	asr	x0, x0, 2
	mov	x1, x0
	ldrsw	x0, [sp, 96]
	mul	x0, x1, x0
	add	x0, x2, x0
	mov	x1, x0
	ldr	x0, [sp, 72]
	bl	_ZNSt7__cxx1112basic_stringIcSt11char_traitsIcESaIcEE6resizeEm
	ldr	x0, [sp, 72]
	bl	_ZNSt7__cxx1112basic_stringIcSt11char_traitsIcESaIcEE5frontEv
	mov	x1, x0
	ldr	x0, [sp, 120]
	add	x0, x1, x0
	str	x0, [sp, 112]
	ldr	x0, [sp, 72]
	bl	_ZNSt7__cxx1112basic_stringIcSt11char_traitsIcESaIcEE4backEv
	add	x0, x0, 1
	str	x0, [sp, 128]
	ldr	x0, [sp, 40]
	and	x0, x0, 1
	cmp	x0, 0
	beq	.L287
	ldr	x0, [sp, 40]
	asr	x0, x0, 1
	mov	x1, x0
	ldr	x0, [sp, 64]
	add	x0, x0, x1
	ldr	x0, [x0]
	ldr	x1, [sp, 32]
	add	x0, x0, x1
	ldr	x8, [x0]
	b	.L288
.L287:
	ldr	x8, [sp, 32]
.L288:
	ldr	x0, [sp, 40]
	asr	x0, x0, 1
	mov	x1, x0
	ldr	x0, [sp, 64]
	add	x0, x0, x1
	ldr	x1, [sp, 104]
	ldr	x3, [sp, 112]
	add	x4, sp, 112
	add	x2, sp, 104
	mov	x7, x4
	ldr	x6, [sp, 128]
	mov	x5, x3
	mov	x4, x2
	ldr	x3, [sp, 80]
	mov	x2, x1
	ldr	x1, [sp, 56]
	blr	x8
	str	w0, [sp, 100]
	ldr	x19, [sp, 112]
	ldr	x0, [sp, 72]
	bl	_ZNSt7__cxx1112basic_stringIcSt11char_traitsIcESaIcEE5frontEv
	sub	x0, x19, x0
	str	x0, [sp, 120]
	ldr	w0, [sp, 100]
	cmp	w0, 1
	bne	.L289
	ldr	x0, [sp, 104]
	ldr	x1, [sp, 80]
	cmp	x1, x0
	beq	.L289
	ldr	x0, [sp, 72]
	bl	_ZNKSt7__cxx1112basic_stringIcSt11char_traitsIcESaIcEE4sizeEv
	mov	x1, x0
	ldr	x0, [sp, 120]
	sub	x0, x1, x0
	mov	x1, x0
	ldrsw	x0, [sp, 96]
	cmp	x1, x0
	bge	.L289
	mov	w0, 1
	b	.L290
.L289:
	mov	w0, 0
.L290:
	cmp	w0, 0
	bne	.L291
	ldr	w0, [sp, 100]
	cmp	w0, 2
	bne	.L292
	ldr	x1, [sp, 104]
	ldr	x0, [sp, 88]
	sub	x0, x1, x0
	asr	x0, x0, 2
	mov	x1, x0
	ldr	x0, [sp, 48]
	str	x1, [x0]
	mov	w0, 0
	b	.L293
.L292:
	ldr	x1, [sp, 120]
	ldr	x0, [sp, 72]
	bl	_ZNSt7__cxx1112basic_stringIcSt11char_traitsIcESaIcEE6resizeEm
	ldr	x1, [sp, 104]
	ldr	x0, [sp, 88]
	sub	x0, x1, x0
	asr	x0, x0, 2
	mov	x1, x0
	ldr	x0, [sp, 48]
	str	x1, [x0]
	mov	w0, 1
.L293:
	mov	w1, w0
	adrp	x0, :got:__stack_chk_guard
	ldr	x0, [x0, #:got_lo12:__stack_chk_guard]
	ldr	x3, [sp, 136]
	ldr	x2, [x0]
	subs	x3, x3, x2
	mov	x2, 0
	beq	.L294
	bl	__stack_chk_fail
.L294:
	mov	w0, w1
	ldr	x19, [sp, 16]
	ldp	x29, x30, [sp], 144
	.cfi_restore 30
	.cfi_restore 29
	.cfi_restore 19
	.cfi_def_cfa_offset 0
	ret
	.cfi_endproc
.LFE2731:
	.size	_ZSt16__do_str_codecvtINSt7__cxx1112basic_stringIcSt11char_traitsIcESaIcEEEwSt7codecvtIwc11__mbstate_tES7_MS8_KFNSt12codecvt_base6resultERS7_PKwSD_RSD_PcSF_RSF_EEbPKT0_SL_RT_RKT1_RT2_RmT3_, .-_ZSt16__do_str_codecvtINSt7__cxx1112basic_stringIcSt11char_traitsIcESaIcEEEwSt7codecvtIwc11__mbstate_tES7_MS8_KFNSt12codecvt_base6resultERS7_PKwSD_RSD_PcSF_RSF_EEbPKT0_SL_RT_RKT1_RT2_RmT3_
	.section	.text._ZSt11__addressofIDsEPT_RS0_,"axG",@progbits,_ZSt11__addressofIDsEPT_RS0_,comdat
	.align	2
	.weak	_ZSt11__addressofIDsEPT_RS0_
	.type	_ZSt11__addressofIDsEPT_RS0_, %function
_ZSt11__addressofIDsEPT_RS0_:
.LFB2749:
	.cfi_startproc
	sub	sp, sp, #16
	.cfi_def_cfa_offset 16
	str	x0, [sp, 8]
	ldr	x0, [sp, 8]
	add	sp, sp, 16
	.cfi_def_cfa_offset 0
	ret
	.cfi_endproc
.LFE2749:
	.size	_ZSt11__addressofIDsEPT_RS0_, .-_ZSt11__addressofIDsEPT_RS0_
	.section	.rodata
	.align	3
.LC2:
	.string	"basic_string::_M_create"
	.section	.text._ZNSt7__cxx1112basic_stringIDsSt11char_traitsIDsESaIDsEE9_M_createERmm,"axG",@progbits,_ZNSt7__cxx1112basic_stringIDsSt11char_traitsIDsESaIDsEE9_M_createERmm,comdat
	.align	2
	.weak	_ZNSt7__cxx1112basic_stringIDsSt11char_traitsIDsESaIDsEE9_M_createERmm
	.type	_ZNSt7__cxx1112basic_stringIDsSt11char_traitsIDsESaIDsEE9_M_createERmm, %function
_ZNSt7__cxx1112basic_stringIDsSt11char_traitsIDsESaIDsEE9_M_createERmm:
.LFB2753:
	.cfi_startproc
	stp	x29, x30, [sp, -64]!
	.cfi_def_cfa_offset 64
	.cfi_offset 29, -64
	.cfi_offset 30, -56
	mov	x29, sp
	str	x19, [sp, 16]
	.cfi_offset 19, -48
	str	x0, [sp, 56]
	str	x1, [sp, 48]
	str	x2, [sp, 40]
	ldr	x0, [sp, 48]
	ldr	x19, [x0]
	ldr	x0, [sp, 56]
	bl	_ZNKSt7__cxx1112basic_stringIDsSt11char_traitsIDsESaIDsEE8max_sizeEv
	cmp	x19, x0
	cset	w0, hi
	and	w0, w0, 255
	cmp	w0, 0
	beq	.L298
	adrp	x0, .LC2
	add	x0, x0, :lo12:.LC2
	bl	_ZSt20__throw_length_errorPKc
.L298:
	ldr	x0, [sp, 48]
	ldr	x0, [x0]
	ldr	x1, [sp, 40]
	cmp	x1, x0
	bcs	.L299
	ldr	x0, [sp, 48]
	ldr	x1, [x0]
	ldr	x0, [sp, 40]
	lsl	x0, x0, 1
	cmp	x1, x0
	bcs	.L299
	ldr	x0, [sp, 40]
	lsl	x1, x0, 1
	ldr	x0, [sp, 48]
	str	x1, [x0]
	ldr	x0, [sp, 48]
	ldr	x19, [x0]
	ldr	x0, [sp, 56]
	bl	_ZNKSt7__cxx1112basic_stringIDsSt11char_traitsIDsESaIDsEE8max_sizeEv
	cmp	x19, x0
	cset	w0, hi
	and	w0, w0, 255
	cmp	w0, 0
	beq	.L299
	ldr	x0, [sp, 56]
	bl	_ZNKSt7__cxx1112basic_stringIDsSt11char_traitsIDsESaIDsEE8max_sizeEv
	mov	x1, x0
	ldr	x0, [sp, 48]
	str	x1, [x0]
.L299:
	ldr	x0, [sp, 56]
	bl	_ZNSt7__cxx1112basic_stringIDsSt11char_traitsIDsESaIDsEE16_M_get_allocatorEv
	mov	x2, x0
	ldr	x0, [sp, 48]
	ldr	x0, [x0]
	add	x0, x0, 1
	mov	x1, x0
	mov	x0, x2
	bl	_ZNSt16allocator_traitsISaIDsEE8allocateERS0_m
	ldr	x19, [sp, 16]
	ldp	x29, x30, [sp], 64
	.cfi_restore 30
	.cfi_restore 29
	.cfi_restore 19
	.cfi_def_cfa_offset 0
	ret
	.cfi_endproc
.LFE2753:
	.size	_ZNSt7__cxx1112basic_stringIDsSt11char_traitsIDsESaIDsEE9_M_createERmm, .-_ZNSt7__cxx1112basic_stringIDsSt11char_traitsIDsESaIDsEE9_M_createERmm
	.section	.text._ZN9__gnu_cxx13new_allocatorIDsE10deallocateEPDsm,"axG",@progbits,_ZN9__gnu_cxx13new_allocatorIDsE10deallocateEPDsm,comdat
	.align	2
	.weak	_ZN9__gnu_cxx13new_allocatorIDsE10deallocateEPDsm
	.type	_ZN9__gnu_cxx13new_allocatorIDsE10deallocateEPDsm, %function
_ZN9__gnu_cxx13new_allocatorIDsE10deallocateEPDsm:
.LFB2755:
	.cfi_startproc
	stp	x29, x30, [sp, -48]!
	.cfi_def_cfa_offset 48
	.cfi_offset 29, -48
	.cfi_offset 30, -40
	mov	x29, sp
	str	x0, [sp, 40]
	str	x1, [sp, 32]
	str	x2, [sp, 24]
	ldr	x0, [sp, 24]
	lsl	x0, x0, 1
	mov	x1, x0
	ldr	x0, [sp, 32]
	bl	_ZdlPvm
	ldp	x29, x30, [sp], 48
	.cfi_restore 30
	.cfi_restore 29
	.cfi_def_cfa_offset 0
	ret
	.cfi_endproc
.LFE2755:
	.size	_ZN9__gnu_cxx13new_allocatorIDsE10deallocateEPDsm, .-_ZN9__gnu_cxx13new_allocatorIDsE10deallocateEPDsm
	.section	.text._ZNSt11_Tuple_implILm0EJPSt18codecvt_utf8_utf16IDsLm1114111ELSt12codecvt_mode0EESt14default_deleteIS2_EEEC2Ev,"axG",@progbits,_ZNSt11_Tuple_implILm0EJPSt18codecvt_utf8_utf16IDsLm1114111ELSt12codecvt_mode0EESt14default_deleteIS2_EEEC5Ev,comdat
	.align	2
	.weak	_ZNSt11_Tuple_implILm0EJPSt18codecvt_utf8_utf16IDsLm1114111ELSt12codecvt_mode0EESt14default_deleteIS2_EEEC2Ev
	.type	_ZNSt11_Tuple_implILm0EJPSt18codecvt_utf8_utf16IDsLm1114111ELSt12codecvt_mode0EESt14default_deleteIS2_EEEC2Ev, %function
_ZNSt11_Tuple_implILm0EJPSt18codecvt_utf8_utf16IDsLm1114111ELSt12codecvt_mode0EESt14default_deleteIS2_EEEC2Ev:
.LFB2769:
	.cfi_startproc
	stp	x29, x30, [sp, -32]!
	.cfi_def_cfa_offset 32
	.cfi_offset 29, -32
	.cfi_offset 30, -24
	mov	x29, sp
	str	x0, [sp, 24]
	ldr	x0, [sp, 24]
	bl	_ZNSt11_Tuple_implILm1EJSt14default_deleteISt18codecvt_utf8_utf16IDsLm1114111ELSt12codecvt_mode0EEEEEC2Ev
	ldr	x0, [sp, 24]
	bl	_ZNSt10_Head_baseILm0EPSt18codecvt_utf8_utf16IDsLm1114111ELSt12codecvt_mode0EELb0EEC2Ev
	nop
	ldp	x29, x30, [sp], 32
	.cfi_restore 30
	.cfi_restore 29
	.cfi_def_cfa_offset 0
	ret
	.cfi_endproc
.LFE2769:
	.size	_ZNSt11_Tuple_implILm0EJPSt18codecvt_utf8_utf16IDsLm1114111ELSt12codecvt_mode0EESt14default_deleteIS2_EEEC2Ev, .-_ZNSt11_Tuple_implILm0EJPSt18codecvt_utf8_utf16IDsLm1114111ELSt12codecvt_mode0EESt14default_deleteIS2_EEEC2Ev
	.weak	_ZNSt11_Tuple_implILm0EJPSt18codecvt_utf8_utf16IDsLm1114111ELSt12codecvt_mode0EESt14default_deleteIS2_EEEC1Ev
	.set	_ZNSt11_Tuple_implILm0EJPSt18codecvt_utf8_utf16IDsLm1114111ELSt12codecvt_mode0EESt14default_deleteIS2_EEEC1Ev,_ZNSt11_Tuple_implILm0EJPSt18codecvt_utf8_utf16IDsLm1114111ELSt12codecvt_mode0EESt14default_deleteIS2_EEEC2Ev
	.section	.text._ZNSt11_Tuple_implILm0EJPSt18codecvt_utf8_utf16IDsLm1114111ELSt12codecvt_mode0EESt14default_deleteIS2_EEE7_M_headERS6_,"axG",@progbits,_ZNSt11_Tuple_implILm0EJPSt18codecvt_utf8_utf16IDsLm1114111ELSt12codecvt_mode0EESt14default_deleteIS2_EEE7_M_headERS6_,comdat
	.align	2
	.weak	_ZNSt11_Tuple_implILm0EJPSt18codecvt_utf8_utf16IDsLm1114111ELSt12codecvt_mode0EESt14default_deleteIS2_EEE7_M_headERS6_
	.type	_ZNSt11_Tuple_implILm0EJPSt18codecvt_utf8_utf16IDsLm1114111ELSt12codecvt_mode0EESt14default_deleteIS2_EEE7_M_headERS6_, %function
_ZNSt11_Tuple_implILm0EJPSt18codecvt_utf8_utf16IDsLm1114111ELSt12codecvt_mode0EESt14default_deleteIS2_EEE7_M_headERS6_:
.LFB2771:
	.cfi_startproc
	stp	x29, x30, [sp, -32]!
	.cfi_def_cfa_offset 32
	.cfi_offset 29, -32
	.cfi_offset 30, -24
	mov	x29, sp
	str	x0, [sp, 24]
	ldr	x0, [sp, 24]
	bl	_ZNSt10_Head_baseILm0EPSt18codecvt_utf8_utf16IDsLm1114111ELSt12codecvt_mode0EELb0EE7_M_headERS4_
	ldp	x29, x30, [sp], 32
	.cfi_restore 30
	.cfi_restore 29
	.cfi_def_cfa_offset 0
	ret
	.cfi_endproc
.LFE2771:
	.size	_ZNSt11_Tuple_implILm0EJPSt18codecvt_utf8_utf16IDsLm1114111ELSt12codecvt_mode0EESt14default_deleteIS2_EEE7_M_headERS6_, .-_ZNSt11_Tuple_implILm0EJPSt18codecvt_utf8_utf16IDsLm1114111ELSt12codecvt_mode0EESt14default_deleteIS2_EEE7_M_headERS6_
	.section	.text._ZSt12__get_helperILm1ESt14default_deleteISt18codecvt_utf8_utf16IDsLm1114111ELSt12codecvt_mode0EEEJEERT0_RSt11_Tuple_implIXT_EJS5_DpT1_EE,"axG",@progbits,_ZSt12__get_helperILm1ESt14default_deleteISt18codecvt_utf8_utf16IDsLm1114111ELSt12codecvt_mode0EEEJEERT0_RSt11_Tuple_implIXT_EJS5_DpT1_EE,comdat
	.align	2
	.weak	_ZSt12__get_helperILm1ESt14default_deleteISt18codecvt_utf8_utf16IDsLm1114111ELSt12codecvt_mode0EEEJEERT0_RSt11_Tuple_implIXT_EJS5_DpT1_EE
	.type	_ZSt12__get_helperILm1ESt14default_deleteISt18codecvt_utf8_utf16IDsLm1114111ELSt12codecvt_mode0EEEJEERT0_RSt11_Tuple_implIXT_EJS5_DpT1_EE, %function
_ZSt12__get_helperILm1ESt14default_deleteISt18codecvt_utf8_utf16IDsLm1114111ELSt12codecvt_mode0EEEJEERT0_RSt11_Tuple_implIXT_EJS5_DpT1_EE:
.LFB2772:
	.cfi_startproc
	stp	x29, x30, [sp, -32]!
	.cfi_def_cfa_offset 32
	.cfi_offset 29, -32
	.cfi_offset 30, -24
	mov	x29, sp
	str	x0, [sp, 24]
	ldr	x0, [sp, 24]
	bl	_ZNSt11_Tuple_implILm1EJSt14default_deleteISt18codecvt_utf8_utf16IDsLm1114111ELSt12codecvt_mode0EEEEE7_M_headERS5_
	ldp	x29, x30, [sp], 32
	.cfi_restore 30
	.cfi_restore 29
	.cfi_def_cfa_offset 0
	ret
	.cfi_endproc
.LFE2772:
	.size	_ZSt12__get_helperILm1ESt14default_deleteISt18codecvt_utf8_utf16IDsLm1114111ELSt12codecvt_mode0EEEJEERT0_RSt11_Tuple_implIXT_EJS5_DpT1_EE, .-_ZSt12__get_helperILm1ESt14default_deleteISt18codecvt_utf8_utf16IDsLm1114111ELSt12codecvt_mode0EEEJEERT0_RSt11_Tuple_implIXT_EJS5_DpT1_EE
	.section	.text._ZNKSt15__uniq_ptr_implISt18codecvt_utf8_utf16IDsLm1114111ELSt12codecvt_mode0EESt14default_deleteIS2_EE6_M_ptrEv,"axG",@progbits,_ZNKSt15__uniq_ptr_implISt18codecvt_utf8_utf16IDsLm1114111ELSt12codecvt_mode0EESt14default_deleteIS2_EE6_M_ptrEv,comdat
	.align	2
	.weak	_ZNKSt15__uniq_ptr_implISt18codecvt_utf8_utf16IDsLm1114111ELSt12codecvt_mode0EESt14default_deleteIS2_EE6_M_ptrEv
	.type	_ZNKSt15__uniq_ptr_implISt18codecvt_utf8_utf16IDsLm1114111ELSt12codecvt_mode0EESt14default_deleteIS2_EE6_M_ptrEv, %function
_ZNKSt15__uniq_ptr_implISt18codecvt_utf8_utf16IDsLm1114111ELSt12codecvt_mode0EESt14default_deleteIS2_EE6_M_ptrEv:
.LFB2773:
	.cfi_startproc
	stp	x29, x30, [sp, -32]!
	.cfi_def_cfa_offset 32
	.cfi_offset 29, -32
	.cfi_offset 30, -24
	mov	x29, sp
	str	x0, [sp, 24]
	ldr	x0, [sp, 24]
	bl	_ZSt3getILm0EJPSt18codecvt_utf8_utf16IDsLm1114111ELSt12codecvt_mode0EESt14default_deleteIS2_EEERKNSt13tuple_elementIXT_ESt5tupleIJDpT0_EEE4typeERKSA_
	ldr	x0, [x0]
	ldp	x29, x30, [sp], 32
	.cfi_restore 30
	.cfi_restore 29
	.cfi_def_cfa_offset 0
	ret
	.cfi_endproc
.LFE2773:
	.size	_ZNKSt15__uniq_ptr_implISt18codecvt_utf8_utf16IDsLm1114111ELSt12codecvt_mode0EESt14default_deleteIS2_EE6_M_ptrEv, .-_ZNKSt15__uniq_ptr_implISt18codecvt_utf8_utf16IDsLm1114111ELSt12codecvt_mode0EESt14default_deleteIS2_EE6_M_ptrEv
	.section	.text._ZNSt7__cxx1112basic_stringIDsSt11char_traitsIDsESaIDsEE5clearEv,"axG",@progbits,_ZNSt7__cxx1112basic_stringIDsSt11char_traitsIDsESaIDsEE5clearEv,comdat
	.align	2
	.weak	_ZNSt7__cxx1112basic_stringIDsSt11char_traitsIDsESaIDsEE5clearEv
	.type	_ZNSt7__cxx1112basic_stringIDsSt11char_traitsIDsESaIDsEE5clearEv, %function
_ZNSt7__cxx1112basic_stringIDsSt11char_traitsIDsESaIDsEE5clearEv:
.LFB2774:
	.cfi_startproc
	stp	x29, x30, [sp, -32]!
	.cfi_def_cfa_offset 32
	.cfi_offset 29, -32
	.cfi_offset 30, -24
	mov	x29, sp
	str	x0, [sp, 24]
	mov	x1, 0
	ldr	x0, [sp, 24]
	bl	_ZNSt7__cxx1112basic_stringIDsSt11char_traitsIDsESaIDsEE13_M_set_lengthEm
	nop
	ldp	x29, x30, [sp], 32
	.cfi_restore 30
	.cfi_restore 29
	.cfi_def_cfa_offset 0
	ret
	.cfi_endproc
.LFE2774:
	.size	_ZNSt7__cxx1112basic_stringIDsSt11char_traitsIDsESaIDsEE5clearEv, .-_ZNSt7__cxx1112basic_stringIDsSt11char_traitsIDsESaIDsEE5clearEv
	.section	.text._ZNKSt23__codecvt_abstract_baseIDsc11__mbstate_tE10max_lengthEv,"axG",@progbits,_ZNKSt23__codecvt_abstract_baseIDsc11__mbstate_tE10max_lengthEv,comdat
	.align	2
	.weak	_ZNKSt23__codecvt_abstract_baseIDsc11__mbstate_tE10max_lengthEv
	.type	_ZNKSt23__codecvt_abstract_baseIDsc11__mbstate_tE10max_lengthEv, %function
_ZNKSt23__codecvt_abstract_baseIDsc11__mbstate_tE10max_lengthEv:
.LFB2775:
	.cfi_startproc
	stp	x29, x30, [sp, -32]!
	.cfi_def_cfa_offset 32
	.cfi_offset 29, -32
	.cfi_offset 30, -24
	mov	x29, sp
	str	x0, [sp, 24]
	ldr	x0, [sp, 24]
	ldr	x0, [x0]
	add	x0, x0, 64
	ldr	x1, [x0]
	ldr	x0, [sp, 24]
	blr	x1
	ldp	x29, x30, [sp], 32
	.cfi_restore 30
	.cfi_restore 29
	.cfi_def_cfa_offset 0
	ret
	.cfi_endproc
.LFE2775:
	.size	_ZNKSt23__codecvt_abstract_baseIDsc11__mbstate_tE10max_lengthEv, .-_ZNKSt23__codecvt_abstract_baseIDsc11__mbstate_tE10max_lengthEv
	.section	.text._ZNSt7__cxx1112basic_stringIDsSt11char_traitsIDsESaIDsEE6resizeEm,"axG",@progbits,_ZNSt7__cxx1112basic_stringIDsSt11char_traitsIDsESaIDsEE6resizeEm,comdat
	.align	2
	.weak	_ZNSt7__cxx1112basic_stringIDsSt11char_traitsIDsESaIDsEE6resizeEm
	.type	_ZNSt7__cxx1112basic_stringIDsSt11char_traitsIDsESaIDsEE6resizeEm, %function
_ZNSt7__cxx1112basic_stringIDsSt11char_traitsIDsESaIDsEE6resizeEm:
.LFB2776:
	.cfi_startproc
	stp	x29, x30, [sp, -32]!
	.cfi_def_cfa_offset 32
	.cfi_offset 29, -32
	.cfi_offset 30, -24
	mov	x29, sp
	str	x0, [sp, 24]
	str	x1, [sp, 16]
	mov	w2, 0
	ldr	x1, [sp, 16]
	ldr	x0, [sp, 24]
	bl	_ZNSt7__cxx1112basic_stringIDsSt11char_traitsIDsESaIDsEE6resizeEmDs
	nop
	ldp	x29, x30, [sp], 32
	.cfi_restore 30
	.cfi_restore 29
	.cfi_def_cfa_offset 0
	ret
	.cfi_endproc
.LFE2776:
	.size	_ZNSt7__cxx1112basic_stringIDsSt11char_traitsIDsESaIDsEE6resizeEm, .-_ZNSt7__cxx1112basic_stringIDsSt11char_traitsIDsESaIDsEE6resizeEm
	.section	.text._ZNSt7__cxx1112basic_stringIDsSt11char_traitsIDsESaIDsEE5frontEv,"axG",@progbits,_ZNSt7__cxx1112basic_stringIDsSt11char_traitsIDsESaIDsEE5frontEv,comdat
	.align	2
	.weak	_ZNSt7__cxx1112basic_stringIDsSt11char_traitsIDsESaIDsEE5frontEv
	.type	_ZNSt7__cxx1112basic_stringIDsSt11char_traitsIDsESaIDsEE5frontEv, %function
_ZNSt7__cxx1112basic_stringIDsSt11char_traitsIDsESaIDsEE5frontEv:
.LFB2777:
	.cfi_startproc
	stp	x29, x30, [sp, -32]!
	.cfi_def_cfa_offset 32
	.cfi_offset 29, -32
	.cfi_offset 30, -24
	mov	x29, sp
	str	x0, [sp, 24]
	mov	w0, 0
	cmp	w0, 0
	mov	x1, 0
	ldr	x0, [sp, 24]
	bl	_ZNSt7__cxx1112basic_stringIDsSt11char_traitsIDsESaIDsEEixEm
	ldp	x29, x30, [sp], 32
	.cfi_restore 30
	.cfi_restore 29
	.cfi_def_cfa_offset 0
	ret
	.cfi_endproc
.LFE2777:
	.size	_ZNSt7__cxx1112basic_stringIDsSt11char_traitsIDsESaIDsEE5frontEv, .-_ZNSt7__cxx1112basic_stringIDsSt11char_traitsIDsESaIDsEE5frontEv
	.section	.text._ZNSt7__cxx1112basic_stringIDsSt11char_traitsIDsESaIDsEE4backEv,"axG",@progbits,_ZNSt7__cxx1112basic_stringIDsSt11char_traitsIDsESaIDsEE4backEv,comdat
	.align	2
	.weak	_ZNSt7__cxx1112basic_stringIDsSt11char_traitsIDsESaIDsEE4backEv
	.type	_ZNSt7__cxx1112basic_stringIDsSt11char_traitsIDsESaIDsEE4backEv, %function
_ZNSt7__cxx1112basic_stringIDsSt11char_traitsIDsESaIDsEE4backEv:
.LFB2778:
	.cfi_startproc
	stp	x29, x30, [sp, -32]!
	.cfi_def_cfa_offset 32
	.cfi_offset 29, -32
	.cfi_offset 30, -24
	mov	x29, sp
	str	x0, [sp, 24]
	mov	w0, 0
	cmp	w0, 0
	ldr	x0, [sp, 24]
	bl	_ZNKSt7__cxx1112basic_stringIDsSt11char_traitsIDsESaIDsEE4sizeEv
	sub	x0, x0, #1
	mov	x1, x0
	ldr	x0, [sp, 24]
	bl	_ZNSt7__cxx1112basic_stringIDsSt11char_traitsIDsESaIDsEEixEm
	ldp	x29, x30, [sp], 32
	.cfi_restore 30
	.cfi_restore 29
	.cfi_def_cfa_offset 0
	ret
	.cfi_endproc
.LFE2778:
	.size	_ZNSt7__cxx1112basic_stringIDsSt11char_traitsIDsESaIDsEE4backEv, .-_ZNSt7__cxx1112basic_stringIDsSt11char_traitsIDsESaIDsEE4backEv
	.section	.text._ZNSt16allocator_traitsISaIDsEE37select_on_container_copy_constructionERKS0_,"axG",@progbits,_ZNSt16allocator_traitsISaIDsEE37select_on_container_copy_constructionERKS0_,comdat
	.align	2
	.weak	_ZNSt16allocator_traitsISaIDsEE37select_on_container_copy_constructionERKS0_
	.type	_ZNSt16allocator_traitsISaIDsEE37select_on_container_copy_constructionERKS0_, %function
_ZNSt16allocator_traitsISaIDsEE37select_on_container_copy_constructionERKS0_:
.LFB2779:
	.cfi_startproc
	stp	x29, x30, [sp, -48]!
	.cfi_def_cfa_offset 48
	.cfi_offset 29, -48
	.cfi_offset 30, -40
	mov	x29, sp
	str	x19, [sp, 16]
	.cfi_offset 19, -32
	mov	x19, x8
	str	x0, [sp, 40]
	ldr	x1, [sp, 40]
	mov	x0, x19
	bl	_ZNSaIDsEC1ERKS_
	mov	x0, x19
	ldr	x19, [sp, 16]
	ldp	x29, x30, [sp], 48
	.cfi_restore 30
	.cfi_restore 29
	.cfi_restore 19
	.cfi_def_cfa_offset 0
	ret
	.cfi_endproc
.LFE2779:
	.size	_ZNSt16allocator_traitsISaIDsEE37select_on_container_copy_constructionERKS0_, .-_ZNSt16allocator_traitsISaIDsEE37select_on_container_copy_constructionERKS0_
	.section	.text._ZNSt7__cxx1112basic_stringIDsSt11char_traitsIDsESaIDsEE16_M_construct_auxIPDsEEvT_S7_St12__false_type,"axG",@progbits,_ZNSt7__cxx1112basic_stringIDsSt11char_traitsIDsESaIDsEE16_M_construct_auxIPDsEEvT_S7_St12__false_type,comdat
	.align	2
	.weak	_ZNSt7__cxx1112basic_stringIDsSt11char_traitsIDsESaIDsEE16_M_construct_auxIPDsEEvT_S7_St12__false_type
	.type	_ZNSt7__cxx1112basic_stringIDsSt11char_traitsIDsESaIDsEE16_M_construct_auxIPDsEEvT_S7_St12__false_type, %function
_ZNSt7__cxx1112basic_stringIDsSt11char_traitsIDsESaIDsEE16_M_construct_auxIPDsEEvT_S7_St12__false_type:
.LFB2780:
	.cfi_startproc
	stp	x29, x30, [sp, -64]!
	.cfi_def_cfa_offset 64
	.cfi_offset 29, -64
	.cfi_offset 30, -56
	mov	x29, sp
	str	x0, [sp, 40]
	str	x1, [sp, 32]
	str	x2, [sp, 24]
	strb	w3, [sp, 16]
	adrp	x0, :got:__stack_chk_guard
	ldr	x0, [x0, #:got_lo12:__stack_chk_guard]
	ldr	x1, [x0]
	str	x1, [sp, 56]
	mov	x1, 0
	mov	w3, w4
	ldr	x2, [sp, 24]
	ldr	x1, [sp, 32]
	ldr	x0, [sp, 40]
	bl	_ZNSt7__cxx1112basic_stringIDsSt11char_traitsIDsESaIDsEE12_M_constructIPDsEEvT_S7_St20forward_iterator_tag
	nop
	adrp	x0, :got:__stack_chk_guard
	ldr	x0, [x0, #:got_lo12:__stack_chk_guard]
	ldr	x2, [sp, 56]
	ldr	x1, [x0]
	subs	x2, x2, x1
	mov	x1, 0
	beq	.L323
	bl	__stack_chk_fail
.L323:
	ldp	x29, x30, [sp], 64
	.cfi_restore 30
	.cfi_restore 29
	.cfi_def_cfa_offset 0
	ret
	.cfi_endproc
.LFE2780:
	.size	_ZNSt7__cxx1112basic_stringIDsSt11char_traitsIDsESaIDsEE16_M_construct_auxIPDsEEvT_S7_St12__false_type, .-_ZNSt7__cxx1112basic_stringIDsSt11char_traitsIDsESaIDsEE16_M_construct_auxIPDsEEvT_S7_St12__false_type
	.section	.text._ZSt9addressofIKDsEPT_RS1_,"axG",@progbits,_ZSt9addressofIKDsEPT_RS1_,comdat
	.align	2
	.weak	_ZSt9addressofIKDsEPT_RS1_
	.type	_ZSt9addressofIKDsEPT_RS1_, %function
_ZSt9addressofIKDsEPT_RS1_:
.LFB2781:
	.cfi_startproc
	stp	x29, x30, [sp, -32]!
	.cfi_def_cfa_offset 32
	.cfi_offset 29, -32
	.cfi_offset 30, -24
	mov	x29, sp
	str	x0, [sp, 24]
	ldr	x0, [sp, 24]
	bl	_ZSt11__addressofIKDsEPT_RS1_
	ldp	x29, x30, [sp], 32
	.cfi_restore 30
	.cfi_restore 29
	.cfi_def_cfa_offset 0
	ret
	.cfi_endproc
.LFE2781:
	.size	_ZSt9addressofIKDsEPT_RS1_, .-_ZSt9addressofIKDsEPT_RS1_
	.section	.text._ZNSt11_Tuple_implILm0EJPSt18codecvt_utf8_utf16IwLm1114111ELSt12codecvt_mode0EESt14default_deleteIS2_EEEC2Ev,"axG",@progbits,_ZNSt11_Tuple_implILm0EJPSt18codecvt_utf8_utf16IwLm1114111ELSt12codecvt_mode0EESt14default_deleteIS2_EEEC5Ev,comdat
	.align	2
	.weak	_ZNSt11_Tuple_implILm0EJPSt18codecvt_utf8_utf16IwLm1114111ELSt12codecvt_mode0EESt14default_deleteIS2_EEEC2Ev
	.type	_ZNSt11_Tuple_implILm0EJPSt18codecvt_utf8_utf16IwLm1114111ELSt12codecvt_mode0EESt14default_deleteIS2_EEEC2Ev, %function
_ZNSt11_Tuple_implILm0EJPSt18codecvt_utf8_utf16IwLm1114111ELSt12codecvt_mode0EESt14default_deleteIS2_EEEC2Ev:
.LFB2787:
	.cfi_startproc
	stp	x29, x30, [sp, -32]!
	.cfi_def_cfa_offset 32
	.cfi_offset 29, -32
	.cfi_offset 30, -24
	mov	x29, sp
	str	x0, [sp, 24]
	ldr	x0, [sp, 24]
	bl	_ZNSt11_Tuple_implILm1EJSt14default_deleteISt18codecvt_utf8_utf16IwLm1114111ELSt12codecvt_mode0EEEEEC2Ev
	ldr	x0, [sp, 24]
	bl	_ZNSt10_Head_baseILm0EPSt18codecvt_utf8_utf16IwLm1114111ELSt12codecvt_mode0EELb0EEC2Ev
	nop
	ldp	x29, x30, [sp], 32
	.cfi_restore 30
	.cfi_restore 29
	.cfi_def_cfa_offset 0
	ret
	.cfi_endproc
.LFE2787:
	.size	_ZNSt11_Tuple_implILm0EJPSt18codecvt_utf8_utf16IwLm1114111ELSt12codecvt_mode0EESt14default_deleteIS2_EEEC2Ev, .-_ZNSt11_Tuple_implILm0EJPSt18codecvt_utf8_utf16IwLm1114111ELSt12codecvt_mode0EESt14default_deleteIS2_EEEC2Ev
	.weak	_ZNSt11_Tuple_implILm0EJPSt18codecvt_utf8_utf16IwLm1114111ELSt12codecvt_mode0EESt14default_deleteIS2_EEEC1Ev
	.set	_ZNSt11_Tuple_implILm0EJPSt18codecvt_utf8_utf16IwLm1114111ELSt12codecvt_mode0EESt14default_deleteIS2_EEEC1Ev,_ZNSt11_Tuple_implILm0EJPSt18codecvt_utf8_utf16IwLm1114111ELSt12codecvt_mode0EESt14default_deleteIS2_EEEC2Ev
	.section	.text._ZNSt11_Tuple_implILm0EJPSt18codecvt_utf8_utf16IwLm1114111ELSt12codecvt_mode0EESt14default_deleteIS2_EEE7_M_headERS6_,"axG",@progbits,_ZNSt11_Tuple_implILm0EJPSt18codecvt_utf8_utf16IwLm1114111ELSt12codecvt_mode0EESt14default_deleteIS2_EEE7_M_headERS6_,comdat
	.align	2
	.weak	_ZNSt11_Tuple_implILm0EJPSt18codecvt_utf8_utf16IwLm1114111ELSt12codecvt_mode0EESt14default_deleteIS2_EEE7_M_headERS6_
	.type	_ZNSt11_Tuple_implILm0EJPSt18codecvt_utf8_utf16IwLm1114111ELSt12codecvt_mode0EESt14default_deleteIS2_EEE7_M_headERS6_, %function
_ZNSt11_Tuple_implILm0EJPSt18codecvt_utf8_utf16IwLm1114111ELSt12codecvt_mode0EESt14default_deleteIS2_EEE7_M_headERS6_:
.LFB2789:
	.cfi_startproc
	stp	x29, x30, [sp, -32]!
	.cfi_def_cfa_offset 32
	.cfi_offset 29, -32
	.cfi_offset 30, -24
	mov	x29, sp
	str	x0, [sp, 24]
	ldr	x0, [sp, 24]
	bl	_ZNSt10_Head_baseILm0EPSt18codecvt_utf8_utf16IwLm1114111ELSt12codecvt_mode0EELb0EE7_M_headERS4_
	ldp	x29, x30, [sp], 32
	.cfi_restore 30
	.cfi_restore 29
	.cfi_def_cfa_offset 0
	ret
	.cfi_endproc
.LFE2789:
	.size	_ZNSt11_Tuple_implILm0EJPSt18codecvt_utf8_utf16IwLm1114111ELSt12codecvt_mode0EESt14default_deleteIS2_EEE7_M_headERS6_, .-_ZNSt11_Tuple_implILm0EJPSt18codecvt_utf8_utf16IwLm1114111ELSt12codecvt_mode0EESt14default_deleteIS2_EEE7_M_headERS6_
	.section	.text._ZSt12__get_helperILm1ESt14default_deleteISt18codecvt_utf8_utf16IwLm1114111ELSt12codecvt_mode0EEEJEERT0_RSt11_Tuple_implIXT_EJS5_DpT1_EE,"axG",@progbits,_ZSt12__get_helperILm1ESt14default_deleteISt18codecvt_utf8_utf16IwLm1114111ELSt12codecvt_mode0EEEJEERT0_RSt11_Tuple_implIXT_EJS5_DpT1_EE,comdat
	.align	2
	.weak	_ZSt12__get_helperILm1ESt14default_deleteISt18codecvt_utf8_utf16IwLm1114111ELSt12codecvt_mode0EEEJEERT0_RSt11_Tuple_implIXT_EJS5_DpT1_EE
	.type	_ZSt12__get_helperILm1ESt14default_deleteISt18codecvt_utf8_utf16IwLm1114111ELSt12codecvt_mode0EEEJEERT0_RSt11_Tuple_implIXT_EJS5_DpT1_EE, %function
_ZSt12__get_helperILm1ESt14default_deleteISt18codecvt_utf8_utf16IwLm1114111ELSt12codecvt_mode0EEEJEERT0_RSt11_Tuple_implIXT_EJS5_DpT1_EE:
.LFB2790:
	.cfi_startproc
	stp	x29, x30, [sp, -32]!
	.cfi_def_cfa_offset 32
	.cfi_offset 29, -32
	.cfi_offset 30, -24
	mov	x29, sp
	str	x0, [sp, 24]
	ldr	x0, [sp, 24]
	bl	_ZNSt11_Tuple_implILm1EJSt14default_deleteISt18codecvt_utf8_utf16IwLm1114111ELSt12codecvt_mode0EEEEE7_M_headERS5_
	ldp	x29, x30, [sp], 32
	.cfi_restore 30
	.cfi_restore 29
	.cfi_def_cfa_offset 0
	ret
	.cfi_endproc
.LFE2790:
	.size	_ZSt12__get_helperILm1ESt14default_deleteISt18codecvt_utf8_utf16IwLm1114111ELSt12codecvt_mode0EEEJEERT0_RSt11_Tuple_implIXT_EJS5_DpT1_EE, .-_ZSt12__get_helperILm1ESt14default_deleteISt18codecvt_utf8_utf16IwLm1114111ELSt12codecvt_mode0EEEJEERT0_RSt11_Tuple_implIXT_EJS5_DpT1_EE
	.section	.text._ZNKSt15__uniq_ptr_implISt18codecvt_utf8_utf16IwLm1114111ELSt12codecvt_mode0EESt14default_deleteIS2_EE6_M_ptrEv,"axG",@progbits,_ZNKSt15__uniq_ptr_implISt18codecvt_utf8_utf16IwLm1114111ELSt12codecvt_mode0EESt14default_deleteIS2_EE6_M_ptrEv,comdat
	.align	2
	.weak	_ZNKSt15__uniq_ptr_implISt18codecvt_utf8_utf16IwLm1114111ELSt12codecvt_mode0EESt14default_deleteIS2_EE6_M_ptrEv
	.type	_ZNKSt15__uniq_ptr_implISt18codecvt_utf8_utf16IwLm1114111ELSt12codecvt_mode0EESt14default_deleteIS2_EE6_M_ptrEv, %function
_ZNKSt15__uniq_ptr_implISt18codecvt_utf8_utf16IwLm1114111ELSt12codecvt_mode0EESt14default_deleteIS2_EE6_M_ptrEv:
.LFB2791:
	.cfi_startproc
	stp	x29, x30, [sp, -32]!
	.cfi_def_cfa_offset 32
	.cfi_offset 29, -32
	.cfi_offset 30, -24
	mov	x29, sp
	str	x0, [sp, 24]
	ldr	x0, [sp, 24]
	bl	_ZSt3getILm0EJPSt18codecvt_utf8_utf16IwLm1114111ELSt12codecvt_mode0EESt14default_deleteIS2_EEERKNSt13tuple_elementIXT_ESt5tupleIJDpT0_EEE4typeERKSA_
	ldr	x0, [x0]
	ldp	x29, x30, [sp], 32
	.cfi_restore 30
	.cfi_restore 29
	.cfi_def_cfa_offset 0
	ret
	.cfi_endproc
.LFE2791:
	.size	_ZNKSt15__uniq_ptr_implISt18codecvt_utf8_utf16IwLm1114111ELSt12codecvt_mode0EESt14default_deleteIS2_EE6_M_ptrEv, .-_ZNKSt15__uniq_ptr_implISt18codecvt_utf8_utf16IwLm1114111ELSt12codecvt_mode0EESt14default_deleteIS2_EE6_M_ptrEv
	.section	.text._ZNKSt23__codecvt_abstract_baseIwc11__mbstate_tE10max_lengthEv,"axG",@progbits,_ZNKSt23__codecvt_abstract_baseIwc11__mbstate_tE10max_lengthEv,comdat
	.align	2
	.weak	_ZNKSt23__codecvt_abstract_baseIwc11__mbstate_tE10max_lengthEv
	.type	_ZNKSt23__codecvt_abstract_baseIwc11__mbstate_tE10max_lengthEv, %function
_ZNKSt23__codecvt_abstract_baseIwc11__mbstate_tE10max_lengthEv:
.LFB2793:
	.cfi_startproc
	stp	x29, x30, [sp, -32]!
	.cfi_def_cfa_offset 32
	.cfi_offset 29, -32
	.cfi_offset 30, -24
	mov	x29, sp
	str	x0, [sp, 24]
	ldr	x0, [sp, 24]
	ldr	x0, [x0]
	add	x0, x0, 64
	ldr	x1, [x0]
	ldr	x0, [sp, 24]
	blr	x1
	ldp	x29, x30, [sp], 32
	.cfi_restore 30
	.cfi_restore 29
	.cfi_def_cfa_offset 0
	ret
	.cfi_endproc
.LFE2793:
	.size	_ZNKSt23__codecvt_abstract_baseIwc11__mbstate_tE10max_lengthEv, .-_ZNKSt23__codecvt_abstract_baseIwc11__mbstate_tE10max_lengthEv
	.section	.text._ZNKSt7__cxx1112basic_stringIDsSt11char_traitsIDsESaIDsEE8max_sizeEv,"axG",@progbits,_ZNKSt7__cxx1112basic_stringIDsSt11char_traitsIDsESaIDsEE8max_sizeEv,comdat
	.align	2
	.weak	_ZNKSt7__cxx1112basic_stringIDsSt11char_traitsIDsESaIDsEE8max_sizeEv
	.type	_ZNKSt7__cxx1112basic_stringIDsSt11char_traitsIDsESaIDsEE8max_sizeEv, %function
_ZNKSt7__cxx1112basic_stringIDsSt11char_traitsIDsESaIDsEE8max_sizeEv:
.LFB2810:
	.cfi_startproc
	stp	x29, x30, [sp, -32]!
	.cfi_def_cfa_offset 32
	.cfi_offset 29, -32
	.cfi_offset 30, -24
	mov	x29, sp
	str	x0, [sp, 24]
	ldr	x0, [sp, 24]
	bl	_ZNKSt7__cxx1112basic_stringIDsSt11char_traitsIDsESaIDsEE16_M_get_allocatorEv
	bl	_ZNSt16allocator_traitsISaIDsEE8max_sizeERKS0_
	sub	x0, x0, #1
	lsr	x0, x0, 1
	ldp	x29, x30, [sp], 32
	.cfi_restore 30
	.cfi_restore 29
	.cfi_def_cfa_offset 0
	ret
	.cfi_endproc
.LFE2810:
	.size	_ZNKSt7__cxx1112basic_stringIDsSt11char_traitsIDsESaIDsEE8max_sizeEv, .-_ZNKSt7__cxx1112basic_stringIDsSt11char_traitsIDsESaIDsEE8max_sizeEv
	.section	.text._ZNSt16allocator_traitsISaIDsEE8allocateERS0_m,"axG",@progbits,_ZNSt16allocator_traitsISaIDsEE8allocateERS0_m,comdat
	.align	2
	.weak	_ZNSt16allocator_traitsISaIDsEE8allocateERS0_m
	.type	_ZNSt16allocator_traitsISaIDsEE8allocateERS0_m, %function
_ZNSt16allocator_traitsISaIDsEE8allocateERS0_m:
.LFB2811:
	.cfi_startproc
	stp	x29, x30, [sp, -32]!
	.cfi_def_cfa_offset 32
	.cfi_offset 29, -32
	.cfi_offset 30, -24
	mov	x29, sp
	str	x0, [sp, 24]
	str	x1, [sp, 16]
	mov	x2, 0
	ldr	x1, [sp, 16]
	ldr	x0, [sp, 24]
	bl	_ZN9__gnu_cxx13new_allocatorIDsE8allocateEmPKv
	ldp	x29, x30, [sp], 32
	.cfi_restore 30
	.cfi_restore 29
	.cfi_def_cfa_offset 0
	ret
	.cfi_endproc
.LFE2811:
	.size	_ZNSt16allocator_traitsISaIDsEE8allocateERS0_m, .-_ZNSt16allocator_traitsISaIDsEE8allocateERS0_m
	.section	.text._ZNSt7__cxx1112basic_stringIDsSt11char_traitsIDsESaIDsEE7_S_copyEPDsPKDsm,"axG",@progbits,_ZNSt7__cxx1112basic_stringIDsSt11char_traitsIDsESaIDsEE7_S_copyEPDsPKDsm,comdat
	.align	2
	.weak	_ZNSt7__cxx1112basic_stringIDsSt11char_traitsIDsESaIDsEE7_S_copyEPDsPKDsm
	.type	_ZNSt7__cxx1112basic_stringIDsSt11char_traitsIDsESaIDsEE7_S_copyEPDsPKDsm, %function
_ZNSt7__cxx1112basic_stringIDsSt11char_traitsIDsESaIDsEE7_S_copyEPDsPKDsm:
.LFB2812:
	.cfi_startproc
	stp	x29, x30, [sp, -48]!
	.cfi_def_cfa_offset 48
	.cfi_offset 29, -48
	.cfi_offset 30, -40
	mov	x29, sp
	str	x0, [sp, 40]
	str	x1, [sp, 32]
	str	x2, [sp, 24]
	ldr	x0, [sp, 24]
	cmp	x0, 1
	bne	.L340
	ldr	x1, [sp, 32]
	ldr	x0, [sp, 40]
	bl	_ZNSt11char_traitsIDsE6assignERDsRKDs
	b	.L342
.L340:
	ldr	x2, [sp, 24]
	ldr	x1, [sp, 32]
	ldr	x0, [sp, 40]
	bl	_ZNSt11char_traitsIDsE4copyEPDsPKDsm
.L342:
	nop
	ldp	x29, x30, [sp], 48
	.cfi_restore 30
	.cfi_restore 29
	.cfi_def_cfa_offset 0
	ret
	.cfi_endproc
.LFE2812:
	.size	_ZNSt7__cxx1112basic_stringIDsSt11char_traitsIDsESaIDsEE7_S_copyEPDsPKDsm, .-_ZNSt7__cxx1112basic_stringIDsSt11char_traitsIDsESaIDsEE7_S_copyEPDsPKDsm
	.section	.text._ZNSt11_Tuple_implILm1EJSt14default_deleteISt18codecvt_utf8_utf16IDsLm1114111ELSt12codecvt_mode0EEEEEC2Ev,"axG",@progbits,_ZNSt11_Tuple_implILm1EJSt14default_deleteISt18codecvt_utf8_utf16IDsLm1114111ELSt12codecvt_mode0EEEEEC5Ev,comdat
	.align	2
	.weak	_ZNSt11_Tuple_implILm1EJSt14default_deleteISt18codecvt_utf8_utf16IDsLm1114111ELSt12codecvt_mode0EEEEEC2Ev
	.type	_ZNSt11_Tuple_implILm1EJSt14default_deleteISt18codecvt_utf8_utf16IDsLm1114111ELSt12codecvt_mode0EEEEEC2Ev, %function
_ZNSt11_Tuple_implILm1EJSt14default_deleteISt18codecvt_utf8_utf16IDsLm1114111ELSt12codecvt_mode0EEEEEC2Ev:
.LFB2820:
	.cfi_startproc
	stp	x29, x30, [sp, -32]!
	.cfi_def_cfa_offset 32
	.cfi_offset 29, -32
	.cfi_offset 30, -24
	mov	x29, sp
	str	x0, [sp, 24]
	ldr	x0, [sp, 24]
	bl	_ZNSt10_Head_baseILm1ESt14default_deleteISt18codecvt_utf8_utf16IDsLm1114111ELSt12codecvt_mode0EEELb1EEC2Ev
	nop
	ldp	x29, x30, [sp], 32
	.cfi_restore 30
	.cfi_restore 29
	.cfi_def_cfa_offset 0
	ret
	.cfi_endproc
.LFE2820:
	.size	_ZNSt11_Tuple_implILm1EJSt14default_deleteISt18codecvt_utf8_utf16IDsLm1114111ELSt12codecvt_mode0EEEEEC2Ev, .-_ZNSt11_Tuple_implILm1EJSt14default_deleteISt18codecvt_utf8_utf16IDsLm1114111ELSt12codecvt_mode0EEEEEC2Ev
	.weak	_ZNSt11_Tuple_implILm1EJSt14default_deleteISt18codecvt_utf8_utf16IDsLm1114111ELSt12codecvt_mode0EEEEEC1Ev
	.set	_ZNSt11_Tuple_implILm1EJSt14default_deleteISt18codecvt_utf8_utf16IDsLm1114111ELSt12codecvt_mode0EEEEEC1Ev,_ZNSt11_Tuple_implILm1EJSt14default_deleteISt18codecvt_utf8_utf16IDsLm1114111ELSt12codecvt_mode0EEEEEC2Ev
	.section	.text._ZNSt10_Head_baseILm0EPSt18codecvt_utf8_utf16IDsLm1114111ELSt12codecvt_mode0EELb0EEC2Ev,"axG",@progbits,_ZNSt10_Head_baseILm0EPSt18codecvt_utf8_utf16IDsLm1114111ELSt12codecvt_mode0EELb0EEC5Ev,comdat
	.align	2
	.weak	_ZNSt10_Head_baseILm0EPSt18codecvt_utf8_utf16IDsLm1114111ELSt12codecvt_mode0EELb0EEC2Ev
	.type	_ZNSt10_Head_baseILm0EPSt18codecvt_utf8_utf16IDsLm1114111ELSt12codecvt_mode0EELb0EEC2Ev, %function
_ZNSt10_Head_baseILm0EPSt18codecvt_utf8_utf16IDsLm1114111ELSt12codecvt_mode0EELb0EEC2Ev:
.LFB2823:
	.cfi_startproc
	sub	sp, sp, #16
	.cfi_def_cfa_offset 16
	str	x0, [sp, 8]
	ldr	x0, [sp, 8]
	str	xzr, [x0]
	nop
	add	sp, sp, 16
	.cfi_def_cfa_offset 0
	ret
	.cfi_endproc
.LFE2823:
	.size	_ZNSt10_Head_baseILm0EPSt18codecvt_utf8_utf16IDsLm1114111ELSt12codecvt_mode0EELb0EEC2Ev, .-_ZNSt10_Head_baseILm0EPSt18codecvt_utf8_utf16IDsLm1114111ELSt12codecvt_mode0EELb0EEC2Ev
	.weak	_ZNSt10_Head_baseILm0EPSt18codecvt_utf8_utf16IDsLm1114111ELSt12codecvt_mode0EELb0EEC1Ev
	.set	_ZNSt10_Head_baseILm0EPSt18codecvt_utf8_utf16IDsLm1114111ELSt12codecvt_mode0EELb0EEC1Ev,_ZNSt10_Head_baseILm0EPSt18codecvt_utf8_utf16IDsLm1114111ELSt12codecvt_mode0EELb0EEC2Ev
	.section	.text._ZNSt10_Head_baseILm0EPSt18codecvt_utf8_utf16IDsLm1114111ELSt12codecvt_mode0EELb0EE7_M_headERS4_,"axG",@progbits,_ZNSt10_Head_baseILm0EPSt18codecvt_utf8_utf16IDsLm1114111ELSt12codecvt_mode0EELb0EE7_M_headERS4_,comdat
	.align	2
	.weak	_ZNSt10_Head_baseILm0EPSt18codecvt_utf8_utf16IDsLm1114111ELSt12codecvt_mode0EELb0EE7_M_headERS4_
	.type	_ZNSt10_Head_baseILm0EPSt18codecvt_utf8_utf16IDsLm1114111ELSt12codecvt_mode0EELb0EE7_M_headERS4_, %function
_ZNSt10_Head_baseILm0EPSt18codecvt_utf8_utf16IDsLm1114111ELSt12codecvt_mode0EELb0EE7_M_headERS4_:
.LFB2825:
	.cfi_startproc
	sub	sp, sp, #16
	.cfi_def_cfa_offset 16
	str	x0, [sp, 8]
	ldr	x0, [sp, 8]
	add	sp, sp, 16
	.cfi_def_cfa_offset 0
	ret
	.cfi_endproc
.LFE2825:
	.size	_ZNSt10_Head_baseILm0EPSt18codecvt_utf8_utf16IDsLm1114111ELSt12codecvt_mode0EELb0EE7_M_headERS4_, .-_ZNSt10_Head_baseILm0EPSt18codecvt_utf8_utf16IDsLm1114111ELSt12codecvt_mode0EELb0EE7_M_headERS4_
	.section	.text._ZNSt11_Tuple_implILm1EJSt14default_deleteISt18codecvt_utf8_utf16IDsLm1114111ELSt12codecvt_mode0EEEEE7_M_headERS5_,"axG",@progbits,_ZNSt11_Tuple_implILm1EJSt14default_deleteISt18codecvt_utf8_utf16IDsLm1114111ELSt12codecvt_mode0EEEEE7_M_headERS5_,comdat
	.align	2
	.weak	_ZNSt11_Tuple_implILm1EJSt14default_deleteISt18codecvt_utf8_utf16IDsLm1114111ELSt12codecvt_mode0EEEEE7_M_headERS5_
	.type	_ZNSt11_Tuple_implILm1EJSt14default_deleteISt18codecvt_utf8_utf16IDsLm1114111ELSt12codecvt_mode0EEEEE7_M_headERS5_, %function
_ZNSt11_Tuple_implILm1EJSt14default_deleteISt18codecvt_utf8_utf16IDsLm1114111ELSt12codecvt_mode0EEEEE7_M_headERS5_:
.LFB2826:
	.cfi_startproc
	stp	x29, x30, [sp, -32]!
	.cfi_def_cfa_offset 32
	.cfi_offset 29, -32
	.cfi_offset 30, -24
	mov	x29, sp
	str	x0, [sp, 24]
	ldr	x0, [sp, 24]
	bl	_ZNSt10_Head_baseILm1ESt14default_deleteISt18codecvt_utf8_utf16IDsLm1114111ELSt12codecvt_mode0EEELb1EE7_M_headERS5_
	ldp	x29, x30, [sp], 32
	.cfi_restore 30
	.cfi_restore 29
	.cfi_def_cfa_offset 0
	ret
	.cfi_endproc
.LFE2826:
	.size	_ZNSt11_Tuple_implILm1EJSt14default_deleteISt18codecvt_utf8_utf16IDsLm1114111ELSt12codecvt_mode0EEEEE7_M_headERS5_, .-_ZNSt11_Tuple_implILm1EJSt14default_deleteISt18codecvt_utf8_utf16IDsLm1114111ELSt12codecvt_mode0EEEEE7_M_headERS5_
	.section	.text._ZSt3getILm0EJPSt18codecvt_utf8_utf16IDsLm1114111ELSt12codecvt_mode0EESt14default_deleteIS2_EEERKNSt13tuple_elementIXT_ESt5tupleIJDpT0_EEE4typeERKSA_,"axG",@progbits,_ZSt3getILm0EJPSt18codecvt_utf8_utf16IDsLm1114111ELSt12codecvt_mode0EESt14default_deleteIS2_EEERKNSt13tuple_elementIXT_ESt5tupleIJDpT0_EEE4typeERKSA_,comdat
	.align	2
	.weak	_ZSt3getILm0EJPSt18codecvt_utf8_utf16IDsLm1114111ELSt12codecvt_mode0EESt14default_deleteIS2_EEERKNSt13tuple_elementIXT_ESt5tupleIJDpT0_EEE4typeERKSA_
	.type	_ZSt3getILm0EJPSt18codecvt_utf8_utf16IDsLm1114111ELSt12codecvt_mode0EESt14default_deleteIS2_EEERKNSt13tuple_elementIXT_ESt5tupleIJDpT0_EEE4typeERKSA_, %function
_ZSt3getILm0EJPSt18codecvt_utf8_utf16IDsLm1114111ELSt12codecvt_mode0EESt14default_deleteIS2_EEERKNSt13tuple_elementIXT_ESt5tupleIJDpT0_EEE4typeERKSA_:
.LFB2827:
	.cfi_startproc
	stp	x29, x30, [sp, -32]!
	.cfi_def_cfa_offset 32
	.cfi_offset 29, -32
	.cfi_offset 30, -24
	mov	x29, sp
	str	x0, [sp, 24]
	ldr	x0, [sp, 24]
	bl	_ZSt12__get_helperILm0EPSt18codecvt_utf8_utf16IDsLm1114111ELSt12codecvt_mode0EEJSt14default_deleteIS2_EEERKT0_RKSt11_Tuple_implIXT_EJS6_DpT1_EE
	ldp	x29, x30, [sp], 32
	.cfi_restore 30
	.cfi_restore 29
	.cfi_def_cfa_offset 0
	ret
	.cfi_endproc
.LFE2827:
	.size	_ZSt3getILm0EJPSt18codecvt_utf8_utf16IDsLm1114111ELSt12codecvt_mode0EESt14default_deleteIS2_EEERKNSt13tuple_elementIXT_ESt5tupleIJDpT0_EEE4typeERKSA_, .-_ZSt3getILm0EJPSt18codecvt_utf8_utf16IDsLm1114111ELSt12codecvt_mode0EESt14default_deleteIS2_EEERKNSt13tuple_elementIXT_ESt5tupleIJDpT0_EEE4typeERKSA_
	.section	.text._ZNSt7__cxx1112basic_stringIDsSt11char_traitsIDsESaIDsEE6resizeEmDs,"axG",@progbits,_ZNSt7__cxx1112basic_stringIDsSt11char_traitsIDsESaIDsEE6resizeEmDs,comdat
	.align	2
	.weak	_ZNSt7__cxx1112basic_stringIDsSt11char_traitsIDsESaIDsEE6resizeEmDs
	.type	_ZNSt7__cxx1112basic_stringIDsSt11char_traitsIDsESaIDsEE6resizeEmDs, %function
_ZNSt7__cxx1112basic_stringIDsSt11char_traitsIDsESaIDsEE6resizeEmDs:
.LFB2828:
	.cfi_startproc
	stp	x29, x30, [sp, -64]!
	.cfi_def_cfa_offset 64
	.cfi_offset 29, -64
	.cfi_offset 30, -56
	mov	x29, sp
	str	x0, [sp, 40]
	str	x1, [sp, 32]
	strh	w2, [sp, 30]
	ldr	x0, [sp, 40]
	bl	_ZNKSt7__cxx1112basic_stringIDsSt11char_traitsIDsESaIDsEE4sizeEv
	str	x0, [sp, 56]
	ldr	x1, [sp, 56]
	ldr	x0, [sp, 32]
	cmp	x1, x0
	bcs	.L352
	ldr	x1, [sp, 32]
	ldr	x0, [sp, 56]
	sub	x0, x1, x0
	ldrh	w2, [sp, 30]
	mov	x1, x0
	ldr	x0, [sp, 40]
	bl	_ZNSt7__cxx1112basic_stringIDsSt11char_traitsIDsESaIDsEE6appendEmDs
	b	.L354
.L352:
	ldr	x1, [sp, 32]
	ldr	x0, [sp, 56]
	cmp	x1, x0
	bcs	.L354
	ldr	x1, [sp, 32]
	ldr	x0, [sp, 40]
	bl	_ZNSt7__cxx1112basic_stringIDsSt11char_traitsIDsESaIDsEE13_M_set_lengthEm
.L354:
	nop
	ldp	x29, x30, [sp], 64
	.cfi_restore 30
	.cfi_restore 29
	.cfi_def_cfa_offset 0
	ret
	.cfi_endproc
.LFE2828:
	.size	_ZNSt7__cxx1112basic_stringIDsSt11char_traitsIDsESaIDsEE6resizeEmDs, .-_ZNSt7__cxx1112basic_stringIDsSt11char_traitsIDsESaIDsEE6resizeEmDs
	.section	.text._ZNSt7__cxx1112basic_stringIDsSt11char_traitsIDsESaIDsEEixEm,"axG",@progbits,_ZNSt7__cxx1112basic_stringIDsSt11char_traitsIDsESaIDsEEixEm,comdat
	.align	2
	.weak	_ZNSt7__cxx1112basic_stringIDsSt11char_traitsIDsESaIDsEEixEm
	.type	_ZNSt7__cxx1112basic_stringIDsSt11char_traitsIDsESaIDsEEixEm, %function
_ZNSt7__cxx1112basic_stringIDsSt11char_traitsIDsESaIDsEEixEm:
.LFB2830:
	.cfi_startproc
	stp	x29, x30, [sp, -32]!
	.cfi_def_cfa_offset 32
	.cfi_offset 29, -32
	.cfi_offset 30, -24
	mov	x29, sp
	str	x0, [sp, 24]
	str	x1, [sp, 16]
	mov	w0, 0
	cmp	w0, 0
	ldr	x0, [sp, 24]
	bl	_ZNKSt7__cxx1112basic_stringIDsSt11char_traitsIDsESaIDsEE7_M_dataEv
	mov	x1, x0
	ldr	x0, [sp, 16]
	lsl	x0, x0, 1
	add	x0, x1, x0
	ldp	x29, x30, [sp], 32
	.cfi_restore 30
	.cfi_restore 29
	.cfi_def_cfa_offset 0
	ret
	.cfi_endproc
.LFE2830:
	.size	_ZNSt7__cxx1112basic_stringIDsSt11char_traitsIDsESaIDsEEixEm, .-_ZNSt7__cxx1112basic_stringIDsSt11char_traitsIDsESaIDsEEixEm
	.section	.text._ZSt8distanceIPDsENSt15iterator_traitsIT_E15difference_typeES2_S2_,"axG",@progbits,_ZSt8distanceIPDsENSt15iterator_traitsIT_E15difference_typeES2_S2_,comdat
	.align	2
	.weak	_ZSt8distanceIPDsENSt15iterator_traitsIT_E15difference_typeES2_S2_
	.type	_ZSt8distanceIPDsENSt15iterator_traitsIT_E15difference_typeES2_S2_, %function
_ZSt8distanceIPDsENSt15iterator_traitsIT_E15difference_typeES2_S2_:
.LFB2832:
	.cfi_startproc
	stp	x29, x30, [sp, -48]!
	.cfi_def_cfa_offset 48
	.cfi_offset 29, -48
	.cfi_offset 30, -40
	mov	x29, sp
	stp	x19, x20, [sp, 16]
	.cfi_offset 19, -32
	.cfi_offset 20, -24
	str	x0, [sp, 40]
	str	x1, [sp, 32]
	ldr	x19, [sp, 40]
	add	x0, sp, 40
	bl	_ZSt19__iterator_categoryIPDsENSt15iterator_traitsIT_E17iterator_categoryERKS2_
	mov	w2, w20
	ldr	x1, [sp, 32]
	mov	x0, x19
	bl	_ZSt10__distanceIPDsENSt15iterator_traitsIT_E15difference_typeES2_S2_St26random_access_iterator_tag
	ldp	x19, x20, [sp, 16]
	ldp	x29, x30, [sp], 48
	.cfi_restore 30
	.cfi_restore 29
	.cfi_restore 19
	.cfi_restore 20
	.cfi_def_cfa_offset 0
	ret
	.cfi_endproc
.LFE2832:
	.size	_ZSt8distanceIPDsENSt15iterator_traitsIT_E15difference_typeES2_S2_, .-_ZSt8distanceIPDsENSt15iterator_traitsIT_E15difference_typeES2_S2_
	.section	.rodata
	.align	3
.LC3:
	.string	"basic_string::_M_construct null not valid"
	.section	.text._ZNSt7__cxx1112basic_stringIDsSt11char_traitsIDsESaIDsEE12_M_constructIPDsEEvT_S7_St20forward_iterator_tag,"axG",@progbits,_ZNSt7__cxx1112basic_stringIDsSt11char_traitsIDsESaIDsEE12_M_constructIPDsEEvT_S7_St20forward_iterator_tag,comdat
	.align	2
	.weak	_ZNSt7__cxx1112basic_stringIDsSt11char_traitsIDsESaIDsEE12_M_constructIPDsEEvT_S7_St20forward_iterator_tag
	.type	_ZNSt7__cxx1112basic_stringIDsSt11char_traitsIDsESaIDsEE12_M_constructIPDsEEvT_S7_St20forward_iterator_tag, %function
_ZNSt7__cxx1112basic_stringIDsSt11char_traitsIDsESaIDsEE12_M_constructIPDsEEvT_S7_St20forward_iterator_tag:
.LFB2831:
	.cfi_startproc
	stp	x29, x30, [sp, -64]!
	.cfi_def_cfa_offset 64
	.cfi_offset 29, -64
	.cfi_offset 30, -56
	mov	x29, sp
	str	x0, [sp, 40]
	str	x1, [sp, 32]
	str	x2, [sp, 24]
	strb	w3, [sp, 16]
	adrp	x0, :got:__stack_chk_guard
	ldr	x0, [x0, #:got_lo12:__stack_chk_guard]
	ldr	x1, [x0]
	str	x1, [sp, 56]
	mov	x1, 0
	ldr	x0, [sp, 32]
	bl	_ZN9__gnu_cxx17__is_null_pointerIDsEEbPT_
	and	w0, w0, 255
	cmp	w0, 0
	beq	.L361
	ldr	x1, [sp, 32]
	ldr	x0, [sp, 24]
	cmp	x1, x0
	beq	.L361
	mov	w0, 1
	b	.L362
.L361:
	mov	w0, 0
.L362:
	cmp	w0, 0
	beq	.L363
	adrp	x0, .LC3
	add	x0, x0, :lo12:.LC3
	bl	_ZSt19__throw_logic_errorPKc
.L363:
	ldr	x1, [sp, 24]
	ldr	x0, [sp, 32]
	bl	_ZSt8distanceIPDsENSt15iterator_traitsIT_E15difference_typeES2_S2_
	str	x0, [sp, 48]
	ldr	x0, [sp, 48]
	cmp	x0, 7
	bls	.L364
	add	x0, sp, 48
	mov	x2, 0
	mov	x1, x0
	ldr	x0, [sp, 40]
	bl	_ZNSt7__cxx1112basic_stringIDsSt11char_traitsIDsESaIDsEE9_M_createERmm
	mov	x1, x0
	ldr	x0, [sp, 40]
	bl	_ZNSt7__cxx1112basic_stringIDsSt11char_traitsIDsESaIDsEE7_M_dataEPDs
	ldr	x0, [sp, 48]
	mov	x1, x0
	ldr	x0, [sp, 40]
	bl	_ZNSt7__cxx1112basic_stringIDsSt11char_traitsIDsESaIDsEE11_M_capacityEm
.L364:
	ldr	x0, [sp, 40]
	bl	_ZNKSt7__cxx1112basic_stringIDsSt11char_traitsIDsESaIDsEE7_M_dataEv
	ldr	x2, [sp, 24]
	ldr	x1, [sp, 32]
	bl	_ZNSt7__cxx1112basic_stringIDsSt11char_traitsIDsESaIDsEE13_S_copy_charsEPDsS5_S5_
	ldr	x0, [sp, 48]
	mov	x1, x0
	ldr	x0, [sp, 40]
	bl	_ZNSt7__cxx1112basic_stringIDsSt11char_traitsIDsESaIDsEE13_M_set_lengthEm
	nop
	adrp	x0, :got:__stack_chk_guard
	ldr	x0, [x0, #:got_lo12:__stack_chk_guard]
	ldr	x2, [sp, 56]
	ldr	x1, [x0]
	subs	x2, x2, x1
	mov	x1, 0
	beq	.L365
	bl	__stack_chk_fail
.L365:
	ldp	x29, x30, [sp], 64
	.cfi_restore 30
	.cfi_restore 29
	.cfi_def_cfa_offset 0
	ret
	.cfi_endproc
.LFE2831:
	.size	_ZNSt7__cxx1112basic_stringIDsSt11char_traitsIDsESaIDsEE12_M_constructIPDsEEvT_S7_St20forward_iterator_tag, .-_ZNSt7__cxx1112basic_stringIDsSt11char_traitsIDsESaIDsEE12_M_constructIPDsEEvT_S7_St20forward_iterator_tag
	.section	.text._ZSt11__addressofIKDsEPT_RS1_,"axG",@progbits,_ZSt11__addressofIKDsEPT_RS1_,comdat
	.align	2
	.weak	_ZSt11__addressofIKDsEPT_RS1_
	.type	_ZSt11__addressofIKDsEPT_RS1_, %function
_ZSt11__addressofIKDsEPT_RS1_:
.LFB2833:
	.cfi_startproc
	sub	sp, sp, #16
	.cfi_def_cfa_offset 16
	str	x0, [sp, 8]
	ldr	x0, [sp, 8]
	add	sp, sp, 16
	.cfi_def_cfa_offset 0
	ret
	.cfi_endproc
.LFE2833:
	.size	_ZSt11__addressofIKDsEPT_RS1_, .-_ZSt11__addressofIKDsEPT_RS1_
	.section	.text._ZNSt11_Tuple_implILm1EJSt14default_deleteISt18codecvt_utf8_utf16IwLm1114111ELSt12codecvt_mode0EEEEEC2Ev,"axG",@progbits,_ZNSt11_Tuple_implILm1EJSt14default_deleteISt18codecvt_utf8_utf16IwLm1114111ELSt12codecvt_mode0EEEEEC5Ev,comdat
	.align	2
	.weak	_ZNSt11_Tuple_implILm1EJSt14default_deleteISt18codecvt_utf8_utf16IwLm1114111ELSt12codecvt_mode0EEEEEC2Ev
	.type	_ZNSt11_Tuple_implILm1EJSt14default_deleteISt18codecvt_utf8_utf16IwLm1114111ELSt12codecvt_mode0EEEEEC2Ev, %function
_ZNSt11_Tuple_implILm1EJSt14default_deleteISt18codecvt_utf8_utf16IwLm1114111ELSt12codecvt_mode0EEEEEC2Ev:
.LFB2836:
	.cfi_startproc
	stp	x29, x30, [sp, -32]!
	.cfi_def_cfa_offset 32
	.cfi_offset 29, -32
	.cfi_offset 30, -24
	mov	x29, sp
	str	x0, [sp, 24]
	ldr	x0, [sp, 24]
	bl	_ZNSt10_Head_baseILm1ESt14default_deleteISt18codecvt_utf8_utf16IwLm1114111ELSt12codecvt_mode0EEELb1EEC2Ev
	nop
	ldp	x29, x30, [sp], 32
	.cfi_restore 30
	.cfi_restore 29
	.cfi_def_cfa_offset 0
	ret
	.cfi_endproc
.LFE2836:
	.size	_ZNSt11_Tuple_implILm1EJSt14default_deleteISt18codecvt_utf8_utf16IwLm1114111ELSt12codecvt_mode0EEEEEC2Ev, .-_ZNSt11_Tuple_implILm1EJSt14default_deleteISt18codecvt_utf8_utf16IwLm1114111ELSt12codecvt_mode0EEEEEC2Ev
	.weak	_ZNSt11_Tuple_implILm1EJSt14default_deleteISt18codecvt_utf8_utf16IwLm1114111ELSt12codecvt_mode0EEEEEC1Ev
	.set	_ZNSt11_Tuple_implILm1EJSt14default_deleteISt18codecvt_utf8_utf16IwLm1114111ELSt12codecvt_mode0EEEEEC1Ev,_ZNSt11_Tuple_implILm1EJSt14default_deleteISt18codecvt_utf8_utf16IwLm1114111ELSt12codecvt_mode0EEEEEC2Ev
	.section	.text._ZNSt10_Head_baseILm0EPSt18codecvt_utf8_utf16IwLm1114111ELSt12codecvt_mode0EELb0EEC2Ev,"axG",@progbits,_ZNSt10_Head_baseILm0EPSt18codecvt_utf8_utf16IwLm1114111ELSt12codecvt_mode0EELb0EEC5Ev,comdat
	.align	2
	.weak	_ZNSt10_Head_baseILm0EPSt18codecvt_utf8_utf16IwLm1114111ELSt12codecvt_mode0EELb0EEC2Ev
	.type	_ZNSt10_Head_baseILm0EPSt18codecvt_utf8_utf16IwLm1114111ELSt12codecvt_mode0EELb0EEC2Ev, %function
_ZNSt10_Head_baseILm0EPSt18codecvt_utf8_utf16IwLm1114111ELSt12codecvt_mode0EELb0EEC2Ev:
.LFB2839:
	.cfi_startproc
	sub	sp, sp, #16
	.cfi_def_cfa_offset 16
	str	x0, [sp, 8]
	ldr	x0, [sp, 8]
	str	xzr, [x0]
	nop
	add	sp, sp, 16
	.cfi_def_cfa_offset 0
	ret
	.cfi_endproc
.LFE2839:
	.size	_ZNSt10_Head_baseILm0EPSt18codecvt_utf8_utf16IwLm1114111ELSt12codecvt_mode0EELb0EEC2Ev, .-_ZNSt10_Head_baseILm0EPSt18codecvt_utf8_utf16IwLm1114111ELSt12codecvt_mode0EELb0EEC2Ev
	.weak	_ZNSt10_Head_baseILm0EPSt18codecvt_utf8_utf16IwLm1114111ELSt12codecvt_mode0EELb0EEC1Ev
	.set	_ZNSt10_Head_baseILm0EPSt18codecvt_utf8_utf16IwLm1114111ELSt12codecvt_mode0EELb0EEC1Ev,_ZNSt10_Head_baseILm0EPSt18codecvt_utf8_utf16IwLm1114111ELSt12codecvt_mode0EELb0EEC2Ev
	.section	.text._ZNSt10_Head_baseILm0EPSt18codecvt_utf8_utf16IwLm1114111ELSt12codecvt_mode0EELb0EE7_M_headERS4_,"axG",@progbits,_ZNSt10_Head_baseILm0EPSt18codecvt_utf8_utf16IwLm1114111ELSt12codecvt_mode0EELb0EE7_M_headERS4_,comdat
	.align	2
	.weak	_ZNSt10_Head_baseILm0EPSt18codecvt_utf8_utf16IwLm1114111ELSt12codecvt_mode0EELb0EE7_M_headERS4_
	.type	_ZNSt10_Head_baseILm0EPSt18codecvt_utf8_utf16IwLm1114111ELSt12codecvt_mode0EELb0EE7_M_headERS4_, %function
_ZNSt10_Head_baseILm0EPSt18codecvt_utf8_utf16IwLm1114111ELSt12codecvt_mode0EELb0EE7_M_headERS4_:
.LFB2841:
	.cfi_startproc
	sub	sp, sp, #16
	.cfi_def_cfa_offset 16
	str	x0, [sp, 8]
	ldr	x0, [sp, 8]
	add	sp, sp, 16
	.cfi_def_cfa_offset 0
	ret
	.cfi_endproc
.LFE2841:
	.size	_ZNSt10_Head_baseILm0EPSt18codecvt_utf8_utf16IwLm1114111ELSt12codecvt_mode0EELb0EE7_M_headERS4_, .-_ZNSt10_Head_baseILm0EPSt18codecvt_utf8_utf16IwLm1114111ELSt12codecvt_mode0EELb0EE7_M_headERS4_
	.section	.text._ZNSt11_Tuple_implILm1EJSt14default_deleteISt18codecvt_utf8_utf16IwLm1114111ELSt12codecvt_mode0EEEEE7_M_headERS5_,"axG",@progbits,_ZNSt11_Tuple_implILm1EJSt14default_deleteISt18codecvt_utf8_utf16IwLm1114111ELSt12codecvt_mode0EEEEE7_M_headERS5_,comdat
	.align	2
	.weak	_ZNSt11_Tuple_implILm1EJSt14default_deleteISt18codecvt_utf8_utf16IwLm1114111ELSt12codecvt_mode0EEEEE7_M_headERS5_
	.type	_ZNSt11_Tuple_implILm1EJSt14default_deleteISt18codecvt_utf8_utf16IwLm1114111ELSt12codecvt_mode0EEEEE7_M_headERS5_, %function
_ZNSt11_Tuple_implILm1EJSt14default_deleteISt18codecvt_utf8_utf16IwLm1114111ELSt12codecvt_mode0EEEEE7_M_headERS5_:
.LFB2842:
	.cfi_startproc
	stp	x29, x30, [sp, -32]!
	.cfi_def_cfa_offset 32
	.cfi_offset 29, -32
	.cfi_offset 30, -24
	mov	x29, sp
	str	x0, [sp, 24]
	ldr	x0, [sp, 24]
	bl	_ZNSt10_Head_baseILm1ESt14default_deleteISt18codecvt_utf8_utf16IwLm1114111ELSt12codecvt_mode0EEELb1EE7_M_headERS5_
	ldp	x29, x30, [sp], 32
	.cfi_restore 30
	.cfi_restore 29
	.cfi_def_cfa_offset 0
	ret
	.cfi_endproc
.LFE2842:
	.size	_ZNSt11_Tuple_implILm1EJSt14default_deleteISt18codecvt_utf8_utf16IwLm1114111ELSt12codecvt_mode0EEEEE7_M_headERS5_, .-_ZNSt11_Tuple_implILm1EJSt14default_deleteISt18codecvt_utf8_utf16IwLm1114111ELSt12codecvt_mode0EEEEE7_M_headERS5_
	.section	.text._ZSt3getILm0EJPSt18codecvt_utf8_utf16IwLm1114111ELSt12codecvt_mode0EESt14default_deleteIS2_EEERKNSt13tuple_elementIXT_ESt5tupleIJDpT0_EEE4typeERKSA_,"axG",@progbits,_ZSt3getILm0EJPSt18codecvt_utf8_utf16IwLm1114111ELSt12codecvt_mode0EESt14default_deleteIS2_EEERKNSt13tuple_elementIXT_ESt5tupleIJDpT0_EEE4typeERKSA_,comdat
	.align	2
	.weak	_ZSt3getILm0EJPSt18codecvt_utf8_utf16IwLm1114111ELSt12codecvt_mode0EESt14default_deleteIS2_EEERKNSt13tuple_elementIXT_ESt5tupleIJDpT0_EEE4typeERKSA_
	.type	_ZSt3getILm0EJPSt18codecvt_utf8_utf16IwLm1114111ELSt12codecvt_mode0EESt14default_deleteIS2_EEERKNSt13tuple_elementIXT_ESt5tupleIJDpT0_EEE4typeERKSA_, %function
_ZSt3getILm0EJPSt18codecvt_utf8_utf16IwLm1114111ELSt12codecvt_mode0EESt14default_deleteIS2_EEERKNSt13tuple_elementIXT_ESt5tupleIJDpT0_EEE4typeERKSA_:
.LFB2843:
	.cfi_startproc
	stp	x29, x30, [sp, -32]!
	.cfi_def_cfa_offset 32
	.cfi_offset 29, -32
	.cfi_offset 30, -24
	mov	x29, sp
	str	x0, [sp, 24]
	ldr	x0, [sp, 24]
	bl	_ZSt12__get_helperILm0EPSt18codecvt_utf8_utf16IwLm1114111ELSt12codecvt_mode0EEJSt14default_deleteIS2_EEERKT0_RKSt11_Tuple_implIXT_EJS6_DpT1_EE
	ldp	x29, x30, [sp], 32
	.cfi_restore 30
	.cfi_restore 29
	.cfi_def_cfa_offset 0
	ret
	.cfi_endproc
.LFE2843:
	.size	_ZSt3getILm0EJPSt18codecvt_utf8_utf16IwLm1114111ELSt12codecvt_mode0EESt14default_deleteIS2_EEERKNSt13tuple_elementIXT_ESt5tupleIJDpT0_EEE4typeERKSA_, .-_ZSt3getILm0EJPSt18codecvt_utf8_utf16IwLm1114111ELSt12codecvt_mode0EESt14default_deleteIS2_EEERKNSt13tuple_elementIXT_ESt5tupleIJDpT0_EEE4typeERKSA_
	.section	.text._ZNSt16allocator_traitsISaIDsEE8max_sizeERKS0_,"axG",@progbits,_ZNSt16allocator_traitsISaIDsEE8max_sizeERKS0_,comdat
	.align	2
	.weak	_ZNSt16allocator_traitsISaIDsEE8max_sizeERKS0_
	.type	_ZNSt16allocator_traitsISaIDsEE8max_sizeERKS0_, %function
_ZNSt16allocator_traitsISaIDsEE8max_sizeERKS0_:
.LFB2847:
	.cfi_startproc
	stp	x29, x30, [sp, -32]!
	.cfi_def_cfa_offset 32
	.cfi_offset 29, -32
	.cfi_offset 30, -24
	mov	x29, sp
	str	x0, [sp, 24]
	ldr	x0, [sp, 24]
	bl	_ZNK9__gnu_cxx13new_allocatorIDsE8max_sizeEv
	ldp	x29, x30, [sp], 32
	.cfi_restore 30
	.cfi_restore 29
	.cfi_def_cfa_offset 0
	ret
	.cfi_endproc
.LFE2847:
	.size	_ZNSt16allocator_traitsISaIDsEE8max_sizeERKS0_, .-_ZNSt16allocator_traitsISaIDsEE8max_sizeERKS0_
	.section	.text._ZNK9__gnu_cxx13new_allocatorIDsE11_M_max_sizeEv,"axG",@progbits,_ZNK9__gnu_cxx13new_allocatorIDsE11_M_max_sizeEv,comdat
	.align	2
	.weak	_ZNK9__gnu_cxx13new_allocatorIDsE11_M_max_sizeEv
	.type	_ZNK9__gnu_cxx13new_allocatorIDsE11_M_max_sizeEv, %function
_ZNK9__gnu_cxx13new_allocatorIDsE11_M_max_sizeEv:
.LFB2849:
	.cfi_startproc
	sub	sp, sp, #16
	.cfi_def_cfa_offset 16
	str	x0, [sp, 8]
	mov	x0, 4611686018427387903
	add	sp, sp, 16
	.cfi_def_cfa_offset 0
	ret
	.cfi_endproc
.LFE2849:
	.size	_ZNK9__gnu_cxx13new_allocatorIDsE11_M_max_sizeEv, .-_ZNK9__gnu_cxx13new_allocatorIDsE11_M_max_sizeEv
	.section	.text._ZN9__gnu_cxx13new_allocatorIDsE8allocateEmPKv,"axG",@progbits,_ZN9__gnu_cxx13new_allocatorIDsE8allocateEmPKv,comdat
	.align	2
	.weak	_ZN9__gnu_cxx13new_allocatorIDsE8allocateEmPKv
	.type	_ZN9__gnu_cxx13new_allocatorIDsE8allocateEmPKv, %function
_ZN9__gnu_cxx13new_allocatorIDsE8allocateEmPKv:
.LFB2848:
	.cfi_startproc
	stp	x29, x30, [sp, -48]!
	.cfi_def_cfa_offset 48
	.cfi_offset 29, -48
	.cfi_offset 30, -40
	mov	x29, sp
	str	x0, [sp, 40]
	str	x1, [sp, 32]
	str	x2, [sp, 24]
	ldr	x0, [sp, 40]
	bl	_ZNK9__gnu_cxx13new_allocatorIDsE11_M_max_sizeEv
	mov	x1, x0
	ldr	x0, [sp, 32]
	cmp	x0, x1
	cset	w0, hi
	and	w0, w0, 255
	and	x0, x0, 255
	cmp	x0, 0
	cset	w0, ne
	and	w0, w0, 255
	cmp	w0, 0
	beq	.L381
	ldr	x0, [sp, 32]
	cmp	x0, 0
	bge	.L382
	bl	_ZSt28__throw_bad_array_new_lengthv
.L382:
	bl	_ZSt17__throw_bad_allocv
.L381:
	ldr	x0, [sp, 32]
	lsl	x0, x0, 1
	bl	_Znwm
	nop
	ldp	x29, x30, [sp], 48
	.cfi_restore 30
	.cfi_restore 29
	.cfi_def_cfa_offset 0
	ret
	.cfi_endproc
.LFE2848:
	.size	_ZN9__gnu_cxx13new_allocatorIDsE8allocateEmPKv, .-_ZN9__gnu_cxx13new_allocatorIDsE8allocateEmPKv
	.section	.text._ZNSt10_Head_baseILm1ESt14default_deleteISt18codecvt_utf8_utf16IDsLm1114111ELSt12codecvt_mode0EEELb1EEC2Ev,"axG",@progbits,_ZNSt10_Head_baseILm1ESt14default_deleteISt18codecvt_utf8_utf16IDsLm1114111ELSt12codecvt_mode0EEELb1EEC5Ev,comdat
	.align	2
	.weak	_ZNSt10_Head_baseILm1ESt14default_deleteISt18codecvt_utf8_utf16IDsLm1114111ELSt12codecvt_mode0EEELb1EEC2Ev
	.type	_ZNSt10_Head_baseILm1ESt14default_deleteISt18codecvt_utf8_utf16IDsLm1114111ELSt12codecvt_mode0EEELb1EEC2Ev, %function
_ZNSt10_Head_baseILm1ESt14default_deleteISt18codecvt_utf8_utf16IDsLm1114111ELSt12codecvt_mode0EEELb1EEC2Ev:
.LFB2857:
	.cfi_startproc
	sub	sp, sp, #16
	.cfi_def_cfa_offset 16
	str	x0, [sp, 8]
	nop
	add	sp, sp, 16
	.cfi_def_cfa_offset 0
	ret
	.cfi_endproc
.LFE2857:
	.size	_ZNSt10_Head_baseILm1ESt14default_deleteISt18codecvt_utf8_utf16IDsLm1114111ELSt12codecvt_mode0EEELb1EEC2Ev, .-_ZNSt10_Head_baseILm1ESt14default_deleteISt18codecvt_utf8_utf16IDsLm1114111ELSt12codecvt_mode0EEELb1EEC2Ev
	.weak	_ZNSt10_Head_baseILm1ESt14default_deleteISt18codecvt_utf8_utf16IDsLm1114111ELSt12codecvt_mode0EEELb1EEC1Ev
	.set	_ZNSt10_Head_baseILm1ESt14default_deleteISt18codecvt_utf8_utf16IDsLm1114111ELSt12codecvt_mode0EEELb1EEC1Ev,_ZNSt10_Head_baseILm1ESt14default_deleteISt18codecvt_utf8_utf16IDsLm1114111ELSt12codecvt_mode0EEELb1EEC2Ev
	.section	.text._ZNSt10_Head_baseILm1ESt14default_deleteISt18codecvt_utf8_utf16IDsLm1114111ELSt12codecvt_mode0EEELb1EE7_M_headERS5_,"axG",@progbits,_ZNSt10_Head_baseILm1ESt14default_deleteISt18codecvt_utf8_utf16IDsLm1114111ELSt12codecvt_mode0EEELb1EE7_M_headERS5_,comdat
	.align	2
	.weak	_ZNSt10_Head_baseILm1ESt14default_deleteISt18codecvt_utf8_utf16IDsLm1114111ELSt12codecvt_mode0EEELb1EE7_M_headERS5_
	.type	_ZNSt10_Head_baseILm1ESt14default_deleteISt18codecvt_utf8_utf16IDsLm1114111ELSt12codecvt_mode0EEELb1EE7_M_headERS5_, %function
_ZNSt10_Head_baseILm1ESt14default_deleteISt18codecvt_utf8_utf16IDsLm1114111ELSt12codecvt_mode0EEELb1EE7_M_headERS5_:
.LFB2859:
	.cfi_startproc
	sub	sp, sp, #16
	.cfi_def_cfa_offset 16
	str	x0, [sp, 8]
	ldr	x0, [sp, 8]
	add	sp, sp, 16
	.cfi_def_cfa_offset 0
	ret
	.cfi_endproc
.LFE2859:
	.size	_ZNSt10_Head_baseILm1ESt14default_deleteISt18codecvt_utf8_utf16IDsLm1114111ELSt12codecvt_mode0EEELb1EE7_M_headERS5_, .-_ZNSt10_Head_baseILm1ESt14default_deleteISt18codecvt_utf8_utf16IDsLm1114111ELSt12codecvt_mode0EEELb1EE7_M_headERS5_
	.section	.text._ZSt12__get_helperILm0EPSt18codecvt_utf8_utf16IDsLm1114111ELSt12codecvt_mode0EEJSt14default_deleteIS2_EEERKT0_RKSt11_Tuple_implIXT_EJS6_DpT1_EE,"axG",@progbits,_ZSt12__get_helperILm0EPSt18codecvt_utf8_utf16IDsLm1114111ELSt12codecvt_mode0EEJSt14default_deleteIS2_EEERKT0_RKSt11_Tuple_implIXT_EJS6_DpT1_EE,comdat
	.align	2
	.weak	_ZSt12__get_helperILm0EPSt18codecvt_utf8_utf16IDsLm1114111ELSt12codecvt_mode0EEJSt14default_deleteIS2_EEERKT0_RKSt11_Tuple_implIXT_EJS6_DpT1_EE
	.type	_ZSt12__get_helperILm0EPSt18codecvt_utf8_utf16IDsLm1114111ELSt12codecvt_mode0EEJSt14default_deleteIS2_EEERKT0_RKSt11_Tuple_implIXT_EJS6_DpT1_EE, %function
_ZSt12__get_helperILm0EPSt18codecvt_utf8_utf16IDsLm1114111ELSt12codecvt_mode0EEJSt14default_deleteIS2_EEERKT0_RKSt11_Tuple_implIXT_EJS6_DpT1_EE:
.LFB2860:
	.cfi_startproc
	stp	x29, x30, [sp, -32]!
	.cfi_def_cfa_offset 32
	.cfi_offset 29, -32
	.cfi_offset 30, -24
	mov	x29, sp
	str	x0, [sp, 24]
	ldr	x0, [sp, 24]
	bl	_ZNSt11_Tuple_implILm0EJPSt18codecvt_utf8_utf16IDsLm1114111ELSt12codecvt_mode0EESt14default_deleteIS2_EEE7_M_headERKS6_
	ldp	x29, x30, [sp], 32
	.cfi_restore 30
	.cfi_restore 29
	.cfi_def_cfa_offset 0
	ret
	.cfi_endproc
.LFE2860:
	.size	_ZSt12__get_helperILm0EPSt18codecvt_utf8_utf16IDsLm1114111ELSt12codecvt_mode0EEJSt14default_deleteIS2_EEERKT0_RKSt11_Tuple_implIXT_EJS6_DpT1_EE, .-_ZSt12__get_helperILm0EPSt18codecvt_utf8_utf16IDsLm1114111ELSt12codecvt_mode0EEJSt14default_deleteIS2_EEERKT0_RKSt11_Tuple_implIXT_EJS6_DpT1_EE
	.section	.text._ZNSt7__cxx1112basic_stringIDsSt11char_traitsIDsESaIDsEE6appendEmDs,"axG",@progbits,_ZNSt7__cxx1112basic_stringIDsSt11char_traitsIDsESaIDsEE6appendEmDs,comdat
	.align	2
	.weak	_ZNSt7__cxx1112basic_stringIDsSt11char_traitsIDsESaIDsEE6appendEmDs
	.type	_ZNSt7__cxx1112basic_stringIDsSt11char_traitsIDsESaIDsEE6appendEmDs, %function
_ZNSt7__cxx1112basic_stringIDsSt11char_traitsIDsESaIDsEE6appendEmDs:
.LFB2861:
	.cfi_startproc
	stp	x29, x30, [sp, -48]!
	.cfi_def_cfa_offset 48
	.cfi_offset 29, -48
	.cfi_offset 30, -40
	mov	x29, sp
	str	x0, [sp, 40]
	str	x1, [sp, 32]
	strh	w2, [sp, 30]
	ldr	x0, [sp, 40]
	bl	_ZNKSt7__cxx1112basic_stringIDsSt11char_traitsIDsESaIDsEE4sizeEv
	ldrh	w4, [sp, 30]
	ldr	x3, [sp, 32]
	mov	x2, 0
	mov	x1, x0
	ldr	x0, [sp, 40]
	bl	_ZNSt7__cxx1112basic_stringIDsSt11char_traitsIDsESaIDsEE14_M_replace_auxEmmmDs
	ldp	x29, x30, [sp], 48
	.cfi_restore 30
	.cfi_restore 29
	.cfi_def_cfa_offset 0
	ret
	.cfi_endproc
.LFE2861:
	.size	_ZNSt7__cxx1112basic_stringIDsSt11char_traitsIDsESaIDsEE6appendEmDs, .-_ZNSt7__cxx1112basic_stringIDsSt11char_traitsIDsESaIDsEE6appendEmDs
	.section	.text._ZN9__gnu_cxx17__is_null_pointerIDsEEbPT_,"axG",@progbits,_ZN9__gnu_cxx17__is_null_pointerIDsEEbPT_,comdat
	.align	2
	.weak	_ZN9__gnu_cxx17__is_null_pointerIDsEEbPT_
	.type	_ZN9__gnu_cxx17__is_null_pointerIDsEEbPT_, %function
_ZN9__gnu_cxx17__is_null_pointerIDsEEbPT_:
.LFB2862:
	.cfi_startproc
	sub	sp, sp, #16
	.cfi_def_cfa_offset 16
	str	x0, [sp, 8]
	ldr	x0, [sp, 8]
	cmp	x0, 0
	cset	w0, eq
	and	w0, w0, 255
	add	sp, sp, 16
	.cfi_def_cfa_offset 0
	ret
	.cfi_endproc
.LFE2862:
	.size	_ZN9__gnu_cxx17__is_null_pointerIDsEEbPT_, .-_ZN9__gnu_cxx17__is_null_pointerIDsEEbPT_
	.section	.text._ZSt19__iterator_categoryIPDsENSt15iterator_traitsIT_E17iterator_categoryERKS2_,"axG",@progbits,_ZSt19__iterator_categoryIPDsENSt15iterator_traitsIT_E17iterator_categoryERKS2_,comdat
	.align	2
	.weak	_ZSt19__iterator_categoryIPDsENSt15iterator_traitsIT_E17iterator_categoryERKS2_
	.type	_ZSt19__iterator_categoryIPDsENSt15iterator_traitsIT_E17iterator_categoryERKS2_, %function
_ZSt19__iterator_categoryIPDsENSt15iterator_traitsIT_E17iterator_categoryERKS2_:
.LFB2863:
	.cfi_startproc
	sub	sp, sp, #16
	.cfi_def_cfa_offset 16
	str	x0, [sp, 8]
	mov	w0, w1
	add	sp, sp, 16
	.cfi_def_cfa_offset 0
	ret
	.cfi_endproc
.LFE2863:
	.size	_ZSt19__iterator_categoryIPDsENSt15iterator_traitsIT_E17iterator_categoryERKS2_, .-_ZSt19__iterator_categoryIPDsENSt15iterator_traitsIT_E17iterator_categoryERKS2_
	.section	.text._ZSt10__distanceIPDsENSt15iterator_traitsIT_E15difference_typeES2_S2_St26random_access_iterator_tag,"axG",@progbits,_ZSt10__distanceIPDsENSt15iterator_traitsIT_E15difference_typeES2_S2_St26random_access_iterator_tag,comdat
	.align	2
	.weak	_ZSt10__distanceIPDsENSt15iterator_traitsIT_E15difference_typeES2_S2_St26random_access_iterator_tag
	.type	_ZSt10__distanceIPDsENSt15iterator_traitsIT_E15difference_typeES2_S2_St26random_access_iterator_tag, %function
_ZSt10__distanceIPDsENSt15iterator_traitsIT_E15difference_typeES2_S2_St26random_access_iterator_tag:
.LFB2864:
	.cfi_startproc
	sub	sp, sp, #32
	.cfi_def_cfa_offset 32
	str	x0, [sp, 24]
	str	x1, [sp, 16]
	strb	w2, [sp, 8]
	ldr	x1, [sp, 16]
	ldr	x0, [sp, 24]
	sub	x0, x1, x0
	asr	x0, x0, 1
	add	sp, sp, 32
	.cfi_def_cfa_offset 0
	ret
	.cfi_endproc
.LFE2864:
	.size	_ZSt10__distanceIPDsENSt15iterator_traitsIT_E15difference_typeES2_S2_St26random_access_iterator_tag, .-_ZSt10__distanceIPDsENSt15iterator_traitsIT_E15difference_typeES2_S2_St26random_access_iterator_tag
	.section	.text._ZNSt7__cxx1112basic_stringIDsSt11char_traitsIDsESaIDsEE13_S_copy_charsEPDsS5_S5_,"axG",@progbits,_ZNSt7__cxx1112basic_stringIDsSt11char_traitsIDsESaIDsEE13_S_copy_charsEPDsS5_S5_,comdat
	.align	2
	.weak	_ZNSt7__cxx1112basic_stringIDsSt11char_traitsIDsESaIDsEE13_S_copy_charsEPDsS5_S5_
	.type	_ZNSt7__cxx1112basic_stringIDsSt11char_traitsIDsESaIDsEE13_S_copy_charsEPDsS5_S5_, %function
_ZNSt7__cxx1112basic_stringIDsSt11char_traitsIDsESaIDsEE13_S_copy_charsEPDsS5_S5_:
.LFB2865:
	.cfi_startproc
	stp	x29, x30, [sp, -48]!
	.cfi_def_cfa_offset 48
	.cfi_offset 29, -48
	.cfi_offset 30, -40
	mov	x29, sp
	str	x0, [sp, 40]
	str	x1, [sp, 32]
	str	x2, [sp, 24]
	ldr	x1, [sp, 24]
	ldr	x0, [sp, 32]
	sub	x0, x1, x0
	asr	x0, x0, 1
	mov	x2, x0
	ldr	x1, [sp, 32]
	ldr	x0, [sp, 40]
	bl	_ZNSt7__cxx1112basic_stringIDsSt11char_traitsIDsESaIDsEE7_S_copyEPDsPKDsm
	nop
	ldp	x29, x30, [sp], 48
	.cfi_restore 30
	.cfi_restore 29
	.cfi_def_cfa_offset 0
	ret
	.cfi_endproc
.LFE2865:
	.size	_ZNSt7__cxx1112basic_stringIDsSt11char_traitsIDsESaIDsEE13_S_copy_charsEPDsS5_S5_, .-_ZNSt7__cxx1112basic_stringIDsSt11char_traitsIDsESaIDsEE13_S_copy_charsEPDsS5_S5_
	.section	.text._ZNSt10_Head_baseILm1ESt14default_deleteISt18codecvt_utf8_utf16IwLm1114111ELSt12codecvt_mode0EEELb1EEC2Ev,"axG",@progbits,_ZNSt10_Head_baseILm1ESt14default_deleteISt18codecvt_utf8_utf16IwLm1114111ELSt12codecvt_mode0EEELb1EEC5Ev,comdat
	.align	2
	.weak	_ZNSt10_Head_baseILm1ESt14default_deleteISt18codecvt_utf8_utf16IwLm1114111ELSt12codecvt_mode0EEELb1EEC2Ev
	.type	_ZNSt10_Head_baseILm1ESt14default_deleteISt18codecvt_utf8_utf16IwLm1114111ELSt12codecvt_mode0EEELb1EEC2Ev, %function
_ZNSt10_Head_baseILm1ESt14default_deleteISt18codecvt_utf8_utf16IwLm1114111ELSt12codecvt_mode0EEELb1EEC2Ev:
.LFB2867:
	.cfi_startproc
	sub	sp, sp, #16
	.cfi_def_cfa_offset 16
	str	x0, [sp, 8]
	nop
	add	sp, sp, 16
	.cfi_def_cfa_offset 0
	ret
	.cfi_endproc
.LFE2867:
	.size	_ZNSt10_Head_baseILm1ESt14default_deleteISt18codecvt_utf8_utf16IwLm1114111ELSt12codecvt_mode0EEELb1EEC2Ev, .-_ZNSt10_Head_baseILm1ESt14default_deleteISt18codecvt_utf8_utf16IwLm1114111ELSt12codecvt_mode0EEELb1EEC2Ev
	.weak	_ZNSt10_Head_baseILm1ESt14default_deleteISt18codecvt_utf8_utf16IwLm1114111ELSt12codecvt_mode0EEELb1EEC1Ev
	.set	_ZNSt10_Head_baseILm1ESt14default_deleteISt18codecvt_utf8_utf16IwLm1114111ELSt12codecvt_mode0EEELb1EEC1Ev,_ZNSt10_Head_baseILm1ESt14default_deleteISt18codecvt_utf8_utf16IwLm1114111ELSt12codecvt_mode0EEELb1EEC2Ev
	.section	.text._ZNSt10_Head_baseILm1ESt14default_deleteISt18codecvt_utf8_utf16IwLm1114111ELSt12codecvt_mode0EEELb1EE7_M_headERS5_,"axG",@progbits,_ZNSt10_Head_baseILm1ESt14default_deleteISt18codecvt_utf8_utf16IwLm1114111ELSt12codecvt_mode0EEELb1EE7_M_headERS5_,comdat
	.align	2
	.weak	_ZNSt10_Head_baseILm1ESt14default_deleteISt18codecvt_utf8_utf16IwLm1114111ELSt12codecvt_mode0EEELb1EE7_M_headERS5_
	.type	_ZNSt10_Head_baseILm1ESt14default_deleteISt18codecvt_utf8_utf16IwLm1114111ELSt12codecvt_mode0EEELb1EE7_M_headERS5_, %function
_ZNSt10_Head_baseILm1ESt14default_deleteISt18codecvt_utf8_utf16IwLm1114111ELSt12codecvt_mode0EEELb1EE7_M_headERS5_:
.LFB2869:
	.cfi_startproc
	sub	sp, sp, #16
	.cfi_def_cfa_offset 16
	str	x0, [sp, 8]
	ldr	x0, [sp, 8]
	add	sp, sp, 16
	.cfi_def_cfa_offset 0
	ret
	.cfi_endproc
.LFE2869:
	.size	_ZNSt10_Head_baseILm1ESt14default_deleteISt18codecvt_utf8_utf16IwLm1114111ELSt12codecvt_mode0EEELb1EE7_M_headERS5_, .-_ZNSt10_Head_baseILm1ESt14default_deleteISt18codecvt_utf8_utf16IwLm1114111ELSt12codecvt_mode0EEELb1EE7_M_headERS5_
	.section	.text._ZSt12__get_helperILm0EPSt18codecvt_utf8_utf16IwLm1114111ELSt12codecvt_mode0EEJSt14default_deleteIS2_EEERKT0_RKSt11_Tuple_implIXT_EJS6_DpT1_EE,"axG",@progbits,_ZSt12__get_helperILm0EPSt18codecvt_utf8_utf16IwLm1114111ELSt12codecvt_mode0EEJSt14default_deleteIS2_EEERKT0_RKSt11_Tuple_implIXT_EJS6_DpT1_EE,comdat
	.align	2
	.weak	_ZSt12__get_helperILm0EPSt18codecvt_utf8_utf16IwLm1114111ELSt12codecvt_mode0EEJSt14default_deleteIS2_EEERKT0_RKSt11_Tuple_implIXT_EJS6_DpT1_EE
	.type	_ZSt12__get_helperILm0EPSt18codecvt_utf8_utf16IwLm1114111ELSt12codecvt_mode0EEJSt14default_deleteIS2_EEERKT0_RKSt11_Tuple_implIXT_EJS6_DpT1_EE, %function
_ZSt12__get_helperILm0EPSt18codecvt_utf8_utf16IwLm1114111ELSt12codecvt_mode0EEJSt14default_deleteIS2_EEERKT0_RKSt11_Tuple_implIXT_EJS6_DpT1_EE:
.LFB2870:
	.cfi_startproc
	stp	x29, x30, [sp, -32]!
	.cfi_def_cfa_offset 32
	.cfi_offset 29, -32
	.cfi_offset 30, -24
	mov	x29, sp
	str	x0, [sp, 24]
	ldr	x0, [sp, 24]
	bl	_ZNSt11_Tuple_implILm0EJPSt18codecvt_utf8_utf16IwLm1114111ELSt12codecvt_mode0EESt14default_deleteIS2_EEE7_M_headERKS6_
	ldp	x29, x30, [sp], 32
	.cfi_restore 30
	.cfi_restore 29
	.cfi_def_cfa_offset 0
	ret
	.cfi_endproc
.LFE2870:
	.size	_ZSt12__get_helperILm0EPSt18codecvt_utf8_utf16IwLm1114111ELSt12codecvt_mode0EEJSt14default_deleteIS2_EEERKT0_RKSt11_Tuple_implIXT_EJS6_DpT1_EE, .-_ZSt12__get_helperILm0EPSt18codecvt_utf8_utf16IwLm1114111ELSt12codecvt_mode0EEJSt14default_deleteIS2_EEERKT0_RKSt11_Tuple_implIXT_EJS6_DpT1_EE
	.section	.text._ZNK9__gnu_cxx13new_allocatorIDsE8max_sizeEv,"axG",@progbits,_ZNK9__gnu_cxx13new_allocatorIDsE8max_sizeEv,comdat
	.align	2
	.weak	_ZNK9__gnu_cxx13new_allocatorIDsE8max_sizeEv
	.type	_ZNK9__gnu_cxx13new_allocatorIDsE8max_sizeEv, %function
_ZNK9__gnu_cxx13new_allocatorIDsE8max_sizeEv:
.LFB2871:
	.cfi_startproc
	stp	x29, x30, [sp, -32]!
	.cfi_def_cfa_offset 32
	.cfi_offset 29, -32
	.cfi_offset 30, -24
	mov	x29, sp
	str	x0, [sp, 24]
	ldr	x0, [sp, 24]
	bl	_ZNK9__gnu_cxx13new_allocatorIDsE11_M_max_sizeEv
	ldp	x29, x30, [sp], 32
	.cfi_restore 30
	.cfi_restore 29
	.cfi_def_cfa_offset 0
	ret
	.cfi_endproc
.LFE2871:
	.size	_ZNK9__gnu_cxx13new_allocatorIDsE8max_sizeEv, .-_ZNK9__gnu_cxx13new_allocatorIDsE8max_sizeEv
	.section	.text._ZNSt11_Tuple_implILm0EJPSt18codecvt_utf8_utf16IDsLm1114111ELSt12codecvt_mode0EESt14default_deleteIS2_EEE7_M_headERKS6_,"axG",@progbits,_ZNSt11_Tuple_implILm0EJPSt18codecvt_utf8_utf16IDsLm1114111ELSt12codecvt_mode0EESt14default_deleteIS2_EEE7_M_headERKS6_,comdat
	.align	2
	.weak	_ZNSt11_Tuple_implILm0EJPSt18codecvt_utf8_utf16IDsLm1114111ELSt12codecvt_mode0EESt14default_deleteIS2_EEE7_M_headERKS6_
	.type	_ZNSt11_Tuple_implILm0EJPSt18codecvt_utf8_utf16IDsLm1114111ELSt12codecvt_mode0EESt14default_deleteIS2_EEE7_M_headERKS6_, %function
_ZNSt11_Tuple_implILm0EJPSt18codecvt_utf8_utf16IDsLm1114111ELSt12codecvt_mode0EESt14default_deleteIS2_EEE7_M_headERKS6_:
.LFB2873:
	.cfi_startproc
	stp	x29, x30, [sp, -32]!
	.cfi_def_cfa_offset 32
	.cfi_offset 29, -32
	.cfi_offset 30, -24
	mov	x29, sp
	str	x0, [sp, 24]
	ldr	x0, [sp, 24]
	bl	_ZNSt10_Head_baseILm0EPSt18codecvt_utf8_utf16IDsLm1114111ELSt12codecvt_mode0EELb0EE7_M_headERKS4_
	ldp	x29, x30, [sp], 32
	.cfi_restore 30
	.cfi_restore 29
	.cfi_def_cfa_offset 0
	ret
	.cfi_endproc
.LFE2873:
	.size	_ZNSt11_Tuple_implILm0EJPSt18codecvt_utf8_utf16IDsLm1114111ELSt12codecvt_mode0EESt14default_deleteIS2_EEE7_M_headERKS6_, .-_ZNSt11_Tuple_implILm0EJPSt18codecvt_utf8_utf16IDsLm1114111ELSt12codecvt_mode0EESt14default_deleteIS2_EEE7_M_headERKS6_
	.section	.rodata
	.align	3
.LC4:
	.string	"basic_string::_M_replace_aux"
	.section	.text._ZNSt7__cxx1112basic_stringIDsSt11char_traitsIDsESaIDsEE14_M_replace_auxEmmmDs,"axG",@progbits,_ZNSt7__cxx1112basic_stringIDsSt11char_traitsIDsESaIDsEE14_M_replace_auxEmmmDs,comdat
	.align	2
	.weak	_ZNSt7__cxx1112basic_stringIDsSt11char_traitsIDsESaIDsEE14_M_replace_auxEmmmDs
	.type	_ZNSt7__cxx1112basic_stringIDsSt11char_traitsIDsESaIDsEE14_M_replace_auxEmmmDs, %function
_ZNSt7__cxx1112basic_stringIDsSt11char_traitsIDsESaIDsEE14_M_replace_auxEmmmDs:
.LFB2874:
	.cfi_startproc
	stp	x29, x30, [sp, -96]!
	.cfi_def_cfa_offset 96
	.cfi_offset 29, -96
	.cfi_offset 30, -88
	mov	x29, sp
	str	x0, [sp, 56]
	str	x1, [sp, 48]
	str	x2, [sp, 40]
	str	x3, [sp, 32]
	strh	w4, [sp, 30]
	adrp	x0, .LC4
	add	x3, x0, :lo12:.LC4
	ldr	x2, [sp, 32]
	ldr	x1, [sp, 40]
	ldr	x0, [sp, 56]
	bl	_ZNKSt7__cxx1112basic_stringIDsSt11char_traitsIDsESaIDsEE15_M_check_lengthEmmPKc
	ldr	x0, [sp, 56]
	bl	_ZNKSt7__cxx1112basic_stringIDsSt11char_traitsIDsESaIDsEE4sizeEv
	str	x0, [sp, 64]
	ldr	x1, [sp, 64]
	ldr	x0, [sp, 32]
	add	x1, x1, x0
	ldr	x0, [sp, 40]
	sub	x0, x1, x0
	str	x0, [sp, 72]
	ldr	x0, [sp, 56]
	bl	_ZNKSt7__cxx1112basic_stringIDsSt11char_traitsIDsESaIDsEE8capacityEv
	mov	x1, x0
	ldr	x0, [sp, 72]
	cmp	x0, x1
	cset	w0, ls
	and	w0, w0, 255
	cmp	w0, 0
	beq	.L408
	ldr	x0, [sp, 56]
	bl	_ZNKSt7__cxx1112basic_stringIDsSt11char_traitsIDsESaIDsEE7_M_dataEv
	mov	x1, x0
	ldr	x0, [sp, 48]
	lsl	x0, x0, 1
	add	x0, x1, x0
	str	x0, [sp, 80]
	ldr	x1, [sp, 64]
	ldr	x0, [sp, 48]
	sub	x1, x1, x0
	ldr	x0, [sp, 40]
	sub	x0, x1, x0
	str	x0, [sp, 88]
	ldr	x0, [sp, 88]
	cmp	x0, 0
	beq	.L409
	ldr	x1, [sp, 40]
	ldr	x0, [sp, 32]
	cmp	x1, x0
	beq	.L409
	ldr	x0, [sp, 32]
	lsl	x0, x0, 1
	ldr	x1, [sp, 80]
	add	x3, x1, x0
	ldr	x0, [sp, 40]
	lsl	x0, x0, 1
	ldr	x1, [sp, 80]
	add	x0, x1, x0
	ldr	x2, [sp, 88]
	mov	x1, x0
	mov	x0, x3
	bl	_ZNSt7__cxx1112basic_stringIDsSt11char_traitsIDsESaIDsEE7_S_moveEPDsPKDsm
	b	.L409
.L408:
	ldr	x4, [sp, 32]
	mov	x3, 0
	ldr	x2, [sp, 40]
	ldr	x1, [sp, 48]
	ldr	x0, [sp, 56]
	bl	_ZNSt7__cxx1112basic_stringIDsSt11char_traitsIDsESaIDsEE9_M_mutateEmmPKDsm
.L409:
	ldr	x0, [sp, 32]
	cmp	x0, 0
	beq	.L410
	ldr	x0, [sp, 56]
	bl	_ZNKSt7__cxx1112basic_stringIDsSt11char_traitsIDsESaIDsEE7_M_dataEv
	mov	x1, x0
	ldr	x0, [sp, 48]
	lsl	x0, x0, 1
	add	x0, x1, x0
	ldrh	w2, [sp, 30]
	ldr	x1, [sp, 32]
	bl	_ZNSt7__cxx1112basic_stringIDsSt11char_traitsIDsESaIDsEE9_S_assignEPDsmDs
.L410:
	ldr	x1, [sp, 72]
	ldr	x0, [sp, 56]
	bl	_ZNSt7__cxx1112basic_stringIDsSt11char_traitsIDsESaIDsEE13_M_set_lengthEm
	ldr	x0, [sp, 56]
	ldp	x29, x30, [sp], 96
	.cfi_restore 30
	.cfi_restore 29
	.cfi_def_cfa_offset 0
	ret
	.cfi_endproc
.LFE2874:
	.size	_ZNSt7__cxx1112basic_stringIDsSt11char_traitsIDsESaIDsEE14_M_replace_auxEmmmDs, .-_ZNSt7__cxx1112basic_stringIDsSt11char_traitsIDsESaIDsEE14_M_replace_auxEmmmDs
	.section	.text._ZNSt11_Tuple_implILm0EJPSt18codecvt_utf8_utf16IwLm1114111ELSt12codecvt_mode0EESt14default_deleteIS2_EEE7_M_headERKS6_,"axG",@progbits,_ZNSt11_Tuple_implILm0EJPSt18codecvt_utf8_utf16IwLm1114111ELSt12codecvt_mode0EESt14default_deleteIS2_EEE7_M_headERKS6_,comdat
	.align	2
	.weak	_ZNSt11_Tuple_implILm0EJPSt18codecvt_utf8_utf16IwLm1114111ELSt12codecvt_mode0EESt14default_deleteIS2_EEE7_M_headERKS6_
	.type	_ZNSt11_Tuple_implILm0EJPSt18codecvt_utf8_utf16IwLm1114111ELSt12codecvt_mode0EESt14default_deleteIS2_EEE7_M_headERKS6_, %function
_ZNSt11_Tuple_implILm0EJPSt18codecvt_utf8_utf16IwLm1114111ELSt12codecvt_mode0EESt14default_deleteIS2_EEE7_M_headERKS6_:
.LFB2875:
	.cfi_startproc
	stp	x29, x30, [sp, -32]!
	.cfi_def_cfa_offset 32
	.cfi_offset 29, -32
	.cfi_offset 30, -24
	mov	x29, sp
	str	x0, [sp, 24]
	ldr	x0, [sp, 24]
	bl	_ZNSt10_Head_baseILm0EPSt18codecvt_utf8_utf16IwLm1114111ELSt12codecvt_mode0EELb0EE7_M_headERKS4_
	ldp	x29, x30, [sp], 32
	.cfi_restore 30
	.cfi_restore 29
	.cfi_def_cfa_offset 0
	ret
	.cfi_endproc
.LFE2875:
	.size	_ZNSt11_Tuple_implILm0EJPSt18codecvt_utf8_utf16IwLm1114111ELSt12codecvt_mode0EESt14default_deleteIS2_EEE7_M_headERKS6_, .-_ZNSt11_Tuple_implILm0EJPSt18codecvt_utf8_utf16IwLm1114111ELSt12codecvt_mode0EESt14default_deleteIS2_EEE7_M_headERKS6_
	.section	.text._ZNSt10_Head_baseILm0EPSt18codecvt_utf8_utf16IDsLm1114111ELSt12codecvt_mode0EELb0EE7_M_headERKS4_,"axG",@progbits,_ZNSt10_Head_baseILm0EPSt18codecvt_utf8_utf16IDsLm1114111ELSt12codecvt_mode0EELb0EE7_M_headERKS4_,comdat
	.align	2
	.weak	_ZNSt10_Head_baseILm0EPSt18codecvt_utf8_utf16IDsLm1114111ELSt12codecvt_mode0EELb0EE7_M_headERKS4_
	.type	_ZNSt10_Head_baseILm0EPSt18codecvt_utf8_utf16IDsLm1114111ELSt12codecvt_mode0EELb0EE7_M_headERKS4_, %function
_ZNSt10_Head_baseILm0EPSt18codecvt_utf8_utf16IDsLm1114111ELSt12codecvt_mode0EELb0EE7_M_headERKS4_:
.LFB2876:
	.cfi_startproc
	sub	sp, sp, #16
	.cfi_def_cfa_offset 16
	str	x0, [sp, 8]
	ldr	x0, [sp, 8]
	add	sp, sp, 16
	.cfi_def_cfa_offset 0
	ret
	.cfi_endproc
.LFE2876:
	.size	_ZNSt10_Head_baseILm0EPSt18codecvt_utf8_utf16IDsLm1114111ELSt12codecvt_mode0EELb0EE7_M_headERKS4_, .-_ZNSt10_Head_baseILm0EPSt18codecvt_utf8_utf16IDsLm1114111ELSt12codecvt_mode0EELb0EE7_M_headERKS4_
	.section	.text._ZNKSt7__cxx1112basic_stringIDsSt11char_traitsIDsESaIDsEE15_M_check_lengthEmmPKc,"axG",@progbits,_ZNKSt7__cxx1112basic_stringIDsSt11char_traitsIDsESaIDsEE15_M_check_lengthEmmPKc,comdat
	.align	2
	.weak	_ZNKSt7__cxx1112basic_stringIDsSt11char_traitsIDsESaIDsEE15_M_check_lengthEmmPKc
	.type	_ZNKSt7__cxx1112basic_stringIDsSt11char_traitsIDsESaIDsEE15_M_check_lengthEmmPKc, %function
_ZNKSt7__cxx1112basic_stringIDsSt11char_traitsIDsESaIDsEE15_M_check_lengthEmmPKc:
.LFB2877:
	.cfi_startproc
	stp	x29, x30, [sp, -64]!
	.cfi_def_cfa_offset 64
	.cfi_offset 29, -64
	.cfi_offset 30, -56
	mov	x29, sp
	str	x19, [sp, 16]
	.cfi_offset 19, -48
	str	x0, [sp, 56]
	str	x1, [sp, 48]
	str	x2, [sp, 40]
	str	x3, [sp, 32]
	ldr	x0, [sp, 56]
	bl	_ZNKSt7__cxx1112basic_stringIDsSt11char_traitsIDsESaIDsEE8max_sizeEv
	mov	x19, x0
	ldr	x0, [sp, 56]
	bl	_ZNKSt7__cxx1112basic_stringIDsSt11char_traitsIDsESaIDsEE4sizeEv
	mov	x1, x0
	ldr	x0, [sp, 48]
	sub	x0, x0, x1
	add	x0, x19, x0
	ldr	x1, [sp, 40]
	cmp	x1, x0
	cset	w0, hi
	and	w0, w0, 255
	cmp	w0, 0
	beq	.L418
	ldr	x0, [sp, 32]
	bl	_ZSt20__throw_length_errorPKc
.L418:
	nop
	ldr	x19, [sp, 16]
	ldp	x29, x30, [sp], 64
	.cfi_restore 30
	.cfi_restore 29
	.cfi_restore 19
	.cfi_def_cfa_offset 0
	ret
	.cfi_endproc
.LFE2877:
	.size	_ZNKSt7__cxx1112basic_stringIDsSt11char_traitsIDsESaIDsEE15_M_check_lengthEmmPKc, .-_ZNKSt7__cxx1112basic_stringIDsSt11char_traitsIDsESaIDsEE15_M_check_lengthEmmPKc
	.section	.text._ZNKSt7__cxx1112basic_stringIDsSt11char_traitsIDsESaIDsEE8capacityEv,"axG",@progbits,_ZNKSt7__cxx1112basic_stringIDsSt11char_traitsIDsESaIDsEE8capacityEv,comdat
	.align	2
	.weak	_ZNKSt7__cxx1112basic_stringIDsSt11char_traitsIDsESaIDsEE8capacityEv
	.type	_ZNKSt7__cxx1112basic_stringIDsSt11char_traitsIDsESaIDsEE8capacityEv, %function
_ZNKSt7__cxx1112basic_stringIDsSt11char_traitsIDsESaIDsEE8capacityEv:
.LFB2878:
	.cfi_startproc
	stp	x29, x30, [sp, -32]!
	.cfi_def_cfa_offset 32
	.cfi_offset 29, -32
	.cfi_offset 30, -24
	mov	x29, sp
	str	x0, [sp, 24]
	ldr	x0, [sp, 24]
	bl	_ZNKSt7__cxx1112basic_stringIDsSt11char_traitsIDsESaIDsEE11_M_is_localEv
	and	w0, w0, 255
	cmp	w0, 0
	beq	.L420
	mov	x0, 7
	b	.L422
.L420:
	ldr	x0, [sp, 24]
	ldr	x0, [x0, 16]
.L422:
	ldp	x29, x30, [sp], 32
	.cfi_restore 30
	.cfi_restore 29
	.cfi_def_cfa_offset 0
	ret
	.cfi_endproc
.LFE2878:
	.size	_ZNKSt7__cxx1112basic_stringIDsSt11char_traitsIDsESaIDsEE8capacityEv, .-_ZNKSt7__cxx1112basic_stringIDsSt11char_traitsIDsESaIDsEE8capacityEv
	.section	.text._ZNSt7__cxx1112basic_stringIDsSt11char_traitsIDsESaIDsEE7_S_moveEPDsPKDsm,"axG",@progbits,_ZNSt7__cxx1112basic_stringIDsSt11char_traitsIDsESaIDsEE7_S_moveEPDsPKDsm,comdat
	.align	2
	.weak	_ZNSt7__cxx1112basic_stringIDsSt11char_traitsIDsESaIDsEE7_S_moveEPDsPKDsm
	.type	_ZNSt7__cxx1112basic_stringIDsSt11char_traitsIDsESaIDsEE7_S_moveEPDsPKDsm, %function
_ZNSt7__cxx1112basic_stringIDsSt11char_traitsIDsESaIDsEE7_S_moveEPDsPKDsm:
.LFB2879:
	.cfi_startproc
	stp	x29, x30, [sp, -48]!
	.cfi_def_cfa_offset 48
	.cfi_offset 29, -48
	.cfi_offset 30, -40
	mov	x29, sp
	str	x0, [sp, 40]
	str	x1, [sp, 32]
	str	x2, [sp, 24]
	ldr	x0, [sp, 24]
	cmp	x0, 1
	bne	.L424
	ldr	x1, [sp, 32]
	ldr	x0, [sp, 40]
	bl	_ZNSt11char_traitsIDsE6assignERDsRKDs
	b	.L426
.L424:
	ldr	x2, [sp, 24]
	ldr	x1, [sp, 32]
	ldr	x0, [sp, 40]
	bl	_ZNSt11char_traitsIDsE4moveEPDsPKDsm
.L426:
	nop
	ldp	x29, x30, [sp], 48
	.cfi_restore 30
	.cfi_restore 29
	.cfi_def_cfa_offset 0
	ret
	.cfi_endproc
.LFE2879:
	.size	_ZNSt7__cxx1112basic_stringIDsSt11char_traitsIDsESaIDsEE7_S_moveEPDsPKDsm, .-_ZNSt7__cxx1112basic_stringIDsSt11char_traitsIDsESaIDsEE7_S_moveEPDsPKDsm
	.section	.text._ZNSt7__cxx1112basic_stringIDsSt11char_traitsIDsESaIDsEE9_M_mutateEmmPKDsm,"axG",@progbits,_ZNSt7__cxx1112basic_stringIDsSt11char_traitsIDsESaIDsEE9_M_mutateEmmPKDsm,comdat
	.align	2
	.weak	_ZNSt7__cxx1112basic_stringIDsSt11char_traitsIDsESaIDsEE9_M_mutateEmmPKDsm
	.type	_ZNSt7__cxx1112basic_stringIDsSt11char_traitsIDsESaIDsEE9_M_mutateEmmPKDsm, %function
_ZNSt7__cxx1112basic_stringIDsSt11char_traitsIDsESaIDsEE9_M_mutateEmmPKDsm:
.LFB2880:
	.cfi_startproc
	stp	x29, x30, [sp, -112]!
	.cfi_def_cfa_offset 112
	.cfi_offset 29, -112
	.cfi_offset 30, -104
	mov	x29, sp
	str	x19, [sp, 16]
	.cfi_offset 19, -96
	str	x0, [sp, 72]
	str	x1, [sp, 64]
	str	x2, [sp, 56]
	str	x3, [sp, 48]
	str	x4, [sp, 40]
	adrp	x0, :got:__stack_chk_guard
	ldr	x0, [x0, #:got_lo12:__stack_chk_guard]
	ldr	x1, [x0]
	str	x1, [sp, 104]
	mov	x1, 0
	ldr	x0, [sp, 72]
	bl	_ZNKSt7__cxx1112basic_stringIDsSt11char_traitsIDsESaIDsEE6lengthEv
	mov	x1, x0
	ldr	x0, [sp, 64]
	sub	x1, x1, x0
	ldr	x0, [sp, 56]
	sub	x0, x1, x0
	str	x0, [sp, 88]
