	.arch armv8-a
	.file	"imgui_demo.cpp"
	.text
	.section	.text._ZN6ImVec2C2Eff,"axG",@progbits,_ZN6ImVec2C5Eff,comdat
	.align	2
	.weak	_ZN6ImVec2C2Eff
	.type	_ZN6ImVec2C2Eff, %function
_ZN6ImVec2C2Eff:
.LFB4:
	.cfi_startproc
	sub	sp, sp, #16
	.cfi_def_cfa_offset 16
	str	x0, [sp, 8]
	str	s0, [sp, 4]
	str	s1, [sp]
	ldr	x0, [sp, 8]
	ldr	s0, [sp, 4]
	str	s0, [x0]
	ldr	x0, [sp, 8]
	ldr	s0, [sp]
	str	s0, [x0, 4]
	nop
	add	sp, sp, 16
	.cfi_def_cfa_offset 0
	ret
	.cfi_endproc
.LFE4:
	.size	_ZN6ImVec2C2Eff, .-_ZN6ImVec2C2Eff
	.weak	_ZN6ImVec2C1Eff
	.set	_ZN6ImVec2C1Eff,_ZN6ImVec2C2Eff
	.section	.text._ZN6ImVec4C2Ev,"axG",@progbits,_ZN6ImVec4C5Ev,comdat
	.align	2
	.weak	_ZN6ImVec4C2Ev
	.type	_ZN6ImVec4C2Ev, %function
_ZN6ImVec4C2Ev:
.LFB9:
	.cfi_startproc
	sub	sp, sp, #16
	.cfi_def_cfa_offset 16
	str	x0, [sp, 8]
	ldr	x0, [sp, 8]
	str	wzr, [x0]
	ldr	x0, [sp, 8]
	str	wzr, [x0, 4]
	ldr	x0, [sp, 8]
	str	wzr, [x0, 8]
	ldr	x0, [sp, 8]
	str	wzr, [x0, 12]
	nop
	add	sp, sp, 16
	.cfi_def_cfa_offset 0
	ret
	.cfi_endproc
.LFE9:
	.size	_ZN6ImVec4C2Ev, .-_ZN6ImVec4C2Ev
	.weak	_ZN6ImVec4C1Ev
	.set	_ZN6ImVec4C1Ev,_ZN6ImVec4C2Ev
	.section	.text._ZN6ImVec4C2Effff,"axG",@progbits,_ZN6ImVec4C5Effff,comdat
	.align	2
	.weak	_ZN6ImVec4C2Effff
	.type	_ZN6ImVec4C2Effff, %function
_ZN6ImVec4C2Effff:
.LFB12:
	.cfi_startproc
	sub	sp, sp, #32
	.cfi_def_cfa_offset 32
	str	x0, [sp, 24]
	str	s0, [sp, 20]
	str	s1, [sp, 16]
	str	s2, [sp, 12]
	str	s3, [sp, 8]
	ldr	x0, [sp, 24]
	ldr	s0, [sp, 20]
	str	s0, [x0]
	ldr	x0, [sp, 24]
	ldr	s0, [sp, 16]
	str	s0, [x0, 4]
	ldr	x0, [sp, 24]
	ldr	s0, [sp, 12]
	str	s0, [x0, 8]
	ldr	x0, [sp, 24]
	ldr	s0, [sp, 8]
	str	s0, [x0, 12]
	nop
	add	sp, sp, 32
	.cfi_def_cfa_offset 0
	ret
	.cfi_endproc
.LFE12:
	.size	_ZN6ImVec4C2Effff, .-_ZN6ImVec4C2Effff
	.weak	_ZN6ImVec4C1Effff
	.set	_ZN6ImVec4C1Effff,_ZN6ImVec4C2Effff
	.section	.text._ZN26ImGuiInputTextCallbackData9SelectAllEv,"axG",@progbits,_ZN26ImGuiInputTextCallbackData9SelectAllEv,comdat
	.align	2
	.weak	_ZN26ImGuiInputTextCallbackData9SelectAllEv
	.type	_ZN26ImGuiInputTextCallbackData9SelectAllEv, %function
_ZN26ImGuiInputTextCallbackData9SelectAllEv:
.LFB59:
	.cfi_startproc
	sub	sp, sp, #16
	.cfi_def_cfa_offset 16
	str	x0, [sp, 8]
	ldr	x0, [sp, 8]
	str	wzr, [x0, 48]
	ldr	x0, [sp, 8]
	ldr	w1, [x0, 32]
	ldr	x0, [sp, 8]
	str	w1, [x0, 52]
	nop
	add	sp, sp, 16
	.cfi_def_cfa_offset 0
	ret
	.cfi_endproc
.LFE59:
	.size	_ZN26ImGuiInputTextCallbackData9SelectAllEv, .-_ZN26ImGuiInputTextCallbackData9SelectAllEv
	.section	.text._ZNK15ImGuiTextFilter8IsActiveEv,"axG",@progbits,_ZNK15ImGuiTextFilter8IsActiveEv,comdat
	.align	2
	.weak	_ZNK15ImGuiTextFilter8IsActiveEv
	.type	_ZNK15ImGuiTextFilter8IsActiveEv, %function
_ZNK15ImGuiTextFilter8IsActiveEv:
.LFB80:
	.cfi_startproc
	stp	x29, x30, [sp, -32]!
	.cfi_def_cfa_offset 32
	.cfi_offset 29, -32
	.cfi_offset 30, -24
	mov	x29, sp
	str	x0, [sp, 24]
	ldr	x0, [sp, 24]
	add	x0, x0, 256
	bl	_ZNK8ImVectorIN15ImGuiTextFilter14ImGuiTextRangeEE5emptyEv
	and	w0, w0, 255
	eor	w0, w0, 1
	and	w0, w0, 255
	ldp	x29, x30, [sp], 32
	.cfi_restore 30
	.cfi_restore 29
	.cfi_def_cfa_offset 0
	ret
	.cfi_endproc
.LFE80:
	.size	_ZNK15ImGuiTextFilter8IsActiveEv, .-_ZNK15ImGuiTextFilter8IsActiveEv
	.section	.text._ZN15ImGuiTextBufferC2Ev,"axG",@progbits,_ZN15ImGuiTextBufferC5Ev,comdat
	.align	2
	.weak	_ZN15ImGuiTextBufferC2Ev
	.type	_ZN15ImGuiTextBufferC2Ev, %function
_ZN15ImGuiTextBufferC2Ev:
.LFB89:
	.cfi_startproc
	stp	x29, x30, [sp, -32]!
	.cfi_def_cfa_offset 32
	.cfi_offset 29, -32
	.cfi_offset 30, -24
	mov	x29, sp
	str	x0, [sp, 24]
	ldr	x0, [sp, 24]
	bl	_ZN8ImVectorIcEC1Ev
	nop
	ldp	x29, x30, [sp], 32
	.cfi_restore 30
	.cfi_restore 29
	.cfi_def_cfa_offset 0
	ret
	.cfi_endproc
.LFE89:
	.size	_ZN15ImGuiTextBufferC2Ev, .-_ZN15ImGuiTextBufferC2Ev
	.weak	_ZN15ImGuiTextBufferC1Ev
	.set	_ZN15ImGuiTextBufferC1Ev,_ZN15ImGuiTextBufferC2Ev
	.section	.rodata
	.align	3
.LC150:
	.string	"char ImGuiTextBuffer::operator[](int) const"
	.align	3
.LC151:
	.string	"/media/psf/Home/Desktop/git/C-/mac/myproject/external/imgui/include/imgui.h"
	.align	3
.LC152:
	.string	"Buf.Data != __null"
	.section	.text._ZNK15ImGuiTextBufferixEi,"axG",@progbits,_ZNK15ImGuiTextBufferixEi,comdat
	.align	2
	.weak	_ZNK15ImGuiTextBufferixEi
	.type	_ZNK15ImGuiTextBufferixEi, %function
_ZNK15ImGuiTextBufferixEi:
.LFB91:
	.cfi_startproc
	stp	x29, x30, [sp, -32]!
	.cfi_def_cfa_offset 32
	.cfi_offset 29, -32
	.cfi_offset 30, -24
	mov	x29, sp
	str	x0, [sp, 24]
	str	w1, [sp, 20]
	ldr	x0, [sp, 24]
	ldr	x0, [x0, 8]
	cmp	x0, 0
	bne	.L9
	adrp	x0, .LC150
	add	x3, x0, :lo12:.LC150
	mov	w2, 2211
	adrp	x0, .LC151
	add	x1, x0, :lo12:.LC151
	adrp	x0, .LC152
	add	x0, x0, :lo12:.LC152
	bl	__assert_fail
.L9:
	ldr	x0, [sp, 24]
	ldr	x1, [x0, 8]
	ldrsw	x0, [sp, 20]
	add	x0, x1, x0
	ldrb	w0, [x0]
	ldp	x29, x30, [sp], 32
	.cfi_restore 30
	.cfi_restore 29
	.cfi_def_cfa_offset 0
	ret
	.cfi_endproc
.LFE91:
	.size	_ZNK15ImGuiTextBufferixEi, .-_ZNK15ImGuiTextBufferixEi
	.section	.text._ZNK15ImGuiTextBuffer5beginEv,"axG",@progbits,_ZNK15ImGuiTextBuffer5beginEv,comdat
	.align	2
	.weak	_ZNK15ImGuiTextBuffer5beginEv
	.type	_ZNK15ImGuiTextBuffer5beginEv, %function
_ZNK15ImGuiTextBuffer5beginEv:
.LFB92:
	.cfi_startproc
	stp	x29, x30, [sp, -32]!
	.cfi_def_cfa_offset 32
	.cfi_offset 29, -32
	.cfi_offset 30, -24
	mov	x29, sp
	str	x0, [sp, 24]
	ldr	x0, [sp, 24]
	ldr	x0, [x0, 8]
	cmp	x0, 0
	beq	.L12
	ldr	x0, [sp, 24]
	bl	_ZNK8ImVectorIcE5frontEv
	b	.L14
.L12:
	adrp	x0, :got:_ZN15ImGuiTextBuffer11EmptyStringE
	ldr	x0, [x0, #:got_lo12:_ZN15ImGuiTextBuffer11EmptyStringE]
.L14:
	ldp	x29, x30, [sp], 32
	.cfi_restore 30
	.cfi_restore 29
	.cfi_def_cfa_offset 0
	ret
	.cfi_endproc
.LFE92:
	.size	_ZNK15ImGuiTextBuffer5beginEv, .-_ZNK15ImGuiTextBuffer5beginEv
	.section	.text._ZNK15ImGuiTextBuffer3endEv,"axG",@progbits,_ZNK15ImGuiTextBuffer3endEv,comdat
	.align	2
	.weak	_ZNK15ImGuiTextBuffer3endEv
	.type	_ZNK15ImGuiTextBuffer3endEv, %function
_ZNK15ImGuiTextBuffer3endEv:
.LFB93:
	.cfi_startproc
	stp	x29, x30, [sp, -32]!
	.cfi_def_cfa_offset 32
	.cfi_offset 29, -32
	.cfi_offset 30, -24
	mov	x29, sp
	str	x0, [sp, 24]
	ldr	x0, [sp, 24]
	ldr	x0, [x0, 8]
	cmp	x0, 0
	beq	.L16
	ldr	x0, [sp, 24]
	bl	_ZNK8ImVectorIcE4backEv
	b	.L18
.L16:
	adrp	x0, :got:_ZN15ImGuiTextBuffer11EmptyStringE
	ldr	x0, [x0, #:got_lo12:_ZN15ImGuiTextBuffer11EmptyStringE]
.L18:
	ldp	x29, x30, [sp], 32
	.cfi_restore 30
	.cfi_restore 29
	.cfi_def_cfa_offset 0
	ret
	.cfi_endproc
.LFE93:
	.size	_ZNK15ImGuiTextBuffer3endEv, .-_ZNK15ImGuiTextBuffer3endEv
	.section	.text._ZNK15ImGuiTextBuffer4sizeEv,"axG",@progbits,_ZNK15ImGuiTextBuffer4sizeEv,comdat
	.align	2
	.weak	_ZNK15ImGuiTextBuffer4sizeEv
	.type	_ZNK15ImGuiTextBuffer4sizeEv, %function
_ZNK15ImGuiTextBuffer4sizeEv:
.LFB94:
	.cfi_startproc
	sub	sp, sp, #16
	.cfi_def_cfa_offset 16
	str	x0, [sp, 8]
	ldr	x0, [sp, 8]
	ldr	w0, [x0]
	cmp	w0, 0
	beq	.L20
	ldr	x0, [sp, 8]
	ldr	w0, [x0]
	sub	w0, w0, #1
	b	.L22
.L20:
	mov	w0, 0
.L22:
	add	sp, sp, 16
	.cfi_def_cfa_offset 0
	ret
	.cfi_endproc
.LFE94:
	.size	_ZNK15ImGuiTextBuffer4sizeEv, .-_ZNK15ImGuiTextBuffer4sizeEv
	.section	.text._ZN15ImGuiTextBuffer5clearEv,"axG",@progbits,_ZN15ImGuiTextBuffer5clearEv,comdat
	.align	2
	.weak	_ZN15ImGuiTextBuffer5clearEv
	.type	_ZN15ImGuiTextBuffer5clearEv, %function
_ZN15ImGuiTextBuffer5clearEv:
.LFB96:
	.cfi_startproc
	stp	x29, x30, [sp, -32]!
	.cfi_def_cfa_offset 32
	.cfi_offset 29, -32
	.cfi_offset 30, -24
	mov	x29, sp
	str	x0, [sp, 24]
	ldr	x0, [sp, 24]
	bl	_ZN8ImVectorIcE5clearEv
	nop
	ldp	x29, x30, [sp], 32
	.cfi_restore 30
	.cfi_restore 29
	.cfi_def_cfa_offset 0
	ret
	.cfi_endproc
.LFE96:
	.size	_ZN15ImGuiTextBuffer5clearEv, .-_ZN15ImGuiTextBuffer5clearEv
	.section	.text._ZN7ImColorC2Effff,"axG",@progbits,_ZN7ImColorC5Effff,comdat
	.align	2
	.weak	_ZN7ImColorC2Effff
	.type	_ZN7ImColorC2Effff, %function
_ZN7ImColorC2Effff:
.LFB116:
	.cfi_startproc
	stp	x29, x30, [sp, -48]!
	.cfi_def_cfa_offset 48
	.cfi_offset 29, -48
	.cfi_offset 30, -40
	mov	x29, sp
	str	x0, [sp, 40]
	str	s0, [sp, 36]
	str	s1, [sp, 32]
	str	s2, [sp, 28]
	str	s3, [sp, 24]
	ldr	x0, [sp, 40]
	ldr	s3, [sp, 24]
	ldr	s2, [sp, 28]
	ldr	s1, [sp, 32]
	ldr	s0, [sp, 36]
	bl	_ZN6ImVec4C1Effff
	nop
	ldp	x29, x30, [sp], 48
	.cfi_restore 30
	.cfi_restore 29
	.cfi_def_cfa_offset 0
	ret
	.cfi_endproc
.LFE116:
	.size	_ZN7ImColorC2Effff, .-_ZN7ImColorC2Effff
	.weak	_ZN7ImColorC1Effff
	.set	_ZN7ImColorC1Effff,_ZN7ImColorC2Effff
	.section	.text._ZN7ImColorC2ERK6ImVec4,"axG",@progbits,_ZN7ImColorC5ERK6ImVec4,comdat
	.align	2
	.weak	_ZN7ImColorC2ERK6ImVec4
	.type	_ZN7ImColorC2ERK6ImVec4, %function
_ZN7ImColorC2ERK6ImVec4:
.LFB119:
	.cfi_startproc
	sub	sp, sp, #16
	.cfi_def_cfa_offset 16
	str	x0, [sp, 8]
	str	x1, [sp]
	ldr	x2, [sp, 8]
	ldr	x0, [sp]
	ldp	x0, x1, [x0]
	stp	x0, x1, [x2]
	nop
	add	sp, sp, 16
	.cfi_def_cfa_offset 0
	ret
	.cfi_endproc
.LFE119:
	.size	_ZN7ImColorC2ERK6ImVec4, .-_ZN7ImColorC2ERK6ImVec4
	.weak	_ZN7ImColorC1ERK6ImVec4
	.set	_ZN7ImColorC1ERK6ImVec4,_ZN7ImColorC2ERK6ImVec4
	.section	.text._ZNK7ImColorcvjEv,"axG",@progbits,_ZNK7ImColorcvjEv,comdat
	.align	2
	.weak	_ZNK7ImColorcvjEv
	.type	_ZNK7ImColorcvjEv, %function
_ZNK7ImColorcvjEv:
.LFB127:
	.cfi_startproc
	stp	x29, x30, [sp, -32]!
	.cfi_def_cfa_offset 32
	.cfi_offset 29, -32
	.cfi_offset 30, -24
	mov	x29, sp
	str	x0, [sp, 24]
	ldr	x0, [sp, 24]
	bl	_ZN5ImGui23ColorConvertFloat4ToU32ERK6ImVec4
	ldp	x29, x30, [sp], 32
	.cfi_restore 30
	.cfi_restore 29
	.cfi_def_cfa_offset 0
	ret
	.cfi_endproc
.LFE127:
	.size	_ZNK7ImColorcvjEv, .-_ZNK7ImColorcvjEv
	.section	.text._ZNK7ImColorcv6ImVec4Ev,"axG",@progbits,_ZNK7ImColorcv6ImVec4Ev,comdat
	.align	2
	.weak	_ZNK7ImColorcv6ImVec4Ev
	.type	_ZNK7ImColorcv6ImVec4Ev, %function
_ZNK7ImColorcv6ImVec4Ev:
.LFB128:
	.cfi_startproc
	sub	sp, sp, #16
	.cfi_def_cfa_offset 16
	str	x0, [sp, 8]
	ldr	x0, [sp, 8]
	ldp	x0, x1, [x0]
	mov	x2, x0
	mov	x3, x1
	lsr	w4, w2, 0
	mov	x2, x0
	mov	x3, x1
	lsr	x2, x2, 32
	mov	w5, w2
	mov	x2, x0
	mov	x3, x1
	lsr	w2, w3, 0
	lsr	x0, x1, 32
	fmov	s0, w4
	fmov	s1, w5
	fmov	s2, w2
	fmov	s3, w0
	add	sp, sp, 16
	.cfi_def_cfa_offset 0
	ret
	.cfi_endproc
.LFE128:
	.size	_ZNK7ImColorcv6ImVec4Ev, .-_ZNK7ImColorcv6ImVec4Ev
	.section	.text._ZN7ImColor3HSVEffff,"axG",@progbits,_ZN7ImColor3HSVEffff,comdat
	.align	2
	.weak	_ZN7ImColor3HSVEffff
	.type	_ZN7ImColor3HSVEffff, %function
_ZN7ImColor3HSVEffff:
.LFB130:
	.cfi_startproc
	stp	x29, x30, [sp, -80]!
	.cfi_def_cfa_offset 80
	.cfi_offset 29, -80
	.cfi_offset 30, -72
	mov	x29, sp
	str	s0, [sp, 28]
	str	s1, [sp, 24]
	str	s2, [sp, 20]
	str	s3, [sp, 16]
	adrp	x0, :got:__stack_chk_guard
	ldr	x0, [x0, #:got_lo12:__stack_chk_guard]
	ldr	x1, [x0]
	str	x1, [sp, 72]
	mov	x1, 0
	add	x2, sp, 52
	add	x1, sp, 48
	add	x0, sp, 44
	ldr	s2, [sp, 20]
	ldr	s1, [sp, 24]
	ldr	s0, [sp, 28]
	bl	_ZN5ImGui20ColorConvertHSVtoRGBEfffRfS0_S0_
	ldr	s0, [sp, 44]
	ldr	s1, [sp, 48]
	ldr	s2, [sp, 52]
	add	x0, sp, 56
	ldr	s3, [sp, 16]
	bl	_ZN7ImColorC1Effff
	ldp	x0, x1, [sp, 56]
	mov	x2, x0
	mov	x3, x1
	lsr	w4, w2, 0
	mov	x2, x0
	mov	x3, x1
	lsr	x2, x2, 32
	mov	w5, w2
	mov	x2, x0
	mov	x3, x1
	lsr	w2, w3, 0
	lsr	x0, x1, 32
	fmov	s0, w4
	fmov	s1, w5
	fmov	s2, w2
	fmov	s3, w0
	adrp	x0, :got:__stack_chk_guard
	ldr	x0, [x0, #:got_lo12:__stack_chk_guard]
	ldr	x2, [sp, 72]
	ldr	x1, [x0]
	subs	x2, x2, x1
	mov	x1, 0
	beq	.L32
	bl	__stack_chk_fail
.L32:
	ldp	x29, x30, [sp], 80
	.cfi_restore 30
	.cfi_restore 29
	.cfi_def_cfa_offset 0
	ret
	.cfi_endproc
.LFE130:
	.size	_ZN7ImColor3HSVEffff, .-_ZN7ImColor3HSVEffff
	.section	.rodata
	.align	3
.LC153:
	.string	"<unknown>"
	.section	.text._ZNK6ImFont12GetDebugNameEv,"axG",@progbits,_ZNK6ImFont12GetDebugNameEv,comdat
	.align	2
	.weak	_ZNK6ImFont12GetDebugNameEv
	.type	_ZNK6ImFont12GetDebugNameEv, %function
_ZNK6ImFont12GetDebugNameEv:
.LFB186:
	.cfi_startproc
	sub	sp, sp, #16
	.cfi_def_cfa_offset 16
	str	x0, [sp, 8]
	ldr	x0, [sp, 8]
	ldr	x0, [x0, 72]
	cmp	x0, 0
	beq	.L34
	ldr	x0, [sp, 8]
	ldr	x0, [x0, 72]
	add	x0, x0, 86
	b	.L36
.L34:
	adrp	x0, .LC153
	add	x0, x0, :lo12:.LC153
.L36:
	add	sp, sp, 16
	.cfi_def_cfa_offset 0
	ret
	.cfi_endproc
.LFE186:
	.size	_ZNK6ImFont12GetDebugNameEv, .-_ZNK6ImFont12GetDebugNameEv
	.section	.text._ZNK13ImGuiViewport9GetCenterEv,"axG",@progbits,_ZNK13ImGuiViewport9GetCenterEv,comdat
	.align	2
	.weak	_ZNK13ImGuiViewport9GetCenterEv
	.type	_ZNK13ImGuiViewport9GetCenterEv, %function
_ZNK13ImGuiViewport9GetCenterEv:
.LFB190:
	.cfi_startproc
	stp	x29, x30, [sp, -48]!
	.cfi_def_cfa_offset 48
	.cfi_offset 29, -48
	.cfi_offset 30, -40
	mov	x29, sp
	str	x0, [sp, 24]
	adrp	x0, :got:__stack_chk_guard
	ldr	x0, [x0, #:got_lo12:__stack_chk_guard]
	ldr	x1, [x0]
	str	x1, [sp, 40]
	mov	x1, 0
	ldr	x0, [sp, 24]
	ldr	s1, [x0, 4]
	ldr	x0, [sp, 24]
	ldr	s2, [x0, 12]
	fmov	s0, 5.0e-1
	fmul	s0, s2, s0
	fadd	s3, s1, s0
	ldr	x0, [sp, 24]
	ldr	s1, [x0, 8]
	ldr	x0, [sp, 24]
	ldr	s2, [x0, 16]
	fmov	s0, 5.0e-1
	fmul	s0, s2, s0
	fadd	s0, s1, s0
	add	x0, sp, 32
	fmov	s1, s0
	fmov	s0, s3
	bl	_ZN6ImVec2C1Eff
	ldr	x0, [sp, 32]
	mov	x1, x0
	lsr	w1, w1, 0
	lsr	x0, x0, 32
	fmov	s0, w1
	fmov	s1, w0
	adrp	x0, :got:__stack_chk_guard
	ldr	x0, [x0, #:got_lo12:__stack_chk_guard]
	ldr	x2, [sp, 40]
	ldr	x1, [x0]
	subs	x2, x2, x1
	mov	x1, 0
	beq	.L39
	bl	__stack_chk_fail
.L39:
	ldp	x29, x30, [sp], 48
	.cfi_restore 30
	.cfi_restore 29
	.cfi_def_cfa_offset 0
	ret
	.cfi_endproc
.LFE190:
	.size	_ZNK13ImGuiViewport9GetCenterEv, .-_ZNK13ImGuiViewport9GetCenterEv
	.section	.rodata
	.align	3
.LC154:
	.string	"(?)"
	.text
	.align	2
	.type	_ZL10HelpMarkerPKc, %function
_ZL10HelpMarkerPKc:
.LFB1149:
	.cfi_startproc
	stp	x29, x30, [sp, -32]!
	.cfi_def_cfa_offset 32
	.cfi_offset 29, -32
	.cfi_offset 30, -24
	mov	x29, sp
	str	x0, [sp, 24]
	adrp	x0, .LC154
	add	x0, x0, :lo12:.LC154
	bl	_ZN5ImGui12TextDisabledEPKcz
	mov	w0, 4096
	bl	_ZN5ImGui13IsItemHoveredEi
	and	w0, w0, 255
	cmp	w0, 0
	beq	.L42
	bl	_ZN5ImGui12BeginTooltipEv
	bl	_ZN5ImGui11GetFontSizeEv
	mov	w0, 1108082688
	fmov	s1, w0
	fmul	s0, s0, s1
	bl	_ZN5ImGui15PushTextWrapPosEf
	mov	x1, 0
	ldr	x0, [sp, 24]
	bl	_ZN5ImGui15TextUnformattedEPKcS1_
	bl	_ZN5ImGui14PopTextWrapPosEv
	bl	_ZN5ImGui10EndTooltipEv
.L42:
	nop
	ldp	x29, x30, [sp], 32
	.cfi_restore 30
	.cfi_restore 29
	.cfi_def_cfa_offset 0
	ret
	.cfi_endproc
.LFE1149:
	.size	_ZL10HelpMarkerPKc, .-_ZL10HelpMarkerPKc
	.global	GImGuiDemoMarkerCallback
	.bss
	.align	3
	.type	GImGuiDemoMarkerCallback, %object
	.size	GImGuiDemoMarkerCallback, 8
GImGuiDemoMarkerCallback:
	.zero	8
	.global	GImGuiDemoMarkerCallbackUserData
	.align	3
	.type	GImGuiDemoMarkerCallbackUserData, %object
	.size	GImGuiDemoMarkerCallbackUserData, 8
GImGuiDemoMarkerCallbackUserData:
	.zero	8
	.local	_ZZN5ImGui14ShowDemoWindowEPbE22show_app_main_menu_bar
	.comm	_ZZN5ImGui14ShowDemoWindowEPbE22show_app_main_menu_bar,1,1
	.local	_ZZN5ImGui14ShowDemoWindowEPbE18show_app_documents
	.comm	_ZZN5ImGui14ShowDemoWindowEPbE18show_app_documents,1,1
	.local	_ZZN5ImGui14ShowDemoWindowEPbE16show_app_console
	.comm	_ZZN5ImGui14ShowDemoWindowEPbE16show_app_console,1,1
	.local	_ZZN5ImGui14ShowDemoWindowEPbE12show_app_log
	.comm	_ZZN5ImGui14ShowDemoWindowEPbE12show_app_log,1,1
	.local	_ZZN5ImGui14ShowDemoWindowEPbE15show_app_layout
	.comm	_ZZN5ImGui14ShowDemoWindowEPbE15show_app_layout,1,1
	.local	_ZZN5ImGui14ShowDemoWindowEPbE24show_app_property_editor
	.comm	_ZZN5ImGui14ShowDemoWindowEPbE24show_app_property_editor,1,1
	.local	_ZZN5ImGui14ShowDemoWindowEPbE18show_app_long_text
	.comm	_ZZN5ImGui14ShowDemoWindowEPbE18show_app_long_text,1,1
	.local	_ZZN5ImGui14ShowDemoWindowEPbE20show_app_auto_resize
	.comm	_ZZN5ImGui14ShowDemoWindowEPbE20show_app_auto_resize,1,1
	.local	_ZZN5ImGui14ShowDemoWindowEPbE27show_app_constrained_resize
	.comm	_ZZN5ImGui14ShowDemoWindowEPbE27show_app_constrained_resize,1,1
	.local	_ZZN5ImGui14ShowDemoWindowEPbE23show_app_simple_overlay
	.comm	_ZZN5ImGui14ShowDemoWindowEPbE23show_app_simple_overlay,1,1
	.local	_ZZN5ImGui14ShowDemoWindowEPbE19show_app_fullscreen
	.comm	_ZZN5ImGui14ShowDemoWindowEPbE19show_app_fullscreen,1,1
	.local	_ZZN5ImGui14ShowDemoWindowEPbE22show_app_window_titles
	.comm	_ZZN5ImGui14ShowDemoWindowEPbE22show_app_window_titles,1,1
	.local	_ZZN5ImGui14ShowDemoWindowEPbE25show_app_custom_rendering
	.comm	_ZZN5ImGui14ShowDemoWindowEPbE25show_app_custom_rendering,1,1
	.local	_ZZN5ImGui14ShowDemoWindowEPbE16show_app_metrics
	.comm	_ZZN5ImGui14ShowDemoWindowEPbE16show_app_metrics,1,1
	.local	_ZZN5ImGui14ShowDemoWindowEPbE18show_app_debug_log
	.comm	_ZZN5ImGui14ShowDemoWindowEPbE18show_app_debug_log,1,1
	.local	_ZZN5ImGui14ShowDemoWindowEPbE19show_app_stack_tool
	.comm	_ZZN5ImGui14ShowDemoWindowEPbE19show_app_stack_tool,1,1
	.local	_ZZN5ImGui14ShowDemoWindowEPbE14show_app_about
	.comm	_ZZN5ImGui14ShowDemoWindowEPbE14show_app_about,1,1
	.local	_ZZN5ImGui14ShowDemoWindowEPbE21show_app_style_editor
	.comm	_ZZN5ImGui14ShowDemoWindowEPbE21show_app_style_editor,1,1
	.local	_ZZN5ImGui14ShowDemoWindowEPbE11no_titlebar
	.comm	_ZZN5ImGui14ShowDemoWindowEPbE11no_titlebar,1,1
	.local	_ZZN5ImGui14ShowDemoWindowEPbE12no_scrollbar
	.comm	_ZZN5ImGui14ShowDemoWindowEPbE12no_scrollbar,1,1
	.local	_ZZN5ImGui14ShowDemoWindowEPbE7no_menu
	.comm	_ZZN5ImGui14ShowDemoWindowEPbE7no_menu,1,1
	.local	_ZZN5ImGui14ShowDemoWindowEPbE7no_move
	.comm	_ZZN5ImGui14ShowDemoWindowEPbE7no_move,1,1
	.local	_ZZN5ImGui14ShowDemoWindowEPbE9no_resize
	.comm	_ZZN5ImGui14ShowDemoWindowEPbE9no_resize,1,1
	.local	_ZZN5ImGui14ShowDemoWindowEPbE11no_collapse
	.comm	_ZZN5ImGui14ShowDemoWindowEPbE11no_collapse,1,1
	.local	_ZZN5ImGui14ShowDemoWindowEPbE8no_close
	.comm	_ZZN5ImGui14ShowDemoWindowEPbE8no_close,1,1
	.local	_ZZN5ImGui14ShowDemoWindowEPbE6no_nav
	.comm	_ZZN5ImGui14ShowDemoWindowEPbE6no_nav,1,1
	.local	_ZZN5ImGui14ShowDemoWindowEPbE13no_background
	.comm	_ZZN5ImGui14ShowDemoWindowEPbE13no_background,1,1
	.local	_ZZN5ImGui14ShowDemoWindowEPbE17no_bring_to_front
	.comm	_ZZN5ImGui14ShowDemoWindowEPbE17no_bring_to_front,1,1
	.local	_ZZN5ImGui14ShowDemoWindowEPbE16unsaved_document
	.comm	_ZZN5ImGui14ShowDemoWindowEPbE16unsaved_document,1,1
	.section	.rodata
	.align	3
.LC155:
	.string	"void ImGui::ShowDemoWindow(bool*)"
	.align	3
.LC156:
	.string	"/media/psf/Home/Desktop/git/C-/mac/myproject/external/imgui/src/imgui_demo.cpp"
	.align	3
.LC157:
	.string	"ImGui::GetCurrentContext() != __null && \"Missing dear imgui context. Refer to examples app!\""
	.align	3
.LC158:
	.string	"Dear ImGui Style Editor"
	.align	3
.LC159:
	.string	"Dear ImGui Demo"
	.align	3
.LC160:
	.string	"Menu"
	.align	3
.LC161:
	.string	"Menu/File"
	.align	3
.LC162:
	.string	"Examples"
	.align	3
.LC163:
	.string	"Menu/Examples"
	.align	3
.LC164:
	.string	"Main menu bar"
	.align	3
.LC165:
	.string	"Console"
	.align	3
.LC166:
	.string	"Log"
	.align	3
.LC167:
	.string	"Simple layout"
	.align	3
.LC168:
	.string	"Property editor"
	.align	3
.LC169:
	.string	"Long text display"
	.align	3
.LC170:
	.string	"Auto-resizing window"
	.align	3
.LC171:
	.string	"Constrained-resizing window"
	.align	3
.LC172:
	.string	"Simple overlay"
	.align	3
.LC173:
	.string	"Fullscreen window"
	.align	3
.LC174:
	.string	"Manipulating window titles"
	.align	3
.LC175:
	.string	"Custom rendering"
	.align	3
.LC176:
	.string	"Documents"
	.align	3
.LC177:
	.string	"Tools"
	.align	3
.LC178:
	.string	"Menu/Tools"
	.align	3
.LC179:
	.string	"Metrics/Debugger"
	.align	3
.LC180:
	.string	"Debug Log"
	.align	3
.LC181:
	.string	"Stack Tool"
	.align	3
.LC182:
	.string	"Style Editor"
	.align	3
.LC183:
	.string	"About Dear ImGui"
	.align	3
.LC184:
	.string	"1.89.1 WIP"
	.align	3
.LC185:
	.string	"dear imgui says hello! (%s) (%d)"
	.align	3
.LC186:
	.string	"Help"
	.align	3
.LC187:
	.string	"ABOUT THIS DEMO:"
	.align	3
.LC188:
	.string	"Sections below are demonstrating many aspects of the library."
	.align	3
.LC189:
	.string	"The \"Examples\" menu above leads to more demo contents."
	.align	3
.LC190:
	.string	"The \"Tools\" menu above gives access to: About Box, Style Editor,\nand Metrics/Debugger (general purpose Dear ImGui debugging tool)."
	.align	3
.LC191:
	.string	"PROGRAMMER GUIDE:"
	.align	3
.LC192:
	.string	"See the ShowDemoWindow() code in imgui_demo.cpp. <- you are here!"
	.align	3
.LC193:
	.string	"See comments in imgui.cpp."
	.align	3
.LC194:
	.string	"See example applications in the examples/ folder."
	.align	3
.LC195:
	.string	"Read the FAQ at http://www.dearimgui.org/faq/"
	.align	3
.LC196:
	.string	"Set 'io.ConfigFlags |= NavEnableKeyboard' for keyboard controls."
	.align	3
.LC197:
	.string	"Set 'io.ConfigFlags |= NavEnableGamepad' for gamepad controls."
	.align	3
.LC198:
	.string	"USER GUIDE:"
	.align	3
.LC199:
	.string	"Configuration"
	.align	3
.LC200:
	.string	"Configuration##2"
	.align	3
.LC201:
	.string	"io.ConfigFlags: NavEnableKeyboard"
	.align	3
.LC202:
	.string	"Enable keyboard controls."
	.align	3
.LC203:
	.string	"io.ConfigFlags: NavEnableGamepad"
	.align	3
.LC204:
	.string	"Enable gamepad controls. Require backend to set io.BackendFlags |= ImGuiBackendFlags_HasGamepad.\n\nRead instructions in imgui.cpp for details."
	.align	3
.LC205:
	.string	"io.ConfigFlags: NavEnableSetMousePos"
	.align	3
.LC206:
	.string	"Instruct navigation to move the mouse cursor. See comment for ImGuiConfigFlags_NavEnableSetMousePos."
	.align	3
.LC207:
	.string	"io.ConfigFlags: NoMouse"
	.align	3
.LC208:
	.string	"<<PRESS SPACE TO DISABLE>>"
	.align	3
.LC209:
	.string	"io.ConfigFlags: NoMouseCursorChange"
	.align	3
.LC210:
	.string	"Instruct backend to not alter mouse cursor shape and visibility."
	.align	3
.LC211:
	.string	"io.ConfigInputTrickleEventQueue"
	.align	3
.LC212:
	.string	"Enable input queue trickling: some types of events submitted during the same frame (e.g. button down + up) will be spread over multiple frames, improving interactions with low framerates."
	.align	3
.LC213:
	.string	"io.ConfigInputTextCursorBlink"
	.align	3
.LC214:
	.string	"Enable blinking cursor (optional as some users consider it to be distracting)."
	.align	3
.LC215:
	.string	"io.ConfigInputTextEnterKeepActive"
	.align	3
.LC216:
	.string	"Pressing Enter will keep item active and select contents (single-line only)."
	.align	3
.LC217:
	.string	"io.ConfigDragClickToInputText"
	.align	3
.LC218:
	.string	"Enable turning DragXXX widgets into text input with a simple mouse click-release (without moving)."
	.align	3
.LC219:
	.string	"io.ConfigWindowsResizeFromEdges"
	.align	3
.LC220:
	.string	"Enable resizing of windows from their edges and from the lower-left corner.\nThis requires (io.BackendFlags & ImGuiBackendFlags_HasMouseCursors) because it needs mouse cursor feedback."
	.align	3
.LC221:
	.string	"io.ConfigWindowsMoveFromTitleBarOnly"
	.align	3
.LC222:
	.string	"io.MouseDrawCursor"
	.align	3
.LC223:
	.ascii	"Instruct Dear ImGui to render a mouse cursor itself. Note th"
	.ascii	"at a mouse cursor rendered vi"
	.string	"a your application GPU rendering path will feel more laggy than hardware cursor, but will be more in sync with your other visuals.\n\nSome desktop applications may use both kinds of cursors (e.g. enable software cursor only when resizing/dragging something)."
	.align	3
.LC224:
	.string	"Also see Style->Rendering for rendering options."
	.align	3
.LC225:
	.string	"Configuration/Backend Flags"
	.align	3
.LC226:
	.string	"Backend Flags"
	.align	3
.LC227:
	.string	"Those flags are set by the backends (imgui_impl_xxx files) to specify their capabilities.\nHere we expose them as read-only fields to avoid breaking interactions with your backend."
	.align	3
.LC228:
	.string	"io.BackendFlags: HasGamepad"
	.align	3
.LC229:
	.string	"io.BackendFlags: HasMouseCursors"
	.align	3
.LC230:
	.string	"io.BackendFlags: HasSetMousePos"
	.align	3
.LC231:
	.string	"io.BackendFlags: RendererHasVtxOffset"
	.align	3
.LC232:
	.string	"Configuration/Style"
	.align	3
.LC233:
	.string	"Style"
	.align	3
.LC234:
	.string	"The same contents can be accessed in 'Tools->Style Editor' or by calling the ShowStyleEditor() function."
	.align	3
.LC235:
	.string	"Configuration/Capture, Logging"
	.align	3
.LC236:
	.string	"Capture/Logging"
	.align	3
.LC237:
	.string	"The logging API redirects all text output so you can easily capture the content of a window or a block. Tree nodes can be automatically expanded.\nTry opening any of the contents below in this window and then click one of the \"Log To\" button."
	.align	3
.LC238:
	.string	"You can also call ImGui::LogText() to output directly to the log without a visual output."
	.align	3
.LC239:
	.string	"Copy \"Hello, world!\" to clipboard"
	.align	3
.LC240:
	.string	"Hello, world!"
	.align	3
.LC241:
	.string	"Window options"
	.align	3
.LC242:
	.string	"split"
	.align	3
.LC243:
	.string	"No titlebar"
	.align	3
.LC244:
	.string	"No scrollbar"
	.align	3
.LC245:
	.string	"No menu"
	.align	3
.LC246:
	.string	"No move"
	.align	3
.LC247:
	.string	"No resize"
	.align	3
.LC248:
	.string	"No collapse"
	.align	3
.LC249:
	.string	"No close"
	.align	3
.LC250:
	.string	"No nav"
	.align	3
.LC251:
	.string	"No background"
	.align	3
.LC252:
	.string	"No bring to front"
	.align	3
.LC253:
	.string	"Unsaved document"
	.text
	.align	2
	.global	_ZN5ImGui14ShowDemoWindowEPb
	.type	_ZN5ImGui14ShowDemoWindowEPb, %function
_ZN5ImGui14ShowDemoWindowEPb:
.LFB1150:
	.cfi_startproc
	stp	x29, x30, [sp, -80]!
	.cfi_def_cfa_offset 80
	.cfi_offset 29, -80
	.cfi_offset 30, -72
	mov	x29, sp
	str	x0, [sp, 24]
	adrp	x0, :got:__stack_chk_guard
	ldr	x0, [x0, #:got_lo12:__stack_chk_guard]
	ldr	x1, [x0]
	str	x1, [sp, 72]
	mov	x1, 0
	bl	_ZN5ImGui17GetCurrentContextEv
	cmp	x0, 0
	bne	.L101
	adrp	x0, .LC155
	add	x3, x0, :lo12:.LC155
	mov	w2, 251
	adrp	x0, .LC156
	add	x1, x0, :lo12:.LC156
	adrp	x0, .LC157
	add	x0, x0, :lo12:.LC157
	bl	__assert_fail
.L101:
	nop
	adrp	x0, _ZZN5ImGui14ShowDemoWindowEPbE22show_app_main_menu_bar
	add	x0, x0, :lo12:_ZZN5ImGui14ShowDemoWindowEPbE22show_app_main_menu_bar
	ldrb	w0, [x0]
	cmp	w0, 0
	beq	.L46
	bl	_ZL25ShowExampleAppMainMenuBarv
.L46:
	adrp	x0, _ZZN5ImGui14ShowDemoWindowEPbE18show_app_documents
	add	x0, x0, :lo12:_ZZN5ImGui14ShowDemoWindowEPbE18show_app_documents
	ldrb	w0, [x0]
	cmp	w0, 0
	beq	.L47
	adrp	x0, _ZZN5ImGui14ShowDemoWindowEPbE18show_app_documents
	add	x0, x0, :lo12:_ZZN5ImGui14ShowDemoWindowEPbE18show_app_documents
	bl	_ZL23ShowExampleAppDocumentsPb
.L47:
	adrp	x0, _ZZN5ImGui14ShowDemoWindowEPbE16show_app_console
	add	x0, x0, :lo12:_ZZN5ImGui14ShowDemoWindowEPbE16show_app_console
	ldrb	w0, [x0]
	cmp	w0, 0
	beq	.L48
	adrp	x0, _ZZN5ImGui14ShowDemoWindowEPbE16show_app_console
	add	x0, x0, :lo12:_ZZN5ImGui14ShowDemoWindowEPbE16show_app_console
	bl	_ZL21ShowExampleAppConsolePb
.L48:
	adrp	x0, _ZZN5ImGui14ShowDemoWindowEPbE12show_app_log
	add	x0, x0, :lo12:_ZZN5ImGui14ShowDemoWindowEPbE12show_app_log
	ldrb	w0, [x0]
	cmp	w0, 0
	beq	.L49
	adrp	x0, _ZZN5ImGui14ShowDemoWindowEPbE12show_app_log
	add	x0, x0, :lo12:_ZZN5ImGui14ShowDemoWindowEPbE12show_app_log
	bl	_ZL17ShowExampleAppLogPb
.L49:
	adrp	x0, _ZZN5ImGui14ShowDemoWindowEPbE15show_app_layout
	add	x0, x0, :lo12:_ZZN5ImGui14ShowDemoWindowEPbE15show_app_layout
	ldrb	w0, [x0]
	cmp	w0, 0
	beq	.L50
	adrp	x0, _ZZN5ImGui14ShowDemoWindowEPbE15show_app_layout
	add	x0, x0, :lo12:_ZZN5ImGui14ShowDemoWindowEPbE15show_app_layout
	bl	_ZL20ShowExampleAppLayoutPb
.L50:
	adrp	x0, _ZZN5ImGui14ShowDemoWindowEPbE24show_app_property_editor
	add	x0, x0, :lo12:_ZZN5ImGui14ShowDemoWindowEPbE24show_app_property_editor
	ldrb	w0, [x0]
	cmp	w0, 0
	beq	.L51
	adrp	x0, _ZZN5ImGui14ShowDemoWindowEPbE24show_app_property_editor
	add	x0, x0, :lo12:_ZZN5ImGui14ShowDemoWindowEPbE24show_app_property_editor
	bl	_ZL28ShowExampleAppPropertyEditorPb
.L51:
	adrp	x0, _ZZN5ImGui14ShowDemoWindowEPbE18show_app_long_text
	add	x0, x0, :lo12:_ZZN5ImGui14ShowDemoWindowEPbE18show_app_long_text
	ldrb	w0, [x0]
	cmp	w0, 0
	beq	.L52
	adrp	x0, _ZZN5ImGui14ShowDemoWindowEPbE18show_app_long_text
	add	x0, x0, :lo12:_ZZN5ImGui14ShowDemoWindowEPbE18show_app_long_text
	bl	_ZL22ShowExampleAppLongTextPb
.L52:
	adrp	x0, _ZZN5ImGui14ShowDemoWindowEPbE20show_app_auto_resize
	add	x0, x0, :lo12:_ZZN5ImGui14ShowDemoWindowEPbE20show_app_auto_resize
	ldrb	w0, [x0]
	cmp	w0, 0
	beq	.L53
	adrp	x0, _ZZN5ImGui14ShowDemoWindowEPbE20show_app_auto_resize
	add	x0, x0, :lo12:_ZZN5ImGui14ShowDemoWindowEPbE20show_app_auto_resize
	bl	_ZL24ShowExampleAppAutoResizePb
.L53:
	adrp	x0, _ZZN5ImGui14ShowDemoWindowEPbE27show_app_constrained_resize
	add	x0, x0, :lo12:_ZZN5ImGui14ShowDemoWindowEPbE27show_app_constrained_resize
	ldrb	w0, [x0]
	cmp	w0, 0
	beq	.L54
	adrp	x0, _ZZN5ImGui14ShowDemoWindowEPbE27show_app_constrained_resize
	add	x0, x0, :lo12:_ZZN5ImGui14ShowDemoWindowEPbE27show_app_constrained_resize
	bl	_ZL31ShowExampleAppConstrainedResizePb
.L54:
	adrp	x0, _ZZN5ImGui14ShowDemoWindowEPbE23show_app_simple_overlay
	add	x0, x0, :lo12:_ZZN5ImGui14ShowDemoWindowEPbE23show_app_simple_overlay
	ldrb	w0, [x0]
	cmp	w0, 0
	beq	.L55
	adrp	x0, _ZZN5ImGui14ShowDemoWindowEPbE23show_app_simple_overlay
	add	x0, x0, :lo12:_ZZN5ImGui14ShowDemoWindowEPbE23show_app_simple_overlay
	bl	_ZL27ShowExampleAppSimpleOverlayPb
.L55:
	adrp	x0, _ZZN5ImGui14ShowDemoWindowEPbE19show_app_fullscreen
	add	x0, x0, :lo12:_ZZN5ImGui14ShowDemoWindowEPbE19show_app_fullscreen
	ldrb	w0, [x0]
	cmp	w0, 0
	beq	.L56
	adrp	x0, _ZZN5ImGui14ShowDemoWindowEPbE19show_app_fullscreen
	add	x0, x0, :lo12:_ZZN5ImGui14ShowDemoWindowEPbE19show_app_fullscreen
	bl	_ZL24ShowExampleAppFullscreenPb
.L56:
	adrp	x0, _ZZN5ImGui14ShowDemoWindowEPbE22show_app_window_titles
	add	x0, x0, :lo12:_ZZN5ImGui14ShowDemoWindowEPbE22show_app_window_titles
	ldrb	w0, [x0]
	cmp	w0, 0
	beq	.L57
	adrp	x0, _ZZN5ImGui14ShowDemoWindowEPbE22show_app_window_titles
	add	x0, x0, :lo12:_ZZN5ImGui14ShowDemoWindowEPbE22show_app_window_titles
	bl	_ZL26ShowExampleAppWindowTitlesPb
.L57:
	adrp	x0, _ZZN5ImGui14ShowDemoWindowEPbE25show_app_custom_rendering
	add	x0, x0, :lo12:_ZZN5ImGui14ShowDemoWindowEPbE25show_app_custom_rendering
	ldrb	w0, [x0]
	cmp	w0, 0
	beq	.L58
	adrp	x0, _ZZN5ImGui14ShowDemoWindowEPbE25show_app_custom_rendering
	add	x0, x0, :lo12:_ZZN5ImGui14ShowDemoWindowEPbE25show_app_custom_rendering
	bl	_ZL29ShowExampleAppCustomRenderingPb
.L58:
	adrp	x0, _ZZN5ImGui14ShowDemoWindowEPbE16show_app_metrics
	add	x0, x0, :lo12:_ZZN5ImGui14ShowDemoWindowEPbE16show_app_metrics
	ldrb	w0, [x0]
	cmp	w0, 0
	beq	.L59
	adrp	x0, _ZZN5ImGui14ShowDemoWindowEPbE16show_app_metrics
	add	x0, x0, :lo12:_ZZN5ImGui14ShowDemoWindowEPbE16show_app_metrics
	bl	_ZN5ImGui17ShowMetricsWindowEPb
.L59:
	adrp	x0, _ZZN5ImGui14ShowDemoWindowEPbE18show_app_debug_log
	add	x0, x0, :lo12:_ZZN5ImGui14ShowDemoWindowEPbE18show_app_debug_log
	ldrb	w0, [x0]
	cmp	w0, 0
	beq	.L60
	adrp	x0, _ZZN5ImGui14ShowDemoWindowEPbE18show_app_debug_log
	add	x0, x0, :lo12:_ZZN5ImGui14ShowDemoWindowEPbE18show_app_debug_log
	bl	_ZN5ImGui18ShowDebugLogWindowEPb
.L60:
	adrp	x0, _ZZN5ImGui14ShowDemoWindowEPbE19show_app_stack_tool
	add	x0, x0, :lo12:_ZZN5ImGui14ShowDemoWindowEPbE19show_app_stack_tool
	ldrb	w0, [x0]
	cmp	w0, 0
	beq	.L61
	adrp	x0, _ZZN5ImGui14ShowDemoWindowEPbE19show_app_stack_tool
	add	x0, x0, :lo12:_ZZN5ImGui14ShowDemoWindowEPbE19show_app_stack_tool
	bl	_ZN5ImGui19ShowStackToolWindowEPb
.L61:
	adrp	x0, _ZZN5ImGui14ShowDemoWindowEPbE14show_app_about
	add	x0, x0, :lo12:_ZZN5ImGui14ShowDemoWindowEPbE14show_app_about
	ldrb	w0, [x0]
	cmp	w0, 0
	beq	.L62
	adrp	x0, _ZZN5ImGui14ShowDemoWindowEPbE14show_app_about
	add	x0, x0, :lo12:_ZZN5ImGui14ShowDemoWindowEPbE14show_app_about
	bl	_ZN5ImGui15ShowAboutWindowEPb
.L62:
	adrp	x0, _ZZN5ImGui14ShowDemoWindowEPbE21show_app_style_editor
	add	x0, x0, :lo12:_ZZN5ImGui14ShowDemoWindowEPbE21show_app_style_editor
	ldrb	w0, [x0]
	cmp	w0, 0
	beq	.L63
	mov	w2, 0
	adrp	x0, _ZZN5ImGui14ShowDemoWindowEPbE21show_app_style_editor
	add	x1, x0, :lo12:_ZZN5ImGui14ShowDemoWindowEPbE21show_app_style_editor
	adrp	x0, .LC158
	add	x0, x0, :lo12:.LC158
	bl	_ZN5ImGui5BeginEPKcPbi
	mov	x0, 0
	bl	_ZN5ImGui15ShowStyleEditorEP10ImGuiStyle
	bl	_ZN5ImGui3EndEv
.L63:
	str	wzr, [sp, 36]
	adrp	x0, _ZZN5ImGui14ShowDemoWindowEPbE11no_titlebar
	add	x0, x0, :lo12:_ZZN5ImGui14ShowDemoWindowEPbE11no_titlebar
	ldrb	w0, [x0]
	cmp	w0, 0
	beq	.L64
	ldr	w0, [sp, 36]
	orr	w0, w0, 1
	str	w0, [sp, 36]
.L64:
	adrp	x0, _ZZN5ImGui14ShowDemoWindowEPbE12no_scrollbar
	add	x0, x0, :lo12:_ZZN5ImGui14ShowDemoWindowEPbE12no_scrollbar
	ldrb	w0, [x0]
	cmp	w0, 0
	beq	.L65
	ldr	w0, [sp, 36]
	orr	w0, w0, 8
	str	w0, [sp, 36]
.L65:
	adrp	x0, _ZZN5ImGui14ShowDemoWindowEPbE7no_menu
	add	x0, x0, :lo12:_ZZN5ImGui14ShowDemoWindowEPbE7no_menu
	ldrb	w0, [x0]
	eor	w0, w0, 1
	and	w0, w0, 255
	cmp	w0, 0
	beq	.L66
	ldr	w0, [sp, 36]
	orr	w0, w0, 1024
	str	w0, [sp, 36]
.L66:
	adrp	x0, _ZZN5ImGui14ShowDemoWindowEPbE7no_move
	add	x0, x0, :lo12:_ZZN5ImGui14ShowDemoWindowEPbE7no_move
	ldrb	w0, [x0]
	cmp	w0, 0
	beq	.L67
	ldr	w0, [sp, 36]
	orr	w0, w0, 4
	str	w0, [sp, 36]
.L67:
	adrp	x0, _ZZN5ImGui14ShowDemoWindowEPbE9no_resize
	add	x0, x0, :lo12:_ZZN5ImGui14ShowDemoWindowEPbE9no_resize
	ldrb	w0, [x0]
	cmp	w0, 0
	beq	.L68
	ldr	w0, [sp, 36]
	orr	w0, w0, 2
	str	w0, [sp, 36]
.L68:
	adrp	x0, _ZZN5ImGui14ShowDemoWindowEPbE11no_collapse
	add	x0, x0, :lo12:_ZZN5ImGui14ShowDemoWindowEPbE11no_collapse
	ldrb	w0, [x0]
	cmp	w0, 0
	beq	.L69
	ldr	w0, [sp, 36]
	orr	w0, w0, 32
	str	w0, [sp, 36]
.L69:
	adrp	x0, _ZZN5ImGui14ShowDemoWindowEPbE6no_nav
	add	x0, x0, :lo12:_ZZN5ImGui14ShowDemoWindowEPbE6no_nav
	ldrb	w0, [x0]
	cmp	w0, 0
	beq	.L70
	ldr	w0, [sp, 36]
	orr	w0, w0, 786432
	str	w0, [sp, 36]
.L70:
	adrp	x0, _ZZN5ImGui14ShowDemoWindowEPbE13no_background
	add	x0, x0, :lo12:_ZZN5ImGui14ShowDemoWindowEPbE13no_background
	ldrb	w0, [x0]
	cmp	w0, 0
	beq	.L71
	ldr	w0, [sp, 36]
	orr	w0, w0, 128
	str	w0, [sp, 36]
.L71:
	adrp	x0, _ZZN5ImGui14ShowDemoWindowEPbE17no_bring_to_front
	add	x0, x0, :lo12:_ZZN5ImGui14ShowDemoWindowEPbE17no_bring_to_front
	ldrb	w0, [x0]
	cmp	w0, 0
	beq	.L72
	ldr	w0, [sp, 36]
	orr	w0, w0, 8192
	str	w0, [sp, 36]
.L72:
	adrp	x0, _ZZN5ImGui14ShowDemoWindowEPbE16unsaved_document
	add	x0, x0, :lo12:_ZZN5ImGui14ShowDemoWindowEPbE16unsaved_document
	ldrb	w0, [x0]
	cmp	w0, 0
	beq	.L73
	ldr	w0, [sp, 36]
	orr	w0, w0, 1048576
	str	w0, [sp, 36]
.L73:
	adrp	x0, _ZZN5ImGui14ShowDemoWindowEPbE8no_close
	add	x0, x0, :lo12:_ZZN5ImGui14ShowDemoWindowEPbE8no_close
	ldrb	w0, [x0]
	cmp	w0, 0
	beq	.L74
	str	xzr, [sp, 24]
.L74:
	bl	_ZN5ImGui15GetMainViewportEv
	str	x0, [sp, 56]
	ldr	x0, [sp, 56]
	ldr	s0, [x0, 20]
	mov	w0, 32768
	movk	w0, 0x4422, lsl 16
	fmov	s1, w0
	fadd	s2, s0, s1
	ldr	x0, [sp, 56]
	ldr	s1, [x0, 24]
	fmov	s0, 2.0e+1
	fadd	s0, s1, s0
	add	x0, sp, 40
	fmov	s1, s0
	fmov	s0, s2
	bl	_ZN6ImVec2C1Eff
	add	x0, sp, 48
	movi	v1.2s, #0
	movi	v0.2s, #0
	bl	_ZN6ImVec2C1Eff
	add	x1, sp, 48
	add	x0, sp, 40
	mov	x2, x1
	mov	w1, 4
	bl	_ZN5ImGui16SetNextWindowPosERK6ImVec2iS2_
	add	x0, sp, 48
	mov	w1, 1143603200
	fmov	s1, w1
	mov	w1, 32768
	movk	w1, 0x4409, lsl 16
	fmov	s0, w1
	bl	_ZN6ImVec2C1Eff
	add	x0, sp, 48
	mov	w1, 4
	bl	_ZN5ImGui17SetNextWindowSizeERK6ImVec2i
	ldr	w2, [sp, 36]
	ldr	x1, [sp, 24]
	adrp	x0, .LC159
	add	x0, x0, :lo12:.LC159
	bl	_ZN5ImGui5BeginEPKcPbi
	and	w0, w0, 255
	eor	w0, w0, 1
	and	w0, w0, 255
	cmp	w0, 0
	beq	.L75
	bl	_ZN5ImGui3EndEv
	b	.L43
.L75:
	bl	_ZN5ImGui11GetFontSizeEv
	fmov	s1, s0
	fmov	s0, -1.2e+1
	fmul	s0, s1, s0
	bl	_ZN5ImGui13PushItemWidthEf
	bl	_ZN5ImGui12BeginMenuBarEv
	and	w0, w0, 255
	cmp	w0, 0
	beq	.L77
	mov	w1, 1
	adrp	x0, .LC160
	add	x0, x0, :lo12:.LC160
	bl	_ZN5ImGui9BeginMenuEPKcb
	and	w0, w0, 255
	cmp	w0, 0
	beq	.L78
	adrp	x0, GImGuiDemoMarkerCallback
	add	x0, x0, :lo12:GImGuiDemoMarkerCallback
	ldr	x0, [x0]
	cmp	x0, 0
	beq	.L79
	adrp	x0, GImGuiDemoMarkerCallback
	add	x0, x0, :lo12:GImGuiDemoMarkerCallback
	ldr	x4, [x0]
	adrp	x0, GImGuiDemoMarkerCallbackUserData
	add	x0, x0, :lo12:GImGuiDemoMarkerCallbackUserData
	ldr	x0, [x0]
	mov	x3, x0
	adrp	x0, .LC161
	add	x2, x0, :lo12:.LC161
	mov	w1, 355
	adrp	x0, .LC156
	add	x0, x0, :lo12:.LC156
	blr	x4
.L79:
	bl	_ZL19ShowExampleMenuFilev
	bl	_ZN5ImGui7EndMenuEv
.L78:
	mov	w1, 1
	adrp	x0, .LC162
	add	x0, x0, :lo12:.LC162
	bl	_ZN5ImGui9BeginMenuEPKcb
	and	w0, w0, 255
	cmp	w0, 0
	beq	.L80
	adrp	x0, GImGuiDemoMarkerCallback
	add	x0, x0, :lo12:GImGuiDemoMarkerCallback
	ldr	x0, [x0]
	cmp	x0, 0
	beq	.L81
	adrp	x0, GImGuiDemoMarkerCallback
	add	x0, x0, :lo12:GImGuiDemoMarkerCallback
	ldr	x4, [x0]
	adrp	x0, GImGuiDemoMarkerCallbackUserData
	add	x0, x0, :lo12:GImGuiDemoMarkerCallbackUserData
	ldr	x0, [x0]
	mov	x3, x0
	adrp	x0, .LC163
	add	x2, x0, :lo12:.LC163
	mov	w1, 361
	adrp	x0, .LC156
	add	x0, x0, :lo12:.LC156
	blr	x4
.L81:
	mov	w3, 1
	adrp	x0, _ZZN5ImGui14ShowDemoWindowEPbE22show_app_main_menu_bar
	add	x2, x0, :lo12:_ZZN5ImGui14ShowDemoWindowEPbE22show_app_main_menu_bar
	mov	x1, 0
	adrp	x0, .LC164
	add	x0, x0, :lo12:.LC164
	bl	_ZN5ImGui8MenuItemEPKcS1_Pbb
	mov	w3, 1
	adrp	x0, _ZZN5ImGui14ShowDemoWindowEPbE16show_app_console
	add	x2, x0, :lo12:_ZZN5ImGui14ShowDemoWindowEPbE16show_app_console
	mov	x1, 0
	adrp	x0, .LC165
	add	x0, x0, :lo12:.LC165
	bl	_ZN5ImGui8MenuItemEPKcS1_Pbb
	mov	w3, 1
	adrp	x0, _ZZN5ImGui14ShowDemoWindowEPbE12show_app_log
	add	x2, x0, :lo12:_ZZN5ImGui14ShowDemoWindowEPbE12show_app_log
	mov	x1, 0
	adrp	x0, .LC166
	add	x0, x0, :lo12:.LC166
	bl	_ZN5ImGui8MenuItemEPKcS1_Pbb
	mov	w3, 1
	adrp	x0, _ZZN5ImGui14ShowDemoWindowEPbE15show_app_layout
	add	x2, x0, :lo12:_ZZN5ImGui14ShowDemoWindowEPbE15show_app_layout
	mov	x1, 0
	adrp	x0, .LC167
	add	x0, x0, :lo12:.LC167
	bl	_ZN5ImGui8MenuItemEPKcS1_Pbb
	mov	w3, 1
	adrp	x0, _ZZN5ImGui14ShowDemoWindowEPbE24show_app_property_editor
	add	x2, x0, :lo12:_ZZN5ImGui14ShowDemoWindowEPbE24show_app_property_editor
	mov	x1, 0
	adrp	x0, .LC168
	add	x0, x0, :lo12:.LC168
	bl	_ZN5ImGui8MenuItemEPKcS1_Pbb
	mov	w3, 1
	adrp	x0, _ZZN5ImGui14ShowDemoWindowEPbE18show_app_long_text
	add	x2, x0, :lo12:_ZZN5ImGui14ShowDemoWindowEPbE18show_app_long_text
	mov	x1, 0
	adrp	x0, .LC169
	add	x0, x0, :lo12:.LC169
	bl	_ZN5ImGui8MenuItemEPKcS1_Pbb
	mov	w3, 1
	adrp	x0, _ZZN5ImGui14ShowDemoWindowEPbE20show_app_auto_resize
	add	x2, x0, :lo12:_ZZN5ImGui14ShowDemoWindowEPbE20show_app_auto_resize
	mov	x1, 0
	adrp	x0, .LC170
	add	x0, x0, :lo12:.LC170
	bl	_ZN5ImGui8MenuItemEPKcS1_Pbb
	mov	w3, 1
	adrp	x0, _ZZN5ImGui14ShowDemoWindowEPbE27show_app_constrained_resize
	add	x2, x0, :lo12:_ZZN5ImGui14ShowDemoWindowEPbE27show_app_constrained_resize
	mov	x1, 0
	adrp	x0, .LC171
	add	x0, x0, :lo12:.LC171
	bl	_ZN5ImGui8MenuItemEPKcS1_Pbb
	mov	w3, 1
	adrp	x0, _ZZN5ImGui14ShowDemoWindowEPbE23show_app_simple_overlay
	add	x2, x0, :lo12:_ZZN5ImGui14ShowDemoWindowEPbE23show_app_simple_overlay
	mov	x1, 0
	adrp	x0, .LC172
	add	x0, x0, :lo12:.LC172
	bl	_ZN5ImGui8MenuItemEPKcS1_Pbb
	mov	w3, 1
	adrp	x0, _ZZN5ImGui14ShowDemoWindowEPbE19show_app_fullscreen
	add	x2, x0, :lo12:_ZZN5ImGui14ShowDemoWindowEPbE19show_app_fullscreen
	mov	x1, 0
	adrp	x0, .LC173
	add	x0, x0, :lo12:.LC173
	bl	_ZN5ImGui8MenuItemEPKcS1_Pbb
	mov	w3, 1
	adrp	x0, _ZZN5ImGui14ShowDemoWindowEPbE22show_app_window_titles
	add	x2, x0, :lo12:_ZZN5ImGui14ShowDemoWindowEPbE22show_app_window_titles
	mov	x1, 0
	adrp	x0, .LC174
	add	x0, x0, :lo12:.LC174
	bl	_ZN5ImGui8MenuItemEPKcS1_Pbb
	mov	w3, 1
	adrp	x0, _ZZN5ImGui14ShowDemoWindowEPbE25show_app_custom_rendering
	add	x2, x0, :lo12:_ZZN5ImGui14ShowDemoWindowEPbE25show_app_custom_rendering
	mov	x1, 0
	adrp	x0, .LC175
	add	x0, x0, :lo12:.LC175
	bl	_ZN5ImGui8MenuItemEPKcS1_Pbb
	mov	w3, 1
	adrp	x0, _ZZN5ImGui14ShowDemoWindowEPbE18show_app_documents
	add	x2, x0, :lo12:_ZZN5ImGui14ShowDemoWindowEPbE18show_app_documents
	mov	x1, 0
	adrp	x0, .LC176
	add	x0, x0, :lo12:.LC176
	bl	_ZN5ImGui8MenuItemEPKcS1_Pbb
	bl	_ZN5ImGui7EndMenuEv
.L80:
	mov	w1, 1
	adrp	x0, .LC177
	add	x0, x0, :lo12:.LC177
	bl	_ZN5ImGui9BeginMenuEPKcb
	and	w0, w0, 255
	cmp	w0, 0
	beq	.L82
	adrp	x0, GImGuiDemoMarkerCallback
	add	x0, x0, :lo12:GImGuiDemoMarkerCallback
	ldr	x0, [x0]
	cmp	x0, 0
	beq	.L83
	adrp	x0, GImGuiDemoMarkerCallback
	add	x0, x0, :lo12:GImGuiDemoMarkerCallback
	ldr	x4, [x0]
	adrp	x0, GImGuiDemoMarkerCallbackUserData
	add	x0, x0, :lo12:GImGuiDemoMarkerCallbackUserData
	ldr	x0, [x0]
	mov	x3, x0
	adrp	x0, .LC178
	add	x2, x0, :lo12:.LC178
	mov	w1, 380
	adrp	x0, .LC156
	add	x0, x0, :lo12:.LC156
	blr	x4
.L83:
	mov	w0, 1
	strb	w0, [sp, 35]
	mov	w3, 1
	adrp	x0, _ZZN5ImGui14ShowDemoWindowEPbE16show_app_metrics
	add	x2, x0, :lo12:_ZZN5ImGui14ShowDemoWindowEPbE16show_app_metrics
	mov	x1, 0
	adrp	x0, .LC179
	add	x0, x0, :lo12:.LC179
	bl	_ZN5ImGui8MenuItemEPKcS1_Pbb
	mov	w3, 1
	adrp	x0, _ZZN5ImGui14ShowDemoWindowEPbE18show_app_debug_log
	add	x2, x0, :lo12:_ZZN5ImGui14ShowDemoWindowEPbE18show_app_debug_log
	mov	x1, 0
	adrp	x0, .LC180
	add	x0, x0, :lo12:.LC180
	bl	_ZN5ImGui8MenuItemEPKcS1_Pbb
	mov	w3, 1
	adrp	x0, _ZZN5ImGui14ShowDemoWindowEPbE19show_app_stack_tool
	add	x2, x0, :lo12:_ZZN5ImGui14ShowDemoWindowEPbE19show_app_stack_tool
	mov	x1, 0
	adrp	x0, .LC181
	add	x0, x0, :lo12:.LC181
	bl	_ZN5ImGui8MenuItemEPKcS1_Pbb
	mov	w3, 1
	adrp	x0, _ZZN5ImGui14ShowDemoWindowEPbE21show_app_style_editor
	add	x2, x0, :lo12:_ZZN5ImGui14ShowDemoWindowEPbE21show_app_style_editor
	mov	x1, 0
	adrp	x0, .LC182
	add	x0, x0, :lo12:.LC182
	bl	_ZN5ImGui8MenuItemEPKcS1_Pbb
	mov	w3, 1
	adrp	x0, _ZZN5ImGui14ShowDemoWindowEPbE14show_app_about
	add	x2, x0, :lo12:_ZZN5ImGui14ShowDemoWindowEPbE14show_app_about
	mov	x1, 0
	adrp	x0, .LC183
	add	x0, x0, :lo12:.LC183
	bl	_ZN5ImGui8MenuItemEPKcS1_Pbb
	bl	_ZN5ImGui7EndMenuEv
.L82:
	bl	_ZN5ImGui10EndMenuBarEv
.L77:
	mov	w2, 18903
	adrp	x0, .LC184
	add	x1, x0, :lo12:.LC184
	adrp	x0, .LC185
	add	x0, x0, :lo12:.LC185
	bl	_ZN5ImGui4TextEPKcz
	bl	_ZN5ImGui7SpacingEv
	adrp	x0, GImGuiDemoMarkerCallback
	add	x0, x0, :lo12:GImGuiDemoMarkerCallback
	ldr	x0, [x0]
	cmp	x0, 0
	beq	.L84
	adrp	x0, GImGuiDemoMarkerCallback
	add	x0, x0, :lo12:GImGuiDemoMarkerCallback
	ldr	x4, [x0]
	adrp	x0, GImGuiDemoMarkerCallbackUserData
	add	x0, x0, :lo12:GImGuiDemoMarkerCallbackUserData
	ldr	x0, [x0]
	mov	x3, x0
	adrp	x0, .LC186
	add	x2, x0, :lo12:.LC186
	mov	w1, 399
	adrp	x0, .LC156
	add	x0, x0, :lo12:.LC156
	blr	x4
.L84:
	mov	w1, 0
	adrp	x0, .LC186
	add	x0, x0, :lo12:.LC186
	bl	_ZN5ImGui16CollapsingHeaderEPKci
	and	w0, w0, 255
	cmp	w0, 0
	beq	.L85
	adrp	x0, .LC187
	add	x0, x0, :lo12:.LC187
	bl	_ZN5ImGui4TextEPKcz
	adrp	x0, .LC188
	add	x0, x0, :lo12:.LC188
	bl	_ZN5ImGui10BulletTextEPKcz
	adrp	x0, .LC189
	add	x0, x0, :lo12:.LC189
	bl	_ZN5ImGui10BulletTextEPKcz
	adrp	x0, .LC190
	add	x0, x0, :lo12:.LC190
	bl	_ZN5ImGui10BulletTextEPKcz
	bl	_ZN5ImGui9SeparatorEv
	adrp	x0, .LC191
	add	x0, x0, :lo12:.LC191
	bl	_ZN5ImGui4TextEPKcz
	adrp	x0, .LC192
	add	x0, x0, :lo12:.LC192
	bl	_ZN5ImGui10BulletTextEPKcz
	adrp	x0, .LC193
	add	x0, x0, :lo12:.LC193
	bl	_ZN5ImGui10BulletTextEPKcz
	adrp	x0, .LC194
	add	x0, x0, :lo12:.LC194
	bl	_ZN5ImGui10BulletTextEPKcz
	adrp	x0, .LC195
	add	x0, x0, :lo12:.LC195
	bl	_ZN5ImGui10BulletTextEPKcz
	adrp	x0, .LC196
	add	x0, x0, :lo12:.LC196
	bl	_ZN5ImGui10BulletTextEPKcz
	adrp	x0, .LC197
	add	x0, x0, :lo12:.LC197
	bl	_ZN5ImGui10BulletTextEPKcz
	bl	_ZN5ImGui9SeparatorEv
	adrp	x0, .LC198
	add	x0, x0, :lo12:.LC198
	bl	_ZN5ImGui4TextEPKcz
	bl	_ZN5ImGui13ShowUserGuideEv
.L85:
	adrp	x0, GImGuiDemoMarkerCallback
	add	x0, x0, :lo12:GImGuiDemoMarkerCallback
	ldr	x0, [x0]
	cmp	x0, 0
	beq	.L86
	adrp	x0, GImGuiDemoMarkerCallback
	add	x0, x0, :lo12:GImGuiDemoMarkerCallback
	ldr	x4, [x0]
	adrp	x0, GImGuiDemoMarkerCallbackUserData
	add	x0, x0, :lo12:GImGuiDemoMarkerCallbackUserData
	ldr	x0, [x0]
	mov	x3, x0
	adrp	x0, .LC199
	add	x2, x0, :lo12:.LC199
	mov	w1, 422
	adrp	x0, .LC156
	add	x0, x0, :lo12:.LC156
	blr	x4
.L86:
	mov	w1, 0
	adrp	x0, .LC199
	add	x0, x0, :lo12:.LC199
	bl	_ZN5ImGui16CollapsingHeaderEPKci
	and	w0, w0, 255
	cmp	w0, 0
	beq	.L87
	bl	_ZN5ImGui5GetIOEv
	str	x0, [sp, 64]
	adrp	x0, .LC200
	add	x0, x0, :lo12:.LC200
	bl	_ZN5ImGui8TreeNodeEPKc
	and	w0, w0, 255
	cmp	w0, 0
	beq	.L88
	ldr	x0, [sp, 64]
	mov	w2, 1
	mov	x1, x0
	adrp	x0, .LC201
	add	x0, x0, :lo12:.LC201
	bl	_ZN5ImGui13CheckboxFlagsEPKcPii
	fmov	s1, -1.0e+0
	movi	v0.2s, #0
	bl	_ZN5ImGui8SameLineEff
	adrp	x0, .LC202
	add	x0, x0, :lo12:.LC202
	bl	_ZL10HelpMarkerPKc
	ldr	x0, [sp, 64]
	mov	w2, 2
	mov	x1, x0
	adrp	x0, .LC203
	add	x0, x0, :lo12:.LC203
	bl	_ZN5ImGui13CheckboxFlagsEPKcPii
	fmov	s1, -1.0e+0
	movi	v0.2s, #0
	bl	_ZN5ImGui8SameLineEff
	adrp	x0, .LC204
	add	x0, x0, :lo12:.LC204
	bl	_ZL10HelpMarkerPKc
	ldr	x0, [sp, 64]
	mov	w2, 4
	mov	x1, x0
	adrp	x0, .LC205
	add	x0, x0, :lo12:.LC205
	bl	_ZN5ImGui13CheckboxFlagsEPKcPii
	fmov	s1, -1.0e+0
	movi	v0.2s, #0
	bl	_ZN5ImGui8SameLineEff
	adrp	x0, .LC206
	add	x0, x0, :lo12:.LC206
	bl	_ZL10HelpMarkerPKc
	ldr	x0, [sp, 64]
	mov	w2, 16
	mov	x1, x0
	adrp	x0, .LC207
	add	x0, x0, :lo12:.LC207
	bl	_ZN5ImGui13CheckboxFlagsEPKcPii
	ldr	x0, [sp, 64]
	ldr	w0, [x0]
	and	w0, w0, 16
	cmp	w0, 0
	beq	.L89
	bl	_ZN5ImGui7GetTimeEv
	fcvt	s0, d0
	mov	w0, 52429
	movk	w0, 0x3ecc, lsl 16
	fmov	s1, w0
	bl	fmodf
	mov	w0, 52429
	movk	w0, 0x3e4c, lsl 16
	fmov	s1, w0
	fcmpe	s0, s1
	cset	w0, mi
	and	w0, w0, 255
	cmp	w0, 0
	beq	.L90
	fmov	s1, -1.0e+0
	movi	v0.2s, #0
	bl	_ZN5ImGui8SameLineEff
	adrp	x0, .LC208
	add	x0, x0, :lo12:.LC208
	bl	_ZN5ImGui4TextEPKcz
.L90:
	mov	w1, 1
	mov	w0, 524
	bl	_ZN5ImGui12IsKeyPressedE8ImGuiKeyb
	and	w0, w0, 255
	cmp	w0, 0
	beq	.L89
	ldr	x0, [sp, 64]
	ldr	w0, [x0]
	and	w1, w0, -17
	ldr	x0, [sp, 64]
	str	w1, [x0]
.L89:
	ldr	x0, [sp, 64]
	mov	w2, 32
	mov	x1, x0
	adrp	x0, .LC209
	add	x0, x0, :lo12:.LC209
	bl	_ZN5ImGui13CheckboxFlagsEPKcPii
	fmov	s1, -1.0e+0
	movi	v0.2s, #0
	bl	_ZN5ImGui8SameLineEff
	adrp	x0, .LC210
	add	x0, x0, :lo12:.LC210
	bl	_ZL10HelpMarkerPKc
	ldr	x0, [sp, 64]
	add	x0, x0, 114
	mov	x1, x0
	adrp	x0, .LC211
	add	x0, x0, :lo12:.LC211
	bl	_ZN5ImGui8CheckboxEPKcPb
	fmov	s1, -1.0e+0
	movi	v0.2s, #0
	bl	_ZN5ImGui8SameLineEff
	adrp	x0, .LC212
	add	x0, x0, :lo12:.LC212
	bl	_ZL10HelpMarkerPKc
	ldr	x0, [sp, 64]
	add	x0, x0, 115
	mov	x1, x0
	adrp	x0, .LC213
	add	x0, x0, :lo12:.LC213
	bl	_ZN5ImGui8CheckboxEPKcPb
	fmov	s1, -1.0e+0
	movi	v0.2s, #0
	bl	_ZN5ImGui8SameLineEff
	adrp	x0, .LC214
	add	x0, x0, :lo12:.LC214
	bl	_ZL10HelpMarkerPKc
	ldr	x0, [sp, 64]
	add	x0, x0, 116
	mov	x1, x0
	adrp	x0, .LC215
	add	x0, x0, :lo12:.LC215
	bl	_ZN5ImGui8CheckboxEPKcPb
	fmov	s1, -1.0e+0
	movi	v0.2s, #0
	bl	_ZN5ImGui8SameLineEff
	adrp	x0, .LC216
	add	x0, x0, :lo12:.LC216
	bl	_ZL10HelpMarkerPKc
	ldr	x0, [sp, 64]
	add	x0, x0, 117
	mov	x1, x0
	adrp	x0, .LC217
	add	x0, x0, :lo12:.LC217
	bl	_ZN5ImGui8CheckboxEPKcPb
	fmov	s1, -1.0e+0
	movi	v0.2s, #0
	bl	_ZN5ImGui8SameLineEff
	adrp	x0, .LC218
	add	x0, x0, :lo12:.LC218
	bl	_ZL10HelpMarkerPKc
	ldr	x0, [sp, 64]
	add	x0, x0, 118
	mov	x1, x0
	adrp	x0, .LC219
	add	x0, x0, :lo12:.LC219
	bl	_ZN5ImGui8CheckboxEPKcPb
	fmov	s1, -1.0e+0
	movi	v0.2s, #0
	bl	_ZN5ImGui8SameLineEff
	adrp	x0, .LC220
	add	x0, x0, :lo12:.LC220
	bl	_ZL10HelpMarkerPKc
	ldr	x0, [sp, 64]
	add	x0, x0, 119
	mov	x1, x0
	adrp	x0, .LC221
	add	x0, x0, :lo12:.LC221
	bl	_ZN5ImGui8CheckboxEPKcPb
	ldr	x0, [sp, 64]
	add	x0, x0, 112
	mov	x1, x0
	adrp	x0, .LC222
	add	x0, x0, :lo12:.LC222
	bl	_ZN5ImGui8CheckboxEPKcPb
	fmov	s1, -1.0e+0
	movi	v0.2s, #0
	bl	_ZN5ImGui8SameLineEff
	adrp	x0, .LC223
	add	x0, x0, :lo12:.LC223
	bl	_ZL10HelpMarkerPKc
	adrp	x0, .LC224
	add	x0, x0, :lo12:.LC224
	bl	_ZN5ImGui4TextEPKcz
	bl	_ZN5ImGui7TreePopEv
	bl	_ZN5ImGui9SeparatorEv
.L88:
	adrp	x0, GImGuiDemoMarkerCallback
	add	x0, x0, :lo12:GImGuiDemoMarkerCallback
	ldr	x0, [x0]
	cmp	x0, 0
	beq	.L91
	adrp	x0, GImGuiDemoMarkerCallback
	add	x0, x0, :lo12:GImGuiDemoMarkerCallback
	ldr	x4, [x0]
	adrp	x0, GImGuiDemoMarkerCallbackUserData
	add	x0, x0, :lo12:GImGuiDemoMarkerCallbackUserData
	ldr	x0, [x0]
	mov	x3, x0
	adrp	x0, .LC225
	add	x2, x0, :lo12:.LC225
	mov	w1, 467
	adrp	x0, .LC156
	add	x0, x0, :lo12:.LC156
	blr	x4
.L91:
	adrp	x0, .LC226
	add	x0, x0, :lo12:.LC226
	bl	_ZN5ImGui8TreeNodeEPKc
	and	w0, w0, 255
	cmp	w0, 0
	beq	.L92
	adrp	x0, .LC227
	add	x0, x0, :lo12:.LC227
	bl	_ZL10HelpMarkerPKc
	ldr	x0, [sp, 64]
	ldr	w0, [x0, 4]
	str	w0, [sp, 48]
	add	x0, sp, 48
	mov	w2, 1
	mov	x1, x0
	adrp	x0, .LC228
	add	x0, x0, :lo12:.LC228
	bl	_ZN5ImGui13CheckboxFlagsEPKcPii
	add	x0, sp, 48
	mov	w2, 2
	mov	x1, x0
	adrp	x0, .LC229
	add	x0, x0, :lo12:.LC229
	bl	_ZN5ImGui13CheckboxFlagsEPKcPii
	add	x0, sp, 48
	mov	w2, 4
	mov	x1, x0
	adrp	x0, .LC230
	add	x0, x0, :lo12:.LC230
	bl	_ZN5ImGui13CheckboxFlagsEPKcPii
	add	x0, sp, 48
	mov	w2, 8
	mov	x1, x0
	adrp	x0, .LC231
	add	x0, x0, :lo12:.LC231
	bl	_ZN5ImGui13CheckboxFlagsEPKcPii
	bl	_ZN5ImGui7TreePopEv
	bl	_ZN5ImGui9SeparatorEv
.L92:
	adrp	x0, GImGuiDemoMarkerCallback
	add	x0, x0, :lo12:GImGuiDemoMarkerCallback
	ldr	x0, [x0]
	cmp	x0, 0
	beq	.L93
	adrp	x0, GImGuiDemoMarkerCallback
	add	x0, x0, :lo12:GImGuiDemoMarkerCallback
	ldr	x4, [x0]
	adrp	x0, GImGuiDemoMarkerCallbackUserData
	add	x0, x0, :lo12:GImGuiDemoMarkerCallbackUserData
	ldr	x0, [x0]
	mov	x3, x0
	adrp	x0, .LC232
	add	x2, x0, :lo12:.LC232
	mov	w1, 485
	adrp	x0, .LC156
	add	x0, x0, :lo12:.LC156
	blr	x4
.L93:
	adrp	x0, .LC233
	add	x0, x0, :lo12:.LC233
	bl	_ZN5ImGui8TreeNodeEPKc
	and	w0, w0, 255
	cmp	w0, 0
	beq	.L94
	adrp	x0, .LC234
	add	x0, x0, :lo12:.LC234
	bl	_ZL10HelpMarkerPKc
	mov	x0, 0
	bl	_ZN5ImGui15ShowStyleEditorEP10ImGuiStyle
	bl	_ZN5ImGui7TreePopEv
	bl	_ZN5ImGui9SeparatorEv
.L94:
	adrp	x0, GImGuiDemoMarkerCallback
	add	x0, x0, :lo12:GImGuiDemoMarkerCallback
	ldr	x0, [x0]
	cmp	x0, 0
	beq	.L95
	adrp	x0, GImGuiDemoMarkerCallback
	add	x0, x0, :lo12:GImGuiDemoMarkerCallback
	ldr	x4, [x0]
	adrp	x0, GImGuiDemoMarkerCallbackUserData
	add	x0, x0, :lo12:GImGuiDemoMarkerCallbackUserData
	ldr	x0, [x0]
	mov	x3, x0
	adrp	x0, .LC235
	add	x2, x0, :lo12:.LC235
	mov	w1, 494
	adrp	x0, .LC156
	add	x0, x0, :lo12:.LC156
	blr	x4
.L95:
	adrp	x0, .LC236
	add	x0, x0, :lo12:.LC236
	bl	_ZN5ImGui8TreeNodeEPKc
	and	w0, w0, 255
	cmp	w0, 0
	beq	.L87
	adrp	x0, .LC237
	add	x0, x0, :lo12:.LC237
	bl	_ZL10HelpMarkerPKc
	bl	_ZN5ImGui10LogButtonsEv
	adrp	x0, .LC238
	add	x0, x0, :lo12:.LC238
	bl	_ZL10HelpMarkerPKc
	add	x0, sp, 48
	movi	v1.2s, #0
	movi	v0.2s, #0
	bl	_ZN6ImVec2C1Eff
	add	x0, sp, 48
	mov	x1, x0
	adrp	x0, .LC239
	add	x0, x0, :lo12:.LC239
	bl	_ZN5ImGui6ButtonEPKcRK6ImVec2
	and	w0, w0, 255
	cmp	w0, 0
	beq	.L96
	mov	w0, -1
	bl	_ZN5ImGui14LogToClipboardEi
	adrp	x0, .LC240
	add	x0, x0, :lo12:.LC240
	bl	_ZN5ImGui7LogTextEPKcz
	bl	_ZN5ImGui9LogFinishEv
.L96:
	bl	_ZN5ImGui7TreePopEv
.L87:
	adrp	x0, GImGuiDemoMarkerCallback
	add	x0, x0, :lo12:GImGuiDemoMarkerCallback
	ldr	x0, [x0]
	cmp	x0, 0
	beq	.L97
	adrp	x0, GImGuiDemoMarkerCallback
	add	x0, x0, :lo12:GImGuiDemoMarkerCallback
	ldr	x4, [x0]
	adrp	x0, GImGuiDemoMarkerCallbackUserData
	add	x0, x0, :lo12:GImGuiDemoMarkerCallbackUserData
	ldr	x0, [x0]
	mov	x3, x0
	adrp	x0, .LC241
	add	x2, x0, :lo12:.LC241
	mov	w1, 514
	adrp	x0, .LC156
	add	x0, x0, :lo12:.LC156
	blr	x4
.L97:
	mov	w1, 0
	adrp	x0, .LC241
	add	x0, x0, :lo12:.LC241
	bl	_ZN5ImGui16CollapsingHeaderEPKci
	and	w0, w0, 255
	cmp	w0, 0
	beq	.L98
	add	x0, sp, 48
	movi	v1.2s, #0
	movi	v0.2s, #0
	bl	_ZN6ImVec2C1Eff
	add	x0, sp, 48
	movi	v0.2s, #0
	mov	x3, x0
	mov	w2, 0
	mov	w1, 3
	adrp	x0, .LC242
	add	x0, x0, :lo12:.LC242
	bl	_ZN5ImGui10BeginTableEPKciiRK6ImVec2f
	and	w0, w0, 255
	cmp	w0, 0
	beq	.L98
	bl	_ZN5ImGui15TableNextColumnEv
	adrp	x0, _ZZN5ImGui14ShowDemoWindowEPbE11no_titlebar
	add	x1, x0, :lo12:_ZZN5ImGui14ShowDemoWindowEPbE11no_titlebar
	adrp	x0, .LC243
	add	x0, x0, :lo12:.LC243
	bl	_ZN5ImGui8CheckboxEPKcPb
	bl	_ZN5ImGui15TableNextColumnEv
	adrp	x0, _ZZN5ImGui14ShowDemoWindowEPbE12no_scrollbar
	add	x1, x0, :lo12:_ZZN5ImGui14ShowDemoWindowEPbE12no_scrollbar
	adrp	x0, .LC244
	add	x0, x0, :lo12:.LC244
	bl	_ZN5ImGui8CheckboxEPKcPb
	bl	_ZN5ImGui15TableNextColumnEv
	adrp	x0, _ZZN5ImGui14ShowDemoWindowEPbE7no_menu
	add	x1, x0, :lo12:_ZZN5ImGui14ShowDemoWindowEPbE7no_menu
	adrp	x0, .LC245
	add	x0, x0, :lo12:.LC245
	bl	_ZN5ImGui8CheckboxEPKcPb
	bl	_ZN5ImGui15TableNextColumnEv
	adrp	x0, _ZZN5ImGui14ShowDemoWindowEPbE7no_move
	add	x1, x0, :lo12:_ZZN5ImGui14ShowDemoWindowEPbE7no_move
	adrp	x0, .LC246
	add	x0, x0, :lo12:.LC246
	bl	_ZN5ImGui8CheckboxEPKcPb
	bl	_ZN5ImGui15TableNextColumnEv
	adrp	x0, _ZZN5ImGui14ShowDemoWindowEPbE9no_resize
	add	x1, x0, :lo12:_ZZN5ImGui14ShowDemoWindowEPbE9no_resize
	adrp	x0, .LC247
	add	x0, x0, :lo12:.LC247
	bl	_ZN5ImGui8CheckboxEPKcPb
	bl	_ZN5ImGui15TableNextColumnEv
	adrp	x0, _ZZN5ImGui14ShowDemoWindowEPbE11no_collapse
	add	x1, x0, :lo12:_ZZN5ImGui14ShowDemoWindowEPbE11no_collapse
	adrp	x0, .LC248
	add	x0, x0, :lo12:.LC248
	bl	_ZN5ImGui8CheckboxEPKcPb
	bl	_ZN5ImGui15TableNextColumnEv
	adrp	x0, _ZZN5ImGui14ShowDemoWindowEPbE8no_close
	add	x1, x0, :lo12:_ZZN5ImGui14ShowDemoWindowEPbE8no_close
	adrp	x0, .LC249
	add	x0, x0, :lo12:.LC249
	bl	_ZN5ImGui8CheckboxEPKcPb
	bl	_ZN5ImGui15TableNextColumnEv
	adrp	x0, _ZZN5ImGui14ShowDemoWindowEPbE6no_nav
	add	x1, x0, :lo12:_ZZN5ImGui14ShowDemoWindowEPbE6no_nav
	adrp	x0, .LC250
	add	x0, x0, :lo12:.LC250
	bl	_ZN5ImGui8CheckboxEPKcPb
	bl	_ZN5ImGui15TableNextColumnEv
	adrp	x0, _ZZN5ImGui14ShowDemoWindowEPbE13no_background
	add	x1, x0, :lo12:_ZZN5ImGui14ShowDemoWindowEPbE13no_background
	adrp	x0, .LC251
	add	x0, x0, :lo12:.LC251
	bl	_ZN5ImGui8CheckboxEPKcPb
	bl	_ZN5ImGui15TableNextColumnEv
	adrp	x0, _ZZN5ImGui14ShowDemoWindowEPbE17no_bring_to_front
	add	x1, x0, :lo12:_ZZN5ImGui14ShowDemoWindowEPbE17no_bring_to_front
	adrp	x0, .LC252
	add	x0, x0, :lo12:.LC252
	bl	_ZN5ImGui8CheckboxEPKcPb
	bl	_ZN5ImGui15TableNextColumnEv
	adrp	x0, _ZZN5ImGui14ShowDemoWindowEPbE16unsaved_document
	add	x1, x0, :lo12:_ZZN5ImGui14ShowDemoWindowEPbE16unsaved_document
	adrp	x0, .LC253
	add	x0, x0, :lo12:.LC253
	bl	_ZN5ImGui8CheckboxEPKcPb
	bl	_ZN5ImGui8EndTableEv
.L98:
	bl	_ZL21ShowDemoWindowWidgetsv
	bl	_ZL20ShowDemoWindowLayoutv
	bl	_ZL20ShowDemoWindowPopupsv
	bl	_ZL20ShowDemoWindowTablesv
	bl	_ZL20ShowDemoWindowInputsv
	bl	_ZN5ImGui12PopItemWidthEv
	bl	_ZN5ImGui3EndEv
.L43:
	adrp	x0, :got:__stack_chk_guard
	ldr	x0, [x0, #:got_lo12:__stack_chk_guard]
	ldr	x2, [sp, 72]
	ldr	x1, [x0]
	subs	x2, x2, x1
	mov	x1, 0
	beq	.L99
	bl	__stack_chk_fail
.L99:
	ldp	x29, x30, [sp], 80
	.cfi_restore 30
	.cfi_restore 29
	.cfi_def_cfa_offset 0
	ret
	.cfi_endproc
.LFE1150:
	.size	_ZN5ImGui14ShowDemoWindowEPb, .-_ZN5ImGui14ShowDemoWindowEPb
	.local	_ZZL21ShowDemoWindowWidgetsvE11disable_all
	.comm	_ZZL21ShowDemoWindowWidgetsvE11disable_all,1,1
	.local	_ZZL21ShowDemoWindowWidgetsvE7clicked
	.comm	_ZZL21ShowDemoWindowWidgetsvE7clicked,4,4
	.data
	.type	_ZZL21ShowDemoWindowWidgetsvE5check, %object
	.size	_ZZL21ShowDemoWindowWidgetsvE5check, 1
_ZZL21ShowDemoWindowWidgetsvE5check:
	.byte	1
	.local	_ZZL21ShowDemoWindowWidgetsvE1e
	.comm	_ZZL21ShowDemoWindowWidgetsvE1e,4,4
	.local	_ZZL21ShowDemoWindowWidgetsvE7counter
	.comm	_ZZL21ShowDemoWindowWidgetsvE7counter,4,4
	.local	_ZZL21ShowDemoWindowWidgetsvE12item_current
	.comm	_ZZL21ShowDemoWindowWidgetsvE12item_current,4,4
	.align	3
	.type	_ZZL21ShowDemoWindowWidgetsvE4str0, %object
	.size	_ZZL21ShowDemoWindowWidgetsvE4str0, 128
_ZZL21ShowDemoWindowWidgetsvE4str0:
	.string	"Hello, world!"
	.zero	114
	.local	_ZZL21ShowDemoWindowWidgetsvE4str1
	.comm	_ZZL21ShowDemoWindowWidgetsvE4str1,128,8
	.align	2
	.type	_ZZL21ShowDemoWindowWidgetsvE2i0, %object
	.size	_ZZL21ShowDemoWindowWidgetsvE2i0, 4
_ZZL21ShowDemoWindowWidgetsvE2i0:
	.word	123
	.align	2
	.type	_ZZL21ShowDemoWindowWidgetsvE2f0, %object
	.size	_ZZL21ShowDemoWindowWidgetsvE2f0, 4
_ZZL21ShowDemoWindowWidgetsvE2f0:
	.word	981668463
	.align	3
	.type	_ZZL21ShowDemoWindowWidgetsvE2d0, %object
	.size	_ZZL21ShowDemoWindowWidgetsvE2d0, 8
_ZZL21ShowDemoWindowWidgetsvE2d0:
	.word	86
	.word	1093567614
	.align	2
	.type	_ZZL21ShowDemoWindowWidgetsvE2f1, %object
	.size	_ZZL21ShowDemoWindowWidgetsvE2f1, 4
_ZZL21ShowDemoWindowWidgetsvE2f1:
	.word	1343554297
	.align	3
	.type	_ZZL21ShowDemoWindowWidgetsvE5vec4a, %object
	.size	_ZZL21ShowDemoWindowWidgetsvE5vec4a, 16
_ZZL21ShowDemoWindowWidgetsvE5vec4a:
	.word	1036831949
	.word	1045220557
	.word	1050253722
	.word	1054951342
	.align	2
	.type	_ZZL21ShowDemoWindowWidgetsvE2i1, %object
	.size	_ZZL21ShowDemoWindowWidgetsvE2i1, 4
_ZZL21ShowDemoWindowWidgetsvE2i1:
	.word	50
	.align	2
	.type	_ZZL21ShowDemoWindowWidgetsvE2i2, %object
	.size	_ZZL21ShowDemoWindowWidgetsvE2i2, 4
_ZZL21ShowDemoWindowWidgetsvE2i2:
	.word	42
	.align	2
	.type	_ZZL21ShowDemoWindowWidgetsvE2f1_0, %object
	.size	_ZZL21ShowDemoWindowWidgetsvE2f1_0, 4
_ZZL21ShowDemoWindowWidgetsvE2f1_0:
	.word	1065353216
	.align	2
	.type	_ZZL21ShowDemoWindowWidgetsvE2f2, %object
	.size	_ZZL21ShowDemoWindowWidgetsvE2f2, 4
_ZZL21ShowDemoWindowWidgetsvE2f2:
	.word	1004243884
	.local	_ZZL21ShowDemoWindowWidgetsvE2i1_0
	.comm	_ZZL21ShowDemoWindowWidgetsvE2i1_0,4,4
	.align	2
	.type	_ZZL21ShowDemoWindowWidgetsvE2f1_1, %object
	.size	_ZZL21ShowDemoWindowWidgetsvE2f1_1, 4
_ZZL21ShowDemoWindowWidgetsvE2f1_1:
	.word	1039918957
	.local	_ZZL21ShowDemoWindowWidgetsvE2f2_0
	.comm	_ZZL21ShowDemoWindowWidgetsvE2f2_0,4,4
	.local	_ZZL21ShowDemoWindowWidgetsvE5angle
	.comm	_ZZL21ShowDemoWindowWidgetsvE5angle,4,4
	.local	_ZZL21ShowDemoWindowWidgetsvE4elem
	.comm	_ZZL21ShowDemoWindowWidgetsvE4elem,4,4
	.align	3
	.type	_ZZL21ShowDemoWindowWidgetsvE4col1, %object
	.size	_ZZL21ShowDemoWindowWidgetsvE4col1, 12
_ZZL21ShowDemoWindowWidgetsvE4col1:
	.word	1065353216
	.word	0
	.word	1045220557
	.align	3
	.type	_ZZL21ShowDemoWindowWidgetsvE4col2, %object
	.size	_ZZL21ShowDemoWindowWidgetsvE4col2, 16
_ZZL21ShowDemoWindowWidgetsvE4col2:
	.word	1053609165
	.word	1060320051
	.word	0
	.word	1056964608
	.align	2
	.type	_ZZL21ShowDemoWindowWidgetsvE12item_current_0, %object
	.size	_ZZL21ShowDemoWindowWidgetsvE12item_current_0, 4
_ZZL21ShowDemoWindowWidgetsvE12item_current_0:
	.word	1
	.align	3
	.type	_ZZL21ShowDemoWindowWidgetsvE3arr, %object
	.size	_ZZL21ShowDemoWindowWidgetsvE3arr, 28
_ZZL21ShowDemoWindowWidgetsvE3arr:
	.word	1058642330
	.word	1036831949
	.word	1065353216
	.word	1056964608
	.word	1064011039
	.word	1036831949
	.word	1045220557
	.align	2
	.type	_ZZL21ShowDemoWindowWidgetsvE10base_flags, %object
	.size	_ZZL21ShowDemoWindowWidgetsvE10base_flags, 4
_ZZL21ShowDemoWindowWidgetsvE10base_flags:
	.word	2240
	.local	_ZZL21ShowDemoWindowWidgetsvE35align_label_with_current_x_position
	.comm	_ZZL21ShowDemoWindowWidgetsvE35align_label_with_current_x_position,1,1
	.local	_ZZL21ShowDemoWindowWidgetsvE18test_drag_and_drop
	.comm	_ZZL21ShowDemoWindowWidgetsvE18test_drag_and_drop,1,1
	.align	2
	.type	_ZZL21ShowDemoWindowWidgetsvE14selection_mask, %object
	.size	_ZZL21ShowDemoWindowWidgetsvE14selection_mask, 4
_ZZL21ShowDemoWindowWidgetsvE14selection_mask:
	.word	4
	.type	_ZZL21ShowDemoWindowWidgetsvE14closable_group, %object
	.size	_ZZL21ShowDemoWindowWidgetsvE14closable_group, 1
_ZZL21ShowDemoWindowWidgetsvE14closable_group:
	.byte	1
	.align	2
	.type	_ZZL21ShowDemoWindowWidgetsvE10wrap_width, %object
	.size	_ZZL21ShowDemoWindowWidgetsvE10wrap_width, 4
_ZZL21ShowDemoWindowWidgetsvE10wrap_width:
	.word	1128792064
	.align	3
	.type	_ZZL21ShowDemoWindowWidgetsvE3buf, %object
	.size	_ZZL21ShowDemoWindowWidgetsvE3buf, 32
_ZZL21ShowDemoWindowWidgetsvE3buf:
	.string	"\346\227\245\346\234\254\350\252\236"
	.zero	22
	.local	_ZZL21ShowDemoWindowWidgetsvE13pressed_count
	.comm	_ZZL21ShowDemoWindowWidgetsvE13pressed_count,4,4
	.local	_ZZL21ShowDemoWindowWidgetsvE5flags
	.comm	_ZZL21ShowDemoWindowWidgetsvE5flags,4,4
	.local	_ZZL21ShowDemoWindowWidgetsvE16item_current_idx
	.comm	_ZZL21ShowDemoWindowWidgetsvE16item_current_idx,4,4
	.local	_ZZL21ShowDemoWindowWidgetsvE14item_current_2
	.comm	_ZZL21ShowDemoWindowWidgetsvE14item_current_2,4,4
	.align	2
	.type	_ZZL21ShowDemoWindowWidgetsvE14item_current_3, %object
	.size	_ZZL21ShowDemoWindowWidgetsvE14item_current_3, 4
_ZZL21ShowDemoWindowWidgetsvE14item_current_3:
	.word	-1
	.text
	.align	2
	.type	_ZZL21ShowDemoWindowWidgetsvEN5Funcs10ItemGetterEPviPPKc, %function
_ZZL21ShowDemoWindowWidgetsvEN5Funcs10ItemGetterEPviPPKc:
.LFB1152:
	.cfi_startproc
	sub	sp, sp, #32
	.cfi_def_cfa_offset 32
	str	x0, [sp, 24]
	str	w1, [sp, 20]
	str	x2, [sp, 8]
	ldrsw	x0, [sp, 20]
	lsl	x0, x0, 3
	ldr	x1, [sp, 24]
	add	x0, x1, x0
	ldr	x1, [x0]
	ldr	x0, [sp, 8]
	str	x1, [x0]
	mov	w0, 1
	add	sp, sp, 32
	.cfi_def_cfa_offset 0
	ret
	.cfi_endproc
.LFE1152:
	.size	_ZZL21ShowDemoWindowWidgetsvEN5Funcs10ItemGetterEPviPPKc, .-_ZZL21ShowDemoWindowWidgetsvEN5Funcs10ItemGetterEPviPPKc
	.local	_ZZL21ShowDemoWindowWidgetsvE14item_current_4
	.comm	_ZZL21ShowDemoWindowWidgetsvE14item_current_4,4,4
	.local	_ZZL21ShowDemoWindowWidgetsvE16item_current_idx_0
	.comm	_ZZL21ShowDemoWindowWidgetsvE16item_current_idx_0,4,4
	.data
	.align	3
	.type	_ZZL21ShowDemoWindowWidgetsvE9selection, %object
	.size	_ZZL21ShowDemoWindowWidgetsvE9selection, 5
_ZZL21ShowDemoWindowWidgetsvE9selection:
	.byte	0
	.byte	1
	.byte	0
	.byte	0
	.byte	0
	.align	2
	.type	_ZZL21ShowDemoWindowWidgetsvE8selected, %object
	.size	_ZZL21ShowDemoWindowWidgetsvE8selected, 4
_ZZL21ShowDemoWindowWidgetsvE8selected:
	.word	-1
	.local	_ZZL21ShowDemoWindowWidgetsvE9selection_0
	.comm	_ZZL21ShowDemoWindowWidgetsvE9selection_0,5,8
	.local	_ZZL21ShowDemoWindowWidgetsvE8selected_0
	.comm	_ZZL21ShowDemoWindowWidgetsvE8selected_0,3,8
	.local	_ZZL21ShowDemoWindowWidgetsvE8selected_1
	.comm	_ZZL21ShowDemoWindowWidgetsvE8selected_1,10,8
	.align	3
	.type	_ZZL21ShowDemoWindowWidgetsvE8selected_2, %object
	.size	_ZZL21ShowDemoWindowWidgetsvE8selected_2, 16
_ZZL21ShowDemoWindowWidgetsvE8selected_2:
	.string	"\001"
	.string	""
	.string	""
	.string	""
	.string	"\001"
	.string	""
	.string	""
	.string	""
	.string	"\001"
	.string	""
	.string	""
	.string	""
	.ascii	"\001"
	.align	3
	.type	_ZZL21ShowDemoWindowWidgetsvE8selected_3, %object
	.size	_ZZL21ShowDemoWindowWidgetsvE8selected_3, 9
_ZZL21ShowDemoWindowWidgetsvE8selected_3:
	.byte	1
	.byte	0
	.byte	1
	.byte	0
	.byte	1
	.byte	0
	.byte	1
	.byte	0
	.byte	1
	.align	3
	.type	_ZZL21ShowDemoWindowWidgetsvE4text, %object
	.size	_ZZL21ShowDemoWindowWidgetsvE4text, 16384
_ZZL21ShowDemoWindowWidgetsvE4text:
	.ascii	"/*\n The Pentium F00F bug, shorthand for F0 0F C7 C8,\n the "
	.ascii	"hexadecimal encoding of one offendin"
	.string	"g instruction,\n more formally, the invalid operand with locked CMPXCHG8B\n instruction bug, is a design flaw in the majority of\n Intel Pentium, Pentium MMX, and Pentium OverDrive\n processors (all in the P5 microarchitecture).\n*/\n\nlabel:\n\tlock cmpxchg8b eax\n"
	.zero	16033
	.align	2
	.type	_ZZL21ShowDemoWindowWidgetsvE5flags_0, %object
	.size	_ZZL21ShowDemoWindowWidgetsvE5flags_0, 4
_ZZL21ShowDemoWindowWidgetsvE5flags_0:
	.word	1024
	.section	.rodata
	.align	3
.LC254:
	.string	"imgui"
	.text
	.align	2
	.type	_ZZL21ShowDemoWindowWidgetsvEN11TextFilters18FilterImGuiLettersEP26ImGuiInputTextCallbackData, %function
_ZZL21ShowDemoWindowWidgetsvEN11TextFilters18FilterImGuiLettersEP26ImGuiInputTextCallbackData:
.LFB1153:
	.cfi_startproc
	stp	x29, x30, [sp, -32]!
	.cfi_def_cfa_offset 32
	.cfi_offset 29, -32
	.cfi_offset 30, -24
	mov	x29, sp
	str	x0, [sp, 24]
	ldr	x0, [sp, 24]
	ldrh	w0, [x0, 16]
	cmp	w0, 255
	bhi	.L105
	ldr	x0, [sp, 24]
	ldrh	w0, [x0, 16]
	and	w0, w0, 255
	mov	w1, w0
	adrp	x0, .LC254
	add	x0, x0, :lo12:.LC254
	bl	strchr
	cmp	x0, 0
	beq	.L105
	mov	w0, 0
	b	.L106
.L105:
	mov	w0, 1
.L106:
	ldp	x29, x30, [sp], 32
	.cfi_restore 30
	.cfi_restore 29
	.cfi_def_cfa_offset 0
	ret
	.cfi_endproc
.LFE1153:
	.size	_ZZL21ShowDemoWindowWidgetsvEN11TextFilters18FilterImGuiLettersEP26ImGuiInputTextCallbackData, .-_ZZL21ShowDemoWindowWidgetsvEN11TextFilters18FilterImGuiLettersEP26ImGuiInputTextCallbackData
	.local	_ZZL21ShowDemoWindowWidgetsvE4buf1
	.comm	_ZZL21ShowDemoWindowWidgetsvE4buf1,64,8
	.local	_ZZL21ShowDemoWindowWidgetsvE4buf2
	.comm	_ZZL21ShowDemoWindowWidgetsvE4buf2,64,8
	.local	_ZZL21ShowDemoWindowWidgetsvE4buf3
	.comm	_ZZL21ShowDemoWindowWidgetsvE4buf3,64,8
	.local	_ZZL21ShowDemoWindowWidgetsvE4buf4
	.comm	_ZZL21ShowDemoWindowWidgetsvE4buf4,64,8
	.local	_ZZL21ShowDemoWindowWidgetsvE4buf5
	.comm	_ZZL21ShowDemoWindowWidgetsvE4buf5,64,8
	.local	_ZZL21ShowDemoWindowWidgetsvE4buf6
	.comm	_ZZL21ShowDemoWindowWidgetsvE4buf6,64,8
	.data
	.align	3
	.type	_ZZL21ShowDemoWindowWidgetsvE8password, %object
	.size	_ZZL21ShowDemoWindowWidgetsvE8password, 64
_ZZL21ShowDemoWindowWidgetsvE8password:
	.string	"password123"
	.zero	52
	.section	.rodata
	.align	3
.LC255:
	.string	".."
	.align	3
.LC256:
	.string	"Pressed Up!"
	.align	3
.LC257:
	.string	"Pressed Down!"
	.text
	.align	2
	.type	_ZZL21ShowDemoWindowWidgetsvEN5Funcs10MyCallbackE_0P26ImGuiInputTextCallbackData, %function
_ZZL21ShowDemoWindowWidgetsvEN5Funcs10MyCallbackE_0P26ImGuiInputTextCallbackData:
.LFB1154:
	.cfi_startproc
	stp	x29, x30, [sp, -48]!
	.cfi_def_cfa_offset 48
	.cfi_offset 29, -48
	.cfi_offset 30, -40
	mov	x29, sp
	str	x0, [sp, 24]
	ldr	x0, [sp, 24]
	ldr	w0, [x0]
	cmp	w0, 64
	bne	.L108
	ldr	x0, [sp, 24]
	ldr	w1, [x0, 44]
	mov	x3, 0
	adrp	x0, .LC255
	add	x2, x0, :lo12:.LC255
	ldr	x0, [sp, 24]
	bl	_ZN26ImGuiInputTextCallbackData11InsertCharsEiPKcS1_
	b	.L109
.L108:
	ldr	x0, [sp, 24]
	ldr	w0, [x0]
	cmp	w0, 128
	bne	.L110
	ldr	x0, [sp, 24]
	ldr	w0, [x0, 20]
	cmp	w0, 515
	bne	.L111
	ldr	x0, [sp, 24]
	ldr	w0, [x0, 32]
	mov	w2, w0
	mov	w1, 0
	ldr	x0, [sp, 24]
	bl	_ZN26ImGuiInputTextCallbackData11DeleteCharsEii
	mov	x3, 0
	adrp	x0, .LC256
	add	x2, x0, :lo12:.LC256
	mov	w1, 0
	ldr	x0, [sp, 24]
	bl	_ZN26ImGuiInputTextCallbackData11InsertCharsEiPKcS1_
	ldr	x0, [sp, 24]
	bl	_ZN26ImGuiInputTextCallbackData9SelectAllEv
	b	.L109
.L111:
	ldr	x0, [sp, 24]
	ldr	w0, [x0, 20]
	cmp	w0, 516
	bne	.L109
	ldr	x0, [sp, 24]
	ldr	w0, [x0, 32]
	mov	w2, w0
	mov	w1, 0
	ldr	x0, [sp, 24]
	bl	_ZN26ImGuiInputTextCallbackData11DeleteCharsEii
	mov	x3, 0
	adrp	x0, .LC257
	add	x2, x0, :lo12:.LC257
	mov	w1, 0
	ldr	x0, [sp, 24]
	bl	_ZN26ImGuiInputTextCallbackData11InsertCharsEiPKcS1_
	ldr	x0, [sp, 24]
	bl	_ZN26ImGuiInputTextCallbackData9SelectAllEv
	b	.L109
.L110:
	ldr	x0, [sp, 24]
	ldr	w0, [x0]
	cmp	w0, 524288
	bne	.L109
	ldr	x0, [sp, 24]
	ldr	x0, [x0, 24]
	ldrb	w0, [x0]
	strb	w0, [sp, 39]
	ldrb	w0, [sp, 39]
	cmp	w0, 96
	bls	.L112
	ldrb	w0, [sp, 39]
	cmp	w0, 122
	bls	.L113
.L112:
	ldrb	w0, [sp, 39]
	cmp	w0, 64
	bls	.L114
	ldrb	w0, [sp, 39]
	cmp	w0, 90
	bhi	.L114
.L113:
	ldr	x0, [sp, 24]
	ldr	x0, [x0, 24]
	ldrb	w1, [x0]
	ldr	x0, [sp, 24]
	ldr	x0, [x0, 24]
	eor	w1, w1, 32
	and	w1, w1, 255
	strb	w1, [x0]
.L114:
	ldr	x0, [sp, 24]
	mov	w1, 1
	strb	w1, [x0, 40]
	ldr	x0, [sp, 24]
	ldr	x0, [x0, 8]
	str	x0, [sp, 40]
	ldr	x0, [sp, 40]
	ldr	w0, [x0]
	add	w1, w0, 1
	ldr	x0, [sp, 40]
	str	w1, [x0]
.L109:
	mov	w0, 0
	ldp	x29, x30, [sp], 48
	.cfi_restore 30
	.cfi_restore 29
	.cfi_def_cfa_offset 0
	ret
	.cfi_endproc
.LFE1154:
	.size	_ZZL21ShowDemoWindowWidgetsvEN5Funcs10MyCallbackE_0P26ImGuiInputTextCallbackData, .-_ZZL21ShowDemoWindowWidgetsvEN5Funcs10MyCallbackE_0P26ImGuiInputTextCallbackData
	.local	_ZZL21ShowDemoWindowWidgetsvE4buf1_0
	.comm	_ZZL21ShowDemoWindowWidgetsvE4buf1_0,64,8
	.local	_ZZL21ShowDemoWindowWidgetsvE4buf2_0
	.comm	_ZZL21ShowDemoWindowWidgetsvE4buf2_0,64,8
	.local	_ZZL21ShowDemoWindowWidgetsvE4buf3_0
	.comm	_ZZL21ShowDemoWindowWidgetsvE4buf3_0,64,8
	.local	_ZZL21ShowDemoWindowWidgetsvE10edit_count
	.comm	_ZZL21ShowDemoWindowWidgetsvE10edit_count,4,4
	.section	.rodata
	.align	3
.LC258:
	.string	"static int ShowDemoWindowWidgets()::Funcs::MyResizeCallback(ImGuiInputTextCallbackData*)"
	.align	3
.LC259:
	.string	"my_str->begin() == data->Buf"
	.text
	.align	2
	.type	_ZZL21ShowDemoWindowWidgetsvEN5Funcs16MyResizeCallbackE_1P26ImGuiInputTextCallbackData, %function
_ZZL21ShowDemoWindowWidgetsvEN5Funcs16MyResizeCallbackE_1P26ImGuiInputTextCallbackData:
.LFB1155:
	.cfi_startproc
	stp	x29, x30, [sp, -48]!
	.cfi_def_cfa_offset 48
	.cfi_offset 29, -48
	.cfi_offset 30, -40
	mov	x29, sp
	str	x0, [sp, 24]
	ldr	x0, [sp, 24]
	ldr	w0, [x0]
	cmp	w0, 262144
	bne	.L117
	ldr	x0, [sp, 24]
	ldr	x0, [x0, 8]
	str	x0, [sp, 40]
	ldr	x0, [sp, 40]
	bl	_ZN8ImVectorIcE5beginEv
	mov	x1, x0
	ldr	x0, [sp, 24]
	ldr	x0, [x0, 24]
	cmp	x1, x0
	beq	.L118
	adrp	x0, .LC258
	add	x3, x0, :lo12:.LC258
	mov	w2, 1474
	adrp	x0, .LC156
	add	x1, x0, :lo12:.LC156
	adrp	x0, .LC259
	add	x0, x0, :lo12:.LC259
	bl	__assert_fail
.L118:
	ldr	x0, [sp, 24]
	ldr	w0, [x0, 36]
	mov	w1, w0
	ldr	x0, [sp, 40]
	bl	_ZN8ImVectorIcE6resizeEi
	ldr	x0, [sp, 40]
	bl	_ZN8ImVectorIcE5beginEv
	mov	x1, x0
	ldr	x0, [sp, 24]
	str	x1, [x0, 24]
.L117:
	mov	w0, 0
	ldp	x29, x30, [sp], 48
	.cfi_restore 30
	.cfi_restore 29
	.cfi_def_cfa_offset 0
	ret
	.cfi_endproc
.LFE1155:
	.size	_ZZL21ShowDemoWindowWidgetsvEN5Funcs16MyResizeCallbackE_1P26ImGuiInputTextCallbackData, .-_ZZL21ShowDemoWindowWidgetsvEN5Funcs16MyResizeCallbackE_1P26ImGuiInputTextCallbackData
	.section	.rodata
	.align	3
.LC260:
	.string	"static bool ShowDemoWindowWidgets()::Funcs::MyInputTextMultiline(const char*, ImVector<char>*, const ImVec2&, ImGuiInputTextFlags)"
	.align	3
.LC261:
	.string	"(flags & ImGuiInputTextFlags_CallbackResize) == 0"
	.text
	.align	2
	.type	_ZZL21ShowDemoWindowWidgetsvEN5Funcs20MyInputTextMultilineE_1PKcP8ImVectorIcERK6ImVec2i, %function
_ZZL21ShowDemoWindowWidgetsvEN5Funcs20MyInputTextMultilineE_1PKcP8ImVectorIcERK6ImVec2i:
.LFB1156:
	.cfi_startproc
	stp	x29, x30, [sp, -64]!
	.cfi_def_cfa_offset 64
	.cfi_offset 29, -64
	.cfi_offset 30, -56
	mov	x29, sp
	str	x19, [sp, 16]
	.cfi_offset 19, -48
	str	x0, [sp, 56]
	str	x1, [sp, 48]
	str	x2, [sp, 40]
	str	w3, [sp, 36]
	ldr	w0, [sp, 36]
	and	w0, w0, 262144
	cmp	w0, 0
	beq	.L121
	adrp	x0, .LC260
	add	x3, x0, :lo12:.LC260
	mov	w2, 1485
	adrp	x0, .LC156
	add	x1, x0, :lo12:.LC156
	adrp	x0, .LC261
	add	x0, x0, :lo12:.LC261
	bl	__assert_fail
.L121:
	ldr	x0, [sp, 48]
	bl	_ZN8ImVectorIcE5beginEv
	mov	x19, x0
	ldr	x0, [sp, 48]
	bl	_ZNK8ImVectorIcE4sizeEv
	sxtw	x1, w0
	ldr	w0, [sp, 36]
	orr	w2, w0, 262144
	ldr	x6, [sp, 48]
	adrp	x0, _ZZL21ShowDemoWindowWidgetsvEN5Funcs16MyResizeCallbackE_1P26ImGuiInputTextCallbackData
	add	x5, x0, :lo12:_ZZL21ShowDemoWindowWidgetsvEN5Funcs16MyResizeCallbackE_1P26ImGuiInputTextCallbackData
	mov	w4, w2
	ldr	x3, [sp, 40]
	mov	x2, x1
	mov	x1, x19
	ldr	x0, [sp, 56]
	bl	_ZN5ImGui18InputTextMultilineEPKcPcmRK6ImVec2iPFiP26ImGuiInputTextCallbackDataEPv
	and	w0, w0, 255
	ldr	x19, [sp, 16]
	ldp	x29, x30, [sp], 64
	.cfi_restore 30
	.cfi_restore 29
	.cfi_restore 19
	.cfi_def_cfa_offset 0
	ret
	.cfi_endproc
.LFE1156:
	.size	_ZZL21ShowDemoWindowWidgetsvEN5Funcs20MyInputTextMultilineE_1PKcP8ImVectorIcERK6ImVec2i, .-_ZZL21ShowDemoWindowWidgetsvEN5Funcs20MyInputTextMultilineE_1PKcP8ImVectorIcERK6ImVec2i
	.local	_ZZL21ShowDemoWindowWidgetsvE6my_str
	.comm	_ZZL21ShowDemoWindowWidgetsvE6my_str,16,8
	.local	_ZGVZL21ShowDemoWindowWidgetsvE6my_str
	.comm	_ZGVZL21ShowDemoWindowWidgetsvE6my_str,8,8
	.data
	.align	2
	.type	_ZZL21ShowDemoWindowWidgetsvE13tab_bar_flags, %object
	.size	_ZZL21ShowDemoWindowWidgetsvE13tab_bar_flags, 4
_ZZL21ShowDemoWindowWidgetsvE13tab_bar_flags:
	.word	1
	.align	3
	.type	_ZZL21ShowDemoWindowWidgetsvE6opened, %object
	.size	_ZZL21ShowDemoWindowWidgetsvE6opened, 4
_ZZL21ShowDemoWindowWidgetsvE6opened:
	.byte	1
	.byte	1
	.byte	1
	.byte	1
	.local	_ZZL21ShowDemoWindowWidgetsvE11active_tabs
	.comm	_ZZL21ShowDemoWindowWidgetsvE11active_tabs,16,8
	.local	_ZGVZL21ShowDemoWindowWidgetsvE11active_tabs
	.comm	_ZGVZL21ShowDemoWindowWidgetsvE11active_tabs,8,8
	.local	_ZZL21ShowDemoWindowWidgetsvE11next_tab_id
	.comm	_ZZL21ShowDemoWindowWidgetsvE11next_tab_id,4,4
	.type	_ZZL21ShowDemoWindowWidgetsvE19show_leading_button, %object
	.size	_ZZL21ShowDemoWindowWidgetsvE19show_leading_button, 1
_ZZL21ShowDemoWindowWidgetsvE19show_leading_button:
	.byte	1
	.type	_ZZL21ShowDemoWindowWidgetsvE20show_trailing_button, %object
	.size	_ZZL21ShowDemoWindowWidgetsvE20show_trailing_button, 1
_ZZL21ShowDemoWindowWidgetsvE20show_trailing_button:
	.byte	1
	.align	2
	.type	_ZZL21ShowDemoWindowWidgetsvE13tab_bar_flags_0, %object
	.size	_ZZL21ShowDemoWindowWidgetsvE13tab_bar_flags_0, 4
_ZZL21ShowDemoWindowWidgetsvE13tab_bar_flags_0:
	.word	67
	.type	_ZZL21ShowDemoWindowWidgetsvE7animate, %object
	.size	_ZZL21ShowDemoWindowWidgetsvE7animate, 1
_ZZL21ShowDemoWindowWidgetsvE7animate:
	.byte	1
	.align	3
	.type	_ZZL21ShowDemoWindowWidgetsvE3arr_0, %object
	.size	_ZZL21ShowDemoWindowWidgetsvE3arr_0, 28
_ZZL21ShowDemoWindowWidgetsvE3arr_0:
	.word	1058642330
	.word	1036831949
	.word	1065353216
	.word	1056964608
	.word	1064011039
	.word	1036831949
	.word	1045220557
	.local	_ZZL21ShowDemoWindowWidgetsvE6values
	.comm	_ZZL21ShowDemoWindowWidgetsvE6values,360,8
	.local	_ZZL21ShowDemoWindowWidgetsvE13values_offset
	.comm	_ZZL21ShowDemoWindowWidgetsvE13values_offset,4,4
	.local	_ZZL21ShowDemoWindowWidgetsvE12refresh_time
	.comm	_ZZL21ShowDemoWindowWidgetsvE12refresh_time,8,8
	.local	_ZZL21ShowDemoWindowWidgetsvE5phase
	.comm	_ZZL21ShowDemoWindowWidgetsvE5phase,4,4
	.text
	.align	2
	.type	_ZZL21ShowDemoWindowWidgetsvEN5Funcs3SinE_2Pvi, %function
_ZZL21ShowDemoWindowWidgetsvEN5Funcs3SinE_2Pvi:
.LFB1157:
	.cfi_startproc
	stp	x29, x30, [sp, -32]!
	.cfi_def_cfa_offset 32
	.cfi_offset 29, -32
	.cfi_offset 30, -24
	mov	x29, sp
	str	x0, [sp, 24]
	str	w1, [sp, 20]
	ldr	s0, [sp, 20]
	scvtf	s0, s0
	mov	w0, 52429
	movk	w0, 0x3dcc, lsl 16
	fmov	s1, w0
	fmul	s0, s0, s1
	bl	sinf
	ldp	x29, x30, [sp], 32
	.cfi_restore 30
	.cfi_restore 29
	.cfi_def_cfa_offset 0
	ret
	.cfi_endproc
.LFE1157:
	.size	_ZZL21ShowDemoWindowWidgetsvEN5Funcs3SinE_2Pvi, .-_ZZL21ShowDemoWindowWidgetsvEN5Funcs3SinE_2Pvi
	.align	2
	.type	_ZZL21ShowDemoWindowWidgetsvEN5Funcs3SawE_2Pvi, %function
_ZZL21ShowDemoWindowWidgetsvEN5Funcs3SawE_2Pvi:
.LFB1158:
	.cfi_startproc
	sub	sp, sp, #16
	.cfi_def_cfa_offset 16
	str	x0, [sp, 8]
	str	w1, [sp, 4]
	ldr	w0, [sp, 4]
	and	w0, w0, 1
	cmp	w0, 0
	beq	.L126
	fmov	s0, 1.0e+0
	b	.L128
.L126:
	fmov	s0, -1.0e+0
.L128:
	add	sp, sp, 16
	.cfi_def_cfa_offset 0
	ret
	.cfi_endproc
.LFE1158:
	.size	_ZZL21ShowDemoWindowWidgetsvEN5Funcs3SawE_2Pvi, .-_ZZL21ShowDemoWindowWidgetsvEN5Funcs3SawE_2Pvi
	.local	_ZZL21ShowDemoWindowWidgetsvE9func_type
	.comm	_ZZL21ShowDemoWindowWidgetsvE9func_type,4,4
	.data
	.align	2
	.type	_ZZL21ShowDemoWindowWidgetsvE13display_count, %object
	.size	_ZZL21ShowDemoWindowWidgetsvE13display_count, 4
_ZZL21ShowDemoWindowWidgetsvE13display_count:
	.word	70
	.local	_ZZL21ShowDemoWindowWidgetsvE8progress
	.comm	_ZZL21ShowDemoWindowWidgetsvE8progress,4,4
	.align	2
	.type	_ZZL21ShowDemoWindowWidgetsvE12progress_dir, %object
	.size	_ZZL21ShowDemoWindowWidgetsvE12progress_dir, 4
_ZZL21ShowDemoWindowWidgetsvE12progress_dir:
	.word	1065353216
	.align	3
	.type	_ZZL21ShowDemoWindowWidgetsvE5color, %object
	.size	_ZZL21ShowDemoWindowWidgetsvE5color, 16
_ZZL21ShowDemoWindowWidgetsvE5color:
	.word	1055188197
	.word	1058050193
	.word	1058708123
	.word	1061734601
	.type	_ZZL21ShowDemoWindowWidgetsvE13alpha_preview, %object
	.size	_ZZL21ShowDemoWindowWidgetsvE13alpha_preview, 1
_ZZL21ShowDemoWindowWidgetsvE13alpha_preview:
	.byte	1
	.local	_ZZL21ShowDemoWindowWidgetsvE18alpha_half_preview
	.comm	_ZZL21ShowDemoWindowWidgetsvE18alpha_half_preview,1,1
	.type	_ZZL21ShowDemoWindowWidgetsvE13drag_and_drop, %object
	.size	_ZZL21ShowDemoWindowWidgetsvE13drag_and_drop, 1
_ZZL21ShowDemoWindowWidgetsvE13drag_and_drop:
	.byte	1
	.type	_ZZL21ShowDemoWindowWidgetsvE12options_menu, %object
	.size	_ZZL21ShowDemoWindowWidgetsvE12options_menu, 1
_ZZL21ShowDemoWindowWidgetsvE12options_menu:
	.byte	1
	.local	_ZZL21ShowDemoWindowWidgetsvE3hdr
	.comm	_ZZL21ShowDemoWindowWidgetsvE3hdr,1,1
	.type	_ZZL21ShowDemoWindowWidgetsvE18saved_palette_init, %object
	.size	_ZZL21ShowDemoWindowWidgetsvE18saved_palette_init, 1
_ZZL21ShowDemoWindowWidgetsvE18saved_palette_init:
	.byte	1
	.local	_ZZL21ShowDemoWindowWidgetsvE13saved_palette
	.comm	_ZZL21ShowDemoWindowWidgetsvE13saved_palette,512,8
	.local	_ZZL21ShowDemoWindowWidgetsvE12backup_color
	.comm	_ZZL21ShowDemoWindowWidgetsvE12backup_color,16,8
	.local	_ZZL21ShowDemoWindowWidgetsvE9no_border
	.comm	_ZZL21ShowDemoWindowWidgetsvE9no_border,1,1
	.type	_ZZL21ShowDemoWindowWidgetsvE5alpha, %object
	.size	_ZZL21ShowDemoWindowWidgetsvE5alpha, 1
_ZZL21ShowDemoWindowWidgetsvE5alpha:
	.byte	1
	.type	_ZZL21ShowDemoWindowWidgetsvE9alpha_bar, %object
	.size	_ZZL21ShowDemoWindowWidgetsvE9alpha_bar, 1
_ZZL21ShowDemoWindowWidgetsvE9alpha_bar:
	.byte	1
	.type	_ZZL21ShowDemoWindowWidgetsvE12side_preview, %object
	.size	_ZZL21ShowDemoWindowWidgetsvE12side_preview, 1
_ZZL21ShowDemoWindowWidgetsvE12side_preview:
	.byte	1
	.local	_ZZL21ShowDemoWindowWidgetsvE9ref_color
	.comm	_ZZL21ShowDemoWindowWidgetsvE9ref_color,1,1
	.align	3
	.type	_ZZL21ShowDemoWindowWidgetsvE11ref_color_v, %object
	.size	_ZZL21ShowDemoWindowWidgetsvE11ref_color_v, 16
_ZZL21ShowDemoWindowWidgetsvE11ref_color_v:
	.word	1065353216
	.word	0
	.word	1065353216
	.word	1056964608
	.local	_ZZL21ShowDemoWindowWidgetsvE12display_mode
	.comm	_ZZL21ShowDemoWindowWidgetsvE12display_mode,4,4
	.local	_ZZL21ShowDemoWindowWidgetsvE11picker_mode
	.comm	_ZZL21ShowDemoWindowWidgetsvE11picker_mode,4,4
	.align	3
	.type	_ZZL21ShowDemoWindowWidgetsvE9color_hsv, %object
	.size	_ZZL21ShowDemoWindowWidgetsvE9color_hsv, 16
_ZZL21ShowDemoWindowWidgetsvE9color_hsv:
	.word	1047233823
	.word	1065353216
	.word	1065353216
	.word	1065353216
	.local	_ZZL21ShowDemoWindowWidgetsvE5flags_1
	.comm	_ZZL21ShowDemoWindowWidgetsvE5flags_1,4,4
	.align	2
	.type	_ZZL21ShowDemoWindowWidgetsvE6drag_f, %object
	.size	_ZZL21ShowDemoWindowWidgetsvE6drag_f, 4
_ZZL21ShowDemoWindowWidgetsvE6drag_f:
	.word	1056964608
	.align	2
	.type	_ZZL21ShowDemoWindowWidgetsvE6drag_i, %object
	.size	_ZZL21ShowDemoWindowWidgetsvE6drag_i, 4
_ZZL21ShowDemoWindowWidgetsvE6drag_i:
	.word	50
	.align	2
	.type	_ZZL21ShowDemoWindowWidgetsvE8slider_f, %object
	.size	_ZZL21ShowDemoWindowWidgetsvE8slider_f, 4
_ZZL21ShowDemoWindowWidgetsvE8slider_f:
	.word	1056964608
	.align	2
	.type	_ZZL21ShowDemoWindowWidgetsvE8slider_i, %object
	.size	_ZZL21ShowDemoWindowWidgetsvE8slider_i, 4
_ZZL21ShowDemoWindowWidgetsvE8slider_i:
	.word	50
	.align	2
	.type	_ZZL21ShowDemoWindowWidgetsvE5begin, %object
	.size	_ZZL21ShowDemoWindowWidgetsvE5begin, 4
_ZZL21ShowDemoWindowWidgetsvE5begin:
	.word	1092616192
	.align	2
	.type	_ZZL21ShowDemoWindowWidgetsvE3end, %object
	.size	_ZZL21ShowDemoWindowWidgetsvE3end, 4
_ZZL21ShowDemoWindowWidgetsvE3end:
	.word	1119092736
	.align	2
	.type	_ZZL21ShowDemoWindowWidgetsvE7begin_i, %object
	.size	_ZZL21ShowDemoWindowWidgetsvE7begin_i, 4
_ZZL21ShowDemoWindowWidgetsvE7begin_i:
	.word	100
	.align	2
	.type	_ZZL21ShowDemoWindowWidgetsvE5end_i, %object
	.size	_ZZL21ShowDemoWindowWidgetsvE5end_i, 4
_ZZL21ShowDemoWindowWidgetsvE5end_i:
	.word	1000
	.type	_ZZL21ShowDemoWindowWidgetsvE4s8_v, %object
	.size	_ZZL21ShowDemoWindowWidgetsvE4s8_v, 1
_ZZL21ShowDemoWindowWidgetsvE4s8_v:
	.byte	127
	.type	_ZZL21ShowDemoWindowWidgetsvE4u8_v, %object
	.size	_ZZL21ShowDemoWindowWidgetsvE4u8_v, 1
_ZZL21ShowDemoWindowWidgetsvE4u8_v:
	.byte	-1
	.align	1
	.type	_ZZL21ShowDemoWindowWidgetsvE5s16_v, %object
	.size	_ZZL21ShowDemoWindowWidgetsvE5s16_v, 2
_ZZL21ShowDemoWindowWidgetsvE5s16_v:
	.hword	32767
	.align	1
	.type	_ZZL21ShowDemoWindowWidgetsvE5u16_v, %object
	.size	_ZZL21ShowDemoWindowWidgetsvE5u16_v, 2
_ZZL21ShowDemoWindowWidgetsvE5u16_v:
	.hword	-1
	.align	2
	.type	_ZZL21ShowDemoWindowWidgetsvE5s32_v, %object
	.size	_ZZL21ShowDemoWindowWidgetsvE5s32_v, 4
_ZZL21ShowDemoWindowWidgetsvE5s32_v:
	.word	-1
	.align	2
	.type	_ZZL21ShowDemoWindowWidgetsvE5u32_v, %object
	.size	_ZZL21ShowDemoWindowWidgetsvE5u32_v, 4
_ZZL21ShowDemoWindowWidgetsvE5u32_v:
	.word	-1
	.align	3
	.type	_ZZL21ShowDemoWindowWidgetsvE5s64_v, %object
	.size	_ZZL21ShowDemoWindowWidgetsvE5s64_v, 8
_ZZL21ShowDemoWindowWidgetsvE5s64_v:
	.xword	-1
	.align	3
	.type	_ZZL21ShowDemoWindowWidgetsvE5u64_v, %object
	.size	_ZZL21ShowDemoWindowWidgetsvE5u64_v, 8
_ZZL21ShowDemoWindowWidgetsvE5u64_v:
	.xword	-1
	.align	2
	.type	_ZZL21ShowDemoWindowWidgetsvE5f32_v, %object
	.size	_ZZL21ShowDemoWindowWidgetsvE5f32_v, 4
_ZZL21ShowDemoWindowWidgetsvE5f32_v:
	.word	1039918957
	.align	3
	.type	_ZZL21ShowDemoWindowWidgetsvE5f64_v, %object
	.size	_ZZL21ShowDemoWindowWidgetsvE5f64_v, 8
_ZZL21ShowDemoWindowWidgetsvE5f64_v:
	.word	848388594
	.word	1089861888
	.local	_ZZL21ShowDemoWindowWidgetsvE10drag_clamp
	.comm	_ZZL21ShowDemoWindowWidgetsvE10drag_clamp,1,1
	.type	_ZZL21ShowDemoWindowWidgetsvE11inputs_step, %object
	.size	_ZZL21ShowDemoWindowWidgetsvE11inputs_step, 1
_ZZL21ShowDemoWindowWidgetsvE11inputs_step:
	.byte	1
	.align	3
	.type	_ZZL21ShowDemoWindowWidgetsvE5vec4f, %object
	.size	_ZZL21ShowDemoWindowWidgetsvE5vec4f, 16
_ZZL21ShowDemoWindowWidgetsvE5vec4f:
	.word	1036831949
	.word	1045220557
	.word	1050253722
	.word	1054951342
	.align	3
	.type	_ZZL21ShowDemoWindowWidgetsvE5vec4i, %object
	.size	_ZZL21ShowDemoWindowWidgetsvE5vec4i, 16
_ZZL21ShowDemoWindowWidgetsvE5vec4i:
	.word	1
	.word	5
	.word	100
	.word	255
	.local	_ZZL21ShowDemoWindowWidgetsvE9int_value
	.comm	_ZZL21ShowDemoWindowWidgetsvE9int_value,4,4
	.align	3
	.type	_ZZL21ShowDemoWindowWidgetsvE6values_0, %object
	.size	_ZZL21ShowDemoWindowWidgetsvE6values_0, 28
_ZZL21ShowDemoWindowWidgetsvE6values_0:
	.word	0
	.word	1058642330
	.word	1051931443
	.word	1063675494
	.word	1060320051
	.word	1045220557
	.word	0
	.align	3
	.type	_ZZL21ShowDemoWindowWidgetsvE7values2, %object
	.size	_ZZL21ShowDemoWindowWidgetsvE7values2, 16
_ZZL21ShowDemoWindowWidgetsvE7values2:
	.word	1045220557
	.word	1061997773
	.word	1053609165
	.word	1048576000
	.align	3
	.type	_ZZL21ShowDemoWindowWidgetsvE4col1_0, %object
	.size	_ZZL21ShowDemoWindowWidgetsvE4col1_0, 12
_ZZL21ShowDemoWindowWidgetsvE4col1_0:
	.word	1065353216
	.word	0
	.word	1045220557
	.align	3
	.type	_ZZL21ShowDemoWindowWidgetsvE4col2_0, %object
	.size	_ZZL21ShowDemoWindowWidgetsvE4col2_0, 16
_ZZL21ShowDemoWindowWidgetsvE4col2_0:
	.word	1053609165
	.word	1060320051
	.word	0
	.word	1056964608
	.local	_ZZL21ShowDemoWindowWidgetsvE4mode
	.comm	_ZZL21ShowDemoWindowWidgetsvE4mode,4,4
	.section	.rodata
	.align	3
.LC262:
	.string	"Bobby"
	.align	3
.LC263:
	.string	"Beatrice"
	.align	3
.LC264:
	.string	"Betty"
	.align	3
.LC265:
	.string	"Brianna"
	.align	3
.LC266:
	.string	"Barry"
	.align	3
.LC267:
	.string	"Bernard"
	.align	3
.LC268:
	.string	"Bibi"
	.align	3
.LC269:
	.string	"Blaine"
	.align	3
.LC270:
	.string	"Bryn"
	.section	.data.rel.local,"aw"
	.align	3
	.type	_ZZL21ShowDemoWindowWidgetsvE5names, %object
	.size	_ZZL21ShowDemoWindowWidgetsvE5names, 72
_ZZL21ShowDemoWindowWidgetsvE5names:
	.xword	.LC262
	.xword	.LC263
	.xword	.LC264
	.xword	.LC265
	.xword	.LC266
	.xword	.LC267
	.xword	.LC268
	.xword	.LC269
	.xword	.LC270
	.section	.rodata
	.align	3
.LC271:
	.string	"Item One"
	.align	3
.LC272:
	.string	"Item Two"
	.align	3
.LC273:
	.string	"Item Three"
	.align	3
.LC274:
	.string	"Item Four"
	.align	3
.LC275:
	.string	"Item Five"
	.section	.data.rel.local
	.align	3
	.type	_ZZL21ShowDemoWindowWidgetsvE10item_names, %object
	.size	_ZZL21ShowDemoWindowWidgetsvE10item_names, 40
_ZZL21ShowDemoWindowWidgetsvE10item_names:
	.xword	.LC271
	.xword	.LC272
	.xword	.LC273
	.xword	.LC274
	.xword	.LC275
	.data
	.align	2
	.type	_ZZL21ShowDemoWindowWidgetsvE9item_type, %object
	.size	_ZZL21ShowDemoWindowWidgetsvE9item_type, 4
_ZZL21ShowDemoWindowWidgetsvE9item_type:
	.word	4
	.local	_ZZL21ShowDemoWindowWidgetsvE13item_disabled
	.comm	_ZZL21ShowDemoWindowWidgetsvE13item_disabled,1,1
	.local	_ZZL21ShowDemoWindowWidgetsvE1b
	.comm	_ZZL21ShowDemoWindowWidgetsvE1b,1,1
	.align	3
	.type	_ZZL21ShowDemoWindowWidgetsvE5col4f, %object
	.size	_ZZL21ShowDemoWindowWidgetsvE5col4f, 16
_ZZL21ShowDemoWindowWidgetsvE5col4f:
	.word	1065353216
	.word	1056964608
	.word	0
	.word	1065353216
	.local	_ZZL21ShowDemoWindowWidgetsvE3str
	.comm	_ZZL21ShowDemoWindowWidgetsvE3str,16,8
	.align	2
	.type	_ZZL21ShowDemoWindowWidgetsvE7current, %object
	.size	_ZZL21ShowDemoWindowWidgetsvE7current, 4
_ZZL21ShowDemoWindowWidgetsvE7current:
	.word	1
	.align	2
	.type	_ZZL21ShowDemoWindowWidgetsvE7current_0, %object
	.size	_ZZL21ShowDemoWindowWidgetsvE7current_0, 4
_ZZL21ShowDemoWindowWidgetsvE7current_0:
	.word	1
	.local	_ZZL21ShowDemoWindowWidgetsvE31embed_all_inside_a_child_window
	.comm	_ZZL21ShowDemoWindowWidgetsvE31embed_all_inside_a_child_window,1,1
	.local	_ZZL21ShowDemoWindowWidgetsvE11test_window
	.comm	_ZZL21ShowDemoWindowWidgetsvE11test_window,1,1
	.local	_ZZL21ShowDemoWindowWidgetsvE6filter
	.comm	_ZZL21ShowDemoWindowWidgetsvE6filter,280,8
	.local	_ZGVZL21ShowDemoWindowWidgetsvE6filter
	.comm	_ZGVZL21ShowDemoWindowWidgetsvE6filter,8,8
	.section	.text._ZN15ImGuiTextFilterD2Ev,"axG",@progbits,_ZN15ImGuiTextFilterD5Ev,comdat
	.align	2
	.weak	_ZN15ImGuiTextFilterD2Ev
	.type	_ZN15ImGuiTextFilterD2Ev, %function
_ZN15ImGuiTextFilterD2Ev:
.LFB1160:
	.cfi_startproc
	stp	x29, x30, [sp, -32]!
	.cfi_def_cfa_offset 32
	.cfi_offset 29, -32
	.cfi_offset 30, -24
	mov	x29, sp
	str	x0, [sp, 24]
	ldr	x0, [sp, 24]
	add	x0, x0, 256
	bl	_ZN8ImVectorIN15ImGuiTextFilter14ImGuiTextRangeEED1Ev
	nop
	ldp	x29, x30, [sp], 32
	.cfi_restore 30
	.cfi_restore 29
	.cfi_def_cfa_offset 0
	ret
	.cfi_endproc
.LFE1160:
	.size	_ZN15ImGuiTextFilterD2Ev, .-_ZN15ImGuiTextFilterD2Ev
	.weak	_ZN15ImGuiTextFilterD1Ev
	.set	_ZN15ImGuiTextFilterD1Ev,_ZN15ImGuiTextFilterD2Ev
	.section	.rodata
	.align	3
.LC276:
	.string	"Widgets"
	.align	3
.LC277:
	.string	"Widgets/Basic"
	.align	3
.LC278:
	.string	"Basic"
	.align	3
.LC279:
	.string	"Widgets/Basic/Button"
	.align	3
.LC39:
	.string	"Button"
	.align	3
.LC280:
	.string	"Thanks for clicking me!"
	.align	3
.LC281:
	.string	"Widgets/Basic/Checkbox"
	.align	3
.LC282:
	.string	"checkbox"
	.align	3
.LC283:
	.string	"Widgets/Basic/RadioButton"
	.align	3
.LC284:
	.string	"radio a"
	.align	3
.LC285:
	.string	"radio b"
	.align	3
.LC286:
	.string	"radio c"
	.align	3
.LC287:
	.string	"Widgets/Basic/Buttons (Colored)"
	.align	3
.LC288:
	.string	"Click"
	.align	3
.LC289:
	.string	"Hold to repeat:"
	.align	3
.LC290:
	.string	"Widgets/Basic/Buttons (Repeating)"
	.align	3
.LC291:
	.string	"##left"
	.align	3
.LC292:
	.string	"##right"
	.align	3
.LC293:
	.string	"%d"
	.align	3
.LC294:
	.string	"Value"
	.align	3
.LC295:
	.string	"label"
	.align	3
.LC296:
	.string	"Widgets/Basic/Combo"
	.align	3
.LC298:
	.string	"combo"
	.align	3
.LC299:
	.string	"Using the simplified one-liner Combo API here.\nRefer to the \"Combo\" section below for an explanation of how to use the more flexible and general BeginCombo/EndCombo API."
	.align	3
.LC300:
	.string	"Widgets/Basic/InputText"
	.align	3
.LC301:
	.string	"input text"
	.align	3
.LC302:
	.ascii	"USER:\nHold SHIFT or use mouse to select text.\nCTRL+Left/Ri"
	.ascii	"ght to word jump.\nCTRL+A or Double-Click to select all.\nCT"
	.ascii	"RL+X,CTRL+C,CTRL+V clipboard.\nCTRL+Z"
	.string	",CTRL+Y undo/redo.\nESCAPE to revert.\n\nPROGRAMMER:\nYou can use the ImGuiInputTextFlags_CallbackResize facility if you need to wire InputText() to a dynamic string type. See misc/cpp/imgui_stdlib.h for an example (this is not demonstrated in imgui_demo.cpp)."
	.align	3
.LC303:
	.string	"enter text here"
	.align	3
.LC304:
	.string	"input text (w/ hint)"
	.align	3
.LC305:
	.string	"Widgets/Basic/InputInt, InputFloat"
	.align	3
.LC306:
	.string	"input int"
	.align	3
.LC307:
	.string	"%.3f"
	.align	3
.LC308:
	.string	"input float"
	.align	3
.LC309:
	.string	"%.8f"
	.align	3
.LC310:
	.string	"input double"
	.align	3
.LC311:
	.string	"%e"
	.align	3
.LC312:
	.string	"input scientific"
	.align	3
.LC313:
	.string	"You can input value using the scientific notation,\n  e.g. \"1e+8\" becomes \"100000000\"."
	.align	3
.LC314:
	.string	"input float3"
	.align	3
.LC315:
	.string	"Widgets/Basic/DragInt, DragFloat"
	.align	3
.LC316:
	.string	"drag int"
	.align	3
.LC317:
	.string	"Click and drag to edit value.\nHold SHIFT/ALT for faster/slower edit.\nDouble-click or CTRL+click to input value."
	.align	3
.LC318:
	.string	"%d%%"
	.align	3
.LC319:
	.string	"drag int 0..100"
	.align	3
.LC320:
	.string	"drag float"
	.align	3
.LC321:
	.string	"%.06f ns"
	.align	3
.LC322:
	.string	"drag small float"
	.align	3
.LC323:
	.string	"Widgets/Basic/SliderInt, SliderFloat"
	.align	3
.LC324:
	.string	"slider int"
	.align	3
.LC325:
	.string	"CTRL+click to input value."
	.align	3
.LC326:
	.string	"ratio = %.3f"
	.align	3
.LC327:
	.string	"slider float"
	.align	3
.LC328:
	.string	"%.4f"
	.align	3
.LC329:
	.string	"slider float (log)"
	.align	3
.LC330:
	.string	"Widgets/Basic/SliderAngle"
	.align	3
.LC331:
	.string	"%.0f deg"
	.align	3
.LC332:
	.string	"slider angle"
	.align	3
.LC333:
	.string	"Widgets/Basic/Slider (enum)"
	.align	3
.LC335:
	.string	"Unknown"
	.align	3
.LC336:
	.string	"slider enum"
	.align	3
.LC337:
	.string	"Using the format string parameter to display a name instead of the underlying integer."
	.align	3
.LC338:
	.string	"Widgets/Basic/ColorEdit3, ColorEdit4"
	.align	3
.LC339:
	.string	"color 1"
	.align	3
.LC340:
	.string	"Click on the color square to open a color picker.\nClick and hold to use drag and drop.\nRight-click on the color square to show options.\nCTRL+click on individual component to input value.\n"
	.align	3
.LC341:
	.string	"color 2"
	.align	3
.LC342:
	.string	"Widgets/Basic/ListBox"
	.align	3
.LC344:
	.string	"listbox"
	.align	3
.LC345:
	.string	"Using the simplified one-liner ListBox API here.\nRefer to the \"List boxes\" section below for an explanation of how to use the more flexible and general BeginListBox/EndListBox API."
	.align	3
.LC346:
	.string	"Widgets/Basic/Tooltips"
	.align	3
.LC347:
	.string	"Tooltips:"
	.align	3
.LC348:
	.string	"I am a tooltip"
	.align	3
.LC349:
	.string	"Fancy"
	.align	3
.LC350:
	.string	"I am a fancy tooltip"
	.align	3
.LC351:
	.string	"Curve"
	.align	3
.LC352:
	.string	"Sin(time) = %f"
	.align	3
.LC353:
	.string	"Delayed"
	.align	3
.LC354:
	.string	"I am a tooltip with a delay."
	.align	3
.LC355:
	.string	"Tooltip are created by using the IsItemHovered() function over any kind of item."
	.align	3
.LC356:
	.string	"Widgets/Trees"
	.align	3
.LC357:
	.string	"Trees"
	.align	3
.LC358:
	.string	"Widgets/Trees/Basic trees"
	.align	3
.LC359:
	.string	"Basic trees"
	.align	3
.LC360:
	.string	"Child %d"
	.align	3
.LC361:
	.string	"blah blah"
	.align	3
.LC362:
	.string	"button"
	.align	3
.LC363:
	.string	"Widgets/Trees/Advanced, with Selectable nodes"
	.align	3
.LC364:
	.string	"Advanced, with Selectable nodes"
	.align	3
.LC365:
	.string	"This is a more typical looking tree with selectable nodes.\nClick to select, CTRL+Click to toggle, click on arrows or double-click to open."
	.align	3
.LC366:
	.string	"ImGuiTreeNodeFlags_OpenOnArrow"
	.align	3
.LC367:
	.string	"ImGuiTreeNodeFlags_OpenOnDoubleClick"
	.align	3
.LC368:
	.string	"ImGuiTreeNodeFlags_SpanAvailWidth"
	.align	3
.LC369:
	.string	"Extend hit area to all available width instead of allowing more items to be laid out after the node."
	.align	3
.LC370:
	.string	"ImGuiTreeNodeFlags_SpanFullWidth"
	.align	3
.LC371:
	.string	"Align label with current X position"
	.align	3
.LC372:
	.string	"Test tree node as drag source"
	.align	3
.LC373:
	.string	"Hello!"
	.align	3
.LC374:
	.string	"Selectable Node %d"
	.align	3
.LC375:
	.string	"_TREENODE"
	.align	3
.LC376:
	.string	"This is a drag and drop source"
	.align	3
.LC377:
	.string	"Blah blah\nBlah Blah"
	.align	3
.LC378:
	.string	"Selectable Leaf %d"
	.align	3
.LC379:
	.string	"Widgets/Collapsing Headers"
	.align	3
.LC380:
	.string	"Collapsing Headers"
	.align	3
.LC381:
	.string	"Show 2nd header"
	.align	3
.LC382:
	.string	"Header"
	.align	3
.LC383:
	.string	"IsItemHovered: %d"
	.align	3
.LC384:
	.string	"Some content %d"
	.align	3
.LC385:
	.string	"Header with a close button"
	.align	3
.LC386:
	.string	"More content %d"
	.align	3
.LC387:
	.string	"Widgets/Bullets"
	.align	3
.LC388:
	.string	"Bullets"
	.align	3
.LC389:
	.string	"Bullet point 1"
	.align	3
.LC390:
	.string	"Bullet point 2\nOn multiple lines"
	.align	3
.LC391:
	.string	"Tree node"
	.align	3
.LC392:
	.string	"Another bullet point"
	.align	3
.LC393:
	.string	"Bullet point 3 (two calls)"
	.align	3
.LC394:
	.string	"Widgets/Text"
	.align	3
.LC38:
	.string	"Text"
	.align	3
.LC395:
	.string	"Widgets/Text/Colored Text"
	.align	3
.LC396:
	.string	"Colorful Text"
	.align	3
.LC397:
	.string	"Pink"
	.align	3
.LC398:
	.string	"Yellow"
	.align	3
.LC399:
	.string	"Disabled"
	.align	3
.LC400:
	.string	"The TextDisabled color is stored in ImGuiStyle."
	.align	3
.LC401:
	.string	"Widgets/Text/Word Wrapping"
	.align	3
.LC402:
	.string	"Word Wrapping"
	.align	3
.LC403:
	.string	"This text should automatically wrap on the edge of the window. The current implementation for text wrapping follows simple rules suitable for English and possibly other languages."
	.align	3
.LC404:
	.string	"%.0f"
	.align	3
.LC405:
	.string	"Wrap width"
	.align	3
.LC406:
	.string	"Test paragraph %d:"
	.align	3
.LC407:
	.string	"The lazy dog is a good dog. This paragraph should fit within %.0f pixels. Testing a 1 character word. The quick brown fox jumps over the lazy dog."
	.align	3
.LC408:
	.string	"aaaaaaaa bbbbbbbb, c cccccccc,dddddddd. d eeeeeeee   ffffffff. gggggggg!hhhhhhhh"
	.align	3
.LC409:
	.string	"Widgets/Text/UTF-8 Text"
	.align	3
.LC410:
	.string	"UTF-8 Text"
	.align	3
.LC411:
	.string	"CJK text will only appear if the font was loaded with the appropriate CJK character ranges. Call io.Fonts->AddFontFromFileTTF() manually to load extra character ranges. Read docs/FONTS.md for details."
	.align	3
.LC412:
	.string	"Hiragana: \343\201\213\343\201\215\343\201\217\343\201\221\343\201\223 (kakikukeko)"
	.align	3
.LC413:
	.string	"Kanjis: \346\227\245\346\234\254\350\252\236 (nihongo)"
	.align	3
.LC414:
	.string	"UTF-8 input"
	.align	3
.LC415:
	.string	"Widgets/Images"
	.align	3
.LC416:
	.string	"Images"
	.align	3
.LC417:
	.string	"Below we are displaying the font texture (which is the only texture we have access to in this demo). Use the 'ImTextureID' type as storage to pass pointers or identifier to your own texture data. Hover the texture for a zoomed view!"
	.align	3
.LC418:
	.string	"%.0fx%.0f"
	.align	3
.LC419:
	.string	"Min: (%.2f, %.2f)"
	.align	3
.LC420:
	.string	"Max: (%.2f, %.2f)"
	.align	3
.LC421:
	.string	"Widgets/Images/Textured buttons"
	.align	3
.LC422:
	.string	"And now some textured buttons.."
	.align	3
.LC111:
	.string	""
	.align	3
.LC423:
	.string	"Pressed %d times."
	.align	3
.LC424:
	.string	"Widgets/Combo"
	.align	3
.LC52:
	.string	"Combo"
	.align	3
.LC425:
	.string	"ImGuiComboFlags_PopupAlignLeft"
	.align	3
.LC426:
	.string	"Only makes a difference if the popup is larger than the combo"
	.align	3
.LC427:
	.string	"ImGuiComboFlags_NoArrowButton"
	.align	3
.LC428:
	.string	"ImGuiComboFlags_NoPreview"
	.align	3
.LC430:
	.string	"combo 1"
	.align	3
.LC431:
	.string	"aaaa"
	.string	"bbbb"
	.string	"cccc"
	.string	"dddd"
	.string	"eeee"
	.string	""
	.string	""
	.align	3
.LC432:
	.string	"combo 2 (one-liner)"
	.align	3
.LC433:
	.string	"combo 3 (array)"
	.align	3
.LC434:
	.string	"combo 4 (function)"
	.align	3
.LC435:
	.string	"Widgets/List Boxes"
	.align	3
.LC436:
	.string	"List boxes"
	.align	3
.LC437:
	.string	"listbox 1"
	.align	3
.LC438:
	.string	"Full-width:"
	.align	3
.LC439:
	.string	"##listbox 2"
	.align	3
.LC440:
	.string	"Widgets/Selectables"
	.align	3
.LC441:
	.string	"Selectables"
	.align	3
.LC442:
	.string	"Widgets/Selectables/Basic"
	.align	3
.LC443:
	.string	"1. I am selectable"
	.align	3
.LC444:
	.string	"2. I am selectable"
	.align	3
.LC445:
	.string	"(I am not selectable)"
	.align	3
.LC446:
	.string	"4. I am selectable"
	.align	3
.LC447:
	.string	"5. I am double clickable"
	.align	3
.LC448:
	.string	"Widgets/Selectables/Single Selection"
	.align	3
.LC449:
	.string	"Selection State: Single Selection"
	.align	3
.LC450:
	.string	"Object %d"
	.align	3
.LC451:
	.string	"Widgets/Selectables/Multiple Selection"
	.align	3
.LC452:
	.string	"Selection State: Multiple Selection"
	.align	3
.LC453:
	.string	"Hold CTRL and click to select multiple items."
	.align	3
.LC454:
	.string	"Widgets/Selectables/Rendering more text into the same line"
	.align	3
.LC455:
	.string	"Rendering more text into the same line"
	.align	3
.LC456:
	.string	"main.c"
	.align	3
.LC457:
	.string	" 2,345 bytes"
	.align	3
.LC458:
	.string	"Hello.cpp"
	.align	3
.LC459:
	.string	"12,345 bytes"
	.align	3
.LC460:
	.string	"Hello.h"
	.align	3
.LC461:
	.string	"Widgets/Selectables/In columns"
	.align	3
.LC462:
	.string	"In columns"
	.align	3
.LC463:
	.string	"split1"
	.align	3
.LC464:
	.string	"Item %d"
	.align	3
.LC465:
	.string	"split2"
	.align	3
.LC466:
	.string	"Some other contents"
	.align	3
.LC467:
	.string	"123456"
	.align	3
.LC468:
	.string	"Widgets/Selectables/Grid"
	.align	3
.LC469:
	.string	"Grid"
	.align	3
.LC470:
	.string	"Sailor"
	.align	3
.LC471:
	.string	"Widgets/Selectables/Alignment"
	.align	3
.LC472:
	.string	"Alignment"
	.align	3
.LC473:
	.ascii	"By defaul"
	.string	"t, Selectables uses style.SelectableTextAlign but it can be overridden on a per-item basis using PushStyleVar(). You'll probably want to always keep your default situation to left-align otherwise it becomes difficult to layout multiple items on a same line"
	.align	3
.LC474:
	.string	"(%.1f,%.1f)"
	.align	3
.LC475:
	.string	"Widgets/Text Input"
	.align	3
.LC476:
	.string	"Text Input"
	.align	3
.LC477:
	.string	"Widgets/Text Input/Multi-line Text Input"
	.align	3
.LC478:
	.string	"Multi-line Text Input"
	.align	3
.LC479:
	.ascii	"You can u"
	.string	"se the ImGuiInputTextFlags_CallbackResize facility if you need to wire InputTextMultiline() to a dynamic string type. See misc/cpp/imgui_stdlib.h for an example. (This is not demonstrated in imgui_demo.cpp because we don't want to include <string> in here)"
	.align	3
.LC480:
	.string	"ImGuiInputTextFlags_ReadOnly"
	.align	3
.LC481:
	.string	"ImGuiInputTextFlags_AllowTabInput"
	.align	3
.LC482:
	.string	"ImGuiInputTextFlags_CtrlEnterForNewLine"
	.align	3
.LC483:
	.string	"##source"
	.align	3
.LC484:
	.string	"Widgets/Text Input/Filtered Text Input"
	.align	3
.LC485:
	.string	"Filtered Text Input"
	.align	3
.LC486:
	.string	"default"
	.align	3
.LC487:
	.string	"decimal"
	.align	3
.LC488:
	.string	"hexadecimal"
	.align	3
.LC489:
	.string	"uppercase"
	.align	3
.LC490:
	.string	"no blank"
	.align	3
.LC491:
	.string	"\"imgui\" letters"
	.align	3
.LC492:
	.string	"Widgets/Text Input/Password input"
	.align	3
.LC493:
	.string	"Password Input"
	.align	3
.LC494:
	.string	"password"
	.align	3
.LC495:
	.string	"Display all characters as '*'.\nDisable clipboard cut and copy.\nDisable logging.\n"
	.align	3
.LC496:
	.string	"<password>"
	.align	3
.LC497:
	.string	"password (w/ hint)"
	.align	3
.LC498:
	.string	"password (clear)"
	.align	3
.LC499:
	.string	"Completion, History, Edit Callbacks"
	.align	3
.LC500:
	.string	"Completion"
	.align	3
.LC501:
	.string	"Here we append \"..\" each time Tab is pressed. See 'Examples>Console' for a more meaningful demonstration of using this callback."
	.align	3
.LC502:
	.string	"History"
	.align	3
.LC503:
	.string	"Here we replace and select text each time Up/Down are pressed. See 'Examples>Console' for a more meaningful demonstration of using this callback."
	.align	3
.LC504:
	.string	"Edit"
	.align	3
.LC505:
	.string	"Here we toggle the casing of the first character on every edit + count edits."
	.align	3
.LC506:
	.string	"(%d)"
	.align	3
.LC507:
	.string	"Widgets/Text Input/Resize Callback"
	.align	3
.LC508:
	.string	"Resize Callback"
	.align	3
.LC509:
	.string	"Using ImGuiInputTextFlags_CallbackResize to wire your custom string type to InputText().\n\nSee misc/cpp/imgui_stdlib.h for an implementation of this for std::string."
	.align	3
.LC510:
	.string	"##MyStr"
	.align	3
.LC511:
	.string	"Data: %p\nSize: %d\nCapacity: %d"
	.align	3
.LC512:
	.string	"Widgets/Tabs"
	.align	3
.LC513:
	.string	"Tabs"
	.align	3
.LC514:
	.string	"Widgets/Tabs/Basic"
	.align	3
.LC515:
	.string	"MyTabBar"
	.align	3
.LC516:
	.string	"Avocado"
	.align	3
.LC517:
	.string	"This is the Avocado tab!\nblah blah blah blah blah"
	.align	3
.LC518:
	.string	"Broccoli"
	.align	3
.LC519:
	.string	"This is the Broccoli tab!\nblah blah blah blah blah"
	.align	3
.LC520:
	.string	"Cucumber"
	.align	3
.LC521:
	.string	"This is the Cucumber tab!\nblah blah blah blah blah"
	.align	3
.LC522:
	.string	"Widgets/Tabs/Advanced & Close Button"
	.align	3
.LC523:
	.string	"Advanced & Close Button"
	.align	3
.LC524:
	.string	"ImGuiTabBarFlags_Reorderable"
	.align	3
.LC525:
	.string	"ImGuiTabBarFlags_AutoSelectNewTabs"
	.align	3
.LC526:
	.string	"ImGuiTabBarFlags_TabListPopupButton"
	.align	3
.LC527:
	.string	"ImGuiTabBarFlags_NoCloseWithMiddleMouseButton"
	.align	3
.LC528:
	.string	"ImGuiTabBarFlags_FittingPolicyResizeDown"
	.align	3
.LC529:
	.string	"ImGuiTabBarFlags_FittingPolicyScroll"
	.align	3
.LC531:
	.string	"This is the %s tab!"
	.align	3
.LC532:
	.string	"I am an odd tab."
	.align	3
.LC533:
	.string	"Widgets/Tabs/TabItemButton & Leading-Trailing flags"
	.align	3
.LC534:
	.string	"TabItemButton & Leading/Trailing flags"
	.align	3
.LC535:
	.string	"Show Leading TabItemButton()"
	.align	3
.LC536:
	.string	"Show Trailing TabItemButton()"
	.align	3
.LC537:
	.string	"?"
	.align	3
.LC538:
	.string	"MyHelpMenu"
	.align	3
.LC539:
	.string	"+"
	.align	3
.LC540:
	.string	"%04d"
	.align	3
.LC541:
	.string	"Widgets/Plotting"
	.align	3
.LC542:
	.string	"Plotting"
	.align	3
.LC543:
	.string	"Animate"
	.align	3
.LC544:
	.string	"Widgets/Plotting/PlotLines, PlotHistogram"
	.align	3
.LC545:
	.string	"Frame Times"
	.align	3
.LC546:
	.string	"Histogram"
	.align	3
.LC547:
	.string	"avg %f"
	.align	3
.LC548:
	.string	"Lines"
	.align	3
.LC549:
	.string	"Sin"
	.string	"Saw"
	.string	""
	.align	3
.LC550:
	.string	"func"
	.align	3
.LC551:
	.string	"Sample count"
	.align	3
.LC552:
	.string	"Widgets/Plotting/ProgressBar"
	.align	3
.LC553:
	.string	"Progress Bar"
	.align	3
.LC554:
	.string	"%d/%d"
	.align	3
.LC555:
	.string	"Widgets/Color"
	.align	3
.LC556:
	.string	"Color/Picker Widgets"
	.align	3
.LC557:
	.string	"With Alpha Preview"
	.align	3
.LC558:
	.string	"With Half Alpha Preview"
	.align	3
.LC559:
	.string	"With Drag and Drop"
	.align	3
.LC560:
	.string	"With Options Menu"
	.align	3
.LC561:
	.string	"Right-click on the individual color widget to show options."
	.align	3
.LC562:
	.string	"With HDR"
	.align	3
.LC563:
	.string	"Currently all this does is to lift the 0..1 limits on dragging widgets."
	.align	3
.LC564:
	.string	"Widgets/Color/ColorEdit"
	.align	3
.LC565:
	.string	"Color widget:"
	.align	3
.LC566:
	.string	"Click on the color square to open a color picker.\nCTRL+click on individual component to input value.\n"
	.align	3
.LC567:
	.string	"MyColor##1"
	.align	3
.LC568:
	.string	"Widgets/Color/ColorEdit (HSV, with Alpha)"
	.align	3
.LC569:
	.string	"Color widget HSV with Alpha:"
	.align	3
.LC570:
	.string	"MyColor##2"
	.align	3
.LC571:
	.string	"Widgets/Color/ColorEdit (float display)"
	.align	3
.LC572:
	.string	"Color widget with Float Display:"
	.align	3
.LC573:
	.string	"MyColor##2f"
	.align	3
.LC574:
	.string	"Widgets/Color/ColorButton (with Picker)"
	.align	3
.LC575:
	.string	"Color button with Picker:"
	.align	3
.LC576:
	.string	"With the ImGuiColorEditFlags_NoInputs flag you can hide all the slider/text inputs.\nWith the ImGuiColorEditFlags_NoLabel flag you can pass a non-empty label which will only be used for the tooltip and picker popup."
	.align	3
.LC577:
	.string	"MyColor##3"
	.align	3
.LC578:
	.string	"Widgets/Color/ColorButton (with custom Picker popup)"
	.align	3
.LC579:
	.string	"Color button with Custom Picker Popup:"
	.align	3
.LC580:
	.string	"MyColor##3b"
	.align	3
.LC581:
	.string	"Palette"
	.align	3
.LC582:
	.string	"mypicker"
	.align	3
.LC583:
	.string	"MY CUSTOM COLOR PICKER WITH AN AMAZING PALETTE!"
	.align	3
.LC584:
	.string	"##picker"
	.align	3
.LC585:
	.string	"Current"
	.align	3
.LC586:
	.string	"##current"
	.align	3
.LC587:
	.string	"Previous"
	.align	3
.LC588:
	.string	"##previous"
	.align	3
.LC589:
	.string	"##palette"
	.align	3
.LC590:
	.string	"_COL3F"
	.align	3
.LC591:
	.string	"_COL4F"
	.align	3
.LC592:
	.string	"Widgets/Color/ColorButton (simple)"
	.align	3
.LC593:
	.string	"Color button only:"
	.align	3
.LC594:
	.string	"ImGuiColorEditFlags_NoBorder"
	.align	3
.LC595:
	.string	"MyColor##3c"
	.align	3
.LC596:
	.string	"Widgets/Color/ColorPicker"
	.align	3
.LC597:
	.string	"Color picker:"
	.align	3
.LC598:
	.string	"With Alpha"
	.align	3
.LC599:
	.string	"With Alpha Bar"
	.align	3
.LC600:
	.string	"With Side Preview"
	.align	3
.LC601:
	.string	"With Ref Color"
	.align	3
.LC602:
	.string	"##RefColor"
	.align	3
.LC603:
	.string	"Auto/Current"
	.string	"None"
	.string	"RGB Only"
	.string	"HSV Only"
	.string	"Hex Only"
	.string	""
	.align	3
.LC604:
	.string	"Display Mode"
	.align	3
.LC605:
	.ascii	"ColorEdit defaults to displayi"
	.string	"ng RGB inputs if you don't specify a display mode, but the user can change it with a right-click on those inputs.\n\nColorPicker defaults to displaying RGB+HSV+Hex if you don't specify a display mode.\n\nYou can change the defaults using SetColorEditOptions()."
	.align	3
.LC606:
	.string	"When not specified explicitly (Auto/Current mode), user can right-click the picker to change mode."
	.align	3
.LC607:
	.string	"MyColor##4"
	.align	3
.LC608:
	.string	"Set defaults in code:"
	.align	3
.LC609:
	.ascii	"SetColorEditOptions() is designed to allow you to set boot-t"
	.ascii	"ime default.\nWe don't"
	.string	" have Push/Pop functions because you can force options on a per-widget basis if needed,and the user can change non-forced ones with the options menu.\nWe don't have a getter to avoidencouraging you to persistently save values that aren't forward-compatible."
	.align	3
.LC610:
	.string	"Default: Uint8 + HSV + Hue Bar"
	.align	3
.LC611:
	.string	"Default: Float + HDR + Hue Wheel"
	.align	3
.LC612:
	.string	"Both types:"
	.align	3
.LC613:
	.string	"##MyColor##5"
	.align	3
.LC614:
	.string	"##MyColor##6"
	.align	3
.LC615:
	.string	"HSV encoded colors"
	.align	3
.LC616:
	.ascii	"By default, colors are given to ColorEdit and Colo"
	.string	"rPicker in RGB, but ImGuiColorEditFlags_InputHSVallows you to store colors as HSV and pass them to ColorEdit and ColorPicker as HSV. This comes with theadded benefit that you can manipulate hue values with the picker even when saturation or value are zero."
	.align	3
.LC617:
	.string	"Color widget with InputHSV:"
	.align	3
.LC618:
	.string	"HSV shown as RGB##1"
	.align	3
.LC619:
	.string	"HSV shown as HSV##1"
	.align	3
.LC620:
	.string	"Raw HSV values"
	.align	3
.LC621:
	.string	"Widgets/Drag and Slider Flags"
	.align	3
.LC622:
	.string	"Drag/Slider Flags"
	.align	3
.LC623:
	.string	"ImGuiSliderFlags_AlwaysClamp"
	.align	3
.LC624:
	.string	"Always clamp value to min/max bounds (if any) when input manually with CTRL+Click."
	.align	3
.LC625:
	.string	"ImGuiSliderFlags_Logarithmic"
	.align	3
.LC626:
	.string	"Enable logarithmic editing (more precision for small values)."
	.align	3
.LC627:
	.string	"ImGuiSliderFlags_NoRoundToFormat"
	.align	3
.LC628:
	.string	"Disable rounding underlying value to match precision of the format string (e.g. %.3f values are rounded to those 3 digits)."
	.align	3
.LC629:
	.string	"ImGuiSliderFlags_NoInput"
	.align	3
.LC630:
	.string	"Disable CTRL+Click or Enter key allowing to input text directly into the widget."
	.align	3
.LC631:
	.string	"Underlying float value: %f"
	.align	3
.LC632:
	.string	"DragFloat (0 -> 1)"
	.align	3
.LC633:
	.string	"DragFloat (0 -> +inf)"
	.align	3
.LC634:
	.string	"DragFloat (-inf -> 1)"
	.align	3
.LC635:
	.string	"DragFloat (-inf -> +inf)"
	.align	3
.LC636:
	.string	"DragInt (0 -> 100)"
	.align	3
.LC637:
	.string	"SliderFloat (0 -> 1)"
	.align	3
.LC638:
	.string	"SliderInt (0 -> 100)"
	.align	3
.LC639:
	.string	"Widgets/Range Widgets"
	.align	3
.LC640:
	.string	"Range Widgets"
	.align	3
.LC641:
	.string	"Max: %.1f %%"
	.align	3
.LC642:
	.string	"Min: %.1f %%"
	.align	3
.LC643:
	.string	"range float"
	.align	3
.LC644:
	.string	"Max: %d units"
	.align	3
.LC645:
	.string	"Min: %d units"
	.align	3
.LC646:
	.string	"range int"
	.align	3
.LC647:
	.string	"range int (no bounds)"
	.align	3
.LC648:
	.string	"Widgets/Data Types"
	.align	3
.LC649:
	.string	"Data Types"
	.align	3
.LC650:
	.string	"Widgets/Data Types/Drags"
	.align	3
.LC651:
	.string	"Drags:"
	.align	3
.LC652:
	.string	"Clamp integers to 0..50"
	.align	3
.LC653:
	.string	"As with every widget in dear imgui, we never modify values unless there is a user interaction.\nYou can override the clamping limits by using CTRL+Click to input a value."
	.align	3
.LC654:
	.string	"drag s8"
	.align	3
.LC655:
	.string	"%u ms"
	.align	3
.LC656:
	.string	"drag u8"
	.align	3
.LC657:
	.string	"drag s16"
	.align	3
.LC658:
	.string	"drag u16"
	.align	3
.LC659:
	.string	"drag s32"
	.align	3
.LC660:
	.string	"0x%08X"
	.align	3
.LC661:
	.string	"drag s32 hex"
	.align	3
.LC662:
	.string	"drag u32"
	.align	3
.LC663:
	.string	"drag s64"
	.align	3
.LC664:
	.string	"drag u64"
	.align	3
.LC665:
	.string	"%f"
	.align	3
.LC666:
	.string	"drag float log"
	.align	3
.LC667:
	.string	"%.10f grams"
	.align	3
.LC668:
	.string	"drag double"
	.align	3
.LC669:
	.string	"0 < %.10f < 1"
	.align	3
.LC670:
	.string	"drag double log"
	.align	3
.LC671:
	.string	"Widgets/Data Types/Sliders"
	.align	3
.LC672:
	.string	"Sliders"
	.align	3
.LC673:
	.string	"slider s8 full"
	.align	3
.LC674:
	.string	"%u"
	.align	3
.LC675:
	.string	"slider u8 full"
	.align	3
.LC676:
	.string	"slider s16 full"
	.align	3
.LC677:
	.string	"slider u16 full"
	.align	3
.LC678:
	.string	"slider s32 low"
	.align	3
.LC679:
	.string	"slider s32 high"
	.align	3
.LC680:
	.string	"slider s32 full"
	.align	3
.LC681:
	.string	"0x%04X"
	.align	3
.LC682:
	.string	"slider s32 hex"
	.align	3
.LC683:
	.string	"slider u32 low"
	.align	3
.LC684:
	.string	"slider u32 high"
	.align	3
.LC685:
	.string	"slider u32 full"
	.align	3
.LC686:
	.string	"%lld"
	.align	3
.LC687:
	.string	"slider s64 low"
	.align	3
.LC688:
	.string	"slider s64 high"
	.align	3
.LC689:
	.string	"slider s64 full"
	.align	3
.LC690:
	.string	"%llu ms"
	.align	3
.LC691:
	.string	"slider u64 low"
	.align	3
.LC692:
	.string	"slider u64 high"
	.align	3
.LC693:
	.string	"slider u64 full"
	.align	3
.LC694:
	.string	"slider float low"
	.align	3
.LC695:
	.string	"%.10f"
	.align	3
.LC696:
	.string	"slider float low log"
	.align	3
.LC697:
	.string	"slider float high"
	.align	3
.LC698:
	.string	"slider double low"
	.align	3
.LC699:
	.string	"slider double low log"
	.align	3
.LC700:
	.string	"%e grams"
	.align	3
.LC701:
	.string	"slider double high"
	.align	3
.LC702:
	.string	"Sliders (reverse)"
	.align	3
.LC703:
	.string	"slider s8 reverse"
	.align	3
.LC704:
	.string	"slider u8 reverse"
	.align	3
.LC705:
	.string	"slider s32 reverse"
	.align	3
.LC706:
	.string	"slider u32 reverse"
	.align	3
.LC707:
	.string	"slider s64 reverse"
	.align	3
.LC708:
	.string	"slider u64 reverse"
	.align	3
.LC709:
	.string	"Widgets/Data Types/Inputs"
	.align	3
.LC710:
	.string	"Inputs"
	.align	3
.LC711:
	.string	"Show step buttons"
	.align	3
.LC712:
	.string	"input s8"
	.align	3
.LC713:
	.string	"input u8"
	.align	3
.LC714:
	.string	"input s16"
	.align	3
.LC715:
	.string	"input u16"
	.align	3
.LC716:
	.string	"input s32"
	.align	3
.LC717:
	.string	"%04X"
	.align	3
.LC718:
	.string	"input s32 hex"
	.align	3
.LC719:
	.string	"input u32"
	.align	3
.LC720:
	.string	"%08X"
	.align	3
.LC721:
	.string	"input u32 hex"
	.align	3
.LC722:
	.string	"input s64"
	.align	3
.LC723:
	.string	"input u64"
	.align	3
.LC724:
	.string	"Widgets/Multi-component Widgets"
	.align	3
.LC725:
	.string	"Multi-component Widgets"
	.align	3
.LC726:
	.string	"input float2"
	.align	3
.LC727:
	.string	"drag float2"
	.align	3
.LC728:
	.string	"slider float2"
	.align	3
.LC729:
	.string	"input int2"
	.align	3
.LC730:
	.string	"drag int2"
	.align	3
.LC731:
	.string	"slider int2"
	.align	3
.LC732:
	.string	"drag float3"
	.align	3
.LC733:
	.string	"slider float3"
	.align	3
.LC734:
	.string	"input int3"
	.align	3
.LC735:
	.string	"drag int3"
	.align	3
.LC736:
	.string	"slider int3"
	.align	3
.LC737:
	.string	"input float4"
	.align	3
.LC738:
	.string	"drag float4"
	.align	3
.LC739:
	.string	"slider float4"
	.align	3
.LC740:
	.string	"input int4"
	.align	3
.LC741:
	.string	"drag int4"
	.align	3
.LC742:
	.string	"slider int4"
	.align	3
.LC743:
	.string	"Widgets/Vertical Sliders"
	.align	3
.LC744:
	.string	"Vertical Sliders"
	.align	3
.LC745:
	.string	"##int"
	.align	3
.LC746:
	.string	"set1"
	.align	3
.LC747:
	.string	"##v"
	.align	3
.LC748:
	.string	"set2"
	.align	3
.LC749:
	.string	"set3"
	.align	3
.LC750:
	.string	"%.2f\nsec"
	.align	3
.LC751:
	.string	"Widgets/Drag and drop"
	.align	3
.LC752:
	.string	"Drag and Drop"
	.align	3
.LC753:
	.string	"Widgets/Drag and drop/Standard widgets"
	.align	3
.LC754:
	.string	"Drag and drop in standard widgets"
	.align	3
.LC755:
	.string	"You can drag from the color squares."
	.align	3
.LC756:
	.string	"Widgets/Drag and drop/Copy-swap items"
	.align	3
.LC757:
	.string	"Drag and drop to copy/swap items"
	.align	3
.LC758:
	.string	"Copy"
	.align	3
.LC759:
	.string	"Move"
	.align	3
.LC760:
	.string	"Swap"
	.align	3
.LC761:
	.string	"DND_DEMO_CELL"
	.align	3
.LC762:
	.string	"Copy %s"
	.align	3
.LC763:
	.string	"Move %s"
	.align	3
.LC764:
	.string	"Swap %s"
	.align	3
.LC765:
	.string	"void ShowDemoWindowWidgets()"
	.align	3
.LC766:
	.string	"payload->DataSize == sizeof(int)"
	.align	3
.LC767:
	.string	"Widgets/Drag and Drop/Drag to reorder items (simple)"
	.align	3
.LC768:
	.string	"Drag to reorder items (simple)"
	.align	3
.LC769:
	.string	"We don't use the drag and drop api at all here! Instead we query when the item is held but not hovered, and order items accordingly."
	.align	3
.LC770:
	.string	"Widgets/Querying Item Status (Edited,Active,Hovered etc.)"
	.align	3
.LC771:
	.string	"Querying Item Status (Edited/Active/Hovered etc.)"
	.align	3
.LC773:
	.string	"Item Type"
	.align	3
.LC774:
	.string	"Testing how various types of items are interacting with the IsItemXXX functions. Note that the bool return value of most ImGui function is generally equivalent to calling ImGui::IsItemHovered()."
	.align	3
.LC775:
	.string	"Item Disabled"
	.align	3
.LC776:
	.string	"ITEM: Text"
	.align	3
.LC777:
	.string	"ITEM: Button"
	.align	3
.LC778:
	.string	"ITEM: Checkbox"
	.align	3
.LC779:
	.string	"ITEM: SliderFloat"
	.align	3
.LC780:
	.string	"ITEM: InputText"
	.align	3
.LC781:
	.string	"ITEM: InputTextMultiline"
	.align	3
.LC782:
	.string	"ITEM: InputFloat"
	.align	3
.LC783:
	.string	"ITEM: InputFloat3"
	.align	3
.LC784:
	.string	"ITEM: ColorEdit4"
	.align	3
.LC785:
	.string	"ITEM: Selectable"
	.align	3
.LC786:
	.string	"ITEM: MenuItem"
	.align	3
.LC787:
	.string	"ITEM: TreeNode"
	.align	3
.LC788:
	.string	"ITEM: TreeNode w/ ImGuiTreeNodeFlags_OpenOnDoubleClick"
	.align	3
.LC790:
	.string	"ITEM: Combo"
	.align	3
.LC791:
	.string	"ITEM: ListBox"
	.align	3
.LC792:
	.ascii	"Return value = %d\nIsItemFocused() = %d\nIsItemHovered() = %"
	.ascii	"d\nIsItemHovered(_AllowWhenBlockedByPopup) = %d\nIsItemHover"
	.ascii	"ed(_AllowWhenBlockedByActiveItem) = %d\nIsItemHovered(_Allow"
	.ascii	"WhenOverlapped) = %d\nIsItemHovered(_AllowWhenDisabled) = %d"
	.ascii	"\nIsItemHovered(_RectOnly) = %d\nIsItemActive() = %d\nIsItem"
	.ascii	"Edi"
	.string	"ted() = %d\nIsItemActivated() = %d\nIsItemDeactivated() = %d\nIsItemDeactivatedAfterEdit() = %d\nIsItemVisible() = %d\nIsItemClicked() = %d\nIsItemToggledOpen() = %d\nGetItemRectMin() = (%.1f, %.1f)\nGetItemRectMax() = (%.1f, %.1f)\nGetItemRectSize() = (%.1f, %.1f)"
	.align	3
.LC793:
	.string	"w/ Hovering Delay: None = %d, Fast %d, Normal = %d"
	.align	3
.LC794:
	.string	"unused"
	.align	3
.LC795:
	.string	"This widget is only here to be able to tab-out of the widgets above and see e.g. Deactivated() status."
	.align	3
.LC796:
	.string	"Widgets/Querying Window Status (Focused,Hovered etc.)"
	.align	3
.LC797:
	.string	"Querying Window Status (Focused/Hovered etc.)"
	.align	3
.LC798:
	.string	"Embed everything inside a child window for testing _RootWindow flag."
	.align	3
.LC799:
	.string	"outer_child"
	.align	3
.LC800:
	.ascii	"IsWindowFocused() = %d\nIsWindowFocused(_ChildWindows) = %d\n"
	.ascii	"IsWindowFocused(_ChildWindows|_"
	.string	"NoPopupHierarchy) = %d\nIsWindowFocused(_ChildWindows|_RootWindow) = %d\nIsWindowFocused(_ChildWindows|_RootWindow|_NoPopupHierarchy) = %d\nIsWindowFocused(_RootWindow) = %d\nIsWindowFocused(_RootWindow|_NoPopupHierarchy) = %d\nIsWindowFocused(_AnyWindow) = %d\n"
	.align	3
.LC801:
	.ascii	"IsWindowHovered() = %d\nIsWindowHovered(_AllowWhenBlockedByP"
	.ascii	"opup) = %d\nIsWindowHovered(_AllowWhenBlockedByActiveItem) ="
	.ascii	" %d\nIsWindowHovered(_ChildWindows) = %d\nIsWindowHovered(_C"
	.ascii	"hildWindows|_NoPopupHierarchy) = %d\nIsWindowHovered(_ChildW"
	.ascii	"indows|_RootWin"
	.string	"dow) = %d\nIsWindowHovered(_ChildWindows|_RootWindow|_NoPopupHierarchy) = %d\nIsWindowHovered(_RootWindow) = %d\nIsWindowHovered(_RootWindow|_NoPopupHierarchy) = %d\nIsWindowHovered(_ChildWindows|_AllowWhenBlockedByPopup) = %d\nIsWindowHovered(_AnyWindow) = %d\n"
	.align	3
.LC802:
	.string	"child"
	.align	3
.LC803:
	.string	"This is another child window for testing the _ChildWindows flag."
	.align	3
.LC804:
	.string	"Hovered/Active tests after Begin() for title bar testing"
	.align	3
.LC805:
	.string	"Title bar Hovered/Active tests"
	.align	3
.LC806:
	.string	"Close"
	.align	3
.LC807:
	.string	"IsItemHovered() after begin = %d (== is title bar hovered)\nIsItemActive() after begin = %d (== is window being clicked/moved)\n"
	.align	3
.LC808:
	.string	"Widgets/Disable Block"
	.align	3
.LC809:
	.string	"Disable block"
	.align	3
.LC810:
	.string	"Disable entire section above"
	.align	3
.LC811:
	.string	"Demonstrate using BeginDisabled()/EndDisabled() across this section."
	.align	3
.LC812:
	.string	"Widgets/Text Filter"
	.align	3
.LC813:
	.string	"Text Filter"
	.align	3
.LC814:
	.string	"Not a widget per-se, but ImGuiTextFilter is a helper to perform simple filtering on text strings."
	.align	3
.LC815:
	.string	"Filter usage:\n  \"\"         display all lines\n  \"xxx\"      display lines containing \"xxx\"\n  \"xxx,yyy\"  display lines containing \"xxx\" or \"yyy\"\n  \"-xxx\"     hide lines containing \"xxx\""
	.align	3
.LC816:
	.string	"Filter (inc,-exc)"
	.align	3
.LC818:
	.string	"%s"
	.text
	.align	2
	.type	_ZL21ShowDemoWindowWidgetsv, %function
_ZL21ShowDemoWindowWidgetsv:
.LFB1151:
	.cfi_startproc
	.cfi_personality 0x9b,DW.ref.__gxx_personality_v0
	.cfi_lsda 0x1b,.LLSDA1151
	sub	sp, sp, #1040
	.cfi_def_cfa_offset 1040
	stp	x29, x30, [sp, 80]
	.cfi_offset 29, -960
	.cfi_offset 30, -952
	add	x29, sp, 80
	stp	x19, x20, [sp, 96]
	stp	x21, x22, [sp, 112]
	stp	x23, x24, [sp, 128]
	stp	x25, x26, [sp, 144]
	stp	x27, x28, [sp, 160]
	stp	d8, d9, [sp, 176]
	stp	d10, d11, [sp, 192]
	str	d12, [sp, 208]
	.cfi_offset 19, -944
	.cfi_offset 20, -936
	.cfi_offset 21, -928
	.cfi_offset 22, -920
	.cfi_offset 23, -912
	.cfi_offset 24, -904
	.cfi_offset 25, -896
	.cfi_offset 26, -888
	.cfi_offset 27, -880
	.cfi_offset 28, -872
	.cfi_offset 72, -864
	.cfi_offset 73, -856
	.cfi_offset 74, -848
	.cfi_offset 75, -840
	.cfi_offset 76, -832
	adrp	x0, :got:__stack_chk_guard
	ldr	x0, [x0, #:got_lo12:__stack_chk_guard]
	ldr	x1, [x0]
	str	x1, [sp, 1032]
	mov	x1, 0
	adrp	x0, GImGuiDemoMarkerCallback
	add	x0, x0, :lo12:GImGuiDemoMarkerCallback
	ldr	x0, [x0]
	cmp	x0, 0
	beq	.L131
	adrp	x0, GImGuiDemoMarkerCallback
	add	x0, x0, :lo12:GImGuiDemoMarkerCallback
	ldr	x4, [x0]
	adrp	x0, GImGuiDemoMarkerCallbackUserData
	add	x0, x0, :lo12:GImGuiDemoMarkerCallbackUserData
	ldr	x0, [x0]
	mov	x3, x0
	adrp	x0, .LC276
	add	x2, x0, :lo12:.LC276
	mov	w1, 548
	adrp	x0, .LC156
	add	x0, x0, :lo12:.LC156
.LEHB0:
	blr	x4
.L131:
	mov	w1, 0
	adrp	x0, .LC276
	add	x0, x0, :lo12:.LC276
	bl	_ZN5ImGui16CollapsingHeaderEPKci
	and	w0, w0, 255
	eor	w0, w0, 1
	and	w0, w0, 255
	cmp	w0, 0
	bne	.L600
	adrp	x0, _ZZL21ShowDemoWindowWidgetsvE11disable_all
	add	x0, x0, :lo12:_ZZL21ShowDemoWindowWidgetsvE11disable_all
	ldrb	w0, [x0]
	cmp	w0, 0
	beq	.L134
	mov	w0, 1
	bl	_ZN5ImGui13BeginDisabledEb
.L134:
	adrp	x0, GImGuiDemoMarkerCallback
	add	x0, x0, :lo12:GImGuiDemoMarkerCallback
	ldr	x0, [x0]
	cmp	x0, 0
	beq	.L135
	adrp	x0, GImGuiDemoMarkerCallback
	add	x0, x0, :lo12:GImGuiDemoMarkerCallback
	ldr	x4, [x0]
	adrp	x0, GImGuiDemoMarkerCallbackUserData
	add	x0, x0, :lo12:GImGuiDemoMarkerCallbackUserData
	ldr	x0, [x0]
	mov	x3, x0
	adrp	x0, .LC277
	add	x2, x0, :lo12:.LC277
	mov	w1, 556
	adrp	x0, .LC156
	add	x0, x0, :lo12:.LC156
	blr	x4
.L135:
	adrp	x0, .LC278
	add	x0, x0, :lo12:.LC278
	bl	_ZN5ImGui8TreeNodeEPKc
	and	w0, w0, 255
	cmp	w0, 0
	beq	.L136
	adrp	x0, GImGuiDemoMarkerCallback
	add	x0, x0, :lo12:GImGuiDemoMarkerCallback
	ldr	x0, [x0]
	cmp	x0, 0
	beq	.L137
	adrp	x0, GImGuiDemoMarkerCallback
	add	x0, x0, :lo12:GImGuiDemoMarkerCallback
	ldr	x4, [x0]
	adrp	x0, GImGuiDemoMarkerCallbackUserData
	add	x0, x0, :lo12:GImGuiDemoMarkerCallbackUserData
	ldr	x0, [x0]
	mov	x3, x0
	adrp	x0, .LC279
	add	x2, x0, :lo12:.LC279
	mov	w1, 559
	adrp	x0, .LC156
	add	x0, x0, :lo12:.LC156
	blr	x4
.L137:
	add	x0, sp, 824
	movi	v1.2s, #0
	movi	v0.2s, #0
	bl	_ZN6ImVec2C1Eff
	add	x0, sp, 824
	mov	x1, x0
	adrp	x0, .LC39
	add	x0, x0, :lo12:.LC39
	bl	_ZN5ImGui6ButtonEPKcRK6ImVec2
	and	w0, w0, 255
	cmp	w0, 0
	beq	.L138
	adrp	x0, _ZZL21ShowDemoWindowWidgetsvE7clicked
	add	x0, x0, :lo12:_ZZL21ShowDemoWindowWidgetsvE7clicked
	ldr	w0, [x0]
	add	w1, w0, 1
	adrp	x0, _ZZL21ShowDemoWindowWidgetsvE7clicked
	add	x0, x0, :lo12:_ZZL21ShowDemoWindowWidgetsvE7clicked
	str	w1, [x0]
.L138:
	adrp	x0, _ZZL21ShowDemoWindowWidgetsvE7clicked
	add	x0, x0, :lo12:_ZZL21ShowDemoWindowWidgetsvE7clicked
	ldr	w0, [x0]
	and	w0, w0, 1
	cmp	w0, 0
	beq	.L139
	fmov	s1, -1.0e+0
	movi	v0.2s, #0
	bl	_ZN5ImGui8SameLineEff
	adrp	x0, .LC280
	add	x0, x0, :lo12:.LC280
	bl	_ZN5ImGui4TextEPKcz
.L139:
	adrp	x0, GImGuiDemoMarkerCallback
	add	x0, x0, :lo12:GImGuiDemoMarkerCallback
	ldr	x0, [x0]
	cmp	x0, 0
	beq	.L140
	adrp	x0, GImGuiDemoMarkerCallback
	add	x0, x0, :lo12:GImGuiDemoMarkerCallback
	ldr	x4, [x0]
	adrp	x0, GImGuiDemoMarkerCallbackUserData
	add	x0, x0, :lo12:GImGuiDemoMarkerCallbackUserData
	ldr	x0, [x0]
	mov	x3, x0
	adrp	x0, .LC281
	add	x2, x0, :lo12:.LC281
	mov	w1, 569
	adrp	x0, .LC156
	add	x0, x0, :lo12:.LC156
	blr	x4
.L140:
	adrp	x0, _ZZL21ShowDemoWindowWidgetsvE5check
	add	x1, x0, :lo12:_ZZL21ShowDemoWindowWidgetsvE5check
	adrp	x0, .LC282
	add	x0, x0, :lo12:.LC282
	bl	_ZN5ImGui8CheckboxEPKcPb
	adrp	x0, GImGuiDemoMarkerCallback
	add	x0, x0, :lo12:GImGuiDemoMarkerCallback
	ldr	x0, [x0]
	cmp	x0, 0
	beq	.L141
	adrp	x0, GImGuiDemoMarkerCallback
	add	x0, x0, :lo12:GImGuiDemoMarkerCallback
	ldr	x4, [x0]
	adrp	x0, GImGuiDemoMarkerCallbackUserData
	add	x0, x0, :lo12:GImGuiDemoMarkerCallbackUserData
	ldr	x0, [x0]
	mov	x3, x0
	adrp	x0, .LC283
	add	x2, x0, :lo12:.LC283
	mov	w1, 573
	adrp	x0, .LC156
	add	x0, x0, :lo12:.LC156
	blr	x4
.L141:
	mov	w2, 0
	adrp	x0, _ZZL21ShowDemoWindowWidgetsvE1e
	add	x1, x0, :lo12:_ZZL21ShowDemoWindowWidgetsvE1e
	adrp	x0, .LC284
	add	x0, x0, :lo12:.LC284
	bl	_ZN5ImGui11RadioButtonEPKcPii
	fmov	s1, -1.0e+0
	movi	v0.2s, #0
	bl	_ZN5ImGui8SameLineEff
	mov	w2, 1
	adrp	x0, _ZZL21ShowDemoWindowWidgetsvE1e
	add	x1, x0, :lo12:_ZZL21ShowDemoWindowWidgetsvE1e
	adrp	x0, .LC285
	add	x0, x0, :lo12:.LC285
	bl	_ZN5ImGui11RadioButtonEPKcPii
	fmov	s1, -1.0e+0
	movi	v0.2s, #0
	bl	_ZN5ImGui8SameLineEff
	mov	w2, 2
	adrp	x0, _ZZL21ShowDemoWindowWidgetsvE1e
	add	x1, x0, :lo12:_ZZL21ShowDemoWindowWidgetsvE1e
	adrp	x0, .LC286
	add	x0, x0, :lo12:.LC286
	bl	_ZN5ImGui11RadioButtonEPKcPii
	adrp	x0, GImGuiDemoMarkerCallback
	add	x0, x0, :lo12:GImGuiDemoMarkerCallback
	ldr	x0, [x0]
	cmp	x0, 0
	beq	.L142
	adrp	x0, GImGuiDemoMarkerCallback
	add	x0, x0, :lo12:GImGuiDemoMarkerCallback
	ldr	x4, [x0]
	adrp	x0, GImGuiDemoMarkerCallbackUserData
	add	x0, x0, :lo12:GImGuiDemoMarkerCallbackUserData
	ldr	x0, [x0]
	mov	x3, x0
	adrp	x0, .LC287
	add	x2, x0, :lo12:.LC287
	mov	w1, 580
	adrp	x0, .LC156
	add	x0, x0, :lo12:.LC156
	blr	x4
.L142:
	str	wzr, [sp, 380]
	b	.L143
.L145:
	ldr	w0, [sp, 380]
	cmp	w0, 0
	ble	.L144
	fmov	s1, -1.0e+0
	movi	v0.2s, #0
	bl	_ZN5ImGui8SameLineEff
.L144:
	ldr	w0, [sp, 380]
	bl	_ZN5ImGui6PushIDEi
	ldr	s0, [sp, 380]
	scvtf	s1, s0
	fmov	s0, 7.0e+0
	fdiv	s0, s1, s0
	fmov	s3, 1.0e+0
	mov	w0, 39322
	movk	w0, 0x3f19, lsl 16
	fmov	s2, w0
	mov	w0, 39322
	movk	w0, 0x3f19, lsl 16
	fmov	s1, w0
	bl	_ZN7ImColor3HSVEffff
	fmov	s5, s0
	fmov	s4, s1
	fmov	s1, s2
	fmov	s0, s3
	str	s5, [sp, 808]
	str	s4, [sp, 812]
	str	s1, [sp, 816]
	str	s0, [sp, 820]
	add	x0, sp, 808
	bl	_ZNK7ImColorcv6ImVec4Ev
	fmov	s5, s0
	fmov	s4, s1
	fmov	s1, s2
	fmov	s0, s3
	str	s5, [sp, 824]
	str	s4, [sp, 828]
	str	s1, [sp, 832]
	str	s0, [sp, 836]
	add	x0, sp, 824
	mov	x1, x0
	mov	w0, 21
	bl	_ZN5ImGui14PushStyleColorEiRK6ImVec4
	ldr	s0, [sp, 380]
	scvtf	s1, s0
	fmov	s0, 7.0e+0
	fdiv	s0, s1, s0
	fmov	s3, 1.0e+0
	mov	w0, 13107
	movk	w0, 0x3f33, lsl 16
	fmov	s2, w0
	mov	w0, 13107
	movk	w0, 0x3f33, lsl 16
	fmov	s1, w0
	bl	_ZN7ImColor3HSVEffff
	fmov	s5, s0
	fmov	s4, s1
	fmov	s1, s2
	fmov	s0, s3
	str	s5, [sp, 808]
	str	s4, [sp, 812]
	str	s1, [sp, 816]
	str	s0, [sp, 820]
	add	x0, sp, 808
	bl	_ZNK7ImColorcv6ImVec4Ev
	fmov	s5, s0
	fmov	s4, s1
	fmov	s1, s2
	fmov	s0, s3
	str	s5, [sp, 824]
	str	s4, [sp, 828]
	str	s1, [sp, 832]
	str	s0, [sp, 836]
	add	x0, sp, 824
	mov	x1, x0
	mov	w0, 22
	bl	_ZN5ImGui14PushStyleColorEiRK6ImVec4
	ldr	s0, [sp, 380]
	scvtf	s1, s0
	fmov	s0, 7.0e+0
	fdiv	s0, s1, s0
	fmov	s3, 1.0e+0
	mov	w0, 52429
	movk	w0, 0x3f4c, lsl 16
	fmov	s2, w0
	mov	w0, 52429
	movk	w0, 0x3f4c, lsl 16
	fmov	s1, w0
	bl	_ZN7ImColor3HSVEffff
	fmov	s5, s0
	fmov	s4, s1
	fmov	s1, s2
	fmov	s0, s3
	str	s5, [sp, 808]
	str	s4, [sp, 812]
	str	s1, [sp, 816]
	str	s0, [sp, 820]
	add	x0, sp, 808
	bl	_ZNK7ImColorcv6ImVec4Ev
	fmov	s5, s0
	fmov	s4, s1
	fmov	s1, s2
	fmov	s0, s3
	str	s5, [sp, 824]
	str	s4, [sp, 828]
	str	s1, [sp, 832]
	str	s0, [sp, 836]
	add	x0, sp, 824
	mov	x1, x0
	mov	w0, 23
	bl	_ZN5ImGui14PushStyleColorEiRK6ImVec4
	add	x0, sp, 824
	movi	v1.2s, #0
	movi	v0.2s, #0
	bl	_ZN6ImVec2C1Eff
	add	x0, sp, 824
	mov	x1, x0
	adrp	x0, .LC288
	add	x0, x0, :lo12:.LC288
	bl	_ZN5ImGui6ButtonEPKcRK6ImVec2
	mov	w0, 3
	bl	_ZN5ImGui13PopStyleColorEi
	bl	_ZN5ImGui5PopIDEv
	ldr	w0, [sp, 380]
	add	w0, w0, 1
	str	w0, [sp, 380]
.L143:
	ldr	w0, [sp, 380]
	cmp	w0, 6
	ble	.L145
	bl	_ZN5ImGui23AlignTextToFramePaddingEv
	adrp	x0, .LC289
	add	x0, x0, :lo12:.LC289
	bl	_ZN5ImGui4TextEPKcz
	fmov	s1, -1.0e+0
	movi	v0.2s, #0
	bl	_ZN5ImGui8SameLineEff
	adrp	x0, GImGuiDemoMarkerCallback
	add	x0, x0, :lo12:GImGuiDemoMarkerCallback
	ldr	x0, [x0]
	cmp	x0, 0
	beq	.L146
	adrp	x0, GImGuiDemoMarkerCallback
	add	x0, x0, :lo12:GImGuiDemoMarkerCallback
	ldr	x4, [x0]
	adrp	x0, GImGuiDemoMarkerCallbackUserData
	add	x0, x0, :lo12:GImGuiDemoMarkerCallbackUserData
	ldr	x0, [x0]
	mov	x3, x0
	adrp	x0, .LC290
	add	x2, x0, :lo12:.LC290
	mov	w1, 602
	adrp	x0, .LC156
	add	x0, x0, :lo12:.LC156
	blr	x4
.L146:
	bl	_ZN5ImGui8GetStyleEv
	ldr	s0, [x0, 84]
	str	s0, [sp, 528]
	mov	w0, 1
	bl	_ZN5ImGui16PushButtonRepeatEb
	mov	w1, 0
	adrp	x0, .LC291
	add	x0, x0, :lo12:.LC291
	bl	_ZN5ImGui11ArrowButtonEPKci
	and	w0, w0, 255
	cmp	w0, 0
	beq	.L147
	adrp	x0, _ZZL21ShowDemoWindowWidgetsvE7counter
	add	x0, x0, :lo12:_ZZL21ShowDemoWindowWidgetsvE7counter
	ldr	w0, [x0]
	sub	w1, w0, #1
	adrp	x0, _ZZL21ShowDemoWindowWidgetsvE7counter
	add	x0, x0, :lo12:_ZZL21ShowDemoWindowWidgetsvE7counter
	str	w1, [x0]
.L147:
	ldr	s1, [sp, 528]
	movi	v0.2s, #0
	bl	_ZN5ImGui8SameLineEff
	mov	w1, 1
	adrp	x0, .LC292
	add	x0, x0, :lo12:.LC292
	bl	_ZN5ImGui11ArrowButtonEPKci
	and	w0, w0, 255
	cmp	w0, 0
	beq	.L148
	adrp	x0, _ZZL21ShowDemoWindowWidgetsvE7counter
	add	x0, x0, :lo12:_ZZL21ShowDemoWindowWidgetsvE7counter
	ldr	w0, [x0]
	add	w1, w0, 1
	adrp	x0, _ZZL21ShowDemoWindowWidgetsvE7counter
	add	x0, x0, :lo12:_ZZL21ShowDemoWindowWidgetsvE7counter
	str	w1, [x0]
.L148:
	bl	_ZN5ImGui15PopButtonRepeatEv
	fmov	s1, -1.0e+0
	movi	v0.2s, #0
	bl	_ZN5ImGui8SameLineEff
	adrp	x0, _ZZL21ShowDemoWindowWidgetsvE7counter
	add	x0, x0, :lo12:_ZZL21ShowDemoWindowWidgetsvE7counter
	ldr	w0, [x0]
	mov	w1, w0
	adrp	x0, .LC293
	add	x0, x0, :lo12:.LC293
	bl	_ZN5ImGui4TextEPKcz
	bl	_ZN5ImGui9SeparatorEv
	adrp	x0, .LC294
	add	x1, x0, :lo12:.LC294
	adrp	x0, .LC295
	add	x0, x0, :lo12:.LC295
	bl	_ZN5ImGui9LabelTextEPKcS1_z
	adrp	x0, GImGuiDemoMarkerCallback
	add	x0, x0, :lo12:GImGuiDemoMarkerCallback
	ldr	x0, [x0]
	cmp	x0, 0
	beq	.L149
	adrp	x0, GImGuiDemoMarkerCallback
	add	x0, x0, :lo12:GImGuiDemoMarkerCallback
	ldr	x4, [x0]
	adrp	x0, GImGuiDemoMarkerCallbackUserData
	add	x0, x0, :lo12:GImGuiDemoMarkerCallbackUserData
	ldr	x0, [x0]
	mov	x3, x0
	adrp	x0, .LC296
	add	x2, x0, :lo12:.LC296
	mov	w1, 619
	adrp	x0, .LC156
	add	x0, x0, :lo12:.LC156
	blr	x4
.L149:
	adrp	x0, .LC297
	add	x1, x0, :lo12:.LC297
	add	x0, sp, 872
	ldp	q0, q1, [x1]
	stp	q0, q1, [x0]
	ldp	q0, q1, [x1, 32]
	stp	q0, q1, [x0, 32]
	ldr	q0, [x1, 64]
	str	q0, [x0, 64]
	ldr	x1, [x1, 80]
	str	x1, [x0, 80]
	add	x0, sp, 872
	mov	w4, -1
	mov	w3, 11
	mov	x2, x0
	adrp	x0, _ZZL21ShowDemoWindowWidgetsvE12item_current
	add	x1, x0, :lo12:_ZZL21ShowDemoWindowWidgetsvE12item_current
	adrp	x0, .LC298
	add	x0, x0, :lo12:.LC298
	bl	_ZN5ImGui5ComboEPKcPiPKS1_ii
	fmov	s1, -1.0e+0
	movi	v0.2s, #0
	bl	_ZN5ImGui8SameLineEff
	adrp	x0, .LC299
	add	x0, x0, :lo12:.LC299
	bl	_ZL10HelpMarkerPKc
	adrp	x0, GImGuiDemoMarkerCallback
	add	x0, x0, :lo12:GImGuiDemoMarkerCallback
	ldr	x0, [x0]
	cmp	x0, 0
	beq	.L150
	adrp	x0, GImGuiDemoMarkerCallback
	add	x0, x0, :lo12:GImGuiDemoMarkerCallback
	ldr	x4, [x0]
	adrp	x0, GImGuiDemoMarkerCallbackUserData
	add	x0, x0, :lo12:GImGuiDemoMarkerCallbackUserData
	ldr	x0, [x0]
	mov	x3, x0
	adrp	x0, .LC300
	add	x2, x0, :lo12:.LC300
	mov	w1, 630
	adrp	x0, .LC156
	add	x0, x0, :lo12:.LC156
	blr	x4
.L150:
	mov	x5, 0
	mov	x4, 0
	mov	w3, 0
	mov	x2, 128
	adrp	x0, _ZZL21ShowDemoWindowWidgetsvE4str0
	add	x1, x0, :lo12:_ZZL21ShowDemoWindowWidgetsvE4str0
	adrp	x0, .LC301
	add	x0, x0, :lo12:.LC301
	bl	_ZN5ImGui9InputTextEPKcPcmiPFiP26ImGuiInputTextCallbackDataEPv
	fmov	s1, -1.0e+0
	movi	v0.2s, #0
	bl	_ZN5ImGui8SameLineEff
	adrp	x0, .LC302
	add	x0, x0, :lo12:.LC302
	bl	_ZL10HelpMarkerPKc
	mov	x6, 0
	mov	x5, 0
	mov	w4, 0
	mov	x3, 128
	adrp	x0, _ZZL21ShowDemoWindowWidgetsvE4str1
	add	x2, x0, :lo12:_ZZL21ShowDemoWindowWidgetsvE4str1
	adrp	x0, .LC303
	add	x1, x0, :lo12:.LC303
	adrp	x0, .LC304
	add	x0, x0, :lo12:.LC304
	bl	_ZN5ImGui17InputTextWithHintEPKcS1_PcmiPFiP26ImGuiInputTextCallbackDataEPv
	adrp	x0, GImGuiDemoMarkerCallback
	add	x0, x0, :lo12:GImGuiDemoMarkerCallback
	ldr	x0, [x0]
	cmp	x0, 0
	beq	.L151
	adrp	x0, GImGuiDemoMarkerCallback
	add	x0, x0, :lo12:GImGuiDemoMarkerCallback
	ldr	x4, [x0]
	adrp	x0, GImGuiDemoMarkerCallbackUserData
	add	x0, x0, :lo12:GImGuiDemoMarkerCallbackUserData
	ldr	x0, [x0]
	mov	x3, x0
	adrp	x0, .LC305
	add	x2, x0, :lo12:.LC305
	mov	w1, 649
	adrp	x0, .LC156
	add	x0, x0, :lo12:.LC156
	blr	x4
.L151:
	mov	w4, 0
	mov	w3, 100
	mov	w2, 1
	adrp	x0, _ZZL21ShowDemoWindowWidgetsvE2i0
	add	x1, x0, :lo12:_ZZL21ShowDemoWindowWidgetsvE2i0
	adrp	x0, .LC306
	add	x0, x0, :lo12:.LC306
	bl	_ZN5ImGui8InputIntEPKcPiiii
	mov	w3, 0
	adrp	x0, .LC307
	add	x2, x0, :lo12:.LC307
	fmov	s1, 1.0e+0
	mov	w0, 55050
	movk	w0, 0x3c23, lsl 16
	fmov	s0, w0
	adrp	x0, _ZZL21ShowDemoWindowWidgetsvE2f0
	add	x1, x0, :lo12:_ZZL21ShowDemoWindowWidgetsvE2f0
	adrp	x0, .LC308
	add	x0, x0, :lo12:.LC308
	bl	_ZN5ImGui10InputFloatEPKcPfffS1_i
	mov	w3, 0
	adrp	x0, .LC309
	add	x2, x0, :lo12:.LC309
	fmov	d1, 1.0e+0
	adrp	x0, .LC819
	ldr	d0, [x0, #:lo12:.LC819]
	adrp	x0, _ZZL21ShowDemoWindowWidgetsvE2d0
	add	x1, x0, :lo12:_ZZL21ShowDemoWindowWidgetsvE2d0
	adrp	x0, .LC310
	add	x0, x0, :lo12:.LC310
	bl	_ZN5ImGui11InputDoubleEPKcPdddS1_i
	mov	w3, 0
	adrp	x0, .LC311
	add	x2, x0, :lo12:.LC311
	movi	v1.2s, #0
	movi	v0.2s, #0
	adrp	x0, _ZZL21ShowDemoWindowWidgetsvE2f1
	add	x1, x0, :lo12:_ZZL21ShowDemoWindowWidgetsvE2f1
	adrp	x0, .LC312
	add	x0, x0, :lo12:.LC312
	bl	_ZN5ImGui10InputFloatEPKcPfffS1_i
	fmov	s1, -1.0e+0
	movi	v0.2s, #0
	bl	_ZN5ImGui8SameLineEff
	adrp	x0, .LC313
	add	x0, x0, :lo12:.LC313
	bl	_ZL10HelpMarkerPKc
	mov	w3, 0
	adrp	x0, .LC307
	add	x2, x0, :lo12:.LC307
	adrp	x0, _ZZL21ShowDemoWindowWidgetsvE5vec4a
	add	x1, x0, :lo12:_ZZL21ShowDemoWindowWidgetsvE5vec4a
	adrp	x0, .LC314
	add	x0, x0, :lo12:.LC314
	bl	_ZN5ImGui11InputFloat3EPKcPfS1_i
	adrp	x0, GImGuiDemoMarkerCallback
	add	x0, x0, :lo12:GImGuiDemoMarkerCallback
	ldr	x0, [x0]
	cmp	x0, 0
	beq	.L152
	adrp	x0, GImGuiDemoMarkerCallback
	add	x0, x0, :lo12:GImGuiDemoMarkerCallback
	ldr	x4, [x0]
	adrp	x0, GImGuiDemoMarkerCallbackUserData
	add	x0, x0, :lo12:GImGuiDemoMarkerCallbackUserData
	ldr	x0, [x0]
	mov	x3, x0
	adrp	x0, .LC315
	add	x2, x0, :lo12:.LC315
	mov	w1, 670
	adrp	x0, .LC156
	add	x0, x0, :lo12:.LC156
	blr	x4
.L152:
	mov	w5, 0
	adrp	x0, .LC293
	add	x4, x0, :lo12:.LC293
	mov	w3, 0
	mov	w2, 0
	fmov	s0, 1.0e+0
	adrp	x0, _ZZL21ShowDemoWindowWidgetsvE2i1
	add	x1, x0, :lo12:_ZZL21ShowDemoWindowWidgetsvE2i1
	adrp	x0, .LC316
	add	x0, x0, :lo12:.LC316
	bl	_ZN5ImGui7DragIntEPKcPifiiS1_i
	fmov	s1, -1.0e+0
	movi	v0.2s, #0
	bl	_ZN5ImGui8SameLineEff
	adrp	x0, .LC317
	add	x0, x0, :lo12:.LC317
	bl	_ZL10HelpMarkerPKc
	mov	w5, 16
	adrp	x0, .LC318
	add	x4, x0, :lo12:.LC318
	mov	w3, 100
	mov	w2, 0
	fmov	s0, 1.0e+0
	adrp	x0, _ZZL21ShowDemoWindowWidgetsvE2i2
	add	x1, x0, :lo12:_ZZL21ShowDemoWindowWidgetsvE2i2
	adrp	x0, .LC319
	add	x0, x0, :lo12:.LC319
	bl	_ZN5ImGui7DragIntEPKcPifiiS1_i
	mov	w3, 0
	adrp	x0, .LC307
	add	x2, x0, :lo12:.LC307
	movi	v2.2s, #0
	movi	v1.2s, #0
	mov	w0, 55050
	movk	w0, 0x3ba3, lsl 16
	fmov	s0, w0
	adrp	x0, _ZZL21ShowDemoWindowWidgetsvE2f1_0
	add	x1, x0, :lo12:_ZZL21ShowDemoWindowWidgetsvE2f1_0
	adrp	x0, .LC320
	add	x0, x0, :lo12:.LC320
	bl	_ZN5ImGui9DragFloatEPKcPffffS1_i
	mov	w3, 0
	adrp	x0, .LC321
	add	x2, x0, :lo12:.LC321
	movi	v2.2s, #0
	movi	v1.2s, #0
	mov	w0, 46871
	movk	w0, 0x38d1, lsl 16
	fmov	s0, w0
	adrp	x0, _ZZL21ShowDemoWindowWidgetsvE2f2
	add	x1, x0, :lo12:_ZZL21ShowDemoWindowWidgetsvE2f2
	adrp	x0, .LC322
	add	x0, x0, :lo12:.LC322
	bl	_ZN5ImGui9DragFloatEPKcPffffS1_i
	adrp	x0, GImGuiDemoMarkerCallback
	add	x0, x0, :lo12:GImGuiDemoMarkerCallback
	ldr	x0, [x0]
	cmp	x0, 0
	beq	.L153
	adrp	x0, GImGuiDemoMarkerCallback
	add	x0, x0, :lo12:GImGuiDemoMarkerCallback
	ldr	x4, [x0]
	adrp	x0, GImGuiDemoMarkerCallbackUserData
	add	x0, x0, :lo12:GImGuiDemoMarkerCallbackUserData
	ldr	x0, [x0]
	mov	x3, x0
	adrp	x0, .LC323
	add	x2, x0, :lo12:.LC323
	mov	w1, 686
	adrp	x0, .LC156
	add	x0, x0, :lo12:.LC156
	blr	x4
.L153:
	mov	w5, 0
	adrp	x0, .LC293
	add	x4, x0, :lo12:.LC293
	mov	w3, 3
	mov	w2, -1
	adrp	x0, _ZZL21ShowDemoWindowWidgetsvE2i1_0
	add	x1, x0, :lo12:_ZZL21ShowDemoWindowWidgetsvE2i1_0
	adrp	x0, .LC324
	add	x0, x0, :lo12:.LC324
	bl	_ZN5ImGui9SliderIntEPKcPiiiS1_i
	fmov	s1, -1.0e+0
	movi	v0.2s, #0
	bl	_ZN5ImGui8SameLineEff
	adrp	x0, .LC325
	add	x0, x0, :lo12:.LC325
	bl	_ZL10HelpMarkerPKc
	mov	w3, 0
	adrp	x0, .LC326
	add	x2, x0, :lo12:.LC326
	fmov	s1, 1.0e+0
	movi	v0.2s, #0
	adrp	x0, _ZZL21ShowDemoWindowWidgetsvE2f1_1
	add	x1, x0, :lo12:_ZZL21ShowDemoWindowWidgetsvE2f1_1
	adrp	x0, .LC327
	add	x0, x0, :lo12:.LC327
	bl	_ZN5ImGui11SliderFloatEPKcPfffS1_i
	mov	w3, 32
	adrp	x0, .LC328
	add	x2, x0, :lo12:.LC328
	fmov	s1, 1.0e+1
	fmov	s0, -1.0e+1
	adrp	x0, _ZZL21ShowDemoWindowWidgetsvE2f2_0
	add	x1, x0, :lo12:_ZZL21ShowDemoWindowWidgetsvE2f2_0
	adrp	x0, .LC329
	add	x0, x0, :lo12:.LC329
	bl	_ZN5ImGui11SliderFloatEPKcPfffS1_i
	adrp	x0, GImGuiDemoMarkerCallback
	add	x0, x0, :lo12:GImGuiDemoMarkerCallback
	ldr	x0, [x0]
	cmp	x0, 0
	beq	.L154
	adrp	x0, GImGuiDemoMarkerCallback
	add	x0, x0, :lo12:GImGuiDemoMarkerCallback
	ldr	x4, [x0]
	adrp	x0, GImGuiDemoMarkerCallbackUserData
	add	x0, x0, :lo12:GImGuiDemoMarkerCallbackUserData
	ldr	x0, [x0]
	mov	x3, x0
	adrp	x0, .LC330
	add	x2, x0, :lo12:.LC330
	mov	w1, 695
	adrp	x0, .LC156
	add	x0, x0, :lo12:.LC156
	blr	x4
.L154:
	mov	w3, 0
	adrp	x0, .LC331
	add	x2, x0, :lo12:.LC331
	mov	w0, 1135869952
	fmov	s1, w0
	mov	w0, -1011613696
	fmov	s0, w0
	adrp	x0, _ZZL21ShowDemoWindowWidgetsvE5angle
	add	x1, x0, :lo12:_ZZL21ShowDemoWindowWidgetsvE5angle
	adrp	x0, .LC332
	add	x0, x0, :lo12:.LC332
	bl	_ZN5ImGui11SliderAngleEPKcPfffS1_i
	adrp	x0, GImGuiDemoMarkerCallback
	add	x0, x0, :lo12:GImGuiDemoMarkerCallback
	ldr	x0, [x0]
	cmp	x0, 0
	beq	.L155
	adrp	x0, GImGuiDemoMarkerCallback
	add	x0, x0, :lo12:GImGuiDemoMarkerCallback
	ldr	x4, [x0]
	adrp	x0, GImGuiDemoMarkerCallbackUserData
	add	x0, x0, :lo12:GImGuiDemoMarkerCallbackUserData
	ldr	x0, [x0]
	mov	x3, x0
	adrp	x0, .LC333
	add	x2, x0, :lo12:.LC333
	mov	w1, 702
	adrp	x0, .LC156
	add	x0, x0, :lo12:.LC156
	blr	x4
.L155:
	add	x0, sp, 1048
	sub	x0, x0, #176
	adrp	x1, .LC334
	add	x1, x1, :lo12:.LC334
	ld1	{v0.16b - v1.16b}, [x1]
	st1	{v0.16b - v1.16b}, [x0]
	adrp	x0, _ZZL21ShowDemoWindowWidgetsvE4elem
	add	x0, x0, :lo12:_ZZL21ShowDemoWindowWidgetsvE4elem
	ldr	w0, [x0]
	cmp	w0, 0
	blt	.L156
	adrp	x0, _ZZL21ShowDemoWindowWidgetsvE4elem
	add	x0, x0, :lo12:_ZZL21ShowDemoWindowWidgetsvE4elem
	ldr	w0, [x0]
	cmp	w0, 3
	bgt	.L156
	adrp	x0, _ZZL21ShowDemoWindowWidgetsvE4elem
	add	x0, x0, :lo12:_ZZL21ShowDemoWindowWidgetsvE4elem
	ldr	w1, [x0]
	add	x0, sp, 1048
	sub	x0, x0, #176
	sxtw	x1, w1
	ldr	x0, [x0, x1, lsl 3]
	b	.L157
.L156:
	adrp	x0, .LC335
	add	x0, x0, :lo12:.LC335
.L157:
	str	x0, [sp, 720]
	mov	w5, 0
	ldr	x4, [sp, 720]
	mov	w3, 3
	mov	w2, 0
	adrp	x0, _ZZL21ShowDemoWindowWidgetsvE4elem
	add	x1, x0, :lo12:_ZZL21ShowDemoWindowWidgetsvE4elem
	adrp	x0, .LC336
	add	x0, x0, :lo12:.LC336
	bl	_ZN5ImGui9SliderIntEPKcPiiiS1_i
	fmov	s1, -1.0e+0
	movi	v0.2s, #0
	bl	_ZN5ImGui8SameLineEff
	adrp	x0, .LC337
	add	x0, x0, :lo12:.LC337
	bl	_ZL10HelpMarkerPKc
	adrp	x0, GImGuiDemoMarkerCallback
	add	x0, x0, :lo12:GImGuiDemoMarkerCallback
	ldr	x0, [x0]
	cmp	x0, 0
	beq	.L158
	adrp	x0, GImGuiDemoMarkerCallback
	add	x0, x0, :lo12:GImGuiDemoMarkerCallback
	ldr	x4, [x0]
	adrp	x0, GImGuiDemoMarkerCallbackUserData
	add	x0, x0, :lo12:GImGuiDemoMarkerCallbackUserData
	ldr	x0, [x0]
	mov	x3, x0
	adrp	x0, .LC338
	add	x2, x0, :lo12:.LC338
	mov	w1, 712
	adrp	x0, .LC156
	add	x0, x0, :lo12:.LC156
	blr	x4
.L158:
	mov	w2, 0
	adrp	x0, _ZZL21ShowDemoWindowWidgetsvE4col1
	add	x1, x0, :lo12:_ZZL21ShowDemoWindowWidgetsvE4col1
	adrp	x0, .LC339
	add	x0, x0, :lo12:.LC339
	bl	_ZN5ImGui10ColorEdit3EPKcPfi
	fmov	s1, -1.0e+0
	movi	v0.2s, #0
	bl	_ZN5ImGui8SameLineEff
	adrp	x0, .LC340
	add	x0, x0, :lo12:.LC340
	bl	_ZL10HelpMarkerPKc
	mov	w2, 0
	adrp	x0, _ZZL21ShowDemoWindowWidgetsvE4col2
	add	x1, x0, :lo12:_ZZL21ShowDemoWindowWidgetsvE4col2
	adrp	x0, .LC341
	add	x0, x0, :lo12:.LC341
	bl	_ZN5ImGui10ColorEdit4EPKcPfi
	adrp	x0, GImGuiDemoMarkerCallback
	add	x0, x0, :lo12:GImGuiDemoMarkerCallback
	ldr	x0, [x0]
	cmp	x0, 0
	beq	.L159
	adrp	x0, GImGuiDemoMarkerCallback
	add	x0, x0, :lo12:GImGuiDemoMarkerCallback
	ldr	x4, [x0]
	adrp	x0, GImGuiDemoMarkerCallbackUserData
	add	x0, x0, :lo12:GImGuiDemoMarkerCallbackUserData
	ldr	x0, [x0]
	mov	x3, x0
	adrp	x0, .LC342
	add	x2, x0, :lo12:.LC342
	mov	w1, 728
	adrp	x0, .LC156
	add	x0, x0, :lo12:.LC156
	blr	x4
.L159:
	adrp	x0, .LC343
	add	x1, x0, :lo12:.LC343
	add	x0, sp, 872
	ldp	q0, q1, [x1]
	stp	q0, q1, [x0]
	ldp	q0, q1, [x1, 32]
	stp	q0, q1, [x0, 32]
	ldr	x1, [x1, 64]
	str	x1, [x0, 64]
	add	x0, sp, 872
	mov	w4, 4
	mov	w3, 9
	mov	x2, x0
	adrp	x0, _ZZL21ShowDemoWindowWidgetsvE12item_current_0
	add	x1, x0, :lo12:_ZZL21ShowDemoWindowWidgetsvE12item_current_0
	adrp	x0, .LC344
	add	x0, x0, :lo12:.LC344
	bl	_ZN5ImGui7ListBoxEPKcPiPKS1_ii
	fmov	s1, -1.0e+0
	movi	v0.2s, #0
	bl	_ZN5ImGui8SameLineEff
	adrp	x0, .LC345
	add	x0, x0, :lo12:.LC345
	bl	_ZL10HelpMarkerPKc
	adrp	x0, GImGuiDemoMarkerCallback
	add	x0, x0, :lo12:GImGuiDemoMarkerCallback
	ldr	x0, [x0]
	cmp	x0, 0
	beq	.L160
	adrp	x0, GImGuiDemoMarkerCallback
	add	x0, x0, :lo12:GImGuiDemoMarkerCallback
	ldr	x4, [x0]
	adrp	x0, GImGuiDemoMarkerCallbackUserData
	add	x0, x0, :lo12:GImGuiDemoMarkerCallbackUserData
	ldr	x0, [x0]
	mov	x3, x0
	adrp	x0, .LC346
	add	x2, x0, :lo12:.LC346
	mov	w1, 738
	adrp	x0, .LC156
	add	x0, x0, :lo12:.LC156
	blr	x4
.L160:
	bl	_ZN5ImGui23AlignTextToFramePaddingEv
	adrp	x0, .LC347
	add	x0, x0, :lo12:.LC347
	bl	_ZN5ImGui4TextEPKcz
	fmov	s1, -1.0e+0
	movi	v0.2s, #0
	bl	_ZN5ImGui8SameLineEff
	add	x0, sp, 824
	movi	v1.2s, #0
	movi	v0.2s, #0
	bl	_ZN6ImVec2C1Eff
	add	x0, sp, 824
	mov	x1, x0
	adrp	x0, .LC39
	add	x0, x0, :lo12:.LC39
	bl	_ZN5ImGui6ButtonEPKcRK6ImVec2
	mov	w0, 0
	bl	_ZN5ImGui13IsItemHoveredEi
	and	w0, w0, 255
	cmp	w0, 0
	beq	.L161
	adrp	x0, .LC348
	add	x0, x0, :lo12:.LC348
	bl	_ZN5ImGui10SetTooltipEPKcz
.L161:
	fmov	s1, -1.0e+0
	movi	v0.2s, #0
	bl	_ZN5ImGui8SameLineEff
	add	x0, sp, 824
	movi	v1.2s, #0
	movi	v0.2s, #0
	bl	_ZN6ImVec2C1Eff
	add	x0, sp, 824
	mov	x1, x0
	adrp	x0, .LC349
	add	x0, x0, :lo12:.LC349
	bl	_ZN5ImGui6ButtonEPKcRK6ImVec2
	mov	w0, 0
	bl	_ZN5ImGui13IsItemHoveredEi
	and	w0, w0, 255
	cmp	w0, 0
	beq	.L162
	bl	_ZN5ImGui12BeginTooltipEv
	adrp	x0, .LC350
	add	x0, x0, :lo12:.LC350
	bl	_ZN5ImGui4TextEPKcz
	add	x0, sp, 824
	movi	v1.2s, #0
	movi	v0.2s, #0
	bl	_ZN6ImVec2C1Eff
	ldr	s1, [sp, 824]
	ldr	s0, [sp, 828]
	mov	w5, 4
	fmov	s2, s1
	fmov	s3, s0
	mov	w0, 2139095039
	fmov	s1, w0
	mov	w0, 2139095039
	fmov	s0, w0
	mov	x4, 0
	mov	w3, 0
	mov	w2, 7
	adrp	x0, _ZZL21ShowDemoWindowWidgetsvE3arr
	add	x1, x0, :lo12:_ZZL21ShowDemoWindowWidgetsvE3arr
	adrp	x0, .LC351
	add	x0, x0, :lo12:.LC351
	bl	_ZN5ImGui9PlotLinesEPKcPKfiiS1_ff6ImVec2i
	bl	_ZN5ImGui7GetTimeEv
	fcvt	s0, d0
	bl	sinf
	fcvt	d0, s0
	adrp	x0, .LC352
	add	x0, x0, :lo12:.LC352
	bl	_ZN5ImGui4TextEPKcz
	bl	_ZN5ImGui10EndTooltipEv
.L162:
	fmov	s1, -1.0e+0
	movi	v0.2s, #0
	bl	_ZN5ImGui8SameLineEff
	add	x0, sp, 824
	movi	v1.2s, #0
	movi	v0.2s, #0
	bl	_ZN6ImVec2C1Eff
	add	x0, sp, 824
	mov	x1, x0
	adrp	x0, .LC353
	add	x0, x0, :lo12:.LC353
	bl	_ZN5ImGui6ButtonEPKcRK6ImVec2
	mov	w0, 2048
	bl	_ZN5ImGui13IsItemHoveredEi
	and	w0, w0, 255
	cmp	w0, 0
	beq	.L163
	adrp	x0, .LC354
	add	x0, x0, :lo12:.LC354
	bl	_ZN5ImGui10SetTooltipEPKcz
.L163:
	fmov	s1, -1.0e+0
	movi	v0.2s, #0
	bl	_ZN5ImGui8SameLineEff
	adrp	x0, .LC355
	add	x0, x0, :lo12:.LC355
	bl	_ZL10HelpMarkerPKc
	bl	_ZN5ImGui7TreePopEv
.L136:
	adrp	x0, GImGuiDemoMarkerCallback
	add	x0, x0, :lo12:GImGuiDemoMarkerCallback
	ldr	x0, [x0]
	cmp	x0, 0
	beq	.L164
	adrp	x0, GImGuiDemoMarkerCallback
	add	x0, x0, :lo12:GImGuiDemoMarkerCallback
	ldr	x4, [x0]
	adrp	x0, GImGuiDemoMarkerCallbackUserData
	add	x0, x0, :lo12:GImGuiDemoMarkerCallbackUserData
	ldr	x0, [x0]
	mov	x3, x0
	adrp	x0, .LC356
	add	x2, x0, :lo12:.LC356
	mov	w1, 779
	adrp	x0, .LC156
	add	x0, x0, :lo12:.LC156
	blr	x4
.L164:
	adrp	x0, .LC357
	add	x0, x0, :lo12:.LC357
	bl	_ZN5ImGui8TreeNodeEPKc
	and	w0, w0, 255
	cmp	w0, 0
	beq	.L165
	adrp	x0, GImGuiDemoMarkerCallback
	add	x0, x0, :lo12:GImGuiDemoMarkerCallback
	ldr	x0, [x0]
	cmp	x0, 0
	beq	.L166
	adrp	x0, GImGuiDemoMarkerCallback
	add	x0, x0, :lo12:GImGuiDemoMarkerCallback
	ldr	x4, [x0]
	adrp	x0, GImGuiDemoMarkerCallbackUserData
	add	x0, x0, :lo12:GImGuiDemoMarkerCallbackUserData
	ldr	x0, [x0]
	mov	x3, x0
	adrp	x0, .LC358
	add	x2, x0, :lo12:.LC358
	mov	w1, 782
	adrp	x0, .LC156
	add	x0, x0, :lo12:.LC156
	blr	x4
.L166:
	adrp	x0, .LC359
	add	x0, x0, :lo12:.LC359
	bl	_ZN5ImGui8TreeNodeEPKc
	and	w0, w0, 255
	cmp	w0, 0
	beq	.L167
	str	wzr, [sp, 384]
	b	.L168
.L171:
	ldr	w0, [sp, 384]
	cmp	w0, 0
	bne	.L169
	mov	w1, 2
	mov	w0, 1
	bl	_ZN5ImGui15SetNextItemOpenEbi
.L169:
	ldrsw	x0, [sp, 384]
	mov	x3, x0
	ldr	w2, [sp, 384]
	adrp	x0, .LC360
	add	x1, x0, :lo12:.LC360
	mov	x0, x3
	bl	_ZN5ImGui8TreeNodeEPKvPKcz
	and	w0, w0, 255
	cmp	w0, 0
	beq	.L170
	adrp	x0, .LC361
	add	x0, x0, :lo12:.LC361
	bl	_ZN5ImGui4TextEPKcz
	fmov	s1, -1.0e+0
	movi	v0.2s, #0
	bl	_ZN5ImGui8SameLineEff
	adrp	x0, .LC362
	add	x0, x0, :lo12:.LC362
	bl	_ZN5ImGui11SmallButtonEPKc
	bl	_ZN5ImGui7TreePopEv
.L170:
	ldr	w0, [sp, 384]
	add	w0, w0, 1
	str	w0, [sp, 384]
.L168:
	ldr	w0, [sp, 384]
	cmp	w0, 4
	ble	.L171
	bl	_ZN5ImGui7TreePopEv
.L167:
	adrp	x0, GImGuiDemoMarkerCallback
	add	x0, x0, :lo12:GImGuiDemoMarkerCallback
	ldr	x0, [x0]
	cmp	x0, 0
	beq	.L172
	adrp	x0, GImGuiDemoMarkerCallback
	add	x0, x0, :lo12:GImGuiDemoMarkerCallback
	ldr	x4, [x0]
	adrp	x0, GImGuiDemoMarkerCallbackUserData
	add	x0, x0, :lo12:GImGuiDemoMarkerCallbackUserData
	ldr	x0, [x0]
	mov	x3, x0
	adrp	x0, .LC363
	add	x2, x0, :lo12:.LC363
	mov	w1, 803
	adrp	x0, .LC156
	add	x0, x0, :lo12:.LC156
	blr	x4
.L172:
	adrp	x0, .LC364
	add	x0, x0, :lo12:.LC364
	bl	_ZN5ImGui8TreeNodeEPKc
	and	w0, w0, 255
	cmp	w0, 0
	beq	.L173
	adrp	x0, .LC365
	add	x0, x0, :lo12:.LC365
	bl	_ZL10HelpMarkerPKc
	mov	w2, 128
	adrp	x0, _ZZL21ShowDemoWindowWidgetsvE10base_flags
	add	x1, x0, :lo12:_ZZL21ShowDemoWindowWidgetsvE10base_flags
	adrp	x0, .LC366
	add	x0, x0, :lo12:.LC366
	bl	_ZN5ImGui13CheckboxFlagsEPKcPii
	mov	w2, 64
	adrp	x0, _ZZL21ShowDemoWindowWidgetsvE10base_flags
	add	x1, x0, :lo12:_ZZL21ShowDemoWindowWidgetsvE10base_flags
	adrp	x0, .LC367
	add	x0, x0, :lo12:.LC367
	bl	_ZN5ImGui13CheckboxFlagsEPKcPii
	mov	w2, 2048
	adrp	x0, _ZZL21ShowDemoWindowWidgetsvE10base_flags
	add	x1, x0, :lo12:_ZZL21ShowDemoWindowWidgetsvE10base_flags
	adrp	x0, .LC368
	add	x0, x0, :lo12:.LC368
	bl	_ZN5ImGui13CheckboxFlagsEPKcPii
	fmov	s1, -1.0e+0
	movi	v0.2s, #0
	bl	_ZN5ImGui8SameLineEff
	adrp	x0, .LC369
	add	x0, x0, :lo12:.LC369
	bl	_ZL10HelpMarkerPKc
	mov	w2, 4096
	adrp	x0, _ZZL21ShowDemoWindowWidgetsvE10base_flags
	add	x1, x0, :lo12:_ZZL21ShowDemoWindowWidgetsvE10base_flags
	adrp	x0, .LC370
	add	x0, x0, :lo12:.LC370
	bl	_ZN5ImGui13CheckboxFlagsEPKcPii
	adrp	x0, _ZZL21ShowDemoWindowWidgetsvE35align_label_with_current_x_position
	add	x1, x0, :lo12:_ZZL21ShowDemoWindowWidgetsvE35align_label_with_current_x_position
	adrp	x0, .LC371
	add	x0, x0, :lo12:.LC371
	bl	_ZN5ImGui8CheckboxEPKcPb
	adrp	x0, _ZZL21ShowDemoWindowWidgetsvE18test_drag_and_drop
	add	x1, x0, :lo12:_ZZL21ShowDemoWindowWidgetsvE18test_drag_and_drop
	adrp	x0, .LC372
	add	x0, x0, :lo12:.LC372
	bl	_ZN5ImGui8CheckboxEPKcPb
	adrp	x0, .LC373
	add	x0, x0, :lo12:.LC373
	bl	_ZN5ImGui4TextEPKcz
	adrp	x0, _ZZL21ShowDemoWindowWidgetsvE35align_label_with_current_x_position
	add	x0, x0, :lo12:_ZZL21ShowDemoWindowWidgetsvE35align_label_with_current_x_position
	ldrb	w0, [x0]
	cmp	w0, 0
	beq	.L174
	bl	_ZN5ImGui25GetTreeNodeToLabelSpacingEv
	bl	_ZN5ImGui8UnindentEf
.L174:
	mov	w0, -1
	str	w0, [sp, 388]
	str	wzr, [sp, 392]
	b	.L175
.L190:
	adrp	x0, _ZZL21ShowDemoWindowWidgetsvE10base_flags
	add	x0, x0, :lo12:_ZZL21ShowDemoWindowWidgetsvE10base_flags
	ldr	w0, [x0]
	str	w0, [sp, 396]
	adrp	x0, _ZZL21ShowDemoWindowWidgetsvE14selection_mask
	add	x0, x0, :lo12:_ZZL21ShowDemoWindowWidgetsvE14selection_mask
	ldr	w1, [x0]
	ldr	w0, [sp, 392]
	asr	w0, w1, w0
	and	w0, w0, 1
	cmp	w0, 0
	cset	w0, ne
	strb	w0, [sp, 278]
	ldrb	w0, [sp, 278]
	cmp	w0, 0
	beq	.L176
	ldr	w0, [sp, 396]
	orr	w0, w0, 1
	str	w0, [sp, 396]
.L176:
	ldr	w0, [sp, 392]
	cmp	w0, 2
	bgt	.L177
	ldrsw	x0, [sp, 392]
	mov	x4, x0
	ldr	w3, [sp, 392]
	adrp	x0, .LC374
	add	x2, x0, :lo12:.LC374
	ldr	w1, [sp, 396]
	mov	x0, x4
	bl	_ZN5ImGui10TreeNodeExEPKviPKcz
	and	w0, w0, 255
	strb	w0, [sp, 279]
	mov	w0, 0
	bl	_ZN5ImGui13IsItemClickedEi
	and	w0, w0, 255
	cmp	w0, 0
	beq	.L178
	bl	_ZN5ImGui17IsItemToggledOpenEv
	and	w0, w0, 255
	eor	w0, w0, 1
	and	w0, w0, 255
	cmp	w0, 0
	beq	.L178
	mov	w0, 1
	b	.L179
.L178:
	mov	w0, 0
.L179:
	cmp	w0, 0
	beq	.L180
	ldr	w0, [sp, 392]
	str	w0, [sp, 388]
.L180:
	adrp	x0, _ZZL21ShowDemoWindowWidgetsvE18test_drag_and_drop
	add	x0, x0, :lo12:_ZZL21ShowDemoWindowWidgetsvE18test_drag_and_drop
	ldrb	w0, [x0]
	cmp	w0, 0
	beq	.L181
	mov	w0, 0
	bl	_ZN5ImGui19BeginDragDropSourceEi
	and	w0, w0, 255
	cmp	w0, 0
	beq	.L181
	mov	w0, 1
	b	.L182
.L181:
	mov	w0, 0
.L182:
	cmp	w0, 0
	beq	.L183
	mov	w3, 0
	mov	x2, 0
	mov	x1, 0
	adrp	x0, .LC375
	add	x0, x0, :lo12:.LC375
	bl	_ZN5ImGui18SetDragDropPayloadEPKcPKvmi
	adrp	x0, .LC376
	add	x0, x0, :lo12:.LC376
	bl	_ZN5ImGui4TextEPKcz
	bl	_ZN5ImGui17EndDragDropSourceEv
.L183:
	ldrb	w0, [sp, 279]
	cmp	w0, 0
	beq	.L184
	adrp	x0, .LC377
	add	x0, x0, :lo12:.LC377
	bl	_ZN5ImGui10BulletTextEPKcz
	bl	_ZN5ImGui7TreePopEv
	b	.L184
.L177:
	ldr	w1, [sp, 396]
	mov	w0, 264
	orr	w0, w1, w0
	str	w0, [sp, 396]
	ldrsw	x0, [sp, 392]
	mov	x4, x0
	ldr	w3, [sp, 392]
	adrp	x0, .LC378
	add	x2, x0, :lo12:.LC378
	ldr	w1, [sp, 396]
	mov	x0, x4
	bl	_ZN5ImGui10TreeNodeExEPKviPKcz
	mov	w0, 0
	bl	_ZN5ImGui13IsItemClickedEi
	and	w0, w0, 255
	cmp	w0, 0
	beq	.L185
	bl	_ZN5ImGui17IsItemToggledOpenEv
	and	w0, w0, 255
	eor	w0, w0, 1
	and	w0, w0, 255
	cmp	w0, 0
	beq	.L185
	mov	w0, 1
	b	.L186
.L185:
	mov	w0, 0
.L186:
	cmp	w0, 0
	beq	.L187
	ldr	w0, [sp, 392]
	str	w0, [sp, 388]
.L187:
	adrp	x0, _ZZL21ShowDemoWindowWidgetsvE18test_drag_and_drop
	add	x0, x0, :lo12:_ZZL21ShowDemoWindowWidgetsvE18test_drag_and_drop
	ldrb	w0, [x0]
	cmp	w0, 0
	beq	.L188
	mov	w0, 0
	bl	_ZN5ImGui19BeginDragDropSourceEi
	and	w0, w0, 255
	cmp	w0, 0
	beq	.L188
	mov	w0, 1
	b	.L189
.L188:
	mov	w0, 0
.L189:
	cmp	w0, 0
	beq	.L184
	mov	w3, 0
	mov	x2, 0
	mov	x1, 0
	adrp	x0, .LC375
	add	x0, x0, :lo12:.LC375
	bl	_ZN5ImGui18SetDragDropPayloadEPKcPKvmi
	adrp	x0, .LC376
	add	x0, x0, :lo12:.LC376
	bl	_ZN5ImGui4TextEPKcz
	bl	_ZN5ImGui17EndDragDropSourceEv
.L184:
	ldr	w0, [sp, 392]
	add	w0, w0, 1
	str	w0, [sp, 392]
.L175:
	ldr	w0, [sp, 392]
	cmp	w0, 5
	ble	.L190
	ldr	w0, [sp, 388]
	cmn	w0, #1
	beq	.L191
	bl	_ZN5ImGui5GetIOEv
	ldrb	w0, [x0, 3596]
	cmp	w0, 0
	beq	.L192
	ldr	w0, [sp, 388]
	mov	w1, 1
	lsl	w1, w1, w0
	adrp	x0, _ZZL21ShowDemoWindowWidgetsvE14selection_mask
	add	x0, x0, :lo12:_ZZL21ShowDemoWindowWidgetsvE14selection_mask
	ldr	w0, [x0]
	eor	w1, w1, w0
	adrp	x0, _ZZL21ShowDemoWindowWidgetsvE14selection_mask
	add	x0, x0, :lo12:_ZZL21ShowDemoWindowWidgetsvE14selection_mask
	str	w1, [x0]
	b	.L191
.L192:
	ldr	w0, [sp, 388]
	mov	w1, 1
	lsl	w1, w1, w0
	adrp	x0, _ZZL21ShowDemoWindowWidgetsvE14selection_mask
	add	x0, x0, :lo12:_ZZL21ShowDemoWindowWidgetsvE14selection_mask
	str	w1, [x0]
.L191:
	adrp	x0, _ZZL21ShowDemoWindowWidgetsvE35align_label_with_current_x_position
	add	x0, x0, :lo12:_ZZL21ShowDemoWindowWidgetsvE35align_label_with_current_x_position
	ldrb	w0, [x0]
	cmp	w0, 0
	beq	.L193
	bl	_ZN5ImGui25GetTreeNodeToLabelSpacingEv
	bl	_ZN5ImGui6IndentEf
.L193:
	bl	_ZN5ImGui7TreePopEv
.L173:
	bl	_ZN5ImGui7TreePopEv
.L165:
	adrp	x0, GImGuiDemoMarkerCallback
	add	x0, x0, :lo12:GImGuiDemoMarkerCallback
	ldr	x0, [x0]
	cmp	x0, 0
	beq	.L194
	adrp	x0, GImGuiDemoMarkerCallback
	add	x0, x0, :lo12:GImGuiDemoMarkerCallback
	ldr	x4, [x0]
	adrp	x0, GImGuiDemoMarkerCallbackUserData
	add	x0, x0, :lo12:GImGuiDemoMarkerCallbackUserData
	ldr	x0, [x0]
	mov	x3, x0
	adrp	x0, .LC379
	add	x2, x0, :lo12:.LC379
	mov	w1, 887
	adrp	x0, .LC156
	add	x0, x0, :lo12:.LC156
	blr	x4
.L194:
	adrp	x0, .LC380
	add	x0, x0, :lo12:.LC380
	bl	_ZN5ImGui8TreeNodeEPKc
	and	w0, w0, 255
	cmp	w0, 0
	beq	.L195
	adrp	x0, _ZZL21ShowDemoWindowWidgetsvE14closable_group
	add	x1, x0, :lo12:_ZZL21ShowDemoWindowWidgetsvE14closable_group
	adrp	x0, .LC381
	add	x0, x0, :lo12:.LC381
	bl	_ZN5ImGui8CheckboxEPKcPb
	mov	w1, 0
	adrp	x0, .LC382
	add	x0, x0, :lo12:.LC382
	bl	_ZN5ImGui16CollapsingHeaderEPKci
	and	w0, w0, 255
	cmp	w0, 0
	beq	.L196
	mov	w0, 0
	bl	_ZN5ImGui13IsItemHoveredEi
	and	w0, w0, 255
	mov	w1, w0
	adrp	x0, .LC383
	add	x0, x0, :lo12:.LC383
	bl	_ZN5ImGui4TextEPKcz
	str	wzr, [sp, 400]
	b	.L197
.L198:
	ldr	w1, [sp, 400]
	adrp	x0, .LC384
	add	x0, x0, :lo12:.LC384
	bl	_ZN5ImGui4TextEPKcz
	ldr	w0, [sp, 400]
	add	w0, w0, 1
	str	w0, [sp, 400]
.L197:
	ldr	w0, [sp, 400]
	cmp	w0, 4
	ble	.L198
.L196:
	mov	w2, 0
	adrp	x0, _ZZL21ShowDemoWindowWidgetsvE14closable_group
	add	x1, x0, :lo12:_ZZL21ShowDemoWindowWidgetsvE14closable_group
	adrp	x0, .LC385
	add	x0, x0, :lo12:.LC385
	bl	_ZN5ImGui16CollapsingHeaderEPKcPbi
	and	w0, w0, 255
	cmp	w0, 0
	beq	.L199
	mov	w0, 0
	bl	_ZN5ImGui13IsItemHoveredEi
	and	w0, w0, 255
	mov	w1, w0
	adrp	x0, .LC383
	add	x0, x0, :lo12:.LC383
	bl	_ZN5ImGui4TextEPKcz
	str	wzr, [sp, 404]
	b	.L200
.L201:
	ldr	w1, [sp, 404]
	adrp	x0, .LC386
	add	x0, x0, :lo12:.LC386
	bl	_ZN5ImGui4TextEPKcz
	ldr	w0, [sp, 404]
	add	w0, w0, 1
	str	w0, [sp, 404]
.L200:
	ldr	w0, [sp, 404]
	cmp	w0, 4
	ble	.L201
.L199:
	bl	_ZN5ImGui7TreePopEv
.L195:
	adrp	x0, GImGuiDemoMarkerCallback
	add	x0, x0, :lo12:GImGuiDemoMarkerCallback
	ldr	x0, [x0]
	cmp	x0, 0
	beq	.L202
	adrp	x0, GImGuiDemoMarkerCallback
	add	x0, x0, :lo12:GImGuiDemoMarkerCallback
	ldr	x4, [x0]
	adrp	x0, GImGuiDemoMarkerCallbackUserData
	add	x0, x0, :lo12:GImGuiDemoMarkerCallbackUserData
	ldr	x0, [x0]
	mov	x3, x0
	adrp	x0, .LC387
	add	x2, x0, :lo12:.LC387
	mov	w1, 911
	adrp	x0, .LC156
	add	x0, x0, :lo12:.LC156
	blr	x4
.L202:
	adrp	x0, .LC388
	add	x0, x0, :lo12:.LC388
	bl	_ZN5ImGui8TreeNodeEPKc
	and	w0, w0, 255
	cmp	w0, 0
	beq	.L203
	adrp	x0, .LC389
	add	x0, x0, :lo12:.LC389
	bl	_ZN5ImGui10BulletTextEPKcz
	adrp	x0, .LC390
	add	x0, x0, :lo12:.LC390
	bl	_ZN5ImGui10BulletTextEPKcz
	adrp	x0, .LC391
	add	x0, x0, :lo12:.LC391
	bl	_ZN5ImGui8TreeNodeEPKc
	and	w0, w0, 255
	cmp	w0, 0
	beq	.L204
	adrp	x0, .LC392
	add	x0, x0, :lo12:.LC392
	bl	_ZN5ImGui10BulletTextEPKcz
	bl	_ZN5ImGui7TreePopEv
.L204:
	bl	_ZN5ImGui6BulletEv
	adrp	x0, .LC393
	add	x0, x0, :lo12:.LC393
	bl	_ZN5ImGui4TextEPKcz
	bl	_ZN5ImGui6BulletEv
	adrp	x0, .LC39
	add	x0, x0, :lo12:.LC39
	bl	_ZN5ImGui11SmallButtonEPKc
	bl	_ZN5ImGui7TreePopEv
.L203:
	adrp	x0, GImGuiDemoMarkerCallback
	add	x0, x0, :lo12:GImGuiDemoMarkerCallback
	ldr	x0, [x0]
	cmp	x0, 0
	beq	.L205
	adrp	x0, GImGuiDemoMarkerCallback
	add	x0, x0, :lo12:GImGuiDemoMarkerCallback
	ldr	x4, [x0]
	adrp	x0, GImGuiDemoMarkerCallbackUserData
	add	x0, x0, :lo12:GImGuiDemoMarkerCallbackUserData
	ldr	x0, [x0]
	mov	x3, x0
	adrp	x0, .LC394
	add	x2, x0, :lo12:.LC394
	mov	w1, 926
	adrp	x0, .LC156
	add	x0, x0, :lo12:.LC156
	blr	x4
.L205:
	adrp	x0, .LC38
	add	x0, x0, :lo12:.LC38
	bl	_ZN5ImGui8TreeNodeEPKc
	and	w0, w0, 255
	cmp	w0, 0
	beq	.L206
	adrp	x0, GImGuiDemoMarkerCallback
	add	x0, x0, :lo12:GImGuiDemoMarkerCallback
	ldr	x0, [x0]
	cmp	x0, 0
	beq	.L207
	adrp	x0, GImGuiDemoMarkerCallback
	add	x0, x0, :lo12:GImGuiDemoMarkerCallback
	ldr	x4, [x0]
	adrp	x0, GImGuiDemoMarkerCallbackUserData
	add	x0, x0, :lo12:GImGuiDemoMarkerCallbackUserData
	ldr	x0, [x0]
	mov	x3, x0
	adrp	x0, .LC395
	add	x2, x0, :lo12:.LC395
	mov	w1, 929
	adrp	x0, .LC156
	add	x0, x0, :lo12:.LC156
	blr	x4
.L207:
	adrp	x0, .LC396
	add	x0, x0, :lo12:.LC396
	bl	_ZN5ImGui8TreeNodeEPKc
	and	w0, w0, 255
	cmp	w0, 0
	beq	.L208
	add	x0, sp, 824
	fmov	s3, 1.0e+0
	fmov	s2, 1.0e+0
	movi	v1.2s, #0
	fmov	s0, 1.0e+0
	bl	_ZN6ImVec4C1Effff
	add	x2, sp, 824
	adrp	x0, .LC397
	add	x1, x0, :lo12:.LC397
	mov	x0, x2
	bl	_ZN5ImGui11TextColoredERK6ImVec4PKcz
	add	x0, sp, 824
	fmov	s3, 1.0e+0
	movi	v2.2s, #0
	fmov	s1, 1.0e+0
	fmov	s0, 1.0e+0
	bl	_ZN6ImVec4C1Effff
	add	x2, sp, 824
	adrp	x0, .LC398
	add	x1, x0, :lo12:.LC398
	mov	x0, x2
	bl	_ZN5ImGui11TextColoredERK6ImVec4PKcz
	adrp	x0, .LC399
	add	x0, x0, :lo12:.LC399
	bl	_ZN5ImGui12TextDisabledEPKcz
	fmov	s1, -1.0e+0
	movi	v0.2s, #0
	bl	_ZN5ImGui8SameLineEff
	adrp	x0, .LC400
	add	x0, x0, :lo12:.LC400
	bl	_ZL10HelpMarkerPKc
	bl	_ZN5ImGui7TreePopEv
.L208:
	adrp	x0, GImGuiDemoMarkerCallback
	add	x0, x0, :lo12:GImGuiDemoMarkerCallback
	ldr	x0, [x0]
	cmp	x0, 0
	beq	.L209
	adrp	x0, GImGuiDemoMarkerCallback
	add	x0, x0, :lo12:GImGuiDemoMarkerCallback
	ldr	x4, [x0]
	adrp	x0, GImGuiDemoMarkerCallbackUserData
	add	x0, x0, :lo12:GImGuiDemoMarkerCallbackUserData
	ldr	x0, [x0]
	mov	x3, x0
	adrp	x0, .LC401
	add	x2, x0, :lo12:.LC401
	mov	w1, 940
	adrp	x0, .LC156
	add	x0, x0, :lo12:.LC156
	blr	x4
.L209:
	adrp	x0, .LC402
	add	x0, x0, :lo12:.LC402
	bl	_ZN5ImGui8TreeNodeEPKc
	and	w0, w0, 255
	cmp	w0, 0
	beq	.L210
	adrp	x0, .LC403
	add	x0, x0, :lo12:.LC403
	bl	_ZN5ImGui11TextWrappedEPKcz
	bl	_ZN5ImGui7SpacingEv
	mov	w3, 0
	adrp	x0, .LC404
	add	x2, x0, :lo12:.LC404
	mov	w0, 1142292480
	fmov	s1, w0
	fmov	s0, -2.0e+1
	adrp	x0, _ZZL21ShowDemoWindowWidgetsvE10wrap_width
	add	x1, x0, :lo12:_ZZL21ShowDemoWindowWidgetsvE10wrap_width
	adrp	x0, .LC405
	add	x0, x0, :lo12:.LC405
	bl	_ZN5ImGui11SliderFloatEPKcPfffS1_i
	bl	_ZN5ImGui17GetWindowDrawListEv
	str	x0, [sp, 728]
	str	wzr, [sp, 408]
	b	.L211
.L214:
	ldr	w1, [sp, 408]
	adrp	x0, .LC406
	add	x0, x0, :lo12:.LC406
	bl	_ZN5ImGui4TextEPKcz
	bl	_ZN5ImGui18GetCursorScreenPosEv
	fmov	s2, s0
	fmov	s0, s1
	str	s2, [sp, 696]
	str	s0, [sp, 700]
	ldr	s1, [sp, 696]
	adrp	x0, _ZZL21ShowDemoWindowWidgetsvE10wrap_width
	add	x0, x0, :lo12:_ZZL21ShowDemoWindowWidgetsvE10wrap_width
	ldr	s0, [x0]
	fadd	s0, s1, s0
	ldr	s1, [sp, 700]
	add	x0, sp, 704
	bl	_ZN6ImVec2C1Eff
	ldr	s1, [sp, 696]
	adrp	x0, _ZZL21ShowDemoWindowWidgetsvE10wrap_width
	add	x0, x0, :lo12:_ZZL21ShowDemoWindowWidgetsvE10wrap_width
	ldr	s0, [x0]
	fadd	s1, s1, s0
	fmov	s0, 1.0e+1
	fadd	s9, s1, s0
	ldr	s8, [sp, 700]
	bl	_ZN5ImGui17GetTextLineHeightEv
	fadd	s0, s8, s0
	add	x0, sp, 712
	fmov	s1, s0
	fmov	s0, s9
	bl	_ZN6ImVec2C1Eff
	bl	_ZN5ImGui12GetCursorPosEv
	fmov	s2, s0
	fmov	s0, s1
	fmov	x0, d2
	fmov	w1, s0
	bfi	x0, x1, 32, 32
	sbfx	x0, x0, 0, 32
	fmov	d1, x0
	adrp	x0, _ZZL21ShowDemoWindowWidgetsvE10wrap_width
	add	x0, x0, :lo12:_ZZL21ShowDemoWindowWidgetsvE10wrap_width
	ldr	s0, [x0]
	fadd	s0, s1, s0
	bl	_ZN5ImGui15PushTextWrapPosEf
	ldr	w0, [sp, 408]
	cmp	w0, 0
	bne	.L212
	adrp	x0, _ZZL21ShowDemoWindowWidgetsvE10wrap_width
	add	x0, x0, :lo12:_ZZL21ShowDemoWindowWidgetsvE10wrap_width
	ldr	s0, [x0]
	fcvt	d0, s0
	adrp	x0, .LC407
	add	x0, x0, :lo12:.LC407
	bl	_ZN5ImGui4TextEPKcz
	b	.L213
.L212:
	adrp	x0, .LC408
	add	x0, x0, :lo12:.LC408
	bl	_ZN5ImGui4TextEPKcz
.L213:
	ldr	x19, [sp, 728]
	bl	_ZN5ImGui14GetItemRectMinEv
	fmov	s2, s0
	fmov	s0, s1
	str	s2, [sp, 808]
	str	s0, [sp, 812]
	bl	_ZN5ImGui14GetItemRectMaxEv
	fmov	s2, s0
	fmov	s0, s1
	str	s2, [sp, 824]
	str	s0, [sp, 828]
	add	x1, sp, 824
	add	x0, sp, 808
	fmov	s1, 1.0e+0
	mov	w4, 0
	movi	v0.2s, #0
	mov	w3, -16711681
	mov	x2, x1
	mov	x1, x0
	mov	x0, x19
	bl	_ZN10ImDrawList7AddRectERK6ImVec2S2_jfif
	add	x1, sp, 712
	add	x0, sp, 704
	mov	w4, 0
	movi	v0.2s, #0
	mov	w3, -65281
	mov	x2, x1
	mov	x1, x0
	ldr	x0, [sp, 728]
	bl	_ZN10ImDrawList13AddRectFilledERK6ImVec2S2_jfi
	bl	_ZN5ImGui14PopTextWrapPosEv
	ldr	w0, [sp, 408]
	add	w0, w0, 1
	str	w0, [sp, 408]
.L211:
	ldr	w0, [sp, 408]
	cmp	w0, 1
	ble	.L214
	bl	_ZN5ImGui7TreePopEv
.L210:
	adrp	x0, GImGuiDemoMarkerCallback
	add	x0, x0, :lo12:GImGuiDemoMarkerCallback
	ldr	x0, [x0]
	cmp	x0, 0
	beq	.L215
	adrp	x0, GImGuiDemoMarkerCallback
	add	x0, x0, :lo12:GImGuiDemoMarkerCallback
	ldr	x4, [x0]
	adrp	x0, GImGuiDemoMarkerCallbackUserData
	add	x0, x0, :lo12:GImGuiDemoMarkerCallbackUserData
	ldr	x0, [x0]
	mov	x3, x0
	adrp	x0, .LC409
	add	x2, x0, :lo12:.LC409
	mov	w1, 974
	adrp	x0, .LC156
	add	x0, x0, :lo12:.LC156
	blr	x4
.L215:
	adrp	x0, .LC410
	add	x0, x0, :lo12:.LC410
	bl	_ZN5ImGui8TreeNodeEPKc
	and	w0, w0, 255
	cmp	w0, 0
	beq	.L216
	adrp	x0, .LC411
	add	x0, x0, :lo12:.LC411
	bl	_ZN5ImGui11TextWrappedEPKcz
	adrp	x0, .LC412
	add	x0, x0, :lo12:.LC412
	bl	_ZN5ImGui4TextEPKcz
	adrp	x0, .LC413
	add	x0, x0, :lo12:.LC413
	bl	_ZN5ImGui4TextEPKcz
	mov	x5, 0
	mov	x4, 0
	mov	w3, 0
	mov	x2, 32
	adrp	x0, _ZZL21ShowDemoWindowWidgetsvE3buf
	add	x1, x0, :lo12:_ZZL21ShowDemoWindowWidgetsvE3buf
	adrp	x0, .LC414
	add	x0, x0, :lo12:.LC414
	bl	_ZN5ImGui9InputTextEPKcPcmiPFiP26ImGuiInputTextCallbackDataEPv
	bl	_ZN5ImGui7TreePopEv
.L216:
	bl	_ZN5ImGui7TreePopEv
.L206:
	adrp	x0, GImGuiDemoMarkerCallback
	add	x0, x0, :lo12:GImGuiDemoMarkerCallback
	ldr	x0, [x0]
	cmp	x0, 0
	beq	.L217
	adrp	x0, GImGuiDemoMarkerCallback
	add	x0, x0, :lo12:GImGuiDemoMarkerCallback
	ldr	x4, [x0]
	adrp	x0, GImGuiDemoMarkerCallbackUserData
	add	x0, x0, :lo12:GImGuiDemoMarkerCallbackUserData
	ldr	x0, [x0]
	mov	x3, x0
	adrp	x0, .LC415
	add	x2, x0, :lo12:.LC415
	mov	w1, 1001
	adrp	x0, .LC156
	add	x0, x0, :lo12:.LC156
	blr	x4
.L217:
	adrp	x0, .LC416
	add	x0, x0, :lo12:.LC416
	bl	_ZN5ImGui8TreeNodeEPKc
	and	w0, w0, 255
	cmp	w0, 0
	beq	.L218
	bl	_ZN5ImGui5GetIOEv
	str	x0, [sp, 736]
	adrp	x0, .LC417
	add	x0, x0, :lo12:.LC417
	bl	_ZN5ImGui11TextWrappedEPKcz
	ldr	x0, [sp, 736]
	ldr	x0, [x0, 80]
	ldr	x0, [x0, 8]
	str	x0, [sp, 744]
	ldr	x0, [sp, 736]
	ldr	x0, [x0, 80]
	ldr	s0, [x0, 48]
	scvtf	s0, s0
	str	s0, [sp, 532]
	ldr	x0, [sp, 736]
	ldr	x0, [x0, 80]
	ldr	s0, [x0, 52]
	scvtf	s0, s0
	str	s0, [sp, 536]
	ldr	s0, [sp, 532]
	fcvt	d2, s0
	ldr	s0, [sp, 536]
	fcvt	d0, s0
	fmov	d1, d0
	fmov	d0, d2
	adrp	x0, .LC418
	add	x0, x0, :lo12:.LC418
	bl	_ZN5ImGui4TextEPKcz
	bl	_ZN5ImGui18GetCursorScreenPosEv
	fmov	s2, s0
	fmov	s0, s1
	str	s2, [sp, 672]
	str	s0, [sp, 676]
	str	wzr, [sp, 680]
	str	wzr, [sp, 684]
	fmov	s0, 1.0e+0
	str	s0, [sp, 688]
	fmov	s0, 1.0e+0
	str	s0, [sp, 692]
	fmov	s0, 1.0e+0
	str	s0, [sp, 808]
	fmov	s0, 1.0e+0
	str	s0, [sp, 812]
	fmov	s0, 1.0e+0
	str	s0, [sp, 816]
	fmov	s0, 1.0e+0
	str	s0, [sp, 820]
	fmov	s0, 1.0e+0
	str	s0, [sp, 824]
	fmov	s0, 1.0e+0
	str	s0, [sp, 828]
	fmov	s0, 1.0e+0
	str	s0, [sp, 832]
	fmov	s0, 5.0e-1
	str	s0, [sp, 836]
	add	x0, sp, 712
	ldr	s1, [sp, 536]
	ldr	s0, [sp, 532]
	bl	_ZN6ImVec2C1Eff
	add	x4, sp, 824
	add	x3, sp, 808
	add	x2, sp, 688
	add	x1, sp, 680
	add	x0, sp, 712
	mov	x5, x4
	mov	x4, x3
	mov	x3, x2
	mov	x2, x1
	mov	x1, x0
	ldr	x0, [sp, 744]
	bl	_ZN5ImGui5ImageEPvRK6ImVec2S3_S3_RK6ImVec4S6_
	mov	w0, 0
	bl	_ZN5ImGui13IsItemHoveredEi
	and	w0, w0, 255
	cmp	w0, 0
	beq	.L219
	bl	_ZN5ImGui12BeginTooltipEv
	movi	v0.2s, 0x42, lsl 24
	str	s0, [sp, 540]
	ldr	x0, [sp, 736]
	ldr	s1, [x0, 3572]
	ldr	s0, [sp, 672]
	fsub	s1, s1, s0
	ldr	s2, [sp, 540]
	fmov	s0, 5.0e-1
	fmul	s0, s2, s0
	fsub	s0, s1, s0
	str	s0, [sp, 412]
	ldr	x0, [sp, 736]
	ldr	s1, [x0, 3576]
	ldr	s0, [sp, 676]
	fsub	s1, s1, s0
	ldr	s2, [sp, 540]
	fmov	s0, 5.0e-1
	fmul	s0, s2, s0
	fsub	s0, s1, s0
	str	s0, [sp, 416]
	fmov	s0, 4.0e+0
	str	s0, [sp, 544]
	ldr	s0, [sp, 412]
	fcmpe	s0, #0.0
	bmi	.L586
	b	.L595
.L586:
	str	wzr, [sp, 412]
	b	.L222
.L595:
	ldr	s1, [sp, 532]
	ldr	s0, [sp, 540]
	fsub	s0, s1, s0
	ldr	s1, [sp, 412]
	fcmpe	s1, s0
	bgt	.L587
	b	.L222
.L587:
	ldr	s1, [sp, 532]
	ldr	s0, [sp, 540]
	fsub	s0, s1, s0
	str	s0, [sp, 412]
.L222:
	ldr	s0, [sp, 416]
	fcmpe	s0, #0.0
	bmi	.L588
	b	.L596
.L588:
	str	wzr, [sp, 416]
	b	.L226
.L596:
	ldr	s1, [sp, 536]
	ldr	s0, [sp, 540]
	fsub	s0, s1, s0
	ldr	s1, [sp, 416]
	fcmpe	s1, s0
	bgt	.L589
	b	.L226
.L589:
	ldr	s1, [sp, 536]
	ldr	s0, [sp, 540]
	fsub	s0, s1, s0
	str	s0, [sp, 416]
.L226:
	ldr	s0, [sp, 412]
	fcvt	d2, s0
	ldr	s0, [sp, 416]
	fcvt	d0, s0
	fmov	d1, d0
	fmov	d0, d2
	adrp	x0, .LC419
	add	x0, x0, :lo12:.LC419
	bl	_ZN5ImGui4TextEPKcz
	ldr	s1, [sp, 412]
	ldr	s0, [sp, 540]
	fadd	s0, s1, s0
	fcvt	d2, s0
	ldr	s1, [sp, 416]
	ldr	s0, [sp, 540]
	fadd	s0, s1, s0
	fcvt	d0, s0
	fmov	d1, d0
	fmov	d0, d2
	adrp	x0, .LC420
	add	x0, x0, :lo12:.LC420
	bl	_ZN5ImGui4TextEPKcz
	ldr	s0, [sp, 532]
	ldr	s1, [sp, 412]
	fdiv	s2, s1, s0
	ldr	s0, [sp, 536]
	ldr	s1, [sp, 416]
	fdiv	s0, s1, s0
	add	x0, sp, 696
	fmov	s1, s0
	fmov	s0, s2
	bl	_ZN6ImVec2C1Eff
	ldr	s1, [sp, 412]
	ldr	s0, [sp, 540]
	fadd	s1, s1, s0
	ldr	s0, [sp, 532]
	fdiv	s2, s1, s0
	ldr	s1, [sp, 416]
	ldr	s0, [sp, 540]
	fadd	s1, s1, s0
	ldr	s0, [sp, 536]
	fdiv	s0, s1, s0
	add	x0, sp, 704
	fmov	s1, s0
	fmov	s0, s2
	bl	_ZN6ImVec2C1Eff
	ldr	s1, [sp, 540]
	ldr	s0, [sp, 544]
	fmul	s2, s1, s0
	ldr	s1, [sp, 540]
	ldr	s0, [sp, 544]
	fmul	s0, s1, s0
	add	x0, sp, 712
	fmov	s1, s0
	fmov	s0, s2
	bl	_ZN6ImVec2C1Eff
	add	x4, sp, 824
	add	x3, sp, 808
	add	x2, sp, 704
	add	x1, sp, 696
	add	x0, sp, 712
	mov	x5, x4
	mov	x4, x3
	mov	x3, x2
	mov	x2, x1
	mov	x1, x0
	ldr	x0, [sp, 744]
	bl	_ZN5ImGui5ImageEPvRK6ImVec2S3_S3_RK6ImVec4S6_
	bl	_ZN5ImGui10EndTooltipEv
.L219:
	adrp	x0, GImGuiDemoMarkerCallback
	add	x0, x0, :lo12:GImGuiDemoMarkerCallback
	ldr	x0, [x0]
	cmp	x0, 0
	beq	.L228
	adrp	x0, GImGuiDemoMarkerCallback
	add	x0, x0, :lo12:GImGuiDemoMarkerCallback
	ldr	x4, [x0]
	adrp	x0, GImGuiDemoMarkerCallbackUserData
	add	x0, x0, :lo12:GImGuiDemoMarkerCallbackUserData
	ldr	x0, [x0]
	mov	x3, x0
	adrp	x0, .LC421
	add	x2, x0, :lo12:.LC421
	mov	w1, 1056
	adrp	x0, .LC156
	add	x0, x0, :lo12:.LC156
	blr	x4
.L228:
	adrp	x0, .LC422
	add	x0, x0, :lo12:.LC422
	bl	_ZN5ImGui11TextWrappedEPKcz
	str	wzr, [sp, 420]
	b	.L229
.L233:
	ldr	w0, [sp, 420]
	bl	_ZN5ImGui6PushIDEi
	ldr	w0, [sp, 420]
	cmp	w0, 0
	ble	.L230
	ldr	s0, [sp, 420]
	scvtf	s1, s0
	fmov	s0, 1.0e+0
	fsub	s2, s1, s0
	ldr	s0, [sp, 420]
	scvtf	s1, s0
	fmov	s0, 1.0e+0
	fsub	s0, s1, s0
	add	x0, sp, 824
	fmov	s1, s0
	fmov	s0, s2
	bl	_ZN6ImVec2C1Eff
	add	x0, sp, 824
	mov	x1, x0
	mov	w0, 11
	bl	_ZN5ImGui12PushStyleVarEiRK6ImVec2
.L230:
	movi	v0.2s, 0x42, lsl 24
	str	s0, [sp, 696]
	movi	v0.2s, 0x42, lsl 24
	str	s0, [sp, 700]
	str	wzr, [sp, 704]
	str	wzr, [sp, 708]
	ldr	s0, [sp, 532]
	movi	v1.2s, 0x42, lsl 24
	fdiv	s2, s1, s0
	ldr	s0, [sp, 536]
	movi	v1.2s, 0x42, lsl 24
	fdiv	s0, s1, s0
	add	x0, sp, 712
	fmov	s1, s0
	fmov	s0, s2
	bl	_ZN6ImVec2C1Eff
	str	wzr, [sp, 808]
	str	wzr, [sp, 812]
	str	wzr, [sp, 816]
	fmov	s0, 1.0e+0
	str	s0, [sp, 820]
	fmov	s0, 1.0e+0
	str	s0, [sp, 824]
	fmov	s0, 1.0e+0
	str	s0, [sp, 828]
	fmov	s0, 1.0e+0
	str	s0, [sp, 832]
	fmov	s0, 1.0e+0
	str	s0, [sp, 836]
	add	x4, sp, 824
	add	x3, sp, 808
	add	x2, sp, 712
	add	x1, sp, 704
	add	x0, sp, 696
	mov	x6, x4
	mov	x5, x3
	mov	x4, x2
	mov	x3, x1
	mov	x2, x0
	ldr	x1, [sp, 744]
	adrp	x0, .LC111
	add	x0, x0, :lo12:.LC111
	bl	_ZN5ImGui11ImageButtonEPKcPvRK6ImVec2S5_S5_RK6ImVec4S8_
	and	w0, w0, 255
	cmp	w0, 0
	beq	.L231
	adrp	x0, _ZZL21ShowDemoWindowWidgetsvE13pressed_count
	add	x0, x0, :lo12:_ZZL21ShowDemoWindowWidgetsvE13pressed_count
	ldr	w0, [x0]
	add	w1, w0, 1
	adrp	x0, _ZZL21ShowDemoWindowWidgetsvE13pressed_count
	add	x0, x0, :lo12:_ZZL21ShowDemoWindowWidgetsvE13pressed_count
	str	w1, [x0]
.L231:
	ldr	w0, [sp, 420]
	cmp	w0, 0
	ble	.L232
	mov	w0, 1
	bl	_ZN5ImGui11PopStyleVarEi
.L232:
	bl	_ZN5ImGui5PopIDEv
	fmov	s1, -1.0e+0
	movi	v0.2s, #0
	bl	_ZN5ImGui8SameLineEff
	ldr	w0, [sp, 420]
	add	w0, w0, 1
	str	w0, [sp, 420]
.L229:
	ldr	w0, [sp, 420]
	cmp	w0, 7
	ble	.L233
	bl	_ZN5ImGui7NewLineEv
	adrp	x0, _ZZL21ShowDemoWindowWidgetsvE13pressed_count
	add	x0, x0, :lo12:_ZZL21ShowDemoWindowWidgetsvE13pressed_count
	ldr	w0, [x0]
	mov	w1, w0
	adrp	x0, .LC423
	add	x0, x0, :lo12:.LC423
	bl	_ZN5ImGui4TextEPKcz
	bl	_ZN5ImGui7TreePopEv
.L218:
	adrp	x0, GImGuiDemoMarkerCallback
	add	x0, x0, :lo12:GImGuiDemoMarkerCallback
	ldr	x0, [x0]
	cmp	x0, 0
	beq	.L234
	adrp	x0, GImGuiDemoMarkerCallback
	add	x0, x0, :lo12:GImGuiDemoMarkerCallback
	ldr	x4, [x0]
	adrp	x0, GImGuiDemoMarkerCallbackUserData
	add	x0, x0, :lo12:GImGuiDemoMarkerCallbackUserData
	ldr	x0, [x0]
	mov	x3, x0
	adrp	x0, .LC424
	add	x2, x0, :lo12:.LC424
	mov	w1, 1084
	adrp	x0, .LC156
	add	x0, x0, :lo12:.LC156
	blr	x4
.L234:
	adrp	x0, .LC52
	add	x0, x0, :lo12:.LC52
	bl	_ZN5ImGui8TreeNodeEPKc
	and	w0, w0, 255
	cmp	w0, 0
	beq	.L235
	mov	w2, 1
	adrp	x0, _ZZL21ShowDemoWindowWidgetsvE5flags
	add	x1, x0, :lo12:_ZZL21ShowDemoWindowWidgetsvE5flags
	adrp	x0, .LC425
	add	x0, x0, :lo12:.LC425
	bl	_ZN5ImGui13CheckboxFlagsEPKcPii
	fmov	s1, -1.0e+0
	movi	v0.2s, #0
	bl	_ZN5ImGui8SameLineEff
	adrp	x0, .LC426
	add	x0, x0, :lo12:.LC426
	bl	_ZL10HelpMarkerPKc
	mov	w2, 32
	adrp	x0, _ZZL21ShowDemoWindowWidgetsvE5flags
	add	x1, x0, :lo12:_ZZL21ShowDemoWindowWidgetsvE5flags
	adrp	x0, .LC427
	add	x0, x0, :lo12:.LC427
	bl	_ZN5ImGui13CheckboxFlagsEPKcPii
	and	w0, w0, 255
	cmp	w0, 0
	beq	.L236
	adrp	x0, _ZZL21ShowDemoWindowWidgetsvE5flags
	add	x0, x0, :lo12:_ZZL21ShowDemoWindowWidgetsvE5flags
	ldr	w0, [x0]
	and	w1, w0, -65
	adrp	x0, _ZZL21ShowDemoWindowWidgetsvE5flags
	add	x0, x0, :lo12:_ZZL21ShowDemoWindowWidgetsvE5flags
	str	w1, [x0]
.L236:
	mov	w2, 64
	adrp	x0, _ZZL21ShowDemoWindowWidgetsvE5flags
	add	x1, x0, :lo12:_ZZL21ShowDemoWindowWidgetsvE5flags
	adrp	x0, .LC428
	add	x0, x0, :lo12:.LC428
	bl	_ZN5ImGui13CheckboxFlagsEPKcPii
	and	w0, w0, 255
	cmp	w0, 0
	beq	.L237
	adrp	x0, _ZZL21ShowDemoWindowWidgetsvE5flags
	add	x0, x0, :lo12:_ZZL21ShowDemoWindowWidgetsvE5flags
	ldr	w0, [x0]
	and	w1, w0, -33
	adrp	x0, _ZZL21ShowDemoWindowWidgetsvE5flags
	add	x0, x0, :lo12:_ZZL21ShowDemoWindowWidgetsvE5flags
	str	w1, [x0]
.L237:
	adrp	x0, .LC429
	add	x1, x0, :lo12:.LC429
	add	x0, sp, 872
	ldp	q0, q1, [x1]
	stp	q0, q1, [x0]
	ldp	q0, q1, [x1, 32]
	stp	q0, q1, [x0, 32]
	ldp	q0, q1, [x1, 64]
	stp	q0, q1, [x0, 64]
	ldr	q0, [x1, 96]
	str	q0, [x0, 96]
	adrp	x0, _ZZL21ShowDemoWindowWidgetsvE16item_current_idx
	add	x0, x0, :lo12:_ZZL21ShowDemoWindowWidgetsvE16item_current_idx
	ldr	w0, [x0]
	sxtw	x0, w0
	lsl	x0, x0, 3
	add	x1, sp, 872
	ldr	x0, [x1, x0]
	str	x0, [sp, 752]
	adrp	x0, _ZZL21ShowDemoWindowWidgetsvE5flags
	add	x0, x0, :lo12:_ZZL21ShowDemoWindowWidgetsvE5flags
	ldr	w0, [x0]
	mov	w2, w0
	ldr	x1, [sp, 752]
	adrp	x0, .LC430
	add	x0, x0, :lo12:.LC430
	bl	_ZN5ImGui10BeginComboEPKcS1_i
	and	w0, w0, 255
	cmp	w0, 0
	beq	.L238
	str	wzr, [sp, 424]
	b	.L239
.L242:
	adrp	x0, _ZZL21ShowDemoWindowWidgetsvE16item_current_idx
	add	x0, x0, :lo12:_ZZL21ShowDemoWindowWidgetsvE16item_current_idx
	ldr	w0, [x0]
	ldr	w1, [sp, 424]
	cmp	w1, w0
	cset	w0, eq
	strb	w0, [sp, 280]
	ldrsw	x0, [sp, 424]
	lsl	x0, x0, 3
	add	x1, sp, 872
	ldr	x19, [x1, x0]
	add	x0, sp, 824
	movi	v1.2s, #0
	movi	v0.2s, #0
	bl	_ZN6ImVec2C1Eff
	add	x0, sp, 824
	mov	x3, x0
	mov	w2, 0
	ldrb	w1, [sp, 280]
	mov	x0, x19
	bl	_ZN5ImGui10SelectableEPKcbiRK6ImVec2
	and	w0, w0, 255
	cmp	w0, 0
	beq	.L240
	adrp	x0, _ZZL21ShowDemoWindowWidgetsvE16item_current_idx
	add	x0, x0, :lo12:_ZZL21ShowDemoWindowWidgetsvE16item_current_idx
	ldr	w1, [sp, 424]
	str	w1, [x0]
.L240:
	ldrb	w0, [sp, 280]
	cmp	w0, 0
	beq	.L241
	bl	_ZN5ImGui19SetItemDefaultFocusEv
.L241:
	ldr	w0, [sp, 424]
	add	w0, w0, 1
	str	w0, [sp, 424]
.L239:
	ldr	w0, [sp, 424]
	cmp	w0, 13
	ble	.L242
	bl	_ZN5ImGui8EndComboEv
.L238:
	mov	w3, -1
	adrp	x0, .LC431
	add	x2, x0, :lo12:.LC431
	adrp	x0, _ZZL21ShowDemoWindowWidgetsvE14item_current_2
	add	x1, x0, :lo12:_ZZL21ShowDemoWindowWidgetsvE14item_current_2
	adrp	x0, .LC432
	add	x0, x0, :lo12:.LC432
	bl	_ZN5ImGui5ComboEPKcPiS1_i
	add	x0, sp, 872
	mov	w4, -1
	mov	w3, 14
	mov	x2, x0
	adrp	x0, _ZZL21ShowDemoWindowWidgetsvE14item_current_3
	add	x1, x0, :lo12:_ZZL21ShowDemoWindowWidgetsvE14item_current_3
	adrp	x0, .LC433
	add	x0, x0, :lo12:.LC433
	bl	_ZN5ImGui5ComboEPKcPiPKS1_ii
	add	x0, sp, 872
	mov	w5, -1
	mov	w4, 14
	mov	x3, x0
	adrp	x0, _ZZL21ShowDemoWindowWidgetsvEN5Funcs10ItemGetterEPviPPKc
	add	x2, x0, :lo12:_ZZL21ShowDemoWindowWidgetsvEN5Funcs10ItemGetterEPviPPKc
	adrp	x0, _ZZL21ShowDemoWindowWidgetsvE14item_current_4
	add	x1, x0, :lo12:_ZZL21ShowDemoWindowWidgetsvE14item_current_4
	adrp	x0, .LC434
	add	x0, x0, :lo12:.LC434
	bl	_ZN5ImGui5ComboEPKcPiPFbPviPS1_ES3_ii
	bl	_ZN5ImGui7TreePopEv
.L235:
	adrp	x0, GImGuiDemoMarkerCallback
	add	x0, x0, :lo12:GImGuiDemoMarkerCallback
	ldr	x0, [x0]
	cmp	x0, 0
	beq	.L243
	adrp	x0, GImGuiDemoMarkerCallback
	add	x0, x0, :lo12:GImGuiDemoMarkerCallback
	ldr	x4, [x0]
	adrp	x0, GImGuiDemoMarkerCallbackUserData
	add	x0, x0, :lo12:GImGuiDemoMarkerCallbackUserData
	ldr	x0, [x0]
	mov	x3, x0
	adrp	x0, .LC435
	add	x2, x0, :lo12:.LC435
	mov	w1, 1136
	adrp	x0, .LC156
	add	x0, x0, :lo12:.LC156
	blr	x4
.L243:
	adrp	x0, .LC436
	add	x0, x0, :lo12:.LC436
	bl	_ZN5ImGui8TreeNodeEPKc
	and	w0, w0, 255
	cmp	w0, 0
	beq	.L244
	adrp	x0, .LC429
	add	x1, x0, :lo12:.LC429
	add	x0, sp, 872
	ldp	q0, q1, [x1]
	stp	q0, q1, [x0]
	ldp	q0, q1, [x1, 32]
	stp	q0, q1, [x0, 32]
	ldp	q0, q1, [x1, 64]
	stp	q0, q1, [x0, 64]
	ldr	q0, [x1, 96]
	str	q0, [x0, 96]
	add	x0, sp, 824
	movi	v1.2s, #0
	movi	v0.2s, #0
	bl	_ZN6ImVec2C1Eff
	add	x0, sp, 824
	mov	x1, x0
	adrp	x0, .LC437
	add	x0, x0, :lo12:.LC437
	bl	_ZN5ImGui12BeginListBoxEPKcRK6ImVec2
	and	w0, w0, 255
	cmp	w0, 0
	beq	.L245
	str	wzr, [sp, 428]
	b	.L246
.L249:
	adrp	x0, _ZZL21ShowDemoWindowWidgetsvE16item_current_idx_0
	add	x0, x0, :lo12:_ZZL21ShowDemoWindowWidgetsvE16item_current_idx_0
	ldr	w0, [x0]
	ldr	w1, [sp, 428]
	cmp	w1, w0
	cset	w0, eq
	strb	w0, [sp, 281]
	ldrsw	x0, [sp, 428]
	lsl	x0, x0, 3
	add	x1, sp, 872
	ldr	x19, [x1, x0]
	add	x0, sp, 824
	movi	v1.2s, #0
	movi	v0.2s, #0
	bl	_ZN6ImVec2C1Eff
	add	x0, sp, 824
	mov	x3, x0
	mov	w2, 0
	ldrb	w1, [sp, 281]
	mov	x0, x19
	bl	_ZN5ImGui10SelectableEPKcbiRK6ImVec2
	and	w0, w0, 255
	cmp	w0, 0
	beq	.L247
	adrp	x0, _ZZL21ShowDemoWindowWidgetsvE16item_current_idx_0
	add	x0, x0, :lo12:_ZZL21ShowDemoWindowWidgetsvE16item_current_idx_0
	ldr	w1, [sp, 428]
	str	w1, [x0]
.L247:
	ldrb	w0, [sp, 281]
	cmp	w0, 0
	beq	.L248
	bl	_ZN5ImGui19SetItemDefaultFocusEv
.L248:
	ldr	w0, [sp, 428]
	add	w0, w0, 1
	str	w0, [sp, 428]
.L246:
	ldr	w0, [sp, 428]
	cmp	w0, 13
	ble	.L249
	bl	_ZN5ImGui10EndListBoxEv
.L245:
	adrp	x0, .LC438
	add	x0, x0, :lo12:.LC438
	bl	_ZN5ImGui4TextEPKcz
	bl	_ZN5ImGui28GetTextLineHeightWithSpacingEv
	fmov	s1, s0
	fmov	s0, 5.0e+0
	fmul	s0, s1, s0
	add	x0, sp, 824
	fmov	s1, s0
	mov	w1, -2139095040
	fmov	s0, w1
	bl	_ZN6ImVec2C1Eff
	add	x0, sp, 824
	mov	x1, x0
	adrp	x0, .LC439
	add	x0, x0, :lo12:.LC439
	bl	_ZN5ImGui12BeginListBoxEPKcRK6ImVec2
	and	w0, w0, 255
	cmp	w0, 0
	beq	.L250
	str	wzr, [sp, 432]
	b	.L251
.L254:
	adrp	x0, _ZZL21ShowDemoWindowWidgetsvE16item_current_idx_0
	add	x0, x0, :lo12:_ZZL21ShowDemoWindowWidgetsvE16item_current_idx_0
	ldr	w0, [x0]
	ldr	w1, [sp, 432]
	cmp	w1, w0
	cset	w0, eq
	strb	w0, [sp, 282]
	ldrsw	x0, [sp, 432]
	lsl	x0, x0, 3
	add	x1, sp, 872
	ldr	x19, [x1, x0]
	add	x0, sp, 824
	movi	v1.2s, #0
	movi	v0.2s, #0
	bl	_ZN6ImVec2C1Eff
	add	x0, sp, 824
	mov	x3, x0
	mov	w2, 0
	ldrb	w1, [sp, 282]
	mov	x0, x19
	bl	_ZN5ImGui10SelectableEPKcbiRK6ImVec2
	and	w0, w0, 255
	cmp	w0, 0
	beq	.L252
	adrp	x0, _ZZL21ShowDemoWindowWidgetsvE16item_current_idx_0
	add	x0, x0, :lo12:_ZZL21ShowDemoWindowWidgetsvE16item_current_idx_0
	ldr	w1, [sp, 432]
	str	w1, [x0]
.L252:
	ldrb	w0, [sp, 282]
	cmp	w0, 0
	beq	.L253
	bl	_ZN5ImGui19SetItemDefaultFocusEv
.L253:
	ldr	w0, [sp, 432]
	add	w0, w0, 1
	str	w0, [sp, 432]
.L251:
	ldr	w0, [sp, 432]
	cmp	w0, 13
	ble	.L254
	bl	_ZN5ImGui10EndListBoxEv
.L250:
	bl	_ZN5ImGui7TreePopEv
.L244:
	adrp	x0, GImGuiDemoMarkerCallback
	add	x0, x0, :lo12:GImGuiDemoMarkerCallback
	ldr	x0, [x0]
	cmp	x0, 0
	beq	.L255
	adrp	x0, GImGuiDemoMarkerCallback
	add	x0, x0, :lo12:GImGuiDemoMarkerCallback
	ldr	x4, [x0]
	adrp	x0, GImGuiDemoMarkerCallbackUserData
	add	x0, x0, :lo12:GImGuiDemoMarkerCallbackUserData
	ldr	x0, [x0]
	mov	x3, x0
	adrp	x0, .LC440
	add	x2, x0, :lo12:.LC440
	mov	w1, 1179
	adrp	x0, .LC156
	add	x0, x0, :lo12:.LC156
	blr	x4
.L255:
	adrp	x0, .LC441
	add	x0, x0, :lo12:.LC441
	bl	_ZN5ImGui8TreeNodeEPKc
	and	w0, w0, 255
	cmp	w0, 0
	beq	.L256
	adrp	x0, GImGuiDemoMarkerCallback
	add	x0, x0, :lo12:GImGuiDemoMarkerCallback
	ldr	x0, [x0]
	cmp	x0, 0
	beq	.L257
	adrp	x0, GImGuiDemoMarkerCallback
	add	x0, x0, :lo12:GImGuiDemoMarkerCallback
	ldr	x4, [x0]
	adrp	x0, GImGuiDemoMarkerCallbackUserData
	add	x0, x0, :lo12:GImGuiDemoMarkerCallbackUserData
	ldr	x0, [x0]
	mov	x3, x0
	adrp	x0, .LC442
	add	x2, x0, :lo12:.LC442
	mov	w1, 1188
	adrp	x0, .LC156
	add	x0, x0, :lo12:.LC156
	blr	x4
.L257:
	adrp	x0, .LC278
	add	x0, x0, :lo12:.LC278
	bl	_ZN5ImGui8TreeNodeEPKc
	and	w0, w0, 255
	cmp	w0, 0
	beq	.L258
	add	x0, sp, 824
	movi	v1.2s, #0
	movi	v0.2s, #0
	bl	_ZN6ImVec2C1Eff
	add	x0, sp, 824
	mov	x3, x0
	mov	w2, 0
	adrp	x0, _ZZL21ShowDemoWindowWidgetsvE9selection
	add	x1, x0, :lo12:_ZZL21ShowDemoWindowWidgetsvE9selection
	adrp	x0, .LC443
	add	x0, x0, :lo12:.LC443
	bl	_ZN5ImGui10SelectableEPKcPbiRK6ImVec2
	add	x0, sp, 824
	movi	v1.2s, #0
	movi	v0.2s, #0
	bl	_ZN6ImVec2C1Eff
	add	x0, sp, 824
	mov	x3, x0
	mov	w2, 0
	adrp	x0, _ZZL21ShowDemoWindowWidgetsvE9selection+1
	add	x1, x0, :lo12:_ZZL21ShowDemoWindowWidgetsvE9selection+1
	adrp	x0, .LC444
	add	x0, x0, :lo12:.LC444
	bl	_ZN5ImGui10SelectableEPKcPbiRK6ImVec2
	adrp	x0, .LC445
	add	x0, x0, :lo12:.LC445
	bl	_ZN5ImGui4TextEPKcz
	add	x0, sp, 824
	movi	v1.2s, #0
	movi	v0.2s, #0
	bl	_ZN6ImVec2C1Eff
	add	x0, sp, 824
	mov	x3, x0
	mov	w2, 0
	adrp	x0, _ZZL21ShowDemoWindowWidgetsvE9selection+3
	add	x1, x0, :lo12:_ZZL21ShowDemoWindowWidgetsvE9selection+3
	adrp	x0, .LC446
	add	x0, x0, :lo12:.LC446
	bl	_ZN5ImGui10SelectableEPKcPbiRK6ImVec2
	adrp	x0, _ZZL21ShowDemoWindowWidgetsvE9selection
	add	x0, x0, :lo12:_ZZL21ShowDemoWindowWidgetsvE9selection
	ldrb	w19, [x0, 4]
	add	x0, sp, 824
	movi	v1.2s, #0
	movi	v0.2s, #0
	bl	_ZN6ImVec2C1Eff
	add	x0, sp, 824
	mov	x3, x0
	mov	w2, 4
	mov	w1, w19
	adrp	x0, .LC447
	add	x0, x0, :lo12:.LC447
	bl	_ZN5ImGui10SelectableEPKcbiRK6ImVec2
	and	w0, w0, 255
	cmp	w0, 0
	beq	.L259
	mov	w0, 0
	bl	_ZN5ImGui20IsMouseDoubleClickedEi
	and	w0, w0, 255
	cmp	w0, 0
	beq	.L259
	adrp	x0, _ZZL21ShowDemoWindowWidgetsvE9selection
	add	x0, x0, :lo12:_ZZL21ShowDemoWindowWidgetsvE9selection
	ldrb	w0, [x0, 4]
	eor	w0, w0, 1
	and	w1, w0, 255
	adrp	x0, _ZZL21ShowDemoWindowWidgetsvE9selection
	add	x0, x0, :lo12:_ZZL21ShowDemoWindowWidgetsvE9selection
	strb	w1, [x0, 4]
.L259:
	bl	_ZN5ImGui7TreePopEv
.L258:
	adrp	x0, GImGuiDemoMarkerCallback
	add	x0, x0, :lo12:GImGuiDemoMarkerCallback
	ldr	x0, [x0]
	cmp	x0, 0
	beq	.L260
	adrp	x0, GImGuiDemoMarkerCallback
	add	x0, x0, :lo12:GImGuiDemoMarkerCallback
	ldr	x4, [x0]
	adrp	x0, GImGuiDemoMarkerCallbackUserData
	add	x0, x0, :lo12:GImGuiDemoMarkerCallbackUserData
	ldr	x0, [x0]
	mov	x3, x0
	adrp	x0, .LC448
	add	x2, x0, :lo12:.LC448
	mov	w1, 1201
	adrp	x0, .LC156
	add	x0, x0, :lo12:.LC156
	blr	x4
.L260:
	adrp	x0, .LC449
	add	x0, x0, :lo12:.LC449
	bl	_ZN5ImGui8TreeNodeEPKc
	and	w0, w0, 255
	cmp	w0, 0
	beq	.L261
	str	wzr, [sp, 436]
	b	.L262
.L264:
	add	x3, sp, 1000
	ldr	w2, [sp, 436]
	adrp	x0, .LC450
	add	x1, x0, :lo12:.LC450
	mov	x0, x3
	bl	sprintf
	adrp	x0, _ZZL21ShowDemoWindowWidgetsvE8selected
	add	x0, x0, :lo12:_ZZL21ShowDemoWindowWidgetsvE8selected
	ldr	w0, [x0]
	ldr	w1, [sp, 436]
	cmp	w1, w0
	cset	w0, eq
	and	w19, w0, 255
	add	x0, sp, 824
	movi	v1.2s, #0
	movi	v0.2s, #0
	bl	_ZN6ImVec2C1Eff
	add	x1, sp, 824
	add	x0, sp, 1000
	mov	x3, x1
	mov	w2, 0
	mov	w1, w19
	bl	_ZN5ImGui10SelectableEPKcbiRK6ImVec2
	and	w0, w0, 255
	cmp	w0, 0
	beq	.L263
	adrp	x0, _ZZL21ShowDemoWindowWidgetsvE8selected
	add	x0, x0, :lo12:_ZZL21ShowDemoWindowWidgetsvE8selected
	ldr	w1, [sp, 436]
	str	w1, [x0]
.L263:
	ldr	w0, [sp, 436]
	add	w0, w0, 1
	str	w0, [sp, 436]
.L262:
	ldr	w0, [sp, 436]
	cmp	w0, 4
	ble	.L264
	bl	_ZN5ImGui7TreePopEv
.L261:
	adrp	x0, GImGuiDemoMarkerCallback
	add	x0, x0, :lo12:GImGuiDemoMarkerCallback
	ldr	x0, [x0]
	cmp	x0, 0
	beq	.L265
	adrp	x0, GImGuiDemoMarkerCallback
	add	x0, x0, :lo12:GImGuiDemoMarkerCallback
	ldr	x4, [x0]
	adrp	x0, GImGuiDemoMarkerCallbackUserData
	add	x0, x0, :lo12:GImGuiDemoMarkerCallbackUserData
	ldr	x0, [x0]
	mov	x3, x0
	adrp	x0, .LC451
	add	x2, x0, :lo12:.LC451
	mov	w1, 1214
	adrp	x0, .LC156
	add	x0, x0, :lo12:.LC156
	blr	x4
.L265:
	adrp	x0, .LC452
	add	x0, x0, :lo12:.LC452
	bl	_ZN5ImGui8TreeNodeEPKc
	and	w0, w0, 255
	cmp	w0, 0
	beq	.L266
	adrp	x0, .LC453
	add	x0, x0, :lo12:.LC453
	bl	_ZL10HelpMarkerPKc
	str	wzr, [sp, 440]
	b	.L267
.L270:
	add	x3, sp, 1000
	ldr	w2, [sp, 440]
	adrp	x0, .LC450
	add	x1, x0, :lo12:.LC450
	mov	x0, x3
	bl	sprintf
	adrp	x0, _ZZL21ShowDemoWindowWidgetsvE9selection_0
	add	x1, x0, :lo12:_ZZL21ShowDemoWindowWidgetsvE9selection_0
	ldrsw	x0, [sp, 440]
	ldrb	w19, [x1, x0]
	add	x0, sp, 824
	movi	v1.2s, #0
	movi	v0.2s, #0
	bl	_ZN6ImVec2C1Eff
	add	x1, sp, 824
	add	x0, sp, 1000
	mov	x3, x1
	mov	w2, 0
	mov	w1, w19
	bl	_ZN5ImGui10SelectableEPKcbiRK6ImVec2
	and	w0, w0, 255
	cmp	w0, 0
	beq	.L268
	bl	_ZN5ImGui5GetIOEv
	ldrb	w0, [x0, 3596]
	eor	w0, w0, 1
	and	w0, w0, 255
	cmp	w0, 0
	beq	.L269
	mov	x2, 5
	mov	w1, 0
	adrp	x0, _ZZL21ShowDemoWindowWidgetsvE9selection_0
	add	x0, x0, :lo12:_ZZL21ShowDemoWindowWidgetsvE9selection_0
	bl	memset
.L269:
	adrp	x0, _ZZL21ShowDemoWindowWidgetsvE9selection_0
	add	x1, x0, :lo12:_ZZL21ShowDemoWindowWidgetsvE9selection_0
	ldrsw	x0, [sp, 440]
	ldrb	w0, [x1, x0]
	eor	w0, w0, 1
	and	w0, w0, 255
	cmp	w0, 0
	cset	w0, ne
	and	w2, w0, 255
	adrp	x0, _ZZL21ShowDemoWindowWidgetsvE9selection_0
	add	x1, x0, :lo12:_ZZL21ShowDemoWindowWidgetsvE9selection_0
	ldrsw	x0, [sp, 440]
	strb	w2, [x1, x0]
.L268:
	ldr	w0, [sp, 440]
	add	w0, w0, 1
	str	w0, [sp, 440]
.L267:
	ldr	w0, [sp, 440]
	cmp	w0, 4
	ble	.L270
	bl	_ZN5ImGui7TreePopEv
.L266:
	adrp	x0, GImGuiDemoMarkerCallback
	add	x0, x0, :lo12:GImGuiDemoMarkerCallback
	ldr	x0, [x0]
	cmp	x0, 0
	beq	.L271
	adrp	x0, GImGuiDemoMarkerCallback
	add	x0, x0, :lo12:GImGuiDemoMarkerCallback
	ldr	x4, [x0]
	adrp	x0, GImGuiDemoMarkerCallbackUserData
	add	x0, x0, :lo12:GImGuiDemoMarkerCallbackUserData
	ldr	x0, [x0]
	mov	x3, x0
	adrp	x0, .LC454
	add	x2, x0, :lo12:.LC454
	mov	w1, 1232
	adrp	x0, .LC156
	add	x0, x0, :lo12:.LC156
	blr	x4
.L271:
	adrp	x0, .LC455
	add	x0, x0, :lo12:.LC455
	bl	_ZN5ImGui8TreeNodeEPKc
	and	w0, w0, 255
	cmp	w0, 0
	beq	.L272
	add	x0, sp, 824
	movi	v1.2s, #0
	movi	v0.2s, #0
	bl	_ZN6ImVec2C1Eff
	add	x0, sp, 824
	mov	x3, x0
	mov	w2, 0
	adrp	x0, _ZZL21ShowDemoWindowWidgetsvE8selected_0
	add	x1, x0, :lo12:_ZZL21ShowDemoWindowWidgetsvE8selected_0
	adrp	x0, .LC456
	add	x0, x0, :lo12:.LC456
	bl	_ZN5ImGui10SelectableEPKcPbiRK6ImVec2
	fmov	s1, -1.0e+0
	mov	w0, 1133903872
	fmov	s0, w0
	bl	_ZN5ImGui8SameLineEff
	adrp	x0, .LC457
	add	x0, x0, :lo12:.LC457
	bl	_ZN5ImGui4TextEPKcz
	add	x0, sp, 824
	movi	v1.2s, #0
	movi	v0.2s, #0
	bl	_ZN6ImVec2C1Eff
	add	x0, sp, 824
	mov	x3, x0
	mov	w2, 0
	adrp	x0, _ZZL21ShowDemoWindowWidgetsvE8selected_0+1
	add	x1, x0, :lo12:_ZZL21ShowDemoWindowWidgetsvE8selected_0+1
	adrp	x0, .LC458
	add	x0, x0, :lo12:.LC458
	bl	_ZN5ImGui10SelectableEPKcPbiRK6ImVec2
	fmov	s1, -1.0e+0
	mov	w0, 1133903872
	fmov	s0, w0
	bl	_ZN5ImGui8SameLineEff
	adrp	x0, .LC459
	add	x0, x0, :lo12:.LC459
	bl	_ZN5ImGui4TextEPKcz
	add	x0, sp, 824
	movi	v1.2s, #0
	movi	v0.2s, #0
	bl	_ZN6ImVec2C1Eff
	add	x0, sp, 824
	mov	x3, x0
	mov	w2, 0
	adrp	x0, _ZZL21ShowDemoWindowWidgetsvE8selected_0+2
	add	x1, x0, :lo12:_ZZL21ShowDemoWindowWidgetsvE8selected_0+2
	adrp	x0, .LC460
	add	x0, x0, :lo12:.LC460
	bl	_ZN5ImGui10SelectableEPKcPbiRK6ImVec2
	fmov	s1, -1.0e+0
	mov	w0, 1133903872
	fmov	s0, w0
	bl	_ZN5ImGui8SameLineEff
	adrp	x0, .LC457
	add	x0, x0, :lo12:.LC457
	bl	_ZN5ImGui4TextEPKcz
	bl	_ZN5ImGui7TreePopEv
.L272:
	adrp	x0, GImGuiDemoMarkerCallback
	add	x0, x0, :lo12:GImGuiDemoMarkerCallback
	ldr	x0, [x0]
	cmp	x0, 0
	beq	.L273
	adrp	x0, GImGuiDemoMarkerCallback
	add	x0, x0, :lo12:GImGuiDemoMarkerCallback
	ldr	x4, [x0]
	adrp	x0, GImGuiDemoMarkerCallbackUserData
	add	x0, x0, :lo12:GImGuiDemoMarkerCallbackUserData
	ldr	x0, [x0]
	mov	x3, x0
	adrp	x0, .LC461
	add	x2, x0, :lo12:.LC461
	mov	w1, 1243
	adrp	x0, .LC156
	add	x0, x0, :lo12:.LC156
	blr	x4
.L273:
	adrp	x0, .LC462
	add	x0, x0, :lo12:.LC462
	bl	_ZN5ImGui8TreeNodeEPKc
	and	w0, w0, 255
	cmp	w0, 0
	beq	.L274
	add	x0, sp, 824
	movi	v1.2s, #0
	movi	v0.2s, #0
	bl	_ZN6ImVec2C1Eff
	add	x0, sp, 824
	movi	v0.2s, #0
	mov	x3, x0
	mov	w2, 1937
	mov	w1, 3
	adrp	x0, .LC463
	add	x0, x0, :lo12:.LC463
	bl	_ZN5ImGui10BeginTableEPKciiRK6ImVec2f
	and	w0, w0, 255
	cmp	w0, 0
	beq	.L275
	str	wzr, [sp, 444]
	b	.L276
.L277:
	add	x3, sp, 1000
	ldr	w2, [sp, 444]
	adrp	x0, .LC464
	add	x1, x0, :lo12:.LC464
	mov	x0, x3
	bl	sprintf
	bl	_ZN5ImGui15TableNextColumnEv
	ldrsw	x1, [sp, 444]
	adrp	x0, _ZZL21ShowDemoWindowWidgetsvE8selected_1
	add	x0, x0, :lo12:_ZZL21ShowDemoWindowWidgetsvE8selected_1
	add	x19, x1, x0
	add	x0, sp, 824
	movi	v1.2s, #0
	movi	v0.2s, #0
	bl	_ZN6ImVec2C1Eff
	add	x1, sp, 824
	add	x0, sp, 1000
	mov	x3, x1
	mov	w2, 0
	mov	x1, x19
	bl	_ZN5ImGui10SelectableEPKcPbiRK6ImVec2
	ldr	w0, [sp, 444]
	add	w0, w0, 1
	str	w0, [sp, 444]
.L276:
	ldr	w0, [sp, 444]
	cmp	w0, 9
	ble	.L277
	bl	_ZN5ImGui8EndTableEv
.L275:
	bl	_ZN5ImGui7SpacingEv
	add	x0, sp, 824
	movi	v1.2s, #0
	movi	v0.2s, #0
	bl	_ZN6ImVec2C1Eff
	add	x0, sp, 824
	movi	v0.2s, #0
	mov	x3, x0
	mov	w2, 1937
	mov	w1, 3
	adrp	x0, .LC465
	add	x0, x0, :lo12:.LC465
	bl	_ZN5ImGui10BeginTableEPKciiRK6ImVec2f
	and	w0, w0, 255
	cmp	w0, 0
	beq	.L278
	str	wzr, [sp, 448]
	b	.L279
.L280:
	add	x3, sp, 1000
	ldr	w2, [sp, 448]
	adrp	x0, .LC464
	add	x1, x0, :lo12:.LC464
	mov	x0, x3
	bl	sprintf
	movi	v0.2s, #0
	mov	w0, 0
	bl	_ZN5ImGui12TableNextRowEif
	bl	_ZN5ImGui15TableNextColumnEv
	ldrsw	x1, [sp, 448]
	adrp	x0, _ZZL21ShowDemoWindowWidgetsvE8selected_1
	add	x0, x0, :lo12:_ZZL21ShowDemoWindowWidgetsvE8selected_1
	add	x19, x1, x0
	add	x0, sp, 824
	movi	v1.2s, #0
	movi	v0.2s, #0
	bl	_ZN6ImVec2C1Eff
	add	x1, sp, 824
	add	x0, sp, 1000
	mov	x3, x1
	mov	w2, 2
	mov	x1, x19
	bl	_ZN5ImGui10SelectableEPKcPbiRK6ImVec2
	bl	_ZN5ImGui15TableNextColumnEv
	adrp	x0, .LC466
	add	x0, x0, :lo12:.LC466
	bl	_ZN5ImGui4TextEPKcz
	bl	_ZN5ImGui15TableNextColumnEv
	adrp	x0, .LC467
	add	x0, x0, :lo12:.LC467
	bl	_ZN5ImGui4TextEPKcz
	ldr	w0, [sp, 448]
	add	w0, w0, 1
	str	w0, [sp, 448]
.L279:
	ldr	w0, [sp, 448]
	cmp	w0, 9
	ble	.L280
	bl	_ZN5ImGui8EndTableEv
.L278:
	bl	_ZN5ImGui7TreePopEv
.L274:
	adrp	x0, GImGuiDemoMarkerCallback
	add	x0, x0, :lo12:GImGuiDemoMarkerCallback
	ldr	x0, [x0]
	cmp	x0, 0
	beq	.L281
	adrp	x0, GImGuiDemoMarkerCallback
	add	x0, x0, :lo12:GImGuiDemoMarkerCallback
	ldr	x4, [x0]
	adrp	x0, GImGuiDemoMarkerCallbackUserData
	add	x0, x0, :lo12:GImGuiDemoMarkerCallbackUserData
	ldr	x0, [x0]
	mov	x3, x0
	adrp	x0, .LC468
	add	x2, x0, :lo12:.LC468
	mov	w1, 1278
	adrp	x0, .LC156
	add	x0, x0, :lo12:.LC156
	blr	x4
.L281:
	adrp	x0, .LC469
	add	x0, x0, :lo12:.LC469
	bl	_ZN5ImGui8TreeNodeEPKc
	and	w0, w0, 255
	cmp	w0, 0
	beq	.L282
	bl	_ZN5ImGui7GetTimeEv
	fcvt	s0, d0
	str	s0, [sp, 548]
	mov	x2, 16
	mov	w1, 0
	adrp	x0, _ZZL21ShowDemoWindowWidgetsvE8selected_2
	add	x0, x0, :lo12:_ZZL21ShowDemoWindowWidgetsvE8selected_2
	bl	memchr
	cmp	x0, 0
	cset	w0, eq
	strb	w0, [sp, 283]
	ldrb	w0, [sp, 283]
	cmp	w0, 0
	beq	.L283
	ldr	s0, [sp, 548]
	fadd	s0, s0, s0
	bl	cosf
	fmov	s1, s0
	fmov	s0, 5.0e-1
	fmul	s1, s1, s0
	fmov	s0, 5.0e-1
	fadd	s8, s1, s0
	ldr	s1, [sp, 548]
	fmov	s0, 3.0e+0
	fmul	s0, s1, s0
	bl	sinf
	fmov	s1, s0
	fmov	s0, 5.0e-1
	fmul	s1, s1, s0
	fmov	s0, 5.0e-1
	fadd	s0, s1, s0
	add	x0, sp, 824
	fmov	s1, s0
	fmov	s0, s8
	bl	_ZN6ImVec2C1Eff
	add	x0, sp, 824
	mov	x1, x0
	mov	w0, 24
	bl	_ZN5ImGui12PushStyleVarEiRK6ImVec2
.L283:
	str	wzr, [sp, 452]
	b	.L284
.L292:
	str	wzr, [sp, 456]
	b	.L285
.L291:
	ldr	w0, [sp, 456]
	cmp	w0, 0
	ble	.L286
	fmov	s1, -1.0e+0
	movi	v0.2s, #0
	bl	_ZN5ImGui8SameLineEff
.L286:
	ldr	w0, [sp, 452]
	lsl	w1, w0, 2
	ldr	w0, [sp, 456]
	add	w0, w1, w0
	bl	_ZN5ImGui6PushIDEi
	adrp	x0, _ZZL21ShowDemoWindowWidgetsvE8selected_2
	add	x2, x0, :lo12:_ZZL21ShowDemoWindowWidgetsvE8selected_2
	ldrsw	x0, [sp, 456]
	ldrsw	x1, [sp, 452]
	lsl	x1, x1, 2
	add	x1, x2, x1
	add	x0, x1, x0
	ldrb	w0, [x0]
	cmp	w0, 0
	cset	w0, ne
	and	w19, w0, 255
	add	x0, sp, 824
	mov	w1, 1112014848
	fmov	s1, w1
	mov	w1, 1112014848
	fmov	s0, w1
	bl	_ZN6ImVec2C1Eff
	add	x0, sp, 824
	mov	x3, x0
	mov	w2, 0
	mov	w1, w19
	adrp	x0, .LC470
	add	x0, x0, :lo12:.LC470
	bl	_ZN5ImGui10SelectableEPKcbiRK6ImVec2
	and	w0, w0, 255
	cmp	w0, 0
	beq	.L287
	adrp	x0, _ZZL21ShowDemoWindowWidgetsvE8selected_2
	add	x2, x0, :lo12:_ZZL21ShowDemoWindowWidgetsvE8selected_2
	ldrsw	x0, [sp, 456]
	ldrsw	x1, [sp, 452]
	lsl	x1, x1, 2
	add	x1, x2, x1
	add	x0, x1, x0
	ldrb	w0, [x0]
	eor	w0, w0, 1
	and	w3, w0, 255
	adrp	x0, _ZZL21ShowDemoWindowWidgetsvE8selected_2
	add	x2, x0, :lo12:_ZZL21ShowDemoWindowWidgetsvE8selected_2
	ldrsw	x0, [sp, 456]
	ldrsw	x1, [sp, 452]
	lsl	x1, x1, 2
	add	x1, x2, x1
	add	x0, x1, x0
	mov	w1, w3
	strb	w1, [x0]
	ldr	w0, [sp, 456]
	cmp	w0, 0
	ble	.L288
	ldr	w0, [sp, 456]
	sub	w1, w0, #1
	adrp	x0, _ZZL21ShowDemoWindowWidgetsvE8selected_2
	add	x2, x0, :lo12:_ZZL21ShowDemoWindowWidgetsvE8selected_2
	sxtw	x0, w1
	ldrsw	x1, [sp, 452]
	lsl	x1, x1, 2
	add	x1, x2, x1
	add	x0, x1, x0
	ldrb	w0, [x0]
	ldr	w1, [sp, 456]
	sub	w1, w1, #1
	eor	w0, w0, 1
	and	w3, w0, 255
	adrp	x0, _ZZL21ShowDemoWindowWidgetsvE8selected_2
	add	x2, x0, :lo12:_ZZL21ShowDemoWindowWidgetsvE8selected_2
	sxtw	x0, w1
	ldrsw	x1, [sp, 452]
	lsl	x1, x1, 2
	add	x1, x2, x1
	add	x0, x1, x0
	mov	w1, w3
	strb	w1, [x0]
.L288:
	ldr	w0, [sp, 456]
	cmp	w0, 2
	bgt	.L289
	ldr	w0, [sp, 456]
	add	w1, w0, 1
	adrp	x0, _ZZL21ShowDemoWindowWidgetsvE8selected_2
	add	x2, x0, :lo12:_ZZL21ShowDemoWindowWidgetsvE8selected_2
	sxtw	x0, w1
	ldrsw	x1, [sp, 452]
	lsl	x1, x1, 2
	add	x1, x2, x1
	add	x0, x1, x0
	ldrb	w0, [x0]
	ldr	w1, [sp, 456]
	add	w1, w1, 1
	eor	w0, w0, 1
	and	w3, w0, 255
	adrp	x0, _ZZL21ShowDemoWindowWidgetsvE8selected_2
	add	x2, x0, :lo12:_ZZL21ShowDemoWindowWidgetsvE8selected_2
	sxtw	x0, w1
	ldrsw	x1, [sp, 452]
	lsl	x1, x1, 2
	add	x1, x2, x1
	add	x0, x1, x0
	mov	w1, w3
	strb	w1, [x0]
.L289:
	ldr	w0, [sp, 452]
	cmp	w0, 0
	ble	.L290
	ldr	w0, [sp, 452]
	sub	w1, w0, #1
	adrp	x0, _ZZL21ShowDemoWindowWidgetsvE8selected_2
	add	x2, x0, :lo12:_ZZL21ShowDemoWindowWidgetsvE8selected_2
	ldrsw	x0, [sp, 456]
	sxtw	x1, w1
	lsl	x1, x1, 2
	add	x1, x2, x1
	add	x0, x1, x0
	ldrb	w0, [x0]
	ldr	w1, [sp, 452]
	sub	w1, w1, #1
	eor	w0, w0, 1
	and	w3, w0, 255
	adrp	x0, _ZZL21ShowDemoWindowWidgetsvE8selected_2
	add	x2, x0, :lo12:_ZZL21ShowDemoWindowWidgetsvE8selected_2
	ldrsw	x0, [sp, 456]
	sxtw	x1, w1
	lsl	x1, x1, 2
	add	x1, x2, x1
	add	x0, x1, x0
	mov	w1, w3
	strb	w1, [x0]
.L290:
	ldr	w0, [sp, 452]
	cmp	w0, 2
	bgt	.L287
	ldr	w0, [sp, 452]
	add	w1, w0, 1
	adrp	x0, _ZZL21ShowDemoWindowWidgetsvE8selected_2
	add	x2, x0, :lo12:_ZZL21ShowDemoWindowWidgetsvE8selected_2
	ldrsw	x0, [sp, 456]
	sxtw	x1, w1
	lsl	x1, x1, 2
	add	x1, x2, x1
	add	x0, x1, x0
	ldrb	w0, [x0]
	ldr	w1, [sp, 452]
	add	w1, w1, 1
	eor	w0, w0, 1
	and	w3, w0, 255
	adrp	x0, _ZZL21ShowDemoWindowWidgetsvE8selected_2
	add	x2, x0, :lo12:_ZZL21ShowDemoWindowWidgetsvE8selected_2
	ldrsw	x0, [sp, 456]
	sxtw	x1, w1
	lsl	x1, x1, 2
	add	x1, x2, x1
	add	x0, x1, x0
	mov	w1, w3
	strb	w1, [x0]
.L287:
	bl	_ZN5ImGui5PopIDEv
	ldr	w0, [sp, 456]
	add	w0, w0, 1
	str	w0, [sp, 456]
.L285:
	ldr	w0, [sp, 456]
	cmp	w0, 3
	ble	.L291
	ldr	w0, [sp, 452]
	add	w0, w0, 1
	str	w0, [sp, 452]
.L284:
	ldr	w0, [sp, 452]
	cmp	w0, 3
	ble	.L292
	ldrb	w0, [sp, 283]
	cmp	w0, 0
	beq	.L293
	mov	w0, 1
	bl	_ZN5ImGui11PopStyleVarEi
.L293:
	bl	_ZN5ImGui7TreePopEv
.L282:
	adrp	x0, GImGuiDemoMarkerCallback
	add	x0, x0, :lo12:GImGuiDemoMarkerCallback
	ldr	x0, [x0]
	cmp	x0, 0
	beq	.L294
	adrp	x0, GImGuiDemoMarkerCallback
	add	x0, x0, :lo12:GImGuiDemoMarkerCallback
	ldr	x4, [x0]
	adrp	x0, GImGuiDemoMarkerCallbackUserData
	add	x0, x0, :lo12:GImGuiDemoMarkerCallbackUserData
	ldr	x0, [x0]
	mov	x3, x0
	adrp	x0, .LC471
	add	x2, x0, :lo12:.LC471
	mov	w1, 1311
	adrp	x0, .LC156
	add	x0, x0, :lo12:.LC156
	blr	x4
.L294:
	adrp	x0, .LC472
	add	x0, x0, :lo12:.LC472
	bl	_ZN5ImGui8TreeNodeEPKc
	and	w0, w0, 255
	cmp	w0, 0
	beq	.L295
	adrp	x0, .LC473
	add	x0, x0, :lo12:.LC473
	bl	_ZL10HelpMarkerPKc
	str	wzr, [sp, 460]
	b	.L296
.L300:
	str	wzr, [sp, 464]
	b	.L297
.L299:
	ldr	s0, [sp, 464]
	scvtf	s1, s0
	fmov	s0, 2.0e+0
	fdiv	s2, s1, s0
	ldr	s0, [sp, 460]
	scvtf	s1, s0
	fmov	s0, 2.0e+0
	fdiv	s0, s1, s0
	add	x0, sp, 808
	fmov	s1, s0
	fmov	s0, s2
	bl	_ZN6ImVec2C1Eff
	ldr	s0, [sp, 808]
	fcvt	d2, s0
	ldr	s0, [sp, 812]
	fcvt	d0, s0
	add	x2, sp, 1000
	fmov	d1, d0
	fmov	d0, d2
	adrp	x0, .LC474
	add	x1, x0, :lo12:.LC474
	mov	x0, x2
	bl	sprintf
	ldr	w0, [sp, 464]
	cmp	w0, 0
	ble	.L298
	fmov	s1, -1.0e+0
	movi	v0.2s, #0
	bl	_ZN5ImGui8SameLineEff
.L298:
	add	x0, sp, 808
	mov	x1, x0
	mov	w0, 24
	bl	_ZN5ImGui12PushStyleVarEiRK6ImVec2
	ldr	w1, [sp, 460]
	mov	w0, w1
	lsl	w0, w0, 1
	add	w1, w0, w1
	ldr	w0, [sp, 464]
	add	w0, w1, w0
	sxtw	x1, w0
	adrp	x0, _ZZL21ShowDemoWindowWidgetsvE8selected_3
	add	x0, x0, :lo12:_ZZL21ShowDemoWindowWidgetsvE8selected_3
	add	x19, x1, x0
	add	x0, sp, 824
	mov	w1, 1117782016
	fmov	s1, w1
	mov	w1, 1117782016
	fmov	s0, w1
	bl	_ZN6ImVec2C1Eff
	add	x1, sp, 824
	add	x0, sp, 1000
	mov	x3, x1
	mov	w2, 0
	mov	x1, x19
	bl	_ZN5ImGui10SelectableEPKcPbiRK6ImVec2
	mov	w0, 1
	bl	_ZN5ImGui11PopStyleVarEi
	ldr	w0, [sp, 464]
	add	w0, w0, 1
	str	w0, [sp, 464]
.L297:
	ldr	w0, [sp, 464]
	cmp	w0, 2
	ble	.L299
	ldr	w0, [sp, 460]
	add	w0, w0, 1
	str	w0, [sp, 460]
.L296:
	ldr	w0, [sp, 460]
	cmp	w0, 2
	ble	.L300
	bl	_ZN5ImGui7TreePopEv
.L295:
	bl	_ZN5ImGui7TreePopEv
.L256:
	adrp	x0, GImGuiDemoMarkerCallback
	add	x0, x0, :lo12:GImGuiDemoMarkerCallback
	ldr	x0, [x0]
	cmp	x0, 0
	beq	.L301
	adrp	x0, GImGuiDemoMarkerCallback
	add	x0, x0, :lo12:GImGuiDemoMarkerCallback
	ldr	x4, [x0]
	adrp	x0, GImGuiDemoMarkerCallbackUserData
	add	x0, x0, :lo12:GImGuiDemoMarkerCallbackUserData
	ldr	x0, [x0]
	mov	x3, x0
	adrp	x0, .LC475
	add	x2, x0, :lo12:.LC475
	mov	w1, 1339
	adrp	x0, .LC156
	add	x0, x0, :lo12:.LC156
	blr	x4
.L301:
	adrp	x0, .LC476
	add	x0, x0, :lo12:.LC476
	bl	_ZN5ImGui8TreeNodeEPKc
	and	w0, w0, 255
	cmp	w0, 0
	beq	.L302
	adrp	x0, GImGuiDemoMarkerCallback
	add	x0, x0, :lo12:GImGuiDemoMarkerCallback
	ldr	x0, [x0]
	cmp	x0, 0
	beq	.L303
	adrp	x0, GImGuiDemoMarkerCallback
	add	x0, x0, :lo12:GImGuiDemoMarkerCallback
	ldr	x4, [x0]
	adrp	x0, GImGuiDemoMarkerCallbackUserData
	add	x0, x0, :lo12:GImGuiDemoMarkerCallbackUserData
	ldr	x0, [x0]
	mov	x3, x0
	adrp	x0, .LC477
	add	x2, x0, :lo12:.LC477
	mov	w1, 1342
	adrp	x0, .LC156
	add	x0, x0, :lo12:.LC156
	blr	x4
.L303:
	adrp	x0, .LC478
	add	x0, x0, :lo12:.LC478
	bl	_ZN5ImGui8TreeNodeEPKc
	and	w0, w0, 255
	cmp	w0, 0
	beq	.L304
	adrp	x0, .LC479
	add	x0, x0, :lo12:.LC479
	bl	_ZL10HelpMarkerPKc
	mov	w2, 16384
	adrp	x0, _ZZL21ShowDemoWindowWidgetsvE5flags_0
	add	x1, x0, :lo12:_ZZL21ShowDemoWindowWidgetsvE5flags_0
	adrp	x0, .LC480
	add	x0, x0, :lo12:.LC480
	bl	_ZN5ImGui13CheckboxFlagsEPKcPii
	mov	w2, 1024
	adrp	x0, _ZZL21ShowDemoWindowWidgetsvE5flags_0
	add	x1, x0, :lo12:_ZZL21ShowDemoWindowWidgetsvE5flags_0
	adrp	x0, .LC481
	add	x0, x0, :lo12:.LC481
	bl	_ZN5ImGui13CheckboxFlagsEPKcPii
	mov	w2, 2048
	adrp	x0, _ZZL21ShowDemoWindowWidgetsvE5flags_0
	add	x1, x0, :lo12:_ZZL21ShowDemoWindowWidgetsvE5flags_0
	adrp	x0, .LC482
	add	x0, x0, :lo12:.LC482
	bl	_ZN5ImGui13CheckboxFlagsEPKcPii
	bl	_ZN5ImGui17GetTextLineHeightEv
	fmov	s1, s0
	fmov	s0, 1.6e+1
	fmul	s0, s1, s0
	add	x0, sp, 824
	fmov	s1, s0
	mov	w1, -2139095040
	fmov	s0, w1
	bl	_ZN6ImVec2C1Eff
	adrp	x0, _ZZL21ShowDemoWindowWidgetsvE5flags_0
	add	x0, x0, :lo12:_ZZL21ShowDemoWindowWidgetsvE5flags_0
	ldr	w1, [x0]
	add	x0, sp, 824
	mov	x6, 0
	mov	x5, 0
	mov	w4, w1
	mov	x3, x0
	mov	x2, 16384
	adrp	x0, _ZZL21ShowDemoWindowWidgetsvE4text
	add	x1, x0, :lo12:_ZZL21ShowDemoWindowWidgetsvE4text
	adrp	x0, .LC483
	add	x0, x0, :lo12:.LC483
	bl	_ZN5ImGui18InputTextMultilineEPKcPcmRK6ImVec2iPFiP26ImGuiInputTextCallbackDataEPv
	bl	_ZN5ImGui7TreePopEv
.L304:
	adrp	x0, GImGuiDemoMarkerCallback
	add	x0, x0, :lo12:GImGuiDemoMarkerCallback
	ldr	x0, [x0]
	cmp	x0, 0
	beq	.L305
	adrp	x0, GImGuiDemoMarkerCallback
	add	x0, x0, :lo12:GImGuiDemoMarkerCallback
	ldr	x4, [x0]
	adrp	x0, GImGuiDemoMarkerCallbackUserData
	add	x0, x0, :lo12:GImGuiDemoMarkerCallbackUserData
	ldr	x0, [x0]
	mov	x3, x0
	adrp	x0, .LC484
	add	x2, x0, :lo12:.LC484
	mov	w1, 1368
	adrp	x0, .LC156
	add	x0, x0, :lo12:.LC156
	blr	x4
.L305:
	adrp	x0, .LC485
	add	x0, x0, :lo12:.LC485
	bl	_ZN5ImGui8TreeNodeEPKc
	and	w0, w0, 255
	cmp	w0, 0
	beq	.L306
	mov	x5, 0
	mov	x4, 0
	mov	w3, 0
	mov	x2, 64
	adrp	x0, _ZZL21ShowDemoWindowWidgetsvE4buf1
	add	x1, x0, :lo12:_ZZL21ShowDemoWindowWidgetsvE4buf1
	adrp	x0, .LC486
	add	x0, x0, :lo12:.LC486
	bl	_ZN5ImGui9InputTextEPKcPcmiPFiP26ImGuiInputTextCallbackDataEPv
	mov	x5, 0
	mov	x4, 0
	mov	w3, 1
	mov	x2, 64
	adrp	x0, _ZZL21ShowDemoWindowWidgetsvE4buf2
	add	x1, x0, :lo12:_ZZL21ShowDemoWindowWidgetsvE4buf2
	adrp	x0, .LC487
	add	x0, x0, :lo12:.LC487
	bl	_ZN5ImGui9InputTextEPKcPcmiPFiP26ImGuiInputTextCallbackDataEPv
	mov	x5, 0
	mov	x4, 0
	mov	w3, 6
	mov	x2, 64
	adrp	x0, _ZZL21ShowDemoWindowWidgetsvE4buf3
	add	x1, x0, :lo12:_ZZL21ShowDemoWindowWidgetsvE4buf3
	adrp	x0, .LC488
	add	x0, x0, :lo12:.LC488
	bl	_ZN5ImGui9InputTextEPKcPcmiPFiP26ImGuiInputTextCallbackDataEPv
	mov	x5, 0
	mov	x4, 0
	mov	w3, 4
	mov	x2, 64
	adrp	x0, _ZZL21ShowDemoWindowWidgetsvE4buf4
	add	x1, x0, :lo12:_ZZL21ShowDemoWindowWidgetsvE4buf4
	adrp	x0, .LC489
	add	x0, x0, :lo12:.LC489
	bl	_ZN5ImGui9InputTextEPKcPcmiPFiP26ImGuiInputTextCallbackDataEPv
	mov	x5, 0
	mov	x4, 0
	mov	w3, 8
	mov	x2, 64
	adrp	x0, _ZZL21ShowDemoWindowWidgetsvE4buf5
	add	x1, x0, :lo12:_ZZL21ShowDemoWindowWidgetsvE4buf5
	adrp	x0, .LC490
	add	x0, x0, :lo12:.LC490
	bl	_ZN5ImGui9InputTextEPKcPcmiPFiP26ImGuiInputTextCallbackDataEPv
	mov	x5, 0
	adrp	x0, _ZZL21ShowDemoWindowWidgetsvEN11TextFilters18FilterImGuiLettersEP26ImGuiInputTextCallbackData
	add	x4, x0, :lo12:_ZZL21ShowDemoWindowWidgetsvEN11TextFilters18FilterImGuiLettersEP26ImGuiInputTextCallbackData
	mov	w3, 512
	mov	x2, 64
	adrp	x0, _ZZL21ShowDemoWindowWidgetsvE4buf6
	add	x1, x0, :lo12:_ZZL21ShowDemoWindowWidgetsvE4buf6
	adrp	x0, .LC491
	add	x0, x0, :lo12:.LC491
	bl	_ZN5ImGui9InputTextEPKcPcmiPFiP26ImGuiInputTextCallbackDataEPv
	bl	_ZN5ImGui7TreePopEv
.L306:
	adrp	x0, GImGuiDemoMarkerCallback
	add	x0, x0, :lo12:GImGuiDemoMarkerCallback
	ldr	x0, [x0]
	cmp	x0, 0
	beq	.L307
	adrp	x0, GImGuiDemoMarkerCallback
	add	x0, x0, :lo12:GImGuiDemoMarkerCallback
	ldr	x4, [x0]
	adrp	x0, GImGuiDemoMarkerCallbackUserData
	add	x0, x0, :lo12:GImGuiDemoMarkerCallbackUserData
	ldr	x0, [x0]
	mov	x3, x0
	adrp	x0, .LC492
	add	x2, x0, :lo12:.LC492
	mov	w1, 1391
	adrp	x0, .LC156
	add	x0, x0, :lo12:.LC156
	blr	x4
.L307:
	adrp	x0, .LC493
	add	x0, x0, :lo12:.LC493
	bl	_ZN5ImGui8TreeNodeEPKc
	and	w0, w0, 255
	cmp	w0, 0
	beq	.L308
	mov	x5, 0
	mov	x4, 0
	mov	w3, 32768
	mov	x2, 64
	adrp	x0, _ZZL21ShowDemoWindowWidgetsvE8password
	add	x1, x0, :lo12:_ZZL21ShowDemoWindowWidgetsvE8password
	adrp	x0, .LC494
	add	x0, x0, :lo12:.LC494
	bl	_ZN5ImGui9InputTextEPKcPcmiPFiP26ImGuiInputTextCallbackDataEPv
	fmov	s1, -1.0e+0
	movi	v0.2s, #0
	bl	_ZN5ImGui8SameLineEff
	adrp	x0, .LC495
	add	x0, x0, :lo12:.LC495
	bl	_ZL10HelpMarkerPKc
	mov	x6, 0
	mov	x5, 0
	mov	w4, 32768
	mov	x3, 64
	adrp	x0, _ZZL21ShowDemoWindowWidgetsvE8password
	add	x2, x0, :lo12:_ZZL21ShowDemoWindowWidgetsvE8password
	adrp	x0, .LC496
	add	x1, x0, :lo12:.LC496
	adrp	x0, .LC497
	add	x0, x0, :lo12:.LC497
	bl	_ZN5ImGui17InputTextWithHintEPKcS1_PcmiPFiP26ImGuiInputTextCallbackDataEPv
	mov	x5, 0
	mov	x4, 0
	mov	w3, 0
	mov	x2, 64
	adrp	x0, _ZZL21ShowDemoWindowWidgetsvE8password
	add	x1, x0, :lo12:_ZZL21ShowDemoWindowWidgetsvE8password
	adrp	x0, .LC498
	add	x0, x0, :lo12:.LC498
	bl	_ZN5ImGui9InputTextEPKcPcmiPFiP26ImGuiInputTextCallbackDataEPv
	bl	_ZN5ImGui7TreePopEv
.L308:
	adrp	x0, .LC499
	add	x0, x0, :lo12:.LC499
	bl	_ZN5ImGui8TreeNodeEPKc
	and	w0, w0, 255
	cmp	w0, 0
	beq	.L309
	mov	x5, 0
	adrp	x0, _ZZL21ShowDemoWindowWidgetsvEN5Funcs10MyCallbackE_0P26ImGuiInputTextCallbackData
	add	x4, x0, :lo12:_ZZL21ShowDemoWindowWidgetsvEN5Funcs10MyCallbackE_0P26ImGuiInputTextCallbackData
	mov	w3, 64
	mov	x2, 64
	adrp	x0, _ZZL21ShowDemoWindowWidgetsvE4buf1_0
	add	x1, x0, :lo12:_ZZL21ShowDemoWindowWidgetsvE4buf1_0
	adrp	x0, .LC500
	add	x0, x0, :lo12:.LC500
	bl	_ZN5ImGui9InputTextEPKcPcmiPFiP26ImGuiInputTextCallbackDataEPv
	fmov	s1, -1.0e+0
	movi	v0.2s, #0
	bl	_ZN5ImGui8SameLineEff
	adrp	x0, .LC501
	add	x0, x0, :lo12:.LC501
	bl	_ZL10HelpMarkerPKc
	mov	x5, 0
	adrp	x0, _ZZL21ShowDemoWindowWidgetsvEN5Funcs10MyCallbackE_0P26ImGuiInputTextCallbackData
	add	x4, x0, :lo12:_ZZL21ShowDemoWindowWidgetsvEN5Funcs10MyCallbackE_0P26ImGuiInputTextCallbackData
	mov	w3, 128
	mov	x2, 64
	adrp	x0, _ZZL21ShowDemoWindowWidgetsvE4buf2_0
	add	x1, x0, :lo12:_ZZL21ShowDemoWindowWidgetsvE4buf2_0
	adrp	x0, .LC502
	add	x0, x0, :lo12:.LC502
	bl	_ZN5ImGui9InputTextEPKcPcmiPFiP26ImGuiInputTextCallbackDataEPv
	fmov	s1, -1.0e+0
	movi	v0.2s, #0
	bl	_ZN5ImGui8SameLineEff
	adrp	x0, .LC503
	add	x0, x0, :lo12:.LC503
	bl	_ZL10HelpMarkerPKc
	adrp	x0, _ZZL21ShowDemoWindowWidgetsvE10edit_count
	add	x5, x0, :lo12:_ZZL21ShowDemoWindowWidgetsvE10edit_count
	adrp	x0, _ZZL21ShowDemoWindowWidgetsvEN5Funcs10MyCallbackE_0P26ImGuiInputTextCallbackData
	add	x4, x0, :lo12:_ZZL21ShowDemoWindowWidgetsvEN5Funcs10MyCallbackE_0P26ImGuiInputTextCallbackData
	mov	w3, 524288
	mov	x2, 64
	adrp	x0, _ZZL21ShowDemoWindowWidgetsvE4buf3_0
	add	x1, x0, :lo12:_ZZL21ShowDemoWindowWidgetsvE4buf3_0
	adrp	x0, .LC504
	add	x0, x0, :lo12:.LC504
	bl	_ZN5ImGui9InputTextEPKcPcmiPFiP26ImGuiInputTextCallbackDataEPv
	fmov	s1, -1.0e+0
	movi	v0.2s, #0
	bl	_ZN5ImGui8SameLineEff
	adrp	x0, .LC505
	add	x0, x0, :lo12:.LC505
	bl	_ZL10HelpMarkerPKc
	fmov	s1, -1.0e+0
	movi	v0.2s, #0
	bl	_ZN5ImGui8SameLineEff
	adrp	x0, _ZZL21ShowDemoWindowWidgetsvE10edit_count
	add	x0, x0, :lo12:_ZZL21ShowDemoWindowWidgetsvE10edit_count
	ldr	w0, [x0]
	mov	w1, w0
	adrp	x0, .LC506
	add	x0, x0, :lo12:.LC506
	bl	_ZN5ImGui4TextEPKcz
	bl	_ZN5ImGui7TreePopEv
.L309:
	adrp	x0, GImGuiDemoMarkerCallback
	add	x0, x0, :lo12:GImGuiDemoMarkerCallback
	ldr	x0, [x0]
	cmp	x0, 0
	beq	.L310
	adrp	x0, GImGuiDemoMarkerCallback
	add	x0, x0, :lo12:GImGuiDemoMarkerCallback
	ldr	x4, [x0]
	adrp	x0, GImGuiDemoMarkerCallbackUserData
	add	x0, x0, :lo12:GImGuiDemoMarkerCallbackUserData
	ldr	x0, [x0]
	mov	x3, x0
	adrp	x0, .LC507
	add	x2, x0, :lo12:.LC507
	mov	w1, 1458
	adrp	x0, .LC156
	add	x0, x0, :lo12:.LC156
	blr	x4
.L310:
	adrp	x0, .LC508
	add	x0, x0, :lo12:.LC508
	bl	_ZN5ImGui8TreeNodeEPKc
	and	w0, w0, 255
	cmp	w0, 0
	beq	.L311
	adrp	x0, .LC509
	add	x0, x0, :lo12:.LC509
	bl	_ZL10HelpMarkerPKc
	adrp	x0, _ZGVZL21ShowDemoWindowWidgetsvE6my_str
	add	x0, x0, :lo12:_ZGVZL21ShowDemoWindowWidgetsvE6my_str
	ldar	x0, [x0]
	and	x0, x0, 1
	cmp	x0, 0
	cset	w0, eq
	and	w0, w0, 255
	cmp	w0, 0
	beq	.L312
	adrp	x0, _ZGVZL21ShowDemoWindowWidgetsvE6my_str
	add	x0, x0, :lo12:_ZGVZL21ShowDemoWindowWidgetsvE6my_str
	bl	__cxa_guard_acquire
	cmp	w0, 0
	cset	w0, ne
	and	w0, w0, 255
	cmp	w0, 0
	beq	.L312
	adrp	x0, _ZZL21ShowDemoWindowWidgetsvE6my_str
	add	x0, x0, :lo12:_ZZL21ShowDemoWindowWidgetsvE6my_str
	bl	_ZN8ImVectorIcEC1Ev
	adrp	x0, __dso_handle
	add	x2, x0, :lo12:__dso_handle
	adrp	x0, _ZZL21ShowDemoWindowWidgetsvE6my_str
	add	x1, x0, :lo12:_ZZL21ShowDemoWindowWidgetsvE6my_str
	adrp	x0, _ZN8ImVectorIcED1Ev
	add	x0, x0, :lo12:_ZN8ImVectorIcED1Ev
	bl	__cxa_atexit
	adrp	x0, _ZGVZL21ShowDemoWindowWidgetsvE6my_str
	add	x0, x0, :lo12:_ZGVZL21ShowDemoWindowWidgetsvE6my_str
	bl	__cxa_guard_release
.L312:
	adrp	x0, _ZZL21ShowDemoWindowWidgetsvE6my_str
	add	x0, x0, :lo12:_ZZL21ShowDemoWindowWidgetsvE6my_str
	bl	_ZNK8ImVectorIcE5emptyEv
	and	w0, w0, 255
	cmp	w0, 0
	beq	.L313
	strb	wzr, [sp, 824]
	add	x0, sp, 824
	mov	x1, x0
	adrp	x0, _ZZL21ShowDemoWindowWidgetsvE6my_str
	add	x0, x0, :lo12:_ZZL21ShowDemoWindowWidgetsvE6my_str
	bl	_ZN8ImVectorIcE9push_backERKc
.L313:
	bl	_ZN5ImGui17GetTextLineHeightEv
	fmov	s1, s0
	fmov	s0, 1.6e+1
	fmul	s0, s1, s0
	add	x0, sp, 824
	fmov	s1, s0
	mov	w1, -2139095040
	fmov	s0, w1
	bl	_ZN6ImVec2C1Eff
	add	x0, sp, 824
	mov	w3, 0
	mov	x2, x0
	adrp	x0, _ZZL21ShowDemoWindowWidgetsvE6my_str
	add	x1, x0, :lo12:_ZZL21ShowDemoWindowWidgetsvE6my_str
	adrp	x0, .LC510
	add	x0, x0, :lo12:.LC510
	bl	_ZZL21ShowDemoWindowWidgetsvEN5Funcs20MyInputTextMultilineE_1PKcP8ImVectorIcERK6ImVec2i
	adrp	x0, _ZZL21ShowDemoWindowWidgetsvE6my_str
	add	x0, x0, :lo12:_ZZL21ShowDemoWindowWidgetsvE6my_str
	bl	_ZN8ImVectorIcE5beginEv
	mov	x19, x0
	adrp	x0, _ZZL21ShowDemoWindowWidgetsvE6my_str
	add	x0, x0, :lo12:_ZZL21ShowDemoWindowWidgetsvE6my_str
	bl	_ZNK8ImVectorIcE4sizeEv
	mov	w20, w0
	adrp	x0, _ZZL21ShowDemoWindowWidgetsvE6my_str
	add	x0, x0, :lo12:_ZZL21ShowDemoWindowWidgetsvE6my_str
	bl	_ZNK8ImVectorIcE8capacityEv
	mov	w3, w0
	mov	w2, w20
	mov	x1, x19
	adrp	x0, .LC511
	add	x0, x0, :lo12:.LC511
	bl	_ZN5ImGui4TextEPKcz
	bl	_ZN5ImGui7TreePopEv
.L311:
	bl	_ZN5ImGui7TreePopEv
.L302:
	adrp	x0, GImGuiDemoMarkerCallback
	add	x0, x0, :lo12:GImGuiDemoMarkerCallback
	ldr	x0, [x0]
	cmp	x0, 0
	beq	.L314
	adrp	x0, GImGuiDemoMarkerCallback
	add	x0, x0, :lo12:GImGuiDemoMarkerCallback
	ldr	x4, [x0]
	adrp	x0, GImGuiDemoMarkerCallbackUserData
	add	x0, x0, :lo12:GImGuiDemoMarkerCallbackUserData
	ldr	x0, [x0]
	mov	x3, x0
	adrp	x0, .LC512
	add	x2, x0, :lo12:.LC512
	mov	w1, 1505
	adrp	x0, .LC156
	add	x0, x0, :lo12:.LC156
	blr	x4
.L314:
	adrp	x0, .LC513
	add	x0, x0, :lo12:.LC513
	bl	_ZN5ImGui8TreeNodeEPKc
	and	w0, w0, 255
	cmp	w0, 0
	beq	.L315
	adrp	x0, GImGuiDemoMarkerCallback
	add	x0, x0, :lo12:GImGuiDemoMarkerCallback
	ldr	x0, [x0]
	cmp	x0, 0
	beq	.L316
	adrp	x0, GImGuiDemoMarkerCallback
	add	x0, x0, :lo12:GImGuiDemoMarkerCallback
	ldr	x4, [x0]
	adrp	x0, GImGuiDemoMarkerCallbackUserData
	add	x0, x0, :lo12:GImGuiDemoMarkerCallbackUserData
	ldr	x0, [x0]
	mov	x3, x0
	adrp	x0, .LC514
	add	x2, x0, :lo12:.LC514
	mov	w1, 1508
	adrp	x0, .LC156
	add	x0, x0, :lo12:.LC156
	blr	x4
.L316:
	adrp	x0, .LC278
	add	x0, x0, :lo12:.LC278
	bl	_ZN5ImGui8TreeNodeEPKc
	and	w0, w0, 255
	cmp	w0, 0
	beq	.L317
	str	wzr, [sp, 552]
	ldr	w1, [sp, 552]
	adrp	x0, .LC515
	add	x0, x0, :lo12:.LC515
	bl	_ZN5ImGui11BeginTabBarEPKci
	and	w0, w0, 255
	cmp	w0, 0
	beq	.L318
	mov	w2, 0
	mov	x1, 0
	adrp	x0, .LC516
	add	x0, x0, :lo12:.LC516
	bl	_ZN5ImGui12BeginTabItemEPKcPbi
	and	w0, w0, 255
	cmp	w0, 0
	beq	.L319
	adrp	x0, .LC517
	add	x0, x0, :lo12:.LC517
	bl	_ZN5ImGui4TextEPKcz
	bl	_ZN5ImGui10EndTabItemEv
.L319:
	mov	w2, 0
	mov	x1, 0
	adrp	x0, .LC518
	add	x0, x0, :lo12:.LC518
	bl	_ZN5ImGui12BeginTabItemEPKcPbi
	and	w0, w0, 255
	cmp	w0, 0
	beq	.L320
	adrp	x0, .LC519
	add	x0, x0, :lo12:.LC519
	bl	_ZN5ImGui4TextEPKcz
	bl	_ZN5ImGui10EndTabItemEv
.L320:
	mov	w2, 0
	mov	x1, 0
	adrp	x0, .LC520
	add	x0, x0, :lo12:.LC520
	bl	_ZN5ImGui12BeginTabItemEPKcPbi
	and	w0, w0, 255
	cmp	w0, 0
	beq	.L321
	adrp	x0, .LC521
	add	x0, x0, :lo12:.LC521
	bl	_ZN5ImGui4TextEPKcz
	bl	_ZN5ImGui10EndTabItemEv
.L321:
	bl	_ZN5ImGui9EndTabBarEv
.L318:
	bl	_ZN5ImGui9SeparatorEv
	bl	_ZN5ImGui7TreePopEv
.L317:
	adrp	x0, GImGuiDemoMarkerCallback
	add	x0, x0, :lo12:GImGuiDemoMarkerCallback
	ldr	x0, [x0]
	cmp	x0, 0
	beq	.L322
	adrp	x0, GImGuiDemoMarkerCallback
	add	x0, x0, :lo12:GImGuiDemoMarkerCallback
	ldr	x4, [x0]
	adrp	x0, GImGuiDemoMarkerCallbackUserData
	add	x0, x0, :lo12:GImGuiDemoMarkerCallbackUserData
	ldr	x0, [x0]
	mov	x3, x0
	adrp	x0, .LC522
	add	x2, x0, :lo12:.LC522
	mov	w1, 1535
	adrp	x0, .LC156
	add	x0, x0, :lo12:.LC156
	blr	x4
.L322:
	adrp	x0, .LC523
	add	x0, x0, :lo12:.LC523
	bl	_ZN5ImGui8TreeNodeEPKc
	and	w0, w0, 255
	cmp	w0, 0
	beq	.L323
	mov	w2, 1
	adrp	x0, _ZZL21ShowDemoWindowWidgetsvE13tab_bar_flags
	add	x1, x0, :lo12:_ZZL21ShowDemoWindowWidgetsvE13tab_bar_flags
	adrp	x0, .LC524
	add	x0, x0, :lo12:.LC524
	bl	_ZN5ImGui13CheckboxFlagsEPKcPii
	mov	w2, 2
	adrp	x0, _ZZL21ShowDemoWindowWidgetsvE13tab_bar_flags
	add	x1, x0, :lo12:_ZZL21ShowDemoWindowWidgetsvE13tab_bar_flags
	adrp	x0, .LC525
	add	x0, x0, :lo12:.LC525
	bl	_ZN5ImGui13CheckboxFlagsEPKcPii
	mov	w2, 4
	adrp	x0, _ZZL21ShowDemoWindowWidgetsvE13tab_bar_flags
	add	x1, x0, :lo12:_ZZL21ShowDemoWindowWidgetsvE13tab_bar_flags
	adrp	x0, .LC526
	add	x0, x0, :lo12:.LC526
	bl	_ZN5ImGui13CheckboxFlagsEPKcPii
	mov	w2, 8
	adrp	x0, _ZZL21ShowDemoWindowWidgetsvE13tab_bar_flags
	add	x1, x0, :lo12:_ZZL21ShowDemoWindowWidgetsvE13tab_bar_flags
	adrp	x0, .LC527
	add	x0, x0, :lo12:.LC527
	bl	_ZN5ImGui13CheckboxFlagsEPKcPii
	adrp	x0, _ZZL21ShowDemoWindowWidgetsvE13tab_bar_flags
	add	x0, x0, :lo12:_ZZL21ShowDemoWindowWidgetsvE13tab_bar_flags
	ldr	w0, [x0]
	and	w0, w0, 192
	cmp	w0, 0
	bne	.L324
	adrp	x0, _ZZL21ShowDemoWindowWidgetsvE13tab_bar_flags
	add	x0, x0, :lo12:_ZZL21ShowDemoWindowWidgetsvE13tab_bar_flags
	ldr	w0, [x0]
	orr	w1, w0, 64
	adrp	x0, _ZZL21ShowDemoWindowWidgetsvE13tab_bar_flags
	add	x0, x0, :lo12:_ZZL21ShowDemoWindowWidgetsvE13tab_bar_flags
	str	w1, [x0]
.L324:
	mov	w2, 64
	adrp	x0, _ZZL21ShowDemoWindowWidgetsvE13tab_bar_flags
	add	x1, x0, :lo12:_ZZL21ShowDemoWindowWidgetsvE13tab_bar_flags
	adrp	x0, .LC528
	add	x0, x0, :lo12:.LC528
	bl	_ZN5ImGui13CheckboxFlagsEPKcPii
	and	w0, w0, 255
	cmp	w0, 0
	beq	.L325
	adrp	x0, _ZZL21ShowDemoWindowWidgetsvE13tab_bar_flags
	add	x0, x0, :lo12:_ZZL21ShowDemoWindowWidgetsvE13tab_bar_flags
	ldr	w0, [x0]
	and	w1, w0, -129
	adrp	x0, _ZZL21ShowDemoWindowWidgetsvE13tab_bar_flags
	add	x0, x0, :lo12:_ZZL21ShowDemoWindowWidgetsvE13tab_bar_flags
	str	w1, [x0]
.L325:
	mov	w2, 128
	adrp	x0, _ZZL21ShowDemoWindowWidgetsvE13tab_bar_flags
	add	x1, x0, :lo12:_ZZL21ShowDemoWindowWidgetsvE13tab_bar_flags
	adrp	x0, .LC529
	add	x0, x0, :lo12:.LC529
	bl	_ZN5ImGui13CheckboxFlagsEPKcPii
	and	w0, w0, 255
	cmp	w0, 0
	beq	.L326
	adrp	x0, _ZZL21ShowDemoWindowWidgetsvE13tab_bar_flags
	add	x0, x0, :lo12:_ZZL21ShowDemoWindowWidgetsvE13tab_bar_flags
	ldr	w0, [x0]
	and	w1, w0, -65
	adrp	x0, _ZZL21ShowDemoWindowWidgetsvE13tab_bar_flags
	add	x0, x0, :lo12:_ZZL21ShowDemoWindowWidgetsvE13tab_bar_flags
	str	w1, [x0]
.L326:
	add	x0, sp, 1048
	sub	x0, x0, #176
	adrp	x1, .LC530
	add	x1, x1, :lo12:.LC530
	ld1	{v0.16b - v1.16b}, [x1]
	st1	{v0.16b - v1.16b}, [x0]
	str	wzr, [sp, 468]
	b	.L327
.L329:
	ldr	w0, [sp, 468]
	cmp	w0, 0
	ble	.L328
	fmov	s1, -1.0e+0
	movi	v0.2s, #0
	bl	_ZN5ImGui8SameLineEff
.L328:
	add	x0, sp, 1048
	sub	x0, x0, #176
	ldrsw	x1, [sp, 468]
	ldr	x2, [x0, x1, lsl 3]
	ldrsw	x1, [sp, 468]
	adrp	x0, _ZZL21ShowDemoWindowWidgetsvE6opened
	add	x0, x0, :lo12:_ZZL21ShowDemoWindowWidgetsvE6opened
	add	x0, x1, x0
	mov	x1, x0
	mov	x0, x2
	bl	_ZN5ImGui8CheckboxEPKcPb
	ldr	w0, [sp, 468]
	add	w0, w0, 1
	str	w0, [sp, 468]
.L327:
	ldr	w0, [sp, 468]
	cmp	w0, 3
	ble	.L329
	adrp	x0, _ZZL21ShowDemoWindowWidgetsvE13tab_bar_flags
	add	x0, x0, :lo12:_ZZL21ShowDemoWindowWidgetsvE13tab_bar_flags
	ldr	w0, [x0]
	mov	w1, w0
	adrp	x0, .LC515
	add	x0, x0, :lo12:.LC515
	bl	_ZN5ImGui11BeginTabBarEPKci
	and	w0, w0, 255
	cmp	w0, 0
	beq	.L330
	str	wzr, [sp, 472]
	b	.L331
.L336:
	adrp	x0, _ZZL21ShowDemoWindowWidgetsvE6opened
	add	x1, x0, :lo12:_ZZL21ShowDemoWindowWidgetsvE6opened
	ldrsw	x0, [sp, 472]
	ldrb	w0, [x1, x0]
	cmp	w0, 0
	beq	.L332
	add	x0, sp, 1048
	sub	x0, x0, #176
	ldrsw	x1, [sp, 472]
	ldr	x3, [x0, x1, lsl 3]
	ldrsw	x1, [sp, 472]
	adrp	x0, _ZZL21ShowDemoWindowWidgetsvE6opened
	add	x0, x0, :lo12:_ZZL21ShowDemoWindowWidgetsvE6opened
	add	x0, x1, x0
	mov	w2, 0
	mov	x1, x0
	mov	x0, x3
	bl	_ZN5ImGui12BeginTabItemEPKcPbi
	and	w0, w0, 255
	cmp	w0, 0
	beq	.L332
	mov	w0, 1
	b	.L333
.L332:
	mov	w0, 0
.L333:
	cmp	w0, 0
	beq	.L334
	add	x0, sp, 1048
	sub	x0, x0, #176
	ldrsw	x1, [sp, 472]
	ldr	x0, [x0, x1, lsl 3]
	mov	x1, x0
	adrp	x0, .LC531
	add	x0, x0, :lo12:.LC531
	bl	_ZN5ImGui4TextEPKcz
	ldr	w0, [sp, 472]
	and	w0, w0, 1
	cmp	w0, 0
	beq	.L335
	adrp	x0, .LC532
	add	x0, x0, :lo12:.LC532
	bl	_ZN5ImGui4TextEPKcz
.L335:
	bl	_ZN5ImGui10EndTabItemEv
.L334:
	ldr	w0, [sp, 472]
	add	w0, w0, 1
	str	w0, [sp, 472]
.L331:
	ldr	w0, [sp, 472]
	cmp	w0, 3
	ble	.L336
	bl	_ZN5ImGui9EndTabBarEv
.L330:
	bl	_ZN5ImGui9SeparatorEv
	bl	_ZN5ImGui7TreePopEv
.L323:
	adrp	x0, GImGuiDemoMarkerCallback
	add	x0, x0, :lo12:GImGuiDemoMarkerCallback
	ldr	x0, [x0]
	cmp	x0, 0
	beq	.L337
	adrp	x0, GImGuiDemoMarkerCallback
	add	x0, x0, :lo12:GImGuiDemoMarkerCallback
	ldr	x4, [x0]
	adrp	x0, GImGuiDemoMarkerCallbackUserData
	add	x0, x0, :lo12:GImGuiDemoMarkerCallbackUserData
	ldr	x0, [x0]
	mov	x3, x0
	adrp	x0, .LC533
	add	x2, x0, :lo12:.LC533
	mov	w1, 1578
	adrp	x0, .LC156
	add	x0, x0, :lo12:.LC156
	blr	x4
.L337:
	adrp	x0, .LC534
	add	x0, x0, :lo12:.LC534
	bl	_ZN5ImGui8TreeNodeEPKc
	and	w0, w0, 255
	cmp	w0, 0
	beq	.L338
	adrp	x0, _ZGVZL21ShowDemoWindowWidgetsvE11active_tabs
	add	x0, x0, :lo12:_ZGVZL21ShowDemoWindowWidgetsvE11active_tabs
	ldar	x0, [x0]
	and	x0, x0, 1
	cmp	x0, 0
	cset	w0, eq
	and	w0, w0, 255
	cmp	w0, 0
	beq	.L339
	adrp	x0, _ZGVZL21ShowDemoWindowWidgetsvE11active_tabs
	add	x0, x0, :lo12:_ZGVZL21ShowDemoWindowWidgetsvE11active_tabs
	bl	__cxa_guard_acquire
	cmp	w0, 0
	cset	w0, ne
	and	w0, w0, 255
	cmp	w0, 0
	beq	.L339
	adrp	x0, _ZZL21ShowDemoWindowWidgetsvE11active_tabs
	add	x0, x0, :lo12:_ZZL21ShowDemoWindowWidgetsvE11active_tabs
	bl	_ZN8ImVectorIiEC1Ev
	adrp	x0, __dso_handle
	add	x2, x0, :lo12:__dso_handle
	adrp	x0, _ZZL21ShowDemoWindowWidgetsvE11active_tabs
	add	x1, x0, :lo12:_ZZL21ShowDemoWindowWidgetsvE11active_tabs
	adrp	x0, _ZN8ImVectorIiED1Ev
	add	x0, x0, :lo12:_ZN8ImVectorIiED1Ev
	bl	__cxa_atexit
	adrp	x0, _ZGVZL21ShowDemoWindowWidgetsvE11active_tabs
	add	x0, x0, :lo12:_ZGVZL21ShowDemoWindowWidgetsvE11active_tabs
	bl	__cxa_guard_release
.L339:
	adrp	x0, _ZZL21ShowDemoWindowWidgetsvE11next_tab_id
	add	x0, x0, :lo12:_ZZL21ShowDemoWindowWidgetsvE11next_tab_id
	ldr	w0, [x0]
	cmp	w0, 0
	bne	.L340
	str	wzr, [sp, 476]
	b	.L341
.L342:
	adrp	x0, _ZZL21ShowDemoWindowWidgetsvE11next_tab_id
	add	x0, x0, :lo12:_ZZL21ShowDemoWindowWidgetsvE11next_tab_id
	ldr	w0, [x0]
	add	w2, w0, 1
	adrp	x1, _ZZL21ShowDemoWindowWidgetsvE11next_tab_id
	add	x1, x1, :lo12:_ZZL21ShowDemoWindowWidgetsvE11next_tab_id
	str	w2, [x1]
	str	w0, [sp, 824]
	add	x0, sp, 824
	mov	x1, x0
	adrp	x0, _ZZL21ShowDemoWindowWidgetsvE11active_tabs
	add	x0, x0, :lo12:_ZZL21ShowDemoWindowWidgetsvE11active_tabs
	bl	_ZN8ImVectorIiE9push_backERKi
	ldr	w0, [sp, 476]
	add	w0, w0, 1
	str	w0, [sp, 476]
.L341:
	ldr	w0, [sp, 476]
	cmp	w0, 2
	ble	.L342
.L340:
	adrp	x0, _ZZL21ShowDemoWindowWidgetsvE19show_leading_button
	add	x1, x0, :lo12:_ZZL21ShowDemoWindowWidgetsvE19show_leading_button
	adrp	x0, .LC535
	add	x0, x0, :lo12:.LC535
	bl	_ZN5ImGui8CheckboxEPKcPb
	adrp	x0, _ZZL21ShowDemoWindowWidgetsvE20show_trailing_button
	add	x1, x0, :lo12:_ZZL21ShowDemoWindowWidgetsvE20show_trailing_button
	adrp	x0, .LC536
	add	x0, x0, :lo12:.LC536
	bl	_ZN5ImGui8CheckboxEPKcPb
	mov	w2, 4
	adrp	x0, _ZZL21ShowDemoWindowWidgetsvE13tab_bar_flags_0
	add	x1, x0, :lo12:_ZZL21ShowDemoWindowWidgetsvE13tab_bar_flags_0
	adrp	x0, .LC526
	add	x0, x0, :lo12:.LC526
	bl	_ZN5ImGui13CheckboxFlagsEPKcPii
	mov	w2, 64
	adrp	x0, _ZZL21ShowDemoWindowWidgetsvE13tab_bar_flags_0
	add	x1, x0, :lo12:_ZZL21ShowDemoWindowWidgetsvE13tab_bar_flags_0
	adrp	x0, .LC528
	add	x0, x0, :lo12:.LC528
	bl	_ZN5ImGui13CheckboxFlagsEPKcPii
	and	w0, w0, 255
	cmp	w0, 0
	beq	.L343
	adrp	x0, _ZZL21ShowDemoWindowWidgetsvE13tab_bar_flags_0
	add	x0, x0, :lo12:_ZZL21ShowDemoWindowWidgetsvE13tab_bar_flags_0
	ldr	w0, [x0]
	and	w1, w0, -129
	adrp	x0, _ZZL21ShowDemoWindowWidgetsvE13tab_bar_flags_0
	add	x0, x0, :lo12:_ZZL21ShowDemoWindowWidgetsvE13tab_bar_flags_0
	str	w1, [x0]
.L343:
	mov	w2, 128
	adrp	x0, _ZZL21ShowDemoWindowWidgetsvE13tab_bar_flags_0
	add	x1, x0, :lo12:_ZZL21ShowDemoWindowWidgetsvE13tab_bar_flags_0
	adrp	x0, .LC529
	add	x0, x0, :lo12:.LC529
	bl	_ZN5ImGui13CheckboxFlagsEPKcPii
	and	w0, w0, 255
	cmp	w0, 0
	beq	.L344
	adrp	x0, _ZZL21ShowDemoWindowWidgetsvE13tab_bar_flags_0
	add	x0, x0, :lo12:_ZZL21ShowDemoWindowWidgetsvE13tab_bar_flags_0
	ldr	w0, [x0]
	and	w1, w0, -65
	adrp	x0, _ZZL21ShowDemoWindowWidgetsvE13tab_bar_flags_0
	add	x0, x0, :lo12:_ZZL21ShowDemoWindowWidgetsvE13tab_bar_flags_0
	str	w1, [x0]
.L344:
	adrp	x0, _ZZL21ShowDemoWindowWidgetsvE13tab_bar_flags_0
	add	x0, x0, :lo12:_ZZL21ShowDemoWindowWidgetsvE13tab_bar_flags_0
	ldr	w0, [x0]
	mov	w1, w0
	adrp	x0, .LC515
	add	x0, x0, :lo12:.LC515
	bl	_ZN5ImGui11BeginTabBarEPKci
	and	w0, w0, 255
	cmp	w0, 0
	beq	.L345
	adrp	x0, _ZZL21ShowDemoWindowWidgetsvE19show_leading_button
	add	x0, x0, :lo12:_ZZL21ShowDemoWindowWidgetsvE19show_leading_button
	ldrb	w0, [x0]
	cmp	w0, 0
	beq	.L346
	mov	w1, 80
	adrp	x0, .LC537
	add	x0, x0, :lo12:.LC537
	bl	_ZN5ImGui13TabItemButtonEPKci
	and	w0, w0, 255
	cmp	w0, 0
	beq	.L346
	mov	w1, 0
	adrp	x0, .LC538
	add	x0, x0, :lo12:.LC538
	bl	_ZN5ImGui9OpenPopupEPKci
.L346:
	mov	w1, 0
	adrp	x0, .LC538
	add	x0, x0, :lo12:.LC538
	bl	_ZN5ImGui10BeginPopupEPKci
	and	w0, w0, 255
	cmp	w0, 0
	beq	.L347
	add	x0, sp, 824
	movi	v1.2s, #0
	movi	v0.2s, #0
	bl	_ZN6ImVec2C1Eff
	add	x0, sp, 824
	mov	x3, x0
	mov	w2, 0
	mov	w1, 0
	adrp	x0, .LC373
	add	x0, x0, :lo12:.LC373
	bl	_ZN5ImGui10SelectableEPKcbiRK6ImVec2
	bl	_ZN5ImGui8EndPopupEv
.L347:
	adrp	x0, _ZZL21ShowDemoWindowWidgetsvE20show_trailing_button
	add	x0, x0, :lo12:_ZZL21ShowDemoWindowWidgetsvE20show_trailing_button
	ldrb	w0, [x0]
	cmp	w0, 0
	beq	.L348
	mov	w1, 144
	adrp	x0, .LC539
	add	x0, x0, :lo12:.LC539
	bl	_ZN5ImGui13TabItemButtonEPKci
	and	w0, w0, 255
	cmp	w0, 0
	beq	.L348
	adrp	x0, _ZZL21ShowDemoWindowWidgetsvE11next_tab_id
	add	x0, x0, :lo12:_ZZL21ShowDemoWindowWidgetsvE11next_tab_id
	ldr	w0, [x0]
	add	w2, w0, 1
	adrp	x1, _ZZL21ShowDemoWindowWidgetsvE11next_tab_id
	add	x1, x1, :lo12:_ZZL21ShowDemoWindowWidgetsvE11next_tab_id
	str	w2, [x1]
	str	w0, [sp, 824]
	add	x0, sp, 824
	mov	x1, x0
	adrp	x0, _ZZL21ShowDemoWindowWidgetsvE11active_tabs
	add	x0, x0, :lo12:_ZZL21ShowDemoWindowWidgetsvE11active_tabs
	bl	_ZN8ImVectorIiE9push_backERKi
.L348:
	str	wzr, [sp, 480]
	b	.L349
.L353:
	mov	w0, 1
	strb	w0, [sp, 824]
	ldr	w1, [sp, 480]
	adrp	x0, _ZZL21ShowDemoWindowWidgetsvE11active_tabs
	add	x0, x0, :lo12:_ZZL21ShowDemoWindowWidgetsvE11active_tabs
	bl	_ZN8ImVectorIiEixEi
	ldr	w0, [x0]
	add	x4, sp, 1000
	mov	w3, w0
	adrp	x0, .LC540
	add	x2, x0, :lo12:.LC540
	mov	x1, 16
	mov	x0, x4
	bl	snprintf
	add	x1, sp, 824
	add	x0, sp, 1000
	mov	w2, 0
	bl	_ZN5ImGui12BeginTabItemEPKcPbi
	and	w0, w0, 255
	cmp	w0, 0
	beq	.L350
	add	x0, sp, 1000
	mov	x1, x0
	adrp	x0, .LC531
	add	x0, x0, :lo12:.LC531
	bl	_ZN5ImGui4TextEPKcz
	bl	_ZN5ImGui10EndTabItemEv
.L350:
	ldrb	w0, [sp, 824]
	eor	w0, w0, 1
	and	w0, w0, 255
	cmp	w0, 0
	beq	.L351
	adrp	x0, _ZZL21ShowDemoWindowWidgetsvE11active_tabs
	add	x0, x0, :lo12:_ZZL21ShowDemoWindowWidgetsvE11active_tabs
	ldr	x1, [x0, 8]
	ldrsw	x0, [sp, 480]
	lsl	x0, x0, 2
	add	x0, x1, x0
	mov	x1, x0
	adrp	x0, _ZZL21ShowDemoWindowWidgetsvE11active_tabs
	add	x0, x0, :lo12:_ZZL21ShowDemoWindowWidgetsvE11active_tabs
	bl	_ZN8ImVectorIiE5eraseEPKi
	b	.L349
.L351:
	ldr	w0, [sp, 480]
	add	w0, w0, 1
	str	w0, [sp, 480]
.L349:
	adrp	x0, _ZZL21ShowDemoWindowWidgetsvE11active_tabs
	add	x0, x0, :lo12:_ZZL21ShowDemoWindowWidgetsvE11active_tabs
	ldr	w0, [x0]
	ldr	w1, [sp, 480]
	cmp	w1, w0
	blt	.L353
	bl	_ZN5ImGui9EndTabBarEv
.L345:
	bl	_ZN5ImGui9SeparatorEv
	bl	_ZN5ImGui7TreePopEv
.L338:
	bl	_ZN5ImGui7TreePopEv
.L315:
	adrp	x0, GImGuiDemoMarkerCallback
	add	x0, x0, :lo12:GImGuiDemoMarkerCallback
	ldr	x0, [x0]
	cmp	x0, 0
	beq	.L354
	adrp	x0, GImGuiDemoMarkerCallback
	add	x0, x0, :lo12:GImGuiDemoMarkerCallback
	ldr	x4, [x0]
	adrp	x0, GImGuiDemoMarkerCallbackUserData
	add	x0, x0, :lo12:GImGuiDemoMarkerCallbackUserData
	ldr	x0, [x0]
	mov	x3, x0
	adrp	x0, .LC541
	add	x2, x0, :lo12:.LC541
	mov	w1, 1650
	adrp	x0, .LC156
	add	x0, x0, :lo12:.LC156
	blr	x4
.L354:
	adrp	x0, .LC542
	add	x0, x0, :lo12:.LC542
	bl	_ZN5ImGui8TreeNodeEPKc
	and	w0, w0, 255
	cmp	w0, 0
	beq	.L355
	adrp	x0, _ZZL21ShowDemoWindowWidgetsvE7animate
	add	x1, x0, :lo12:_ZZL21ShowDemoWindowWidgetsvE7animate
	adrp	x0, .LC543
	add	x0, x0, :lo12:.LC543
	bl	_ZN5ImGui8CheckboxEPKcPb
	adrp	x0, GImGuiDemoMarkerCallback
	add	x0, x0, :lo12:GImGuiDemoMarkerCallback
	ldr	x0, [x0]
	cmp	x0, 0
	beq	.L356
	adrp	x0, GImGuiDemoMarkerCallback
	add	x0, x0, :lo12:GImGuiDemoMarkerCallback
	ldr	x4, [x0]
	adrp	x0, GImGuiDemoMarkerCallbackUserData
	add	x0, x0, :lo12:GImGuiDemoMarkerCallbackUserData
	ldr	x0, [x0]
	mov	x3, x0
	adrp	x0, .LC544
	add	x2, x0, :lo12:.LC544
	mov	w1, 1657
	adrp	x0, .LC156
	add	x0, x0, :lo12:.LC156
	blr	x4
.L356:
	add	x0, sp, 824
	movi	v1.2s, #0
	movi	v0.2s, #0
	bl	_ZN6ImVec2C1Eff
	ldr	s1, [sp, 824]
	ldr	s0, [sp, 828]
	mov	w5, 4
	fmov	s2, s1
	fmov	s3, s0
	mov	w0, 2139095039
	fmov	s1, w0
	mov	w0, 2139095039
	fmov	s0, w0
	mov	x4, 0
	mov	w3, 0
	mov	w2, 7
	adrp	x0, _ZZL21ShowDemoWindowWidgetsvE3arr_0
	add	x1, x0, :lo12:_ZZL21ShowDemoWindowWidgetsvE3arr_0
	adrp	x0, .LC545
	add	x0, x0, :lo12:.LC545
	bl	_ZN5ImGui9PlotLinesEPKcPKfiiS1_ff6ImVec2i
	add	x0, sp, 824
	mov	w1, 1117782016
	fmov	s1, w1
	movi	v0.2s, #0
	bl	_ZN6ImVec2C1Eff
	ldr	s1, [sp, 824]
	ldr	s0, [sp, 828]
	mov	w5, 4
	fmov	s2, s1
	fmov	s3, s0
	fmov	s1, 1.0e+0
	movi	v0.2s, #0
	mov	x4, 0
	mov	w3, 0
	mov	w2, 7
	adrp	x0, _ZZL21ShowDemoWindowWidgetsvE3arr_0
	add	x1, x0, :lo12:_ZZL21ShowDemoWindowWidgetsvE3arr_0
	adrp	x0, .LC546
	add	x0, x0, :lo12:.LC546
	bl	_ZN5ImGui13PlotHistogramEPKcPKfiiS1_ff6ImVec2i
	adrp	x0, _ZZL21ShowDemoWindowWidgetsvE7animate
	add	x0, x0, :lo12:_ZZL21ShowDemoWindowWidgetsvE7animate
	ldrb	w0, [x0]
	eor	w0, w0, 1
	and	w0, w0, 255
	cmp	w0, 0
	bne	.L357
	adrp	x0, _ZZL21ShowDemoWindowWidgetsvE12refresh_time
	add	x0, x0, :lo12:_ZZL21ShowDemoWindowWidgetsvE12refresh_time
	ldr	d0, [x0]
	fcmp	d0, #0.0
	bne	.L359
.L357:
	bl	_ZN5ImGui7GetTimeEv
	adrp	x0, _ZZL21ShowDemoWindowWidgetsvE12refresh_time
	add	x0, x0, :lo12:_ZZL21ShowDemoWindowWidgetsvE12refresh_time
	str	d0, [x0]
	b	.L359
.L360:
	adrp	x0, _ZZL21ShowDemoWindowWidgetsvE5phase
	add	x0, x0, :lo12:_ZZL21ShowDemoWindowWidgetsvE5phase
	ldr	s0, [x0]
	adrp	x0, _ZZL21ShowDemoWindowWidgetsvE13values_offset
	add	x0, x0, :lo12:_ZZL21ShowDemoWindowWidgetsvE13values_offset
	ldr	w19, [x0]
	bl	cosf
	adrp	x0, _ZZL21ShowDemoWindowWidgetsvE6values
	add	x0, x0, :lo12:_ZZL21ShowDemoWindowWidgetsvE6values
	sxtw	x1, w19
	str	s0, [x0, x1, lsl 2]
	adrp	x0, _ZZL21ShowDemoWindowWidgetsvE13values_offset
	add	x0, x0, :lo12:_ZZL21ShowDemoWindowWidgetsvE13values_offset
	ldr	w0, [x0]
	add	w0, w0, 1
	mov	w1, 24759
	movk	w1, 0xb60b, lsl 16
	smull	x1, w0, w1
	lsr	x1, x1, 32
	add	w1, w0, w1
	asr	w2, w1, 6
	asr	w1, w0, 31
	sub	w1, w2, w1
	mov	w2, 90
	mul	w1, w1, w2
	sub	w1, w0, w1
	adrp	x0, _ZZL21ShowDemoWindowWidgetsvE13values_offset
	add	x0, x0, :lo12:_ZZL21ShowDemoWindowWidgetsvE13values_offset
	str	w1, [x0]
	adrp	x0, _ZZL21ShowDemoWindowWidgetsvE13values_offset
	add	x0, x0, :lo12:_ZZL21ShowDemoWindowWidgetsvE13values_offset
	ldr	s0, [x0]
	scvtf	s0, s0
	mov	w0, 52429
	movk	w0, 0x3dcc, lsl 16
	fmov	s1, w0
	fmul	s1, s0, s1
	adrp	x0, _ZZL21ShowDemoWindowWidgetsvE5phase
	add	x0, x0, :lo12:_ZZL21ShowDemoWindowWidgetsvE5phase
	ldr	s0, [x0]
	fadd	s0, s1, s0
	adrp	x0, _ZZL21ShowDemoWindowWidgetsvE5phase
	add	x0, x0, :lo12:_ZZL21ShowDemoWindowWidgetsvE5phase
	str	s0, [x0]
	adrp	x0, _ZZL21ShowDemoWindowWidgetsvE12refresh_time
	add	x0, x0, :lo12:_ZZL21ShowDemoWindowWidgetsvE12refresh_time
	ldr	d0, [x0]
	adrp	x0, .LC820
	ldr	d1, [x0, #:lo12:.LC820]
	fadd	d0, d0, d1
	adrp	x0, _ZZL21ShowDemoWindowWidgetsvE12refresh_time
	add	x0, x0, :lo12:_ZZL21ShowDemoWindowWidgetsvE12refresh_time
	str	d0, [x0]
.L359:
	bl	_ZN5ImGui7GetTimeEv
	fmov	d1, d0
	adrp	x0, _ZZL21ShowDemoWindowWidgetsvE12refresh_time
	add	x0, x0, :lo12:_ZZL21ShowDemoWindowWidgetsvE12refresh_time
	ldr	d0, [x0]
	fcmpe	d1, d0
	cset	w0, gt
	and	w0, w0, 255
	cmp	w0, 0
	bne	.L360
	str	wzr, [sp, 484]
	str	wzr, [sp, 488]
	b	.L361
.L362:
	adrp	x0, _ZZL21ShowDemoWindowWidgetsvE6values
	add	x0, x0, :lo12:_ZZL21ShowDemoWindowWidgetsvE6values
	ldrsw	x1, [sp, 488]
	ldr	s0, [x0, x1, lsl 2]
	ldr	s1, [sp, 484]
	fadd	s0, s1, s0
	str	s0, [sp, 484]
	ldr	w0, [sp, 488]
	add	w0, w0, 1
	str	w0, [sp, 488]
.L361:
	ldr	w0, [sp, 488]
	cmp	w0, 89
	ble	.L362
	mov	w0, 1119092736
	fmov	s1, w0
	ldr	s0, [sp, 484]
	fdiv	s0, s0, s1
	str	s0, [sp, 484]
	ldr	s0, [sp, 484]
	fcvt	d0, s0
	add	x2, sp, 1000
	adrp	x0, .LC547
	add	x1, x0, :lo12:.LC547
	mov	x0, x2
	bl	sprintf
	adrp	x0, _ZZL21ShowDemoWindowWidgetsvE13values_offset
	add	x0, x0, :lo12:_ZZL21ShowDemoWindowWidgetsvE13values_offset
	ldr	w19, [x0]
	add	x0, sp, 824
	mov	w1, 1117782016
	fmov	s1, w1
	movi	v0.2s, #0
	bl	_ZN6ImVec2C1Eff
	ldr	s1, [sp, 824]
	ldr	s0, [sp, 828]
	add	x0, sp, 1000
	mov	w5, 4
	fmov	s2, s1
	fmov	s3, s0
	fmov	s1, 1.0e+0
	fmov	s0, -1.0e+0
	mov	x4, x0
	mov	w3, w19
	mov	w2, 90
	adrp	x0, _ZZL21ShowDemoWindowWidgetsvE6values
	add	x1, x0, :lo12:_ZZL21ShowDemoWindowWidgetsvE6values
	adrp	x0, .LC548
	add	x0, x0, :lo12:.LC548
	bl	_ZN5ImGui9PlotLinesEPKcPKfiiS1_ff6ImVec2i
	bl	_ZN5ImGui9SeparatorEv
	bl	_ZN5ImGui11GetFontSizeEv
	fmov	s1, s0
	fmov	s0, 8.0e+0
	fmul	s0, s1, s0
	bl	_ZN5ImGui16SetNextItemWidthEf
	mov	w3, -1
	adrp	x0, .LC549
	add	x2, x0, :lo12:.LC549
	adrp	x0, _ZZL21ShowDemoWindowWidgetsvE9func_type
	add	x1, x0, :lo12:_ZZL21ShowDemoWindowWidgetsvE9func_type
	adrp	x0, .LC550
	add	x0, x0, :lo12:.LC550
	bl	_ZN5ImGui5ComboEPKcPiS1_i
	fmov	s1, -1.0e+0
	movi	v0.2s, #0
	bl	_ZN5ImGui8SameLineEff
	mov	w5, 0
	adrp	x0, .LC293
	add	x4, x0, :lo12:.LC293
	mov	w3, 400
	mov	w2, 1
	adrp	x0, _ZZL21ShowDemoWindowWidgetsvE13display_count
	add	x1, x0, :lo12:_ZZL21ShowDemoWindowWidgetsvE13display_count
	adrp	x0, .LC551
	add	x0, x0, :lo12:.LC551
	bl	_ZN5ImGui9SliderIntEPKcPiiiS1_i
	adrp	x0, _ZZL21ShowDemoWindowWidgetsvE9func_type
	add	x0, x0, :lo12:_ZZL21ShowDemoWindowWidgetsvE9func_type
	ldr	w0, [x0]
	cmp	w0, 0
	bne	.L363
	adrp	x0, _ZZL21ShowDemoWindowWidgetsvEN5Funcs3SinE_2Pvi
	add	x0, x0, :lo12:_ZZL21ShowDemoWindowWidgetsvEN5Funcs3SinE_2Pvi
	b	.L364
.L363:
	adrp	x0, _ZZL21ShowDemoWindowWidgetsvEN5Funcs3SawE_2Pvi
	add	x0, x0, :lo12:_ZZL21ShowDemoWindowWidgetsvEN5Funcs3SawE_2Pvi
.L364:
	str	x0, [sp, 760]
	adrp	x0, _ZZL21ShowDemoWindowWidgetsvE13display_count
	add	x0, x0, :lo12:_ZZL21ShowDemoWindowWidgetsvE13display_count
	ldr	w19, [x0]
	add	x0, sp, 824
	mov	w1, 1117782016
	fmov	s1, w1
	movi	v0.2s, #0
	bl	_ZN6ImVec2C1Eff
	ldr	s1, [sp, 824]
	ldr	s0, [sp, 828]
	fmov	s2, s1
	fmov	s3, s0
	fmov	s1, 1.0e+0
	fmov	s0, -1.0e+0
	mov	x5, 0
	mov	w4, 0
	mov	w3, w19
	mov	x2, 0
	ldr	x1, [sp, 760]
	adrp	x0, .LC548
	add	x0, x0, :lo12:.LC548
	bl	_ZN5ImGui9PlotLinesEPKcPFfPviES2_iiS1_ff6ImVec2
	adrp	x0, _ZZL21ShowDemoWindowWidgetsvE13display_count
	add	x0, x0, :lo12:_ZZL21ShowDemoWindowWidgetsvE13display_count
	ldr	w19, [x0]
	add	x0, sp, 824
	mov	w1, 1117782016
	fmov	s1, w1
	movi	v0.2s, #0
	bl	_ZN6ImVec2C1Eff
	ldr	s1, [sp, 824]
	ldr	s0, [sp, 828]
	fmov	s2, s1
	fmov	s3, s0
	fmov	s1, 1.0e+0
	fmov	s0, -1.0e+0
	mov	x5, 0
	mov	w4, 0
	mov	w3, w19
	mov	x2, 0
	ldr	x1, [sp, 760]
	adrp	x0, .LC546
	add	x0, x0, :lo12:.LC546
	bl	_ZN5ImGui13PlotHistogramEPKcPFfPviES2_iiS1_ff6ImVec2
	bl	_ZN5ImGui9SeparatorEv
	adrp	x0, GImGuiDemoMarkerCallback
	add	x0, x0, :lo12:GImGuiDemoMarkerCallback
	ldr	x0, [x0]
	cmp	x0, 0
	beq	.L365
	adrp	x0, GImGuiDemoMarkerCallback
	add	x0, x0, :lo12:GImGuiDemoMarkerCallback
	ldr	x4, [x0]
	adrp	x0, GImGuiDemoMarkerCallbackUserData
	add	x0, x0, :lo12:GImGuiDemoMarkerCallbackUserData
	ldr	x0, [x0]
	mov	x3, x0
	adrp	x0, .LC552
	add	x2, x0, :lo12:.LC552
	mov	w1, 1711
	adrp	x0, .LC156
	add	x0, x0, :lo12:.LC156
	blr	x4
.L365:
	adrp	x0, _ZZL21ShowDemoWindowWidgetsvE7animate
	add	x0, x0, :lo12:_ZZL21ShowDemoWindowWidgetsvE7animate
	ldrb	w0, [x0]
	cmp	w0, 0
	beq	.L366
	adrp	x0, _ZZL21ShowDemoWindowWidgetsvE12progress_dir
	add	x0, x0, :lo12:_ZZL21ShowDemoWindowWidgetsvE12progress_dir
	ldr	s0, [x0]
	mov	w0, 52429
	movk	w0, 0x3ecc, lsl 16
	fmov	s1, w0
	fmul	s8, s0, s1
	bl	_ZN5ImGui5GetIOEv
	ldr	s0, [x0, 16]
	fmul	s1, s8, s0
	adrp	x0, _ZZL21ShowDemoWindowWidgetsvE8progress
	add	x0, x0, :lo12:_ZZL21ShowDemoWindowWidgetsvE8progress
	ldr	s0, [x0]
	fadd	s0, s1, s0
	adrp	x0, _ZZL21ShowDemoWindowWidgetsvE8progress
	add	x0, x0, :lo12:_ZZL21ShowDemoWindowWidgetsvE8progress
	str	s0, [x0]
	adrp	x0, _ZZL21ShowDemoWindowWidgetsvE8progress
	add	x0, x0, :lo12:_ZZL21ShowDemoWindowWidgetsvE8progress
	ldr	s0, [x0]
	mov	w0, 52429
	movk	w0, 0x3f8c, lsl 16
	fmov	s1, w0
	fcmpe	s0, s1
	bge	.L590
	b	.L367
.L590:
	adrp	x0, _ZZL21ShowDemoWindowWidgetsvE8progress
	add	x0, x0, :lo12:_ZZL21ShowDemoWindowWidgetsvE8progress
	mov	w1, 52429
	movk	w1, 0x3f8c, lsl 16
	fmov	s0, w1
	str	s0, [x0]
	adrp	x0, _ZZL21ShowDemoWindowWidgetsvE12progress_dir
	add	x0, x0, :lo12:_ZZL21ShowDemoWindowWidgetsvE12progress_dir
	ldr	s0, [x0]
	fneg	s0, s0
	adrp	x0, _ZZL21ShowDemoWindowWidgetsvE12progress_dir
	add	x0, x0, :lo12:_ZZL21ShowDemoWindowWidgetsvE12progress_dir
	str	s0, [x0]
.L367:
	adrp	x0, _ZZL21ShowDemoWindowWidgetsvE8progress
	add	x0, x0, :lo12:_ZZL21ShowDemoWindowWidgetsvE8progress
	ldr	s0, [x0]
	mov	w0, 52429
	movk	w0, 0xbdcc, lsl 16
	fmov	s1, w0
	fcmpe	s0, s1
	bls	.L591
	b	.L366
.L591:
	adrp	x0, _ZZL21ShowDemoWindowWidgetsvE8progress
	add	x0, x0, :lo12:_ZZL21ShowDemoWindowWidgetsvE8progress
	mov	w1, 52429
	movk	w1, 0xbdcc, lsl 16
	fmov	s0, w1
	str	s0, [x0]
	adrp	x0, _ZZL21ShowDemoWindowWidgetsvE12progress_dir
	add	x0, x0, :lo12:_ZZL21ShowDemoWindowWidgetsvE12progress_dir
	ldr	s0, [x0]
	fneg	s0, s0
	adrp	x0, _ZZL21ShowDemoWindowWidgetsvE12progress_dir
	add	x0, x0, :lo12:_ZZL21ShowDemoWindowWidgetsvE12progress_dir
	str	s0, [x0]
.L366:
	adrp	x0, _ZZL21ShowDemoWindowWidgetsvE8progress
	add	x0, x0, :lo12:_ZZL21ShowDemoWindowWidgetsvE8progress
	ldr	s8, [x0]
	add	x0, sp, 824
	movi	v1.2s, #0
	movi	v0.2s, #0
	bl	_ZN6ImVec2C1Eff
	add	x0, sp, 824
	mov	x1, 0
	fmov	s0, s8
	bl	_ZN5ImGui11ProgressBarEfRK6ImVec2PKc
	bl	_ZN5ImGui8GetStyleEv
	ldr	s0, [x0, 84]
	fmov	s1, s0
	movi	v0.2s, #0
	bl	_ZN5ImGui8SameLineEff
	adrp	x0, .LC553
	add	x0, x0, :lo12:.LC553
	bl	_ZN5ImGui4TextEPKcz
	adrp	x0, _ZZL21ShowDemoWindowWidgetsvE8progress
	add	x0, x0, :lo12:_ZZL21ShowDemoWindowWidgetsvE8progress
	ldr	s0, [x0]
	fcmpe	s0, #0.0
	bmi	.L592
	b	.L597
.L592:
	movi	v0.2s, #0
	b	.L372
.L597:
	adrp	x0, _ZZL21ShowDemoWindowWidgetsvE8progress
	add	x0, x0, :lo12:_ZZL21ShowDemoWindowWidgetsvE8progress
	ldr	s1, [x0]
	fmov	s0, 1.0e+0
	fcmpe	s1, s0
	bgt	.L593
	b	.L598
.L593:
	fmov	s0, 1.0e+0
	b	.L372
.L598:
	adrp	x0, _ZZL21ShowDemoWindowWidgetsvE8progress
	add	x0, x0, :lo12:_ZZL21ShowDemoWindowWidgetsvE8progress
	ldr	s0, [x0]
.L372:
	str	s0, [sp, 556]
	ldr	s0, [sp, 556]
	mov	w0, 8192
	movk	w0, 0x44db, lsl 16
	fmov	s1, w0
	fmul	s0, s0, s1
	fcvtzs	w0, s0
	add	x4, sp, 1000
	mov	w3, 1753
	mov	w2, w0
	adrp	x0, .LC554
	add	x1, x0, :lo12:.LC554
	mov	x0, x4
	bl	sprintf
	adrp	x0, _ZZL21ShowDemoWindowWidgetsvE8progress
	add	x0, x0, :lo12:_ZZL21ShowDemoWindowWidgetsvE8progress
	ldr	s8, [x0]
	add	x0, sp, 824
	movi	v1.2s, #0
	movi	v0.2s, #0
	bl	_ZN6ImVec2C1Eff
	add	x1, sp, 1000
	add	x0, sp, 824
	fmov	s0, s8
	bl	_ZN5ImGui11ProgressBarEfRK6ImVec2PKc
	bl	_ZN5ImGui7TreePopEv
.L355:
	adrp	x0, GImGuiDemoMarkerCallback
	add	x0, x0, :lo12:GImGuiDemoMarkerCallback
	ldr	x0, [x0]
	cmp	x0, 0
	beq	.L376
	adrp	x0, GImGuiDemoMarkerCallback
	add	x0, x0, :lo12:GImGuiDemoMarkerCallback
	ldr	x4, [x0]
	adrp	x0, GImGuiDemoMarkerCallbackUserData
	add	x0, x0, :lo12:GImGuiDemoMarkerCallbackUserData
	ldr	x0, [x0]
	mov	x3, x0
	adrp	x0, .LC555
	add	x2, x0, :lo12:.LC555
	mov	w1, 1733
	adrp	x0, .LC156
	add	x0, x0, :lo12:.LC156
	blr	x4
.L376:
	adrp	x0, .LC556
	add	x0, x0, :lo12:.LC556
	bl	_ZN5ImGui8TreeNodeEPKc
	and	w0, w0, 255
	cmp	w0, 0
	beq	.L377
	adrp	x0, _ZZL21ShowDemoWindowWidgetsvE13alpha_preview
	add	x1, x0, :lo12:_ZZL21ShowDemoWindowWidgetsvE13alpha_preview
	adrp	x0, .LC557
	add	x0, x0, :lo12:.LC557
	bl	_ZN5ImGui8CheckboxEPKcPb
	adrp	x0, _ZZL21ShowDemoWindowWidgetsvE18alpha_half_preview
	add	x1, x0, :lo12:_ZZL21ShowDemoWindowWidgetsvE18alpha_half_preview
	adrp	x0, .LC558
	add	x0, x0, :lo12:.LC558
	bl	_ZN5ImGui8CheckboxEPKcPb
	adrp	x0, _ZZL21ShowDemoWindowWidgetsvE13drag_and_drop
	add	x1, x0, :lo12:_ZZL21ShowDemoWindowWidgetsvE13drag_and_drop
	adrp	x0, .LC559
	add	x0, x0, :lo12:.LC559
	bl	_ZN5ImGui8CheckboxEPKcPb
	adrp	x0, _ZZL21ShowDemoWindowWidgetsvE12options_menu
	add	x1, x0, :lo12:_ZZL21ShowDemoWindowWidgetsvE12options_menu
	adrp	x0, .LC560
	add	x0, x0, :lo12:.LC560
	bl	_ZN5ImGui8CheckboxEPKcPb
	fmov	s1, -1.0e+0
	movi	v0.2s, #0
	bl	_ZN5ImGui8SameLineEff
	adrp	x0, .LC561
	add	x0, x0, :lo12:.LC561
	bl	_ZL10HelpMarkerPKc
	adrp	x0, _ZZL21ShowDemoWindowWidgetsvE3hdr
	add	x1, x0, :lo12:_ZZL21ShowDemoWindowWidgetsvE3hdr
	adrp	x0, .LC562
	add	x0, x0, :lo12:.LC562
	bl	_ZN5ImGui8CheckboxEPKcPb
	fmov	s1, -1.0e+0
	movi	v0.2s, #0
	bl	_ZN5ImGui8SameLineEff
	adrp	x0, .LC563
	add	x0, x0, :lo12:.LC563
	bl	_ZL10HelpMarkerPKc
	adrp	x0, _ZZL21ShowDemoWindowWidgetsvE3hdr
	add	x0, x0, :lo12:_ZZL21ShowDemoWindowWidgetsvE3hdr
	ldrb	w0, [x0]
	cmp	w0, 0
	beq	.L378
	mov	w1, 524288
	b	.L379
.L378:
	mov	w1, 0
.L379:
	adrp	x0, _ZZL21ShowDemoWindowWidgetsvE13drag_and_drop
	add	x0, x0, :lo12:_ZZL21ShowDemoWindowWidgetsvE13drag_and_drop
	ldrb	w0, [x0]
	cmp	w0, 0
	beq	.L380
	mov	w0, 0
	b	.L381
.L380:
	mov	w0, 512
.L381:
	orr	w1, w1, w0
	adrp	x0, _ZZL21ShowDemoWindowWidgetsvE18alpha_half_preview
	add	x0, x0, :lo12:_ZZL21ShowDemoWindowWidgetsvE18alpha_half_preview
	ldrb	w0, [x0]
	cmp	w0, 0
	beq	.L382
	mov	w0, 262144
	b	.L383
.L382:
	adrp	x0, _ZZL21ShowDemoWindowWidgetsvE13alpha_preview
	add	x0, x0, :lo12:_ZZL21ShowDemoWindowWidgetsvE13alpha_preview
	ldrb	w0, [x0]
	cmp	w0, 0
	beq	.L384
	mov	w0, 131072
	b	.L383
.L384:
	mov	w0, 0
.L383:
	orr	w1, w0, w1
	adrp	x0, _ZZL21ShowDemoWindowWidgetsvE12options_menu
	add	x0, x0, :lo12:_ZZL21ShowDemoWindowWidgetsvE12options_menu
	ldrb	w0, [x0]
	cmp	w0, 0
	beq	.L386
	mov	w0, 0
	b	.L387
.L386:
	mov	w0, 8
.L387:
	orr	w0, w0, w1
	str	w0, [sp, 560]
	adrp	x0, GImGuiDemoMarkerCallback
	add	x0, x0, :lo12:GImGuiDemoMarkerCallback
	ldr	x0, [x0]
	cmp	x0, 0
	beq	.L388
	adrp	x0, GImGuiDemoMarkerCallback
	add	x0, x0, :lo12:GImGuiDemoMarkerCallback
	ldr	x4, [x0]
	adrp	x0, GImGuiDemoMarkerCallbackUserData
	add	x0, x0, :lo12:GImGuiDemoMarkerCallbackUserData
	ldr	x0, [x0]
	mov	x3, x0
	adrp	x0, .LC564
	add	x2, x0, :lo12:.LC564
	mov	w1, 1750
	adrp	x0, .LC156
	add	x0, x0, :lo12:.LC156
	blr	x4
.L388:
	adrp	x0, .LC565
	add	x0, x0, :lo12:.LC565
	bl	_ZN5ImGui4TextEPKcz
	fmov	s1, -1.0e+0
	movi	v0.2s, #0
	bl	_ZN5ImGui8SameLineEff
	adrp	x0, .LC566
	add	x0, x0, :lo12:.LC566
	bl	_ZL10HelpMarkerPKc
	ldr	w2, [sp, 560]
	adrp	x0, _ZZL21ShowDemoWindowWidgetsvE5color
	add	x1, x0, :lo12:_ZZL21ShowDemoWindowWidgetsvE5color
	adrp	x0, .LC567
	add	x0, x0, :lo12:.LC567
	bl	_ZN5ImGui10ColorEdit3EPKcPfi
	adrp	x0, GImGuiDemoMarkerCallback
	add	x0, x0, :lo12:GImGuiDemoMarkerCallback
	ldr	x0, [x0]
	cmp	x0, 0
	beq	.L389
	adrp	x0, GImGuiDemoMarkerCallback
	add	x0, x0, :lo12:GImGuiDemoMarkerCallback
	ldr	x4, [x0]
	adrp	x0, GImGuiDemoMarkerCallbackUserData
	add	x0, x0, :lo12:GImGuiDemoMarkerCallbackUserData
	ldr	x0, [x0]
	mov	x3, x0
	adrp	x0, .LC568
	add	x2, x0, :lo12:.LC568
	mov	w1, 1757
	adrp	x0, .LC156
	add	x0, x0, :lo12:.LC156
	blr	x4
.L389:
	adrp	x0, .LC569
	add	x0, x0, :lo12:.LC569
	bl	_ZN5ImGui4TextEPKcz
	ldr	w0, [sp, 560]
	orr	w0, w0, 2097152
	mov	w2, w0
	adrp	x0, _ZZL21ShowDemoWindowWidgetsvE5color
	add	x1, x0, :lo12:_ZZL21ShowDemoWindowWidgetsvE5color
	adrp	x0, .LC570
	add	x0, x0, :lo12:.LC570
	bl	_ZN5ImGui10ColorEdit4EPKcPfi
	adrp	x0, GImGuiDemoMarkerCallback
	add	x0, x0, :lo12:GImGuiDemoMarkerCallback
	ldr	x0, [x0]
	cmp	x0, 0
	beq	.L390
	adrp	x0, GImGuiDemoMarkerCallback
	add	x0, x0, :lo12:GImGuiDemoMarkerCallback
	ldr	x4, [x0]
	adrp	x0, GImGuiDemoMarkerCallbackUserData
	add	x0, x0, :lo12:GImGuiDemoMarkerCallbackUserData
	ldr	x0, [x0]
	mov	x3, x0
	adrp	x0, .LC571
	add	x2, x0, :lo12:.LC571
	mov	w1, 1761
	adrp	x0, .LC156
	add	x0, x0, :lo12:.LC156
	blr	x4
.L390:
	adrp	x0, .LC572
	add	x0, x0, :lo12:.LC572
	bl	_ZN5ImGui4TextEPKcz
	ldr	w0, [sp, 560]
	orr	w0, w0, 16777216
	mov	w2, w0
	adrp	x0, _ZZL21ShowDemoWindowWidgetsvE5color
	add	x1, x0, :lo12:_ZZL21ShowDemoWindowWidgetsvE5color
	adrp	x0, .LC573
	add	x0, x0, :lo12:.LC573
	bl	_ZN5ImGui10ColorEdit4EPKcPfi
	adrp	x0, GImGuiDemoMarkerCallback
	add	x0, x0, :lo12:GImGuiDemoMarkerCallback
	ldr	x0, [x0]
	cmp	x0, 0
	beq	.L391
	adrp	x0, GImGuiDemoMarkerCallback
	add	x0, x0, :lo12:GImGuiDemoMarkerCallback
	ldr	x4, [x0]
	adrp	x0, GImGuiDemoMarkerCallbackUserData
	add	x0, x0, :lo12:GImGuiDemoMarkerCallbackUserData
	ldr	x0, [x0]
	mov	x3, x0
	adrp	x0, .LC574
	add	x2, x0, :lo12:.LC574
	mov	w1, 1765
	adrp	x0, .LC156
	add	x0, x0, :lo12:.LC156
	blr	x4
.L391:
	adrp	x0, .LC575
	add	x0, x0, :lo12:.LC575
	bl	_ZN5ImGui4TextEPKcz
	fmov	s1, -1.0e+0
	movi	v0.2s, #0
	bl	_ZN5ImGui8SameLineEff
	adrp	x0, .LC576
	add	x0, x0, :lo12:.LC576
	bl	_ZL10HelpMarkerPKc
	ldr	w1, [sp, 560]
	mov	w0, 160
	orr	w0, w1, w0
	mov	w2, w0
	adrp	x0, _ZZL21ShowDemoWindowWidgetsvE5color
	add	x1, x0, :lo12:_ZZL21ShowDemoWindowWidgetsvE5color
	adrp	x0, .LC577
	add	x0, x0, :lo12:.LC577
	bl	_ZN5ImGui10ColorEdit4EPKcPfi
	adrp	x0, GImGuiDemoMarkerCallback
	add	x0, x0, :lo12:GImGuiDemoMarkerCallback
	ldr	x0, [x0]
	cmp	x0, 0
	beq	.L392
	adrp	x0, GImGuiDemoMarkerCallback
	add	x0, x0, :lo12:GImGuiDemoMarkerCallback
	ldr	x4, [x0]
	adrp	x0, GImGuiDemoMarkerCallbackUserData
	add	x0, x0, :lo12:GImGuiDemoMarkerCallbackUserData
	ldr	x0, [x0]
	mov	x3, x0
	adrp	x0, .LC578
	add	x2, x0, :lo12:.LC578
	mov	w1, 1773
	adrp	x0, .LC156
	add	x0, x0, :lo12:.LC156
	blr	x4
.L392:
	adrp	x0, .LC579
	add	x0, x0, :lo12:.LC579
	bl	_ZN5ImGui4TextEPKcz
	adrp	x0, _ZZL21ShowDemoWindowWidgetsvE18saved_palette_init
	add	x0, x0, :lo12:_ZZL21ShowDemoWindowWidgetsvE18saved_palette_init
	ldrb	w0, [x0]
	cmp	w0, 0
	beq	.L393
	str	wzr, [sp, 492]
	b	.L394
.L395:
	ldr	s0, [sp, 492]
	scvtf	s1, s0
	fmov	s0, 3.1e+1
	fdiv	s0, s1, s0
	ldrsw	x0, [sp, 492]
	lsl	x1, x0, 4
	adrp	x0, _ZZL21ShowDemoWindowWidgetsvE13saved_palette
	add	x0, x0, :lo12:_ZZL21ShowDemoWindowWidgetsvE13saved_palette
	add	x3, x1, x0
	ldrsw	x0, [sp, 492]
	lsl	x1, x0, 4
	adrp	x0, _ZZL21ShowDemoWindowWidgetsvE13saved_palette
	add	x0, x0, :lo12:_ZZL21ShowDemoWindowWidgetsvE13saved_palette
	add	x0, x1, x0
	add	x4, x0, 4
	ldrsw	x0, [sp, 492]
	lsl	x1, x0, 4
	adrp	x0, _ZZL21ShowDemoWindowWidgetsvE13saved_palette
	add	x0, x0, :lo12:_ZZL21ShowDemoWindowWidgetsvE13saved_palette
	add	x0, x1, x0
	add	x0, x0, 8
	mov	x2, x0
	mov	x1, x4
	mov	x0, x3
	mov	w3, 52429
	movk	w3, 0x3f4c, lsl 16
	fmov	s2, w3
	mov	w3, 52429
	movk	w3, 0x3f4c, lsl 16
	fmov	s1, w3
	bl	_ZN5ImGui20ColorConvertHSVtoRGBEfffRfS0_S0_
	adrp	x0, _ZZL21ShowDemoWindowWidgetsvE13saved_palette
	add	x1, x0, :lo12:_ZZL21ShowDemoWindowWidgetsvE13saved_palette
	ldrsw	x0, [sp, 492]
	lsl	x0, x0, 4
	add	x0, x1, x0
	fmov	s0, 1.0e+0
	str	s0, [x0, 12]
	ldr	w0, [sp, 492]
	add	w0, w0, 1
	str	w0, [sp, 492]
.L394:
	ldr	w0, [sp, 492]
	cmp	w0, 31
	ble	.L395
	adrp	x0, _ZZL21ShowDemoWindowWidgetsvE18saved_palette_init
	add	x0, x0, :lo12:_ZZL21ShowDemoWindowWidgetsvE18saved_palette_init
	strb	wzr, [x0]
.L393:
	add	x0, sp, 824
	movi	v1.2s, #0
	movi	v0.2s, #0
	bl	_ZN6ImVec2C1Eff
	add	x0, sp, 824
	mov	x3, x0
	ldr	w2, [sp, 560]
	adrp	x0, _ZZL21ShowDemoWindowWidgetsvE5color
	add	x1, x0, :lo12:_ZZL21ShowDemoWindowWidgetsvE5color
	adrp	x0, .LC580
	add	x0, x0, :lo12:.LC580
	bl	_ZN5ImGui11ColorButtonEPKcRK6ImVec4iRK6ImVec2
	and	w0, w0, 255
	strb	w0, [sp, 284]
	bl	_ZN5ImGui8GetStyleEv
	ldr	s0, [x0, 84]
	fmov	s1, s0
	movi	v0.2s, #0
	bl	_ZN5ImGui8SameLineEff
	add	x0, sp, 824
	movi	v1.2s, #0
	movi	v0.2s, #0
	bl	_ZN6ImVec2C1Eff
	add	x0, sp, 824
	mov	x1, x0
	adrp	x0, .LC581
	add	x0, x0, :lo12:.LC581
	bl	_ZN5ImGui6ButtonEPKcRK6ImVec2
	and	w1, w0, 255
	ldrb	w0, [sp, 284]
	orr	w0, w1, w0
	and	w0, w0, 255
	cmp	w0, 0
	cset	w0, ne
	strb	w0, [sp, 284]
	ldrb	w0, [sp, 284]
	cmp	w0, 0
	beq	.L396
	mov	w1, 0
	adrp	x0, .LC582
	add	x0, x0, :lo12:.LC582
	bl	_ZN5ImGui9OpenPopupEPKci
	adrp	x0, _ZZL21ShowDemoWindowWidgetsvE12backup_color
	add	x2, x0, :lo12:_ZZL21ShowDemoWindowWidgetsvE12backup_color
	adrp	x0, _ZZL21ShowDemoWindowWidgetsvE5color
	add	x0, x0, :lo12:_ZZL21ShowDemoWindowWidgetsvE5color
	ldp	x0, x1, [x0]
	stp	x0, x1, [x2]
.L396:
	mov	w1, 0
	adrp	x0, .LC582
	add	x0, x0, :lo12:.LC582
	bl	_ZN5ImGui10BeginPopupEPKci
	and	w0, w0, 255
	cmp	w0, 0
	beq	.L397
	adrp	x0, .LC583
	add	x0, x0, :lo12:.LC583
	bl	_ZN5ImGui4TextEPKcz
	bl	_ZN5ImGui9SeparatorEv
	ldr	w1, [sp, 560]
	mov	w0, 272
	orr	w0, w1, w0
	mov	x3, 0
	mov	w2, w0
	adrp	x0, _ZZL21ShowDemoWindowWidgetsvE5color
	add	x1, x0, :lo12:_ZZL21ShowDemoWindowWidgetsvE5color
	adrp	x0, .LC584
	add	x0, x0, :lo12:.LC584
	bl	_ZN5ImGui12ColorPicker4EPKcPfiPKf
	fmov	s1, -1.0e+0
	movi	v0.2s, #0
	bl	_ZN5ImGui8SameLineEff
	bl	_ZN5ImGui10BeginGroupEv
	adrp	x0, .LC585
	add	x0, x0, :lo12:.LC585
	bl	_ZN5ImGui4TextEPKcz
	add	x0, sp, 824
	mov	w1, 1109393408
	fmov	s1, w1
	mov	w1, 1114636288
	fmov	s0, w1
	bl	_ZN6ImVec2C1Eff
	add	x0, sp, 824
	mov	x3, x0
	mov	w2, 262148
	adrp	x0, _ZZL21ShowDemoWindowWidgetsvE5color
	add	x1, x0, :lo12:_ZZL21ShowDemoWindowWidgetsvE5color
	adrp	x0, .LC586
	add	x0, x0, :lo12:.LC586
	bl	_ZN5ImGui11ColorButtonEPKcRK6ImVec4iRK6ImVec2
	adrp	x0, .LC587
	add	x0, x0, :lo12:.LC587
	bl	_ZN5ImGui4TextEPKcz
	add	x0, sp, 824
	mov	w1, 1109393408
	fmov	s1, w1
	mov	w1, 1114636288
	fmov	s0, w1
	bl	_ZN6ImVec2C1Eff
	add	x0, sp, 824
	mov	x3, x0
	mov	w2, 262148
	adrp	x0, _ZZL21ShowDemoWindowWidgetsvE12backup_color
	add	x1, x0, :lo12:_ZZL21ShowDemoWindowWidgetsvE12backup_color
	adrp	x0, .LC588
	add	x0, x0, :lo12:.LC588
	bl	_ZN5ImGui11ColorButtonEPKcRK6ImVec4iRK6ImVec2
	and	w0, w0, 255
	cmp	w0, 0
	beq	.L398
	adrp	x0, _ZZL21ShowDemoWindowWidgetsvE5color
	add	x2, x0, :lo12:_ZZL21ShowDemoWindowWidgetsvE5color
	adrp	x0, _ZZL21ShowDemoWindowWidgetsvE12backup_color
	add	x0, x0, :lo12:_ZZL21ShowDemoWindowWidgetsvE12backup_color
	ldp	x0, x1, [x0]
	stp	x0, x1, [x2]
.L398:
	bl	_ZN5ImGui9SeparatorEv
	adrp	x0, .LC581
	add	x0, x0, :lo12:.LC581
	bl	_ZN5ImGui4TextEPKcz
	str	wzr, [sp, 496]
	b	.L399
.L405:
	ldr	w0, [sp, 496]
	bl	_ZN5ImGui6PushIDEi
	ldr	w0, [sp, 496]
	and	w0, w0, 7
	cmp	w0, 0
	beq	.L400
	bl	_ZN5ImGui8GetStyleEv
	ldr	s0, [x0, 80]
	fmov	s1, s0
	movi	v0.2s, #0
	bl	_ZN5ImGui8SameLineEff
.L400:
	mov	w0, 70
	str	w0, [sp, 564]
	ldrsw	x0, [sp, 496]
	lsl	x1, x0, 4
	adrp	x0, _ZZL21ShowDemoWindowWidgetsvE13saved_palette
	add	x0, x0, :lo12:_ZZL21ShowDemoWindowWidgetsvE13saved_palette
	add	x19, x1, x0
	add	x0, sp, 824
	fmov	s1, 2.0e+1
	fmov	s0, 2.0e+1
	bl	_ZN6ImVec2C1Eff
	add	x0, sp, 824
	mov	x3, x0
	ldr	w2, [sp, 564]
	mov	x1, x19
	adrp	x0, .LC589
	add	x0, x0, :lo12:.LC589
	bl	_ZN5ImGui11ColorButtonEPKcRK6ImVec4iRK6ImVec2
	and	w0, w0, 255
	cmp	w0, 0
	beq	.L401
	adrp	x0, _ZZL21ShowDemoWindowWidgetsvE13saved_palette
	add	x1, x0, :lo12:_ZZL21ShowDemoWindowWidgetsvE13saved_palette
	ldrsw	x0, [sp, 496]
	lsl	x0, x0, 4
	add	x0, x1, x0
	ldr	s0, [x0]
	adrp	x0, _ZZL21ShowDemoWindowWidgetsvE13saved_palette
	add	x1, x0, :lo12:_ZZL21ShowDemoWindowWidgetsvE13saved_palette
	ldrsw	x0, [sp, 496]
	lsl	x0, x0, 4
	add	x0, x1, x0
	ldr	s1, [x0, 4]
	adrp	x0, _ZZL21ShowDemoWindowWidgetsvE13saved_palette
	add	x1, x0, :lo12:_ZZL21ShowDemoWindowWidgetsvE13saved_palette
	ldrsw	x0, [sp, 496]
	lsl	x0, x0, 4
	add	x0, x1, x0
	ldr	s2, [x0, 8]
	adrp	x0, _ZZL21ShowDemoWindowWidgetsvE5color
	add	x0, x0, :lo12:_ZZL21ShowDemoWindowWidgetsvE5color
	ldr	s3, [x0, 12]
	add	x0, sp, 824
	bl	_ZN6ImVec4C1Effff
	adrp	x0, _ZZL21ShowDemoWindowWidgetsvE5color
	add	x2, x0, :lo12:_ZZL21ShowDemoWindowWidgetsvE5color
	add	x0, sp, 1056
	ldp	x0, x1, [x0, -232]
	stp	x0, x1, [x2]
.L401:
	bl	_ZN5ImGui19BeginDragDropTargetEv
	and	w0, w0, 255
	cmp	w0, 0
	beq	.L402
	mov	w1, 0
	adrp	x0, .LC590
	add	x0, x0, :lo12:.LC590
	bl	_ZN5ImGui21AcceptDragDropPayloadEPKci
	str	x0, [sp, 768]
	ldr	x0, [sp, 768]
	cmp	x0, 0
	beq	.L403
	ldrsw	x0, [sp, 496]
	lsl	x1, x0, 4
	adrp	x0, _ZZL21ShowDemoWindowWidgetsvE13saved_palette
	add	x0, x0, :lo12:_ZZL21ShowDemoWindowWidgetsvE13saved_palette
	add	x3, x1, x0
	ldr	x0, [sp, 768]
	ldr	x0, [x0]
	mov	x2, 12
	mov	x1, x0
	mov	x0, x3
	bl	memcpy
.L403:
	mov	w1, 0
	adrp	x0, .LC591
	add	x0, x0, :lo12:.LC591
	bl	_ZN5ImGui21AcceptDragDropPayloadEPKci
	str	x0, [sp, 776]
	ldr	x0, [sp, 776]
	cmp	x0, 0
	beq	.L404
	ldrsw	x0, [sp, 496]
	lsl	x1, x0, 4
	adrp	x0, _ZZL21ShowDemoWindowWidgetsvE13saved_palette
	add	x0, x0, :lo12:_ZZL21ShowDemoWindowWidgetsvE13saved_palette
	add	x2, x1, x0
	ldr	x0, [sp, 776]
	ldr	x0, [x0]
	ldp	x0, x1, [x0]
	stp	x0, x1, [x2]
.L404:
	bl	_ZN5ImGui17EndDragDropTargetEv
.L402:
	bl	_ZN5ImGui5PopIDEv
	ldr	w0, [sp, 496]
	add	w0, w0, 1
	str	w0, [sp, 496]
.L399:
	ldr	w0, [sp, 496]
	cmp	w0, 31
	ble	.L405
	bl	_ZN5ImGui8EndGroupEv
	bl	_ZN5ImGui8EndPopupEv
.L397:
	adrp	x0, GImGuiDemoMarkerCallback
	add	x0, x0, :lo12:GImGuiDemoMarkerCallback
	ldr	x0, [x0]
	cmp	x0, 0
	beq	.L406
	adrp	x0, GImGuiDemoMarkerCallback
	add	x0, x0, :lo12:GImGuiDemoMarkerCallback
	ldr	x4, [x0]
	adrp	x0, GImGuiDemoMarkerCallbackUserData
	add	x0, x0, :lo12:GImGuiDemoMarkerCallbackUserData
	ldr	x0, [x0]
	mov	x3, x0
	adrp	x0, .LC592
	add	x2, x0, :lo12:.LC592
	mov	w1, 1841
	adrp	x0, .LC156
	add	x0, x0, :lo12:.LC156
	blr	x4
.L406:
	adrp	x0, .LC593
	add	x0, x0, :lo12:.LC593
	bl	_ZN5ImGui4TextEPKcz
	adrp	x0, _ZZL21ShowDemoWindowWidgetsvE9no_border
	add	x1, x0, :lo12:_ZZL21ShowDemoWindowWidgetsvE9no_border
	adrp	x0, .LC594
	add	x0, x0, :lo12:.LC594
	bl	_ZN5ImGui8CheckboxEPKcPb
	adrp	x0, _ZZL21ShowDemoWindowWidgetsvE9no_border
	add	x0, x0, :lo12:_ZZL21ShowDemoWindowWidgetsvE9no_border
	ldrb	w0, [x0]
	cmp	w0, 0
	beq	.L407
	mov	w0, 1024
	b	.L408
.L407:
	mov	w0, 0
.L408:
	ldr	w1, [sp, 560]
	orr	w19, w0, w1
	add	x0, sp, 824
	mov	w1, 1117782016
	fmov	s1, w1
	mov	w1, 1117782016
	fmov	s0, w1
	bl	_ZN6ImVec2C1Eff
	add	x0, sp, 824
	mov	x3, x0
	mov	w2, w19
	adrp	x0, _ZZL21ShowDemoWindowWidgetsvE5color
	add	x1, x0, :lo12:_ZZL21ShowDemoWindowWidgetsvE5color
	adrp	x0, .LC595
	add	x0, x0, :lo12:.LC595
	bl	_ZN5ImGui11ColorButtonEPKcRK6ImVec4iRK6ImVec2
	adrp	x0, GImGuiDemoMarkerCallback
	add	x0, x0, :lo12:GImGuiDemoMarkerCallback
	ldr	x0, [x0]
	cmp	x0, 0
	beq	.L409
	adrp	x0, GImGuiDemoMarkerCallback
	add	x0, x0, :lo12:GImGuiDemoMarkerCallback
	ldr	x4, [x0]
	adrp	x0, GImGuiDemoMarkerCallbackUserData
	add	x0, x0, :lo12:GImGuiDemoMarkerCallbackUserData
	ldr	x0, [x0]
	mov	x3, x0
	adrp	x0, .LC596
	add	x2, x0, :lo12:.LC596
	mov	w1, 1847
	adrp	x0, .LC156
	add	x0, x0, :lo12:.LC156
	blr	x4
.L409:
	adrp	x0, .LC597
	add	x0, x0, :lo12:.LC597
	bl	_ZN5ImGui4TextEPKcz
	adrp	x0, _ZZL21ShowDemoWindowWidgetsvE5alpha
	add	x1, x0, :lo12:_ZZL21ShowDemoWindowWidgetsvE5alpha
	adrp	x0, .LC598
	add	x0, x0, :lo12:.LC598
	bl	_ZN5ImGui8CheckboxEPKcPb
	adrp	x0, _ZZL21ShowDemoWindowWidgetsvE9alpha_bar
	add	x1, x0, :lo12:_ZZL21ShowDemoWindowWidgetsvE9alpha_bar
	adrp	x0, .LC599
	add	x0, x0, :lo12:.LC599
	bl	_ZN5ImGui8CheckboxEPKcPb
	adrp	x0, _ZZL21ShowDemoWindowWidgetsvE12side_preview
	add	x1, x0, :lo12:_ZZL21ShowDemoWindowWidgetsvE12side_preview
	adrp	x0, .LC600
	add	x0, x0, :lo12:.LC600
	bl	_ZN5ImGui8CheckboxEPKcPb
	adrp	x0, _ZZL21ShowDemoWindowWidgetsvE12side_preview
	add	x0, x0, :lo12:_ZZL21ShowDemoWindowWidgetsvE12side_preview
	ldrb	w0, [x0]
	cmp	w0, 0
	beq	.L410
	fmov	s1, -1.0e+0
	movi	v0.2s, #0
	bl	_ZN5ImGui8SameLineEff
	adrp	x0, _ZZL21ShowDemoWindowWidgetsvE9ref_color
	add	x1, x0, :lo12:_ZZL21ShowDemoWindowWidgetsvE9ref_color
	adrp	x0, .LC601
	add	x0, x0, :lo12:.LC601
	bl	_ZN5ImGui8CheckboxEPKcPb
	adrp	x0, _ZZL21ShowDemoWindowWidgetsvE9ref_color
	add	x0, x0, :lo12:_ZZL21ShowDemoWindowWidgetsvE9ref_color
	ldrb	w0, [x0]
	cmp	w0, 0
	beq	.L410
	fmov	s1, -1.0e+0
	movi	v0.2s, #0
	bl	_ZN5ImGui8SameLineEff
	ldr	w0, [sp, 560]
	orr	w0, w0, 32
	mov	w2, w0
	adrp	x0, _ZZL21ShowDemoWindowWidgetsvE11ref_color_v
	add	x1, x0, :lo12:_ZZL21ShowDemoWindowWidgetsvE11ref_color_v
	adrp	x0, .LC602
	add	x0, x0, :lo12:.LC602
	bl	_ZN5ImGui10ColorEdit4EPKcPfi
.L410:
	mov	w3, -1
	adrp	x0, .LC603
	add	x2, x0, :lo12:.LC603
	adrp	x0, _ZZL21ShowDemoWindowWidgetsvE12display_mode
	add	x1, x0, :lo12:_ZZL21ShowDemoWindowWidgetsvE12display_mode
	adrp	x0, .LC604
	add	x0, x0, :lo12:.LC604
	bl	_ZN5ImGui5ComboEPKcPiS1_i
	fmov	s1, -1.0e+0
	movi	v0.2s, #0
	bl	_ZN5ImGui8SameLineEff
	adrp	x0, .LC605
	add	x0, x0, :lo12:.LC605
	bl	_ZL10HelpMarkerPKc
	fmov	s1, -1.0e+0
	movi	v0.2s, #0
	bl	_ZN5ImGui8SameLineEff
	adrp	x0, .LC606
	add	x0, x0, :lo12:.LC606
	bl	_ZL10HelpMarkerPKc
	ldr	w0, [sp, 560]
	str	w0, [sp, 500]
	adrp	x0, _ZZL21ShowDemoWindowWidgetsvE5alpha
	add	x0, x0, :lo12:_ZZL21ShowDemoWindowWidgetsvE5alpha
	ldrb	w0, [x0]
	eor	w0, w0, 1
	and	w0, w0, 255
	cmp	w0, 0
	beq	.L411
	ldr	w0, [sp, 500]
	orr	w0, w0, 2
	str	w0, [sp, 500]
.L411:
	adrp	x0, _ZZL21ShowDemoWindowWidgetsvE9alpha_bar
	add	x0, x0, :lo12:_ZZL21ShowDemoWindowWidgetsvE9alpha_bar
	ldrb	w0, [x0]
	cmp	w0, 0
	beq	.L412
	ldr	w0, [sp, 500]
	orr	w0, w0, 65536
	str	w0, [sp, 500]
.L412:
	adrp	x0, _ZZL21ShowDemoWindowWidgetsvE12side_preview
	add	x0, x0, :lo12:_ZZL21ShowDemoWindowWidgetsvE12side_preview
	ldrb	w0, [x0]
	eor	w0, w0, 1
	and	w0, w0, 255
	cmp	w0, 0
	beq	.L413
	ldr	w0, [sp, 500]
	orr	w0, w0, 256
	str	w0, [sp, 500]
.L413:
	adrp	x0, _ZZL21ShowDemoWindowWidgetsvE11picker_mode
	add	x0, x0, :lo12:_ZZL21ShowDemoWindowWidgetsvE11picker_mode
	ldr	w0, [x0]
	cmp	w0, 1
	bne	.L414
	ldr	w0, [sp, 500]
	orr	w0, w0, 33554432
	str	w0, [sp, 500]
.L414:
	adrp	x0, _ZZL21ShowDemoWindowWidgetsvE11picker_mode
	add	x0, x0, :lo12:_ZZL21ShowDemoWindowWidgetsvE11picker_mode
	ldr	w0, [x0]
	cmp	w0, 2
	bne	.L415
	ldr	w0, [sp, 500]
	orr	w0, w0, 67108864
	str	w0, [sp, 500]
.L415:
	adrp	x0, _ZZL21ShowDemoWindowWidgetsvE12display_mode
	add	x0, x0, :lo12:_ZZL21ShowDemoWindowWidgetsvE12display_mode
	ldr	w0, [x0]
	cmp	w0, 1
	bne	.L416
	ldr	w0, [sp, 500]
	orr	w0, w0, 32
	str	w0, [sp, 500]
.L416:
	adrp	x0, _ZZL21ShowDemoWindowWidgetsvE12display_mode
	add	x0, x0, :lo12:_ZZL21ShowDemoWindowWidgetsvE12display_mode
	ldr	w0, [x0]
	cmp	w0, 2
	bne	.L417
	ldr	w0, [sp, 500]
	orr	w0, w0, 1048576
	str	w0, [sp, 500]
.L417:
	adrp	x0, _ZZL21ShowDemoWindowWidgetsvE12display_mode
	add	x0, x0, :lo12:_ZZL21ShowDemoWindowWidgetsvE12display_mode
	ldr	w0, [x0]
	cmp	w0, 3
	bne	.L418
	ldr	w0, [sp, 500]
	orr	w0, w0, 2097152
	str	w0, [sp, 500]
.L418:
	adrp	x0, _ZZL21ShowDemoWindowWidgetsvE12display_mode
	add	x0, x0, :lo12:_ZZL21ShowDemoWindowWidgetsvE12display_mode
	ldr	w0, [x0]
	cmp	w0, 4
	bne	.L419
	ldr	w0, [sp, 500]
	orr	w0, w0, 4194304
	str	w0, [sp, 500]
.L419:
	adrp	x0, _ZZL21ShowDemoWindowWidgetsvE9ref_color
	add	x0, x0, :lo12:_ZZL21ShowDemoWindowWidgetsvE9ref_color
	ldrb	w0, [x0]
	cmp	w0, 0
	beq	.L420
	adrp	x0, _ZZL21ShowDemoWindowWidgetsvE11ref_color_v
	add	x0, x0, :lo12:_ZZL21ShowDemoWindowWidgetsvE11ref_color_v
	b	.L421
.L420:
	mov	x0, 0
.L421:
	mov	x3, x0
	ldr	w2, [sp, 500]
	adrp	x0, _ZZL21ShowDemoWindowWidgetsvE5color
	add	x1, x0, :lo12:_ZZL21ShowDemoWindowWidgetsvE5color
	adrp	x0, .LC607
	add	x0, x0, :lo12:.LC607
	bl	_ZN5ImGui12ColorPicker4EPKcPfiPKf
	adrp	x0, .LC608
	add	x0, x0, :lo12:.LC608
	bl	_ZN5ImGui4TextEPKcz
	fmov	s1, -1.0e+0
	movi	v0.2s, #0
	bl	_ZN5ImGui8SameLineEff
	adrp	x0, .LC609
	add	x0, x0, :lo12:.LC609
	bl	_ZL10HelpMarkerPKc
	add	x0, sp, 824
	movi	v1.2s, #0
	movi	v0.2s, #0
	bl	_ZN6ImVec2C1Eff
	add	x0, sp, 824
	mov	x1, x0
	adrp	x0, .LC610
	add	x0, x0, :lo12:.LC610
	bl	_ZN5ImGui6ButtonEPKcRK6ImVec2
	and	w0, w0, 255
	cmp	w0, 0
	beq	.L422
	mov	w0, 44040192
	bl	_ZN5ImGui19SetColorEditOptionsEi
.L422:
	add	x0, sp, 824
	movi	v1.2s, #0
	movi	v0.2s, #0
	bl	_ZN6ImVec2C1Eff
	add	x0, sp, 824
	mov	x1, x0
	adrp	x0, .LC611
	add	x0, x0, :lo12:.LC611
	bl	_ZN5ImGui6ButtonEPKcRK6ImVec2
	and	w0, w0, 255
	cmp	w0, 0
	beq	.L423
	mov	w0, 84410368
	bl	_ZN5ImGui19SetColorEditOptionsEi
.L423:
	adrp	x0, .LC612
	add	x0, x0, :lo12:.LC612
	bl	_ZN5ImGui4TextEPKcz
	bl	_ZN5ImGui21GetContentRegionAvailEv
	fmov	s2, s0
	fmov	s0, s1
	fmov	x0, d2
	fmov	w1, s0
	bfi	x0, x1, 32, 32
	sbfx	x0, x0, 0, 32
	fmov	d8, x0
	bl	_ZN5ImGui8GetStyleEv
	ldr	s0, [x0, 80]
	fsub	s0, s8, s0
	mov	w0, 52429
	movk	w0, 0x3ecc, lsl 16
	fmov	s1, w0
	fmul	s0, s0, s1
	str	s0, [sp, 568]
	ldr	s0, [sp, 568]
	bl	_ZN5ImGui16SetNextItemWidthEf
	mov	w2, 290
	movk	w2, 0x200, lsl 16
	adrp	x0, _ZZL21ShowDemoWindowWidgetsvE5color
	add	x1, x0, :lo12:_ZZL21ShowDemoWindowWidgetsvE5color
	adrp	x0, .LC613
	add	x0, x0, :lo12:.LC613
	bl	_ZN5ImGui12ColorPicker3EPKcPfi
	fmov	s1, -1.0e+0
	movi	v0.2s, #0
	bl	_ZN5ImGui8SameLineEff
	ldr	s0, [sp, 568]
	bl	_ZN5ImGui16SetNextItemWidthEf
	mov	w2, 290
	movk	w2, 0x400, lsl 16
	adrp	x0, _ZZL21ShowDemoWindowWidgetsvE5color
	add	x1, x0, :lo12:_ZZL21ShowDemoWindowWidgetsvE5color
	adrp	x0, .LC614
	add	x0, x0, :lo12:.LC614
	bl	_ZN5ImGui12ColorPicker3EPKcPfi
	bl	_ZN5ImGui7SpacingEv
	adrp	x0, .LC615
