	.arch armv8-a
	.file	"imgui.cpp"
	.text
	.section	.text._ZN6ImVec2C2Ev,"axG",@progbits,_ZN6ImVec2C5Ev,comdat
	.align	2
	.weak	_ZN6ImVec2C2Ev
	.type	_ZN6ImVec2C2Ev, %function
_ZN6ImVec2C2Ev:
.LFB1:
	.cfi_startproc
	sub	sp, sp, #16
	.cfi_def_cfa_offset 16
	str	x0, [sp, 8]
	ldr	x0, [sp, 8]
	str	wzr, [x0]
	ldr	x0, [sp, 8]
	str	wzr, [x0, 4]
	nop
	add	sp, sp, 16
	.cfi_def_cfa_offset 0
	ret
	.cfi_endproc
.LFE1:
	.size	_ZN6ImVec2C2Ev, .-_ZN6ImVec2C2Ev
	.weak	_ZN6ImVec2C1Ev
	.set	_ZN6ImVec2C1Ev,_ZN6ImVec2C2Ev
	.section	.text._ZN6ImVec2C2Eff,"axG",@progbits,_ZN6ImVec2C5Eff,comdat
	.align	2
	.weak	_ZN6ImVec2C2Eff
	.type	_ZN6ImVec2C2Eff, %function
_ZN6ImVec2C2Eff:
.LFB4:
	.cfi_startproc
	sub	sp, sp, #16
	.cfi_def_cfa_offset 16
	str	x0, [sp, 8]
	str	s0, [sp, 4]
	str	s1, [sp]
	ldr	x0, [sp, 8]
	ldr	s0, [sp, 4]
	str	s0, [x0]
	ldr	x0, [sp, 8]
	ldr	s0, [sp]
	str	s0, [x0, 4]
	nop
	add	sp, sp, 16
	.cfi_def_cfa_offset 0
	ret
	.cfi_endproc
.LFE4:
	.size	_ZN6ImVec2C2Eff, .-_ZN6ImVec2C2Eff
	.weak	_ZN6ImVec2C1Eff
	.set	_ZN6ImVec2C1Eff,_ZN6ImVec2C2Eff
	.section	.rodata
	.align	3
.LC32:
	.string	"float& ImVec2::operator[](size_t)"
	.align	3
.LC33:
	.string	"/media/psf/Home/Desktop/git/C-/mac/myproject/external/imgui/include/imgui.h"
	.align	3
.LC34:
	.string	"idx <= 1"
	.section	.text._ZN6ImVec2ixEm,"axG",@progbits,_ZN6ImVec2ixEm,comdat
	.align	2
	.weak	_ZN6ImVec2ixEm
	.type	_ZN6ImVec2ixEm, %function
_ZN6ImVec2ixEm:
.LFB7:
	.cfi_startproc
	stp	x29, x30, [sp, -32]!
	.cfi_def_cfa_offset 32
	.cfi_offset 29, -32
	.cfi_offset 30, -24
	mov	x29, sp
	str	x0, [sp, 24]
	str	x1, [sp, 16]
	ldr	x0, [sp, 16]
	cmp	x0, 1
	bls	.L4
	adrp	x0, .LC32
	add	x3, x0, :lo12:.LC32
	mov	w2, 259
	adrp	x0, .LC33
	add	x1, x0, :lo12:.LC33
	adrp	x0, .LC34
	add	x0, x0, :lo12:.LC34
	bl	__assert_fail
.L4:
	ldr	x1, [sp, 24]
	ldr	x0, [sp, 16]
	lsl	x0, x0, 2
	add	x0, x1, x0
	ldp	x29, x30, [sp], 32
	.cfi_restore 30
	.cfi_restore 29
	.cfi_def_cfa_offset 0
	ret
	.cfi_endproc
.LFE7:
	.size	_ZN6ImVec2ixEm, .-_ZN6ImVec2ixEm
	.section	.text._ZN6ImVec4C2Ev,"axG",@progbits,_ZN6ImVec4C5Ev,comdat
	.align	2
	.weak	_ZN6ImVec4C2Ev
	.type	_ZN6ImVec4C2Ev, %function
_ZN6ImVec4C2Ev:
.LFB9:
	.cfi_startproc
	sub	sp, sp, #16
	.cfi_def_cfa_offset 16
	str	x0, [sp, 8]
	ldr	x0, [sp, 8]
	str	wzr, [x0]
	ldr	x0, [sp, 8]
	str	wzr, [x0, 4]
	ldr	x0, [sp, 8]
	str	wzr, [x0, 8]
	ldr	x0, [sp, 8]
	str	wzr, [x0, 12]
	nop
	add	sp, sp, 16
	.cfi_def_cfa_offset 0
	ret
	.cfi_endproc
.LFE9:
	.size	_ZN6ImVec4C2Ev, .-_ZN6ImVec4C2Ev
	.weak	_ZN6ImVec4C1Ev
	.set	_ZN6ImVec4C1Ev,_ZN6ImVec4C2Ev
	.section	.text._ZN6ImVec4C2Effff,"axG",@progbits,_ZN6ImVec4C5Effff,comdat
	.align	2
	.weak	_ZN6ImVec4C2Effff
	.type	_ZN6ImVec4C2Effff, %function
_ZN6ImVec4C2Effff:
.LFB12:
	.cfi_startproc
	sub	sp, sp, #32
	.cfi_def_cfa_offset 32
	str	x0, [sp, 24]
	str	s0, [sp, 20]
	str	s1, [sp, 16]
	str	s2, [sp, 12]
	str	s3, [sp, 8]
	ldr	x0, [sp, 24]
	ldr	s0, [sp, 20]
	str	s0, [x0]
	ldr	x0, [sp, 24]
	ldr	s0, [sp, 16]
	str	s0, [x0, 4]
	ldr	x0, [sp, 24]
	ldr	s0, [sp, 12]
	str	s0, [x0, 8]
	ldr	x0, [sp, 24]
	ldr	s0, [sp, 8]
	str	s0, [x0, 12]
	nop
	add	sp, sp, 32
	.cfi_def_cfa_offset 0
	ret
	.cfi_endproc
.LFE12:
	.size	_ZN6ImVec4C2Effff, .-_ZN6ImVec4C2Effff
	.weak	_ZN6ImVec4C1Effff
	.set	_ZN6ImVec4C1Effff,_ZN6ImVec4C2Effff
	.section	.text._Znwm12ImNewWrapperPv,"axG",@progbits,_Znwm12ImNewWrapperPv,comdat
	.align	2
	.weak	_Znwm12ImNewWrapperPv
	.type	_Znwm12ImNewWrapperPv, %function
_Znwm12ImNewWrapperPv:
.LFB14:
	.cfi_startproc
	sub	sp, sp, #32
	.cfi_def_cfa_offset 32
	str	x0, [sp, 24]
	strb	w1, [sp, 16]
	str	x2, [sp, 8]
	ldr	x0, [sp, 8]
	add	sp, sp, 32
	.cfi_def_cfa_offset 0
	ret
	.cfi_endproc
.LFE14:
	.size	_Znwm12ImNewWrapperPv, .-_Znwm12ImNewWrapperPv
	.section	.text._ZdlPv12ImNewWrapperS_,"axG",@progbits,_ZdlPv12ImNewWrapperS_,comdat
	.align	2
	.weak	_ZdlPv12ImNewWrapperS_
	.type	_ZdlPv12ImNewWrapperS_, %function
_ZdlPv12ImNewWrapperS_:
.LFB15:
	.cfi_startproc
	sub	sp, sp, #32
	.cfi_def_cfa_offset 32
	str	x0, [sp, 24]
	strb	w1, [sp, 16]
	str	x2, [sp, 8]
	nop
	add	sp, sp, 32
	.cfi_def_cfa_offset 0
	ret
	.cfi_endproc
.LFE15:
	.size	_ZdlPv12ImNewWrapperS_, .-_ZdlPv12ImNewWrapperS_
	.section	.text._ZN12ImGuiPayloadC2Ev,"axG",@progbits,_ZN12ImGuiPayloadC5Ev,comdat
	.align	2
	.weak	_ZN12ImGuiPayloadC2Ev
	.type	_ZN12ImGuiPayloadC2Ev, %function
_ZN12ImGuiPayloadC2Ev:
.LFB63:
	.cfi_startproc
	stp	x29, x30, [sp, -32]!
	.cfi_def_cfa_offset 32
	.cfi_offset 29, -32
	.cfi_offset 30, -24
	mov	x29, sp
	str	x0, [sp, 24]
	ldr	x0, [sp, 24]
	bl	_ZN12ImGuiPayload5ClearEv
	nop
	ldp	x29, x30, [sp], 32
	.cfi_restore 30
	.cfi_restore 29
	.cfi_def_cfa_offset 0
	ret
	.cfi_endproc
.LFE63:
	.size	_ZN12ImGuiPayloadC2Ev, .-_ZN12ImGuiPayloadC2Ev
	.weak	_ZN12ImGuiPayloadC1Ev
	.set	_ZN12ImGuiPayloadC1Ev,_ZN12ImGuiPayloadC2Ev
	.section	.text._ZN12ImGuiPayload5ClearEv,"axG",@progbits,_ZN12ImGuiPayload5ClearEv,comdat
	.align	2
	.weak	_ZN12ImGuiPayload5ClearEv
	.type	_ZN12ImGuiPayload5ClearEv, %function
_ZN12ImGuiPayload5ClearEv:
.LFB65:
	.cfi_startproc
	stp	x29, x30, [sp, -32]!
	.cfi_def_cfa_offset 32
	.cfi_offset 29, -32
	.cfi_offset 30, -24
	mov	x29, sp
	str	x0, [sp, 24]
	ldr	x0, [sp, 24]
	str	wzr, [x0, 16]
	ldr	x0, [sp, 24]
	ldr	w1, [x0, 16]
	ldr	x0, [sp, 24]
	str	w1, [x0, 12]
	ldr	x0, [sp, 24]
	str	xzr, [x0]
	ldr	x0, [sp, 24]
	str	wzr, [x0, 8]
	ldr	x0, [sp, 24]
	add	x0, x0, 24
	mov	x2, 33
	mov	w1, 0
	bl	memset
	ldr	x0, [sp, 24]
	mov	w1, -1
	str	w1, [x0, 20]
	ldr	x0, [sp, 24]
	strb	wzr, [x0, 58]
	ldr	x0, [sp, 24]
	ldrb	w1, [x0, 58]
	ldr	x0, [sp, 24]
	strb	w1, [x0, 57]
	nop
	ldp	x29, x30, [sp], 32
	.cfi_restore 30
	.cfi_restore 29
	.cfi_def_cfa_offset 0
	ret
	.cfi_endproc
.LFE65:
	.size	_ZN12ImGuiPayload5ClearEv, .-_ZN12ImGuiPayload5ClearEv
	.section	.text._ZNK12ImGuiPayload10IsDataTypeEPKc,"axG",@progbits,_ZNK12ImGuiPayload10IsDataTypeEPKc,comdat
	.align	2
	.weak	_ZNK12ImGuiPayload10IsDataTypeEPKc
	.type	_ZNK12ImGuiPayload10IsDataTypeEPKc, %function
_ZNK12ImGuiPayload10IsDataTypeEPKc:
.LFB66:
	.cfi_startproc
	stp	x29, x30, [sp, -32]!
	.cfi_def_cfa_offset 32
	.cfi_offset 29, -32
	.cfi_offset 30, -24
	mov	x29, sp
	str	x0, [sp, 24]
	str	x1, [sp, 16]
	ldr	x0, [sp, 24]
	ldr	w0, [x0, 20]
	cmn	w0, #1
	beq	.L14
	ldr	x0, [sp, 24]
	add	x0, x0, 24
	mov	x1, x0
	ldr	x0, [sp, 16]
	bl	strcmp
	cmp	w0, 0
	bne	.L14
	mov	w0, 1
	b	.L15
.L14:
	mov	w0, 0
.L15:
	ldp	x29, x30, [sp], 32
	.cfi_restore 30
	.cfi_restore 29
	.cfi_def_cfa_offset 0
	ret
	.cfi_endproc
.LFE66:
	.size	_ZNK12ImGuiPayload10IsDataTypeEPKc, .-_ZNK12ImGuiPayload10IsDataTypeEPKc
	.section	.text._ZN15ImGuiTextFilter14ImGuiTextRangeC2EPKcS2_,"axG",@progbits,_ZN15ImGuiTextFilter14ImGuiTextRangeC5EPKcS2_,comdat
	.align	2
	.weak	_ZN15ImGuiTextFilter14ImGuiTextRangeC2EPKcS2_
	.type	_ZN15ImGuiTextFilter14ImGuiTextRangeC2EPKcS2_, %function
_ZN15ImGuiTextFilter14ImGuiTextRangeC2EPKcS2_:
.LFB85:
	.cfi_startproc
	sub	sp, sp, #32
	.cfi_def_cfa_offset 32
	str	x0, [sp, 24]
	str	x1, [sp, 16]
	str	x2, [sp, 8]
	ldr	x0, [sp, 24]
	ldr	x1, [sp, 16]
	str	x1, [x0]
	ldr	x0, [sp, 24]
	ldr	x1, [sp, 8]
	str	x1, [x0, 8]
	nop
	add	sp, sp, 32
	.cfi_def_cfa_offset 0
	ret
	.cfi_endproc
.LFE85:
	.size	_ZN15ImGuiTextFilter14ImGuiTextRangeC2EPKcS2_, .-_ZN15ImGuiTextFilter14ImGuiTextRangeC2EPKcS2_
	.weak	_ZN15ImGuiTextFilter14ImGuiTextRangeC1EPKcS2_
	.set	_ZN15ImGuiTextFilter14ImGuiTextRangeC1EPKcS2_,_ZN15ImGuiTextFilter14ImGuiTextRangeC2EPKcS2_
	.section	.text._ZNK15ImGuiTextFilter14ImGuiTextRange5emptyEv,"axG",@progbits,_ZNK15ImGuiTextFilter14ImGuiTextRange5emptyEv,comdat
	.align	2
	.weak	_ZNK15ImGuiTextFilter14ImGuiTextRange5emptyEv
	.type	_ZNK15ImGuiTextFilter14ImGuiTextRange5emptyEv, %function
_ZNK15ImGuiTextFilter14ImGuiTextRange5emptyEv:
.LFB87:
	.cfi_startproc
	sub	sp, sp, #16
	.cfi_def_cfa_offset 16
	str	x0, [sp, 8]
	ldr	x0, [sp, 8]
	ldr	x1, [x0]
	ldr	x0, [sp, 8]
	ldr	x0, [x0, 8]
	cmp	x1, x0
	cset	w0, eq
	and	w0, w0, 255
	add	sp, sp, 16
	.cfi_def_cfa_offset 0
	ret
	.cfi_endproc
.LFE87:
	.size	_ZNK15ImGuiTextFilter14ImGuiTextRange5emptyEv, .-_ZNK15ImGuiTextFilter14ImGuiTextRange5emptyEv
	.section	.text._ZN15ImGuiTextBufferC2Ev,"axG",@progbits,_ZN15ImGuiTextBufferC5Ev,comdat
	.align	2
	.weak	_ZN15ImGuiTextBufferC2Ev
	.type	_ZN15ImGuiTextBufferC2Ev, %function
_ZN15ImGuiTextBufferC2Ev:
.LFB89:
	.cfi_startproc
	stp	x29, x30, [sp, -32]!
	.cfi_def_cfa_offset 32
	.cfi_offset 29, -32
	.cfi_offset 30, -24
	mov	x29, sp
	str	x0, [sp, 24]
	ldr	x0, [sp, 24]
	bl	_ZN8ImVectorIcEC1Ev
	nop
	ldp	x29, x30, [sp], 32
	.cfi_restore 30
	.cfi_restore 29
	.cfi_def_cfa_offset 0
	ret
	.cfi_endproc
.LFE89:
	.size	_ZN15ImGuiTextBufferC2Ev, .-_ZN15ImGuiTextBufferC2Ev
	.weak	_ZN15ImGuiTextBufferC1Ev
	.set	_ZN15ImGuiTextBufferC1Ev,_ZN15ImGuiTextBufferC2Ev
	.section	.text._ZNK15ImGuiTextBuffer5beginEv,"axG",@progbits,_ZNK15ImGuiTextBuffer5beginEv,comdat
	.align	2
	.weak	_ZNK15ImGuiTextBuffer5beginEv
	.type	_ZNK15ImGuiTextBuffer5beginEv, %function
_ZNK15ImGuiTextBuffer5beginEv:
.LFB92:
	.cfi_startproc
	stp	x29, x30, [sp, -32]!
	.cfi_def_cfa_offset 32
	.cfi_offset 29, -32
	.cfi_offset 30, -24
	mov	x29, sp
	str	x0, [sp, 24]
	ldr	x0, [sp, 24]
	ldr	x0, [x0, 8]
	cmp	x0, 0
	beq	.L22
	ldr	x0, [sp, 24]
	bl	_ZNK8ImVectorIcE5frontEv
	b	.L24
.L22:
	adrp	x0, _ZN15ImGuiTextBuffer11EmptyStringE
	add	x0, x0, :lo12:_ZN15ImGuiTextBuffer11EmptyStringE
.L24:
	ldp	x29, x30, [sp], 32
	.cfi_restore 30
	.cfi_restore 29
	.cfi_def_cfa_offset 0
	ret
	.cfi_endproc
.LFE92:
	.size	_ZNK15ImGuiTextBuffer5beginEv, .-_ZNK15ImGuiTextBuffer5beginEv
	.section	.text._ZNK15ImGuiTextBuffer4sizeEv,"axG",@progbits,_ZNK15ImGuiTextBuffer4sizeEv,comdat
	.align	2
	.weak	_ZNK15ImGuiTextBuffer4sizeEv
	.type	_ZNK15ImGuiTextBuffer4sizeEv, %function
_ZNK15ImGuiTextBuffer4sizeEv:
.LFB94:
	.cfi_startproc
	sub	sp, sp, #16
	.cfi_def_cfa_offset 16
	str	x0, [sp, 8]
	ldr	x0, [sp, 8]
	ldr	w0, [x0]
	cmp	w0, 0
	beq	.L26
	ldr	x0, [sp, 8]
	ldr	w0, [x0]
	sub	w0, w0, #1
	b	.L28
.L26:
	mov	w0, 0
.L28:
	add	sp, sp, 16
	.cfi_def_cfa_offset 0
	ret
	.cfi_endproc
.LFE94:
	.size	_ZNK15ImGuiTextBuffer4sizeEv, .-_ZNK15ImGuiTextBuffer4sizeEv
	.section	.text._ZNK15ImGuiTextBuffer5emptyEv,"axG",@progbits,_ZNK15ImGuiTextBuffer5emptyEv,comdat
	.align	2
	.weak	_ZNK15ImGuiTextBuffer5emptyEv
	.type	_ZNK15ImGuiTextBuffer5emptyEv, %function
_ZNK15ImGuiTextBuffer5emptyEv:
.LFB95:
	.cfi_startproc
	sub	sp, sp, #16
	.cfi_def_cfa_offset 16
	str	x0, [sp, 8]
	ldr	x0, [sp, 8]
	ldr	w0, [x0]
	cmp	w0, 1
	cset	w0, le
	and	w0, w0, 255
	add	sp, sp, 16
	.cfi_def_cfa_offset 0
	ret
	.cfi_endproc
.LFE95:
	.size	_ZNK15ImGuiTextBuffer5emptyEv, .-_ZNK15ImGuiTextBuffer5emptyEv
	.section	.text._ZN15ImGuiTextBuffer5clearEv,"axG",@progbits,_ZN15ImGuiTextBuffer5clearEv,comdat
	.align	2
	.weak	_ZN15ImGuiTextBuffer5clearEv
	.type	_ZN15ImGuiTextBuffer5clearEv, %function
_ZN15ImGuiTextBuffer5clearEv:
.LFB96:
	.cfi_startproc
	stp	x29, x30, [sp, -32]!
	.cfi_def_cfa_offset 32
	.cfi_offset 29, -32
	.cfi_offset 30, -24
	mov	x29, sp
	str	x0, [sp, 24]
	ldr	x0, [sp, 24]
	bl	_ZN8ImVectorIcE5clearEv
	nop
	ldp	x29, x30, [sp], 32
	.cfi_restore 30
	.cfi_restore 29
	.cfi_def_cfa_offset 0
	ret
	.cfi_endproc
.LFE96:
	.size	_ZN15ImGuiTextBuffer5clearEv, .-_ZN15ImGuiTextBuffer5clearEv
	.section	.text._ZN15ImGuiTextBuffer7reserveEi,"axG",@progbits,_ZN15ImGuiTextBuffer7reserveEi,comdat
	.align	2
	.weak	_ZN15ImGuiTextBuffer7reserveEi
	.type	_ZN15ImGuiTextBuffer7reserveEi, %function
_ZN15ImGuiTextBuffer7reserveEi:
.LFB97:
	.cfi_startproc
	stp	x29, x30, [sp, -32]!
	.cfi_def_cfa_offset 32
	.cfi_offset 29, -32
	.cfi_offset 30, -24
	mov	x29, sp
	str	x0, [sp, 24]
	str	w1, [sp, 20]
	ldr	x0, [sp, 24]
	ldr	w1, [sp, 20]
	bl	_ZN8ImVectorIcE7reserveEi
	nop
	ldp	x29, x30, [sp], 32
	.cfi_restore 30
	.cfi_restore 29
	.cfi_def_cfa_offset 0
	ret
	.cfi_endproc
.LFE97:
	.size	_ZN15ImGuiTextBuffer7reserveEi, .-_ZN15ImGuiTextBuffer7reserveEi
	.section	.text._ZNK15ImGuiTextBuffer5c_strEv,"axG",@progbits,_ZNK15ImGuiTextBuffer5c_strEv,comdat
	.align	2
	.weak	_ZNK15ImGuiTextBuffer5c_strEv
	.type	_ZNK15ImGuiTextBuffer5c_strEv, %function
_ZNK15ImGuiTextBuffer5c_strEv:
.LFB98:
	.cfi_startproc
	sub	sp, sp, #16
	.cfi_def_cfa_offset 16
	str	x0, [sp, 8]
	ldr	x0, [sp, 8]
	ldr	x0, [x0, 8]
	cmp	x0, 0
	beq	.L34
	ldr	x0, [sp, 8]
	ldr	x0, [x0, 8]
	b	.L36
.L34:
	adrp	x0, _ZN15ImGuiTextBuffer11EmptyStringE
	add	x0, x0, :lo12:_ZN15ImGuiTextBuffer11EmptyStringE
.L36:
	add	sp, sp, 16
	.cfi_def_cfa_offset 0
	ret
	.cfi_endproc
.LFE98:
	.size	_ZNK15ImGuiTextBuffer5c_strEv, .-_ZNK15ImGuiTextBuffer5c_strEv
	.section	.text._ZN12ImGuiStorage16ImGuiStoragePairC2Eji,"axG",@progbits,_ZN12ImGuiStorage16ImGuiStoragePairC5Eji,comdat
	.align	2
	.weak	_ZN12ImGuiStorage16ImGuiStoragePairC2Eji
	.type	_ZN12ImGuiStorage16ImGuiStoragePairC2Eji, %function
_ZN12ImGuiStorage16ImGuiStoragePairC2Eji:
.LFB100:
	.cfi_startproc
	sub	sp, sp, #16
	.cfi_def_cfa_offset 16
	str	x0, [sp, 8]
	str	w1, [sp, 4]
	str	w2, [sp]
	ldr	x0, [sp, 8]
	ldr	w1, [sp, 4]
	str	w1, [x0]
	ldr	x0, [sp, 8]
	ldr	w1, [sp]
	str	w1, [x0, 8]
	nop
	add	sp, sp, 16
	.cfi_def_cfa_offset 0
	ret
	.cfi_endproc
.LFE100:
	.size	_ZN12ImGuiStorage16ImGuiStoragePairC2Eji, .-_ZN12ImGuiStorage16ImGuiStoragePairC2Eji
	.weak	_ZN12ImGuiStorage16ImGuiStoragePairC1Eji
	.set	_ZN12ImGuiStorage16ImGuiStoragePairC1Eji,_ZN12ImGuiStorage16ImGuiStoragePairC2Eji
	.section	.text._ZN12ImGuiStorage16ImGuiStoragePairC2Ejf,"axG",@progbits,_ZN12ImGuiStorage16ImGuiStoragePairC5Ejf,comdat
	.align	2
	.weak	_ZN12ImGuiStorage16ImGuiStoragePairC2Ejf
	.type	_ZN12ImGuiStorage16ImGuiStoragePairC2Ejf, %function
_ZN12ImGuiStorage16ImGuiStoragePairC2Ejf:
.LFB103:
	.cfi_startproc
	sub	sp, sp, #16
	.cfi_def_cfa_offset 16
	str	x0, [sp, 8]
	str	w1, [sp, 4]
	str	s0, [sp]
	ldr	x0, [sp, 8]
	ldr	w1, [sp, 4]
	str	w1, [x0]
	ldr	x0, [sp, 8]
	ldr	s0, [sp]
	str	s0, [x0, 8]
	nop
	add	sp, sp, 16
	.cfi_def_cfa_offset 0
	ret
	.cfi_endproc
.LFE103:
	.size	_ZN12ImGuiStorage16ImGuiStoragePairC2Ejf, .-_ZN12ImGuiStorage16ImGuiStoragePairC2Ejf
	.weak	_ZN12ImGuiStorage16ImGuiStoragePairC1Ejf
	.set	_ZN12ImGuiStorage16ImGuiStoragePairC1Ejf,_ZN12ImGuiStorage16ImGuiStoragePairC2Ejf
	.section	.text._ZN12ImGuiStorage16ImGuiStoragePairC2EjPv,"axG",@progbits,_ZN12ImGuiStorage16ImGuiStoragePairC5EjPv,comdat
	.align	2
	.weak	_ZN12ImGuiStorage16ImGuiStoragePairC2EjPv
	.type	_ZN12ImGuiStorage16ImGuiStoragePairC2EjPv, %function
_ZN12ImGuiStorage16ImGuiStoragePairC2EjPv:
.LFB106:
	.cfi_startproc
	sub	sp, sp, #32
	.cfi_def_cfa_offset 32
	str	x0, [sp, 24]
	str	w1, [sp, 20]
	str	x2, [sp, 8]
	ldr	x0, [sp, 24]
	ldr	w1, [sp, 20]
	str	w1, [x0]
	ldr	x0, [sp, 24]
	ldr	x1, [sp, 8]
	str	x1, [x0, 8]
	nop
	add	sp, sp, 32
	.cfi_def_cfa_offset 0
	ret
	.cfi_endproc
.LFE106:
	.size	_ZN12ImGuiStorage16ImGuiStoragePairC2EjPv, .-_ZN12ImGuiStorage16ImGuiStoragePairC2EjPv
	.weak	_ZN12ImGuiStorage16ImGuiStoragePairC1EjPv
	.set	_ZN12ImGuiStorage16ImGuiStoragePairC1EjPv,_ZN12ImGuiStorage16ImGuiStoragePairC2EjPv
	.section	.text._ZN12ImGuiStorage5ClearEv,"axG",@progbits,_ZN12ImGuiStorage5ClearEv,comdat
	.align	2
	.weak	_ZN12ImGuiStorage5ClearEv
	.type	_ZN12ImGuiStorage5ClearEv, %function
_ZN12ImGuiStorage5ClearEv:
.LFB108:
	.cfi_startproc
	stp	x29, x30, [sp, -32]!
	.cfi_def_cfa_offset 32
	.cfi_offset 29, -32
	.cfi_offset 30, -24
	mov	x29, sp
	str	x0, [sp, 24]
	ldr	x0, [sp, 24]
	bl	_ZN8ImVectorIN12ImGuiStorage16ImGuiStoragePairEE5clearEv
	nop
	ldp	x29, x30, [sp], 32
	.cfi_restore 30
	.cfi_restore 29
	.cfi_def_cfa_offset 0
	ret
	.cfi_endproc
.LFE108:
	.size	_ZN12ImGuiStorage5ClearEv, .-_ZN12ImGuiStorage5ClearEv
	.section	.text._ZN18ImDrawListSplitterC2Ev,"axG",@progbits,_ZN18ImDrawListSplitterC5Ev,comdat
	.align	2
	.weak	_ZN18ImDrawListSplitterC2Ev
	.type	_ZN18ImDrawListSplitterC2Ev, %function
_ZN18ImDrawListSplitterC2Ev:
.LFB136:
	.cfi_startproc
	stp	x29, x30, [sp, -32]!
	.cfi_def_cfa_offset 32
	.cfi_offset 29, -32
	.cfi_offset 30, -24
	mov	x29, sp
	str	x0, [sp, 24]
	ldr	x0, [sp, 24]
	add	x0, x0, 8
	bl	_ZN8ImVectorI13ImDrawChannelEC1Ev
	mov	x2, 24
	mov	w1, 0
	ldr	x0, [sp, 24]
	bl	memset
	nop
	ldp	x29, x30, [sp], 32
	.cfi_restore 30
	.cfi_restore 29
	.cfi_def_cfa_offset 0
	ret
	.cfi_endproc
.LFE136:
	.size	_ZN18ImDrawListSplitterC2Ev, .-_ZN18ImDrawListSplitterC2Ev
	.weak	_ZN18ImDrawListSplitterC1Ev
	.set	_ZN18ImDrawListSplitterC1Ev,_ZN18ImDrawListSplitterC2Ev
	.section	.text._ZN18ImDrawListSplitterD2Ev,"axG",@progbits,_ZN18ImDrawListSplitterD5Ev,comdat
	.align	2
	.weak	_ZN18ImDrawListSplitterD2Ev
	.type	_ZN18ImDrawListSplitterD2Ev, %function
_ZN18ImDrawListSplitterD2Ev:
.LFB139:
	.cfi_startproc
	.cfi_personality 0x9b,DW.ref.__gxx_personality_v0
	.cfi_lsda 0x1b,.LLSDA139
	stp	x29, x30, [sp, -32]!
	.cfi_def_cfa_offset 32
	.cfi_offset 29, -32
	.cfi_offset 30, -24
	mov	x29, sp
	str	x0, [sp, 24]
	ldr	x0, [sp, 24]
	bl	_ZN18ImDrawListSplitter15ClearFreeMemoryEv
	ldr	x0, [sp, 24]
	add	x0, x0, 8
	bl	_ZN8ImVectorI13ImDrawChannelED1Ev
	nop
	ldp	x29, x30, [sp], 32
	.cfi_restore 30
	.cfi_restore 29
	.cfi_def_cfa_offset 0
	ret
	.cfi_endproc
.LFE139:
	.global	__gxx_personality_v0
	.section	.gcc_except_table._ZN18ImDrawListSplitterD2Ev,"aG",@progbits,_ZN18ImDrawListSplitterD5Ev,comdat
.LLSDA139:
	.byte	0xff
	.byte	0xff
	.byte	0x1
	.uleb128 .LLSDACSE139-.LLSDACSB139
.LLSDACSB139:
.LLSDACSE139:
	.section	.text._ZN18ImDrawListSplitterD2Ev,"axG",@progbits,_ZN18ImDrawListSplitterD5Ev,comdat
	.size	_ZN18ImDrawListSplitterD2Ev, .-_ZN18ImDrawListSplitterD2Ev
	.weak	_ZN18ImDrawListSplitterD1Ev
	.set	_ZN18ImDrawListSplitterD1Ev,_ZN18ImDrawListSplitterD2Ev
	.section	.text._ZN15ImDrawCmdHeaderC2Ev,"axG",@progbits,_ZN15ImDrawCmdHeaderC5Ev,comdat
	.align	2
	.weak	_ZN15ImDrawCmdHeaderC2Ev
	.type	_ZN15ImDrawCmdHeaderC2Ev, %function
_ZN15ImDrawCmdHeaderC2Ev:
.LFB144:
	.cfi_startproc
	stp	x29, x30, [sp, -32]!
	.cfi_def_cfa_offset 32
	.cfi_offset 29, -32
	.cfi_offset 30, -24
	mov	x29, sp
	str	x0, [sp, 24]
	ldr	x0, [sp, 24]
	bl	_ZN6ImVec4C1Ev
	nop
	ldp	x29, x30, [sp], 32
	.cfi_restore 30
	.cfi_restore 29
	.cfi_def_cfa_offset 0
	ret
	.cfi_endproc
.LFE144:
	.size	_ZN15ImDrawCmdHeaderC2Ev, .-_ZN15ImDrawCmdHeaderC2Ev
	.weak	_ZN15ImDrawCmdHeaderC1Ev
	.set	_ZN15ImDrawCmdHeaderC1Ev,_ZN15ImDrawCmdHeaderC2Ev
	.section	.text._ZN10ImDrawListC2EP20ImDrawListSharedData,"axG",@progbits,_ZN10ImDrawListC5EP20ImDrawListSharedData,comdat
	.align	2
	.weak	_ZN10ImDrawListC2EP20ImDrawListSharedData
	.type	_ZN10ImDrawListC2EP20ImDrawListSharedData, %function
_ZN10ImDrawListC2EP20ImDrawListSharedData:
.LFB146:
	.cfi_startproc
	stp	x29, x30, [sp, -32]!
	.cfi_def_cfa_offset 32
	.cfi_offset 29, -32
	.cfi_offset 30, -24
	mov	x29, sp
	str	x0, [sp, 24]
	str	x1, [sp, 16]
	ldr	x0, [sp, 24]
	bl	_ZN8ImVectorI9ImDrawCmdEC1Ev
	ldr	x0, [sp, 24]
	add	x0, x0, 16
	bl	_ZN8ImVectorItEC1Ev
	ldr	x0, [sp, 24]
	add	x0, x0, 32
	bl	_ZN8ImVectorI10ImDrawVertEC1Ev
	ldr	x0, [sp, 24]
	add	x0, x0, 88
	bl	_ZN8ImVectorI6ImVec4EC1Ev
	ldr	x0, [sp, 24]
	add	x0, x0, 104
	bl	_ZN8ImVectorIPvEC1Ev
	ldr	x0, [sp, 24]
	add	x0, x0, 120
	bl	_ZN8ImVectorI6ImVec2EC1Ev
	ldr	x0, [sp, 24]
	add	x0, x0, 136
	bl	_ZN15ImDrawCmdHeaderC1Ev
	ldr	x0, [sp, 24]
	add	x0, x0, 168
	bl	_ZN18ImDrawListSplitterC1Ev
	mov	x2, 200
	mov	w1, 0
	ldr	x0, [sp, 24]
	bl	memset
	ldr	x0, [sp, 24]
	ldr	x1, [sp, 16]
	str	x1, [x0, 56]
	nop
	ldp	x29, x30, [sp], 32
	.cfi_restore 30
	.cfi_restore 29
	.cfi_def_cfa_offset 0
	ret
	.cfi_endproc
.LFE146:
	.size	_ZN10ImDrawListC2EP20ImDrawListSharedData, .-_ZN10ImDrawListC2EP20ImDrawListSharedData
	.weak	_ZN10ImDrawListC1EP20ImDrawListSharedData
	.set	_ZN10ImDrawListC1EP20ImDrawListSharedData,_ZN10ImDrawListC2EP20ImDrawListSharedData
	.section	.text._ZN10ImDrawListD2Ev,"axG",@progbits,_ZN10ImDrawListD5Ev,comdat
	.align	2
	.weak	_ZN10ImDrawListD2Ev
	.type	_ZN10ImDrawListD2Ev, %function
_ZN10ImDrawListD2Ev:
.LFB149:
	.cfi_startproc
	.cfi_personality 0x9b,DW.ref.__gxx_personality_v0
	.cfi_lsda 0x1b,.LLSDA149
	stp	x29, x30, [sp, -32]!
	.cfi_def_cfa_offset 32
	.cfi_offset 29, -32
	.cfi_offset 30, -24
	mov	x29, sp
	str	x0, [sp, 24]
	ldr	x0, [sp, 24]
	bl	_ZN10ImDrawList16_ClearFreeMemoryEv
	ldr	x0, [sp, 24]
	add	x0, x0, 168
	bl	_ZN18ImDrawListSplitterD1Ev
	ldr	x0, [sp, 24]
	add	x0, x0, 120
	bl	_ZN8ImVectorI6ImVec2ED1Ev
	ldr	x0, [sp, 24]
	add	x0, x0, 104
	bl	_ZN8ImVectorIPvED1Ev
	ldr	x0, [sp, 24]
	add	x0, x0, 88
	bl	_ZN8ImVectorI6ImVec4ED1Ev
	ldr	x0, [sp, 24]
	add	x0, x0, 32
	bl	_ZN8ImVectorI10ImDrawVertED1Ev
	ldr	x0, [sp, 24]
	add	x0, x0, 16
	bl	_ZN8ImVectorItED1Ev
	ldr	x0, [sp, 24]
	bl	_ZN8ImVectorI9ImDrawCmdED1Ev
	nop
	ldp	x29, x30, [sp], 32
	.cfi_restore 30
	.cfi_restore 29
	.cfi_def_cfa_offset 0
	ret
	.cfi_endproc
.LFE149:
	.section	.gcc_except_table._ZN10ImDrawListD2Ev,"aG",@progbits,_ZN10ImDrawListD5Ev,comdat
.LLSDA149:
	.byte	0xff
	.byte	0xff
	.byte	0x1
	.uleb128 .LLSDACSE149-.LLSDACSB149
.LLSDACSB149:
.LLSDACSE149:
	.section	.text._ZN10ImDrawListD2Ev,"axG",@progbits,_ZN10ImDrawListD5Ev,comdat
	.size	_ZN10ImDrawListD2Ev, .-_ZN10ImDrawListD2Ev
	.weak	_ZN10ImDrawListD1Ev
	.set	_ZN10ImDrawListD1Ev,_ZN10ImDrawListD2Ev
	.section	.text._ZN10ImDrawList10PathLineToERK6ImVec2,"axG",@progbits,_ZN10ImDrawList10PathLineToERK6ImVec2,comdat
	.align	2
	.weak	_ZN10ImDrawList10PathLineToERK6ImVec2
	.type	_ZN10ImDrawList10PathLineToERK6ImVec2, %function
_ZN10ImDrawList10PathLineToERK6ImVec2:
.LFB154:
	.cfi_startproc
	stp	x29, x30, [sp, -32]!
	.cfi_def_cfa_offset 32
	.cfi_offset 29, -32
	.cfi_offset 30, -24
	mov	x29, sp
	str	x0, [sp, 24]
	str	x1, [sp, 16]
	ldr	x0, [sp, 24]
	add	x0, x0, 120
	ldr	x1, [sp, 16]
	bl	_ZN8ImVectorI6ImVec2E9push_backERKS0_
	nop
	ldp	x29, x30, [sp], 32
	.cfi_restore 30
	.cfi_restore 29
	.cfi_def_cfa_offset 0
	ret
	.cfi_endproc
.LFE154:
	.size	_ZN10ImDrawList10PathLineToERK6ImVec2, .-_ZN10ImDrawList10PathLineToERK6ImVec2
	.section	.text._ZN10ImDrawList14PathFillConvexEj,"axG",@progbits,_ZN10ImDrawList14PathFillConvexEj,comdat
	.align	2
	.weak	_ZN10ImDrawList14PathFillConvexEj
	.type	_ZN10ImDrawList14PathFillConvexEj, %function
_ZN10ImDrawList14PathFillConvexEj:
.LFB156:
	.cfi_startproc
	stp	x29, x30, [sp, -32]!
	.cfi_def_cfa_offset 32
	.cfi_offset 29, -32
	.cfi_offset 30, -24
	mov	x29, sp
	str	x0, [sp, 24]
	str	w1, [sp, 20]
	ldr	x0, [sp, 24]
	ldr	x1, [x0, 128]
	ldr	x0, [sp, 24]
	ldr	w0, [x0, 120]
	ldr	w3, [sp, 20]
	mov	w2, w0
	ldr	x0, [sp, 24]
	bl	_ZN10ImDrawList19AddConvexPolyFilledEPK6ImVec2ij
	ldr	x0, [sp, 24]
	str	wzr, [x0, 120]
	nop
	ldp	x29, x30, [sp], 32
	.cfi_restore 30
	.cfi_restore 29
	.cfi_def_cfa_offset 0
	ret
	.cfi_endproc
.LFE156:
	.size	_ZN10ImDrawList14PathFillConvexEj, .-_ZN10ImDrawList14PathFillConvexEj
	.section	.text._ZN10ImDrawList10PathStrokeEjif,"axG",@progbits,_ZN10ImDrawList10PathStrokeEjif,comdat
	.align	2
	.weak	_ZN10ImDrawList10PathStrokeEjif
	.type	_ZN10ImDrawList10PathStrokeEjif, %function
_ZN10ImDrawList10PathStrokeEjif:
.LFB157:
	.cfi_startproc
	stp	x29, x30, [sp, -48]!
	.cfi_def_cfa_offset 48
	.cfi_offset 29, -48
	.cfi_offset 30, -40
	mov	x29, sp
	str	x0, [sp, 40]
	str	w1, [sp, 36]
	str	w2, [sp, 32]
	str	s0, [sp, 28]
	ldr	x0, [sp, 40]
	ldr	x1, [x0, 128]
	ldr	x0, [sp, 40]
	ldr	w0, [x0, 120]
	ldr	s0, [sp, 28]
	ldr	w4, [sp, 32]
	ldr	w3, [sp, 36]
	mov	w2, w0
	ldr	x0, [sp, 40]
	bl	_ZN10ImDrawList11AddPolylineEPK6ImVec2ijif
	ldr	x0, [sp, 40]
	str	wzr, [x0, 120]
	nop
	ldp	x29, x30, [sp], 48
	.cfi_restore 30
	.cfi_restore 29
	.cfi_def_cfa_offset 0
	ret
	.cfi_endproc
.LFE157:
	.size	_ZN10ImDrawList10PathStrokeEjif, .-_ZN10ImDrawList10PathStrokeEjif
	.section	.text._ZN10ImDrawDataC2Ev,"axG",@progbits,_ZN10ImDrawDataC5Ev,comdat
	.align	2
	.weak	_ZN10ImDrawDataC2Ev
	.type	_ZN10ImDrawDataC2Ev, %function
_ZN10ImDrawDataC2Ev:
.LFB167:
	.cfi_startproc
	stp	x29, x30, [sp, -32]!
	.cfi_def_cfa_offset 32
	.cfi_offset 29, -32
	.cfi_offset 30, -24
	mov	x29, sp
	str	x0, [sp, 24]
	ldr	x0, [sp, 24]
	add	x0, x0, 24
	bl	_ZN6ImVec2C1Ev
	ldr	x0, [sp, 24]
	add	x0, x0, 32
	bl	_ZN6ImVec2C1Ev
	ldr	x0, [sp, 24]
	add	x0, x0, 40
	bl	_ZN6ImVec2C1Ev
	ldr	x0, [sp, 24]
	bl	_ZN10ImDrawData5ClearEv
	nop
	ldp	x29, x30, [sp], 32
	.cfi_restore 30
	.cfi_restore 29
	.cfi_def_cfa_offset 0
	ret
	.cfi_endproc
.LFE167:
	.size	_ZN10ImDrawDataC2Ev, .-_ZN10ImDrawDataC2Ev
	.weak	_ZN10ImDrawDataC1Ev
	.set	_ZN10ImDrawDataC1Ev,_ZN10ImDrawDataC2Ev
	.section	.text._ZN10ImDrawData5ClearEv,"axG",@progbits,_ZN10ImDrawData5ClearEv,comdat
	.align	2
	.weak	_ZN10ImDrawData5ClearEv
	.type	_ZN10ImDrawData5ClearEv, %function
_ZN10ImDrawData5ClearEv:
.LFB169:
	.cfi_startproc
	stp	x29, x30, [sp, -32]!
	.cfi_def_cfa_offset 32
	.cfi_offset 29, -32
	.cfi_offset 30, -24
	mov	x29, sp
	str	x0, [sp, 24]
	mov	x2, 48
	mov	w1, 0
	ldr	x0, [sp, 24]
	bl	memset
	nop
	ldp	x29, x30, [sp], 32
	.cfi_restore 30
	.cfi_restore 29
	.cfi_def_cfa_offset 0
	ret
	.cfi_endproc
.LFE169:
	.size	_ZN10ImDrawData5ClearEv, .-_ZN10ImDrawData5ClearEv
	.section	.text._ZNK11ImFontAtlas7IsBuiltEv,"axG",@progbits,_ZNK11ImFontAtlas7IsBuiltEv,comdat
	.align	2
	.weak	_ZNK11ImFontAtlas7IsBuiltEv
	.type	_ZNK11ImFontAtlas7IsBuiltEv, %function
_ZNK11ImFontAtlas7IsBuiltEv:
.LFB181:
	.cfi_startproc
	sub	sp, sp, #16
	.cfi_def_cfa_offset 16
	str	x0, [sp, 8]
	ldr	x0, [sp, 8]
	ldr	w0, [x0, 72]
	cmp	w0, 0
	ble	.L52
	ldr	x0, [sp, 8]
	ldrb	w0, [x0, 25]
	cmp	w0, 0
	beq	.L52
	mov	w0, 1
	b	.L53
.L52:
	mov	w0, 0
.L53:
	add	sp, sp, 16
	.cfi_def_cfa_offset 0
	ret
	.cfi_endproc
.LFE181:
	.size	_ZNK11ImFontAtlas7IsBuiltEv, .-_ZNK11ImFontAtlas7IsBuiltEv
	.section	.text._ZNK6ImFont8IsLoadedEv,"axG",@progbits,_ZNK6ImFont8IsLoadedEv,comdat
	.align	2
	.weak	_ZNK6ImFont8IsLoadedEv
	.type	_ZNK6ImFont8IsLoadedEv, %function
_ZNK6ImFont8IsLoadedEv:
.LFB185:
	.cfi_startproc
	sub	sp, sp, #16
	.cfi_def_cfa_offset 16
	str	x0, [sp, 8]
	ldr	x0, [sp, 8]
	ldr	x0, [x0, 64]
	cmp	x0, 0
	cset	w0, ne
	and	w0, w0, 255
	add	sp, sp, 16
	.cfi_def_cfa_offset 0
	ret
	.cfi_endproc
.LFE185:
	.size	_ZNK6ImFont8IsLoadedEv, .-_ZNK6ImFont8IsLoadedEv
	.section	.text._ZN13ImGuiViewportC2Ev,"axG",@progbits,_ZN13ImGuiViewportC5Ev,comdat
	.align	2
	.weak	_ZN13ImGuiViewportC2Ev
	.type	_ZN13ImGuiViewportC2Ev, %function
_ZN13ImGuiViewportC2Ev:
.LFB188:
	.cfi_startproc
	stp	x29, x30, [sp, -32]!
	.cfi_def_cfa_offset 32
	.cfi_offset 29, -32
	.cfi_offset 30, -24
	mov	x29, sp
	str	x0, [sp, 24]
	ldr	x0, [sp, 24]
	add	x0, x0, 4
	bl	_ZN6ImVec2C1Ev
	ldr	x0, [sp, 24]
	add	x0, x0, 12
	bl	_ZN6ImVec2C1Ev
	ldr	x0, [sp, 24]
	add	x0, x0, 20
	bl	_ZN6ImVec2C1Ev
	ldr	x0, [sp, 24]
	add	x0, x0, 28
	bl	_ZN6ImVec2C1Ev
	mov	x2, 48
	mov	w1, 0
	ldr	x0, [sp, 24]
	bl	memset
	nop
	ldp	x29, x30, [sp], 32
	.cfi_restore 30
	.cfi_restore 29
	.cfi_def_cfa_offset 0
	ret
	.cfi_endproc
.LFE188:
	.size	_ZN13ImGuiViewportC2Ev, .-_ZN13ImGuiViewportC2Ev
	.weak	_ZN13ImGuiViewportC1Ev
	.set	_ZN13ImGuiViewportC1Ev,_ZN13ImGuiViewportC2Ev
	.section	.text._ZNK13ImGuiViewport9GetCenterEv,"axG",@progbits,_ZNK13ImGuiViewport9GetCenterEv,comdat
	.align	2
	.weak	_ZNK13ImGuiViewport9GetCenterEv
	.type	_ZNK13ImGuiViewport9GetCenterEv, %function
_ZNK13ImGuiViewport9GetCenterEv:
.LFB190:
	.cfi_startproc
	stp	x29, x30, [sp, -48]!
	.cfi_def_cfa_offset 48
	.cfi_offset 29, -48
	.cfi_offset 30, -40
	mov	x29, sp
	str	x0, [sp, 24]
	adrp	x0, :got:__stack_chk_guard
	ldr	x0, [x0, #:got_lo12:__stack_chk_guard]
	ldr	x1, [x0]
	str	x1, [sp, 40]
	mov	x1, 0
	ldr	x0, [sp, 24]
	ldr	s1, [x0, 4]
	ldr	x0, [sp, 24]
	ldr	s2, [x0, 12]
	fmov	s0, 5.0e-1
	fmul	s0, s2, s0
	fadd	s3, s1, s0
	ldr	x0, [sp, 24]
	ldr	s1, [x0, 8]
	ldr	x0, [sp, 24]
	ldr	s2, [x0, 16]
	fmov	s0, 5.0e-1
	fmul	s0, s2, s0
	fadd	s0, s1, s0
	add	x0, sp, 32
	fmov	s1, s0
	fmov	s0, s3
	bl	_ZN6ImVec2C1Eff
	ldr	x0, [sp, 32]
	mov	x1, x0
	lsr	w1, w1, 0
	lsr	x0, x0, 32
	fmov	s0, w1
	fmov	s1, w0
	adrp	x0, :got:__stack_chk_guard
	ldr	x0, [x0, #:got_lo12:__stack_chk_guard]
	ldr	x2, [sp, 40]
	ldr	x1, [x0]
	subs	x2, x2, x1
	mov	x1, 0
	beq	.L60
	bl	__stack_chk_fail
.L60:
	ldp	x29, x30, [sp], 48
	.cfi_restore 30
	.cfi_restore 29
	.cfi_def_cfa_offset 0
	ret
	.cfi_endproc
.LFE190:
	.size	_ZNK13ImGuiViewport9GetCenterEv, .-_ZNK13ImGuiViewport9GetCenterEv
	.section	.text._ZN20ImGuiPlatformImeDataC2Ev,"axG",@progbits,_ZN20ImGuiPlatformImeDataC5Ev,comdat
	.align	2
	.weak	_ZN20ImGuiPlatformImeDataC2Ev
	.type	_ZN20ImGuiPlatformImeDataC2Ev, %function
_ZN20ImGuiPlatformImeDataC2Ev:
.LFB193:
	.cfi_startproc
	stp	x29, x30, [sp, -32]!
	.cfi_def_cfa_offset 32
	.cfi_offset 29, -32
	.cfi_offset 30, -24
	mov	x29, sp
	str	x0, [sp, 24]
	ldr	x0, [sp, 24]
	add	x0, x0, 4
	bl	_ZN6ImVec2C1Ev
	mov	x2, 16
	mov	w1, 0
	ldr	x0, [sp, 24]
	bl	memset
	nop
	ldp	x29, x30, [sp], 32
	.cfi_restore 30
	.cfi_restore 29
	.cfi_def_cfa_offset 0
	ret
	.cfi_endproc
.LFE193:
	.size	_ZN20ImGuiPlatformImeDataC2Ev, .-_ZN20ImGuiPlatformImeDataC2Ev
	.weak	_ZN20ImGuiPlatformImeDataC1Ev
	.set	_ZN20ImGuiPlatformImeDataC1Ev,_ZN20ImGuiPlatformImeDataC2Ev
	.text
	.align	2
	.type	_ZL7ImQsortPvmmPFiPKvS1_E, %function
_ZL7ImQsortPvmmPFiPKvS1_E:
.LFB1149:
	.cfi_startproc
	stp	x29, x30, [sp, -48]!
	.cfi_def_cfa_offset 48
	.cfi_offset 29, -48
	.cfi_offset 30, -40
	mov	x29, sp
	str	x0, [sp, 40]
	str	x1, [sp, 32]
	str	x2, [sp, 24]
	str	x3, [sp, 16]
	ldr	x0, [sp, 32]
	cmp	x0, 1
	bls	.L64
	ldr	x3, [sp, 16]
	ldr	x2, [sp, 24]
	ldr	x1, [sp, 32]
	ldr	x0, [sp, 40]
	bl	qsort
.L64:
	nop
	ldp	x29, x30, [sp], 48
	.cfi_restore 30
	.cfi_restore 29
	.cfi_def_cfa_offset 0
	ret
	.cfi_endproc
.LFE1149:
	.size	_ZL7ImQsortPvmmPFiPKvS1_E, .-_ZL7ImQsortPvmmPFiPKvS1_E
	.align	2
	.type	_ZL14ImIsPowerOfTwoi, %function
_ZL14ImIsPowerOfTwoi:
.LFB1150:
	.cfi_startproc
	sub	sp, sp, #16
	.cfi_def_cfa_offset 16
	str	w0, [sp, 12]
	ldr	w0, [sp, 12]
	cmp	w0, 0
	beq	.L66
	ldr	w0, [sp, 12]
	sub	w1, w0, #1
	ldr	w0, [sp, 12]
	and	w0, w1, w0
	cmp	w0, 0
	bne	.L66
	mov	w0, 1
	b	.L67
.L66:
	mov	w0, 0
.L67:
	add	sp, sp, 16
	.cfi_def_cfa_offset 0
	ret
	.cfi_endproc
.LFE1150:
	.size	_ZL14ImIsPowerOfTwoi, .-_ZL14ImIsPowerOfTwoi
	.align	2
	.type	_ZL9ImToUpperc, %function
_ZL9ImToUpperc:
.LFB1153:
	.cfi_startproc
	sub	sp, sp, #16
	.cfi_def_cfa_offset 16
	strb	w0, [sp, 15]
	ldrb	w0, [sp, 15]
	cmp	w0, 96
	bls	.L70
	ldrb	w0, [sp, 15]
	cmp	w0, 122
	bhi	.L70
	ldrb	w0, [sp, 15]
	and	w0, w0, -33
	strb	w0, [sp, 15]
	ldrb	w0, [sp, 15]
	b	.L71
.L70:
	ldrb	w0, [sp, 15]
.L71:
	add	sp, sp, 16
	.cfi_def_cfa_offset 0
	ret
	.cfi_endproc
.LFE1153:
	.size	_ZL9ImToUpperc, .-_ZL9ImToUpperc
	.align	2
	.type	_ZL14ImCharIsBlankAc, %function
_ZL14ImCharIsBlankAc:
.LFB1154:
	.cfi_startproc
	sub	sp, sp, #16
	.cfi_def_cfa_offset 16
	strb	w0, [sp, 15]
	ldrb	w0, [sp, 15]
	cmp	w0, 32
	beq	.L74
	ldrb	w0, [sp, 15]
	cmp	w0, 9
	bne	.L75
.L74:
	mov	w0, 1
	b	.L76
.L75:
	mov	w0, 0
.L76:
	add	sp, sp, 16
	.cfi_def_cfa_offset 0
	ret
	.cfi_endproc
.LFE1154:
	.size	_ZL14ImCharIsBlankAc, .-_ZL14ImCharIsBlankAc
	.align	2
	.type	_ZmlRK6ImVec2f, %function
_ZmlRK6ImVec2f:
.LFB1156:
	.cfi_startproc
	stp	x29, x30, [sp, -48]!
	.cfi_def_cfa_offset 48
	.cfi_offset 29, -48
	.cfi_offset 30, -40
	mov	x29, sp
	str	x0, [sp, 24]
	str	s0, [sp, 20]
	adrp	x0, :got:__stack_chk_guard
	ldr	x0, [x0, #:got_lo12:__stack_chk_guard]
	ldr	x1, [x0]
	str	x1, [sp, 40]
	mov	x1, 0
	ldr	x0, [sp, 24]
	ldr	s1, [x0]
	ldr	s0, [sp, 20]
	fmul	s2, s1, s0
	ldr	x0, [sp, 24]
	ldr	s1, [x0, 4]
	ldr	s0, [sp, 20]
	fmul	s0, s1, s0
	add	x0, sp, 32
	fmov	s1, s0
	fmov	s0, s2
	bl	_ZN6ImVec2C1Eff
	ldr	x0, [sp, 32]
	mov	x1, x0
	lsr	w1, w1, 0
	lsr	x0, x0, 32
	fmov	s0, w1
	fmov	s1, w0
	adrp	x0, :got:__stack_chk_guard
	ldr	x0, [x0, #:got_lo12:__stack_chk_guard]
	ldr	x2, [sp, 40]
	ldr	x1, [x0]
	subs	x2, x2, x1
	mov	x1, 0
	beq	.L80
	bl	__stack_chk_fail
.L80:
	ldp	x29, x30, [sp], 48
	.cfi_restore 30
	.cfi_restore 29
	.cfi_def_cfa_offset 0
	ret
	.cfi_endproc
.LFE1156:
	.size	_ZmlRK6ImVec2f, .-_ZmlRK6ImVec2f
	.align	2
	.type	_ZdvRK6ImVec2f, %function
_ZdvRK6ImVec2f:
.LFB1157:
	.cfi_startproc
	stp	x29, x30, [sp, -48]!
	.cfi_def_cfa_offset 48
	.cfi_offset 29, -48
	.cfi_offset 30, -40
	mov	x29, sp
	str	x0, [sp, 24]
	str	s0, [sp, 20]
	adrp	x0, :got:__stack_chk_guard
	ldr	x0, [x0, #:got_lo12:__stack_chk_guard]
	ldr	x1, [x0]
	str	x1, [sp, 40]
	mov	x1, 0
	ldr	x0, [sp, 24]
	ldr	s1, [x0]
	ldr	s0, [sp, 20]
	fdiv	s2, s1, s0
	ldr	x0, [sp, 24]
	ldr	s1, [x0, 4]
	ldr	s0, [sp, 20]
	fdiv	s0, s1, s0
	add	x0, sp, 32
	fmov	s1, s0
	fmov	s0, s2
	bl	_ZN6ImVec2C1Eff
	ldr	x0, [sp, 32]
	mov	x1, x0
	lsr	w1, w1, 0
	lsr	x0, x0, 32
	fmov	s0, w1
	fmov	s1, w0
	adrp	x0, :got:__stack_chk_guard
	ldr	x0, [x0, #:got_lo12:__stack_chk_guard]
	ldr	x2, [sp, 40]
	ldr	x1, [x0]
	subs	x2, x2, x1
	mov	x1, 0
	beq	.L83
	bl	__stack_chk_fail
.L83:
	ldp	x29, x30, [sp], 48
	.cfi_restore 30
	.cfi_restore 29
	.cfi_def_cfa_offset 0
	ret
	.cfi_endproc
.LFE1157:
	.size	_ZdvRK6ImVec2f, .-_ZdvRK6ImVec2f
	.align	2
	.type	_ZplRK6ImVec2S1_, %function
_ZplRK6ImVec2S1_:
.LFB1158:
	.cfi_startproc
	stp	x29, x30, [sp, -48]!
	.cfi_def_cfa_offset 48
	.cfi_offset 29, -48
	.cfi_offset 30, -40
	mov	x29, sp
	str	x0, [sp, 24]
	str	x1, [sp, 16]
	adrp	x0, :got:__stack_chk_guard
	ldr	x0, [x0, #:got_lo12:__stack_chk_guard]
	ldr	x1, [x0]
	str	x1, [sp, 40]
	mov	x1, 0
	ldr	x0, [sp, 24]
	ldr	s1, [x0]
	ldr	x0, [sp, 16]
	ldr	s0, [x0]
	fadd	s2, s1, s0
	ldr	x0, [sp, 24]
	ldr	s1, [x0, 4]
	ldr	x0, [sp, 16]
	ldr	s0, [x0, 4]
	fadd	s0, s1, s0
	add	x0, sp, 32
	fmov	s1, s0
	fmov	s0, s2
	bl	_ZN6ImVec2C1Eff
	ldr	x0, [sp, 32]
	mov	x1, x0
	lsr	w1, w1, 0
	lsr	x0, x0, 32
	fmov	s0, w1
	fmov	s1, w0
	adrp	x0, :got:__stack_chk_guard
	ldr	x0, [x0, #:got_lo12:__stack_chk_guard]
	ldr	x2, [sp, 40]
	ldr	x1, [x0]
	subs	x2, x2, x1
	mov	x1, 0
	beq	.L86
	bl	__stack_chk_fail
.L86:
	ldp	x29, x30, [sp], 48
	.cfi_restore 30
	.cfi_restore 29
	.cfi_def_cfa_offset 0
	ret
	.cfi_endproc
.LFE1158:
	.size	_ZplRK6ImVec2S1_, .-_ZplRK6ImVec2S1_
	.align	2
	.type	_ZmiRK6ImVec2S1_, %function
_ZmiRK6ImVec2S1_:
.LFB1159:
	.cfi_startproc
	stp	x29, x30, [sp, -48]!
	.cfi_def_cfa_offset 48
	.cfi_offset 29, -48
	.cfi_offset 30, -40
	mov	x29, sp
	str	x0, [sp, 24]
	str	x1, [sp, 16]
	adrp	x0, :got:__stack_chk_guard
	ldr	x0, [x0, #:got_lo12:__stack_chk_guard]
	ldr	x1, [x0]
	str	x1, [sp, 40]
	mov	x1, 0
	ldr	x0, [sp, 24]
	ldr	s1, [x0]
	ldr	x0, [sp, 16]
	ldr	s0, [x0]
	fsub	s2, s1, s0
	ldr	x0, [sp, 24]
	ldr	s1, [x0, 4]
	ldr	x0, [sp, 16]
	ldr	s0, [x0, 4]
	fsub	s0, s1, s0
	add	x0, sp, 32
	fmov	s1, s0
	fmov	s0, s2
	bl	_ZN6ImVec2C1Eff
	ldr	x0, [sp, 32]
	mov	x1, x0
	lsr	w1, w1, 0
	lsr	x0, x0, 32
	fmov	s0, w1
	fmov	s1, w0
	adrp	x0, :got:__stack_chk_guard
	ldr	x0, [x0, #:got_lo12:__stack_chk_guard]
	ldr	x2, [sp, 40]
	ldr	x1, [x0]
	subs	x2, x2, x1
	mov	x1, 0
	beq	.L89
	bl	__stack_chk_fail
.L89:
	ldp	x29, x30, [sp], 48
	.cfi_restore 30
	.cfi_restore 29
	.cfi_def_cfa_offset 0
	ret
	.cfi_endproc
.LFE1159:
	.size	_ZmiRK6ImVec2S1_, .-_ZmiRK6ImVec2S1_
	.align	2
	.type	_ZmlRK6ImVec2S1_, %function
_ZmlRK6ImVec2S1_:
.LFB1160:
	.cfi_startproc
	stp	x29, x30, [sp, -48]!
	.cfi_def_cfa_offset 48
	.cfi_offset 29, -48
	.cfi_offset 30, -40
	mov	x29, sp
	str	x0, [sp, 24]
	str	x1, [sp, 16]
	adrp	x0, :got:__stack_chk_guard
	ldr	x0, [x0, #:got_lo12:__stack_chk_guard]
	ldr	x1, [x0]
	str	x1, [sp, 40]
	mov	x1, 0
	ldr	x0, [sp, 24]
	ldr	s1, [x0]
	ldr	x0, [sp, 16]
	ldr	s0, [x0]
	fmul	s2, s1, s0
	ldr	x0, [sp, 24]
	ldr	s1, [x0, 4]
	ldr	x0, [sp, 16]
	ldr	s0, [x0, 4]
	fmul	s0, s1, s0
	add	x0, sp, 32
	fmov	s1, s0
	fmov	s0, s2
	bl	_ZN6ImVec2C1Eff
	ldr	x0, [sp, 32]
	mov	x1, x0
	lsr	w1, w1, 0
	lsr	x0, x0, 32
	fmov	s0, w1
	fmov	s1, w0
	adrp	x0, :got:__stack_chk_guard
	ldr	x0, [x0, #:got_lo12:__stack_chk_guard]
	ldr	x2, [sp, 40]
	ldr	x1, [x0]
	subs	x2, x2, x1
	mov	x1, 0
	beq	.L92
	bl	__stack_chk_fail
.L92:
	ldp	x29, x30, [sp], 48
	.cfi_restore 30
	.cfi_restore 29
	.cfi_def_cfa_offset 0
	ret
	.cfi_endproc
.LFE1160:
	.size	_ZmlRK6ImVec2S1_, .-_ZmlRK6ImVec2S1_
	.align	2
	.type	_ZdvRK6ImVec2S1_, %function
_ZdvRK6ImVec2S1_:
.LFB1161:
	.cfi_startproc
	stp	x29, x30, [sp, -48]!
	.cfi_def_cfa_offset 48
	.cfi_offset 29, -48
	.cfi_offset 30, -40
	mov	x29, sp
	str	x0, [sp, 24]
	str	x1, [sp, 16]
	adrp	x0, :got:__stack_chk_guard
	ldr	x0, [x0, #:got_lo12:__stack_chk_guard]
	ldr	x1, [x0]
	str	x1, [sp, 40]
	mov	x1, 0
	ldr	x0, [sp, 24]
	ldr	s1, [x0]
	ldr	x0, [sp, 16]
	ldr	s0, [x0]
	fdiv	s2, s1, s0
	ldr	x0, [sp, 24]
	ldr	s1, [x0, 4]
	ldr	x0, [sp, 16]
	ldr	s0, [x0, 4]
	fdiv	s0, s1, s0
	add	x0, sp, 32
	fmov	s1, s0
	fmov	s0, s2
	bl	_ZN6ImVec2C1Eff
	ldr	x0, [sp, 32]
	mov	x1, x0
	lsr	w1, w1, 0
	lsr	x0, x0, 32
	fmov	s0, w1
	fmov	s1, w0
	adrp	x0, :got:__stack_chk_guard
	ldr	x0, [x0, #:got_lo12:__stack_chk_guard]
	ldr	x2, [sp, 40]
	ldr	x1, [x0]
	subs	x2, x2, x1
	mov	x1, 0
	beq	.L95
	bl	__stack_chk_fail
.L95:
	ldp	x29, x30, [sp], 48
	.cfi_restore 30
	.cfi_restore 29
	.cfi_def_cfa_offset 0
	ret
	.cfi_endproc
.LFE1161:
	.size	_ZdvRK6ImVec2S1_, .-_ZdvRK6ImVec2S1_
	.align	2
	.type	_ZpLR6ImVec2RKS_, %function
_ZpLR6ImVec2RKS_:
.LFB1164:
	.cfi_startproc
	sub	sp, sp, #16
	.cfi_def_cfa_offset 16
	str	x0, [sp, 8]
	str	x1, [sp]
	ldr	x0, [sp, 8]
	ldr	s1, [x0]
	ldr	x0, [sp]
	ldr	s0, [x0]
	fadd	s0, s1, s0
	ldr	x0, [sp, 8]
	str	s0, [x0]
	ldr	x0, [sp, 8]
	ldr	s1, [x0, 4]
	ldr	x0, [sp]
	ldr	s0, [x0, 4]
	fadd	s0, s1, s0
	ldr	x0, [sp, 8]
	str	s0, [x0, 4]
	ldr	x0, [sp, 8]
	add	sp, sp, 16
	.cfi_def_cfa_offset 0
	ret
	.cfi_endproc
.LFE1164:
	.size	_ZpLR6ImVec2RKS_, .-_ZpLR6ImVec2RKS_
	.align	2
	.type	_ZmIR6ImVec2RKS_, %function
_ZmIR6ImVec2RKS_:
.LFB1165:
	.cfi_startproc
	sub	sp, sp, #16
	.cfi_def_cfa_offset 16
	str	x0, [sp, 8]
	str	x1, [sp]
	ldr	x0, [sp, 8]
	ldr	s1, [x0]
	ldr	x0, [sp]
	ldr	s0, [x0]
	fsub	s0, s1, s0
	ldr	x0, [sp, 8]
	str	s0, [x0]
	ldr	x0, [sp, 8]
	ldr	s1, [x0, 4]
	ldr	x0, [sp]
	ldr	s0, [x0, 4]
	fsub	s0, s1, s0
	ldr	x0, [sp, 8]
	str	s0, [x0, 4]
	ldr	x0, [sp, 8]
	add	sp, sp, 16
	.cfi_def_cfa_offset 0
	ret
	.cfi_endproc
.LFE1165:
	.size	_ZmIR6ImVec2RKS_, .-_ZmIR6ImVec2RKS_
	.align	2
	.type	_ZL5ImAbsf, %function
_ZL5ImAbsf:
.LFB1176:
	.cfi_startproc
	sub	sp, sp, #16
	.cfi_def_cfa_offset 16
	str	s0, [sp, 12]
	ldr	s0, [sp, 12]
	fabs	s0, s0
	add	sp, sp, 16
	.cfi_def_cfa_offset 0
	ret
	.cfi_endproc
.LFE1176:
	.size	_ZL5ImAbsf, .-_ZL5ImAbsf
	.align	2
	.type	_ZL5ImMinRK6ImVec2S1_, %function
_ZL5ImMinRK6ImVec2S1_:
.LFB1189:
	.cfi_startproc
	stp	x29, x30, [sp, -48]!
	.cfi_def_cfa_offset 48
	.cfi_offset 29, -48
	.cfi_offset 30, -40
	mov	x29, sp
	str	x0, [sp, 24]
	str	x1, [sp, 16]
	adrp	x0, :got:__stack_chk_guard
	ldr	x0, [x0, #:got_lo12:__stack_chk_guard]
	ldr	x1, [x0]
	str	x1, [sp, 40]
	mov	x1, 0
	ldr	x0, [sp, 24]
	ldr	s1, [x0]
	ldr	x0, [sp, 16]
	ldr	s0, [x0]
	fcmpe	s1, s0
	bmi	.L111
	b	.L113
.L111:
	ldr	x0, [sp, 24]
	ldr	s0, [x0]
	b	.L105
.L113:
	ldr	x0, [sp, 16]
	ldr	s0, [x0]
.L105:
	ldr	x0, [sp, 24]
	ldr	s2, [x0, 4]
	ldr	x0, [sp, 16]
	ldr	s1, [x0, 4]
	fcmpe	s2, s1
	bmi	.L112
	b	.L114
.L112:
	ldr	x0, [sp, 24]
	ldr	s1, [x0, 4]
	b	.L108
.L114:
	ldr	x0, [sp, 16]
	ldr	s1, [x0, 4]
.L108:
	add	x0, sp, 32
	bl	_ZN6ImVec2C1Eff
	ldr	x0, [sp, 32]
	mov	x1, x0
	lsr	w1, w1, 0
	lsr	x0, x0, 32
	fmov	s0, w1
	fmov	s1, w0
	adrp	x0, :got:__stack_chk_guard
	ldr	x0, [x0, #:got_lo12:__stack_chk_guard]
	ldr	x2, [sp, 40]
	ldr	x1, [x0]
	subs	x2, x2, x1
	mov	x1, 0
	beq	.L110
	bl	__stack_chk_fail
.L110:
	ldp	x29, x30, [sp], 48
	.cfi_restore 30
	.cfi_restore 29
	.cfi_def_cfa_offset 0
	ret
	.cfi_endproc
.LFE1189:
	.size	_ZL5ImMinRK6ImVec2S1_, .-_ZL5ImMinRK6ImVec2S1_
	.align	2
	.type	_ZL5ImMaxRK6ImVec2S1_, %function
_ZL5ImMaxRK6ImVec2S1_:
.LFB1190:
	.cfi_startproc
	stp	x29, x30, [sp, -48]!
	.cfi_def_cfa_offset 48
	.cfi_offset 29, -48
	.cfi_offset 30, -40
	mov	x29, sp
	str	x0, [sp, 24]
	str	x1, [sp, 16]
	adrp	x0, :got:__stack_chk_guard
	ldr	x0, [x0, #:got_lo12:__stack_chk_guard]
	ldr	x1, [x0]
	str	x1, [sp, 40]
	mov	x1, 0
	ldr	x0, [sp, 24]
	ldr	s1, [x0]
	ldr	x0, [sp, 16]
	ldr	s0, [x0]
	fcmpe	s1, s0
	bge	.L124
	b	.L126
.L124:
	ldr	x0, [sp, 24]
	ldr	s0, [x0]
	b	.L118
.L126:
	ldr	x0, [sp, 16]
	ldr	s0, [x0]
.L118:
	ldr	x0, [sp, 24]
	ldr	s2, [x0, 4]
	ldr	x0, [sp, 16]
	ldr	s1, [x0, 4]
	fcmpe	s2, s1
	bge	.L125
	b	.L127
.L125:
	ldr	x0, [sp, 24]
	ldr	s1, [x0, 4]
	b	.L121
.L127:
	ldr	x0, [sp, 16]
	ldr	s1, [x0, 4]
.L121:
	add	x0, sp, 32
	bl	_ZN6ImVec2C1Eff
	ldr	x0, [sp, 32]
	mov	x1, x0
	lsr	w1, w1, 0
	lsr	x0, x0, 32
	fmov	s0, w1
	fmov	s1, w0
	adrp	x0, :got:__stack_chk_guard
	ldr	x0, [x0, #:got_lo12:__stack_chk_guard]
	ldr	x2, [sp, 40]
	ldr	x1, [x0]
	subs	x2, x2, x1
	mov	x1, 0
	beq	.L123
	bl	__stack_chk_fail
.L123:
	ldp	x29, x30, [sp], 48
	.cfi_restore 30
	.cfi_restore 29
	.cfi_def_cfa_offset 0
	ret
	.cfi_endproc
.LFE1190:
	.size	_ZL5ImMaxRK6ImVec2S1_, .-_ZL5ImMaxRK6ImVec2S1_
	.align	2
	.type	_ZL7ImClampRK6ImVec2S1_S_, %function
_ZL7ImClampRK6ImVec2S1_S_:
.LFB1191:
	.cfi_startproc
	stp	x29, x30, [sp, -64]!
	.cfi_def_cfa_offset 64
	.cfi_offset 29, -64
	.cfi_offset 30, -56
	mov	x29, sp
	str	x0, [sp, 40]
	str	x1, [sp, 32]
	fmov	s2, s0
	fmov	s0, s1
	fmov	x0, d2
	fmov	w1, s0
	bfi	x0, x1, 32, 32
	str	x0, [sp, 24]
	adrp	x0, :got:__stack_chk_guard
	ldr	x0, [x0, #:got_lo12:__stack_chk_guard]
	ldr	x1, [x0]
	str	x1, [sp, 56]
	mov	x1, 0
	ldr	x0, [sp, 40]
	ldr	s1, [x0]
	ldr	x0, [sp, 32]
	ldr	s0, [x0]
	fcmpe	s1, s0
	bmi	.L143
	b	.L147
.L143:
	ldr	x0, [sp, 32]
	ldr	s0, [x0]
	b	.L131
.L147:
	ldr	x0, [sp, 40]
	ldr	s1, [x0]
	ldr	s0, [sp, 24]
	fcmpe	s1, s0
	bgt	.L144
	b	.L148
.L144:
	ldr	s0, [sp, 24]
	b	.L131
.L148:
	ldr	x0, [sp, 40]
	ldr	s0, [x0]
.L131:
	ldr	x0, [sp, 40]
	ldr	s2, [x0, 4]
	ldr	x0, [sp, 32]
	ldr	s1, [x0, 4]
	fcmpe	s2, s1
	bmi	.L145
	b	.L149
.L145:
	ldr	x0, [sp, 32]
	ldr	s1, [x0, 4]
	b	.L137
.L149:
	ldr	x0, [sp, 40]
	ldr	s2, [x0, 4]
	ldr	s1, [sp, 28]
	fcmpe	s2, s1
	bgt	.L146
	b	.L150
.L146:
	ldr	s1, [sp, 28]
	b	.L137
.L150:
	ldr	x0, [sp, 40]
	ldr	s1, [x0, 4]
.L137:
	add	x0, sp, 48
	bl	_ZN6ImVec2C1Eff
	ldr	x0, [sp, 48]
	mov	x1, x0
	lsr	w1, w1, 0
	lsr	x0, x0, 32
	fmov	s0, w1
	fmov	s1, w0
	adrp	x0, :got:__stack_chk_guard
	ldr	x0, [x0, #:got_lo12:__stack_chk_guard]
	ldr	x2, [sp, 56]
	ldr	x1, [x0]
	subs	x2, x2, x1
	mov	x1, 0
	beq	.L142
	bl	__stack_chk_fail
.L142:
	ldp	x29, x30, [sp], 64
	.cfi_restore 30
	.cfi_restore 29
	.cfi_def_cfa_offset 0
	ret
	.cfi_endproc
.LFE1191:
	.size	_ZL7ImClampRK6ImVec2S1_S_, .-_ZL7ImClampRK6ImVec2S1_S_
	.align	2
	.type	_ZL6ImLerpRK6ImVec2S1_S1_, %function
_ZL6ImLerpRK6ImVec2S1_S1_:
.LFB1193:
	.cfi_startproc
	stp	x29, x30, [sp, -64]!
	.cfi_def_cfa_offset 64
	.cfi_offset 29, -64
	.cfi_offset 30, -56
	mov	x29, sp
	str	x0, [sp, 40]
	str	x1, [sp, 32]
	str	x2, [sp, 24]
	adrp	x0, :got:__stack_chk_guard
	ldr	x0, [x0, #:got_lo12:__stack_chk_guard]
	ldr	x1, [x0]
	str	x1, [sp, 56]
	mov	x1, 0
	ldr	x0, [sp, 40]
	ldr	s1, [x0]
	ldr	x0, [sp, 32]
	ldr	s2, [x0]
	ldr	x0, [sp, 40]
	ldr	s0, [x0]
	fsub	s2, s2, s0
	ldr	x0, [sp, 24]
	ldr	s0, [x0]
	fmul	s0, s2, s0
	fadd	s3, s1, s0
	ldr	x0, [sp, 40]
	ldr	s1, [x0, 4]
	ldr	x0, [sp, 32]
	ldr	s2, [x0, 4]
	ldr	x0, [sp, 40]
	ldr	s0, [x0, 4]
	fsub	s2, s2, s0
	ldr	x0, [sp, 24]
	ldr	s0, [x0, 4]
	fmul	s0, s2, s0
	fadd	s0, s1, s0
	add	x0, sp, 48
	fmov	s1, s0
	fmov	s0, s3
	bl	_ZN6ImVec2C1Eff
	ldr	x0, [sp, 48]
	mov	x1, x0
	lsr	w1, w1, 0
	lsr	x0, x0, 32
	fmov	s0, w1
	fmov	s1, w0
	adrp	x0, :got:__stack_chk_guard
	ldr	x0, [x0, #:got_lo12:__stack_chk_guard]
	ldr	x2, [sp, 56]
	ldr	x1, [x0]
	subs	x2, x2, x1
	mov	x1, 0
	beq	.L153
	bl	__stack_chk_fail
.L153:
	ldp	x29, x30, [sp], 64
	.cfi_restore 30
	.cfi_restore 29
	.cfi_def_cfa_offset 0
	ret
	.cfi_endproc
.LFE1193:
	.size	_ZL6ImLerpRK6ImVec2S1_S1_, .-_ZL6ImLerpRK6ImVec2S1_S1_
	.align	2
	.type	_ZL10ImSaturatef, %function
_ZL10ImSaturatef:
.LFB1195:
	.cfi_startproc
	sub	sp, sp, #16
	.cfi_def_cfa_offset 16
	str	s0, [sp, 12]
	ldr	s0, [sp, 12]
	fcmpe	s0, #0.0
	bmi	.L162
	b	.L164
.L162:
	movi	v0.2s, #0
	b	.L161
.L164:
	ldr	s1, [sp, 12]
	fmov	s0, 1.0e+0
	fcmpe	s1, s0
	bgt	.L163
	b	.L165
.L163:
	fmov	s0, 1.0e+0
	b	.L161
.L165:
	ldr	s0, [sp, 12]
.L161:
	add	sp, sp, 16
	.cfi_def_cfa_offset 0
	ret
	.cfi_endproc
.LFE1195:
	.size	_ZL10ImSaturatef, .-_ZL10ImSaturatef
	.align	2
	.type	_ZL11ImLengthSqrRK6ImVec2, %function
_ZL11ImLengthSqrRK6ImVec2:
.LFB1196:
	.cfi_startproc
	sub	sp, sp, #16
	.cfi_def_cfa_offset 16
	str	x0, [sp, 8]
	ldr	x0, [sp, 8]
	ldr	s1, [x0]
	ldr	x0, [sp, 8]
	ldr	s0, [x0]
	fmul	s1, s1, s0
	ldr	x0, [sp, 8]
	ldr	s2, [x0, 4]
	ldr	x0, [sp, 8]
	ldr	s0, [x0, 4]
	fmul	s0, s2, s0
	fadd	s0, s1, s0
	add	sp, sp, 16
	.cfi_def_cfa_offset 0
	ret
	.cfi_endproc
.LFE1196:
	.size	_ZL11ImLengthSqrRK6ImVec2, .-_ZL11ImLengthSqrRK6ImVec2
	.align	2
	.type	_ZL7ImFloorf, %function
_ZL7ImFloorf:
.LFB1199:
	.cfi_startproc
	sub	sp, sp, #16
	.cfi_def_cfa_offset 16
	str	s0, [sp, 12]
	ldr	s0, [sp, 12]
	fcvtzs	s0, s0
	scvtf	s0, s0
	add	sp, sp, 16
	.cfi_def_cfa_offset 0
	ret
	.cfi_endproc
.LFE1199:
	.size	_ZL7ImFloorf, .-_ZL7ImFloorf
	.align	2
	.type	_ZL13ImFloorSignedf, %function
_ZL13ImFloorSignedf:
.LFB1200:
	.cfi_startproc
	sub	sp, sp, #16
	.cfi_def_cfa_offset 16
	str	s0, [sp, 12]
	ldr	s0, [sp, 12]
	fcmpe	s0, #0.0
	bge	.L171
	ldr	s0, [sp, 12]
	fcvtzs	s0, s0
	scvtf	s0, s0
	ldr	s1, [sp, 12]
	fcmp	s1, s0
	bne	.L172
.L171:
	ldr	s0, [sp, 12]
	fcvtzs	s0, s0
	scvtf	s0, s0
	b	.L173
.L172:
	ldr	s0, [sp, 12]
	fcvtzs	w0, s0
	sub	w0, w0, #1
	scvtf	s0, w0
.L173:
	add	sp, sp, 16
	.cfi_def_cfa_offset 0
	ret
	.cfi_endproc
.LFE1200:
	.size	_ZL13ImFloorSignedf, .-_ZL13ImFloorSignedf
	.align	2
	.type	_ZL7ImFloorRK6ImVec2, %function
_ZL7ImFloorRK6ImVec2:
.LFB1201:
	.cfi_startproc
	stp	x29, x30, [sp, -48]!
	.cfi_def_cfa_offset 48
	.cfi_offset 29, -48
	.cfi_offset 30, -40
	mov	x29, sp
	str	x0, [sp, 24]
	adrp	x0, :got:__stack_chk_guard
	ldr	x0, [x0, #:got_lo12:__stack_chk_guard]
	ldr	x1, [x0]
	str	x1, [sp, 40]
	mov	x1, 0
	ldr	x0, [sp, 24]
	ldr	s0, [x0]
	fcvtzs	s0, s0
	scvtf	s2, s0
	ldr	x0, [sp, 24]
	ldr	s0, [x0, 4]
	fcvtzs	s0, s0
	scvtf	s0, s0
	add	x0, sp, 32
	fmov	s1, s0
	fmov	s0, s2
	bl	_ZN6ImVec2C1Eff
	ldr	x0, [sp, 32]
	mov	x1, x0
	lsr	w1, w1, 0
	lsr	x0, x0, 32
	fmov	s0, w1
	fmov	s1, w0
	adrp	x0, :got:__stack_chk_guard
	ldr	x0, [x0, #:got_lo12:__stack_chk_guard]
	ldr	x2, [sp, 40]
	ldr	x1, [x0]
	subs	x2, x2, x1
	mov	x1, 0
	beq	.L177
	bl	__stack_chk_fail
.L177:
	ldp	x29, x30, [sp], 48
	.cfi_restore 30
	.cfi_restore 29
	.cfi_def_cfa_offset 0
	ret
	.cfi_endproc
.LFE1201:
	.size	_ZL7ImFloorRK6ImVec2, .-_ZL7ImFloorRK6ImVec2
	.align	2
	.type	_ZL13ImFloorSignedRK6ImVec2, %function
_ZL13ImFloorSignedRK6ImVec2:
.LFB1202:
	.cfi_startproc
	stp	x29, x30, [sp, -64]!
	.cfi_def_cfa_offset 64
	.cfi_offset 29, -64
	.cfi_offset 30, -56
	mov	x29, sp
	str	d8, [sp, 16]
	.cfi_offset 72, -48
	str	x0, [sp, 40]
	adrp	x0, :got:__stack_chk_guard
	ldr	x0, [x0, #:got_lo12:__stack_chk_guard]
	ldr	x1, [x0]
	str	x1, [sp, 56]
	mov	x1, 0
	ldr	x0, [sp, 40]
	ldr	s0, [x0]
	bl	_ZL13ImFloorSignedf
	fmov	s8, s0
	ldr	x0, [sp, 40]
	ldr	s0, [x0, 4]
	bl	_ZL13ImFloorSignedf
	add	x0, sp, 48
	fmov	s1, s0
	fmov	s0, s8
	bl	_ZN6ImVec2C1Eff
	ldr	x0, [sp, 48]
	mov	x1, x0
	lsr	w1, w1, 0
	lsr	x0, x0, 32
	fmov	s0, w1
	fmov	s1, w0
	adrp	x0, :got:__stack_chk_guard
	ldr	x0, [x0, #:got_lo12:__stack_chk_guard]
	ldr	x2, [sp, 56]
	ldr	x1, [x0]
	subs	x2, x2, x1
	mov	x1, 0
	beq	.L180
	bl	__stack_chk_fail
.L180:
	ldr	d8, [sp, 16]
	ldp	x29, x30, [sp], 64
	.cfi_restore 30
	.cfi_restore 29
	.cfi_restore 72
	.cfi_def_cfa_offset 0
	ret
	.cfi_endproc
.LFE1202:
	.size	_ZL13ImFloorSignedRK6ImVec2, .-_ZL13ImFloorSignedRK6ImVec2
	.align	2
	.type	_ZL40ImIsFloatAboveGuaranteedIntegerPrecisionf, %function
_ZL40ImIsFloatAboveGuaranteedIntegerPrecisionf:
.LFB1208:
	.cfi_startproc
	sub	sp, sp, #16
	.cfi_def_cfa_offset 16
	str	s0, [sp, 12]
	ldr	s0, [sp, 12]
	mov	w0, -880803840
	fmov	s1, w0
	fcmpe	s0, s1
	bls	.L182
	ldr	s0, [sp, 12]
	mov	w0, 1266679808
	fmov	s1, w0
	fcmpe	s0, s1
	bge	.L182
	b	.L187
.L182:
	mov	w0, 1
	b	.L185
.L187:
	mov	w0, 0
.L185:
	add	sp, sp, 16
	.cfi_def_cfa_offset 0
	ret
	.cfi_endproc
.LFE1208:
	.size	_ZL40ImIsFloatAboveGuaranteedIntegerPrecisionf, .-_ZL40ImIsFloatAboveGuaranteedIntegerPrecisionf
	.section	.text._Z14ImTriangleAreaRK6ImVec2S1_S1_,"axG",@progbits,_Z14ImTriangleAreaRK6ImVec2S1_S1_,comdat
	.align	2
	.weak	_Z14ImTriangleAreaRK6ImVec2S1_S1_
	.type	_Z14ImTriangleAreaRK6ImVec2S1_S1_, %function
_Z14ImTriangleAreaRK6ImVec2S1_S1_:
.LFB1209:
	.cfi_startproc
	sub	sp, sp, #32
	.cfi_def_cfa_offset 32
	str	x0, [sp, 24]
	str	x1, [sp, 16]
	str	x2, [sp, 8]
	ldr	x0, [sp, 24]
	ldr	s1, [x0]
	ldr	x0, [sp, 16]
	ldr	s2, [x0, 4]
	ldr	x0, [sp, 8]
	ldr	s0, [x0, 4]
	fsub	s0, s2, s0
	fmul	s1, s1, s0
	ldr	x0, [sp, 16]
	ldr	s2, [x0]
	ldr	x0, [sp, 8]
	ldr	s3, [x0, 4]
	ldr	x0, [sp, 24]
	ldr	s0, [x0, 4]
	fsub	s0, s3, s0
	fmul	s0, s2, s0
	fadd	s1, s1, s0
	ldr	x0, [sp, 8]
	ldr	s2, [x0]
	ldr	x0, [sp, 24]
	ldr	s3, [x0, 4]
	ldr	x0, [sp, 16]
	ldr	s0, [x0, 4]
	fsub	s0, s3, s0
	fmul	s0, s2, s0
	fadd	s0, s1, s0
	fabs	s1, s0
	fmov	s0, 5.0e-1
	fmul	s0, s1, s0
	add	sp, sp, 32
	.cfi_def_cfa_offset 0
	ret
	.cfi_endproc
.LFE1209:
	.size	_Z14ImTriangleAreaRK6ImVec2S1_S1_, .-_Z14ImTriangleAreaRK6ImVec2S1_S1_
	.section	.text._ZN6ImVec1C2Ev,"axG",@progbits,_ZN6ImVec1C5Ev,comdat
	.align	2
	.weak	_ZN6ImVec1C2Ev
	.type	_ZN6ImVec1C2Ev, %function
_ZN6ImVec1C2Ev:
.LFB1211:
	.cfi_startproc
	sub	sp, sp, #16
	.cfi_def_cfa_offset 16
	str	x0, [sp, 8]
	ldr	x0, [sp, 8]
	str	wzr, [x0]
	nop
	add	sp, sp, 16
	.cfi_def_cfa_offset 0
	ret
	.cfi_endproc
.LFE1211:
	.size	_ZN6ImVec1C2Ev, .-_ZN6ImVec1C2Ev
	.weak	_ZN6ImVec1C1Ev
	.set	_ZN6ImVec1C1Ev,_ZN6ImVec1C2Ev
	.section	.text._ZN8ImVec2ihC2Ev,"axG",@progbits,_ZN8ImVec2ihC5Ev,comdat
	.align	2
	.weak	_ZN8ImVec2ihC2Ev
	.type	_ZN8ImVec2ihC2Ev, %function
_ZN8ImVec2ihC2Ev:
.LFB1217:
	.cfi_startproc
	sub	sp, sp, #16
	.cfi_def_cfa_offset 16
	str	x0, [sp, 8]
	ldr	x0, [sp, 8]
	strh	wzr, [x0]
	ldr	x0, [sp, 8]
	strh	wzr, [x0, 2]
	nop
	add	sp, sp, 16
	.cfi_def_cfa_offset 0
	ret
	.cfi_endproc
.LFE1217:
	.size	_ZN8ImVec2ihC2Ev, .-_ZN8ImVec2ihC2Ev
	.weak	_ZN8ImVec2ihC1Ev
	.set	_ZN8ImVec2ihC1Ev,_ZN8ImVec2ihC2Ev
	.section	.text._ZN8ImVec2ihC2Ess,"axG",@progbits,_ZN8ImVec2ihC5Ess,comdat
	.align	2
	.weak	_ZN8ImVec2ihC2Ess
	.type	_ZN8ImVec2ihC2Ess, %function
_ZN8ImVec2ihC2Ess:
.LFB1220:
	.cfi_startproc
	sub	sp, sp, #16
	.cfi_def_cfa_offset 16
	str	x0, [sp, 8]
	strh	w1, [sp, 6]
	strh	w2, [sp, 4]
	ldr	x0, [sp, 8]
	ldrh	w1, [sp, 6]
	strh	w1, [x0]
	ldr	x0, [sp, 8]
	ldrh	w1, [sp, 4]
	strh	w1, [x0, 2]
	nop
	add	sp, sp, 16
	.cfi_def_cfa_offset 0
	ret
	.cfi_endproc
.LFE1220:
	.size	_ZN8ImVec2ihC2Ess, .-_ZN8ImVec2ihC2Ess
	.weak	_ZN8ImVec2ihC1Ess
	.set	_ZN8ImVec2ihC1Ess,_ZN8ImVec2ihC2Ess
	.section	.text._ZN8ImVec2ihC2ERK6ImVec2,"axG",@progbits,_ZN8ImVec2ihC5ERK6ImVec2,comdat
	.align	2
	.weak	_ZN8ImVec2ihC2ERK6ImVec2
	.type	_ZN8ImVec2ihC2ERK6ImVec2, %function
_ZN8ImVec2ihC2ERK6ImVec2:
.LFB1223:
	.cfi_startproc
	sub	sp, sp, #16
	.cfi_def_cfa_offset 16
	str	x0, [sp, 8]
	str	x1, [sp]
	ldr	x0, [sp]
	ldr	s0, [x0]
	fcvtzs	s0, s0
	umov	w0, v0.h[0]
	sxth	w1, w0
	ldr	x0, [sp, 8]
	strh	w1, [x0]
	ldr	x0, [sp]
	ldr	s0, [x0, 4]
	fcvtzs	s0, s0
	umov	w0, v0.h[0]
	sxth	w1, w0
	ldr	x0, [sp, 8]
	strh	w1, [x0, 2]
	nop
	add	sp, sp, 16
	.cfi_def_cfa_offset 0
	ret
	.cfi_endproc
.LFE1223:
	.size	_ZN8ImVec2ihC2ERK6ImVec2, .-_ZN8ImVec2ihC2ERK6ImVec2
	.weak	_ZN8ImVec2ihC1ERK6ImVec2
	.set	_ZN8ImVec2ihC1ERK6ImVec2,_ZN8ImVec2ihC2ERK6ImVec2
	.section	.text._ZN6ImRectC2Ev,"axG",@progbits,_ZN6ImRectC5Ev,comdat
	.align	2
	.weak	_ZN6ImRectC2Ev
	.type	_ZN6ImRectC2Ev, %function
_ZN6ImRectC2Ev:
.LFB1226:
	.cfi_startproc
	stp	x29, x30, [sp, -32]!
	.cfi_def_cfa_offset 32
	.cfi_offset 29, -32
	.cfi_offset 30, -24
	mov	x29, sp
	str	x0, [sp, 24]
	ldr	x0, [sp, 24]
	movi	v1.2s, #0
	movi	v0.2s, #0
	bl	_ZN6ImVec2C1Eff
	ldr	x0, [sp, 24]
	add	x0, x0, 8
	movi	v1.2s, #0
	movi	v0.2s, #0
	bl	_ZN6ImVec2C1Eff
	nop
	ldp	x29, x30, [sp], 32
	.cfi_restore 30
	.cfi_restore 29
	.cfi_def_cfa_offset 0
	ret
	.cfi_endproc
.LFE1226:
	.size	_ZN6ImRectC2Ev, .-_ZN6ImRectC2Ev
	.weak	_ZN6ImRectC1Ev
	.set	_ZN6ImRectC1Ev,_ZN6ImRectC2Ev
	.section	.text._ZN6ImRectC2ERK6ImVec2S2_,"axG",@progbits,_ZN6ImRectC5ERK6ImVec2S2_,comdat
	.align	2
	.weak	_ZN6ImRectC2ERK6ImVec2S2_
	.type	_ZN6ImRectC2ERK6ImVec2S2_, %function
_ZN6ImRectC2ERK6ImVec2S2_:
.LFB1229:
	.cfi_startproc
	sub	sp, sp, #32
	.cfi_def_cfa_offset 32
	str	x0, [sp, 24]
	str	x1, [sp, 16]
	str	x2, [sp, 8]
	ldr	x0, [sp, 24]
	ldr	x1, [sp, 16]
	ldr	x1, [x1]
	str	x1, [x0]
	ldr	x0, [sp, 24]
	ldr	x1, [sp, 8]
	ldr	x1, [x1]
	str	x1, [x0, 8]
	nop
	add	sp, sp, 32
	.cfi_def_cfa_offset 0
	ret
	.cfi_endproc
.LFE1229:
	.size	_ZN6ImRectC2ERK6ImVec2S2_, .-_ZN6ImRectC2ERK6ImVec2S2_
	.weak	_ZN6ImRectC1ERK6ImVec2S2_
	.set	_ZN6ImRectC1ERK6ImVec2S2_,_ZN6ImRectC2ERK6ImVec2S2_
	.section	.text._ZN6ImRectC2ERK6ImVec4,"axG",@progbits,_ZN6ImRectC5ERK6ImVec4,comdat
	.align	2
	.weak	_ZN6ImRectC2ERK6ImVec4
	.type	_ZN6ImRectC2ERK6ImVec4, %function
_ZN6ImRectC2ERK6ImVec4:
.LFB1232:
	.cfi_startproc
	stp	x29, x30, [sp, -32]!
	.cfi_def_cfa_offset 32
	.cfi_offset 29, -32
	.cfi_offset 30, -24
	mov	x29, sp
	str	x0, [sp, 24]
	str	x1, [sp, 16]
	ldr	x1, [sp, 24]
	ldr	x0, [sp, 16]
	ldr	s0, [x0]
	ldr	x0, [sp, 16]
	ldr	s1, [x0, 4]
	mov	x0, x1
	bl	_ZN6ImVec2C1Eff
	ldr	x0, [sp, 24]
	add	x1, x0, 8
	ldr	x0, [sp, 16]
	ldr	s0, [x0, 8]
	ldr	x0, [sp, 16]
	ldr	s1, [x0, 12]
	mov	x0, x1
	bl	_ZN6ImVec2C1Eff
	nop
	ldp	x29, x30, [sp], 32
	.cfi_restore 30
	.cfi_restore 29
	.cfi_def_cfa_offset 0
	ret
	.cfi_endproc
.LFE1232:
	.size	_ZN6ImRectC2ERK6ImVec4, .-_ZN6ImRectC2ERK6ImVec4
	.weak	_ZN6ImRectC1ERK6ImVec4
	.set	_ZN6ImRectC1ERK6ImVec4,_ZN6ImRectC2ERK6ImVec4
	.section	.text._ZN6ImRectC2Effff,"axG",@progbits,_ZN6ImRectC5Effff,comdat
	.align	2
	.weak	_ZN6ImRectC2Effff
	.type	_ZN6ImRectC2Effff, %function
_ZN6ImRectC2Effff:
.LFB1235:
	.cfi_startproc
	stp	x29, x30, [sp, -48]!
	.cfi_def_cfa_offset 48
	.cfi_offset 29, -48
	.cfi_offset 30, -40
	mov	x29, sp
	str	x0, [sp, 40]
	str	s0, [sp, 36]
	str	s1, [sp, 32]
	str	s2, [sp, 28]
	str	s3, [sp, 24]
	ldr	x0, [sp, 40]
	ldr	s1, [sp, 32]
	ldr	s0, [sp, 36]
	bl	_ZN6ImVec2C1Eff
	ldr	x0, [sp, 40]
	add	x0, x0, 8
	ldr	s1, [sp, 24]
	ldr	s0, [sp, 28]
	bl	_ZN6ImVec2C1Eff
	nop
	ldp	x29, x30, [sp], 48
	.cfi_restore 30
	.cfi_restore 29
	.cfi_def_cfa_offset 0
	ret
	.cfi_endproc
.LFE1235:
	.size	_ZN6ImRectC2Effff, .-_ZN6ImRectC2Effff
	.weak	_ZN6ImRectC1Effff
	.set	_ZN6ImRectC1Effff,_ZN6ImRectC2Effff
	.section	.text._ZNK6ImRect7GetSizeEv,"axG",@progbits,_ZNK6ImRect7GetSizeEv,comdat
	.align	2
	.weak	_ZNK6ImRect7GetSizeEv
	.type	_ZNK6ImRect7GetSizeEv, %function
_ZNK6ImRect7GetSizeEv:
.LFB1238:
	.cfi_startproc
	stp	x29, x30, [sp, -48]!
	.cfi_def_cfa_offset 48
	.cfi_offset 29, -48
	.cfi_offset 30, -40
	mov	x29, sp
	str	x0, [sp, 24]
	adrp	x0, :got:__stack_chk_guard
	ldr	x0, [x0, #:got_lo12:__stack_chk_guard]
	ldr	x1, [x0]
	str	x1, [sp, 40]
	mov	x1, 0
	ldr	x0, [sp, 24]
	ldr	s1, [x0, 8]
	ldr	x0, [sp, 24]
	ldr	s0, [x0]
	fsub	s2, s1, s0
	ldr	x0, [sp, 24]
	ldr	s1, [x0, 12]
	ldr	x0, [sp, 24]
	ldr	s0, [x0, 4]
	fsub	s0, s1, s0
	add	x0, sp, 32
	fmov	s1, s0
	fmov	s0, s2
	bl	_ZN6ImVec2C1Eff
	ldr	x0, [sp, 32]
	mov	x1, x0
	lsr	w1, w1, 0
	lsr	x0, x0, 32
	fmov	s0, w1
	fmov	s1, w0
	adrp	x0, :got:__stack_chk_guard
	ldr	x0, [x0, #:got_lo12:__stack_chk_guard]
	ldr	x2, [sp, 40]
	ldr	x1, [x0]
	subs	x2, x2, x1
	mov	x1, 0
	beq	.L200
	bl	__stack_chk_fail
.L200:
	ldp	x29, x30, [sp], 48
	.cfi_restore 30
	.cfi_restore 29
	.cfi_def_cfa_offset 0
	ret
	.cfi_endproc
.LFE1238:
	.size	_ZNK6ImRect7GetSizeEv, .-_ZNK6ImRect7GetSizeEv
	.section	.text._ZNK6ImRect8GetWidthEv,"axG",@progbits,_ZNK6ImRect8GetWidthEv,comdat
	.align	2
	.weak	_ZNK6ImRect8GetWidthEv
	.type	_ZNK6ImRect8GetWidthEv, %function
_ZNK6ImRect8GetWidthEv:
.LFB1239:
	.cfi_startproc
	sub	sp, sp, #16
	.cfi_def_cfa_offset 16
	str	x0, [sp, 8]
	ldr	x0, [sp, 8]
	ldr	s1, [x0, 8]
	ldr	x0, [sp, 8]
	ldr	s0, [x0]
	fsub	s0, s1, s0
	add	sp, sp, 16
	.cfi_def_cfa_offset 0
	ret
	.cfi_endproc
.LFE1239:
	.size	_ZNK6ImRect8GetWidthEv, .-_ZNK6ImRect8GetWidthEv
	.section	.text._ZNK6ImRect9GetHeightEv,"axG",@progbits,_ZNK6ImRect9GetHeightEv,comdat
	.align	2
	.weak	_ZNK6ImRect9GetHeightEv
	.type	_ZNK6ImRect9GetHeightEv, %function
_ZNK6ImRect9GetHeightEv:
.LFB1240:
	.cfi_startproc
	sub	sp, sp, #16
	.cfi_def_cfa_offset 16
	str	x0, [sp, 8]
	ldr	x0, [sp, 8]
	ldr	s1, [x0, 12]
	ldr	x0, [sp, 8]
	ldr	s0, [x0, 4]
	fsub	s0, s1, s0
	add	sp, sp, 16
	.cfi_def_cfa_offset 0
	ret
	.cfi_endproc
.LFE1240:
	.size	_ZNK6ImRect9GetHeightEv, .-_ZNK6ImRect9GetHeightEv
	.section	.text._ZNK6ImRect5GetBLEv,"axG",@progbits,_ZNK6ImRect5GetBLEv,comdat
	.align	2
	.weak	_ZNK6ImRect5GetBLEv
	.type	_ZNK6ImRect5GetBLEv, %function
_ZNK6ImRect5GetBLEv:
.LFB1244:
	.cfi_startproc
	stp	x29, x30, [sp, -48]!
	.cfi_def_cfa_offset 48
	.cfi_offset 29, -48
	.cfi_offset 30, -40
	mov	x29, sp
	str	x0, [sp, 24]
	adrp	x0, :got:__stack_chk_guard
	ldr	x0, [x0, #:got_lo12:__stack_chk_guard]
	ldr	x1, [x0]
	str	x1, [sp, 40]
	mov	x1, 0
	ldr	x0, [sp, 24]
	ldr	s0, [x0]
	ldr	x0, [sp, 24]
	ldr	s1, [x0, 12]
	add	x0, sp, 32
	bl	_ZN6ImVec2C1Eff
	ldr	x0, [sp, 32]
	mov	x1, x0
	lsr	w1, w1, 0
	lsr	x0, x0, 32
	fmov	s0, w1
	fmov	s1, w0
	adrp	x0, :got:__stack_chk_guard
	ldr	x0, [x0, #:got_lo12:__stack_chk_guard]
	ldr	x2, [sp, 40]
	ldr	x1, [x0]
	subs	x2, x2, x1
	mov	x1, 0
	beq	.L207
	bl	__stack_chk_fail
.L207:
	ldp	x29, x30, [sp], 48
	.cfi_restore 30
	.cfi_restore 29
	.cfi_def_cfa_offset 0
	ret
	.cfi_endproc
.LFE1244:
	.size	_ZNK6ImRect5GetBLEv, .-_ZNK6ImRect5GetBLEv
	.section	.text._ZNK6ImRect5GetBREv,"axG",@progbits,_ZNK6ImRect5GetBREv,comdat
	.align	2
	.weak	_ZNK6ImRect5GetBREv
	.type	_ZNK6ImRect5GetBREv, %function
_ZNK6ImRect5GetBREv:
.LFB1245:
	.cfi_startproc
	sub	sp, sp, #16
	.cfi_def_cfa_offset 16
	str	x0, [sp, 8]
	ldr	x0, [sp, 8]
	ldr	x0, [x0, 8]
	mov	x1, x0
	lsr	w1, w1, 0
	lsr	x0, x0, 32
	fmov	s0, w1
	fmov	s1, w0
	add	sp, sp, 16
	.cfi_def_cfa_offset 0
	ret
	.cfi_endproc
.LFE1245:
	.size	_ZNK6ImRect5GetBREv, .-_ZNK6ImRect5GetBREv
	.section	.text._ZNK6ImRect8ContainsERK6ImVec2,"axG",@progbits,_ZNK6ImRect8ContainsERK6ImVec2,comdat
	.align	2
	.weak	_ZNK6ImRect8ContainsERK6ImVec2
	.type	_ZNK6ImRect8ContainsERK6ImVec2, %function
_ZNK6ImRect8ContainsERK6ImVec2:
.LFB1246:
	.cfi_startproc
	sub	sp, sp, #16
	.cfi_def_cfa_offset 16
	str	x0, [sp, 8]
	str	x1, [sp]
	ldr	x0, [sp]
	ldr	s1, [x0]
	ldr	x0, [sp, 8]
	ldr	s0, [x0]
	fcmpe	s1, s0
	bge	.L218
	b	.L211
.L218:
	ldr	x0, [sp]
	ldr	s1, [x0, 4]
	ldr	x0, [sp, 8]
	ldr	s0, [x0, 4]
	fcmpe	s1, s0
	bge	.L219
	b	.L211
.L219:
	ldr	x0, [sp]
	ldr	s1, [x0]
	ldr	x0, [sp, 8]
	ldr	s0, [x0, 8]
	fcmpe	s1, s0
	bmi	.L220
	b	.L211
.L220:
	ldr	x0, [sp]
	ldr	s1, [x0, 4]
	ldr	x0, [sp, 8]
	ldr	s0, [x0, 12]
	fcmpe	s1, s0
	bmi	.L221
	b	.L211
.L221:
	mov	w0, 1
	b	.L216
.L211:
	mov	w0, 0
.L216:
	add	sp, sp, 16
	.cfi_def_cfa_offset 0
	ret
	.cfi_endproc
.LFE1246:
	.size	_ZNK6ImRect8ContainsERK6ImVec2, .-_ZNK6ImRect8ContainsERK6ImVec2
	.section	.text._ZNK6ImRect8ContainsERKS_,"axG",@progbits,_ZNK6ImRect8ContainsERKS_,comdat
	.align	2
	.weak	_ZNK6ImRect8ContainsERKS_
	.type	_ZNK6ImRect8ContainsERKS_, %function
_ZNK6ImRect8ContainsERKS_:
.LFB1247:
	.cfi_startproc
	sub	sp, sp, #16
	.cfi_def_cfa_offset 16
	str	x0, [sp, 8]
	str	x1, [sp]
	ldr	x0, [sp]
	ldr	s1, [x0]
	ldr	x0, [sp, 8]
	ldr	s0, [x0]
	fcmpe	s1, s0
	bge	.L230
	b	.L223
.L230:
	ldr	x0, [sp]
	ldr	s1, [x0, 4]
	ldr	x0, [sp, 8]
	ldr	s0, [x0, 4]
	fcmpe	s1, s0
	bge	.L231
	b	.L223
.L231:
	ldr	x0, [sp]
	ldr	s1, [x0, 8]
	ldr	x0, [sp, 8]
	ldr	s0, [x0, 8]
	fcmpe	s1, s0
	bls	.L232
	b	.L223
.L232:
	ldr	x0, [sp]
	ldr	s1, [x0, 12]
	ldr	x0, [sp, 8]
	ldr	s0, [x0, 12]
	fcmpe	s1, s0
	bls	.L233
	b	.L223
.L233:
	mov	w0, 1
	b	.L228
.L223:
	mov	w0, 0
.L228:
	add	sp, sp, 16
	.cfi_def_cfa_offset 0
	ret
	.cfi_endproc
.LFE1247:
	.size	_ZNK6ImRect8ContainsERKS_, .-_ZNK6ImRect8ContainsERKS_
	.section	.text._ZNK6ImRect8OverlapsERKS_,"axG",@progbits,_ZNK6ImRect8OverlapsERKS_,comdat
	.align	2
	.weak	_ZNK6ImRect8OverlapsERKS_
	.type	_ZNK6ImRect8OverlapsERKS_, %function
_ZNK6ImRect8OverlapsERKS_:
.LFB1248:
	.cfi_startproc
	sub	sp, sp, #16
	.cfi_def_cfa_offset 16
	str	x0, [sp, 8]
	str	x1, [sp]
	ldr	x0, [sp]
	ldr	s1, [x0, 4]
	ldr	x0, [sp, 8]
	ldr	s0, [x0, 12]
	fcmpe	s1, s0
	bmi	.L242
	b	.L235
.L242:
	ldr	x0, [sp]
	ldr	s1, [x0, 12]
	ldr	x0, [sp, 8]
	ldr	s0, [x0, 4]
	fcmpe	s1, s0
	bgt	.L243
	b	.L235
.L243:
	ldr	x0, [sp]
	ldr	s1, [x0]
	ldr	x0, [sp, 8]
	ldr	s0, [x0, 8]
	fcmpe	s1, s0
	bmi	.L244
	b	.L235
.L244:
	ldr	x0, [sp]
	ldr	s1, [x0, 8]
	ldr	x0, [sp, 8]
	ldr	s0, [x0]
	fcmpe	s1, s0
	bgt	.L245
	b	.L235
.L245:
	mov	w0, 1
	b	.L240
.L235:
	mov	w0, 0
.L240:
	add	sp, sp, 16
	.cfi_def_cfa_offset 0
	ret
	.cfi_endproc
.LFE1248:
	.size	_ZNK6ImRect8OverlapsERKS_, .-_ZNK6ImRect8OverlapsERKS_
	.section	.text._ZN6ImRect3AddERK6ImVec2,"axG",@progbits,_ZN6ImRect3AddERK6ImVec2,comdat
	.align	2
	.weak	_ZN6ImRect3AddERK6ImVec2
	.type	_ZN6ImRect3AddERK6ImVec2, %function
_ZN6ImRect3AddERK6ImVec2:
.LFB1249:
	.cfi_startproc
	sub	sp, sp, #16
	.cfi_def_cfa_offset 16
	str	x0, [sp, 8]
	str	x1, [sp]
	ldr	x0, [sp, 8]
	ldr	s1, [x0]
	ldr	x0, [sp]
	ldr	s0, [x0]
	fcmpe	s1, s0
	bgt	.L255
	b	.L247
.L255:
	ldr	x0, [sp]
	ldr	s0, [x0]
	ldr	x0, [sp, 8]
	str	s0, [x0]
.L247:
	ldr	x0, [sp, 8]
	ldr	s1, [x0, 4]
	ldr	x0, [sp]
	ldr	s0, [x0, 4]
	fcmpe	s1, s0
	bgt	.L256
	b	.L249
.L256:
	ldr	x0, [sp]
	ldr	s0, [x0, 4]
	ldr	x0, [sp, 8]
	str	s0, [x0, 4]
.L249:
	ldr	x0, [sp, 8]
	ldr	s1, [x0, 8]
	ldr	x0, [sp]
	ldr	s0, [x0]
	fcmpe	s1, s0
	bmi	.L257
	b	.L251
.L257:
	ldr	x0, [sp]
	ldr	s0, [x0]
	ldr	x0, [sp, 8]
	str	s0, [x0, 8]
.L251:
	ldr	x0, [sp, 8]
	ldr	s1, [x0, 12]
	ldr	x0, [sp]
	ldr	s0, [x0, 4]
	fcmpe	s1, s0
	bmi	.L258
	b	.L259
.L258:
	ldr	x0, [sp]
	ldr	s0, [x0, 4]
	ldr	x0, [sp, 8]
	str	s0, [x0, 12]
.L259:
	nop
	add	sp, sp, 16
	.cfi_def_cfa_offset 0
	ret
	.cfi_endproc
.LFE1249:
	.size	_ZN6ImRect3AddERK6ImVec2, .-_ZN6ImRect3AddERK6ImVec2
	.section	.text._ZN6ImRect3AddERKS_,"axG",@progbits,_ZN6ImRect3AddERKS_,comdat
	.align	2
	.weak	_ZN6ImRect3AddERKS_
	.type	_ZN6ImRect3AddERKS_, %function
_ZN6ImRect3AddERKS_:
.LFB1250:
	.cfi_startproc
	sub	sp, sp, #16
	.cfi_def_cfa_offset 16
	str	x0, [sp, 8]
	str	x1, [sp]
	ldr	x0, [sp, 8]
	ldr	s1, [x0]
	ldr	x0, [sp]
	ldr	s0, [x0]
	fcmpe	s1, s0
	bgt	.L269
	b	.L261
.L269:
	ldr	x0, [sp]
	ldr	s0, [x0]
	ldr	x0, [sp, 8]
	str	s0, [x0]
.L261:
	ldr	x0, [sp, 8]
	ldr	s1, [x0, 4]
	ldr	x0, [sp]
	ldr	s0, [x0, 4]
	fcmpe	s1, s0
	bgt	.L270
	b	.L263
.L270:
	ldr	x0, [sp]
	ldr	s0, [x0, 4]
	ldr	x0, [sp, 8]
	str	s0, [x0, 4]
.L263:
	ldr	x0, [sp, 8]
	ldr	s1, [x0, 8]
	ldr	x0, [sp]
	ldr	s0, [x0, 8]
	fcmpe	s1, s0
	bmi	.L271
	b	.L265
.L271:
	ldr	x0, [sp]
	ldr	s0, [x0, 8]
	ldr	x0, [sp, 8]
	str	s0, [x0, 8]
.L265:
	ldr	x0, [sp, 8]
	ldr	s1, [x0, 12]
	ldr	x0, [sp]
	ldr	s0, [x0, 12]
	fcmpe	s1, s0
	bmi	.L272
	b	.L273
.L272:
	ldr	x0, [sp]
	ldr	s0, [x0, 12]
	ldr	x0, [sp, 8]
	str	s0, [x0, 12]
.L273:
	nop
	add	sp, sp, 16
	.cfi_def_cfa_offset 0
	ret
	.cfi_endproc
.LFE1250:
	.size	_ZN6ImRect3AddERKS_, .-_ZN6ImRect3AddERKS_
	.section	.text._ZN6ImRect6ExpandEf,"axG",@progbits,_ZN6ImRect6ExpandEf,comdat
	.align	2
	.weak	_ZN6ImRect6ExpandEf
	.type	_ZN6ImRect6ExpandEf, %function
_ZN6ImRect6ExpandEf:
.LFB1251:
	.cfi_startproc
	sub	sp, sp, #16
	.cfi_def_cfa_offset 16
	str	x0, [sp, 8]
	str	s0, [sp, 4]
	ldr	x0, [sp, 8]
	ldr	s1, [x0]
	ldr	s0, [sp, 4]
	fsub	s0, s1, s0
	ldr	x0, [sp, 8]
	str	s0, [x0]
	ldr	x0, [sp, 8]
	ldr	s1, [x0, 4]
	ldr	s0, [sp, 4]
	fsub	s0, s1, s0
	ldr	x0, [sp, 8]
	str	s0, [x0, 4]
	ldr	x0, [sp, 8]
	ldr	s1, [x0, 8]
	ldr	s0, [sp, 4]
	fadd	s0, s1, s0
	ldr	x0, [sp, 8]
	str	s0, [x0, 8]
	ldr	x0, [sp, 8]
	ldr	s1, [x0, 12]
	ldr	s0, [sp, 4]
	fadd	s0, s1, s0
	ldr	x0, [sp, 8]
	str	s0, [x0, 12]
	nop
	add	sp, sp, 16
	.cfi_def_cfa_offset 0
	ret
	.cfi_endproc
.LFE1251:
	.size	_ZN6ImRect6ExpandEf, .-_ZN6ImRect6ExpandEf
	.section	.text._ZN6ImRect6ExpandERK6ImVec2,"axG",@progbits,_ZN6ImRect6ExpandERK6ImVec2,comdat
	.align	2
	.weak	_ZN6ImRect6ExpandERK6ImVec2
	.type	_ZN6ImRect6ExpandERK6ImVec2, %function
_ZN6ImRect6ExpandERK6ImVec2:
.LFB1252:
	.cfi_startproc
	sub	sp, sp, #16
	.cfi_def_cfa_offset 16
	str	x0, [sp, 8]
	str	x1, [sp]
	ldr	x0, [sp, 8]
	ldr	s1, [x0]
	ldr	x0, [sp]
	ldr	s0, [x0]
	fsub	s0, s1, s0
	ldr	x0, [sp, 8]
	str	s0, [x0]
	ldr	x0, [sp, 8]
	ldr	s1, [x0, 4]
	ldr	x0, [sp]
	ldr	s0, [x0, 4]
	fsub	s0, s1, s0
	ldr	x0, [sp, 8]
	str	s0, [x0, 4]
	ldr	x0, [sp, 8]
	ldr	s1, [x0, 8]
	ldr	x0, [sp]
	ldr	s0, [x0]
	fadd	s0, s1, s0
	ldr	x0, [sp, 8]
	str	s0, [x0, 8]
	ldr	x0, [sp, 8]
	ldr	s1, [x0, 12]
	ldr	x0, [sp]
	ldr	s0, [x0, 4]
	fadd	s0, s1, s0
	ldr	x0, [sp, 8]
	str	s0, [x0, 12]
	nop
	add	sp, sp, 16
	.cfi_def_cfa_offset 0
	ret
	.cfi_endproc
.LFE1252:
	.size	_ZN6ImRect6ExpandERK6ImVec2, .-_ZN6ImRect6ExpandERK6ImVec2
	.section	.text._ZN6ImRect9TranslateERK6ImVec2,"axG",@progbits,_ZN6ImRect9TranslateERK6ImVec2,comdat
	.align	2
	.weak	_ZN6ImRect9TranslateERK6ImVec2
	.type	_ZN6ImRect9TranslateERK6ImVec2, %function
_ZN6ImRect9TranslateERK6ImVec2:
.LFB1253:
	.cfi_startproc
	sub	sp, sp, #16
	.cfi_def_cfa_offset 16
	str	x0, [sp, 8]
	str	x1, [sp]
	ldr	x0, [sp, 8]
	ldr	s1, [x0]
	ldr	x0, [sp]
	ldr	s0, [x0]
	fadd	s0, s1, s0
	ldr	x0, [sp, 8]
	str	s0, [x0]
	ldr	x0, [sp, 8]
	ldr	s1, [x0, 4]
	ldr	x0, [sp]
	ldr	s0, [x0, 4]
	fadd	s0, s1, s0
	ldr	x0, [sp, 8]
	str	s0, [x0, 4]
	ldr	x0, [sp, 8]
	ldr	s1, [x0, 8]
	ldr	x0, [sp]
	ldr	s0, [x0]
	fadd	s0, s1, s0
	ldr	x0, [sp, 8]
	str	s0, [x0, 8]
	ldr	x0, [sp, 8]
	ldr	s1, [x0, 12]
	ldr	x0, [sp]
	ldr	s0, [x0, 4]
	fadd	s0, s1, s0
	ldr	x0, [sp, 8]
	str	s0, [x0, 12]
	nop
	add	sp, sp, 16
	.cfi_def_cfa_offset 0
	ret
	.cfi_endproc
.LFE1253:
	.size	_ZN6ImRect9TranslateERK6ImVec2, .-_ZN6ImRect9TranslateERK6ImVec2
	.section	.text._ZN6ImRect10TranslateXEf,"axG",@progbits,_ZN6ImRect10TranslateXEf,comdat
	.align	2
	.weak	_ZN6ImRect10TranslateXEf
	.type	_ZN6ImRect10TranslateXEf, %function
_ZN6ImRect10TranslateXEf:
.LFB1254:
	.cfi_startproc
	sub	sp, sp, #16
	.cfi_def_cfa_offset 16
	str	x0, [sp, 8]
	str	s0, [sp, 4]
	ldr	x0, [sp, 8]
	ldr	s1, [x0]
	ldr	s0, [sp, 4]
	fadd	s0, s1, s0
	ldr	x0, [sp, 8]
	str	s0, [x0]
	ldr	x0, [sp, 8]
	ldr	s1, [x0, 8]
	ldr	s0, [sp, 4]
	fadd	s0, s1, s0
	ldr	x0, [sp, 8]
	str	s0, [x0, 8]
	nop
	add	sp, sp, 16
	.cfi_def_cfa_offset 0
	ret
	.cfi_endproc
.LFE1254:
	.size	_ZN6ImRect10TranslateXEf, .-_ZN6ImRect10TranslateXEf
	.section	.text._ZN6ImRect10TranslateYEf,"axG",@progbits,_ZN6ImRect10TranslateYEf,comdat
	.align	2
	.weak	_ZN6ImRect10TranslateYEf
	.type	_ZN6ImRect10TranslateYEf, %function
_ZN6ImRect10TranslateYEf:
.LFB1255:
	.cfi_startproc
	sub	sp, sp, #16
	.cfi_def_cfa_offset 16
	str	x0, [sp, 8]
	str	s0, [sp, 4]
	ldr	x0, [sp, 8]
	ldr	s1, [x0, 4]
	ldr	s0, [sp, 4]
	fadd	s0, s1, s0
	ldr	x0, [sp, 8]
	str	s0, [x0, 4]
	ldr	x0, [sp, 8]
	ldr	s1, [x0, 12]
	ldr	s0, [sp, 4]
	fadd	s0, s1, s0
	ldr	x0, [sp, 8]
	str	s0, [x0, 12]
	nop
	add	sp, sp, 16
	.cfi_def_cfa_offset 0
	ret
	.cfi_endproc
.LFE1255:
	.size	_ZN6ImRect10TranslateYEf, .-_ZN6ImRect10TranslateYEf
	.section	.text._ZN6ImRect8ClipWithERKS_,"axG",@progbits,_ZN6ImRect8ClipWithERKS_,comdat
	.align	2
	.weak	_ZN6ImRect8ClipWithERKS_
	.type	_ZN6ImRect8ClipWithERKS_, %function
_ZN6ImRect8ClipWithERKS_:
.LFB1256:
	.cfi_startproc
	stp	x29, x30, [sp, -48]!
	.cfi_def_cfa_offset 48
	.cfi_offset 29, -48
	.cfi_offset 30, -40
	mov	x29, sp
	str	x19, [sp, 16]
	.cfi_offset 19, -32
	str	x0, [sp, 40]
	str	x1, [sp, 32]
	ldr	x0, [sp, 40]
	ldr	x1, [sp, 32]
	ldr	x19, [sp, 40]
	bl	_ZL5ImMaxRK6ImVec2S1_
	fmov	s2, s0
	fmov	s0, s1
	str	s2, [x19]
	str	s0, [x19, 4]
	ldr	x0, [sp, 40]
	add	x2, x0, 8
	ldr	x0, [sp, 32]
	add	x0, x0, 8
	ldr	x19, [sp, 40]
	mov	x1, x0
	mov	x0, x2
	bl	_ZL5ImMinRK6ImVec2S1_
	fmov	s2, s0
	fmov	s0, s1
	str	s2, [x19, 8]
	str	s0, [x19, 12]
	nop
	ldr	x19, [sp, 16]
	ldp	x29, x30, [sp], 48
	.cfi_restore 30
	.cfi_restore 29
	.cfi_restore 19
	.cfi_def_cfa_offset 0
	ret
	.cfi_endproc
.LFE1256:
	.size	_ZN6ImRect8ClipWithERKS_, .-_ZN6ImRect8ClipWithERKS_
	.section	.text._ZN6ImRect12ClipWithFullERKS_,"axG",@progbits,_ZN6ImRect12ClipWithFullERKS_,comdat
	.align	2
	.weak	_ZN6ImRect12ClipWithFullERKS_
	.type	_ZN6ImRect12ClipWithFullERKS_, %function
_ZN6ImRect12ClipWithFullERKS_:
.LFB1257:
	.cfi_startproc
	stp	x29, x30, [sp, -48]!
	.cfi_def_cfa_offset 48
	.cfi_offset 29, -48
	.cfi_offset 30, -40
	mov	x29, sp
	str	x19, [sp, 16]
	.cfi_offset 19, -32
	str	x0, [sp, 40]
	str	x1, [sp, 32]
	ldr	x2, [sp, 40]
	ldr	x1, [sp, 32]
	ldr	x19, [sp, 40]
	ldr	x0, [sp, 32]
	ldr	s0, [x0, 8]
	ldr	s1, [x0, 12]
	mov	x0, x2
	bl	_ZL7ImClampRK6ImVec2S1_S_
	fmov	s2, s0
	fmov	s0, s1
	str	s2, [x19]
	str	s0, [x19, 4]
	ldr	x0, [sp, 40]
	add	x2, x0, 8
	ldr	x1, [sp, 32]
	ldr	x19, [sp, 40]
	ldr	x0, [sp, 32]
	ldr	s0, [x0, 8]
	ldr	s1, [x0, 12]
	mov	x0, x2
	bl	_ZL7ImClampRK6ImVec2S1_S_
	fmov	s2, s0
	fmov	s0, s1
	str	s2, [x19, 8]
	str	s0, [x19, 12]
	nop
	ldr	x19, [sp, 16]
	ldp	x29, x30, [sp], 48
	.cfi_restore 30
	.cfi_restore 29
	.cfi_restore 19
	.cfi_def_cfa_offset 0
	ret
	.cfi_endproc
.LFE1257:
	.size	_ZN6ImRect12ClipWithFullERKS_, .-_ZN6ImRect12ClipWithFullERKS_
	.section	.text._ZNK6ImRect10IsInvertedEv,"axG",@progbits,_ZNK6ImRect10IsInvertedEv,comdat
	.align	2
	.weak	_ZNK6ImRect10IsInvertedEv
	.type	_ZNK6ImRect10IsInvertedEv, %function
_ZNK6ImRect10IsInvertedEv:
.LFB1259:
	.cfi_startproc
	sub	sp, sp, #16
	.cfi_def_cfa_offset 16
	str	x0, [sp, 8]
	ldr	x0, [sp, 8]
	ldr	s1, [x0]
	ldr	x0, [sp, 8]
	ldr	s0, [x0, 8]
	fcmpe	s1, s0
	bgt	.L282
	ldr	x0, [sp, 8]
	ldr	s1, [x0, 4]
	ldr	x0, [sp, 8]
	ldr	s0, [x0, 12]
	fcmpe	s1, s0
	bgt	.L282
	b	.L287
.L282:
	mov	w0, 1
	b	.L285
.L287:
	mov	w0, 0
.L285:
	add	sp, sp, 16
	.cfi_def_cfa_offset 0
	ret
	.cfi_endproc
.LFE1259:
	.size	_ZNK6ImRect10IsInvertedEv, .-_ZNK6ImRect10IsInvertedEv
	.section	.text._ZNK6ImRect6ToVec4Ev,"axG",@progbits,_ZNK6ImRect6ToVec4Ev,comdat
	.align	2
	.weak	_ZNK6ImRect6ToVec4Ev
	.type	_ZNK6ImRect6ToVec4Ev, %function
_ZNK6ImRect6ToVec4Ev:
.LFB1260:
	.cfi_startproc
	stp	x29, x30, [sp, -64]!
	.cfi_def_cfa_offset 64
	.cfi_offset 29, -64
	.cfi_offset 30, -56
	mov	x29, sp
	str	x0, [sp, 24]
	adrp	x0, :got:__stack_chk_guard
	ldr	x0, [x0, #:got_lo12:__stack_chk_guard]
	ldr	x1, [x0]
	str	x1, [sp, 56]
	mov	x1, 0
	ldr	x0, [sp, 24]
	ldr	s0, [x0]
	ldr	x0, [sp, 24]
	ldr	s1, [x0, 4]
	ldr	x0, [sp, 24]
	ldr	s2, [x0, 8]
	ldr	x0, [sp, 24]
	ldr	s3, [x0, 12]
	add	x0, sp, 40
	bl	_ZN6ImVec4C1Effff
	ldp	x0, x1, [sp, 40]
	mov	x2, x0
	mov	x3, x1
	lsr	w4, w2, 0
	mov	x2, x0
	mov	x3, x1
	lsr	x2, x2, 32
	mov	w5, w2
	mov	x2, x0
	mov	x3, x1
	lsr	w2, w3, 0
	lsr	x0, x1, 32
	fmov	s0, w4
	fmov	s1, w5
	fmov	s2, w2
	fmov	s3, w0
	adrp	x0, :got:__stack_chk_guard
	ldr	x0, [x0, #:got_lo12:__stack_chk_guard]
	ldr	x2, [sp, 56]
	ldr	x1, [x0]
	subs	x2, x2, x1
	mov	x1, 0
	beq	.L290
	bl	__stack_chk_fail
.L290:
	ldp	x29, x30, [sp], 64
	.cfi_restore 30
	.cfi_restore 29
	.cfi_def_cfa_offset 0
	ret
	.cfi_endproc
.LFE1260:
	.size	_ZNK6ImRect6ToVec4Ev, .-_ZNK6ImRect6ToVec4Ev
	.section	.text._Z17ImBitArrayTestBitPKji,"axG",@progbits,_Z17ImBitArrayTestBitPKji,comdat
	.align	2
	.weak	_Z17ImBitArrayTestBitPKji
	.type	_Z17ImBitArrayTestBitPKji, %function
_Z17ImBitArrayTestBitPKji:
.LFB1261:
	.cfi_startproc
	sub	sp, sp, #32
	.cfi_def_cfa_offset 32
	str	x0, [sp, 8]
	str	w1, [sp, 4]
	ldr	w0, [sp, 4]
	and	w0, w0, 31
	mov	w1, 1
	lsl	w0, w1, w0
	str	w0, [sp, 28]
	ldr	w0, [sp, 4]
	asr	w0, w0, 5
	sxtw	x0, w0
	lsl	x0, x0, 2
	ldr	x1, [sp, 8]
	add	x0, x1, x0
	ldr	w1, [x0]
	ldr	w0, [sp, 28]
	and	w0, w1, w0
	cmp	w0, 0
	cset	w0, ne
	and	w0, w0, 255
	add	sp, sp, 32
	.cfi_def_cfa_offset 0
	ret
	.cfi_endproc
.LFE1261:
	.size	_Z17ImBitArrayTestBitPKji, .-_Z17ImBitArrayTestBitPKji
	.section	.text._Z16ImBitArraySetBitPji,"axG",@progbits,_Z16ImBitArraySetBitPji,comdat
	.align	2
	.weak	_Z16ImBitArraySetBitPji
	.type	_Z16ImBitArraySetBitPji, %function
_Z16ImBitArraySetBitPji:
.LFB1263:
	.cfi_startproc
	sub	sp, sp, #32
	.cfi_def_cfa_offset 32
	str	x0, [sp, 8]
	str	w1, [sp, 4]
	ldr	w0, [sp, 4]
	and	w0, w0, 31
	mov	w1, 1
	lsl	w0, w1, w0
	str	w0, [sp, 28]
	ldr	w0, [sp, 4]
	asr	w0, w0, 5
	sxtw	x0, w0
	lsl	x0, x0, 2
	ldr	x1, [sp, 8]
	add	x0, x1, x0
	ldr	w2, [x0]
	ldr	w0, [sp, 4]
	asr	w0, w0, 5
	sxtw	x0, w0
	lsl	x0, x0, 2
	ldr	x1, [sp, 8]
	add	x0, x1, x0
	ldr	w1, [sp, 28]
	orr	w1, w2, w1
	str	w1, [x0]
	nop
	add	sp, sp, 32
	.cfi_def_cfa_offset 0
	ret
	.cfi_endproc
.LFE1263:
	.size	_Z16ImBitArraySetBitPji, .-_Z16ImBitArraySetBitPji
	.section	.text._ZN14ImGuiTextIndex5clearEv,"axG",@progbits,_ZN14ImGuiTextIndex5clearEv,comdat
	.align	2
	.weak	_ZN14ImGuiTextIndex5clearEv
	.type	_ZN14ImGuiTextIndex5clearEv, %function
_ZN14ImGuiTextIndex5clearEv:
.LFB1327:
	.cfi_startproc
	stp	x29, x30, [sp, -32]!
	.cfi_def_cfa_offset 32
	.cfi_offset 29, -32
	.cfi_offset 30, -24
	mov	x29, sp
	str	x0, [sp, 24]
	ldr	x0, [sp, 24]
	bl	_ZN8ImVectorIiE5clearEv
	ldr	x0, [sp, 24]
	str	wzr, [x0, 16]
	nop
	ldp	x29, x30, [sp], 32
	.cfi_restore 30
	.cfi_restore 29
	.cfi_def_cfa_offset 0
	ret
	.cfi_endproc
.LFE1327:
	.size	_ZN14ImGuiTextIndex5clearEv, .-_ZN14ImGuiTextIndex5clearEv
	.section	.text._ZN14ImGuiTextIndex4sizeEv,"axG",@progbits,_ZN14ImGuiTextIndex4sizeEv,comdat
	.align	2
	.weak	_ZN14ImGuiTextIndex4sizeEv
	.type	_ZN14ImGuiTextIndex4sizeEv, %function
_ZN14ImGuiTextIndex4sizeEv:
.LFB1328:
	.cfi_startproc
	sub	sp, sp, #16
	.cfi_def_cfa_offset 16
	str	x0, [sp, 8]
	ldr	x0, [sp, 8]
	ldr	w0, [x0]
	add	sp, sp, 16
	.cfi_def_cfa_offset 0
	ret
	.cfi_endproc
.LFE1328:
	.size	_ZN14ImGuiTextIndex4sizeEv, .-_ZN14ImGuiTextIndex4sizeEv
	.section	.text._ZN14ImGuiTextIndex14get_line_beginEPKci,"axG",@progbits,_ZN14ImGuiTextIndex14get_line_beginEPKci,comdat
	.align	2
	.weak	_ZN14ImGuiTextIndex14get_line_beginEPKci
	.type	_ZN14ImGuiTextIndex14get_line_beginEPKci, %function
_ZN14ImGuiTextIndex14get_line_beginEPKci:
.LFB1329:
	.cfi_startproc
	stp	x29, x30, [sp, -48]!
	.cfi_def_cfa_offset 48
	.cfi_offset 29, -48
	.cfi_offset 30, -40
	mov	x29, sp
	str	x0, [sp, 40]
	str	x1, [sp, 32]
	str	w2, [sp, 28]
	ldr	x0, [sp, 40]
	ldr	w1, [sp, 28]
	bl	_ZN8ImVectorIiEixEi
	ldr	w0, [x0]
	sxtw	x0, w0
	ldr	x1, [sp, 32]
	add	x0, x1, x0
	ldp	x29, x30, [sp], 48
	.cfi_restore 30
	.cfi_restore 29
	.cfi_def_cfa_offset 0
	ret
	.cfi_endproc
.LFE1329:
	.size	_ZN14ImGuiTextIndex14get_line_beginEPKci, .-_ZN14ImGuiTextIndex14get_line_beginEPKci
	.section	.text._ZN14ImGuiTextIndex12get_line_endEPKci,"axG",@progbits,_ZN14ImGuiTextIndex12get_line_endEPKci,comdat
	.align	2
	.weak	_ZN14ImGuiTextIndex12get_line_endEPKci
	.type	_ZN14ImGuiTextIndex12get_line_endEPKci, %function
_ZN14ImGuiTextIndex12get_line_endEPKci:
.LFB1330:
	.cfi_startproc
	stp	x29, x30, [sp, -48]!
	.cfi_def_cfa_offset 48
	.cfi_offset 29, -48
	.cfi_offset 30, -40
	mov	x29, sp
	str	x0, [sp, 40]
	str	x1, [sp, 32]
	str	w2, [sp, 28]
	ldr	w0, [sp, 28]
	add	w1, w0, 1
	ldr	x0, [sp, 40]
	ldr	w0, [x0]
	cmp	w1, w0
	bge	.L300
	ldr	x2, [sp, 40]
	ldr	w0, [sp, 28]
	add	w0, w0, 1
	mov	w1, w0
	mov	x0, x2
	bl	_ZN8ImVectorIiEixEi
	ldr	w0, [x0]
	sub	w0, w0, #1
	sxtw	x0, w0
	b	.L301
.L300:
	ldr	x0, [sp, 40]
	ldr	w0, [x0, 16]
	sxtw	x0, w0
.L301:
	ldr	x1, [sp, 32]
	add	x0, x1, x0
	ldp	x29, x30, [sp], 48
	.cfi_restore 30
	.cfi_restore 29
	.cfi_def_cfa_offset 0
	ret
	.cfi_endproc
.LFE1330:
	.size	_ZN14ImGuiTextIndex12get_line_endEPKci, .-_ZN14ImGuiTextIndex12get_line_endEPKci
	.section	.text._ZN17ImDrawDataBuilder5ClearEv,"axG",@progbits,_ZN17ImDrawDataBuilder5ClearEv,comdat
	.align	2
	.weak	_ZN17ImDrawDataBuilder5ClearEv
	.type	_ZN17ImDrawDataBuilder5ClearEv, %function
_ZN17ImDrawDataBuilder5ClearEv:
.LFB1331:
	.cfi_startproc
	stp	x29, x30, [sp, -48]!
	.cfi_def_cfa_offset 48
	.cfi_offset 29, -48
	.cfi_offset 30, -40
	mov	x29, sp
	str	x0, [sp, 24]
	str	wzr, [sp, 44]
	b	.L304
.L305:
	ldrsw	x0, [sp, 44]
	lsl	x0, x0, 4
	ldr	x1, [sp, 24]
	add	x0, x1, x0
	mov	w1, 0
	bl	_ZN8ImVectorIP10ImDrawListE6resizeEi
	ldr	w0, [sp, 44]
	add	w0, w0, 1
	str	w0, [sp, 44]
.L304:
	ldr	w0, [sp, 44]
	cmp	w0, 1
	ble	.L305
	nop
	nop
	ldp	x29, x30, [sp], 48
	.cfi_restore 30
	.cfi_restore 29
	.cfi_def_cfa_offset 0
	ret
	.cfi_endproc
.LFE1331:
	.size	_ZN17ImDrawDataBuilder5ClearEv, .-_ZN17ImDrawDataBuilder5ClearEv
	.section	.text._ZNK17ImDrawDataBuilder16GetDrawListCountEv,"axG",@progbits,_ZNK17ImDrawDataBuilder16GetDrawListCountEv,comdat
	.align	2
	.weak	_ZNK17ImDrawDataBuilder16GetDrawListCountEv
	.type	_ZNK17ImDrawDataBuilder16GetDrawListCountEv, %function
_ZNK17ImDrawDataBuilder16GetDrawListCountEv:
.LFB1333:
	.cfi_startproc
	sub	sp, sp, #32
	.cfi_def_cfa_offset 32
	str	x0, [sp, 8]
	str	wzr, [sp, 24]
	str	wzr, [sp, 28]
	b	.L307
.L308:
	ldr	x1, [sp, 8]
	ldrsw	x0, [sp, 28]
	lsl	x0, x0, 4
	add	x0, x1, x0
	ldr	w0, [x0]
	ldr	w1, [sp, 24]
	add	w0, w1, w0
	str	w0, [sp, 24]
	ldr	w0, [sp, 28]
	add	w0, w0, 1
	str	w0, [sp, 28]
.L307:
	ldr	w0, [sp, 28]
	cmp	w0, 1
	ble	.L308
	ldr	w0, [sp, 24]
	add	sp, sp, 32
	.cfi_def_cfa_offset 0
	ret
	.cfi_endproc
.LFE1333:
	.size	_ZNK17ImDrawDataBuilder16GetDrawListCountEv, .-_ZNK17ImDrawDataBuilder16GetDrawListCountEv
	.section	.text._ZN13ImGuiStyleModC2Eif,"axG",@progbits,_ZN13ImGuiStyleModC5Eif,comdat
	.align	2
	.weak	_ZN13ImGuiStyleModC2Eif
	.type	_ZN13ImGuiStyleModC2Eif, %function
_ZN13ImGuiStyleModC2Eif:
.LFB1338:
	.cfi_startproc
	sub	sp, sp, #16
	.cfi_def_cfa_offset 16
	str	x0, [sp, 8]
	str	w1, [sp, 4]
	str	s0, [sp]
	ldr	x0, [sp, 8]
	ldr	w1, [sp, 4]
	str	w1, [x0]
	ldr	x0, [sp, 8]
	ldr	s0, [sp]
	str	s0, [x0, 4]
	nop
	add	sp, sp, 16
	.cfi_def_cfa_offset 0
	ret
	.cfi_endproc
.LFE1338:
	.size	_ZN13ImGuiStyleModC2Eif, .-_ZN13ImGuiStyleModC2Eif
	.weak	_ZN13ImGuiStyleModC1Eif
	.set	_ZN13ImGuiStyleModC1Eif,_ZN13ImGuiStyleModC2Eif
	.section	.text._ZN13ImGuiStyleModC2Ei6ImVec2,"axG",@progbits,_ZN13ImGuiStyleModC5Ei6ImVec2,comdat
	.align	2
	.weak	_ZN13ImGuiStyleModC2Ei6ImVec2
	.type	_ZN13ImGuiStyleModC2Ei6ImVec2, %function
_ZN13ImGuiStyleModC2Ei6ImVec2:
.LFB1341:
	.cfi_startproc
	sub	sp, sp, #32
	.cfi_def_cfa_offset 32
	str	x0, [sp, 24]
	str	w1, [sp, 20]
	fmov	s2, s0
	fmov	s0, s1
	fmov	x0, d2
	fmov	w1, s0
	bfi	x0, x1, 32, 32
	str	x0, [sp, 8]
	ldr	x0, [sp, 24]
	ldr	w1, [sp, 20]
	str	w1, [x0]
	ldr	s0, [sp, 8]
	ldr	x0, [sp, 24]
	str	s0, [x0, 4]
	ldr	s0, [sp, 12]
	ldr	x0, [sp, 24]
	str	s0, [x0, 8]
	nop
	add	sp, sp, 32
	.cfi_def_cfa_offset 0
	ret
	.cfi_endproc
.LFE1341:
	.size	_ZN13ImGuiStyleModC2Ei6ImVec2, .-_ZN13ImGuiStyleModC2Ei6ImVec2
	.weak	_ZN13ImGuiStyleModC1Ei6ImVec2
	.set	_ZN13ImGuiStyleModC1Ei6ImVec2,_ZN13ImGuiStyleModC2Ei6ImVec2
	.section	.text._ZN21ImGuiComboPreviewDataC2Ev,"axG",@progbits,_ZN21ImGuiComboPreviewDataC5Ev,comdat
	.align	2
	.weak	_ZN21ImGuiComboPreviewDataC2Ev
	.type	_ZN21ImGuiComboPreviewDataC2Ev, %function
_ZN21ImGuiComboPreviewDataC2Ev:
.LFB1344:
	.cfi_startproc
	stp	x29, x30, [sp, -32]!
	.cfi_def_cfa_offset 32
	.cfi_offset 29, -32
	.cfi_offset 30, -24
	mov	x29, sp
	str	x0, [sp, 24]
	ldr	x0, [sp, 24]
	bl	_ZN6ImRectC1Ev
	ldr	x0, [sp, 24]
	add	x0, x0, 16
	bl	_ZN6ImVec2C1Ev
	ldr	x0, [sp, 24]
	add	x0, x0, 24
	bl	_ZN6ImVec2C1Ev
	ldr	x0, [sp, 24]
	add	x0, x0, 32
	bl	_ZN6ImVec2C1Ev
	mov	x2, 48
	mov	w1, 0
	ldr	x0, [sp, 24]
	bl	memset
	nop
	ldp	x29, x30, [sp], 32
	.cfi_restore 30
	.cfi_restore 29
	.cfi_def_cfa_offset 0
	ret
	.cfi_endproc
.LFE1344:
	.size	_ZN21ImGuiComboPreviewDataC2Ev, .-_ZN21ImGuiComboPreviewDataC2Ev
	.weak	_ZN21ImGuiComboPreviewDataC1Ev
	.set	_ZN21ImGuiComboPreviewDataC1Ev,_ZN21ImGuiComboPreviewDataC2Ev
	.section	.text._ZN16ImGuiMenuColumnsC2Ev,"axG",@progbits,_ZN16ImGuiMenuColumnsC5Ev,comdat
	.align	2
	.weak	_ZN16ImGuiMenuColumnsC2Ev
	.type	_ZN16ImGuiMenuColumnsC2Ev, %function
_ZN16ImGuiMenuColumnsC2Ev:
.LFB1347:
	.cfi_startproc
	stp	x29, x30, [sp, -32]!
	.cfi_def_cfa_offset 32
	.cfi_offset 29, -32
	.cfi_offset 30, -24
	mov	x29, sp
	str	x0, [sp, 24]
	mov	x2, 28
	mov	w1, 0
	ldr	x0, [sp, 24]
	bl	memset
	nop
	ldp	x29, x30, [sp], 32
	.cfi_restore 30
	.cfi_restore 29
	.cfi_def_cfa_offset 0
	ret
	.cfi_endproc
.LFE1347:
	.size	_ZN16ImGuiMenuColumnsC2Ev, .-_ZN16ImGuiMenuColumnsC2Ev
	.weak	_ZN16ImGuiMenuColumnsC1Ev
	.set	_ZN16ImGuiMenuColumnsC1Ev,_ZN16ImGuiMenuColumnsC2Ev
	.section	.text._ZN19ImGuiInputTextStateC2Ev,"axG",@progbits,_ZN19ImGuiInputTextStateC5Ev,comdat
	.align	2
	.weak	_ZN19ImGuiInputTextStateC2Ev
	.type	_ZN19ImGuiInputTextStateC2Ev, %function
_ZN19ImGuiInputTextStateC2Ev:
.LFB1350:
	.cfi_startproc
	stp	x29, x30, [sp, -32]!
	.cfi_def_cfa_offset 32
	.cfi_offset 29, -32
	.cfi_offset 30, -24
	mov	x29, sp
	str	x0, [sp, 24]
	ldr	x0, [sp, 24]
	add	x0, x0, 16
	bl	_ZN8ImVectorItEC1Ev
	ldr	x0, [sp, 24]
	add	x0, x0, 32
	bl	_ZN8ImVectorIcEC1Ev
	ldr	x0, [sp, 24]
	add	x0, x0, 48
	bl	_ZN8ImVectorIcEC1Ev
	mov	x2, 3720
	mov	w1, 0
	ldr	x0, [sp, 24]
	bl	memset
	nop
	ldp	x29, x30, [sp], 32
	.cfi_restore 30
	.cfi_restore 29
	.cfi_def_cfa_offset 0
	ret
	.cfi_endproc
.LFE1350:
	.size	_ZN19ImGuiInputTextStateC2Ev, .-_ZN19ImGuiInputTextStateC2Ev
	.weak	_ZN19ImGuiInputTextStateC1Ev
	.set	_ZN19ImGuiInputTextStateC1Ev,_ZN19ImGuiInputTextStateC2Ev
	.section	.text._ZN19ImGuiInputTextState15ClearFreeMemoryEv,"axG",@progbits,_ZN19ImGuiInputTextState15ClearFreeMemoryEv,comdat
	.align	2
	.weak	_ZN19ImGuiInputTextState15ClearFreeMemoryEv
	.type	_ZN19ImGuiInputTextState15ClearFreeMemoryEv, %function
_ZN19ImGuiInputTextState15ClearFreeMemoryEv:
.LFB1353:
	.cfi_startproc
	stp	x29, x30, [sp, -32]!
	.cfi_def_cfa_offset 32
	.cfi_offset 29, -32
	.cfi_offset 30, -24
	mov	x29, sp
	str	x0, [sp, 24]
	ldr	x0, [sp, 24]
	add	x0, x0, 16
	bl	_ZN8ImVectorItE5clearEv
	ldr	x0, [sp, 24]
	add	x0, x0, 32
	bl	_ZN8ImVectorIcE5clearEv
	ldr	x0, [sp, 24]
	add	x0, x0, 48
	bl	_ZN8ImVectorIcE5clearEv
	nop
	ldp	x29, x30, [sp], 32
	.cfi_restore 30
	.cfi_restore 29
	.cfi_def_cfa_offset 0
	ret
	.cfi_endproc
.LFE1353:
	.size	_ZN19ImGuiInputTextState15ClearFreeMemoryEv, .-_ZN19ImGuiInputTextState15ClearFreeMemoryEv
	.section	.text._ZN14ImGuiPopupDataC2Ev,"axG",@progbits,_ZN14ImGuiPopupDataC5Ev,comdat
	.align	2
	.weak	_ZN14ImGuiPopupDataC2Ev
	.type	_ZN14ImGuiPopupDataC2Ev, %function
_ZN14ImGuiPopupDataC2Ev:
.LFB1365:
	.cfi_startproc
	stp	x29, x30, [sp, -32]!
	.cfi_def_cfa_offset 32
	.cfi_offset 29, -32
	.cfi_offset 30, -24
	mov	x29, sp
	str	x0, [sp, 24]
	ldr	x0, [sp, 24]
	add	x0, x0, 36
	bl	_ZN6ImVec2C1Ev
	ldr	x0, [sp, 24]
	add	x0, x0, 44
	bl	_ZN6ImVec2C1Ev
	mov	x2, 56
	mov	w1, 0
	ldr	x0, [sp, 24]
	bl	memset
	ldr	x0, [sp, 24]
	mov	w1, -1
	str	w1, [x0, 28]
	ldr	x0, [sp, 24]
	ldr	w1, [x0, 28]
	ldr	x0, [sp, 24]
	str	w1, [x0, 24]
	nop
	ldp	x29, x30, [sp], 32
	.cfi_restore 30
	.cfi_restore 29
	.cfi_def_cfa_offset 0
	ret
	.cfi_endproc
.LFE1365:
	.size	_ZN14ImGuiPopupDataC2Ev, .-_ZN14ImGuiPopupDataC2Ev
	.weak	_ZN14ImGuiPopupDataC1Ev
	.set	_ZN14ImGuiPopupDataC1Ev,_ZN14ImGuiPopupDataC2Ev
	.section	.text._ZN19ImGuiNextWindowDataC2Ev,"axG",@progbits,_ZN19ImGuiNextWindowDataC5Ev,comdat
	.align	2
	.weak	_ZN19ImGuiNextWindowDataC2Ev
	.type	_ZN19ImGuiNextWindowDataC2Ev, %function
_ZN19ImGuiNextWindowDataC2Ev:
.LFB1368:
	.cfi_startproc
	stp	x29, x30, [sp, -32]!
	.cfi_def_cfa_offset 32
	.cfi_offset 29, -32
	.cfi_offset 30, -24
	mov	x29, sp
	str	x0, [sp, 24]
	ldr	x0, [sp, 24]
	add	x0, x0, 16
	bl	_ZN6ImVec2C1Ev
	ldr	x0, [sp, 24]
	add	x0, x0, 24
	bl	_ZN6ImVec2C1Ev
	ldr	x0, [sp, 24]
	add	x0, x0, 32
	bl	_ZN6ImVec2C1Ev
	ldr	x0, [sp, 24]
	add	x0, x0, 40
	bl	_ZN6ImVec2C1Ev
	ldr	x0, [sp, 24]
	add	x0, x0, 48
	bl	_ZN6ImVec2C1Ev
	ldr	x0, [sp, 24]
	add	x0, x0, 60
	bl	_ZN6ImRectC1Ev
	ldr	x0, [sp, 24]
	add	x0, x0, 100
	bl	_ZN6ImVec2C1Ev
	mov	x2, 112
	mov	w1, 0
	ldr	x0, [sp, 24]
	bl	memset
	nop
	ldp	x29, x30, [sp], 32
	.cfi_restore 30
	.cfi_restore 29
	.cfi_def_cfa_offset 0
	ret
	.cfi_endproc
.LFE1368:
	.size	_ZN19ImGuiNextWindowDataC2Ev, .-_ZN19ImGuiNextWindowDataC2Ev
	.weak	_ZN19ImGuiNextWindowDataC1Ev
	.set	_ZN19ImGuiNextWindowDataC1Ev,_ZN19ImGuiNextWindowDataC2Ev
	.section	.text._ZN19ImGuiNextWindowData10ClearFlagsEv,"axG",@progbits,_ZN19ImGuiNextWindowData10ClearFlagsEv,comdat
	.align	2
	.weak	_ZN19ImGuiNextWindowData10ClearFlagsEv
	.type	_ZN19ImGuiNextWindowData10ClearFlagsEv, %function
_ZN19ImGuiNextWindowData10ClearFlagsEv:
.LFB1370:
	.cfi_startproc
	sub	sp, sp, #16
	.cfi_def_cfa_offset 16
	str	x0, [sp, 8]
	ldr	x0, [sp, 8]
	str	wzr, [x0]
	nop
	add	sp, sp, 16
	.cfi_def_cfa_offset 0
	ret
	.cfi_endproc
.LFE1370:
	.size	_ZN19ImGuiNextWindowData10ClearFlagsEv, .-_ZN19ImGuiNextWindowData10ClearFlagsEv
	.section	.text._ZN17ImGuiNextItemDataC2Ev,"axG",@progbits,_ZN17ImGuiNextItemDataC5Ev,comdat
	.align	2
	.weak	_ZN17ImGuiNextItemDataC2Ev
	.type	_ZN17ImGuiNextItemDataC2Ev, %function
_ZN17ImGuiNextItemDataC2Ev:
.LFB1372:
	.cfi_startproc
	stp	x29, x30, [sp, -32]!
	.cfi_def_cfa_offset 32
	.cfi_offset 29, -32
	.cfi_offset 30, -24
	mov	x29, sp
	str	x0, [sp, 24]
	mov	x2, 20
	mov	w1, 0
	ldr	x0, [sp, 24]
	bl	memset
	nop
	ldp	x29, x30, [sp], 32
	.cfi_restore 30
	.cfi_restore 29
	.cfi_def_cfa_offset 0
	ret
	.cfi_endproc
.LFE1372:
	.size	_ZN17ImGuiNextItemDataC2Ev, .-_ZN17ImGuiNextItemDataC2Ev
	.weak	_ZN17ImGuiNextItemDataC1Ev
	.set	_ZN17ImGuiNextItemDataC1Ev,_ZN17ImGuiNextItemDataC2Ev
	.section	.text._ZN17ImGuiLastItemDataC2Ev,"axG",@progbits,_ZN17ImGuiLastItemDataC5Ev,comdat
	.align	2
	.weak	_ZN17ImGuiLastItemDataC2Ev
	.type	_ZN17ImGuiLastItemDataC2Ev, %function
_ZN17ImGuiLastItemDataC2Ev:
.LFB1376:
	.cfi_startproc
	stp	x29, x30, [sp, -32]!
	.cfi_def_cfa_offset 32
	.cfi_offset 29, -32
	.cfi_offset 30, -24
	mov	x29, sp
	str	x0, [sp, 24]
	ldr	x0, [sp, 24]
	add	x0, x0, 12
	bl	_ZN6ImRectC1Ev
	ldr	x0, [sp, 24]
	add	x0, x0, 28
	bl	_ZN6ImRectC1Ev
	ldr	x0, [sp, 24]
	add	x0, x0, 44
	bl	_ZN6ImRectC1Ev
	mov	x2, 60
	mov	w1, 0
	ldr	x0, [sp, 24]
	bl	memset
	nop
	ldp	x29, x30, [sp], 32
	.cfi_restore 30
	.cfi_restore 29
	.cfi_def_cfa_offset 0
	ret
	.cfi_endproc
.LFE1376:
	.size	_ZN17ImGuiLastItemDataC2Ev, .-_ZN17ImGuiLastItemDataC2Ev
	.weak	_ZN17ImGuiLastItemDataC1Ev
	.set	_ZN17ImGuiLastItemDataC1Ev,_ZN17ImGuiLastItemDataC2Ev
	.section	.text._ZN15ImGuiStackSizesC2Ev,"axG",@progbits,_ZN15ImGuiStackSizesC5Ev,comdat
	.align	2
	.weak	_ZN15ImGuiStackSizesC2Ev
	.type	_ZN15ImGuiStackSizesC2Ev, %function
_ZN15ImGuiStackSizesC2Ev:
.LFB1379:
	.cfi_startproc
	stp	x29, x30, [sp, -32]!
	.cfi_def_cfa_offset 32
	.cfi_offset 29, -32
	.cfi_offset 30, -24
	mov	x29, sp
	str	x0, [sp, 24]
	mov	x2, 18
	mov	w1, 0
	ldr	x0, [sp, 24]
	bl	memset
	nop
	ldp	x29, x30, [sp], 32
	.cfi_restore 30
	.cfi_restore 29
	.cfi_def_cfa_offset 0
	ret
	.cfi_endproc
.LFE1379:
	.size	_ZN15ImGuiStackSizesC2Ev, .-_ZN15ImGuiStackSizesC2Ev
	.weak	_ZN15ImGuiStackSizesC1Ev
	.set	_ZN15ImGuiStackSizesC1Ev,_ZN15ImGuiStackSizesC2Ev
	.section	.text._ZN15ImGuiInputEventC2Ev,"axG",@progbits,_ZN15ImGuiInputEventC5Ev,comdat
	.align	2
	.weak	_ZN15ImGuiInputEventC2Ev
	.type	_ZN15ImGuiInputEventC2Ev, %function
_ZN15ImGuiInputEventC2Ev:
.LFB1388:
	.cfi_startproc
	stp	x29, x30, [sp, -32]!
	.cfi_def_cfa_offset 32
	.cfi_offset 29, -32
	.cfi_offset 30, -24
	mov	x29, sp
	str	x0, [sp, 24]
	mov	x2, 24
	mov	w1, 0
	ldr	x0, [sp, 24]
	bl	memset
	nop
	ldp	x29, x30, [sp], 32
	.cfi_restore 30
	.cfi_restore 29
	.cfi_def_cfa_offset 0
	ret
	.cfi_endproc
.LFE1388:
	.size	_ZN15ImGuiInputEventC2Ev, .-_ZN15ImGuiInputEventC2Ev
	.weak	_ZN15ImGuiInputEventC1Ev
	.set	_ZN15ImGuiInputEventC1Ev,_ZN15ImGuiInputEventC2Ev
	.section	.text._ZN19ImGuiKeyRoutingDataC2Ev,"axG",@progbits,_ZN19ImGuiKeyRoutingDataC5Ev,comdat
	.align	2
	.weak	_ZN19ImGuiKeyRoutingDataC2Ev
	.type	_ZN19ImGuiKeyRoutingDataC2Ev, %function
_ZN19ImGuiKeyRoutingDataC2Ev:
.LFB1391:
	.cfi_startproc
	sub	sp, sp, #16
	.cfi_def_cfa_offset 16
	str	x0, [sp, 8]
	ldr	x0, [sp, 8]
	mov	w1, -1
	strh	w1, [x0]
	ldr	x0, [sp, 8]
	strh	wzr, [x0, 2]
	ldr	x0, [sp, 8]
	mov	w1, -1
	strb	w1, [x0, 4]
	ldr	x0, [sp, 8]
	mov	w1, -1
	str	w1, [x0, 12]
	ldr	x0, [sp, 8]
	ldr	w1, [x0, 12]
	ldr	x0, [sp, 8]
	str	w1, [x0, 8]
	nop
	add	sp, sp, 16
	.cfi_def_cfa_offset 0
	ret
	.cfi_endproc
.LFE1391:
	.size	_ZN19ImGuiKeyRoutingDataC2Ev, .-_ZN19ImGuiKeyRoutingDataC2Ev
	.weak	_ZN19ImGuiKeyRoutingDataC1Ev
	.set	_ZN19ImGuiKeyRoutingDataC1Ev,_ZN19ImGuiKeyRoutingDataC2Ev
	.section	.text._ZN20ImGuiKeyRoutingTableC2Ev,"axG",@progbits,_ZN20ImGuiKeyRoutingTableC5Ev,comdat
	.align	2
	.weak	_ZN20ImGuiKeyRoutingTableC2Ev
	.type	_ZN20ImGuiKeyRoutingTableC2Ev, %function
_ZN20ImGuiKeyRoutingTableC2Ev:
.LFB1394:
	.cfi_startproc
	.cfi_personality 0x9b,DW.ref.__gxx_personality_v0
	.cfi_lsda 0x1b,.LLSDA1394
	stp	x29, x30, [sp, -48]!
	.cfi_def_cfa_offset 48
	.cfi_offset 29, -48
	.cfi_offset 30, -40
	mov	x29, sp
	str	x19, [sp, 16]
	.cfi_offset 19, -32
	str	x0, [sp, 40]
	ldr	x0, [sp, 40]
	add	x0, x0, 280
	bl	_ZN8ImVectorI19ImGuiKeyRoutingDataEC1Ev
	ldr	x0, [sp, 40]
	add	x0, x0, 296
	bl	_ZN8ImVectorI19ImGuiKeyRoutingDataEC1Ev
	ldr	x0, [sp, 40]
.LEHB0:
	bl	_ZN20ImGuiKeyRoutingTable5ClearEv
.LEHE0:
	b	.L327
.L326:
	mov	x19, x0
	ldr	x0, [sp, 40]
	add	x0, x0, 296
	bl	_ZN8ImVectorI19ImGuiKeyRoutingDataED1Ev
	ldr	x0, [sp, 40]
	add	x0, x0, 280
	bl	_ZN8ImVectorI19ImGuiKeyRoutingDataED1Ev
	mov	x0, x19
.LEHB1:
	bl	_Unwind_Resume
.LEHE1:
.L327:
	ldr	x19, [sp, 16]
	ldp	x29, x30, [sp], 48
	.cfi_restore 30
	.cfi_restore 29
	.cfi_restore 19
	.cfi_def_cfa_offset 0
	ret
	.cfi_endproc
.LFE1394:
	.section	.gcc_except_table._ZN20ImGuiKeyRoutingTableC2Ev,"aG",@progbits,_ZN20ImGuiKeyRoutingTableC5Ev,comdat
.LLSDA1394:
	.byte	0xff
	.byte	0xff
	.byte	0x1
	.uleb128 .LLSDACSE1394-.LLSDACSB1394
.LLSDACSB1394:
	.uleb128 .LEHB0-.LFB1394
	.uleb128 .LEHE0-.LEHB0
	.uleb128 .L326-.LFB1394
	.uleb128 0
	.uleb128 .LEHB1-.LFB1394
	.uleb128 .LEHE1-.LEHB1
	.uleb128 0
	.uleb128 0
.LLSDACSE1394:
	.section	.text._ZN20ImGuiKeyRoutingTableC2Ev,"axG",@progbits,_ZN20ImGuiKeyRoutingTableC5Ev,comdat
	.size	_ZN20ImGuiKeyRoutingTableC2Ev, .-_ZN20ImGuiKeyRoutingTableC2Ev
	.weak	_ZN20ImGuiKeyRoutingTableC1Ev
	.set	_ZN20ImGuiKeyRoutingTableC1Ev,_ZN20ImGuiKeyRoutingTableC2Ev
	.section	.text._ZN20ImGuiKeyRoutingTable5ClearEv,"axG",@progbits,_ZN20ImGuiKeyRoutingTable5ClearEv,comdat
	.align	2
	.weak	_ZN20ImGuiKeyRoutingTable5ClearEv
	.type	_ZN20ImGuiKeyRoutingTable5ClearEv, %function
_ZN20ImGuiKeyRoutingTable5ClearEv:
.LFB1396:
	.cfi_startproc
	stp	x29, x30, [sp, -48]!
	.cfi_def_cfa_offset 48
	.cfi_offset 29, -48
	.cfi_offset 30, -40
	mov	x29, sp
	str	x0, [sp, 24]
	str	wzr, [sp, 44]
	b	.L329
.L330:
	ldr	x0, [sp, 24]
	ldrsw	x1, [sp, 44]
	mov	w2, -1
	strh	w2, [x0, x1, lsl 1]
	ldr	w0, [sp, 44]
	add	w0, w0, 1
	str	w0, [sp, 44]
.L329:
	ldr	w0, [sp, 44]
	cmp	w0, 139
	ble	.L330
	ldr	x0, [sp, 24]
	add	x0, x0, 280
	bl	_ZN8ImVectorI19ImGuiKeyRoutingDataE5clearEv
	ldr	x0, [sp, 24]
	add	x0, x0, 296
	bl	_ZN8ImVectorI19ImGuiKeyRoutingDataE5clearEv
	nop
	ldp	x29, x30, [sp], 48
	.cfi_restore 30
	.cfi_restore 29
	.cfi_def_cfa_offset 0
	ret
	.cfi_endproc
.LFE1396:
	.size	_ZN20ImGuiKeyRoutingTable5ClearEv, .-_ZN20ImGuiKeyRoutingTable5ClearEv
	.section	.text._ZN17ImGuiKeyOwnerDataC2Ev,"axG",@progbits,_ZN17ImGuiKeyOwnerDataC5Ev,comdat
	.align	2
	.weak	_ZN17ImGuiKeyOwnerDataC2Ev
	.type	_ZN17ImGuiKeyOwnerDataC2Ev, %function
_ZN17ImGuiKeyOwnerDataC2Ev:
.LFB1398:
	.cfi_startproc
	sub	sp, sp, #16
	.cfi_def_cfa_offset 16
	str	x0, [sp, 8]
	ldr	x0, [sp, 8]
	mov	w1, -1
	str	w1, [x0, 4]
	ldr	x0, [sp, 8]
	ldr	w1, [x0, 4]
	ldr	x0, [sp, 8]
	str	w1, [x0]
	ldr	x0, [sp, 8]
	strb	wzr, [x0, 9]
	ldr	x0, [sp, 8]
	ldrb	w1, [x0, 9]
	ldr	x0, [sp, 8]
	strb	w1, [x0, 8]
	nop
	add	sp, sp, 16
	.cfi_def_cfa_offset 0
	ret
	.cfi_endproc
.LFE1398:
	.size	_ZN17ImGuiKeyOwnerDataC2Ev, .-_ZN17ImGuiKeyOwnerDataC2Ev
	.weak	_ZN17ImGuiKeyOwnerDataC1Ev
	.set	_ZN17ImGuiKeyOwnerDataC1Ev,_ZN17ImGuiKeyOwnerDataC2Ev
	.section	.text._ZN21ImGuiListClipperRange11FromIndicesEii,"axG",@progbits,_ZN21ImGuiListClipperRange11FromIndicesEii,comdat
	.align	2
	.weak	_ZN21ImGuiListClipperRange11FromIndicesEii
	.type	_ZN21ImGuiListClipperRange11FromIndicesEii, %function
_ZN21ImGuiListClipperRange11FromIndicesEii:
.LFB1400:
	.cfi_startproc
	stp	x29, x30, [sp, -80]!
	.cfi_def_cfa_offset 80
	.cfi_offset 29, -80
	.cfi_offset 30, -72
	mov	x29, sp
	str	w0, [sp, 28]
	str	w1, [sp, 24]
	adrp	x0, :got:__stack_chk_guard
	ldr	x0, [x0, #:got_lo12:__stack_chk_guard]
	ldr	x1, [x0]
	str	x1, [sp, 72]
	mov	x1, 0
	str	xzr, [sp, 40]
	str	wzr, [sp, 48]
	ldr	w0, [sp, 28]
	str	w0, [sp, 40]
	ldr	w0, [sp, 24]
	str	w0, [sp, 44]
	add	x0, sp, 56
	add	x1, sp, 40
	ldr	x2, [x1]
	str	x2, [x0]
	ldr	w1, [x1, 8]
	str	w1, [x0, 8]
	ldr	x2, [sp, 56]
	mov	x0, 0
	ldr	w1, [sp, 64]
	bfi	x0, x1, 0, 32
	mov	x4, x2
	mov	x5, x0
	mov	x2, x4
	mov	x3, x5
	adrp	x0, :got:__stack_chk_guard
	ldr	x0, [x0, #:got_lo12:__stack_chk_guard]
	ldr	x4, [sp, 72]
	ldr	x1, [x0]
	subs	x4, x4, x1
	mov	x1, 0
	beq	.L334
	bl	__stack_chk_fail
.L334:
	mov	x0, x2
	mov	x1, x3
	ldp	x29, x30, [sp], 80
	.cfi_restore 30
	.cfi_restore 29
	.cfi_def_cfa_offset 0
	ret
	.cfi_endproc
.LFE1400:
	.size	_ZN21ImGuiListClipperRange11FromIndicesEii, .-_ZN21ImGuiListClipperRange11FromIndicesEii
	.section	.text._ZN21ImGuiListClipperRange13FromPositionsEffii,"axG",@progbits,_ZN21ImGuiListClipperRange13FromPositionsEffii,comdat
	.align	2
	.weak	_ZN21ImGuiListClipperRange13FromPositionsEffii
	.type	_ZN21ImGuiListClipperRange13FromPositionsEffii, %function
_ZN21ImGuiListClipperRange13FromPositionsEffii:
.LFB1401:
	.cfi_startproc
	stp	x29, x30, [sp, -80]!
	.cfi_def_cfa_offset 80
	.cfi_offset 29, -80
	.cfi_offset 30, -72
	mov	x29, sp
	str	s0, [sp, 28]
	str	s1, [sp, 24]
	str	w0, [sp, 20]
	str	w1, [sp, 16]
	adrp	x0, :got:__stack_chk_guard
	ldr	x0, [x0, #:got_lo12:__stack_chk_guard]
	ldr	x1, [x0]
	str	x1, [sp, 72]
	mov	x1, 0
	str	xzr, [sp, 40]
	str	wzr, [sp, 48]
	mov	w0, 1
	strb	w0, [sp, 48]
	ldr	s0, [sp, 28]
	fcvtzs	s0, s0
	str	s0, [sp, 40]
	ldr	s0, [sp, 24]
	fcvtzs	s0, s0
	str	s0, [sp, 44]
	ldr	w0, [sp, 20]
	sxtb	w0, w0
	strb	w0, [sp, 49]
	ldr	w0, [sp, 16]
	sxtb	w0, w0
	strb	w0, [sp, 50]
	add	x0, sp, 56
	add	x1, sp, 40
	ldr	x2, [x1]
	str	x2, [x0]
	ldr	w1, [x1, 8]
	str	w1, [x0, 8]
	ldr	x2, [sp, 56]
	mov	x0, 0
	ldr	w1, [sp, 64]
	bfi	x0, x1, 0, 32
	mov	x4, x2
	mov	x5, x0
	mov	x2, x4
	mov	x3, x5
	adrp	x0, :got:__stack_chk_guard
	ldr	x0, [x0, #:got_lo12:__stack_chk_guard]
	ldr	x4, [sp, 72]
	ldr	x1, [x0]
	subs	x4, x4, x1
	mov	x1, 0
	beq	.L337
	bl	__stack_chk_fail
.L337:
	mov	x0, x2
	mov	x1, x3
	ldp	x29, x30, [sp], 80
	.cfi_restore 30
	.cfi_restore 29
	.cfi_def_cfa_offset 0
	ret
	.cfi_endproc
.LFE1401:
	.size	_ZN21ImGuiListClipperRange13FromPositionsEffii, .-_ZN21ImGuiListClipperRange13FromPositionsEffii
	.section	.text._ZN20ImGuiListClipperDataC2Ev,"axG",@progbits,_ZN20ImGuiListClipperDataC5Ev,comdat
	.align	2
	.weak	_ZN20ImGuiListClipperDataC2Ev
	.type	_ZN20ImGuiListClipperDataC2Ev, %function
_ZN20ImGuiListClipperDataC2Ev:
.LFB1403:
	.cfi_startproc
	stp	x29, x30, [sp, -32]!
	.cfi_def_cfa_offset 32
	.cfi_offset 29, -32
	.cfi_offset 30, -24
	mov	x29, sp
	str	x0, [sp, 24]
	ldr	x0, [sp, 24]
	add	x0, x0, 24
	bl	_ZN8ImVectorI21ImGuiListClipperRangeEC1Ev
	mov	x2, 40
	mov	w1, 0
	ldr	x0, [sp, 24]
	bl	memset
	nop
	ldp	x29, x30, [sp], 32
	.cfi_restore 30
	.cfi_restore 29
	.cfi_def_cfa_offset 0
	ret
	.cfi_endproc
.LFE1403:
	.size	_ZN20ImGuiListClipperDataC2Ev, .-_ZN20ImGuiListClipperDataC2Ev
	.weak	_ZN20ImGuiListClipperDataC1Ev
	.set	_ZN20ImGuiListClipperDataC1Ev,_ZN20ImGuiListClipperDataC2Ev
	.section	.text._ZN20ImGuiListClipperData5ResetEP16ImGuiListClipper,"axG",@progbits,_ZN20ImGuiListClipperData5ResetEP16ImGuiListClipper,comdat
	.align	2
	.weak	_ZN20ImGuiListClipperData5ResetEP16ImGuiListClipper
	.type	_ZN20ImGuiListClipperData5ResetEP16ImGuiListClipper, %function
_ZN20ImGuiListClipperData5ResetEP16ImGuiListClipper:
.LFB1405:
	.cfi_startproc
	stp	x29, x30, [sp, -32]!
	.cfi_def_cfa_offset 32
	.cfi_offset 29, -32
	.cfi_offset 30, -24
	mov	x29, sp
	str	x0, [sp, 24]
	str	x1, [sp, 16]
	ldr	x0, [sp, 24]
	ldr	x1, [sp, 16]
	str	x1, [x0]
	ldr	x0, [sp, 24]
	str	wzr, [x0, 16]
	ldr	x0, [sp, 24]
	ldr	w1, [x0, 16]
	ldr	x0, [sp, 24]
	str	w1, [x0, 12]
	ldr	x0, [sp, 24]
	add	x0, x0, 24
	mov	w1, 0
	bl	_ZN8ImVectorI21ImGuiListClipperRangeE6resizeEi
	nop
	ldp	x29, x30, [sp], 32
	.cfi_restore 30
	.cfi_restore 29
	.cfi_def_cfa_offset 0
	ret
	.cfi_endproc
.LFE1405:
	.size	_ZN20ImGuiListClipperData5ResetEP16ImGuiListClipper, .-_ZN20ImGuiListClipperData5ResetEP16ImGuiListClipper
	.section	.text._ZN16ImGuiNavItemDataC2Ev,"axG",@progbits,_ZN16ImGuiNavItemDataC5Ev,comdat
	.align	2
	.weak	_ZN16ImGuiNavItemDataC2Ev
	.type	_ZN16ImGuiNavItemDataC2Ev, %function
_ZN16ImGuiNavItemDataC2Ev:
.LFB1407:
	.cfi_startproc
	stp	x29, x30, [sp, -32]!
	.cfi_def_cfa_offset 32
	.cfi_offset 29, -32
	.cfi_offset 30, -24
	mov	x29, sp
	str	x0, [sp, 24]
	ldr	x0, [sp, 24]
	add	x0, x0, 16
	bl	_ZN6ImRectC1Ev
	ldr	x0, [sp, 24]
	bl	_ZN16ImGuiNavItemData5ClearEv
	nop
	ldp	x29, x30, [sp], 32
	.cfi_restore 30
	.cfi_restore 29
	.cfi_def_cfa_offset 0
	ret
	.cfi_endproc
.LFE1407:
	.size	_ZN16ImGuiNavItemDataC2Ev, .-_ZN16ImGuiNavItemDataC2Ev
	.weak	_ZN16ImGuiNavItemDataC1Ev
	.set	_ZN16ImGuiNavItemDataC1Ev,_ZN16ImGuiNavItemDataC2Ev
	.section	.text._ZN16ImGuiNavItemData5ClearEv,"axG",@progbits,_ZN16ImGuiNavItemData5ClearEv,comdat
	.align	2
	.weak	_ZN16ImGuiNavItemData5ClearEv
	.type	_ZN16ImGuiNavItemData5ClearEv, %function
_ZN16ImGuiNavItemData5ClearEv:
.LFB1409:
	.cfi_startproc
	sub	sp, sp, #16
	.cfi_def_cfa_offset 16
	str	x0, [sp, 8]
	ldr	x0, [sp, 8]
	str	xzr, [x0]
	ldr	x0, [sp, 8]
	str	wzr, [x0, 12]
	ldr	x0, [sp, 8]
	ldr	w1, [x0, 12]
	ldr	x0, [sp, 8]
	str	w1, [x0, 8]
	ldr	x0, [sp, 8]
	str	wzr, [x0, 32]
	ldr	x0, [sp, 8]
	mov	w1, 2139095039
	fmov	s0, w1
	str	s0, [x0, 44]
	ldr	x0, [sp, 8]
	ldr	s0, [x0, 44]
	ldr	x0, [sp, 8]
	str	s0, [x0, 40]
	ldr	x0, [sp, 8]
	ldr	s0, [x0, 40]
	ldr	x0, [sp, 8]
	str	s0, [x0, 36]
	nop
	add	sp, sp, 16
	.cfi_def_cfa_offset 0
	ret
	.cfi_endproc
.LFE1409:
	.size	_ZN16ImGuiNavItemData5ClearEv, .-_ZN16ImGuiNavItemData5ClearEv
	.section	.text._ZN17ImDrawDataBuilderC2Ev,"axG",@progbits,_ZN17ImDrawDataBuilderC5Ev,comdat
	.align	2
	.weak	_ZN17ImDrawDataBuilderC2Ev
	.type	_ZN17ImDrawDataBuilderC2Ev, %function
_ZN17ImDrawDataBuilderC2Ev:
.LFB1418:
	.cfi_startproc
	stp	x29, x30, [sp, -48]!
	.cfi_def_cfa_offset 48
	.cfi_offset 29, -48
	.cfi_offset 30, -40
	mov	x29, sp
	stp	x19, x20, [sp, 16]
	.cfi_offset 19, -32
	.cfi_offset 20, -24
	str	x0, [sp, 40]
	ldr	x0, [sp, 40]
	mov	x19, 1
	mov	x20, x0
	b	.L343
.L344:
	mov	x0, x20
	bl	_ZN8ImVectorIP10ImDrawListEC1Ev
	add	x20, x20, 16
	sub	x19, x19, #1
.L343:
	cmp	x19, 0
	bge	.L344
	nop
	nop
	ldp	x19, x20, [sp, 16]
	ldp	x29, x30, [sp], 48
	.cfi_restore 30
	.cfi_restore 29
	.cfi_restore 19
	.cfi_restore 20
	.cfi_def_cfa_offset 0
	ret
	.cfi_endproc
.LFE1418:
	.size	_ZN17ImDrawDataBuilderC2Ev, .-_ZN17ImDrawDataBuilderC2Ev
	.weak	_ZN17ImDrawDataBuilderC1Ev
	.set	_ZN17ImDrawDataBuilderC1Ev,_ZN17ImDrawDataBuilderC2Ev
	.section	.text._ZN17ImDrawDataBuilderD2Ev,"axG",@progbits,_ZN17ImDrawDataBuilderD5Ev,comdat
	.align	2
	.weak	_ZN17ImDrawDataBuilderD2Ev
	.type	_ZN17ImDrawDataBuilderD2Ev, %function
_ZN17ImDrawDataBuilderD2Ev:
.LFB1421:
	.cfi_startproc
	stp	x29, x30, [sp, -48]!
	.cfi_def_cfa_offset 48
	.cfi_offset 29, -48
	.cfi_offset 30, -40
	mov	x29, sp
	str	x19, [sp, 16]
	.cfi_offset 19, -32
	str	x0, [sp, 40]
	ldr	x0, [sp, 40]
	cmp	x0, 0
	beq	.L346
	ldr	x0, [sp, 40]
	add	x19, x0, 32
.L347:
	ldr	x0, [sp, 40]
	cmp	x19, x0
	beq	.L346
	sub	x19, x19, #16
	mov	x0, x19
	bl	_ZN8ImVectorIP10ImDrawListED1Ev
	b	.L347
.L346:
	nop
	ldr	x19, [sp, 16]
	ldp	x29, x30, [sp], 48
	.cfi_restore 30
	.cfi_restore 29
	.cfi_restore 19
	.cfi_def_cfa_offset 0
	ret
	.cfi_endproc
.LFE1421:
	.size	_ZN17ImDrawDataBuilderD2Ev, .-_ZN17ImDrawDataBuilderD2Ev
	.weak	_ZN17ImDrawDataBuilderD1Ev
	.set	_ZN17ImDrawDataBuilderD1Ev,_ZN17ImDrawDataBuilderD2Ev
	.section	.text._ZN14ImGuiViewportPC2Ev,"axG",@progbits,_ZN14ImGuiViewportPC5Ev,comdat
	.align	2
	.weak	_ZN14ImGuiViewportPC2Ev
	.type	_ZN14ImGuiViewportPC2Ev, %function
_ZN14ImGuiViewportPC2Ev:
.LFB1423:
	.cfi_startproc
	stp	x29, x30, [sp, -32]!
	.cfi_def_cfa_offset 32
	.cfi_offset 29, -32
	.cfi_offset 30, -24
	mov	x29, sp
	str	x0, [sp, 24]
	ldr	x0, [sp, 24]
	bl	_ZN13ImGuiViewportC2Ev
	ldr	x0, [sp, 24]
	add	x0, x0, 72
	bl	_ZN10ImDrawDataC1Ev
	ldr	x0, [sp, 24]
	add	x0, x0, 120
	bl	_ZN17ImDrawDataBuilderC1Ev
	ldr	x0, [sp, 24]
	add	x0, x0, 152
	bl	_ZN6ImVec2C1Ev
	ldr	x0, [sp, 24]
	add	x0, x0, 160
	bl	_ZN6ImVec2C1Ev
	ldr	x0, [sp, 24]
	add	x0, x0, 168
	bl	_ZN6ImVec2C1Ev
	ldr	x0, [sp, 24]
	add	x0, x0, 176
	bl	_ZN6ImVec2C1Ev
	ldr	x0, [sp, 24]
	mov	w1, -1
	str	w1, [x0, 52]
	ldr	x0, [sp, 24]
	ldr	w1, [x0, 52]
	ldr	x0, [sp, 24]
	str	w1, [x0, 48]
	ldr	x0, [sp, 24]
	str	xzr, [x0, 64]
	ldr	x0, [sp, 24]
	ldr	x1, [x0, 64]
	ldr	x0, [sp, 24]
	str	x1, [x0, 56]
	nop
	ldp	x29, x30, [sp], 32
	.cfi_restore 30
	.cfi_restore 29
	.cfi_def_cfa_offset 0
	ret
	.cfi_endproc
.LFE1423:
	.size	_ZN14ImGuiViewportPC2Ev, .-_ZN14ImGuiViewportPC2Ev
	.weak	_ZN14ImGuiViewportPC1Ev
	.set	_ZN14ImGuiViewportPC1Ev,_ZN14ImGuiViewportPC2Ev
	.section	.text._ZN14ImGuiViewportPD2Ev,"axG",@progbits,_ZN14ImGuiViewportPD5Ev,comdat
	.align	2
	.weak	_ZN14ImGuiViewportPD2Ev
	.type	_ZN14ImGuiViewportPD2Ev, %function
_ZN14ImGuiViewportPD2Ev:
.LFB1426:
	.cfi_startproc
	.cfi_personality 0x9b,DW.ref.__gxx_personality_v0
	.cfi_lsda 0x1b,.LLSDA1426
	stp	x29, x30, [sp, -32]!
	.cfi_def_cfa_offset 32
	.cfi_offset 29, -32
	.cfi_offset 30, -24
	mov	x29, sp
	str	x0, [sp, 24]
	ldr	x0, [sp, 24]
	ldr	x0, [x0, 56]
	cmp	x0, 0
	beq	.L350
	ldr	x0, [sp, 24]
	ldr	x0, [x0, 56]
	bl	_Z9IM_DELETEI10ImDrawListEvPT_
.L350:
	ldr	x0, [sp, 24]
	ldr	x0, [x0, 64]
	cmp	x0, 0
	beq	.L351
	ldr	x0, [sp, 24]
	ldr	x0, [x0, 64]
	bl	_Z9IM_DELETEI10ImDrawListEvPT_
.L351:
	ldr	x0, [sp, 24]
	add	x0, x0, 120
	bl	_ZN17ImDrawDataBuilderD1Ev
	nop
	ldp	x29, x30, [sp], 32
	.cfi_restore 30
	.cfi_restore 29
	.cfi_def_cfa_offset 0
	ret
	.cfi_endproc
.LFE1426:
	.section	.gcc_except_table._ZN14ImGuiViewportPD2Ev,"aG",@progbits,_ZN14ImGuiViewportPD5Ev,comdat
.LLSDA1426:
	.byte	0xff
	.byte	0xff
	.byte	0x1
	.uleb128 .LLSDACSE1426-.LLSDACSB1426
.LLSDACSB1426:
.LLSDACSE1426:
	.section	.text._ZN14ImGuiViewportPD2Ev,"axG",@progbits,_ZN14ImGuiViewportPD5Ev,comdat
	.size	_ZN14ImGuiViewportPD2Ev, .-_ZN14ImGuiViewportPD2Ev
	.weak	_ZN14ImGuiViewportPD1Ev
	.set	_ZN14ImGuiViewportPD1Ev,_ZN14ImGuiViewportPD2Ev
	.section	.text._ZNK14ImGuiViewportP15CalcWorkRectPosERK6ImVec2,"axG",@progbits,_ZNK14ImGuiViewportP15CalcWorkRectPosERK6ImVec2,comdat
	.align	2
	.weak	_ZNK14ImGuiViewportP15CalcWorkRectPosERK6ImVec2
	.type	_ZNK14ImGuiViewportP15CalcWorkRectPosERK6ImVec2, %function
_ZNK14ImGuiViewportP15CalcWorkRectPosERK6ImVec2:
.LFB1428:
	.cfi_startproc
	stp	x29, x30, [sp, -48]!
	.cfi_def_cfa_offset 48
	.cfi_offset 29, -48
	.cfi_offset 30, -40
	mov	x29, sp
	str	x0, [sp, 24]
	str	x1, [sp, 16]
	adrp	x0, :got:__stack_chk_guard
	ldr	x0, [x0, #:got_lo12:__stack_chk_guard]
	ldr	x1, [x0]
	str	x1, [sp, 40]
	mov	x1, 0
	ldr	x0, [sp, 24]
	ldr	s1, [x0, 4]
	ldr	x0, [sp, 16]
	ldr	s0, [x0]
	fadd	s2, s1, s0
	ldr	x0, [sp, 24]
	ldr	s1, [x0, 8]
	ldr	x0, [sp, 16]
	ldr	s0, [x0, 4]
	fadd	s0, s1, s0
	add	x0, sp, 32
	fmov	s1, s0
	fmov	s0, s2
	bl	_ZN6ImVec2C1Eff
	ldr	x0, [sp, 32]
	mov	x1, x0
	lsr	w1, w1, 0
	lsr	x0, x0, 32
	fmov	s0, w1
	fmov	s1, w0
	adrp	x0, :got:__stack_chk_guard
	ldr	x0, [x0, #:got_lo12:__stack_chk_guard]
	ldr	x2, [sp, 40]
	ldr	x1, [x0]
	subs	x2, x2, x1
	mov	x1, 0
	beq	.L354
	bl	__stack_chk_fail
.L354:
	ldp	x29, x30, [sp], 48
	.cfi_restore 30
	.cfi_restore 29
	.cfi_def_cfa_offset 0
	ret
	.cfi_endproc
.LFE1428:
	.size	_ZNK14ImGuiViewportP15CalcWorkRectPosERK6ImVec2, .-_ZNK14ImGuiViewportP15CalcWorkRectPosERK6ImVec2
	.section	.text._ZNK14ImGuiViewportP16CalcWorkRectSizeERK6ImVec2S2_,"axG",@progbits,_ZNK14ImGuiViewportP16CalcWorkRectSizeERK6ImVec2S2_,comdat
	.align	2
	.weak	_ZNK14ImGuiViewportP16CalcWorkRectSizeERK6ImVec2S2_
	.type	_ZNK14ImGuiViewportP16CalcWorkRectSizeERK6ImVec2S2_, %function
_ZNK14ImGuiViewportP16CalcWorkRectSizeERK6ImVec2S2_:
.LFB1429:
	.cfi_startproc
	stp	x29, x30, [sp, -80]!
	.cfi_def_cfa_offset 80
	.cfi_offset 29, -80
	.cfi_offset 30, -72
	mov	x29, sp
	str	d8, [sp, 16]
	.cfi_offset 72, -64
	str	x0, [sp, 56]
	str	x1, [sp, 48]
	str	x2, [sp, 40]
	adrp	x0, :got:__stack_chk_guard
	ldr	x0, [x0, #:got_lo12:__stack_chk_guard]
	ldr	x1, [x0]
	str	x1, [sp, 72]
	mov	x1, 0
	ldr	x0, [sp, 56]
	ldr	s1, [x0, 12]
	ldr	x0, [sp, 48]
	ldr	s0, [x0]
	fsub	s1, s1, s0
	ldr	x0, [sp, 40]
	ldr	s0, [x0]
	fadd	s0, s1, s0
	fmov	s1, s0
	movi	v0.2s, #0
	bl	_Z5ImMaxIfET_S0_S0_
	fmov	s8, s0
	ldr	x0, [sp, 56]
	ldr	s1, [x0, 16]
	ldr	x0, [sp, 48]
	ldr	s0, [x0, 4]
	fsub	s1, s1, s0
	ldr	x0, [sp, 40]
	ldr	s0, [x0, 4]
	fadd	s0, s1, s0
	fmov	s1, s0
	movi	v0.2s, #0
	bl	_Z5ImMaxIfET_S0_S0_
	add	x0, sp, 64
	fmov	s1, s0
	fmov	s0, s8
	bl	_ZN6ImVec2C1Eff
	ldr	x0, [sp, 64]
	mov	x1, x0
	lsr	w1, w1, 0
	lsr	x0, x0, 32
	fmov	s0, w1
	fmov	s1, w0
	adrp	x0, :got:__stack_chk_guard
	ldr	x0, [x0, #:got_lo12:__stack_chk_guard]
	ldr	x2, [sp, 72]
	ldr	x1, [x0]
	subs	x2, x2, x1
	mov	x1, 0
	beq	.L357
	bl	__stack_chk_fail
.L357:
	ldr	d8, [sp, 16]
	ldp	x29, x30, [sp], 80
	.cfi_restore 30
	.cfi_restore 29
	.cfi_restore 72
	.cfi_def_cfa_offset 0
	ret
	.cfi_endproc
.LFE1429:
	.size	_ZNK14ImGuiViewportP16CalcWorkRectSizeERK6ImVec2S2_, .-_ZNK14ImGuiViewportP16CalcWorkRectSizeERK6ImVec2S2_
	.section	.text._ZN14ImGuiViewportP14UpdateWorkRectEv,"axG",@progbits,_ZN14ImGuiViewportP14UpdateWorkRectEv,comdat
	.align	2
	.weak	_ZN14ImGuiViewportP14UpdateWorkRectEv
	.type	_ZN14ImGuiViewportP14UpdateWorkRectEv, %function
_ZN14ImGuiViewportP14UpdateWorkRectEv:
.LFB1430:
	.cfi_startproc
	stp	x29, x30, [sp, -48]!
	.cfi_def_cfa_offset 48
	.cfi_offset 29, -48
	.cfi_offset 30, -40
	mov	x29, sp
	str	x19, [sp, 16]
	.cfi_offset 19, -32
	str	x0, [sp, 40]
	ldr	x0, [sp, 40]
	add	x0, x0, 152
	ldr	x19, [sp, 40]
	mov	x1, x0
	ldr	x0, [sp, 40]
	bl	_ZNK14ImGuiViewportP15CalcWorkRectPosERK6ImVec2
	fmov	s2, s0
	fmov	s0, s1
	str	s2, [x19, 20]
	str	s0, [x19, 24]
	ldr	x0, [sp, 40]
	add	x1, x0, 152
	ldr	x0, [sp, 40]
	add	x0, x0, 160
	ldr	x19, [sp, 40]
	mov	x2, x0
	ldr	x0, [sp, 40]
	bl	_ZNK14ImGuiViewportP16CalcWorkRectSizeERK6ImVec2S2_
	fmov	s2, s0
	fmov	s0, s1
	str	s2, [x19, 28]
	str	s0, [x19, 32]
	nop
	ldr	x19, [sp, 16]
	ldp	x29, x30, [sp], 48
	.cfi_restore 30
	.cfi_restore 29
	.cfi_restore 19
	.cfi_def_cfa_offset 0
	ret
	.cfi_endproc
.LFE1430:
	.size	_ZN14ImGuiViewportP14UpdateWorkRectEv, .-_ZN14ImGuiViewportP14UpdateWorkRectEv
	.section	.text._ZNK14ImGuiViewportP11GetMainRectEv,"axG",@progbits,_ZNK14ImGuiViewportP11GetMainRectEv,comdat
	.align	2
	.weak	_ZNK14ImGuiViewportP11GetMainRectEv
	.type	_ZNK14ImGuiViewportP11GetMainRectEv, %function
_ZNK14ImGuiViewportP11GetMainRectEv:
.LFB1431:
	.cfi_startproc
	stp	x29, x30, [sp, -64]!
	.cfi_def_cfa_offset 64
	.cfi_offset 29, -64
	.cfi_offset 30, -56
	mov	x29, sp
	str	x0, [sp, 24]
	adrp	x0, :got:__stack_chk_guard
	ldr	x0, [x0, #:got_lo12:__stack_chk_guard]
	ldr	x1, [x0]
	str	x1, [sp, 56]
	mov	x1, 0
	ldr	x0, [sp, 24]
	ldr	s4, [x0, 4]
	ldr	x0, [sp, 24]
	ldr	s5, [x0, 8]
	ldr	x0, [sp, 24]
	ldr	s1, [x0, 4]
	ldr	x0, [sp, 24]
	ldr	s0, [x0, 12]
	fadd	s2, s1, s0
	ldr	x0, [sp, 24]
	ldr	s1, [x0, 8]
	ldr	x0, [sp, 24]
	ldr	s0, [x0, 16]
	fadd	s0, s1, s0
	add	x0, sp, 40
	fmov	s3, s0
	fmov	s1, s5
	fmov	s0, s4
	bl	_ZN6ImRectC1Effff
	ldp	x0, x1, [sp, 40]
	mov	x2, x0
	mov	x3, x1
	lsr	w4, w2, 0
	mov	x2, x0
	mov	x3, x1
	lsr	x2, x2, 32
	mov	w5, w2
	mov	x2, x0
	mov	x3, x1
	lsr	w2, w3, 0
	lsr	x0, x1, 32
	fmov	s0, w4
	fmov	s1, w5
	fmov	s2, w2
	fmov	s3, w0
	adrp	x0, :got:__stack_chk_guard
	ldr	x0, [x0, #:got_lo12:__stack_chk_guard]
	ldr	x2, [sp, 56]
	ldr	x1, [x0]
	subs	x2, x2, x1
	mov	x1, 0
	beq	.L361
	bl	__stack_chk_fail
.L361:
	ldp	x29, x30, [sp], 64
	.cfi_restore 30
	.cfi_restore 29
	.cfi_def_cfa_offset 0
	ret
	.cfi_endproc
.LFE1431:
	.size	_ZNK14ImGuiViewportP11GetMainRectEv, .-_ZNK14ImGuiViewportP11GetMainRectEv
	.section	.text._ZNK14ImGuiViewportP11GetWorkRectEv,"axG",@progbits,_ZNK14ImGuiViewportP11GetWorkRectEv,comdat
	.align	2
	.weak	_ZNK14ImGuiViewportP11GetWorkRectEv
	.type	_ZNK14ImGuiViewportP11GetWorkRectEv, %function
_ZNK14ImGuiViewportP11GetWorkRectEv:
.LFB1432:
	.cfi_startproc
	stp	x29, x30, [sp, -64]!
	.cfi_def_cfa_offset 64
	.cfi_offset 29, -64
	.cfi_offset 30, -56
	mov	x29, sp
	str	x0, [sp, 24]
	adrp	x0, :got:__stack_chk_guard
	ldr	x0, [x0, #:got_lo12:__stack_chk_guard]
	ldr	x1, [x0]
	str	x1, [sp, 56]
	mov	x1, 0
	ldr	x0, [sp, 24]
	ldr	s4, [x0, 20]
	ldr	x0, [sp, 24]
	ldr	s5, [x0, 24]
	ldr	x0, [sp, 24]
	ldr	s1, [x0, 20]
	ldr	x0, [sp, 24]
	ldr	s0, [x0, 28]
	fadd	s2, s1, s0
	ldr	x0, [sp, 24]
	ldr	s1, [x0, 24]
	ldr	x0, [sp, 24]
	ldr	s0, [x0, 32]
	fadd	s0, s1, s0
	add	x0, sp, 40
	fmov	s3, s0
	fmov	s1, s5
	fmov	s0, s4
	bl	_ZN6ImRectC1Effff
	ldp	x0, x1, [sp, 40]
	mov	x2, x0
	mov	x3, x1
	lsr	w4, w2, 0
	mov	x2, x0
	mov	x3, x1
	lsr	x2, x2, 32
	mov	w5, w2
	mov	x2, x0
	mov	x3, x1
	lsr	w2, w3, 0
	lsr	x0, x1, 32
	fmov	s0, w4
	fmov	s1, w5
	fmov	s2, w2
	fmov	s3, w0
	adrp	x0, :got:__stack_chk_guard
	ldr	x0, [x0, #:got_lo12:__stack_chk_guard]
	ldr	x2, [sp, 56]
	ldr	x1, [x0]
	subs	x2, x2, x1
	mov	x1, 0
	beq	.L364
	bl	__stack_chk_fail
.L364:
	ldp	x29, x30, [sp], 64
	.cfi_restore 30
	.cfi_restore 29
	.cfi_def_cfa_offset 0
	ret
	.cfi_endproc
.LFE1432:
	.size	_ZNK14ImGuiViewportP11GetWorkRectEv, .-_ZNK14ImGuiViewportP11GetWorkRectEv
	.section	.text._ZN19ImGuiWindowSettingsC2Ev,"axG",@progbits,_ZN19ImGuiWindowSettingsC5Ev,comdat
	.align	2
	.weak	_ZN19ImGuiWindowSettingsC2Ev
	.type	_ZN19ImGuiWindowSettingsC2Ev, %function
_ZN19ImGuiWindowSettingsC2Ev:
.LFB1435:
	.cfi_startproc
	stp	x29, x30, [sp, -32]!
	.cfi_def_cfa_offset 32
	.cfi_offset 29, -32
	.cfi_offset 30, -24
	mov	x29, sp
	str	x0, [sp, 24]
	ldr	x0, [sp, 24]
	add	x0, x0, 4
	bl	_ZN8ImVec2ihC1Ev
	ldr	x0, [sp, 24]
	add	x0, x0, 8
	bl	_ZN8ImVec2ihC1Ev
	mov	x2, 16
	mov	w1, 0
	ldr	x0, [sp, 24]
	bl	memset
	nop
	ldp	x29, x30, [sp], 32
	.cfi_restore 30
	.cfi_restore 29
	.cfi_def_cfa_offset 0
	ret
	.cfi_endproc
.LFE1435:
	.size	_ZN19ImGuiWindowSettingsC2Ev, .-_ZN19ImGuiWindowSettingsC2Ev
	.weak	_ZN19ImGuiWindowSettingsC1Ev
	.set	_ZN19ImGuiWindowSettingsC1Ev,_ZN19ImGuiWindowSettingsC2Ev
	.section	.text._ZN19ImGuiWindowSettings7GetNameEv,"axG",@progbits,_ZN19ImGuiWindowSettings7GetNameEv,comdat
	.align	2
	.weak	_ZN19ImGuiWindowSettings7GetNameEv
	.type	_ZN19ImGuiWindowSettings7GetNameEv, %function
_ZN19ImGuiWindowSettings7GetNameEv:
.LFB1437:
	.cfi_startproc
	sub	sp, sp, #16
	.cfi_def_cfa_offset 16
	str	x0, [sp, 8]
	ldr	x0, [sp, 8]
	add	x0, x0, 16
	add	sp, sp, 16
	.cfi_def_cfa_offset 0
	ret
	.cfi_endproc
.LFE1437:
	.size	_ZN19ImGuiWindowSettings7GetNameEv, .-_ZN19ImGuiWindowSettings7GetNameEv
	.section	.text._ZN20ImGuiSettingsHandlerC2Ev,"axG",@progbits,_ZN20ImGuiSettingsHandlerC5Ev,comdat
	.align	2
	.weak	_ZN20ImGuiSettingsHandlerC2Ev
	.type	_ZN20ImGuiSettingsHandlerC2Ev, %function
_ZN20ImGuiSettingsHandlerC2Ev:
.LFB1439:
	.cfi_startproc
	stp	x29, x30, [sp, -32]!
	.cfi_def_cfa_offset 32
	.cfi_offset 29, -32
	.cfi_offset 30, -24
	mov	x29, sp
	str	x0, [sp, 24]
	mov	x2, 72
	mov	w1, 0
	ldr	x0, [sp, 24]
	bl	memset
	nop
	ldp	x29, x30, [sp], 32
	.cfi_restore 30
	.cfi_restore 29
	.cfi_def_cfa_offset 0
	ret
	.cfi_endproc
.LFE1439:
	.size	_ZN20ImGuiSettingsHandlerC2Ev, .-_ZN20ImGuiSettingsHandlerC2Ev
	.weak	_ZN20ImGuiSettingsHandlerC1Ev
	.set	_ZN20ImGuiSettingsHandlerC1Ev,_ZN20ImGuiSettingsHandlerC2Ev
	.section	.text._ZN18ImGuiMetricsConfigC2Ev,"axG",@progbits,_ZN18ImGuiMetricsConfigC5Ev,comdat
	.align	2
	.weak	_ZN18ImGuiMetricsConfigC2Ev
	.type	_ZN18ImGuiMetricsConfigC2Ev, %function
_ZN18ImGuiMetricsConfigC2Ev:
.LFB1442:
	.cfi_startproc
	sub	sp, sp, #16
	.cfi_def_cfa_offset 16
	str	x0, [sp, 8]
	ldr	x0, [sp, 8]
	strb	wzr, [x0, 4]
	ldr	x0, [sp, 8]
	ldrb	w1, [x0, 4]
	ldr	x0, [sp, 8]
	strb	w1, [x0, 3]
	ldr	x0, [sp, 8]
	ldrb	w1, [x0, 3]
	ldr	x0, [sp, 8]
	strb	w1, [x0, 2]
	ldr	x0, [sp, 8]
	ldrb	w1, [x0, 2]
	ldr	x0, [sp, 8]
	strb	w1, [x0, 1]
	ldr	x0, [sp, 8]
	ldrb	w1, [x0, 1]
	ldr	x0, [sp, 8]
	strb	w1, [x0]
	ldr	x0, [sp, 8]
	mov	w1, 1
	strb	w1, [x0, 5]
	ldr	x0, [sp, 8]
	mov	w1, 1
	strb	w1, [x0, 6]
	ldr	x0, [sp, 8]
	mov	w1, -1
	str	w1, [x0, 12]
	ldr	x0, [sp, 8]
	ldr	w1, [x0, 12]
	ldr	x0, [sp, 8]
	str	w1, [x0, 8]
	nop
	add	sp, sp, 16
	.cfi_def_cfa_offset 0
	ret
	.cfi_endproc
.LFE1442:
	.size	_ZN18ImGuiMetricsConfigC2Ev, .-_ZN18ImGuiMetricsConfigC2Ev
	.weak	_ZN18ImGuiMetricsConfigC1Ev
	.set	_ZN18ImGuiMetricsConfigC1Ev,_ZN18ImGuiMetricsConfigC2Ev
	.section	.text._ZN19ImGuiStackLevelInfoC2Ev,"axG",@progbits,_ZN19ImGuiStackLevelInfoC5Ev,comdat
	.align	2
	.weak	_ZN19ImGuiStackLevelInfoC2Ev
	.type	_ZN19ImGuiStackLevelInfoC2Ev, %function
_ZN19ImGuiStackLevelInfoC2Ev:
.LFB1445:
	.cfi_startproc
	stp	x29, x30, [sp, -32]!
	.cfi_def_cfa_offset 32
	.cfi_offset 29, -32
	.cfi_offset 30, -24
	mov	x29, sp
	str	x0, [sp, 24]
	mov	x2, 64
	mov	w1, 0
	ldr	x0, [sp, 24]
	bl	memset
	nop
	ldp	x29, x30, [sp], 32
	.cfi_restore 30
	.cfi_restore 29
	.cfi_def_cfa_offset 0
	ret
	.cfi_endproc
.LFE1445:
	.size	_ZN19ImGuiStackLevelInfoC2Ev, .-_ZN19ImGuiStackLevelInfoC2Ev
	.weak	_ZN19ImGuiStackLevelInfoC1Ev
	.set	_ZN19ImGuiStackLevelInfoC1Ev,_ZN19ImGuiStackLevelInfoC2Ev
	.section	.text._ZN14ImGuiStackToolC2Ev,"axG",@progbits,_ZN14ImGuiStackToolC5Ev,comdat
	.align	2
	.weak	_ZN14ImGuiStackToolC2Ev
	.type	_ZN14ImGuiStackToolC2Ev, %function
_ZN14ImGuiStackToolC2Ev:
.LFB1448:
	.cfi_startproc
	stp	x29, x30, [sp, -32]!
	.cfi_def_cfa_offset 32
	.cfi_offset 29, -32
	.cfi_offset 30, -24
	mov	x29, sp
	str	x0, [sp, 24]
	ldr	x0, [sp, 24]
	add	x0, x0, 16
	bl	_ZN8ImVectorI19ImGuiStackLevelInfoEC1Ev
	mov	x2, 40
	mov	w1, 0
	ldr	x0, [sp, 24]
	bl	memset
	ldr	x0, [sp, 24]
	mvni	v0.2s, 0x80, lsl 16
	str	s0, [x0, 36]
	nop
	ldp	x29, x30, [sp], 32
	.cfi_restore 30
	.cfi_restore 29
	.cfi_def_cfa_offset 0
	ret
	.cfi_endproc
.LFE1448:
	.size	_ZN14ImGuiStackToolC2Ev, .-_ZN14ImGuiStackToolC2Ev
	.weak	_ZN14ImGuiStackToolC1Ev
	.set	_ZN14ImGuiStackToolC1Ev,_ZN14ImGuiStackToolC2Ev
	.section	.text._ZN7ImGuiIOD2Ev,"axG",@progbits,_ZN7ImGuiIOD5Ev,comdat
	.align	2
	.weak	_ZN7ImGuiIOD2Ev
	.type	_ZN7ImGuiIOD2Ev, %function
_ZN7ImGuiIOD2Ev:
.LFB1455:
	.cfi_startproc
	stp	x29, x30, [sp, -32]!
	.cfi_def_cfa_offset 32
	.cfi_offset 29, -32
	.cfi_offset 30, -24
	mov	x29, sp
	str	x0, [sp, 24]
	ldr	x1, [sp, 24]
	mov	x0, 14248
	add	x0, x1, x0
	bl	_ZN8ImVectorItED1Ev
	nop
	ldp	x29, x30, [sp], 32
	.cfi_restore 30
	.cfi_restore 29
	.cfi_def_cfa_offset 0
	ret
	.cfi_endproc
.LFE1455:
	.size	_ZN7ImGuiIOD2Ev, .-_ZN7ImGuiIOD2Ev
	.weak	_ZN7ImGuiIOD1Ev
	.set	_ZN7ImGuiIOD1Ev,_ZN7ImGuiIOD2Ev
	.section	.text._ZN20ImDrawListSharedDataD2Ev,"axG",@progbits,_ZN20ImDrawListSharedDataD5Ev,comdat
	.align	2
	.weak	_ZN20ImDrawListSharedDataD2Ev
	.type	_ZN20ImDrawListSharedDataD2Ev, %function
_ZN20ImDrawListSharedDataD2Ev:
.LFB1458:
	.cfi_startproc
	stp	x29, x30, [sp, -32]!
	.cfi_def_cfa_offset 32
	.cfi_offset 29, -32
	.cfi_offset 30, -24
	mov	x29, sp
	str	x0, [sp, 24]
	ldr	x0, [sp, 24]
	add	x0, x0, 48
	bl	_ZN8ImVectorI6ImVec2ED1Ev
	nop
	ldp	x29, x30, [sp], 32
	.cfi_restore 30
	.cfi_restore 29
	.cfi_def_cfa_offset 0
	ret
	.cfi_endproc
.LFE1458:
	.size	_ZN20ImDrawListSharedDataD2Ev, .-_ZN20ImDrawListSharedDataD2Ev
	.weak	_ZN20ImDrawListSharedDataD1Ev
	.set	_ZN20ImDrawListSharedDataD1Ev,_ZN20ImDrawListSharedDataD2Ev
	.section	.text._ZN12ImGuiStorageC2Ev,"axG",@progbits,_ZN12ImGuiStorageC5Ev,comdat
	.align	2
	.weak	_ZN12ImGuiStorageC2Ev
	.type	_ZN12ImGuiStorageC2Ev, %function
_ZN12ImGuiStorageC2Ev:
.LFB1461:
	.cfi_startproc
	stp	x29, x30, [sp, -32]!
	.cfi_def_cfa_offset 32
	.cfi_offset 29, -32
	.cfi_offset 30, -24
	mov	x29, sp
	str	x0, [sp, 24]
	ldr	x0, [sp, 24]
	bl	_ZN8ImVectorIN12ImGuiStorage16ImGuiStoragePairEEC1Ev
	nop
	ldp	x29, x30, [sp], 32
	.cfi_restore 30
	.cfi_restore 29
	.cfi_def_cfa_offset 0
	ret
	.cfi_endproc
.LFE1461:
	.size	_ZN12ImGuiStorageC2Ev, .-_ZN12ImGuiStorageC2Ev
	.weak	_ZN12ImGuiStorageC1Ev
	.set	_ZN12ImGuiStorageC1Ev,_ZN12ImGuiStorageC2Ev
	.section	.text._ZN12ImGuiStorageD2Ev,"axG",@progbits,_ZN12ImGuiStorageD5Ev,comdat
	.align	2
	.weak	_ZN12ImGuiStorageD2Ev
	.type	_ZN12ImGuiStorageD2Ev, %function
_ZN12ImGuiStorageD2Ev:
.LFB1464:
	.cfi_startproc
	stp	x29, x30, [sp, -32]!
	.cfi_def_cfa_offset 32
	.cfi_offset 29, -32
	.cfi_offset 30, -24
	mov	x29, sp
	str	x0, [sp, 24]
	ldr	x0, [sp, 24]
	bl	_ZN8ImVectorIN12ImGuiStorage16ImGuiStoragePairEED1Ev
	nop
	ldp	x29, x30, [sp], 32
	.cfi_restore 30
	.cfi_restore 29
	.cfi_def_cfa_offset 0
	ret
	.cfi_endproc
.LFE1464:
	.size	_ZN12ImGuiStorageD2Ev, .-_ZN12ImGuiStorageD2Ev
	.weak	_ZN12ImGuiStorageD1Ev
	.set	_ZN12ImGuiStorageD1Ev,_ZN12ImGuiStorageD2Ev
	.section	.text._ZN20ImGuiKeyRoutingTableD2Ev,"axG",@progbits,_ZN20ImGuiKeyRoutingTableD5Ev,comdat
	.align	2
	.weak	_ZN20ImGuiKeyRoutingTableD2Ev
	.type	_ZN20ImGuiKeyRoutingTableD2Ev, %function
_ZN20ImGuiKeyRoutingTableD2Ev:
.LFB1467:
	.cfi_startproc
	stp	x29, x30, [sp, -32]!
	.cfi_def_cfa_offset 32
	.cfi_offset 29, -32
	.cfi_offset 30, -24
	mov	x29, sp
	str	x0, [sp, 24]
	ldr	x0, [sp, 24]
	add	x0, x0, 296
	bl	_ZN8ImVectorI19ImGuiKeyRoutingDataED1Ev
	ldr	x0, [sp, 24]
	add	x0, x0, 280
	bl	_ZN8ImVectorI19ImGuiKeyRoutingDataED1Ev
	nop
	ldp	x29, x30, [sp], 32
	.cfi_restore 30
	.cfi_restore 29
	.cfi_def_cfa_offset 0
	ret
	.cfi_endproc
.LFE1467:
	.size	_ZN20ImGuiKeyRoutingTableD2Ev, .-_ZN20ImGuiKeyRoutingTableD2Ev
	.weak	_ZN20ImGuiKeyRoutingTableD1Ev
	.set	_ZN20ImGuiKeyRoutingTableD1Ev,_ZN20ImGuiKeyRoutingTableD2Ev
	.section	.text._ZN19ImGuiInputTextStateD2Ev,"axG",@progbits,_ZN19ImGuiInputTextStateD5Ev,comdat
	.align	2
	.weak	_ZN19ImGuiInputTextStateD2Ev
	.type	_ZN19ImGuiInputTextStateD2Ev, %function
_ZN19ImGuiInputTextStateD2Ev:
.LFB1470:
	.cfi_startproc
	stp	x29, x30, [sp, -32]!
	.cfi_def_cfa_offset 32
	.cfi_offset 29, -32
	.cfi_offset 30, -24
	mov	x29, sp
	str	x0, [sp, 24]
	ldr	x0, [sp, 24]
	add	x0, x0, 48
	bl	_ZN8ImVectorIcED1Ev
	ldr	x0, [sp, 24]
	add	x0, x0, 32
	bl	_ZN8ImVectorIcED1Ev
	ldr	x0, [sp, 24]
	add	x0, x0, 16
	bl	_ZN8ImVectorItED1Ev
	nop
	ldp	x29, x30, [sp], 32
	.cfi_restore 30
	.cfi_restore 29
	.cfi_def_cfa_offset 0
	ret
	.cfi_endproc
.LFE1470:
	.size	_ZN19ImGuiInputTextStateD2Ev, .-_ZN19ImGuiInputTextStateD2Ev
	.weak	_ZN19ImGuiInputTextStateD1Ev
	.set	_ZN19ImGuiInputTextStateD1Ev,_ZN19ImGuiInputTextStateD2Ev
	.section	.text._ZN15ImGuiTextBufferD2Ev,"axG",@progbits,_ZN15ImGuiTextBufferD5Ev,comdat
	.align	2
	.weak	_ZN15ImGuiTextBufferD2Ev
	.type	_ZN15ImGuiTextBufferD2Ev, %function
_ZN15ImGuiTextBufferD2Ev:
.LFB1473:
	.cfi_startproc
	stp	x29, x30, [sp, -32]!
	.cfi_def_cfa_offset 32
	.cfi_offset 29, -32
	.cfi_offset 30, -24
	mov	x29, sp
	str	x0, [sp, 24]
	ldr	x0, [sp, 24]
	bl	_ZN8ImVectorIcED1Ev
	nop
	ldp	x29, x30, [sp], 32
	.cfi_restore 30
	.cfi_restore 29
	.cfi_def_cfa_offset 0
	ret
	.cfi_endproc
.LFE1473:
	.size	_ZN15ImGuiTextBufferD2Ev, .-_ZN15ImGuiTextBufferD2Ev
	.weak	_ZN15ImGuiTextBufferD1Ev
	.set	_ZN15ImGuiTextBufferD1Ev,_ZN15ImGuiTextBufferD2Ev
	.section	.text._ZN13ImChunkStreamI19ImGuiWindowSettingsEC2Ev,"axG",@progbits,_ZN13ImChunkStreamI19ImGuiWindowSettingsEC5Ev,comdat
	.align	2
	.weak	_ZN13ImChunkStreamI19ImGuiWindowSettingsEC2Ev
	.type	_ZN13ImChunkStreamI19ImGuiWindowSettingsEC2Ev, %function
_ZN13ImChunkStreamI19ImGuiWindowSettingsEC2Ev:
.LFB1476:
	.cfi_startproc
	stp	x29, x30, [sp, -32]!
	.cfi_def_cfa_offset 32
	.cfi_offset 29, -32
	.cfi_offset 30, -24
	mov	x29, sp
	str	x0, [sp, 24]
	ldr	x0, [sp, 24]
	bl	_ZN8ImVectorIcEC1Ev
	nop
	ldp	x29, x30, [sp], 32
	.cfi_restore 30
	.cfi_restore 29
	.cfi_def_cfa_offset 0
	ret
	.cfi_endproc
.LFE1476:
	.size	_ZN13ImChunkStreamI19ImGuiWindowSettingsEC2Ev, .-_ZN13ImChunkStreamI19ImGuiWindowSettingsEC2Ev
	.weak	_ZN13ImChunkStreamI19ImGuiWindowSettingsEC1Ev
	.set	_ZN13ImChunkStreamI19ImGuiWindowSettingsEC1Ev,_ZN13ImChunkStreamI19ImGuiWindowSettingsEC2Ev
	.section	.text._ZN13ImChunkStreamI19ImGuiWindowSettingsED2Ev,"axG",@progbits,_ZN13ImChunkStreamI19ImGuiWindowSettingsED5Ev,comdat
	.align	2
	.weak	_ZN13ImChunkStreamI19ImGuiWindowSettingsED2Ev
	.type	_ZN13ImChunkStreamI19ImGuiWindowSettingsED2Ev, %function
_ZN13ImChunkStreamI19ImGuiWindowSettingsED2Ev:
.LFB1479:
	.cfi_startproc
	stp	x29, x30, [sp, -32]!
	.cfi_def_cfa_offset 32
	.cfi_offset 29, -32
	.cfi_offset 30, -24
	mov	x29, sp
	str	x0, [sp, 24]
	ldr	x0, [sp, 24]
	bl	_ZN8ImVectorIcED1Ev
	nop
	ldp	x29, x30, [sp], 32
	.cfi_restore 30
	.cfi_restore 29
	.cfi_def_cfa_offset 0
	ret
	.cfi_endproc
.LFE1479:
	.size	_ZN13ImChunkStreamI19ImGuiWindowSettingsED2Ev, .-_ZN13ImChunkStreamI19ImGuiWindowSettingsED2Ev
	.weak	_ZN13ImChunkStreamI19ImGuiWindowSettingsED1Ev
	.set	_ZN13ImChunkStreamI19ImGuiWindowSettingsED1Ev,_ZN13ImChunkStreamI19ImGuiWindowSettingsED2Ev
	.section	.text._ZN13ImChunkStreamI18ImGuiTableSettingsEC2Ev,"axG",@progbits,_ZN13ImChunkStreamI18ImGuiTableSettingsEC5Ev,comdat
	.align	2
	.weak	_ZN13ImChunkStreamI18ImGuiTableSettingsEC2Ev
	.type	_ZN13ImChunkStreamI18ImGuiTableSettingsEC2Ev, %function
_ZN13ImChunkStreamI18ImGuiTableSettingsEC2Ev:
.LFB1482:
	.cfi_startproc
	stp	x29, x30, [sp, -32]!
	.cfi_def_cfa_offset 32
	.cfi_offset 29, -32
	.cfi_offset 30, -24
	mov	x29, sp
	str	x0, [sp, 24]
	ldr	x0, [sp, 24]
	bl	_ZN8ImVectorIcEC1Ev
	nop
	ldp	x29, x30, [sp], 32
	.cfi_restore 30
	.cfi_restore 29
	.cfi_def_cfa_offset 0
	ret
	.cfi_endproc
.LFE1482:
	.size	_ZN13ImChunkStreamI18ImGuiTableSettingsEC2Ev, .-_ZN13ImChunkStreamI18ImGuiTableSettingsEC2Ev
	.weak	_ZN13ImChunkStreamI18ImGuiTableSettingsEC1Ev
	.set	_ZN13ImChunkStreamI18ImGuiTableSettingsEC1Ev,_ZN13ImChunkStreamI18ImGuiTableSettingsEC2Ev
	.section	.text._ZN13ImChunkStreamI18ImGuiTableSettingsED2Ev,"axG",@progbits,_ZN13ImChunkStreamI18ImGuiTableSettingsED5Ev,comdat
	.align	2
	.weak	_ZN13ImChunkStreamI18ImGuiTableSettingsED2Ev
	.type	_ZN13ImChunkStreamI18ImGuiTableSettingsED2Ev, %function
_ZN13ImChunkStreamI18ImGuiTableSettingsED2Ev:
.LFB1485:
	.cfi_startproc
	stp	x29, x30, [sp, -32]!
	.cfi_def_cfa_offset 32
	.cfi_offset 29, -32
	.cfi_offset 30, -24
	mov	x29, sp
	str	x0, [sp, 24]
	ldr	x0, [sp, 24]
	bl	_ZN8ImVectorIcED1Ev
	nop
	ldp	x29, x30, [sp], 32
	.cfi_restore 30
	.cfi_restore 29
	.cfi_def_cfa_offset 0
	ret
	.cfi_endproc
.LFE1485:
	.size	_ZN13ImChunkStreamI18ImGuiTableSettingsED2Ev, .-_ZN13ImChunkStreamI18ImGuiTableSettingsED2Ev
	.weak	_ZN13ImChunkStreamI18ImGuiTableSettingsED1Ev
	.set	_ZN13ImChunkStreamI18ImGuiTableSettingsED1Ev,_ZN13ImChunkStreamI18ImGuiTableSettingsED2Ev
	.section	.text._ZN14ImGuiTextIndexC2Ev,"axG",@progbits,_ZN14ImGuiTextIndexC5Ev,comdat
	.align	2
	.weak	_ZN14ImGuiTextIndexC2Ev
	.type	_ZN14ImGuiTextIndexC2Ev, %function
_ZN14ImGuiTextIndexC2Ev:
.LFB1488:
	.cfi_startproc
	stp	x29, x30, [sp, -32]!
	.cfi_def_cfa_offset 32
	.cfi_offset 29, -32
	.cfi_offset 30, -24
	mov	x29, sp
	str	x0, [sp, 24]
	ldr	x0, [sp, 24]
	bl	_ZN8ImVectorIiEC1Ev
	ldr	x0, [sp, 24]
	str	wzr, [x0, 16]
	nop
	ldp	x29, x30, [sp], 32
	.cfi_restore 30
	.cfi_restore 29
	.cfi_def_cfa_offset 0
	ret
	.cfi_endproc
.LFE1488:
	.size	_ZN14ImGuiTextIndexC2Ev, .-_ZN14ImGuiTextIndexC2Ev
	.weak	_ZN14ImGuiTextIndexC1Ev
	.set	_ZN14ImGuiTextIndexC1Ev,_ZN14ImGuiTextIndexC2Ev
	.section	.text._ZN14ImGuiTextIndexD2Ev,"axG",@progbits,_ZN14ImGuiTextIndexD5Ev,comdat
	.align	2
	.weak	_ZN14ImGuiTextIndexD2Ev
	.type	_ZN14ImGuiTextIndexD2Ev, %function
_ZN14ImGuiTextIndexD2Ev:
.LFB1491:
	.cfi_startproc
	stp	x29, x30, [sp, -32]!
	.cfi_def_cfa_offset 32
	.cfi_offset 29, -32
	.cfi_offset 30, -24
	mov	x29, sp
	str	x0, [sp, 24]
	ldr	x0, [sp, 24]
	bl	_ZN8ImVectorIiED1Ev
	nop
	ldp	x29, x30, [sp], 32
	.cfi_restore 30
	.cfi_restore 29
	.cfi_def_cfa_offset 0
	ret
	.cfi_endproc
.LFE1491:
	.size	_ZN14ImGuiTextIndexD2Ev, .-_ZN14ImGuiTextIndexD2Ev
	.weak	_ZN14ImGuiTextIndexD1Ev
	.set	_ZN14ImGuiTextIndexD1Ev,_ZN14ImGuiTextIndexD2Ev
	.section	.text._ZN14ImGuiStackToolD2Ev,"axG",@progbits,_ZN14ImGuiStackToolD5Ev,comdat
	.align	2
	.weak	_ZN14ImGuiStackToolD2Ev
	.type	_ZN14ImGuiStackToolD2Ev, %function
_ZN14ImGuiStackToolD2Ev:
.LFB1494:
	.cfi_startproc
	stp	x29, x30, [sp, -32]!
	.cfi_def_cfa_offset 32
	.cfi_offset 29, -32
	.cfi_offset 30, -24
	mov	x29, sp
	str	x0, [sp, 24]
	ldr	x0, [sp, 24]
	add	x0, x0, 16
	bl	_ZN8ImVectorI19ImGuiStackLevelInfoED1Ev
	nop
	ldp	x29, x30, [sp], 32
	.cfi_restore 30
	.cfi_restore 29
	.cfi_def_cfa_offset 0
	ret
	.cfi_endproc
.LFE1494:
	.size	_ZN14ImGuiStackToolD2Ev, .-_ZN14ImGuiStackToolD2Ev
	.weak	_ZN14ImGuiStackToolD1Ev
	.set	_ZN14ImGuiStackToolD1Ev,_ZN14ImGuiStackToolD2Ev
	.section	.text._ZN12ImGuiContextC2EP11ImFontAtlas,"axG",@progbits,_ZN12ImGuiContextC5EP11ImFontAtlas,comdat
	.align	2
	.weak	_ZN12ImGuiContextC2EP11ImFontAtlas
	.type	_ZN12ImGuiContextC2EP11ImFontAtlas, %function
_ZN12ImGuiContextC2EP11ImFontAtlas:
.LFB1496:
	.cfi_startproc
	.cfi_personality 0x9b,DW.ref.__gxx_personality_v0
	.cfi_lsda 0x1b,.LLSDA1496
	stp	x29, x30, [sp, -80]!
	.cfi_def_cfa_offset 80
	.cfi_offset 29, -80
	.cfi_offset 30, -72
	mov	x29, sp
	stp	x19, x20, [sp, 16]
	stp	x21, x22, [sp, 32]
	.cfi_offset 19, -64
	.cfi_offset 20, -56
	.cfi_offset 21, -48
	.cfi_offset 22, -40
	str	x0, [sp, 56]
	str	x1, [sp, 48]
	adrp	x0, :got:__stack_chk_guard
	ldr	x0, [x0, #:got_lo12:__stack_chk_guard]
	ldr	x1, [x0]
	str	x1, [sp, 72]
	mov	x1, 0
	ldr	x0, [sp, 56]
	add	x0, x0, 8
.LEHB2:
	bl	_ZN7ImGuiIOC1Ev
.LEHE2:
	ldr	x1, [sp, 56]
	mov	x0, 14272
	add	x0, x1, x0
	bl	_ZN8ImVectorI15ImGuiInputEventEC1Ev
	ldr	x1, [sp, 56]
	mov	x0, 14288
	add	x0, x1, x0
	bl	_ZN8ImVectorI15ImGuiInputEventEC1Ev
	ldr	x1, [sp, 56]
	mov	x0, 14304
	add	x0, x1, x0
.LEHB3:
	bl	_ZN10ImGuiStyleC1Ev
	ldr	x1, [sp, 56]
	mov	x0, 15368
	add	x0, x1, x0
	bl	_ZN20ImDrawListSharedDataC1Ev
.LEHE3:
	ldr	x1, [sp, 56]
	mov	x0, 15936
	add	x0, x1, x0
	bl	_ZN8ImVectorIP11ImGuiWindowEC1Ev
	ldr	x1, [sp, 56]
	mov	x0, 15952
	add	x0, x1, x0
	bl	_ZN8ImVectorIP11ImGuiWindowEC1Ev
	ldr	x1, [sp, 56]
	mov	x0, 15968
	add	x0, x1, x0
	bl	_ZN8ImVectorIP11ImGuiWindowEC1Ev
	ldr	x1, [sp, 56]
	mov	x0, 15984
	add	x0, x1, x0
	bl	_ZN8ImVectorI20ImGuiWindowStackDataEC1Ev
	ldr	x1, [sp, 56]
	mov	x0, 16000
	add	x0, x1, x0
	bl	_ZN12ImGuiStorageC1Ev
	ldr	x1, [sp, 56]
	mov	x0, 16020
	add	x0, x1, x0
	bl	_ZN6ImVec2C1Ev
	ldr	x1, [sp, 56]
	mov	x0, 16072
	add	x0, x1, x0
	bl	_ZN6ImVec2C1Ev
	ldr	x1, [sp, 56]
	mov	x0, 16128
	add	x0, x1, x0
	bl	_ZN6ImVec2C1Ev
	ldr	x1, [sp, 56]
	mov	x0, 16176
	add	x0, x1, x0
	mov	x19, 139
	mov	x20, x0
	b	.L387
.L388:
	mov	x0, x20
	bl	_ZN17ImGuiKeyOwnerDataC1Ev
	add	x20, x20, 12
	sub	x19, x19, #1
.L387:
	cmp	x19, 0
	bge	.L388
	ldr	x1, [sp, 56]
	mov	x0, 17856
	add	x0, x1, x0
.LEHB4:
	bl	_ZN20ImGuiKeyRoutingTableC1Ev
.LEHE4:
	ldr	x1, [sp, 56]
	mov	x0, 18192
	add	x0, x1, x0
	bl	_ZN17ImGuiNextItemDataC1Ev
	ldr	x1, [sp, 56]
	mov	x0, 18212
	add	x0, x1, x0
	bl	_ZN17ImGuiLastItemDataC1Ev
	ldr	x1, [sp, 56]
	mov	x0, 18272
	add	x0, x1, x0
	bl	_ZN19ImGuiNextWindowDataC1Ev
	ldr	x1, [sp, 56]
	mov	x0, 18384
	add	x0, x1, x0
	bl	_ZN8ImVectorI13ImGuiColorModEC1Ev
	ldr	x1, [sp, 56]
	mov	x0, 18400
	add	x0, x1, x0
	bl	_ZN8ImVectorI13ImGuiStyleModEC1Ev
	ldr	x1, [sp, 56]
	mov	x0, 18416
	add	x0, x1, x0
	bl	_ZN8ImVectorIP6ImFontEC1Ev
	ldr	x1, [sp, 56]
	mov	x0, 18432
	add	x0, x1, x0
	bl	_ZN8ImVectorIjEC1Ev
	ldr	x1, [sp, 56]
	mov	x0, 18448
	add	x0, x1, x0
	bl	_ZN8ImVectorIiEC1Ev
	ldr	x1, [sp, 56]
	mov	x0, 18464
	add	x0, x1, x0
	bl	_ZN8ImVectorI14ImGuiGroupDataEC1Ev
	ldr	x1, [sp, 56]
	mov	x0, 18480
	add	x0, x1, x0
	bl	_ZN8ImVectorI14ImGuiPopupDataEC1Ev
	ldr	x1, [sp, 56]
	mov	x0, 18496
	add	x0, x1, x0
	bl	_ZN8ImVectorI14ImGuiPopupDataEC1Ev
	ldr	x1, [sp, 56]
	mov	x0, 18520
	add	x0, x1, x0
	bl	_ZN8ImVectorIP14ImGuiViewportPEC1Ev
	ldr	x1, [sp, 56]
	mov	x0, 18612
	add	x0, x1, x0
	bl	_ZN6ImRectC1Ev
	ldr	x1, [sp, 56]
	mov	x0, 18656
	add	x0, x1, x0
	bl	_ZN6ImRectC1Ev
	ldr	x1, [sp, 56]
	mov	x0, 18672
	add	x0, x1, x0
	bl	_ZN6ImRectC1Ev
	ldr	x1, [sp, 56]
	mov	x0, 18704
	add	x0, x1, x0
	bl	_ZN16ImGuiNavItemDataC1Ev
	ldr	x1, [sp, 56]
	mov	x0, 18752
	add	x0, x1, x0
	bl	_ZN16ImGuiNavItemDataC1Ev
	ldr	x1, [sp, 56]
	mov	x0, 18800
	add	x0, x1, x0
	bl	_ZN16ImGuiNavItemDataC1Ev
	ldr	x1, [sp, 56]
	mov	x0, 18848
	add	x0, x1, x0
	bl	_ZN16ImGuiNavItemDataC1Ev
	ldr	x1, [sp, 56]
	mov	x0, 18940
	add	x0, x1, x0
	bl	_ZN6ImVec2C1Ev
	ldr	x1, [sp, 56]
	mov	x0, 18948
	add	x0, x1, x0
	bl	_ZN6ImVec2C1Ev
	ldr	x1, [sp, 56]
	mov	x0, 18984
	add	x0, x1, x0
	bl	_ZN12ImGuiPayloadC1Ev
	ldr	x1, [sp, 56]
	mov	x0, 19048
	add	x0, x1, x0
	bl	_ZN6ImRectC1Ev
	ldr	x1, [sp, 56]
	mov	x0, 19096
	add	x0, x1, x0
	bl	_ZN8ImVectorIhEC1Ev
	ldr	x1, [sp, 56]
	mov	x0, 19136
	add	x0, x1, x0
	bl	_ZN8ImVectorI20ImGuiListClipperDataEC1Ev
	ldr	x1, [sp, 56]
	mov	x0, 19168
	add	x0, x1, x0
	bl	_ZN8ImVectorI18ImGuiTableTempDataEC1Ev
	ldr	x1, [sp, 56]
	mov	x0, 19184
	add	x0, x1, x0
.LEHB5:
	bl	_ZN6ImPoolI10ImGuiTableEC1Ev
.LEHE5:
	ldr	x1, [sp, 56]
	mov	x0, 19224
	add	x0, x1, x0
	bl	_ZN8ImVectorIfEC1Ev
	ldr	x1, [sp, 56]
	mov	x0, 19240
	add	x0, x1, x0
	bl	_ZN8ImVectorI13ImDrawChannelEC1Ev
	ldr	x1, [sp, 56]
	mov	x0, 19264
	add	x0, x1, x0
.LEHB6:
	bl	_ZN6ImPoolI11ImGuiTabBarEC1Ev
.LEHE6:
	ldr	x1, [sp, 56]
	mov	x0, 19304
	add	x0, x1, x0
	bl	_ZN8ImVectorI15ImGuiPtrOrIndexEC1Ev
	ldr	x1, [sp, 56]
	mov	x0, 19320
	add	x0, x1, x0
	bl	_ZN8ImVectorI20ImGuiShrinkWidthItemEC1Ev
	ldr	x1, [sp, 56]
	mov	x0, 19352
	add	x0, x1, x0
	bl	_ZN6ImVec2C1Ev
	ldr	x1, [sp, 56]
	mov	x0, 19360
	add	x0, x1, x0
	bl	_ZN19ImGuiInputTextStateC1Ev
	ldr	x1, [sp, 56]
	mov	x0, 23080
	add	x0, x1, x0
.LEHB7:
	bl	_ZN6ImFontC1Ev
.LEHE7:
	ldr	x1, [sp, 56]
	mov	x0, 23212
	add	x0, x1, x0
	bl	_ZN6ImVec4C1Ev
	ldr	x1, [sp, 56]
	mov	x0, 23228
	add	x0, x1, x0
	bl	_ZN21ImGuiComboPreviewDataC1Ev
	ldr	x1, [sp, 56]
	mov	x0, 23312
	add	x0, x1, x0
	bl	_ZN8ImVectorIcEC1Ev
	ldr	x1, [sp, 56]
	mov	x0, 23328
	add	x0, x1, x0
	bl	_ZN8ImVectorIjEC1Ev
	ldr	x1, [sp, 56]
	mov	x0, 23344
	add	x0, x1, x0
	bl	_ZN20ImGuiPlatformImeDataC1Ev
	ldr	x1, [sp, 56]
	mov	x0, 23360
	add	x0, x1, x0
	bl	_ZN20ImGuiPlatformImeDataC1Ev
	ldr	x1, [sp, 56]
	mov	x0, 23384
	add	x0, x1, x0
	bl	_ZN15ImGuiTextBufferC1Ev
	ldr	x1, [sp, 56]
	mov	x0, 23400
	add	x0, x1, x0
	bl	_ZN8ImVectorI20ImGuiSettingsHandlerEC1Ev
	ldr	x1, [sp, 56]
	mov	x0, 23416
	add	x0, x1, x0
	bl	_ZN13ImChunkStreamI19ImGuiWindowSettingsEC1Ev
	ldr	x1, [sp, 56]
	mov	x0, 23432
	add	x0, x1, x0
	bl	_ZN13ImChunkStreamI18ImGuiTableSettingsEC1Ev
	ldr	x1, [sp, 56]
	mov	x0, 23448
	add	x0, x1, x0
	bl	_ZN8ImVectorI16ImGuiContextHookEC1Ev
	ldr	x1, [sp, 56]
	mov	x0, 23544
	add	x0, x1, x0
	bl	_ZN15ImGuiTextBufferC1Ev
	ldr	x1, [sp, 56]
	mov	x0, 23600
	add	x0, x1, x0
	bl	_ZN15ImGuiTextBufferC1Ev
	ldr	x1, [sp, 56]
	mov	x0, 23616
	add	x0, x1, x0
	bl	_ZN14ImGuiTextIndexC1Ev
	ldr	x1, [sp, 56]
	mov	x0, 23648
	add	x0, x1, x0
	bl	_ZN18ImGuiMetricsConfigC1Ev
	ldr	x1, [sp, 56]
	mov	x0, 23664
	add	x0, x1, x0
	bl	_ZN14ImGuiStackToolC1Ev
	ldr	x1, [sp, 56]
	mov	x0, 23968
	add	x0, x1, x0
	bl	_ZN8ImVectorIcEC1Ev
	ldr	x0, [sp, 56]
	strb	wzr, [x0]
	ldr	x0, [sp, 48]
	cmp	x0, 0
	cset	w0, eq
	and	w1, w0, 255
	ldr	x0, [sp, 56]
	strb	w1, [x0, 1]
	ldr	x0, [sp, 56]
	str	xzr, [x0, 15352]
	ldr	x0, [sp, 56]
	str	wzr, [x0, 15364]
	ldr	x0, [sp, 56]
	ldr	s0, [x0, 15364]
	ldr	x0, [sp, 56]
	str	s0, [x0, 15360]
	ldr	x0, [sp, 48]
	cmp	x0, 0
	bne	.L389
	mov	x0, 1168
.LEHB8:
	bl	_ZN5ImGui8MemAllocEm
.LEHE8:
	mov	x20, x0
	mov	x2, x20
	mov	w1, w21
	mov	x0, 1168
	bl	_Znwm12ImNewWrapperPv
	mov	x19, x0
	mov	x0, x19
.LEHB9:
	bl	_ZN11ImFontAtlasC1Ev
.LEHE9:
	b	.L390
.L389:
	ldr	x19, [sp, 48]
.L390:
	ldr	x0, [sp, 56]
	str	x19, [x0, 88]
	ldr	x0, [sp, 56]
	str	xzr, [x0, 15896]
	ldr	x0, [sp, 56]
	str	wzr, [x0, 15904]
	ldr	x0, [sp, 56]
	mov	w1, -1
	str	w1, [x0, 15912]
	ldr	x0, [sp, 56]
	ldr	w1, [x0, 15912]
	ldr	x0, [sp, 56]
	str	w1, [x0, 15908]
	ldr	x0, [sp, 56]
	add	x0, x0, 12288
	strb	wzr, [x0, 3630]
	ldr	x0, [sp, 56]
	add	x0, x0, 12288
	ldrb	w1, [x0, 3630]
	ldr	x0, [sp, 56]
	add	x0, x0, 12288
	strb	w1, [x0, 3629]
	ldr	x0, [sp, 56]
	add	x0, x0, 12288
	ldrb	w1, [x0, 3629]
	ldr	x0, [sp, 56]
	add	x0, x0, 12288
	strb	w1, [x0, 3628]
	ldr	x0, [sp, 56]
	add	x0, x0, 12288
	strb	wzr, [x0, 3631]
	ldr	x0, [sp, 56]
	add	x0, x0, 12288
	strb	wzr, [x0, 3632]
	ldr	x0, [sp, 56]
	str	xzr, [x0, 15928]
	ldr	x0, [sp, 56]
	str	wzr, [x0, 16016]
	ldr	x0, [sp, 56]
	str	xzr, [x0, 16032]
	ldr	x0, [sp, 56]
	str	xzr, [x0, 16040]
	ldr	x0, [sp, 56]
	str	xzr, [x0, 16048]
	ldr	x0, [sp, 56]
	str	xzr, [x0, 16056]
	ldr	x0, [sp, 56]
	str	xzr, [x0, 16064]
	ldr	x0, [sp, 56]
	str	wzr, [x0, 16080]
	ldr	x0, [sp, 56]
	str	wzr, [x0, 16084]
	ldr	x0, [sp, 56]
	str	wzr, [x0, 16092]
	ldr	x0, [sp, 56]
	ldr	w1, [x0, 16092]
	ldr	x0, [sp, 56]
	str	w1, [x0, 16088]
	ldr	x0, [sp, 56]
	add	x0, x0, 12288
	strb	wzr, [x0, 3808]
	ldr	x0, [sp, 56]
	add	x0, x0, 12288
	strb	wzr, [x0, 3809]
	ldr	x0, [sp, 56]
	str	wzr, [x0, 16104]
	ldr	x0, [sp, 56]
	ldr	s0, [x0, 16104]
	ldr	x0, [sp, 56]
	str	s0, [x0, 16100]
	ldr	x0, [sp, 56]
	str	wzr, [x0, 16108]
	ldr	x0, [sp, 56]
	str	wzr, [x0, 16112]
	ldr	x0, [sp, 56]
	str	wzr, [x0, 16116]
	ldr	x0, [sp, 56]
	add	x0, x0, 12288
	strb	wzr, [x0, 3832]
	ldr	x0, [sp, 56]
	add	x0, x0, 12288
	strb	wzr, [x0, 3833]
	ldr	x0, [sp, 56]
	add	x0, x0, 12288
	strb	wzr, [x0, 3834]
	ldr	x0, [sp, 56]
	add	x0, x0, 12288
	strb	wzr, [x0, 3835]
	ldr	x0, [sp, 56]
	add	x0, x0, 12288
	strb	wzr, [x0, 3836]
	ldr	x0, [sp, 56]
	add	x0, x0, 12288
	strb	wzr, [x0, 3837]
	add	x0, sp, 64
	fmov	s1, -1.0e+0
	fmov	s0, -1.0e+0
	bl	_ZN6ImVec2C1Eff
	ldr	x0, [sp, 56]
	ldr	x1, [sp, 64]
	str	x1, [x0, 16128]
	ldr	x0, [sp, 56]
	str	xzr, [x0, 16136]
	ldr	x0, [sp, 56]
	str	wzr, [x0, 16144]
	ldr	x0, [sp, 56]
	mov	w1, -1
	str	w1, [x0, 16148]
	ldr	x0, [sp, 56]
	str	wzr, [x0, 16152]
	ldr	x0, [sp, 56]
	add	x0, x0, 12288
	strb	wzr, [x0, 3868]
	ldr	x0, [sp, 56]
	add	x0, x0, 12288
	strb	wzr, [x0, 3869]
	ldr	x0, [sp, 56]
	str	xzr, [x0, 16160]
	ldr	x0, [sp, 56]
	str	wzr, [x0, 16168]
	ldr	x0, [sp, 56]
	str	wzr, [x0, 16172]
	ldr	x0, [sp, 56]
	add	x0, x0, 16384
	str	wzr, [x0, 1784]
	ldr	x0, [sp, 56]
	add	x0, x0, 16384
	strb	wzr, [x0, 1788]
	ldr	x0, [sp, 56]
	add	x0, x0, 16384
	str	wzr, [x0, 1792]
	ldr	x0, [sp, 56]
	add	x0, x0, 16384
	str	wzr, [x0, 1796]
	ldr	x0, [sp, 56]
	add	x0, x0, 16384
	str	wzr, [x0, 1800]
	ldr	x0, [sp, 56]
	add	x0, x0, 16384
	str	wzr, [x0, 2128]
	ldr	x0, [sp, 56]
	str	xzr, [x0, 18536]
	ldr	x0, [sp, 56]
	add	x0, x0, 16384
	str	wzr, [x0, 2180]
	ldr	x0, [sp, 56]
	add	x0, x0, 16384
	ldr	w1, [x0, 2180]
	ldr	x0, [sp, 56]
	add	x0, x0, 16384
	str	w1, [x0, 2176]
	ldr	x0, [sp, 56]
	add	x0, x0, 16384
	ldr	w1, [x0, 2176]
	ldr	x0, [sp, 56]
	add	x0, x0, 16384
	str	w1, [x0, 2172]
	ldr	x0, [sp, 56]
	add	x0, x0, 16384
	ldr	w1, [x0, 2172]
	ldr	x0, [sp, 56]
	add	x0, x0, 16384
	str	w1, [x0, 2168]
	ldr	x0, [sp, 56]
	add	x0, x0, 16384
	ldr	w1, [x0, 2168]
	ldr	x0, [sp, 56]
	add	x0, x0, 16384
	str	w1, [x0, 2164]
	ldr	x0, [sp, 56]
	add	x0, x0, 16384
	ldr	w1, [x0, 2164]
	ldr	x0, [sp, 56]
	add	x0, x0, 16384
	str	w1, [x0, 2160]
	ldr	x0, [sp, 56]
	add	x0, x0, 16384
	str	wzr, [x0, 2200]
	ldr	x0, [sp, 56]
	add	x0, x0, 16384
	ldr	w1, [x0, 2200]
	ldr	x0, [sp, 56]
	add	x0, x0, 16384
	str	w1, [x0, 2192]
	ldr	x0, [sp, 56]
	add	x0, x0, 16384
	ldr	w1, [x0, 2192]
	ldr	x0, [sp, 56]
	add	x0, x0, 16384
	str	w1, [x0, 2188]
	ldr	x0, [sp, 56]
	add	x0, x0, 16384
	str	wzr, [x0, 2204]
	ldr	x0, [sp, 56]
	add	x0, x0, 16384
	ldr	w1, [x0, 2204]
	ldr	x0, [sp, 56]
	add	x0, x0, 16384
	str	w1, [x0, 2184]
	ldr	x0, [sp, 56]
	add	x0, x0, 16384
	str	wzr, [x0, 2196]
	ldr	x0, [sp, 56]
	add	x0, x0, 16384
	str	wzr, [x0, 2208]
	ldr	x0, [sp, 56]
	add	x0, x0, 16384
	str	wzr, [x0, 2212]
	ldr	x0, [sp, 56]
	add	x0, x0, 16384
	strb	wzr, [x0, 2216]
	ldr	x0, [sp, 56]
	add	x0, x0, 16384
	strb	wzr, [x0, 2217]
	ldr	x0, [sp, 56]
	add	x0, x0, 16384
	mov	w1, 1
	strb	w1, [x0, 2218]
	ldr	x0, [sp, 56]
	add	x0, x0, 16384
	strb	wzr, [x0, 2219]
	ldr	x0, [sp, 56]
	add	x0, x0, 16384
	strb	wzr, [x0, 2220]
	ldr	x0, [sp, 56]
	add	x0, x0, 16384
	strb	wzr, [x0, 2221]
	ldr	x0, [sp, 56]
	add	x0, x0, 16384
	strb	wzr, [x0, 2222]
	ldr	x0, [sp, 56]
	add	x0, x0, 16384
	str	wzr, [x0, 2224]
	ldr	x0, [sp, 56]
	add	x0, x0, 16384
	strb	wzr, [x0, 2244]
	ldr	x0, [sp, 56]
	add	x0, x0, 16384
	strb	wzr, [x0, 2245]
	ldr	x0, [sp, 56]
	add	x0, x0, 16384
	strb	wzr, [x0, 2246]
	ldr	x0, [sp, 56]
	add	x0, x0, 16384
	str	wzr, [x0, 2248]
	ldr	x0, [sp, 56]
	add	x0, x0, 16384
	str	wzr, [x0, 2252]
	ldr	x0, [sp, 56]
	add	x0, x0, 16384
	str	wzr, [x0, 2256]
	ldr	x0, [sp, 56]
	add	x0, x0, 16384
	mov	w1, -1
	str	w1, [x0, 2268]
	ldr	x0, [sp, 56]
	add	x0, x0, 16384
	ldr	w1, [x0, 2268]
	ldr	x0, [sp, 56]
	add	x0, x0, 16384
	str	w1, [x0, 2264]
	ldr	x0, [sp, 56]
	add	x0, x0, 16384
	ldr	w1, [x0, 2264]
	ldr	x0, [sp, 56]
	add	x0, x0, 16384
	str	w1, [x0, 2260]
	ldr	x0, [sp, 56]
	add	x0, x0, 16384
	str	wzr, [x0, 2304]
	ldr	x0, [sp, 56]
	add	x0, x0, 16384
	str	wzr, [x0, 2308]
	ldr	x0, [sp, 56]
	add	x0, x0, 16384
	str	wzr, [x0, 2312]
	ldr	x0, [sp, 56]
	add	x0, x0, 16384
	mov	w1, 4608
	str	w1, [x0, 2512]
	ldr	x0, [sp, 56]
	add	x0, x0, 16384
	mov	w1, 12800
	str	w1, [x0, 2516]
	ldr	x0, [sp, 56]
	str	xzr, [x0, 18920]
	ldr	x0, [sp, 56]
	ldr	x1, [x0, 18920]
	ldr	x0, [sp, 56]
	str	x1, [x0, 18912]
	ldr	x0, [sp, 56]
	ldr	x1, [x0, 18912]
	ldr	x0, [sp, 56]
	str	x1, [x0, 18904]
	ldr	x0, [sp, 56]
	add	x0, x0, 16384
	str	wzr, [x0, 2548]
	ldr	x0, [sp, 56]
	add	x0, x0, 16384
	ldr	s0, [x0, 2548]
	ldr	x0, [sp, 56]
	add	x0, x0, 16384
	str	s0, [x0, 2544]
	ldr	x0, [sp, 56]
	add	x0, x0, 16384
	strb	wzr, [x0, 2552]
	ldr	x0, [sp, 56]
	add	x0, x0, 16384
	str	wzr, [x0, 2572]
	ldr	x0, [sp, 56]
	add	x0, x0, 16384
	str	wzr, [x0, 2576]
	ldr	x0, [sp, 56]
	add	x0, x0, 16384
	strb	wzr, [x0, 2582]
	ldr	x0, [sp, 56]
	add	x0, x0, 16384
	ldrb	w1, [x0, 2582]
	ldr	x0, [sp, 56]
	add	x0, x0, 16384
	strb	w1, [x0, 2581]
	ldr	x0, [sp, 56]
	add	x0, x0, 16384
	ldrb	w1, [x0, 2581]
	ldr	x0, [sp, 56]
	add	x0, x0, 16384
	strb	w1, [x0, 2580]
	ldr	x0, [sp, 56]
	add	x0, x0, 16384
	str	wzr, [x0, 2584]
	ldr	x0, [sp, 56]
	add	x0, x0, 16384
	mov	w1, -1
	str	w1, [x0, 2588]
	ldr	x0, [sp, 56]
	add	x0, x0, 16384
	mov	w1, -1
	str	w1, [x0, 2592]
	ldr	x0, [sp, 56]
	add	x0, x0, 16384
	str	wzr, [x0, 2680]
	ldr	x0, [sp, 56]
	add	x0, x0, 16384
	str	wzr, [x0, 2684]
	ldr	x0, [sp, 56]
	add	x0, x0, 16384
	str	wzr, [x0, 2688]
	ldr	x0, [sp, 56]
	add	x0, x0, 16384
	str	wzr, [x0, 2692]
	ldr	x0, [sp, 56]
	add	x0, x0, 16384
	ldr	w1, [x0, 2692]
	ldr	x0, [sp, 56]
	add	x0, x0, 16384
	str	w1, [x0, 2696]
	ldr	x0, [sp, 56]
	add	x0, x0, 16384
	mov	w1, -1
	str	w1, [x0, 2700]
	ldr	x0, [sp, 56]
	add	x0, x0, 16384
	str	wzr, [x0, 2704]
	ldr	x1, [sp, 56]
	mov	x0, 19112
	add	x0, x1, x0
	mov	x2, 16
	mov	w1, 0
	bl	memset
	ldr	x0, [sp, 56]
	add	x0, x0, 16384
	str	wzr, [x0, 2744]
	ldr	x0, [sp, 56]
	str	xzr, [x0, 19152]
	ldr	x0, [sp, 56]
	add	x0, x0, 16384
	str	wzr, [x0, 2776]
	ldr	x0, [sp, 56]
	str	xzr, [x0, 19256]
	ldr	x0, [sp, 56]
	add	x0, x0, 16384
	str	wzr, [x0, 2956]
	ldr	x0, [sp, 56]
	add	x0, x0, 16384
	ldr	w1, [x0, 2956]
	ldr	x0, [sp, 56]
	add	x0, x0, 16384
	str	w1, [x0, 2952]
	ldr	x0, [sp, 56]
	add	x0, x0, 16384
	str	wzr, [x0, 2964]
	ldr	x0, [sp, 56]
	add	x0, x0, 16384
	ldr	s0, [x0, 2964]
	ldr	x0, [sp, 56]
	add	x0, x0, 16384
	str	s0, [x0, 2960]
	ldr	x0, [sp, 56]
	add	x0, x0, 16384
	str	wzr, [x0, 6808]
	ldr	x0, [sp, 56]
	add	x0, x0, 16384
	mov	w1, 177209344
	str	w1, [x0, 6812]
	ldr	x0, [sp, 56]
	add	x0, x0, 16384
	str	wzr, [x0, 6820]
	ldr	x0, [sp, 56]
	add	x0, x0, 16384
	ldr	s0, [x0, 6820]
	ldr	x0, [sp, 56]
	add	x0, x0, 16384
	str	s0, [x0, 6816]
	ldr	x0, [sp, 56]
	add	x0, x0, 16384
	str	wzr, [x0, 6824]
	ldr	x0, [sp, 56]
	add	x0, x0, 16384
	str	wzr, [x0, 6892]
	ldr	x0, [sp, 56]
	add	x0, x0, 16384
	str	wzr, [x0, 6896]
	ldr	x0, [sp, 56]
	add	x0, x0, 20480
	strb	wzr, [x0, 2804]
	ldr	x0, [sp, 56]
	add	x0, x0, 20480
	strb	wzr, [x0, 2805]
	ldr	x0, [sp, 56]
	add	x0, x0, 16384
	str	wzr, [x0, 6904]
	ldr	x0, [sp, 56]
	add	x0, x0, 16384
	mov	w1, 55050
	movk	w1, 0x3c23, lsl 16
	fmov	s0, w1
	str	s0, [x0, 6908]
	ldr	x0, [sp, 56]
	add	x0, x0, 16384
	str	wzr, [x0, 6912]
	ldr	x0, [sp, 56]
	add	x0, x0, 16384
	str	wzr, [x0, 6916]
	ldr	x0, [sp, 56]
	add	x0, x0, 16384
	strh	wzr, [x0, 6920]
	ldr	x0, [sp, 56]
	add	x0, x0, 16384
	strh	wzr, [x0, 6922]
	add	x0, sp, 64
	movi	v1.2s, #0
	movi	v0.2s, #0
	bl	_ZN6ImVec2C1Eff
	ldr	x1, [sp, 56]
	mov	x0, 23552
	add	x0, x1, x0
	ldr	x1, [sp, 64]
	str	x1, [x0, -204]
	add	x0, sp, 64
	fmov	s1, -1.0e+0
	fmov	s0, -1.0e+0
	bl	_ZN6ImVec2C1Eff
	ldr	x1, [sp, 56]
	mov	x0, 23552
	add	x0, x1, x0
	ldr	x1, [sp, 64]
	str	x1, [x0, -188]
	ldr	x0, [sp, 56]
	add	x0, x0, 20480
	mov	w1, 46
	strb	w1, [x0, 2896]
	ldr	x0, [sp, 56]
	add	x0, x0, 20480
	strb	wzr, [x0, 2897]
	ldr	x0, [sp, 56]
	add	x0, x0, 16384
	str	wzr, [x0, 6996]
	ldr	x0, [sp, 56]
	add	x0, x0, 16384
	str	wzr, [x0, 7080]
	ldr	x1, [sp, 56]
	mov	x0, 23472
	add	x0, x1, x0
	mov	x2, 56
	mov	w1, 0
	bl	memset
	ldr	x0, [sp, 56]
	add	x0, x0, 20480
	strb	wzr, [x0, 3048]
	ldr	x0, [sp, 56]
	add	x0, x0, 16384
	str	wzr, [x0, 7148]
	ldr	x0, [sp, 56]
	str	xzr, [x0, 23568]
	ldr	x0, [sp, 56]
	ldr	x1, [x0, 23568]
	ldr	x0, [sp, 56]
	str	x1, [x0, 23560]
	ldr	x0, [sp, 56]
	str	xzr, [x0, 23536]
	ldr	x0, [sp, 56]
	add	x0, x0, 16384
	mov	w1, 2139095039
	fmov	s0, w1
	str	s0, [x0, 7192]
	ldr	x0, [sp, 56]
	add	x0, x0, 20480
	strb	wzr, [x0, 3100]
	ldr	x0, [sp, 56]
	add	x0, x0, 16384
	str	wzr, [x0, 7200]
	ldr	x0, [sp, 56]
	add	x0, x0, 16384
	mov	w1, 2
	str	w1, [x0, 7208]
	ldr	x0, [sp, 56]
	add	x0, x0, 16384
	ldr	w1, [x0, 7208]
	ldr	x0, [sp, 56]
	add	x0, x0, 16384
	str	w1, [x0, 7204]
	ldr	x0, [sp, 56]
	add	x0, x0, 16384
	mov	w1, 1024
	str	w1, [x0, 7212]
	ldr	x0, [sp, 56]
	add	x0, x0, 16384
	str	wzr, [x0, 1804]
	ldr	x0, [sp, 56]
	add	x0, x0, 20480
	strb	wzr, [x0, 3160]
	ldr	x0, [sp, 56]
	add	x0, x0, 20480
	strb	wzr, [x0, 3161]
	ldr	x0, [sp, 56]
	add	x0, x0, 20480
	strb	wzr, [x0, 3162]
	ldr	x0, [sp, 56]
	add	x0, x0, 16384
	str	wzr, [x0, 7260]
	ldr	x1, [sp, 56]
	mov	x0, 23704
	add	x0, x1, x0
	mov	x2, 240
	mov	w1, 0
	bl	memset
	ldr	x0, [sp, 56]
	add	x0, x0, 16384
	str	wzr, [x0, 7564]
	ldr	x0, [sp, 56]
	add	x0, x0, 16384
	ldr	w1, [x0, 7564]
	ldr	x0, [sp, 56]
	add	x0, x0, 16384
	str	w1, [x0, 7560]
	ldr	x0, [sp, 56]
	add	x0, x0, 16384
	str	wzr, [x0, 7568]
	ldr	x0, [sp, 56]
	add	x0, x0, 16384
	mov	w1, -1
	str	w1, [x0, 7580]
	ldr	x0, [sp, 56]
	add	x0, x0, 16384
	ldr	w1, [x0, 7580]
	ldr	x0, [sp, 56]
	add	x0, x0, 16384
	str	w1, [x0, 7576]
	ldr	x0, [sp, 56]
	add	x0, x0, 16384
	ldr	w1, [x0, 7576]
	ldr	x0, [sp, 56]
	add	x0, x0, 16384
	str	w1, [x0, 7572]
	nop
	adrp	x0, :got:__stack_chk_guard
	ldr	x0, [x0, #:got_lo12:__stack_chk_guard]
	ldr	x2, [sp, 72]
	ldr	x1, [x0]
	subs	x2, x2, x1
	mov	x1, 0
	beq	.L398
	b	.L406
.L405:
	mov	x21, x0
	mov	x2, x20
	mov	w1, w22
	mov	x0, x19
	bl	_ZdlPv12ImNewWrapperS_
	mov	x19, x21
	b	.L392
.L404:
	mov	x19, x0
.L392:
	ldr	x1, [sp, 56]
	mov	x0, 23968
	add	x0, x1, x0
	bl	_ZN8ImVectorIcED1Ev
	ldr	x1, [sp, 56]
	mov	x0, 23664
	add	x0, x1, x0
	bl	_ZN14ImGuiStackToolD1Ev
	ldr	x1, [sp, 56]
	mov	x0, 23616
	add	x0, x1, x0
	bl	_ZN14ImGuiTextIndexD1Ev
	ldr	x1, [sp, 56]
	mov	x0, 23600
	add	x0, x1, x0
	bl	_ZN15ImGuiTextBufferD1Ev
	ldr	x1, [sp, 56]
	mov	x0, 23544
	add	x0, x1, x0
	bl	_ZN15ImGuiTextBufferD1Ev
	ldr	x1, [sp, 56]
	mov	x0, 23448
	add	x0, x1, x0
	bl	_ZN8ImVectorI16ImGuiContextHookED1Ev
	ldr	x1, [sp, 56]
	mov	x0, 23432
	add	x0, x1, x0
	bl	_ZN13ImChunkStreamI18ImGuiTableSettingsED1Ev
	ldr	x1, [sp, 56]
	mov	x0, 23416
	add	x0, x1, x0
	bl	_ZN13ImChunkStreamI19ImGuiWindowSettingsED1Ev
	ldr	x1, [sp, 56]
	mov	x0, 23400
	add	x0, x1, x0
	bl	_ZN8ImVectorI20ImGuiSettingsHandlerED1Ev
	ldr	x1, [sp, 56]
	mov	x0, 23384
	add	x0, x1, x0
	bl	_ZN15ImGuiTextBufferD1Ev
	ldr	x1, [sp, 56]
	mov	x0, 23328
	add	x0, x1, x0
	bl	_ZN8ImVectorIjED1Ev
	ldr	x1, [sp, 56]
	mov	x0, 23312
	add	x0, x1, x0
	bl	_ZN8ImVectorIcED1Ev
	ldr	x1, [sp, 56]
	mov	x0, 23080
	add	x0, x1, x0
	bl	_ZN6ImFontD1Ev
	b	.L393
.L403:
	mov	x19, x0
.L393:
	ldr	x1, [sp, 56]
	mov	x0, 19360
	add	x0, x1, x0
	bl	_ZN19ImGuiInputTextStateD1Ev
	ldr	x1, [sp, 56]
	mov	x0, 19320
	add	x0, x1, x0
	bl	_ZN8ImVectorI20ImGuiShrinkWidthItemED1Ev
	ldr	x1, [sp, 56]
	mov	x0, 19304
	add	x0, x1, x0
	bl	_ZN8ImVectorI15ImGuiPtrOrIndexED1Ev
	ldr	x1, [sp, 56]
	mov	x0, 19264
	add	x0, x1, x0
	bl	_ZN6ImPoolI11ImGuiTabBarED1Ev
	b	.L394
.L402:
	mov	x19, x0
.L394:
	ldr	x1, [sp, 56]
	mov	x0, 19240
	add	x0, x1, x0
	bl	_ZN8ImVectorI13ImDrawChannelED1Ev
	ldr	x1, [sp, 56]
	mov	x0, 19224
	add	x0, x1, x0
	bl	_ZN8ImVectorIfED1Ev
	ldr	x1, [sp, 56]
	mov	x0, 19184
	add	x0, x1, x0
	bl	_ZN6ImPoolI10ImGuiTableED1Ev
	b	.L395
.L401:
	mov	x19, x0
.L395:
	ldr	x1, [sp, 56]
	mov	x0, 19168
	add	x0, x1, x0
	bl	_ZN8ImVectorI18ImGuiTableTempDataED1Ev
	ldr	x1, [sp, 56]
	mov	x0, 19136
	add	x0, x1, x0
	bl	_ZN8ImVectorI20ImGuiListClipperDataED1Ev
	ldr	x1, [sp, 56]
	mov	x0, 19096
	add	x0, x1, x0
	bl	_ZN8ImVectorIhED1Ev
	ldr	x1, [sp, 56]
	mov	x0, 18520
	add	x0, x1, x0
	bl	_ZN8ImVectorIP14ImGuiViewportPED1Ev
	ldr	x1, [sp, 56]
	mov	x0, 18496
	add	x0, x1, x0
	bl	_ZN8ImVectorI14ImGuiPopupDataED1Ev
	ldr	x1, [sp, 56]
	mov	x0, 18480
	add	x0, x1, x0
	bl	_ZN8ImVectorI14ImGuiPopupDataED1Ev
	ldr	x1, [sp, 56]
	mov	x0, 18464
	add	x0, x1, x0
	bl	_ZN8ImVectorI14ImGuiGroupDataED1Ev
	ldr	x1, [sp, 56]
	mov	x0, 18448
	add	x0, x1, x0
	bl	_ZN8ImVectorIiED1Ev
	ldr	x1, [sp, 56]
	mov	x0, 18432
	add	x0, x1, x0
	bl	_ZN8ImVectorIjED1Ev
	ldr	x1, [sp, 56]
	mov	x0, 18416
	add	x0, x1, x0
	bl	_ZN8ImVectorIP6ImFontED1Ev
	ldr	x1, [sp, 56]
	mov	x0, 18400
	add	x0, x1, x0
	bl	_ZN8ImVectorI13ImGuiStyleModED1Ev
	ldr	x1, [sp, 56]
	mov	x0, 18384
	add	x0, x1, x0
	bl	_ZN8ImVectorI13ImGuiColorModED1Ev
	ldr	x1, [sp, 56]
	mov	x0, 17856
	add	x0, x1, x0
	bl	_ZN20ImGuiKeyRoutingTableD1Ev
	b	.L396
.L400:
	mov	x19, x0
.L396:
	ldr	x1, [sp, 56]
	mov	x0, 16000
	add	x0, x1, x0
	bl	_ZN12ImGuiStorageD1Ev
	ldr	x1, [sp, 56]
	mov	x0, 15984
	add	x0, x1, x0
	bl	_ZN8ImVectorI20ImGuiWindowStackDataED1Ev
	ldr	x1, [sp, 56]
	mov	x0, 15968
	add	x0, x1, x0
	bl	_ZN8ImVectorIP11ImGuiWindowED1Ev
	ldr	x1, [sp, 56]
	mov	x0, 15952
	add	x0, x1, x0
	bl	_ZN8ImVectorIP11ImGuiWindowED1Ev
	ldr	x1, [sp, 56]
	mov	x0, 15936
	add	x0, x1, x0
	bl	_ZN8ImVectorIP11ImGuiWindowED1Ev
	ldr	x1, [sp, 56]
	mov	x0, 15368
	add	x0, x1, x0
	bl	_ZN20ImDrawListSharedDataD1Ev
	b	.L397
.L399:
	mov	x19, x0
.L397:
	ldr	x1, [sp, 56]
	mov	x0, 14288
	add	x0, x1, x0
	bl	_ZN8ImVectorI15ImGuiInputEventED1Ev
	ldr	x1, [sp, 56]
	mov	x0, 14272
	add	x0, x1, x0
	bl	_ZN8ImVectorI15ImGuiInputEventED1Ev
	ldr	x0, [sp, 56]
	add	x0, x0, 8
	bl	_ZN7ImGuiIOD1Ev
	mov	x0, x19
.LEHB10:
	bl	_Unwind_Resume
.LEHE10:
.L406:
	bl	__stack_chk_fail
.L398:
	ldp	x19, x20, [sp, 16]
	ldp	x21, x22, [sp, 32]
	ldp	x29, x30, [sp], 80
	.cfi_restore 30
	.cfi_restore 29
	.cfi_restore 21
	.cfi_restore 22
	.cfi_restore 19
	.cfi_restore 20
	.cfi_def_cfa_offset 0
	ret
	.cfi_endproc
.LFE1496:
	.section	.gcc_except_table._ZN12ImGuiContextC2EP11ImFontAtlas,"aG",@progbits,_ZN12ImGuiContextC5EP11ImFontAtlas,comdat
.LLSDA1496:
	.byte	0xff
	.byte	0xff
	.byte	0x1
	.uleb128 .LLSDACSE1496-.LLSDACSB1496
.LLSDACSB1496:
	.uleb128 .LEHB2-.LFB1496
	.uleb128 .LEHE2-.LEHB2
	.uleb128 0
	.uleb128 0
	.uleb128 .LEHB3-.LFB1496
	.uleb128 .LEHE3-.LEHB3
	.uleb128 .L399-.LFB1496
	.uleb128 0
	.uleb128 .LEHB4-.LFB1496
	.uleb128 .LEHE4-.LEHB4
	.uleb128 .L400-.LFB1496
	.uleb128 0
	.uleb128 .LEHB5-.LFB1496
	.uleb128 .LEHE5-.LEHB5
	.uleb128 .L401-.LFB1496
	.uleb128 0
	.uleb128 .LEHB6-.LFB1496
	.uleb128 .LEHE6-.LEHB6
	.uleb128 .L402-.LFB1496
	.uleb128 0
	.uleb128 .LEHB7-.LFB1496
	.uleb128 .LEHE7-.LEHB7
	.uleb128 .L403-.LFB1496
	.uleb128 0
	.uleb128 .LEHB8-.LFB1496
	.uleb128 .LEHE8-.LEHB8
	.uleb128 .L404-.LFB1496
	.uleb128 0
	.uleb128 .LEHB9-.LFB1496
	.uleb128 .LEHE9-.LEHB9
	.uleb128 .L405-.LFB1496
	.uleb128 0
	.uleb128 .LEHB10-.LFB1496
	.uleb128 .LEHE10-.LEHB10
	.uleb128 0
	.uleb128 0
.LLSDACSE1496:
	.section	.text._ZN12ImGuiContextC2EP11ImFontAtlas,"axG",@progbits,_ZN12ImGuiContextC5EP11ImFontAtlas,comdat
	.size	_ZN12ImGuiContextC2EP11ImFontAtlas, .-_ZN12ImGuiContextC2EP11ImFontAtlas
	.weak	_ZN12ImGuiContextC1EP11ImFontAtlas
	.set	_ZN12ImGuiContextC1EP11ImFontAtlas,_ZN12ImGuiContextC2EP11ImFontAtlas
	.section	.text._ZNK11ImGuiWindow4RectEv,"axG",@progbits,_ZNK11ImGuiWindow4RectEv,comdat
	.align	2
	.weak	_ZNK11ImGuiWindow4RectEv
	.type	_ZNK11ImGuiWindow4RectEv, %function
_ZNK11ImGuiWindow4RectEv:
.LFB1498:
	.cfi_startproc
	stp	x29, x30, [sp, -64]!
	.cfi_def_cfa_offset 64
	.cfi_offset 29, -64
	.cfi_offset 30, -56
	mov	x29, sp
	str	x0, [sp, 24]
	adrp	x0, :got:__stack_chk_guard
	ldr	x0, [x0, #:got_lo12:__stack_chk_guard]
	ldr	x1, [x0]
	str	x1, [sp, 56]
	mov	x1, 0
	ldr	x0, [sp, 24]
	ldr	s4, [x0, 24]
	ldr	x0, [sp, 24]
	ldr	s5, [x0, 28]
	ldr	x0, [sp, 24]
	ldr	s1, [x0, 24]
	ldr	x0, [sp, 24]
	ldr	s0, [x0, 32]
	fadd	s2, s1, s0
	ldr	x0, [sp, 24]
	ldr	s1, [x0, 28]
	ldr	x0, [sp, 24]
	ldr	s0, [x0, 36]
	fadd	s0, s1, s0
	add	x0, sp, 40
	fmov	s3, s0
	fmov	s1, s5
	fmov	s0, s4
	bl	_ZN6ImRectC1Effff
	ldp	x0, x1, [sp, 40]
	mov	x2, x0
	mov	x3, x1
	lsr	w4, w2, 0
	mov	x2, x0
	mov	x3, x1
	lsr	x2, x2, 32
	mov	w5, w2
	mov	x2, x0
	mov	x3, x1
	lsr	w2, w3, 0
	lsr	x0, x1, 32
	fmov	s0, w4
	fmov	s1, w5
	fmov	s2, w2
	fmov	s3, w0
	adrp	x0, :got:__stack_chk_guard
	ldr	x0, [x0, #:got_lo12:__stack_chk_guard]
	ldr	x2, [sp, 56]
	ldr	x1, [x0]
	subs	x2, x2, x1
	mov	x1, 0
	beq	.L409
	bl	__stack_chk_fail
.L409:
	ldp	x29, x30, [sp], 64
	.cfi_restore 30
	.cfi_restore 29
	.cfi_def_cfa_offset 0
	ret
	.cfi_endproc
.LFE1498:
	.size	_ZNK11ImGuiWindow4RectEv, .-_ZNK11ImGuiWindow4RectEv
	.section	.text._ZNK11ImGuiWindow12CalcFontSizeEv,"axG",@progbits,_ZNK11ImGuiWindow12CalcFontSizeEv,comdat
	.align	2
	.weak	_ZNK11ImGuiWindow12CalcFontSizeEv
	.type	_ZNK11ImGuiWindow12CalcFontSizeEv, %function
_ZNK11ImGuiWindow12CalcFontSizeEv:
.LFB1499:
	.cfi_startproc
	sub	sp, sp, #32
	.cfi_def_cfa_offset 32
	str	x0, [sp, 8]
	adrp	x0, GImGui
	add	x0, x0, :lo12:GImGui
	ldr	x0, [x0]
	str	x0, [sp, 24]
	ldr	x0, [sp, 24]
	ldr	s1, [x0, 15364]
	ldr	x0, [sp, 8]
	ldr	s0, [x0, 624]
	fmul	s0, s1, s0
	str	s0, [sp, 20]
	ldr	x0, [sp, 8]
	ldr	x0, [x0, 840]
	cmp	x0, 0
	beq	.L411
	ldr	x0, [sp, 8]
	ldr	x0, [x0, 840]
	ldr	s0, [x0, 624]
	ldr	s1, [sp, 20]
	fmul	s0, s1, s0
	str	s0, [sp, 20]
.L411:
	ldr	s0, [sp, 20]
	add	sp, sp, 32
	.cfi_def_cfa_offset 0
	ret
	.cfi_endproc
.LFE1499:
	.size	_ZNK11ImGuiWindow12CalcFontSizeEv, .-_ZNK11ImGuiWindow12CalcFontSizeEv
	.section	.text._ZNK11ImGuiWindow14TitleBarHeightEv,"axG",@progbits,_ZNK11ImGuiWindow14TitleBarHeightEv,comdat
	.align	2
	.weak	_ZNK11ImGuiWindow14TitleBarHeightEv
	.type	_ZNK11ImGuiWindow14TitleBarHeightEv, %function
_ZNK11ImGuiWindow14TitleBarHeightEv:
.LFB1500:
	.cfi_startproc
	stp	x29, x30, [sp, -48]!
	.cfi_def_cfa_offset 48
	.cfi_offset 29, -48
	.cfi_offset 30, -40
	mov	x29, sp
	str	x0, [sp, 24]
	adrp	x0, GImGui
	add	x0, x0, :lo12:GImGui
	ldr	x0, [x0]
	str	x0, [sp, 40]
	ldr	x0, [sp, 24]
	ldr	w0, [x0, 12]
	and	w0, w0, 1
	cmp	w0, 0
	bne	.L414
	ldr	x0, [sp, 24]
	bl	_ZNK11ImGuiWindow12CalcFontSizeEv
	fmov	s1, s0
	ldr	x0, [sp, 40]
	ldr	s0, [x0, 14368]
	fadd	s0, s0, s0
	fadd	s0, s1, s0
	b	.L416
.L414:
	movi	v0.2s, #0
.L416:
	ldp	x29, x30, [sp], 48
	.cfi_restore 30
	.cfi_restore 29
	.cfi_def_cfa_offset 0
	ret
	.cfi_endproc
.LFE1500:
	.size	_ZNK11ImGuiWindow14TitleBarHeightEv, .-_ZNK11ImGuiWindow14TitleBarHeightEv
	.section	.text._ZNK11ImGuiWindow12TitleBarRectEv,"axG",@progbits,_ZNK11ImGuiWindow12TitleBarRectEv,comdat
	.align	2
	.weak	_ZNK11ImGuiWindow12TitleBarRectEv
	.type	_ZNK11ImGuiWindow12TitleBarRectEv, %function
_ZNK11ImGuiWindow12TitleBarRectEv:
.LFB1501:
	.cfi_startproc
	stp	x29, x30, [sp, -96]!
	.cfi_def_cfa_offset 96
	.cfi_offset 29, -96
	.cfi_offset 30, -88
	mov	x29, sp
	str	x19, [sp, 16]
	stp	d8, d9, [sp, 32]
	.cfi_offset 19, -80
	.cfi_offset 72, -64
	.cfi_offset 73, -56
	str	x0, [sp, 56]
	adrp	x0, :got:__stack_chk_guard
	ldr	x0, [x0, #:got_lo12:__stack_chk_guard]
	ldr	x1, [x0]
	str	x1, [sp, 88]
	mov	x1, 0
	ldr	x0, [sp, 56]
	add	x19, x0, 24
	ldr	x0, [sp, 56]
	ldr	s1, [x0, 24]
	ldr	x0, [sp, 56]
	ldr	s0, [x0, 40]
	fadd	s9, s1, s0
	ldr	x0, [sp, 56]
	ldr	s8, [x0, 28]
	ldr	x0, [sp, 56]
	bl	_ZNK11ImGuiWindow14TitleBarHeightEv
	fadd	s0, s8, s0
	add	x0, sp, 64
	fmov	s1, s0
	fmov	s0, s9
	bl	_ZN6ImVec2C1Eff
	add	x1, sp, 64
	add	x0, sp, 72
	mov	x2, x1
	mov	x1, x19
	bl	_ZN6ImRectC1ERK6ImVec2S2_
	ldp	x0, x1, [sp, 72]
	mov	x2, x0
	mov	x3, x1
	lsr	w4, w2, 0
	mov	x2, x0
	mov	x3, x1
	lsr	x2, x2, 32
	mov	w5, w2
	mov	x2, x0
	mov	x3, x1
	lsr	w2, w3, 0
	lsr	x0, x1, 32
	fmov	s0, w4
	fmov	s1, w5
	fmov	s2, w2
	fmov	s3, w0
	adrp	x0, :got:__stack_chk_guard
	ldr	x0, [x0, #:got_lo12:__stack_chk_guard]
	ldr	x2, [sp, 88]
	ldr	x1, [x0]
	subs	x2, x2, x1
	mov	x1, 0
	beq	.L419
	bl	__stack_chk_fail
.L419:
	ldp	d8, d9, [sp, 32]
	ldr	x19, [sp, 16]
	ldp	x29, x30, [sp], 96
	.cfi_restore 30
	.cfi_restore 29
	.cfi_restore 19
	.cfi_restore 72
	.cfi_restore 73
	.cfi_def_cfa_offset 0
	ret
	.cfi_endproc
.LFE1501:
	.size	_ZNK11ImGuiWindow12TitleBarRectEv, .-_ZNK11ImGuiWindow12TitleBarRectEv
	.section	.text._ZNK11ImGuiWindow13MenuBarHeightEv,"axG",@progbits,_ZNK11ImGuiWindow13MenuBarHeightEv,comdat
	.align	2
	.weak	_ZNK11ImGuiWindow13MenuBarHeightEv
	.type	_ZNK11ImGuiWindow13MenuBarHeightEv, %function
_ZNK11ImGuiWindow13MenuBarHeightEv:
.LFB1502:
	.cfi_startproc
	stp	x29, x30, [sp, -64]!
	.cfi_def_cfa_offset 64
	.cfi_offset 29, -64
	.cfi_offset 30, -56
	mov	x29, sp
	str	d8, [sp, 16]
	.cfi_offset 72, -48
	str	x0, [sp, 40]
	adrp	x0, GImGui
	add	x0, x0, :lo12:GImGui
	ldr	x0, [x0]
	str	x0, [sp, 56]
	ldr	x0, [sp, 40]
	ldr	w0, [x0, 12]
	and	w0, w0, 1024
	cmp	w0, 0
	beq	.L421
	ldr	x0, [sp, 40]
	ldr	s8, [x0, 328]
	ldr	x0, [sp, 40]
	bl	_ZNK11ImGuiWindow12CalcFontSizeEv
	fadd	s1, s8, s0
	ldr	x0, [sp, 56]
	ldr	s0, [x0, 14368]
	fadd	s0, s0, s0
	fadd	s0, s1, s0
	b	.L423
.L421:
	movi	v0.2s, #0
.L423:
	ldr	d8, [sp, 16]
	ldp	x29, x30, [sp], 64
	.cfi_restore 30
	.cfi_restore 29
	.cfi_restore 72
	.cfi_def_cfa_offset 0
	ret
	.cfi_endproc
.LFE1502:
	.size	_ZNK11ImGuiWindow13MenuBarHeightEv, .-_ZNK11ImGuiWindow13MenuBarHeightEv
	.section	.text._ZNK11ImGuiWindow11MenuBarRectEv,"axG",@progbits,_ZNK11ImGuiWindow11MenuBarRectEv,comdat
	.align	2
	.weak	_ZNK11ImGuiWindow11MenuBarRectEv
	.type	_ZNK11ImGuiWindow11MenuBarRectEv, %function
_ZNK11ImGuiWindow11MenuBarRectEv:
.LFB1503:
	.cfi_startproc
	stp	x29, x30, [sp, -80]!
	.cfi_def_cfa_offset 80
	.cfi_offset 29, -80
	.cfi_offset 30, -72
	mov	x29, sp
	stp	d8, d9, [sp, 16]
	.cfi_offset 72, -64
	.cfi_offset 73, -56
	str	x0, [sp, 40]
	adrp	x0, :got:__stack_chk_guard
	ldr	x0, [x0, #:got_lo12:__stack_chk_guard]
	ldr	x1, [x0]
	str	x1, [sp, 72]
	mov	x1, 0
	ldr	x0, [sp, 40]
	ldr	s8, [x0, 28]
	ldr	x0, [sp, 40]
	bl	_ZNK11ImGuiWindow14TitleBarHeightEv
	fadd	s0, s8, s0
	str	s0, [sp, 52]
	ldr	x0, [sp, 40]
	ldr	s8, [x0, 24]
	ldr	x0, [sp, 40]
	ldr	s1, [x0, 24]
	ldr	x0, [sp, 40]
	ldr	s0, [x0, 40]
	fadd	s9, s1, s0
	ldr	x0, [sp, 40]
	bl	_ZNK11ImGuiWindow13MenuBarHeightEv
	fmov	s1, s0
	ldr	s0, [sp, 52]
	fadd	s0, s1, s0
	add	x0, sp, 56
	fmov	s3, s0
	fmov	s2, s9
	ldr	s1, [sp, 52]
	fmov	s0, s8
	bl	_ZN6ImRectC1Effff
	ldp	x0, x1, [sp, 56]
	mov	x2, x0
	mov	x3, x1
	lsr	w4, w2, 0
	mov	x2, x0
	mov	x3, x1
	lsr	x2, x2, 32
	mov	w5, w2
	mov	x2, x0
	mov	x3, x1
	lsr	w2, w3, 0
	lsr	x0, x1, 32
	fmov	s0, w4
	fmov	s1, w5
	fmov	s2, w2
	fmov	s3, w0
	adrp	x0, :got:__stack_chk_guard
	ldr	x0, [x0, #:got_lo12:__stack_chk_guard]
	ldr	x2, [sp, 72]
	ldr	x1, [x0]
	subs	x2, x2, x1
	mov	x1, 0
	beq	.L426
	bl	__stack_chk_fail
.L426:
	ldp	d8, d9, [sp, 16]
	ldp	x29, x30, [sp], 80
	.cfi_restore 30
	.cfi_restore 29
	.cfi_restore 72
	.cfi_restore 73
	.cfi_def_cfa_offset 0
	ret
	.cfi_endproc
.LFE1503:
	.size	_ZNK11ImGuiWindow11MenuBarRectEv, .-_ZNK11ImGuiWindow11MenuBarRectEv
	.section	.rodata
	.align	3
.LC35:
	.string	"const char* ImGuiTabBar::GetTabName(const ImGuiTabItem*) const"
	.align	3
.LC36:
	.string	"/media/psf/Home/Desktop/git/C-/mac/myproject/external/imgui/include/imgui_internal.h"
	.align	3
.LC37:
	.string	"tab->NameOffset != -1 && tab->NameOffset < TabsNames.Buf.Size"
	.section	.text._ZNK11ImGuiTabBar10GetTabNameEPK12ImGuiTabItem,"axG",@progbits,_ZNK11ImGuiTabBar10GetTabNameEPK12ImGuiTabItem,comdat
	.align	2
	.weak	_ZNK11ImGuiTabBar10GetTabNameEPK12ImGuiTabItem
	.type	_ZNK11ImGuiTabBar10GetTabNameEPK12ImGuiTabItem, %function
_ZNK11ImGuiTabBar10GetTabNameEPK12ImGuiTabItem:
.LFB1508:
	.cfi_startproc
	stp	x29, x30, [sp, -32]!
	.cfi_def_cfa_offset 32
	.cfi_offset 29, -32
	.cfi_offset 30, -24
	mov	x29, sp
	str	x0, [sp, 24]
	str	x1, [sp, 16]
	ldr	x0, [sp, 16]
	ldr	w0, [x0, 32]
	cmn	w0, #1
	beq	.L428
	ldr	x0, [sp, 16]
	ldr	w1, [x0, 32]
	ldr	x0, [sp, 24]
	ldr	w0, [x0, 136]
	cmp	w1, w0
	blt	.L431
.L428:
	adrp	x0, .LC35
	add	x3, x0, :lo12:.LC35
	mov	w2, 2419
	adrp	x0, .LC36
	add	x1, x0, :lo12:.LC36
	adrp	x0, .LC37
	add	x0, x0, :lo12:.LC37
	bl	__assert_fail
.L431:
	ldr	x0, [sp, 24]
	ldr	x1, [x0, 144]
	ldr	x0, [sp, 16]
	ldr	w0, [x0, 32]
	sxtw	x0, w0
	add	x0, x1, x0
	ldp	x29, x30, [sp], 32
	.cfi_restore 30
	.cfi_restore 29
	.cfi_def_cfa_offset 0
	ret
	.cfi_endproc
.LFE1508:
	.size	_ZNK11ImGuiTabBar10GetTabNameEPK12ImGuiTabItem, .-_ZNK11ImGuiTabBar10GetTabNameEPK12ImGuiTabItem
	.section	.text._ZN10ImGuiTableD2Ev,"axG",@progbits,_ZN10ImGuiTableD5Ev,comdat
	.align	2
	.weak	_ZN10ImGuiTableD2Ev
	.type	_ZN10ImGuiTableD2Ev, %function
_ZN10ImGuiTableD2Ev:
.LFB1519:
	.cfi_startproc
	.cfi_personality 0x9b,DW.ref.__gxx_personality_v0
	.cfi_lsda 0x1b,.LLSDA1519
	stp	x29, x30, [sp, -32]!
	.cfi_def_cfa_offset 32
	.cfi_offset 29, -32
	.cfi_offset 30, -24
	mov	x29, sp
	str	x0, [sp, 24]
	ldr	x0, [sp, 24]
	ldr	x0, [x0, 8]
	bl	_ZN5ImGui7MemFreeEPv
	ldr	x0, [sp, 24]
	add	x0, x0, 464
	bl	_ZN8ImVectorI25ImGuiTableColumnSortSpecsED1Ev
	ldr	x0, [sp, 24]
	add	x0, x0, 432
	bl	_ZN8ImVectorI22ImGuiTableInstanceDataED1Ev
	ldr	x0, [sp, 24]
	add	x0, x0, 400
	bl	_ZN15ImGuiTextBufferD1Ev
	nop
	ldp	x29, x30, [sp], 32
	.cfi_restore 30
	.cfi_restore 29
	.cfi_def_cfa_offset 0
	ret
	.cfi_endproc
.LFE1519:
	.section	.gcc_except_table._ZN10ImGuiTableD2Ev,"aG",@progbits,_ZN10ImGuiTableD5Ev,comdat
.LLSDA1519:
	.byte	0xff
	.byte	0xff
	.byte	0x1
	.uleb128 .LLSDACSE1519-.LLSDACSB1519
.LLSDACSB1519:
.LLSDACSE1519:
	.section	.text._ZN10ImGuiTableD2Ev,"axG",@progbits,_ZN10ImGuiTableD5Ev,comdat
	.size	_ZN10ImGuiTableD2Ev, .-_ZN10ImGuiTableD2Ev
	.weak	_ZN10ImGuiTableD1Ev
	.set	_ZN10ImGuiTableD1Ev,_ZN10ImGuiTableD2Ev
	.section	.text._ZN5ImGui20GetCurrentWindowReadEv,"axG",@progbits,_ZN5ImGui20GetCurrentWindowReadEv,comdat
	.align	2
	.weak	_ZN5ImGui20GetCurrentWindowReadEv
	.type	_ZN5ImGui20GetCurrentWindowReadEv, %function
_ZN5ImGui20GetCurrentWindowReadEv:
.LFB1531:
	.cfi_startproc
	sub	sp, sp, #16
	.cfi_def_cfa_offset 16
	adrp	x0, GImGui
	add	x0, x0, :lo12:GImGui
	ldr	x0, [x0]
	str	x0, [sp, 8]
	ldr	x0, [sp, 8]
	ldr	x0, [x0, 16032]
	add	sp, sp, 16
	.cfi_def_cfa_offset 0
	ret
	.cfi_endproc
.LFE1531:
	.size	_ZN5ImGui20GetCurrentWindowReadEv, .-_ZN5ImGui20GetCurrentWindowReadEv
	.section	.text._ZN5ImGui16GetCurrentWindowEv,"axG",@progbits,_ZN5ImGui16GetCurrentWindowEv,comdat
	.align	2
	.weak	_ZN5ImGui16GetCurrentWindowEv
	.type	_ZN5ImGui16GetCurrentWindowEv, %function
_ZN5ImGui16GetCurrentWindowEv:
.LFB1532:
	.cfi_startproc
	sub	sp, sp, #16
	.cfi_def_cfa_offset 16
	adrp	x0, GImGui
	add	x0, x0, :lo12:GImGui
	ldr	x0, [x0]
	str	x0, [sp, 8]
	ldr	x0, [sp, 8]
	ldr	x0, [x0, 16032]
	mov	w1, 1
	strb	w1, [x0, 152]
	ldr	x0, [sp, 8]
	ldr	x0, [x0, 16032]
	add	sp, sp, 16
	.cfi_def_cfa_offset 0
	ret
	.cfi_endproc
.LFE1532:
	.size	_ZN5ImGui16GetCurrentWindowEv, .-_ZN5ImGui16GetCurrentWindowEv
	.section	.text._ZN5ImGui18WindowRectAbsToRelEP11ImGuiWindowRK6ImRect,"axG",@progbits,_ZN5ImGui18WindowRectAbsToRelEP11ImGuiWindowRK6ImRect,comdat
	.align	2
	.weak	_ZN5ImGui18WindowRectAbsToRelEP11ImGuiWindowRK6ImRect
	.type	_ZN5ImGui18WindowRectAbsToRelEP11ImGuiWindowRK6ImRect, %function
_ZN5ImGui18WindowRectAbsToRelEP11ImGuiWindowRK6ImRect:
.LFB1533:
	.cfi_startproc
	stp	x29, x30, [sp, -64]!
	.cfi_def_cfa_offset 64
	.cfi_offset 29, -64
	.cfi_offset 30, -56
	mov	x29, sp
	str	x0, [sp, 24]
	str	x1, [sp, 16]
	adrp	x0, :got:__stack_chk_guard
	ldr	x0, [x0, #:got_lo12:__stack_chk_guard]
	ldr	x1, [x0]
	str	x1, [sp, 56]
	mov	x1, 0
	ldr	x0, [sp, 24]
	ldr	x0, [x0, 240]
	str	x0, [sp, 32]
	ldr	x0, [sp, 16]
	ldr	s1, [x0]
	ldr	s0, [sp, 32]
	fsub	s4, s1, s0
	ldr	x0, [sp, 16]
	ldr	s1, [x0, 4]
	ldr	s0, [sp, 36]
	fsub	s5, s1, s0
	ldr	x0, [sp, 16]
	ldr	s1, [x0, 8]
	ldr	s0, [sp, 32]
	fsub	s2, s1, s0
	ldr	x0, [sp, 16]
	ldr	s1, [x0, 12]
	ldr	s0, [sp, 36]
	fsub	s0, s1, s0
	add	x0, sp, 40
	fmov	s3, s0
	fmov	s1, s5
	fmov	s0, s4
	bl	_ZN6ImRectC1Effff
	ldp	x0, x1, [sp, 40]
	mov	x2, x0
	mov	x3, x1
	lsr	w4, w2, 0
	mov	x2, x0
	mov	x3, x1
	lsr	x2, x2, 32
	mov	w5, w2
	mov	x2, x0
	mov	x3, x1
	lsr	w2, w3, 0
	lsr	x0, x1, 32
	fmov	s0, w4
	fmov	s1, w5
	fmov	s2, w2
	fmov	s3, w0
	adrp	x0, :got:__stack_chk_guard
	ldr	x0, [x0, #:got_lo12:__stack_chk_guard]
	ldr	x2, [sp, 56]
	ldr	x1, [x0]
	subs	x2, x2, x1
	mov	x1, 0
	beq	.L439
	bl	__stack_chk_fail
.L439:
	ldp	x29, x30, [sp], 64
	.cfi_restore 30
	.cfi_restore 29
	.cfi_def_cfa_offset 0
	ret
	.cfi_endproc
.LFE1533:
	.size	_ZN5ImGui18WindowRectAbsToRelEP11ImGuiWindowRK6ImRect, .-_ZN5ImGui18WindowRectAbsToRelEP11ImGuiWindowRK6ImRect
	.section	.text._ZN5ImGui18WindowRectRelToAbsEP11ImGuiWindowRK6ImRect,"axG",@progbits,_ZN5ImGui18WindowRectRelToAbsEP11ImGuiWindowRK6ImRect,comdat
	.align	2
	.weak	_ZN5ImGui18WindowRectRelToAbsEP11ImGuiWindowRK6ImRect
	.type	_ZN5ImGui18WindowRectRelToAbsEP11ImGuiWindowRK6ImRect, %function
_ZN5ImGui18WindowRectRelToAbsEP11ImGuiWindowRK6ImRect:
.LFB1534:
	.cfi_startproc
	stp	x29, x30, [sp, -64]!
	.cfi_def_cfa_offset 64
	.cfi_offset 29, -64
	.cfi_offset 30, -56
	mov	x29, sp
	str	x0, [sp, 24]
	str	x1, [sp, 16]
	adrp	x0, :got:__stack_chk_guard
	ldr	x0, [x0, #:got_lo12:__stack_chk_guard]
	ldr	x1, [x0]
	str	x1, [sp, 56]
	mov	x1, 0
	ldr	x0, [sp, 24]
	ldr	x0, [x0, 240]
	str	x0, [sp, 32]
	ldr	x0, [sp, 16]
	ldr	s1, [x0]
	ldr	s0, [sp, 32]
	fadd	s4, s1, s0
	ldr	x0, [sp, 16]
	ldr	s1, [x0, 4]
	ldr	s0, [sp, 36]
	fadd	s5, s1, s0
	ldr	x0, [sp, 16]
	ldr	s1, [x0, 8]
	ldr	s0, [sp, 32]
	fadd	s2, s1, s0
	ldr	x0, [sp, 16]
	ldr	s1, [x0, 12]
	ldr	s0, [sp, 36]
	fadd	s0, s1, s0
	add	x0, sp, 40
	fmov	s3, s0
	fmov	s1, s5
	fmov	s0, s4
	bl	_ZN6ImRectC1Effff
	ldp	x0, x1, [sp, 40]
	mov	x2, x0
	mov	x3, x1
	lsr	w4, w2, 0
	mov	x2, x0
	mov	x3, x1
	lsr	x2, x2, 32
	mov	w5, w2
	mov	x2, x0
	mov	x3, x1
	lsr	w2, w3, 0
	lsr	x0, x1, 32
	fmov	s0, w4
	fmov	s1, w5
	fmov	s2, w2
	fmov	s3, w0
	adrp	x0, :got:__stack_chk_guard
	ldr	x0, [x0, #:got_lo12:__stack_chk_guard]
	ldr	x2, [sp, 56]
	ldr	x1, [x0]
	subs	x2, x2, x1
	mov	x1, 0
	beq	.L442
	bl	__stack_chk_fail
.L442:
	ldp	x29, x30, [sp], 64
	.cfi_restore 30
	.cfi_restore 29
	.cfi_def_cfa_offset 0
	ret
	.cfi_endproc
.LFE1534:
	.size	_ZN5ImGui18WindowRectRelToAbsEP11ImGuiWindowRK6ImRect, .-_ZN5ImGui18WindowRectRelToAbsEP11ImGuiWindowRK6ImRect
	.section	.text._ZN5ImGui14GetDefaultFontEv,"axG",@progbits,_ZN5ImGui14GetDefaultFontEv,comdat
	.align	2
	.weak	_ZN5ImGui14GetDefaultFontEv
	.type	_ZN5ImGui14GetDefaultFontEv, %function
_ZN5ImGui14GetDefaultFontEv:
.LFB1535:
	.cfi_startproc
	stp	x29, x30, [sp, -32]!
	.cfi_def_cfa_offset 32
	.cfi_offset 29, -32
	.cfi_offset 30, -24
	mov	x29, sp
	adrp	x0, GImGui
	add	x0, x0, :lo12:GImGui
	ldr	x0, [x0]
	str	x0, [sp, 24]
	ldr	x0, [sp, 24]
	ldr	x0, [x0, 104]
	cmp	x0, 0
	beq	.L444
	ldr	x0, [sp, 24]
	ldr	x0, [x0, 104]
	b	.L446
.L444:
	ldr	x0, [sp, 24]
	ldr	x0, [x0, 88]
	add	x0, x0, 72
	mov	w1, 0
	bl	_ZN8ImVectorIP6ImFontEixEi
	ldr	x0, [x0]
.L446:
	ldp	x29, x30, [sp], 32
	.cfi_restore 30
	.cfi_restore 29
	.cfi_def_cfa_offset 0
	ret
	.cfi_endproc
.LFE1535:
	.size	_ZN5ImGui14GetDefaultFontEv, .-_ZN5ImGui14GetDefaultFontEv
	.section	.text._ZN5ImGui21GetForegroundDrawListEP11ImGuiWindow,"axG",@progbits,_ZN5ImGui21GetForegroundDrawListEP11ImGuiWindow,comdat
	.align	2
	.weak	_ZN5ImGui21GetForegroundDrawListEP11ImGuiWindow
	.type	_ZN5ImGui21GetForegroundDrawListEP11ImGuiWindow, %function
_ZN5ImGui21GetForegroundDrawListEP11ImGuiWindow:
.LFB1536:
	.cfi_startproc
	stp	x29, x30, [sp, -32]!
	.cfi_def_cfa_offset 32
	.cfi_offset 29, -32
	.cfi_offset 30, -24
	mov	x29, sp
	str	x0, [sp, 24]
	bl	_ZN5ImGui21GetForegroundDrawListEv
	ldp	x29, x30, [sp], 32
	.cfi_restore 30
	.cfi_restore 29
	.cfi_def_cfa_offset 0
	ret
	.cfi_endproc
.LFE1536:
	.size	_ZN5ImGui21GetForegroundDrawListEP11ImGuiWindow, .-_ZN5ImGui21GetForegroundDrawListEP11ImGuiWindow
	.section	.rodata
	.align	3
.LC38:
	.string	"*Missing Text*"
	.section	.text._ZN5ImGui14LocalizeGetMsgE11ImGuiLocKey,"axG",@progbits,_ZN5ImGui14LocalizeGetMsgE11ImGuiLocKey,comdat
	.align	2
	.weak	_ZN5ImGui14LocalizeGetMsgE11ImGuiLocKey
	.type	_ZN5ImGui14LocalizeGetMsgE11ImGuiLocKey, %function
_ZN5ImGui14LocalizeGetMsgE11ImGuiLocKey:
.LFB1537:
	.cfi_startproc
	sub	sp, sp, #32
	.cfi_def_cfa_offset 32
	str	w0, [sp, 12]
	adrp	x0, GImGui
	add	x0, x0, :lo12:GImGui
	ldr	x0, [x0]
	str	x0, [sp, 16]
	ldr	x0, [sp, 16]
	ldrsw	x1, [sp, 12]
	add	x1, x1, 2934
	ldr	x0, [x0, x1, lsl 3]
	str	x0, [sp, 24]
	ldr	x0, [sp, 24]
	cmp	x0, 0
	beq	.L450
	ldr	x0, [sp, 24]
	b	.L452
.L450:
	adrp	x0, .LC38
	add	x0, x0, :lo12:.LC38
.L452:
	add	sp, sp, 32
	.cfi_def_cfa_offset 0
	ret
	.cfi_endproc
.LFE1537:
	.size	_ZN5ImGui14LocalizeGetMsgE11ImGuiLocKey, .-_ZN5ImGui14LocalizeGetMsgE11ImGuiLocKey
	.section	.text._ZN5ImGui10IsNamedKeyE8ImGuiKey,"axG",@progbits,_ZN5ImGui10IsNamedKeyE8ImGuiKey,comdat
	.align	2
	.weak	_ZN5ImGui10IsNamedKeyE8ImGuiKey
	.type	_ZN5ImGui10IsNamedKeyE8ImGuiKey, %function
_ZN5ImGui10IsNamedKeyE8ImGuiKey:
.LFB1545:
	.cfi_startproc
	sub	sp, sp, #16
	.cfi_def_cfa_offset 16
	str	w0, [sp, 12]
	ldr	w0, [sp, 12]
	cmp	w0, 511
	ble	.L454
	ldr	w0, [sp, 12]
	cmp	w0, 651
	bgt	.L454
	mov	w0, 1
	b	.L455
.L454:
	mov	w0, 0
.L455:
	add	sp, sp, 16
	.cfi_def_cfa_offset 0
	ret
	.cfi_endproc
.LFE1545:
	.size	_ZN5ImGui10IsNamedKeyE8ImGuiKey, .-_ZN5ImGui10IsNamedKeyE8ImGuiKey
	.section	.text._ZN5ImGui18IsNamedKeyOrModKeyE8ImGuiKey,"axG",@progbits,_ZN5ImGui18IsNamedKeyOrModKeyE8ImGuiKey,comdat
	.align	2
	.weak	_ZN5ImGui18IsNamedKeyOrModKeyE8ImGuiKey
	.type	_ZN5ImGui18IsNamedKeyOrModKeyE8ImGuiKey, %function
_ZN5ImGui18IsNamedKeyOrModKeyE8ImGuiKey:
.LFB1546:
	.cfi_startproc
	sub	sp, sp, #16
	.cfi_def_cfa_offset 16
	str	w0, [sp, 12]
	ldr	w0, [sp, 12]
	cmp	w0, 511
	ble	.L458
	ldr	w0, [sp, 12]
	cmp	w0, 651
	ble	.L459
.L458:
	ldr	w0, [sp, 12]
	cmp	w0, 4096
	beq	.L459
	ldr	w0, [sp, 12]
	cmp	w0, 8192
	beq	.L459
	ldr	w0, [sp, 12]
	cmp	w0, 16384
	beq	.L459
	ldr	w0, [sp, 12]
	cmp	w0, 32768
	bne	.L460
.L459:
	mov	w0, 1
	b	.L461
.L460:
	mov	w0, 0
.L461:
	add	sp, sp, 16
	.cfi_def_cfa_offset 0
	ret
	.cfi_endproc
.LFE1546:
	.size	_ZN5ImGui18IsNamedKeyOrModKeyE8ImGuiKey, .-_ZN5ImGui18IsNamedKeyOrModKeyE8ImGuiKey
	.section	.text._ZN5ImGui11IsLegacyKeyE8ImGuiKey,"axG",@progbits,_ZN5ImGui11IsLegacyKeyE8ImGuiKey,comdat
	.align	2
	.weak	_ZN5ImGui11IsLegacyKeyE8ImGuiKey
	.type	_ZN5ImGui11IsLegacyKeyE8ImGuiKey, %function
_ZN5ImGui11IsLegacyKeyE8ImGuiKey:
.LFB1547:
	.cfi_startproc
	sub	sp, sp, #16
	.cfi_def_cfa_offset 16
	str	w0, [sp, 12]
	ldr	w0, [sp, 12]
	cmp	w0, 0
	blt	.L464
	ldr	w0, [sp, 12]
	cmp	w0, 511
	bgt	.L464
	mov	w0, 1
	b	.L465
.L464:
	mov	w0, 0
.L465:
	add	sp, sp, 16
	.cfi_def_cfa_offset 0
	ret
	.cfi_endproc
.LFE1547:
	.size	_ZN5ImGui11IsLegacyKeyE8ImGuiKey, .-_ZN5ImGui11IsLegacyKeyE8ImGuiKey
	.section	.text._ZN5ImGui12IsGamepadKeyE8ImGuiKey,"axG",@progbits,_ZN5ImGui12IsGamepadKeyE8ImGuiKey,comdat
	.align	2
	.weak	_ZN5ImGui12IsGamepadKeyE8ImGuiKey
	.type	_ZN5ImGui12IsGamepadKeyE8ImGuiKey, %function
_ZN5ImGui12IsGamepadKeyE8ImGuiKey:
.LFB1549:
	.cfi_startproc
	sub	sp, sp, #16
	.cfi_def_cfa_offset 16
	str	w0, [sp, 12]
	ldr	w0, [sp, 12]
	cmp	w0, 616
	ble	.L468
	ldr	w0, [sp, 12]
	cmp	w0, 640
	bgt	.L468
	mov	w0, 1
	b	.L469
.L468:
	mov	w0, 0
.L469:
	add	sp, sp, 16
	.cfi_def_cfa_offset 0
	ret
	.cfi_endproc
.LFE1549:
	.size	_ZN5ImGui12IsGamepadKeyE8ImGuiKey, .-_ZN5ImGui12IsGamepadKeyE8ImGuiKey
	.section	.text._ZN5ImGui10IsAliasKeyE8ImGuiKey,"axG",@progbits,_ZN5ImGui10IsAliasKeyE8ImGuiKey,comdat
	.align	2
	.weak	_ZN5ImGui10IsAliasKeyE8ImGuiKey
	.type	_ZN5ImGui10IsAliasKeyE8ImGuiKey, %function
_ZN5ImGui10IsAliasKeyE8ImGuiKey:
.LFB1551:
	.cfi_startproc
	sub	sp, sp, #16
	.cfi_def_cfa_offset 16
	str	w0, [sp, 12]
	ldr	w0, [sp, 12]
	cmp	w0, 640
	ble	.L472
	ldr	w0, [sp, 12]
	cmp	w0, 647
	bgt	.L472
	mov	w0, 1
	b	.L473
.L472:
	mov	w0, 0
.L473:
	add	sp, sp, 16
	.cfi_def_cfa_offset 0
	ret
	.cfi_endproc
.LFE1551:
	.size	_ZN5ImGui10IsAliasKeyE8ImGuiKey, .-_ZN5ImGui10IsAliasKeyE8ImGuiKey
	.section	.text._ZN5ImGui25ConvertSingleModFlagToKeyE8ImGuiKey,"axG",@progbits,_ZN5ImGui25ConvertSingleModFlagToKeyE8ImGuiKey,comdat
	.align	2
	.weak	_ZN5ImGui25ConvertSingleModFlagToKeyE8ImGuiKey
	.type	_ZN5ImGui25ConvertSingleModFlagToKeyE8ImGuiKey, %function
_ZN5ImGui25ConvertSingleModFlagToKeyE8ImGuiKey:
.LFB1552:
	.cfi_startproc
	sub	sp, sp, #16
	.cfi_def_cfa_offset 16
	str	w0, [sp, 12]
	ldr	w0, [sp, 12]
	cmp	w0, 4096
	bne	.L476
	mov	w0, 648
	b	.L477
.L476:
	ldr	w0, [sp, 12]
	cmp	w0, 8192
	bne	.L478
	mov	w0, 649
	b	.L477
.L478:
	ldr	w0, [sp, 12]
	cmp	w0, 16384
	bne	.L479
	mov	w0, 650
	b	.L477
.L479:
	ldr	w0, [sp, 12]
	cmp	w0, 32768
	bne	.L480
	mov	w0, 651
	b	.L477
.L480:
	ldr	w0, [sp, 12]
.L477:
	add	sp, sp, 16
	.cfi_def_cfa_offset 0
	ret
	.cfi_endproc
.LFE1552:
	.size	_ZN5ImGui25ConvertSingleModFlagToKeyE8ImGuiKey, .-_ZN5ImGui25ConvertSingleModFlagToKeyE8ImGuiKey
	.section	.rodata
	.align	3
.LC39:
	.string	"ImGuiKey ImGui::MouseButtonToKey(ImGuiMouseButton)"
	.align	3
.LC40:
	.string	"button >= 0 && button < ImGuiMouseButton_COUNT"
	.section	.text._ZN5ImGui16MouseButtonToKeyEi,"axG",@progbits,_ZN5ImGui16MouseButtonToKeyEi,comdat
	.align	2
	.weak	_ZN5ImGui16MouseButtonToKeyEi
	.type	_ZN5ImGui16MouseButtonToKeyEi, %function
_ZN5ImGui16MouseButtonToKeyEi:
.LFB1553:
	.cfi_startproc
	stp	x29, x30, [sp, -32]!
	.cfi_def_cfa_offset 32
	.cfi_offset 29, -32
	.cfi_offset 30, -24
	mov	x29, sp
	str	w0, [sp, 28]
	ldr	w0, [sp, 28]
	cmp	w0, 0
	blt	.L482
	ldr	w0, [sp, 28]
	cmp	w0, 4
	ble	.L485
.L482:
	adrp	x0, .LC39
	add	x3, x0, :lo12:.LC39
	mov	w2, 2880
	adrp	x0, .LC36
	add	x1, x0, :lo12:.LC36
	adrp	x0, .LC40
	add	x0, x0, :lo12:.LC40
	bl	__assert_fail
.L485:
	ldr	w0, [sp, 28]
	add	w0, w0, 641
	ldp	x29, x30, [sp], 32
	.cfi_restore 30
	.cfi_restore 29
	.cfi_def_cfa_offset 0
	ret
	.cfi_endproc
.LFE1553:
	.size	_ZN5ImGui16MouseButtonToKeyEi, .-_ZN5ImGui16MouseButtonToKeyEi
	.section	.text._ZN5ImGui21IsActiveIdUsingNavDirEi,"axG",@progbits,_ZN5ImGui21IsActiveIdUsingNavDirEi,comdat
	.align	2
	.weak	_ZN5ImGui21IsActiveIdUsingNavDirEi
	.type	_ZN5ImGui21IsActiveIdUsingNavDirEi, %function
_ZN5ImGui21IsActiveIdUsingNavDirEi:
.LFB1554:
	.cfi_startproc
	sub	sp, sp, #32
	.cfi_def_cfa_offset 32
	str	w0, [sp, 12]
	adrp	x0, GImGui
	add	x0, x0, :lo12:GImGui
	ldr	x0, [x0]
	str	x0, [sp, 24]
	ldr	x0, [sp, 24]
	add	x0, x0, 16384
	ldr	w0, [x0, 1784]
	ldr	w1, [sp, 12]
	mov	w2, 1
	lsl	w1, w2, w1
	and	w0, w0, w1
	cmp	w0, 0
	cset	w0, ne
	and	w0, w0, 255
	add	sp, sp, 32
	.cfi_def_cfa_offset 0
	ret
	.cfi_endproc
.LFE1554:
	.size	_ZN5ImGui21IsActiveIdUsingNavDirEi, .-_ZN5ImGui21IsActiveIdUsingNavDirEi
	.section	.rodata
	.align	3
.LC41:
	.string	"ImGuiKeyOwnerData* ImGui::GetKeyOwnerData(ImGuiKey)"
	.align	3
.LC42:
	.string	"IsNamedKey(key)"
	.section	.text._ZN5ImGui15GetKeyOwnerDataE8ImGuiKey,"axG",@progbits,_ZN5ImGui15GetKeyOwnerDataE8ImGuiKey,comdat
	.align	2
	.weak	_ZN5ImGui15GetKeyOwnerDataE8ImGuiKey
	.type	_ZN5ImGui15GetKeyOwnerDataE8ImGuiKey, %function
_ZN5ImGui15GetKeyOwnerDataE8ImGuiKey:
.LFB1555:
	.cfi_startproc
	stp	x29, x30, [sp, -32]!
	.cfi_def_cfa_offset 32
	.cfi_offset 29, -32
	.cfi_offset 30, -24
	mov	x29, sp
	str	w0, [sp, 28]
	ldr	w0, [sp, 28]
	and	w0, w0, 61440
	cmp	w0, 0
	beq	.L489
	ldr	w0, [sp, 28]
	bl	_ZN5ImGui25ConvertSingleModFlagToKeyE8ImGuiKey
	str	w0, [sp, 28]
.L489:
	ldr	w0, [sp, 28]
	bl	_ZN5ImGui10IsNamedKeyE8ImGuiKey
	and	w0, w0, 255
	cmp	w0, 0
	bne	.L490
	adrp	x0, .LC41
	add	x3, x0, :lo12:.LC41
	mov	w2, 2904
	adrp	x0, .LC36
	add	x1, x0, :lo12:.LC36
	adrp	x0, .LC42
	add	x0, x0, :lo12:.LC42
	bl	__assert_fail
.L490:
	adrp	x0, GImGui
	add	x0, x0, :lo12:GImGui
	ldr	x2, [x0]
	ldr	w0, [sp, 28]
	sub	w0, w0, #512
	sxtw	x1, w0
	mov	x0, x1
	lsl	x0, x0, 1
	add	x0, x0, x1
	lsl	x0, x0, 2
	mov	x1, 16176
	add	x0, x0, x1
	add	x0, x2, x0
	ldp	x29, x30, [sp], 32
	.cfi_restore 30
	.cfi_restore 29
	.cfi_def_cfa_offset 0
	ret
	.cfi_endproc
.LFE1555:
	.size	_ZN5ImGui15GetKeyOwnerDataE8ImGuiKey, .-_ZN5ImGui15GetKeyOwnerDataE8ImGuiKey
	.section	.text._ZN5ImGui20TableGetInstanceDataEP10ImGuiTablei,"axG",@progbits,_ZN5ImGui20TableGetInstanceDataEP10ImGuiTablei,comdat
	.align	2
	.weak	_ZN5ImGui20TableGetInstanceDataEP10ImGuiTablei
	.type	_ZN5ImGui20TableGetInstanceDataEP10ImGuiTablei, %function
_ZN5ImGui20TableGetInstanceDataEP10ImGuiTablei:
.LFB1558:
	.cfi_startproc
	stp	x29, x30, [sp, -32]!
	.cfi_def_cfa_offset 32
	.cfi_offset 29, -32
	.cfi_offset 30, -24
	mov	x29, sp
	str	x0, [sp, 24]
	str	w1, [sp, 20]
	ldr	w0, [sp, 20]
	cmp	w0, 0
	bne	.L493
	ldr	x0, [sp, 24]
	add	x0, x0, 424
	b	.L494
.L493:
	ldr	x0, [sp, 24]
	add	x2, x0, 432
	ldr	w0, [sp, 20]
	sub	w0, w0, #1
	mov	w1, w0
	mov	x0, x2
	bl	_ZN8ImVectorI22ImGuiTableInstanceDataEixEi
.L494:
	ldp	x29, x30, [sp], 32
	.cfi_restore 30
	.cfi_restore 29
	.cfi_def_cfa_offset 0
	ret
	.cfi_endproc
.LFE1558:
	.size	_ZN5ImGui20TableGetInstanceDataEP10ImGuiTablei, .-_ZN5ImGui20TableGetInstanceDataEP10ImGuiTablei
	.section	.text._ZN5ImGui20DebugStartItemPickerEv,"axG",@progbits,_ZN5ImGui20DebugStartItemPickerEv,comdat
	.align	2
	.weak	_ZN5ImGui20DebugStartItemPickerEv
	.type	_ZN5ImGui20DebugStartItemPickerEv, %function
_ZN5ImGui20DebugStartItemPickerEv:
.LFB1562:
	.cfi_startproc
	sub	sp, sp, #16
	.cfi_def_cfa_offset 16
	adrp	x0, GImGui
	add	x0, x0, :lo12:GImGui
	ldr	x0, [x0]
	str	x0, [sp, 8]
	ldr	x0, [sp, 8]
	add	x0, x0, 20480
	mov	w1, 1
	strb	w1, [x0, 3161]
	nop
	add	sp, sp, 16
	.cfi_def_cfa_offset 0
	ret
	.cfi_endproc
.LFE1562:
	.size	_ZN5ImGui20DebugStartItemPickerEv, .-_ZN5ImGui20DebugStartItemPickerEv
	.section	.rodata
	.align	2
	.type	_ZL29NAV_WINDOWING_HIGHLIGHT_DELAY, %object
	.size	_ZL29NAV_WINDOWING_HIGHLIGHT_DELAY, 4
_ZL29NAV_WINDOWING_HIGHLIGHT_DELAY:
	.word	1045220557
	.align	2
	.type	_ZL31NAV_WINDOWING_LIST_APPEAR_DELAY, %object
	.size	_ZL31NAV_WINDOWING_LIST_APPEAR_DELAY, 4
_ZL31NAV_WINDOWING_LIST_APPEAR_DELAY:
	.word	1041865114
	.align	2
	.type	_ZL21WINDOWS_HOVER_PADDING, %object
	.size	_ZL21WINDOWS_HOVER_PADDING, 4
_ZL21WINDOWS_HOVER_PADDING:
	.word	1082130432
	.align	2
	.type	_ZL40WINDOWS_RESIZE_FROM_EDGES_FEEDBACK_TIMER, %object
	.size	_ZL40WINDOWS_RESIZE_FROM_EDGES_FEEDBACK_TIMER, 4
_ZL40WINDOWS_RESIZE_FROM_EDGES_FEEDBACK_TIMER:
	.word	1025758986
	.align	2
	.type	_ZL37WINDOWS_MOUSE_WHEEL_SCROLL_LOCK_TIMER, %object
	.size	_ZL37WINDOWS_MOUSE_WHEEL_SCROLL_LOCK_TIMER, 4
_ZL37WINDOWS_MOUSE_WHEEL_SCROLL_LOCK_TIMER:
	.word	1060320051
	.global	GImGui
	.bss
	.align	3
	.type	GImGui, %object
	.size	GImGui, 8
GImGui:
	.zero	8
	.text
	.align	2
	.type	_ZL13MallocWrappermPv, %function
_ZL13MallocWrappermPv:
.LFB1568:
	.cfi_startproc
	stp	x29, x30, [sp, -32]!
	.cfi_def_cfa_offset 32
	.cfi_offset 29, -32
	.cfi_offset 30, -24
	mov	x29, sp
	str	x0, [sp, 24]
	str	x1, [sp, 16]
	ldr	x0, [sp, 24]
	bl	malloc
	ldp	x29, x30, [sp], 32
	.cfi_restore 30
	.cfi_restore 29
	.cfi_def_cfa_offset 0
	ret
	.cfi_endproc
.LFE1568:
	.size	_ZL13MallocWrappermPv, .-_ZL13MallocWrappermPv
	.align	2
	.type	_ZL11FreeWrapperPvS_, %function
_ZL11FreeWrapperPvS_:
.LFB1569:
	.cfi_startproc
	stp	x29, x30, [sp, -32]!
	.cfi_def_cfa_offset 32
	.cfi_offset 29, -32
	.cfi_offset 30, -24
	mov	x29, sp
	str	x0, [sp, 24]
	str	x1, [sp, 16]
	ldr	x0, [sp, 24]
	bl	free
	nop
	ldp	x29, x30, [sp], 32
	.cfi_restore 30
	.cfi_restore 29
	.cfi_def_cfa_offset 0
	ret
	.cfi_endproc
.LFE1569:
	.size	_ZL11FreeWrapperPvS_, .-_ZL11FreeWrapperPvS_
	.section	.data.rel.local,"aw"
	.align	3
	.type	_ZL21GImAllocatorAllocFunc, %object
	.size	_ZL21GImAllocatorAllocFunc, 8
_ZL21GImAllocatorAllocFunc:
	.xword	_ZL13MallocWrappermPv
	.align	3
	.type	_ZL20GImAllocatorFreeFunc, %object
	.size	_ZL20GImAllocatorFreeFunc, 8
_ZL20GImAllocatorFreeFunc:
	.xword	_ZL11FreeWrapperPvS_
	.local	_ZL20GImAllocatorUserData
	.comm	_ZL20GImAllocatorUserData,8,8
	.text
	.align	2
	.global	_ZN10ImGuiStyleC2Ev
	.type	_ZN10ImGuiStyleC2Ev, %function
_ZN10ImGuiStyleC2Ev:
.LFB1571:
	.cfi_startproc
	stp	x29, x30, [sp, -48]!
	.cfi_def_cfa_offset 48
	.cfi_offset 29, -48
	.cfi_offset 30, -40
	mov	x29, sp
	str	x0, [sp, 24]
	adrp	x0, :got:__stack_chk_guard
	ldr	x0, [x0, #:got_lo12:__stack_chk_guard]
	ldr	x1, [x0]
	str	x1, [sp, 40]
	mov	x1, 0
	ldr	x0, [sp, 24]
	add	x0, x0, 8
	bl	_ZN6ImVec2C1Ev
	ldr	x0, [sp, 24]
	add	x0, x0, 24
	bl	_ZN6ImVec2C1Ev
	ldr	x0, [sp, 24]
	add	x0, x0, 32
	bl	_ZN6ImVec2C1Ev
	ldr	x0, [sp, 24]
	add	x0, x0, 60
	bl	_ZN6ImVec2C1Ev
	ldr	x0, [sp, 24]
	add	x0, x0, 76
	bl	_ZN6ImVec2C1Ev
	ldr	x0, [sp, 24]
	add	x0, x0, 84
	bl	_ZN6ImVec2C1Ev
	ldr	x0, [sp, 24]
	add	x0, x0, 92
	bl	_ZN6ImVec2C1Ev
	ldr	x0, [sp, 24]
	add	x0, x0, 100
	bl	_ZN6ImVec2C1Ev
	ldr	x0, [sp, 24]
	add	x0, x0, 152
	bl	_ZN6ImVec2C1Ev
	ldr	x0, [sp, 24]
	add	x0, x0, 160
	bl	_ZN6ImVec2C1Ev
	ldr	x0, [sp, 24]
	add	x0, x0, 168
	bl	_ZN6ImVec2C1Ev
	ldr	x0, [sp, 24]
	add	x0, x0, 176
	bl	_ZN6ImVec2C1Ev
	ldr	x0, [sp, 24]
	add	x0, x0, 200
	mov	x3, x0
	mov	x0, 848
	mov	x2, x0
	mov	w1, 0
	mov	x0, x3
	bl	memset
	ldr	x0, [sp, 24]
	fmov	s0, 1.0e+0
	str	s0, [x0]
	ldr	x0, [sp, 24]
	mov	w1, 39322
	movk	w1, 0x3f19, lsl 16
	fmov	s0, w1
	str	s0, [x0, 4]
	add	x0, sp, 32
	fmov	s1, 8.0e+0
	fmov	s0, 8.0e+0
	bl	_ZN6ImVec2C1Eff
	ldr	x0, [sp, 24]
	ldr	x1, [sp, 32]
	str	x1, [x0, 8]
	ldr	x0, [sp, 24]
	str	wzr, [x0, 16]
	ldr	x0, [sp, 24]
	fmov	s0, 1.0e+0
	str	s0, [x0, 20]
	add	x0, sp, 32
	movi	v1.2s, 0x42, lsl 24
	movi	v0.2s, 0x42, lsl 24
	bl	_ZN6ImVec2C1Eff
	ldr	x0, [sp, 24]
	ldr	x1, [sp, 32]
	str	x1, [x0, 24]
	add	x0, sp, 32
	fmov	s1, 5.0e-1
	movi	v0.2s, #0
	bl	_ZN6ImVec2C1Eff
	ldr	x0, [sp, 24]
	ldr	x1, [sp, 32]
	str	x1, [x0, 32]
	ldr	x0, [sp, 24]
	str	wzr, [x0, 40]
	ldr	x0, [sp, 24]
	str	wzr, [x0, 44]
	ldr	x0, [sp, 24]
	fmov	s0, 1.0e+0
	str	s0, [x0, 48]
	ldr	x0, [sp, 24]
	str	wzr, [x0, 52]
	ldr	x0, [sp, 24]
	fmov	s0, 1.0e+0
	str	s0, [x0, 56]
	add	x0, sp, 32
	fmov	s1, 3.0e+0
	fmov	s0, 4.0e+0
	bl	_ZN6ImVec2C1Eff
	ldr	x0, [sp, 24]
	ldr	x1, [sp, 32]
	str	x1, [x0, 60]
	ldr	x0, [sp, 24]
	str	wzr, [x0, 68]
	ldr	x0, [sp, 24]
	str	wzr, [x0, 72]
	add	x0, sp, 32
	fmov	s1, 4.0e+0
	fmov	s0, 8.0e+0
	bl	_ZN6ImVec2C1Eff
	ldr	x0, [sp, 24]
	ldr	x1, [sp, 32]
	str	x1, [x0, 76]
	add	x0, sp, 32
	fmov	s1, 4.0e+0
	fmov	s0, 4.0e+0
	bl	_ZN6ImVec2C1Eff
	ldr	x0, [sp, 24]
	ldr	x1, [sp, 32]
	str	x1, [x0, 84]
	add	x0, sp, 32
	fmov	s1, 2.0e+0
	fmov	s0, 4.0e+0
	bl	_ZN6ImVec2C1Eff
	ldr	x0, [sp, 24]
	ldr	x1, [sp, 32]
	str	x1, [x0, 92]
	add	x0, sp, 32
	movi	v1.2s, #0
	movi	v0.2s, #0
	bl	_ZN6ImVec2C1Eff
	ldr	x0, [sp, 24]
	ldr	x1, [sp, 32]
	str	x1, [x0, 100]
	ldr	x0, [sp, 24]
	fmov	s0, 2.1e+1
	str	s0, [x0, 108]
	ldr	x0, [sp, 24]
	fmov	s0, 6.0e+0
	str	s0, [x0, 112]
	ldr	x0, [sp, 24]
	fmov	s0, 1.4e+1
	str	s0, [x0, 116]
	ldr	x0, [sp, 24]
	fmov	s0, 9.0e+0
	str	s0, [x0, 120]
	ldr	x0, [sp, 24]
	fmov	s0, 1.2e+1
	str	s0, [x0, 124]
	ldr	x0, [sp, 24]
	str	wzr, [x0, 128]
	ldr	x0, [sp, 24]
	fmov	s0, 4.0e+0
	str	s0, [x0, 132]
	ldr	x0, [sp, 24]
	fmov	s0, 4.0e+0
	str	s0, [x0, 136]
	ldr	x0, [sp, 24]
	str	wzr, [x0, 140]
	ldr	x0, [sp, 24]
	str	wzr, [x0, 144]
	ldr	x0, [sp, 24]
	mov	w1, 1
	str	w1, [x0, 148]
	add	x0, sp, 32
	fmov	s1, 5.0e-1
	fmov	s0, 5.0e-1
	bl	_ZN6ImVec2C1Eff
	ldr	x0, [sp, 24]
	ldr	x1, [sp, 32]
	str	x1, [x0, 152]
	add	x0, sp, 32
	movi	v1.2s, #0
	movi	v0.2s, #0
	bl	_ZN6ImVec2C1Eff
	ldr	x0, [sp, 24]
	ldr	x1, [sp, 32]
	str	x1, [x0, 160]
	add	x0, sp, 32
	fmov	s1, 1.9e+1
	fmov	s0, 1.9e+1
	bl	_ZN6ImVec2C1Eff
	ldr	x0, [sp, 24]
	ldr	x1, [sp, 32]
	str	x1, [x0, 168]
	add	x0, sp, 32
	fmov	s1, 3.0e+0
	fmov	s0, 3.0e+0
	bl	_ZN6ImVec2C1Eff
	ldr	x0, [sp, 24]
	ldr	x1, [sp, 32]
	str	x1, [x0, 176]
	ldr	x0, [sp, 24]
	fmov	s0, 1.0e+0
	str	s0, [x0, 184]
	ldr	x0, [sp, 24]
	mov	w1, 1
	strb	w1, [x0, 188]
	ldr	x0, [sp, 24]
	mov	w1, 1
	strb	w1, [x0, 189]
	ldr	x0, [sp, 24]
	mov	w1, 1
	strb	w1, [x0, 190]
	ldr	x0, [sp, 24]
	fmov	s0, 1.25e+0
	str	s0, [x0, 192]
	ldr	x0, [sp, 24]
	mov	w1, 39322
	movk	w1, 0x3e99, lsl 16
	fmov	s0, w1
	str	s0, [x0, 196]
	ldr	x0, [sp, 24]
	bl	_ZN5ImGui15StyleColorsDarkEP10ImGuiStyle
	nop
	adrp	x0, :got:__stack_chk_guard
	ldr	x0, [x0, #:got_lo12:__stack_chk_guard]
	ldr	x2, [sp, 40]
	ldr	x1, [x0]
	subs	x2, x2, x1
	mov	x1, 0
	beq	.L500
	bl	__stack_chk_fail
.L500:
	ldp	x29, x30, [sp], 48
	.cfi_restore 30
	.cfi_restore 29
	.cfi_def_cfa_offset 0
	ret
	.cfi_endproc
.LFE1571:
	.size	_ZN10ImGuiStyleC2Ev, .-_ZN10ImGuiStyleC2Ev
	.global	_ZN10ImGuiStyleC1Ev
	.set	_ZN10ImGuiStyleC1Ev,_ZN10ImGuiStyleC2Ev
	.align	2
	.global	_ZN10ImGuiStyle13ScaleAllSizesEf
	.type	_ZN10ImGuiStyle13ScaleAllSizesEf, %function
_ZN10ImGuiStyle13ScaleAllSizesEf:
.LFB1573:
	.cfi_startproc
	stp	x29, x30, [sp, -64]!
	.cfi_def_cfa_offset 64
	.cfi_offset 29, -64
	.cfi_offset 30, -56
	mov	x29, sp
	str	x19, [sp, 16]
	.cfi_offset 19, -48
	str	x0, [sp, 40]
	str	s0, [sp, 36]
	adrp	x0, :got:__stack_chk_guard
	ldr	x0, [x0, #:got_lo12:__stack_chk_guard]
	ldr	x1, [x0]
	str	x1, [sp, 56]
	mov	x1, 0
	ldr	x0, [sp, 40]
	add	x0, x0, 8
	ldr	s0, [sp, 36]
	bl	_ZmlRK6ImVec2f
	fmov	s2, s0
	fmov	s0, s1
	str	s2, [sp, 48]
	str	s0, [sp, 52]
	ldr	x19, [sp, 40]
	add	x0, sp, 48
	bl	_ZL7ImFloorRK6ImVec2
	fmov	s2, s0
	fmov	s0, s1
	str	s2, [x19, 8]
	str	s0, [x19, 12]
	ldr	x0, [sp, 40]
	ldr	s1, [x0, 16]
	ldr	s0, [sp, 36]
	fmul	s0, s1, s0
	bl	_ZL7ImFloorf
	ldr	x0, [sp, 40]
	str	s0, [x0, 16]
	ldr	x0, [sp, 40]
	add	x0, x0, 24
	ldr	s0, [sp, 36]
	bl	_ZmlRK6ImVec2f
	fmov	s2, s0
	fmov	s0, s1
	str	s2, [sp, 48]
	str	s0, [sp, 52]
	ldr	x19, [sp, 40]
	add	x0, sp, 48
	bl	_ZL7ImFloorRK6ImVec2
	fmov	s2, s0
	fmov	s0, s1
	str	s2, [x19, 24]
	str	s0, [x19, 28]
	ldr	x0, [sp, 40]
	ldr	s1, [x0, 44]
	ldr	s0, [sp, 36]
	fmul	s0, s1, s0
	bl	_ZL7ImFloorf
	ldr	x0, [sp, 40]
	str	s0, [x0, 44]
	ldr	x0, [sp, 40]
	ldr	s1, [x0, 52]
	ldr	s0, [sp, 36]
	fmul	s0, s1, s0
	bl	_ZL7ImFloorf
	ldr	x0, [sp, 40]
	str	s0, [x0, 52]
	ldr	x0, [sp, 40]
	add	x0, x0, 60
	ldr	s0, [sp, 36]
	bl	_ZmlRK6ImVec2f
	fmov	s2, s0
	fmov	s0, s1
	str	s2, [sp, 48]
	str	s0, [sp, 52]
	ldr	x19, [sp, 40]
	add	x0, sp, 48
	bl	_ZL7ImFloorRK6ImVec2
	fmov	s2, s0
	fmov	s0, s1
	str	s2, [x19, 60]
	str	s0, [x19, 64]
	ldr	x0, [sp, 40]
	ldr	s1, [x0, 68]
	ldr	s0, [sp, 36]
	fmul	s0, s1, s0
	bl	_ZL7ImFloorf
	ldr	x0, [sp, 40]
	str	s0, [x0, 68]
	ldr	x0, [sp, 40]
	add	x0, x0, 76
	ldr	s0, [sp, 36]
	bl	_ZmlRK6ImVec2f
	fmov	s2, s0
	fmov	s0, s1
	str	s2, [sp, 48]
	str	s0, [sp, 52]
	ldr	x19, [sp, 40]
	add	x0, sp, 48
	bl	_ZL7ImFloorRK6ImVec2
	fmov	s2, s0
	fmov	s0, s1
	str	s2, [x19, 76]
	str	s0, [x19, 80]
	ldr	x0, [sp, 40]
	add	x0, x0, 84
	ldr	s0, [sp, 36]
	bl	_ZmlRK6ImVec2f
	fmov	s2, s0
	fmov	s0, s1
	str	s2, [sp, 48]
	str	s0, [sp, 52]
	ldr	x19, [sp, 40]
	add	x0, sp, 48
	bl	_ZL7ImFloorRK6ImVec2
	fmov	s2, s0
	fmov	s0, s1
	str	s2, [x19, 84]
	str	s0, [x19, 88]
	ldr	x0, [sp, 40]
	add	x0, x0, 92
	ldr	s0, [sp, 36]
	bl	_ZmlRK6ImVec2f
	fmov	s2, s0
	fmov	s0, s1
	str	s2, [sp, 48]
	str	s0, [sp, 52]
	ldr	x19, [sp, 40]
	add	x0, sp, 48
	bl	_ZL7ImFloorRK6ImVec2
	fmov	s2, s0
	fmov	s0, s1
	str	s2, [x19, 92]
	str	s0, [x19, 96]
	ldr	x0, [sp, 40]
	add	x0, x0, 100
	ldr	s0, [sp, 36]
	bl	_ZmlRK6ImVec2f
	fmov	s2, s0
	fmov	s0, s1
	str	s2, [sp, 48]
	str	s0, [sp, 52]
	ldr	x19, [sp, 40]
	add	x0, sp, 48
	bl	_ZL7ImFloorRK6ImVec2
	fmov	s2, s0
	fmov	s0, s1
	str	s2, [x19, 100]
	str	s0, [x19, 104]
	ldr	x0, [sp, 40]
	ldr	s1, [x0, 108]
	ldr	s0, [sp, 36]
	fmul	s0, s1, s0
	bl	_ZL7ImFloorf
	ldr	x0, [sp, 40]
	str	s0, [x0, 108]
	ldr	x0, [sp, 40]
	ldr	s1, [x0, 112]
	ldr	s0, [sp, 36]
	fmul	s0, s1, s0
	bl	_ZL7ImFloorf
	ldr	x0, [sp, 40]
	str	s0, [x0, 112]
	ldr	x0, [sp, 40]
	ldr	s1, [x0, 116]
	ldr	s0, [sp, 36]
	fmul	s0, s1, s0
	bl	_ZL7ImFloorf
	ldr	x0, [sp, 40]
	str	s0, [x0, 116]
	ldr	x0, [sp, 40]
	ldr	s1, [x0, 120]
	ldr	s0, [sp, 36]
	fmul	s0, s1, s0
	bl	_ZL7ImFloorf
	ldr	x0, [sp, 40]
	str	s0, [x0, 120]
	ldr	x0, [sp, 40]
	ldr	s1, [x0, 124]
	ldr	s0, [sp, 36]
	fmul	s0, s1, s0
	bl	_ZL7ImFloorf
	ldr	x0, [sp, 40]
	str	s0, [x0, 124]
	ldr	x0, [sp, 40]
	ldr	s1, [x0, 128]
	ldr	s0, [sp, 36]
	fmul	s0, s1, s0
	bl	_ZL7ImFloorf
	ldr	x0, [sp, 40]
	str	s0, [x0, 128]
	ldr	x0, [sp, 40]
	ldr	s1, [x0, 132]
	ldr	s0, [sp, 36]
	fmul	s0, s1, s0
	bl	_ZL7ImFloorf
	ldr	x0, [sp, 40]
	str	s0, [x0, 132]
	ldr	x0, [sp, 40]
	ldr	s1, [x0, 136]
	ldr	s0, [sp, 36]
	fmul	s0, s1, s0
	bl	_ZL7ImFloorf
	ldr	x0, [sp, 40]
	str	s0, [x0, 136]
	ldr	x0, [sp, 40]
	ldr	s0, [x0, 144]
	mov	w0, 2139095039
	fmov	s1, w0
	fcmp	s0, s1
	beq	.L502
	ldr	x0, [sp, 40]
	ldr	s1, [x0, 144]
	ldr	s0, [sp, 36]
	fmul	s0, s1, s0
	bl	_ZL7ImFloorf
	b	.L503
.L502:
	mov	w0, 2139095039
	fmov	s0, w0
.L503:
	ldr	x0, [sp, 40]
	str	s0, [x0, 144]
	ldr	x0, [sp, 40]
	add	x0, x0, 168
	ldr	s0, [sp, 36]
	bl	_ZmlRK6ImVec2f
	fmov	s2, s0
	fmov	s0, s1
	str	s2, [sp, 48]
	str	s0, [sp, 52]
	ldr	x19, [sp, 40]
	add	x0, sp, 48
	bl	_ZL7ImFloorRK6ImVec2
	fmov	s2, s0
	fmov	s0, s1
	str	s2, [x19, 168]
	str	s0, [x19, 172]
	ldr	x0, [sp, 40]
	add	x0, x0, 176
	ldr	s0, [sp, 36]
	bl	_ZmlRK6ImVec2f
	fmov	s2, s0
	fmov	s0, s1
	str	s2, [sp, 48]
	str	s0, [sp, 52]
	ldr	x19, [sp, 40]
	add	x0, sp, 48
	bl	_ZL7ImFloorRK6ImVec2
	fmov	s2, s0
	fmov	s0, s1
	str	s2, [x19, 176]
	str	s0, [x19, 180]
	ldr	x0, [sp, 40]
	ldr	s1, [x0, 184]
	ldr	s0, [sp, 36]
	fmul	s0, s1, s0
	bl	_ZL7ImFloorf
	ldr	x0, [sp, 40]
	str	s0, [x0, 184]
	nop
	adrp	x0, :got:__stack_chk_guard
	ldr	x0, [x0, #:got_lo12:__stack_chk_guard]
	ldr	x2, [sp, 56]
	ldr	x1, [x0]
	subs	x2, x2, x1
	mov	x1, 0
	beq	.L504
	bl	__stack_chk_fail
.L504:
	ldr	x19, [sp, 16]
	ldp	x29, x30, [sp], 64
	.cfi_restore 30
	.cfi_restore 29
	.cfi_restore 19
	.cfi_def_cfa_offset 0
	ret
	.cfi_endproc
.LFE1573:
	.size	_ZN10ImGuiStyle13ScaleAllSizesEf, .-_ZN10ImGuiStyle13ScaleAllSizesEf
	.section	.rodata
	.align	3
.LC43:
	.string	"imgui.ini"
	.align	3
.LC44:
	.string	"imgui_log.txt"
	.text
	.align	2
	.global	_ZN7ImGuiIOC2Ev
	.type	_ZN7ImGuiIOC2Ev, %function
_ZN7ImGuiIOC2Ev:
.LFB1575:
	.cfi_startproc
	stp	x29, x30, [sp, -64]!
	.cfi_def_cfa_offset 64
	.cfi_offset 29, -64
	.cfi_offset 30, -56
	mov	x29, sp
	str	x0, [sp, 24]
	adrp	x0, :got:__stack_chk_guard
	ldr	x0, [x0, #:got_lo12:__stack_chk_guard]
	ldr	x1, [x0]
	str	x1, [sp, 56]
	mov	x1, 0
	ldr	x0, [sp, 24]
	add	x0, x0, 8
	bl	_ZN6ImVec2C1Ev
	ldr	x0, [sp, 24]
	add	x0, x0, 104
	bl	_ZN6ImVec2C1Ev
	ldr	x0, [sp, 24]
	add	x0, x0, 240
	bl	_ZN6ImVec2C1Ev
	ldr	x0, [sp, 24]
	add	x0, x0, 3572
	bl	_ZN6ImVec2C1Ev
	ldr	x1, [sp, 24]
	mov	x0, 14040
	add	x0, x1, x0
	bl	_ZN6ImVec2C1Ev
	ldr	x1, [sp, 24]
	mov	x0, 14336
	add	x0, x1, x0
	sub	x0, x0, #288
	stp	xzr, xzr, [x0]
	stp	xzr, xzr, [x0, 16]
	str	xzr, [x0, 32]
	ldr	x1, [sp, 24]
	mov	x0, 14248
	add	x0, x1, x0
	bl	_ZN8ImVectorItEC1Ev
	mov	x2, 14264
	mov	w1, 0
	ldr	x0, [sp, 24]
	bl	memset
	ldr	x0, [sp, 24]
	str	wzr, [x0]
	ldr	x0, [sp, 24]
	str	wzr, [x0, 4]
	add	x0, sp, 48
	fmov	s1, -1.0e+0
	fmov	s0, -1.0e+0
	bl	_ZN6ImVec2C1Eff
	ldr	x0, [sp, 24]
	ldr	x1, [sp, 48]
	str	x1, [x0, 8]
	ldr	x0, [sp, 24]
	mov	w1, 34953
	movk	w1, 0x3c88, lsl 16
	fmov	s0, w1
	str	s0, [x0, 16]
	ldr	x0, [sp, 24]
	fmov	s0, 5.0e+0
	str	s0, [x0, 20]
	ldr	x0, [sp, 24]
	adrp	x1, .LC43
	add	x1, x1, :lo12:.LC43
	str	x1, [x0, 24]
	ldr	x0, [sp, 24]
	adrp	x1, .LC44
	add	x1, x1, :lo12:.LC44
	str	x1, [x0, 32]
	ldr	x0, [sp, 24]
	mov	w1, 39322
	movk	w1, 0x3e99, lsl 16
	fmov	s0, w1
	str	s0, [x0, 40]
	ldr	x0, [sp, 24]
	fmov	s0, 6.0e+0
	str	s0, [x0, 44]
	str	wzr, [sp, 36]
	b	.L506
.L507:
	ldr	x1, [sp, 24]
	ldrsw	x0, [sp, 36]
	add	x0, x0, 60
	lsl	x0, x0, 2
	add	x0, x1, x0
	mov	w1, -1
	str	w1, [x0, 8]
	ldr	w0, [sp, 36]
	add	w0, w0, 1
	str	w0, [sp, 36]
.L506:
	ldr	w0, [sp, 36]
	cmp	w0, 651
	ble	.L507
	ldr	x0, [sp, 24]
	mov	w1, 52429
	movk	w1, 0x3e8c, lsl 16
	fmov	s0, w1
	str	s0, [x0, 52]
	ldr	x0, [sp, 24]
	mov	w1, 52429
	movk	w1, 0x3d4c, lsl 16
	fmov	s0, w1
	str	s0, [x0, 56]
	ldr	x0, [sp, 24]
	mov	w1, 39322
	movk	w1, 0x3e99, lsl 16
	fmov	s0, w1
	str	s0, [x0, 60]
	ldr	x0, [sp, 24]
	mov	w1, 52429
	movk	w1, 0x3dcc, lsl 16
	fmov	s0, w1
	str	s0, [x0, 64]
	ldr	x0, [sp, 24]
	str	xzr, [x0, 72]
	ldr	x0, [sp, 24]
	str	xzr, [x0, 80]
	ldr	x0, [sp, 24]
	fmov	s0, 1.0e+0
	str	s0, [x0, 88]
	ldr	x0, [sp, 24]
	str	xzr, [x0, 96]
	ldr	x0, [sp, 24]
	strb	wzr, [x0, 92]
	add	x0, sp, 48
	fmov	s1, 1.0e+0
	fmov	s0, 1.0e+0
	bl	_ZN6ImVec2C1Eff
	ldr	x0, [sp, 24]
	ldr	x1, [sp, 48]
	str	x1, [x0, 104]
	ldr	x0, [sp, 24]
	strb	wzr, [x0, 112]
	ldr	x0, [sp, 24]
	strb	wzr, [x0, 113]
	ldr	x0, [sp, 24]
	mov	w1, 1
	strb	w1, [x0, 114]
	ldr	x0, [sp, 24]
	mov	w1, 1
	strb	w1, [x0, 115]
	ldr	x0, [sp, 24]
	strb	wzr, [x0, 116]
	ldr	x0, [sp, 24]
	strb	wzr, [x0, 117]
	ldr	x0, [sp, 24]
	mov	w1, 1
	strb	w1, [x0, 118]
	ldr	x0, [sp, 24]
	strb	wzr, [x0, 119]
	ldr	x0, [sp, 24]
	mov	w1, 1114636288
	fmov	s0, w1
	str	s0, [x0, 120]
	ldr	x0, [sp, 24]
	str	xzr, [x0, 136]
	ldr	x0, [sp, 24]
	ldr	x1, [x0, 136]
	ldr	x0, [sp, 24]
	str	x1, [x0, 128]
	ldr	x0, [sp, 24]
	str	xzr, [x0, 160]
	ldr	x0, [sp, 24]
	ldr	x1, [x0, 160]
	ldr	x0, [sp, 24]
	str	x1, [x0, 152]
	ldr	x0, [sp, 24]
	ldr	x1, [x0, 152]
	ldr	x0, [sp, 24]
	str	x1, [x0, 144]
	ldr	x0, [sp, 24]
	adrp	x1, _ZL30GetClipboardTextFn_DefaultImplPv
	add	x1, x1, :lo12:_ZL30GetClipboardTextFn_DefaultImplPv
	str	x1, [x0, 168]
	ldr	x0, [sp, 24]
	adrp	x1, _ZL30SetClipboardTextFn_DefaultImplPvPKc
	add	x1, x1, :lo12:_ZL30SetClipboardTextFn_DefaultImplPvPKc
	str	x1, [x0, 176]
	ldr	x0, [sp, 24]
	str	xzr, [x0, 184]
	ldr	x0, [sp, 24]
	adrp	x1, _ZL32SetPlatformImeDataFn_DefaultImplP13ImGuiViewportP20ImGuiPlatformImeData
	add	x1, x1, :lo12:_ZL32SetPlatformImeDataFn_DefaultImplP13ImGuiViewportP20ImGuiPlatformImeData
	str	x1, [x0, 192]
	add	x0, sp, 48
	mvni	v1.2s, 0x80, lsl 16
	mvni	v0.2s, 0x80, lsl 16
	bl	_ZN6ImVec2C1Eff
	ldr	x0, [sp, 24]
	add	x0, x0, 3584
	ldr	x1, [sp, 48]
	str	x1, [x0, -12]
	add	x0, sp, 48
	mvni	v1.2s, 0x80, lsl 16
	mvni	v0.2s, 0x80, lsl 16
	bl	_ZN6ImVec2C1Eff
	ldr	x0, [sp, 24]
	ldr	x1, [sp, 48]
	str	x1, [x0, 14040]
	ldr	x0, [sp, 24]
	fmov	s0, 6.0e+0
	str	s0, [x0, 48]
	str	wzr, [sp, 40]
	b	.L508
.L509:
	ldr	x1, [sp, 24]
	ldrsw	x0, [sp, 40]
	add	x0, x0, 3548
	lsl	x0, x0, 2
	add	x0, x1, x0
	fmov	s0, -1.0e+0
	str	s0, [x0, 4]
	ldr	x1, [sp, 24]
	ldrsw	x0, [sp, 40]
	add	x0, x0, 3548
	lsl	x0, x0, 2
	add	x0, x1, x0
	ldr	s0, [x0, 4]
	ldr	x0, [sp, 24]
	ldrsw	x1, [sp, 40]
	add	x1, x1, 3544
	str	s0, [x0, x1, lsl 2]
	ldr	w0, [sp, 40]
	add	w0, w0, 1
	str	w0, [sp, 40]
.L508:
	ldr	w0, [sp, 40]
	cmp	w0, 4
	ble	.L509
	str	wzr, [sp, 44]
	b	.L510
.L511:
	ldr	x1, [sp, 24]
	ldrsw	x0, [sp, 44]
	add	x0, x0, 225
	lsl	x0, x0, 4
	add	x0, x1, x0
	fmov	s0, -1.0e+0
	str	s0, [x0, 12]
	ldr	x1, [sp, 24]
	ldrsw	x0, [sp, 44]
	add	x0, x0, 225
	lsl	x0, x0, 4
	add	x0, x1, x0
	ldr	s0, [x0, 12]
	ldr	x1, [sp, 24]
	ldrsw	x0, [sp, 44]
	add	x0, x0, 225
	lsl	x0, x0, 4
	add	x0, x1, x0
	str	s0, [x0, 8]
	ldr	w0, [sp, 44]
	add	w0, w0, 1
	str	w0, [sp, 44]
.L510:
	ldr	w0, [sp, 44]
	cmp	w0, 651
	ble	.L511
	ldr	x0, [sp, 24]
	add	x0, x0, 12288
	mov	w1, 1
	strb	w1, [x0, 1953]
	ldr	x0, [sp, 24]
	add	x0, x0, 12288
	mov	w1, -1
	strb	w1, [x0, 1954]
	ldr	x0, [sp, 24]
	add	x0, x0, 12288
	mov	w1, 1
	strb	w1, [x0, 1955]
	nop
	adrp	x0, :got:__stack_chk_guard
	ldr	x0, [x0, #:got_lo12:__stack_chk_guard]
	ldr	x2, [sp, 56]
	ldr	x1, [x0]
	subs	x2, x2, x1
	mov	x1, 0
	beq	.L512
	bl	__stack_chk_fail
.L512:
	ldp	x29, x30, [sp], 64
	.cfi_restore 30
	.cfi_restore 29
	.cfi_def_cfa_offset 0
	ret
	.cfi_endproc
.LFE1575:
	.size	_ZN7ImGuiIOC2Ev, .-_ZN7ImGuiIOC2Ev
	.global	_ZN7ImGuiIOC1Ev
	.set	_ZN7ImGuiIOC1Ev,_ZN7ImGuiIOC2Ev
	.section	.rodata
	.align	3
.LC45:
	.string	"void ImGuiIO::AddInputCharacter(unsigned int)"
	.align	3
.LC46:
	.string	"/media/psf/Home/Desktop/git/C-/mac/myproject/external/imgui/src/imgui.cpp"
	.align	3
.LC47:
	.string	"&g.IO == this && \"Can only add events to current context.\""
	.text
	.align	2
	.global	_ZN7ImGuiIO17AddInputCharacterEj
	.type	_ZN7ImGuiIO17AddInputCharacterEj, %function
_ZN7ImGuiIO17AddInputCharacterEj:
.LFB1577:
	.cfi_startproc
	stp	x29, x30, [sp, -80]!
	.cfi_def_cfa_offset 80
	.cfi_offset 29, -80
	.cfi_offset 30, -72
	mov	x29, sp
	str	x0, [sp, 24]
	str	w1, [sp, 20]
	adrp	x0, :got:__stack_chk_guard
	ldr	x0, [x0, #:got_lo12:__stack_chk_guard]
	ldr	x1, [x0]
	str	x1, [sp, 72]
	mov	x1, 0
	adrp	x0, GImGui
	add	x0, x0, :lo12:GImGui
	ldr	x0, [x0]
	str	x0, [sp, 40]
	ldr	x0, [sp, 40]
	add	x0, x0, 8
	ldr	x1, [sp, 24]
	cmp	x1, x0
	beq	.L514
	adrp	x0, .LC45
	add	x3, x0, :lo12:.LC45
	mov	w2, 1227
	adrp	x0, .LC46
	add	x1, x0, :lo12:.LC46
	adrp	x0, .LC47
	add	x0, x0, :lo12:.LC47
	bl	__assert_fail
.L514:
	ldr	w0, [sp, 20]
	cmp	w0, 0
	beq	.L519
	ldr	x0, [sp, 24]
	add	x0, x0, 12288
	ldrb	w0, [x0, 1953]
	eor	w0, w0, 1
	and	w0, w0, 255
	cmp	w0, 0
	bne	.L519
	add	x0, sp, 48
	bl	_ZN15ImGuiInputEventC1Ev
	mov	w0, 5
	str	w0, [sp, 48]
	mov	w0, 2
	str	w0, [sp, 52]
	ldr	w0, [sp, 20]
	str	w0, [sp, 56]
	ldr	x1, [sp, 40]
	mov	x0, 14272
	add	x0, x1, x0
	add	x1, sp, 48
	bl	_ZN8ImVectorI15ImGuiInputEventE9push_backERKS0_
	b	.L513
.L519:
	nop
.L513:
	adrp	x0, :got:__stack_chk_guard
	ldr	x0, [x0, #:got_lo12:__stack_chk_guard]
	ldr	x2, [sp, 72]
	ldr	x1, [x0]
	subs	x2, x2, x1
	mov	x1, 0
	beq	.L518
	bl	__stack_chk_fail
.L518:
	ldp	x29, x30, [sp], 80
	.cfi_restore 30
	.cfi_restore 29
	.cfi_def_cfa_offset 0
	ret
	.cfi_endproc
.LFE1577:
	.size	_ZN7ImGuiIO17AddInputCharacterEj, .-_ZN7ImGuiIO17AddInputCharacterEj
	.align	2
	.global	_ZN7ImGuiIO22AddInputCharacterUTF16Et
	.type	_ZN7ImGuiIO22AddInputCharacterUTF16Et, %function
_ZN7ImGuiIO22AddInputCharacterUTF16Et:
.LFB1578:
	.cfi_startproc
	stp	x29, x30, [sp, -48]!
	.cfi_def_cfa_offset 48
	.cfi_offset 29, -48
	.cfi_offset 30, -40
	mov	x29, sp
	str	x0, [sp, 24]
	strh	w1, [sp, 22]
	ldrh	w0, [sp, 22]
	cmp	w0, 0
	bne	.L521
	ldr	x0, [sp, 24]
	add	x0, x0, 8192
	ldrh	w0, [x0, 6052]
	cmp	w0, 0
	beq	.L530
.L521:
	ldr	x0, [sp, 24]
	add	x0, x0, 12288
	ldrb	w0, [x0, 1953]
	eor	w0, w0, 1
	and	w0, w0, 255
	cmp	w0, 0
	bne	.L530
	ldrh	w0, [sp, 22]
	and	w1, w0, 64512
	mov	w0, 55296
	cmp	w1, w0
	bne	.L525
	ldr	x0, [sp, 24]
	add	x0, x0, 8192
	ldrh	w0, [x0, 6052]
	cmp	w0, 0
	beq	.L526
	mov	w1, 65533
	ldr	x0, [sp, 24]
	bl	_ZN7ImGuiIO17AddInputCharacterEj
.L526:
	ldr	x0, [sp, 24]
	add	x0, x0, 8192
	ldrh	w1, [sp, 22]
	strh	w1, [x0, 6052]
	b	.L520
.L525:
	ldrh	w0, [sp, 22]
	strh	w0, [sp, 46]
	ldr	x0, [sp, 24]
	add	x0, x0, 8192
	ldrh	w0, [x0, 6052]
	cmp	w0, 0
	beq	.L527
	ldrh	w0, [sp, 22]
	and	w1, w0, 64512
	mov	w0, 56320
	cmp	w1, w0
	beq	.L528
	mov	w1, 65533
	ldr	x0, [sp, 24]
	bl	_ZN7ImGuiIO17AddInputCharacterEj
	b	.L529
.L528:
	mov	w0, -3
	strh	w0, [sp, 46]
.L529:
	ldr	x0, [sp, 24]
	add	x0, x0, 8192
	strh	wzr, [x0, 6052]
.L527:
	ldrh	w0, [sp, 46]
	mov	w1, w0
	ldr	x0, [sp, 24]
	bl	_ZN7ImGuiIO17AddInputCharacterEj
	b	.L520
.L530:
	nop
.L520:
	ldp	x29, x30, [sp], 48
	.cfi_restore 30
	.cfi_restore 29
	.cfi_def_cfa_offset 0
	ret
	.cfi_endproc
.LFE1578:
	.size	_ZN7ImGuiIO22AddInputCharacterUTF16Et, .-_ZN7ImGuiIO22AddInputCharacterUTF16Et
	.align	2
	.global	_ZN7ImGuiIO22AddInputCharactersUTF8EPKc
	.type	_ZN7ImGuiIO22AddInputCharactersUTF8EPKc, %function
_ZN7ImGuiIO22AddInputCharactersUTF8EPKc:
.LFB1579:
	.cfi_startproc
	stp	x29, x30, [sp, -48]!
	.cfi_def_cfa_offset 48
	.cfi_offset 29, -48
	.cfi_offset 30, -40
	mov	x29, sp
	str	x0, [sp, 24]
	str	x1, [sp, 16]
	adrp	x0, :got:__stack_chk_guard
	ldr	x0, [x0, #:got_lo12:__stack_chk_guard]
	ldr	x1, [x0]
	str	x1, [sp, 40]
	mov	x1, 0
	ldr	x0, [sp, 24]
	add	x0, x0, 12288
	ldrb	w0, [x0, 1953]
	eor	w0, w0, 1
	and	w0, w0, 255
	cmp	w0, 0
	bne	.L538
	b	.L534
.L536:
	str	wzr, [sp, 36]
	add	x0, sp, 36
	mov	x2, 0
	ldr	x1, [sp, 16]
	bl	_Z18ImTextCharFromUtf8PjPKcS1_
	sxtw	x0, w0
	ldr	x1, [sp, 16]
	add	x0, x1, x0
	str	x0, [sp, 16]
	ldr	w0, [sp, 36]
	cmp	w0, 0
	beq	.L534
	ldr	w0, [sp, 36]
	mov	w1, w0
	ldr	x0, [sp, 24]
	bl	_ZN7ImGuiIO17AddInputCharacterEj
.L534:
	ldr	x0, [sp, 16]
	ldrb	w0, [x0]
	cmp	w0, 0
	bne	.L536
	b	.L531
.L538:
	nop
.L531:
	adrp	x0, :got:__stack_chk_guard
	ldr	x0, [x0, #:got_lo12:__stack_chk_guard]
	ldr	x2, [sp, 40]
	ldr	x1, [x0]
	subs	x2, x2, x1
	mov	x1, 0
	beq	.L537
	bl	__stack_chk_fail
.L537:
	ldp	x29, x30, [sp], 48
	.cfi_restore 30
	.cfi_restore 29
	.cfi_def_cfa_offset 0
	ret
	.cfi_endproc
.LFE1579:
	.size	_ZN7ImGuiIO22AddInputCharactersUTF8EPKc, .-_ZN7ImGuiIO22AddInputCharactersUTF8EPKc
	.align	2
	.global	_ZN7ImGuiIO20ClearInputCharactersEv
	.type	_ZN7ImGuiIO20ClearInputCharactersEv, %function
_ZN7ImGuiIO20ClearInputCharactersEv:
.LFB1580:
	.cfi_startproc
	stp	x29, x30, [sp, -32]!
	.cfi_def_cfa_offset 32
	.cfi_offset 29, -32
	.cfi_offset 30, -24
	mov	x29, sp
	str	x0, [sp, 24]
	ldr	x1, [sp, 24]
	mov	x0, 14248
	add	x0, x1, x0
	mov	w1, 0
	bl	_ZN8ImVectorItE6resizeEi
	nop
	ldp	x29, x30, [sp], 32
	.cfi_restore 30
	.cfi_restore 29
	.cfi_def_cfa_offset 0
	ret
	.cfi_endproc
.LFE1580:
	.size	_ZN7ImGuiIO20ClearInputCharactersEv, .-_ZN7ImGuiIO20ClearInputCharactersEv
	.align	2
	.global	_ZN7ImGuiIO14ClearInputKeysEv
	.type	_ZN7ImGuiIO14ClearInputKeysEv, %function
_ZN7ImGuiIO14ClearInputKeysEv:
.LFB1581:
	.cfi_startproc
	stp	x29, x30, [sp, -64]!
	.cfi_def_cfa_offset 64
	.cfi_offset 29, -64
	.cfi_offset 30, -56
	mov	x29, sp
	str	x0, [sp, 24]
	adrp	x0, :got:__stack_chk_guard
	ldr	x0, [x0, #:got_lo12:__stack_chk_guard]
	ldr	x1, [x0]
	str	x1, [sp, 56]
	mov	x1, 0
	ldr	x0, [sp, 24]
	add	x0, x0, 2856
	mov	x2, 652
	mov	w1, 0
	bl	memset
	str	wzr, [sp, 40]
	b	.L541
.L542:
	ldr	x1, [sp, 24]
	ldrsw	x0, [sp, 40]
	add	x0, x0, 225
	lsl	x0, x0, 4
	add	x0, x1, x0
	strb	wzr, [x0, 4]
	ldr	x1, [sp, 24]
	ldrsw	x0, [sp, 40]
	add	x0, x0, 225
	lsl	x0, x0, 4
	add	x0, x1, x0
	fmov	s0, -1.0e+0
	str	s0, [x0, 8]
	ldr	x1, [sp, 24]
	ldrsw	x0, [sp, 40]
	add	x0, x0, 225
	lsl	x0, x0, 4
	add	x0, x1, x0
	fmov	s0, -1.0e+0
	str	s0, [x0, 12]
	ldr	w0, [sp, 40]
	add	w0, w0, 1
	str	w0, [sp, 40]
.L541:
	ldr	w0, [sp, 40]
	cmp	w0, 651
	ble	.L542
	ldr	x0, [sp, 24]
	strb	wzr, [x0, 3599]
	ldr	x0, [sp, 24]
	ldrb	w1, [x0, 3599]
	ldr	x0, [sp, 24]
	strb	w1, [x0, 3598]
	ldr	x0, [sp, 24]
	ldrb	w1, [x0, 3598]
	ldr	x0, [sp, 24]
	strb	w1, [x0, 3597]
	ldr	x0, [sp, 24]
	ldrb	w1, [x0, 3597]
	ldr	x0, [sp, 24]
	strb	w1, [x0, 3596]
	ldr	x0, [sp, 24]
	str	wzr, [x0, 3600]
	add	x0, sp, 48
	mvni	v1.2s, 0x80, lsl 16
	mvni	v0.2s, 0x80, lsl 16
	bl	_ZN6ImVec2C1Eff
	ldr	x0, [sp, 24]
	add	x0, x0, 3584
	ldr	x1, [sp, 48]
	str	x1, [x0, -12]
	str	wzr, [sp, 44]
	b	.L543
.L544:
	ldr	x1, [sp, 24]
	ldrsw	x0, [sp, 44]
	add	x0, x1, x0
	strb	wzr, [x0, 3580]
	ldr	x1, [sp, 24]
	ldrsw	x0, [sp, 44]
	add	x0, x0, 3548
	lsl	x0, x0, 2
	add	x0, x1, x0
	fmov	s0, -1.0e+0
	str	s0, [x0, 4]
	ldr	x1, [sp, 24]
	ldrsw	x0, [sp, 44]
	add	x0, x0, 3548
	lsl	x0, x0, 2
	add	x0, x1, x0
	ldr	s0, [x0, 4]
	ldr	x0, [sp, 24]
	ldrsw	x1, [sp, 44]
	add	x1, x1, 3544
	str	s0, [x0, x1, lsl 2]
	ldr	w0, [sp, 44]
	add	w0, w0, 1
	str	w0, [sp, 44]
.L543:
	ldr	w0, [sp, 44]
	cmp	w0, 4
	ble	.L544
	ldr	x0, [sp, 24]
	str	wzr, [x0, 3592]
	ldr	x0, [sp, 24]
	ldr	s0, [x0, 3592]
	ldr	x0, [sp, 24]
	str	s0, [x0, 3588]
	nop
	adrp	x0, :got:__stack_chk_guard
	ldr	x0, [x0, #:got_lo12:__stack_chk_guard]
	ldr	x2, [sp, 56]
	ldr	x1, [x0]
	subs	x2, x2, x1
	mov	x1, 0
	beq	.L545
	bl	__stack_chk_fail
.L545:
	ldp	x29, x30, [sp], 64
	.cfi_restore 30
	.cfi_restore 29
	.cfi_def_cfa_offset 0
	ret
	.cfi_endproc
.LFE1581:
	.size	_ZN7ImGuiIO14ClearInputKeysEv, .-_ZN7ImGuiIO14ClearInputKeysEv
	.align	2
	.type	_ZL20FindLatestInputEvent19ImGuiInputEventTypei, %function
_ZL20FindLatestInputEvent19ImGuiInputEventTypei:
.LFB1582:
	.cfi_startproc
	stp	x29, x30, [sp, -64]!
	.cfi_def_cfa_offset 64
	.cfi_offset 29, -64
	.cfi_offset 30, -56
	mov	x29, sp
	str	w0, [sp, 28]
	str	w1, [sp, 24]
	adrp	x0, GImGui
	add	x0, x0, :lo12:GImGui
	ldr	x0, [x0]
	str	x0, [sp, 48]
	ldr	x0, [sp, 48]
	ldr	w0, [x0, 14272]
	sub	w0, w0, #1
	str	w0, [sp, 44]
	b	.L547
.L553:
	ldr	x1, [sp, 48]
	mov	x0, 14272
	add	x0, x1, x0
	ldr	w1, [sp, 44]
	bl	_ZN8ImVectorI15ImGuiInputEventEixEi
	str	x0, [sp, 56]
	ldr	x0, [sp, 56]
	ldr	w0, [x0]
	ldr	w1, [sp, 28]
	cmp	w1, w0
	bne	.L554
	ldr	w0, [sp, 28]
	cmp	w0, 4
	bne	.L550
	ldr	x0, [sp, 56]
	ldr	w0, [x0, 8]
	ldr	w1, [sp, 24]
	cmp	w1, w0
	bne	.L555
.L550:
	ldr	w0, [sp, 28]
	cmp	w0, 3
	bne	.L551
	ldr	x0, [sp, 56]
	ldr	w0, [x0, 8]
	ldr	w1, [sp, 24]
	cmp	w1, w0
	bne	.L556
.L551:
	ldr	x0, [sp, 56]
	b	.L552
.L554:
	nop
	b	.L549
.L555:
	nop
	b	.L549
.L556:
	nop
.L549:
	ldr	w0, [sp, 44]
	sub	w0, w0, #1
	str	w0, [sp, 44]
.L547:
	ldr	w0, [sp, 44]
	cmp	w0, 0
	bge	.L553
	mov	x0, 0
.L552:
	ldp	x29, x30, [sp], 64
	.cfi_restore 30
	.cfi_restore 29
	.cfi_def_cfa_offset 0
	ret
	.cfi_endproc
.LFE1582:
	.size	_ZL20FindLatestInputEvent19ImGuiInputEventTypei, .-_ZL20FindLatestInputEvent19ImGuiInputEventTypei
	.section	.rodata
	.align	3
.LC48:
	.string	"void ImGuiIO::AddKeyAnalogEvent(ImGuiKey, bool, float)"
	.align	3
.LC49:
	.string	"ImGui::IsNamedKeyOrModKey(key)"
	.align	3
.LC50:
	.string	"!ImGui::IsAliasKey(key)"
	.align	3
.LC51:
	.string	"(BackendUsingLegacyKeyArrays == -1 || BackendUsingLegacyKeyArrays == 0) && \"Backend needs to either only use io.AddKeyEvent(), either only fill legacy io.KeysDown[] + io.KeyMap[]. Not both!\""
	.align	3
.LC52:
	.string	"KeyMap[n] == -1 && \"Backend needs to either only use io.AddKeyEvent(), either only fill legacy io.KeysDown[] + io.KeyMap[]. Not both!\""
	.text
	.align	2
	.global	_ZN7ImGuiIO17AddKeyAnalogEventE8ImGuiKeybf
	.type	_ZN7ImGuiIO17AddKeyAnalogEventE8ImGuiKeybf, %function
_ZN7ImGuiIO17AddKeyAnalogEventE8ImGuiKeybf:
.LFB1583:
	.cfi_startproc
	stp	x29, x30, [sp, -128]!
	.cfi_def_cfa_offset 128
	.cfi_offset 29, -128
	.cfi_offset 30, -120
	mov	x29, sp
	str	x0, [sp, 40]
	str	w1, [sp, 36]
	strb	w2, [sp, 35]
	str	s0, [sp, 28]
	adrp	x0, :got:__stack_chk_guard
	ldr	x0, [x0, #:got_lo12:__stack_chk_guard]
	ldr	x1, [x0]
	str	x1, [sp, 120]
	mov	x1, 0
	ldr	w0, [sp, 36]
	cmp	w0, 0
	beq	.L579
	ldr	x0, [sp, 40]
	add	x0, x0, 12288
	ldrb	w0, [x0, 1953]
	eor	w0, w0, 1
	and	w0, w0, 255
	cmp	w0, 0
	bne	.L579
	adrp	x0, GImGui
	add	x0, x0, :lo12:GImGui
	ldr	x0, [x0]
	str	x0, [sp, 72]
	ldr	x0, [sp, 72]
	add	x0, x0, 8
	ldr	x1, [sp, 40]
	cmp	x1, x0
	beq	.L561
	adrp	x0, .LC48
	add	x3, x0, :lo12:.LC48
	mov	w2, 1343
	adrp	x0, .LC46
	add	x1, x0, :lo12:.LC46
	adrp	x0, .LC47
	add	x0, x0, :lo12:.LC47
	bl	__assert_fail
.L561:
	ldr	w0, [sp, 36]
	bl	_ZN5ImGui18IsNamedKeyOrModKeyE8ImGuiKey
	and	w0, w0, 255
	cmp	w0, 0
	bne	.L562
	adrp	x0, .LC48
	add	x3, x0, :lo12:.LC48
	mov	w2, 1344
	adrp	x0, .LC46
	add	x1, x0, :lo12:.LC46
	adrp	x0, .LC49
	add	x0, x0, :lo12:.LC49
	bl	__assert_fail
.L562:
	ldr	w0, [sp, 36]
	bl	_ZN5ImGui10IsAliasKeyE8ImGuiKey
	and	w0, w0, 255
	eor	w0, w0, 1
	and	w0, w0, 255
	cmp	w0, 0
	bne	.L563
	adrp	x0, .LC48
	add	x3, x0, :lo12:.LC48
	mov	w2, 1345
	adrp	x0, .LC46
	add	x1, x0, :lo12:.LC46
	adrp	x0, .LC50
	add	x0, x0, :lo12:.LC50
	bl	__assert_fail
.L563:
	ldr	x0, [sp, 40]
	add	x0, x0, 12288
	ldrsb	w0, [x0, 1954]
	cmn	w0, #1
	beq	.L564
	ldr	x0, [sp, 40]
	add	x0, x0, 12288
	ldrsb	w0, [x0, 1954]
	cmp	w0, 0
	beq	.L564
	adrp	x0, .LC48
	add	x3, x0, :lo12:.LC48
	mov	w2, 1349
	adrp	x0, .LC46
	add	x1, x0, :lo12:.LC46
	adrp	x0, .LC51
	add	x0, x0, :lo12:.LC51
	bl	__assert_fail
.L564:
	ldr	x0, [sp, 40]
	add	x0, x0, 12288
	ldrsb	w0, [x0, 1954]
	cmn	w0, #1
	bne	.L565
	mov	w0, 512
	str	w0, [sp, 64]
	b	.L566
.L568:
	ldr	x1, [sp, 40]
	ldrsw	x0, [sp, 64]
	add	x0, x0, 60
	lsl	x0, x0, 2
	add	x0, x1, x0
	ldr	w0, [x0, 8]
	cmn	w0, #1
	beq	.L567
	adrp	x0, .LC48
	add	x3, x0, :lo12:.LC48
	mov	w2, 1352
	adrp	x0, .LC46
	add	x1, x0, :lo12:.LC46
	adrp	x0, .LC52
	add	x0, x0, :lo12:.LC52
	bl	__assert_fail
.L567:
	ldr	w0, [sp, 64]
	add	w0, w0, 1
	str	w0, [sp, 64]
.L566:
	ldr	w0, [sp, 64]
	cmp	w0, 651
	ble	.L568
.L565:
	ldr	x0, [sp, 40]
	add	x0, x0, 12288
	strb	wzr, [x0, 1954]
	ldr	w0, [sp, 36]
	bl	_ZN5ImGui12IsGamepadKeyE8ImGuiKey
	and	w0, w0, 255
	cmp	w0, 0
	beq	.L569
	ldr	x0, [sp, 40]
	add	x0, x0, 12288
	strb	wzr, [x0, 1955]
.L569:
	ldr	w1, [sp, 36]
	mov	w0, 4
	bl	_ZL20FindLatestInputEvent19ImGuiInputEventTypei
	str	x0, [sp, 80]
	ldr	w0, [sp, 36]
	bl	_ZN5ImGui10GetKeyDataE8ImGuiKey
	str	x0, [sp, 88]
	ldr	x0, [sp, 80]
	cmp	x0, 0
	beq	.L570
	ldr	x0, [sp, 80]
	ldrb	w0, [x0, 12]
	cmp	w0, 0
	cset	w0, ne
	and	w0, w0, 255
	b	.L571
.L570:
	ldr	x0, [sp, 88]
	ldrb	w0, [x0]
	cmp	w0, 0
	cset	w0, ne
	and	w0, w0, 255
.L571:
	strb	w0, [sp, 63]
	ldr	x0, [sp, 80]
	cmp	x0, 0
	beq	.L572
	ldr	x0, [sp, 80]
	ldr	s0, [x0, 16]
	b	.L573
.L572:
	ldr	x0, [sp, 88]
	ldr	s0, [x0, 12]
.L573:
	str	s0, [sp, 68]
	ldrb	w1, [sp, 63]
	ldrb	w0, [sp, 35]
	cmp	w1, w0
	bne	.L574
	ldr	s1, [sp, 68]
	ldr	s0, [sp, 28]
	fcmp	s1, s0
	beq	.L580
.L574:
	add	x0, sp, 96
	bl	_ZN15ImGuiInputEventC1Ev
	mov	w0, 4
	str	w0, [sp, 96]
	ldr	w0, [sp, 36]
	bl	_ZN5ImGui12IsGamepadKeyE8ImGuiKey
	and	w0, w0, 255
	cmp	w0, 0
	beq	.L575
	mov	w0, 3
	b	.L576
.L575:
	mov	w0, 2
.L576:
	str	w0, [sp, 100]
	ldr	w0, [sp, 36]
	str	w0, [sp, 104]
	ldrb	w0, [sp, 35]
	strb	w0, [sp, 108]
	ldr	s0, [sp, 28]
	str	s0, [sp, 112]
	ldr	x1, [sp, 72]
	mov	x0, 14272
	add	x0, x1, x0
	add	x1, sp, 96
	bl	_ZN8ImVectorI15ImGuiInputEventE9push_backERKS0_
	b	.L557
.L579:
	nop
	b	.L557
.L580:
	nop
.L557:
	adrp	x0, :got:__stack_chk_guard
	ldr	x0, [x0, #:got_lo12:__stack_chk_guard]
	ldr	x2, [sp, 120]
	ldr	x1, [x0]
	subs	x2, x2, x1
	mov	x1, 0
	beq	.L578
	bl	__stack_chk_fail
.L578:
	ldp	x29, x30, [sp], 128
	.cfi_restore 30
	.cfi_restore 29
	.cfi_def_cfa_offset 0
	ret
	.cfi_endproc
.LFE1583:
	.size	_ZN7ImGuiIO17AddKeyAnalogEventE8ImGuiKeybf, .-_ZN7ImGuiIO17AddKeyAnalogEventE8ImGuiKeybf
	.align	2
	.global	_ZN7ImGuiIO11AddKeyEventE8ImGuiKeyb
	.type	_ZN7ImGuiIO11AddKeyEventE8ImGuiKeyb, %function
_ZN7ImGuiIO11AddKeyEventE8ImGuiKeyb:
.LFB1584:
	.cfi_startproc
	stp	x29, x30, [sp, -32]!
	.cfi_def_cfa_offset 32
	.cfi_offset 29, -32
	.cfi_offset 30, -24
	mov	x29, sp
	str	x0, [sp, 24]
	str	w1, [sp, 20]
	strb	w2, [sp, 19]
	ldr	x0, [sp, 24]
	add	x0, x0, 12288
	ldrb	w0, [x0, 1953]
	eor	w0, w0, 1
	and	w0, w0, 255
	cmp	w0, 0
	bne	.L586
	ldrb	w0, [sp, 19]
	cmp	w0, 0
	beq	.L584
	fmov	s0, 1.0e+0
	b	.L585
.L584:
	movi	v0.2s, #0
.L585:
	ldrb	w2, [sp, 19]
	ldr	w1, [sp, 20]
	ldr	x0, [sp, 24]
	bl	_ZN7ImGuiIO17AddKeyAnalogEventE8ImGuiKeybf
	b	.L581
.L586:
	nop
.L581:
	ldp	x29, x30, [sp], 32
	.cfi_restore 30
	.cfi_restore 29
	.cfi_def_cfa_offset 0
	ret
	.cfi_endproc
.LFE1584:
	.size	_ZN7ImGuiIO11AddKeyEventE8ImGuiKeyb, .-_ZN7ImGuiIO11AddKeyEventE8ImGuiKeyb
	.section	.rodata
	.align	3
.LC53:
	.string	"void ImGuiIO::SetKeyEventNativeData(ImGuiKey, int, int, int)"
	.align	3
.LC54:
	.string	"ImGui::IsNamedKey(key)"
	.align	3
.LC55:
	.string	"native_legacy_index == -1 || ImGui::IsLegacyKey((ImGuiKey)native_legacy_index)"
	.text
	.align	2
	.global	_ZN7ImGuiIO21SetKeyEventNativeDataE8ImGuiKeyiii
	.type	_ZN7ImGuiIO21SetKeyEventNativeDataE8ImGuiKeyiii, %function
_ZN7ImGuiIO21SetKeyEventNativeDataE8ImGuiKeyiii:
.LFB1585:
	.cfi_startproc
	stp	x29, x30, [sp, -64]!
	.cfi_def_cfa_offset 64
	.cfi_offset 29, -64
	.cfi_offset 30, -56
	mov	x29, sp
	str	x0, [sp, 40]
	str	w1, [sp, 36]
	str	w2, [sp, 32]
	str	w3, [sp, 28]
	str	w4, [sp, 24]
	ldr	w0, [sp, 36]
	cmp	w0, 0
	beq	.L595
	ldr	w0, [sp, 36]
	bl	_ZN5ImGui10IsNamedKeyE8ImGuiKey
	and	w0, w0, 255
	cmp	w0, 0
	bne	.L590
	adrp	x0, .LC53
	add	x3, x0, :lo12:.LC53
	mov	w2, 1390
	adrp	x0, .LC46
	add	x1, x0, :lo12:.LC46
	adrp	x0, .LC54
	add	x0, x0, :lo12:.LC54
	bl	__assert_fail
.L590:
	ldr	w0, [sp, 24]
	cmn	w0, #1
	beq	.L591
	ldr	w0, [sp, 24]
	bl	_ZN5ImGui11IsLegacyKeyE8ImGuiKey
	and	w0, w0, 255
	cmp	w0, 0
	bne	.L591
	adrp	x0, .LC53
	add	x3, x0, :lo12:.LC53
	mov	w2, 1391
	adrp	x0, .LC46
	add	x1, x0, :lo12:.LC46
	adrp	x0, .LC55
	add	x0, x0, :lo12:.LC55
	bl	__assert_fail
.L591:
	ldr	w0, [sp, 24]
	cmn	w0, #1
	beq	.L592
	ldr	w0, [sp, 24]
	b	.L593
.L592:
	ldr	w0, [sp, 32]
.L593:
	str	w0, [sp, 60]
	ldr	w0, [sp, 60]
	bl	_ZN5ImGui11IsLegacyKeyE8ImGuiKey
	and	w0, w0, 255
	eor	w0, w0, 1
	and	w0, w0, 255
	cmp	w0, 0
	bne	.L596
	ldr	x1, [sp, 40]
	ldrsw	x0, [sp, 60]
	add	x0, x0, 60
	lsl	x0, x0, 2
	add	x0, x1, x0
	ldr	w1, [sp, 36]
	str	w1, [x0, 8]
	ldr	x1, [sp, 40]
	ldrsw	x0, [sp, 36]
	add	x0, x0, 60
	lsl	x0, x0, 2
	add	x0, x1, x0
	ldr	w1, [sp, 60]
	str	w1, [x0, 8]
	b	.L587
.L595:
	nop
	b	.L587
.L596:
	nop
.L587:
	ldp	x29, x30, [sp], 64
	.cfi_restore 30
	.cfi_restore 29
	.cfi_def_cfa_offset 0
	ret
	.cfi_endproc
.LFE1585:
	.size	_ZN7ImGuiIO21SetKeyEventNativeDataE8ImGuiKeyiii, .-_ZN7ImGuiIO21SetKeyEventNativeDataE8ImGuiKeyiii
	.align	2
	.global	_ZN7ImGuiIO21SetAppAcceptingEventsEb
	.type	_ZN7ImGuiIO21SetAppAcceptingEventsEb, %function
_ZN7ImGuiIO21SetAppAcceptingEventsEb:
.LFB1586:
	.cfi_startproc
	sub	sp, sp, #16
	.cfi_def_cfa_offset 16
	str	x0, [sp, 8]
	strb	w1, [sp, 7]
	ldr	x0, [sp, 8]
	add	x0, x0, 12288
	ldrb	w1, [sp, 7]
	strb	w1, [x0, 1953]
	nop
	add	sp, sp, 16
	.cfi_def_cfa_offset 0
	ret
	.cfi_endproc
.LFE1586:
	.size	_ZN7ImGuiIO21SetAppAcceptingEventsEb, .-_ZN7ImGuiIO21SetAppAcceptingEventsEb
	.section	.rodata
	.align	3
.LC56:
	.string	"void ImGuiIO::AddMousePosEvent(float, float)"
	.text
	.align	2
	.global	_ZN7ImGuiIO16AddMousePosEventEff
	.type	_ZN7ImGuiIO16AddMousePosEventEff, %function
_ZN7ImGuiIO16AddMousePosEventEff:
.LFB1587:
	.cfi_startproc
	stp	x29, x30, [sp, -112]!
	.cfi_def_cfa_offset 112
	.cfi_offset 29, -112
	.cfi_offset 30, -104
	mov	x29, sp
	str	d8, [sp, 16]
	.cfi_offset 72, -96
	str	x0, [sp, 40]
	str	s0, [sp, 36]
	str	s1, [sp, 32]
	adrp	x0, :got:__stack_chk_guard
	ldr	x0, [x0, #:got_lo12:__stack_chk_guard]
	ldr	x1, [x0]
	str	x1, [sp, 104]
	mov	x1, 0
	adrp	x0, GImGui
	add	x0, x0, :lo12:GImGui
	ldr	x0, [x0]
	str	x0, [sp, 64]
	ldr	x0, [sp, 64]
	add	x0, x0, 8
	ldr	x1, [sp, 40]
	cmp	x1, x0
	beq	.L599
	adrp	x0, .LC56
	add	x3, x0, :lo12:.LC56
	mov	w2, 1418
	adrp	x0, .LC46
	add	x1, x0, :lo12:.LC46
	adrp	x0, .LC47
	add	x0, x0, :lo12:.LC47
	bl	__assert_fail
.L599:
	ldr	x0, [sp, 40]
	add	x0, x0, 12288
	ldrb	w0, [x0, 1953]
	eor	w0, w0, 1
	and	w0, w0, 255
	cmp	w0, 0
	bne	.L617
	ldr	s1, [sp, 36]
	mvni	v0.2s, 0x80, lsl 16
	fcmpe	s1, s0
	bgt	.L613
	b	.L615
.L613:
	ldr	s0, [sp, 36]
	bl	_ZL13ImFloorSignedf
	fmov	s8, s0
	b	.L604
.L615:
	ldr	s8, [sp, 36]
.L604:
	ldr	s1, [sp, 32]
	mvni	v0.2s, 0x80, lsl 16
	fcmpe	s1, s0
	bgt	.L614
	b	.L616
.L614:
	ldr	s0, [sp, 32]
	bl	_ZL13ImFloorSignedf
	b	.L607
.L616:
	ldr	s0, [sp, 32]
.L607:
	add	x0, sp, 48
	fmov	s1, s0
	fmov	s0, s8
	bl	_ZN6ImVec2C1Eff
	mov	w1, -1
	mov	w0, 1
	bl	_ZL20FindLatestInputEvent19ImGuiInputEventTypei
	str	x0, [sp, 72]
	ldr	x0, [sp, 72]
	cmp	x0, 0
	beq	.L608
	ldr	x0, [sp, 72]
	ldr	s0, [x0, 8]
	ldr	x0, [sp, 72]
	ldr	s1, [x0, 12]
	add	x0, sp, 56
	bl	_ZN6ImVec2C1Eff
	b	.L609
.L608:
	ldr	x0, [sp, 64]
	add	x0, x0, 3584
	ldr	x0, [x0, -4]
	str	x0, [sp, 56]
.L609:
	ldr	s1, [sp, 56]
	ldr	s0, [sp, 48]
	fcmp	s1, s0
	bne	.L610
	ldr	s1, [sp, 60]
	ldr	s0, [sp, 52]
	fcmp	s1, s0
	beq	.L618
.L610:
	add	x0, sp, 80
	bl	_ZN15ImGuiInputEventC1Ev
	mov	w0, 1
	str	w0, [sp, 80]
	mov	w0, 1
	str	w0, [sp, 84]
	ldr	s0, [sp, 48]
	str	s0, [sp, 88]
	ldr	s0, [sp, 52]
	str	s0, [sp, 92]
	ldr	x1, [sp, 64]
	mov	x0, 14272
	add	x0, x1, x0
	add	x1, sp, 80
	bl	_ZN8ImVectorI15ImGuiInputEventE9push_backERKS0_
	b	.L598
.L617:
	nop
	b	.L598
.L618:
	nop
.L598:
	adrp	x0, :got:__stack_chk_guard
	ldr	x0, [x0, #:got_lo12:__stack_chk_guard]
	ldr	x2, [sp, 104]
	ldr	x1, [x0]
	subs	x2, x2, x1
	mov	x1, 0
	beq	.L612
	bl	__stack_chk_fail
.L612:
	ldr	d8, [sp, 16]
	ldp	x29, x30, [sp], 112
	.cfi_restore 30
	.cfi_restore 29
	.cfi_restore 72
	.cfi_def_cfa_offset 0
	ret
	.cfi_endproc
.LFE1587:
	.size	_ZN7ImGuiIO16AddMousePosEventEff, .-_ZN7ImGuiIO16AddMousePosEventEff
	.section	.rodata
	.align	3
.LC57:
	.string	"void ImGuiIO::AddMouseButtonEvent(int, bool)"
	.align	3
.LC58:
	.string	"mouse_button >= 0 && mouse_button < ImGuiMouseButton_COUNT"
	.text
	.align	2
	.global	_ZN7ImGuiIO19AddMouseButtonEventEib
	.type	_ZN7ImGuiIO19AddMouseButtonEventEib, %function
_ZN7ImGuiIO19AddMouseButtonEventEib:
.LFB1588:
	.cfi_startproc
	stp	x29, x30, [sp, -96]!
	.cfi_def_cfa_offset 96
	.cfi_offset 29, -96
	.cfi_offset 30, -88
	mov	x29, sp
	str	x0, [sp, 24]
	str	w1, [sp, 20]
	strb	w2, [sp, 19]
	adrp	x0, :got:__stack_chk_guard
	ldr	x0, [x0, #:got_lo12:__stack_chk_guard]
	ldr	x1, [x0]
	str	x1, [sp, 88]
	mov	x1, 0
	adrp	x0, GImGui
	add	x0, x0, :lo12:GImGui
	ldr	x0, [x0]
	str	x0, [sp, 48]
	ldr	x0, [sp, 48]
	add	x0, x0, 8
	ldr	x1, [sp, 24]
	cmp	x1, x0
	beq	.L620
	adrp	x0, .LC57
	add	x3, x0, :lo12:.LC57
	mov	w2, 1442
	adrp	x0, .LC46
	add	x1, x0, :lo12:.LC46
	adrp	x0, .LC47
	add	x0, x0, :lo12:.LC47
	bl	__assert_fail
.L620:
	ldr	w0, [sp, 20]
	cmp	w0, 0
	blt	.L621
	ldr	w0, [sp, 20]
	cmp	w0, 4
	ble	.L630
.L621:
	adrp	x0, .LC57
	add	x3, x0, :lo12:.LC57
	mov	w2, 1443
	adrp	x0, .LC46
	add	x1, x0, :lo12:.LC46
	adrp	x0, .LC58
	add	x0, x0, :lo12:.LC58
	bl	__assert_fail
.L630:
	ldr	x0, [sp, 24]
	add	x0, x0, 12288
	ldrb	w0, [x0, 1953]
	eor	w0, w0, 1
	and	w0, w0, 255
	cmp	w0, 0
	bne	.L631
	ldr	w1, [sp, 20]
	mov	w0, 3
	bl	_ZL20FindLatestInputEvent19ImGuiInputEventTypei
	str	x0, [sp, 56]
	ldr	x0, [sp, 56]
	cmp	x0, 0
	beq	.L625
	ldr	x0, [sp, 56]
	ldrb	w0, [x0, 12]
	cmp	w0, 0
	cset	w0, ne
	and	w0, w0, 255
	b	.L626
.L625:
	ldrsw	x0, [sp, 20]
	add	x0, x0, 3568
	ldr	x1, [sp, 48]
	add	x0, x1, x0
	add	x0, x0, 20
	ldrb	w0, [x0]
	cmp	w0, 0
	cset	w0, ne
	and	w0, w0, 255
.L626:
	strb	w0, [sp, 47]
	ldrb	w1, [sp, 47]
	ldrb	w0, [sp, 19]
	cmp	w1, w0
	beq	.L632
	add	x0, sp, 64
	bl	_ZN15ImGuiInputEventC1Ev
	mov	w0, 3
	str	w0, [sp, 64]
	mov	w0, 1
	str	w0, [sp, 68]
	ldr	w0, [sp, 20]
	str	w0, [sp, 72]
	ldrb	w0, [sp, 19]
	strb	w0, [sp, 76]
	ldr	x1, [sp, 48]
	mov	x0, 14272
	add	x0, x1, x0
	add	x1, sp, 64
	bl	_ZN8ImVectorI15ImGuiInputEventE9push_backERKS0_
	b	.L619
.L631:
	nop
	b	.L619
.L632:
	nop
.L619:
	adrp	x0, :got:__stack_chk_guard
	ldr	x0, [x0, #:got_lo12:__stack_chk_guard]
	ldr	x2, [sp, 88]
	ldr	x1, [x0]
	subs	x2, x2, x1
	mov	x1, 0
	beq	.L629
	bl	__stack_chk_fail
.L629:
	ldp	x29, x30, [sp], 96
	.cfi_restore 30
	.cfi_restore 29
	.cfi_def_cfa_offset 0
	ret
	.cfi_endproc
.LFE1588:
	.size	_ZN7ImGuiIO19AddMouseButtonEventEib, .-_ZN7ImGuiIO19AddMouseButtonEventEib
	.section	.rodata
	.align	3
.LC59:
	.string	"void ImGuiIO::AddMouseWheelEvent(float, float)"
	.text
	.align	2
	.global	_ZN7ImGuiIO18AddMouseWheelEventEff
	.type	_ZN7ImGuiIO18AddMouseWheelEventEff, %function
_ZN7ImGuiIO18AddMouseWheelEventEff:
.LFB1589:
	.cfi_startproc
	stp	x29, x30, [sp, -80]!
	.cfi_def_cfa_offset 80
	.cfi_offset 29, -80
	.cfi_offset 30, -72
	mov	x29, sp
	str	x0, [sp, 24]
	str	s0, [sp, 20]
	str	s1, [sp, 16]
	adrp	x0, :got:__stack_chk_guard
	ldr	x0, [x0, #:got_lo12:__stack_chk_guard]
	ldr	x1, [x0]
	str	x1, [sp, 72]
	mov	x1, 0
	adrp	x0, GImGui
	add	x0, x0, :lo12:GImGui
	ldr	x0, [x0]
	str	x0, [sp, 40]
	ldr	x0, [sp, 40]
	add	x0, x0, 8
	ldr	x1, [sp, 24]
	cmp	x1, x0
	beq	.L634
	adrp	x0, .LC59
	add	x3, x0, :lo12:.LC59
	mov	w2, 1465
	adrp	x0, .LC46
	add	x1, x0, :lo12:.LC46
	adrp	x0, .LC47
	add	x0, x0, :lo12:.LC47
	bl	__assert_fail
.L634:
	ldr	x0, [sp, 24]
	add	x0, x0, 12288
	ldrb	w0, [x0, 1953]
	eor	w0, w0, 1
	and	w0, w0, 255
	cmp	w0, 0
	bne	.L639
	ldr	s0, [sp, 20]
	fcmp	s0, #0.0
	bne	.L636
	ldr	s0, [sp, 16]
	fcmp	s0, #0.0
	beq	.L639
.L636:
	add	x0, sp, 48
	bl	_ZN15ImGuiInputEventC1Ev
	mov	w0, 2
	str	w0, [sp, 48]
	mov	w0, 1
	str	w0, [sp, 52]
	ldr	s0, [sp, 20]
	str	s0, [sp, 56]
	ldr	s0, [sp, 16]
	str	s0, [sp, 60]
	ldr	x1, [sp, 40]
	mov	x0, 14272
	add	x0, x1, x0
	add	x1, sp, 48
	bl	_ZN8ImVectorI15ImGuiInputEventE9push_backERKS0_
	b	.L633
.L639:
	nop
.L633:
	adrp	x0, :got:__stack_chk_guard
	ldr	x0, [x0, #:got_lo12:__stack_chk_guard]
	ldr	x2, [sp, 72]
	ldr	x1, [x0]
	subs	x2, x2, x1
	mov	x1, 0
	beq	.L638
	bl	__stack_chk_fail
.L638:
	ldp	x29, x30, [sp], 80
	.cfi_restore 30
	.cfi_restore 29
	.cfi_def_cfa_offset 0
	ret
	.cfi_endproc
.LFE1589:
	.size	_ZN7ImGuiIO18AddMouseWheelEventEff, .-_ZN7ImGuiIO18AddMouseWheelEventEff
	.section	.rodata
	.align	3
.LC60:
	.string	"void ImGuiIO::AddFocusEvent(bool)"
	.text
	.align	2
	.global	_ZN7ImGuiIO13AddFocusEventEb
	.type	_ZN7ImGuiIO13AddFocusEventEb, %function
_ZN7ImGuiIO13AddFocusEventEb:
.LFB1590:
	.cfi_startproc
	stp	x29, x30, [sp, -96]!
	.cfi_def_cfa_offset 96
	.cfi_offset 29, -96
	.cfi_offset 30, -88
	mov	x29, sp
	str	x0, [sp, 24]
	strb	w1, [sp, 23]
	adrp	x0, :got:__stack_chk_guard
	ldr	x0, [x0, #:got_lo12:__stack_chk_guard]
	ldr	x1, [x0]
	str	x1, [sp, 88]
	mov	x1, 0
	adrp	x0, GImGui
	add	x0, x0, :lo12:GImGui
	ldr	x0, [x0]
	str	x0, [sp, 48]
	ldr	x0, [sp, 48]
	add	x0, x0, 8
	ldr	x1, [sp, 24]
	cmp	x1, x0
	beq	.L641
	adrp	x0, .LC60
	add	x3, x0, :lo12:.LC60
	mov	w2, 1482
	adrp	x0, .LC46
	add	x1, x0, :lo12:.LC46
	adrp	x0, .LC47
	add	x0, x0, :lo12:.LC47
	bl	__assert_fail
.L641:
	mov	w1, -1
	mov	w0, 6
	bl	_ZL20FindLatestInputEvent19ImGuiInputEventTypei
	str	x0, [sp, 56]
	ldr	x0, [sp, 56]
	cmp	x0, 0
	beq	.L642
	ldr	x0, [sp, 56]
	ldrb	w0, [x0, 8]
	cmp	w0, 0
	cset	w0, ne
	and	w0, w0, 255
	b	.L643
.L642:
	ldr	x0, [sp, 48]
	add	x0, x0, 12288
	ldrb	w0, [x0, 1960]
	eor	w0, w0, 1
	and	w0, w0, 255
.L643:
	strb	w0, [sp, 47]
	ldrb	w1, [sp, 47]
	ldrb	w0, [sp, 23]
	cmp	w1, w0
	beq	.L647
	add	x0, sp, 64
	bl	_ZN15ImGuiInputEventC1Ev
	mov	w0, 6
	str	w0, [sp, 64]
	ldrb	w0, [sp, 23]
	strb	w0, [sp, 72]
	ldr	x1, [sp, 48]
	mov	x0, 14272
	add	x0, x1, x0
	add	x1, sp, 64
	bl	_ZN8ImVectorI15ImGuiInputEventE9push_backERKS0_
	b	.L640
.L647:
	nop
.L640:
	adrp	x0, :got:__stack_chk_guard
	ldr	x0, [x0, #:got_lo12:__stack_chk_guard]
	ldr	x2, [sp, 88]
	ldr	x1, [x0]
	subs	x2, x2, x1
	mov	x1, 0
	beq	.L646
	bl	__stack_chk_fail
.L646:
	ldp	x29, x30, [sp], 96
	.cfi_restore 30
	.cfi_restore 29
	.cfi_def_cfa_offset 0
	ret
	.cfi_endproc
.LFE1590:
	.size	_ZN7ImGuiIO13AddFocusEventEb, .-_ZN7ImGuiIO13AddFocusEventEb
	.section	.rodata
	.align	3
.LC61:
	.string	"ImVec2 ImBezierCubicClosestPoint(const ImVec2&, const ImVec2&, const ImVec2&, const ImVec2&, const ImVec2&, int)"
	.align	3
.LC62:
	.string	"num_segments > 0"
	.text
	.align	2
	.global	_Z25ImBezierCubicClosestPointRK6ImVec2S1_S1_S1_S1_i
	.type	_Z25ImBezierCubicClosestPointRK6ImVec2S1_S1_S1_S1_i, %function
_Z25ImBezierCubicClosestPointRK6ImVec2S1_S1_S1_S1_i:
.LFB1591:
	.cfi_startproc
	stp	x29, x30, [sp, -128]!
	.cfi_def_cfa_offset 128
	.cfi_offset 29, -128
	.cfi_offset 30, -120
	mov	x29, sp
	str	x0, [sp, 56]
	str	x1, [sp, 48]
	str	x2, [sp, 40]
	str	x3, [sp, 32]
	str	x4, [sp, 24]
	str	w5, [sp, 20]
	adrp	x0, :got:__stack_chk_guard
	ldr	x0, [x0, #:got_lo12:__stack_chk_guard]
	ldr	x1, [x0]
	str	x1, [sp, 120]
	mov	x1, 0
	ldr	w0, [sp, 20]
	cmp	w0, 0
	bgt	.L649
	adrp	x0, .LC61
	add	x3, x0, :lo12:.LC61
	mov	w2, 1502
	adrp	x0, .LC46
	add	x1, x0, :lo12:.LC46
	adrp	x0, .LC62
	add	x0, x0, :lo12:.LC62
	bl	__assert_fail
.L649:
	ldr	x0, [sp, 56]
	ldr	x0, [x0]
	str	x0, [sp, 80]
	str	wzr, [sp, 88]
	str	wzr, [sp, 92]
	mov	w0, 2139095039
	fmov	s0, w0
	str	s0, [sp, 64]
	ldr	s0, [sp, 20]
	scvtf	s0, s0
	fmov	s1, 1.0e+0
	fdiv	s0, s1, s0
	str	s0, [sp, 72]
	mov	w0, 1
	str	w0, [sp, 68]
	b	.L650
.L653:
	ldr	s0, [sp, 68]
	scvtf	s1, s0
	ldr	s0, [sp, 72]
	fmul	s0, s1, s0
	ldr	x3, [sp, 32]
	ldr	x2, [sp, 40]
	ldr	x1, [sp, 48]
	ldr	x0, [sp, 56]
	bl	_Z17ImBezierCubicCalcRK6ImVec2S1_S1_S1_f
	fmov	s2, s0
	fmov	s0, s1
	str	s2, [sp, 96]
	str	s0, [sp, 100]
	add	x1, sp, 96
	add	x0, sp, 80
	ldr	x2, [sp, 24]
	bl	_Z18ImLineClosestPointRK6ImVec2S1_S1_
	fmov	s2, s0
	fmov	s0, s1
	str	s2, [sp, 104]
	str	s0, [sp, 108]
	add	x0, sp, 104
	mov	x1, x0
	ldr	x0, [sp, 24]
	bl	_ZmiRK6ImVec2S1_
	fmov	s2, s0
	fmov	s0, s1
	str	s2, [sp, 112]
	str	s0, [sp, 116]
	add	x0, sp, 112
	bl	_ZL11ImLengthSqrRK6ImVec2
	str	s0, [sp, 76]
	ldr	s1, [sp, 76]
	ldr	s0, [sp, 64]
	fcmpe	s1, s0
	bmi	.L656
	b	.L651
.L656:
	ldr	x0, [sp, 104]
	str	x0, [sp, 88]
	ldr	s0, [sp, 76]
	str	s0, [sp, 64]
.L651:
	ldr	x0, [sp, 96]
	str	x0, [sp, 80]
	ldr	w0, [sp, 68]
	add	w0, w0, 1
	str	w0, [sp, 68]
.L650:
	ldr	w1, [sp, 68]
	ldr	w0, [sp, 20]
	cmp	w1, w0
	ble	.L653
	ldr	x0, [sp, 88]
	mov	x1, x0
	lsr	w1, w1, 0
	lsr	x0, x0, 32
	fmov	s0, w1
	fmov	s1, w0
	adrp	x0, :got:__stack_chk_guard
	ldr	x0, [x0, #:got_lo12:__stack_chk_guard]
	ldr	x2, [sp, 120]
	ldr	x1, [x0]
	subs	x2, x2, x1
	mov	x1, 0
	beq	.L655
	bl	__stack_chk_fail
.L655:
	ldp	x29, x30, [sp], 128
	.cfi_restore 30
	.cfi_restore 29
	.cfi_def_cfa_offset 0
	ret
	.cfi_endproc
.LFE1591:
	.size	_Z25ImBezierCubicClosestPointRK6ImVec2S1_S1_S1_S1_i, .-_Z25ImBezierCubicClosestPointRK6ImVec2S1_S1_S1_S1_i
	.align	2
	.type	_ZL38ImBezierCubicClosestPointCasteljauStepRK6ImVec2RS_S2_Rffffffffffi, %function
_ZL38ImBezierCubicClosestPointCasteljauStepRK6ImVec2RS_S2_Rffffffffffi:
.LFB1592:
	.cfi_startproc
	sub	sp, sp, #224
	.cfi_def_cfa_offset 224
	stp	x29, x30, [sp, 16]
	.cfi_offset 29, -208
	.cfi_offset 30, -200
	add	x29, sp, 16
	str	x0, [sp, 104]
	str	x1, [sp, 96]
	str	x2, [sp, 88]
	str	x3, [sp, 80]
	str	s0, [sp, 76]
	str	s1, [sp, 72]
	str	s2, [sp, 68]
	str	s3, [sp, 64]
	str	s4, [sp, 60]
	str	s5, [sp, 56]
	str	s6, [sp, 52]
	str	s7, [sp, 48]
	str	w4, [sp, 44]
	adrp	x0, :got:__stack_chk_guard
	ldr	x0, [x0, #:got_lo12:__stack_chk_guard]
	ldr	x1, [x0]
	str	x1, [sp, 216]
	mov	x1, 0
	ldr	s1, [sp, 52]
	ldr	s0, [sp, 76]
	fsub	s0, s1, s0
	str	s0, [sp, 124]
	ldr	s1, [sp, 48]
	ldr	s0, [sp, 72]
	fsub	s0, s1, s0
	str	s0, [sp, 128]
	ldr	s1, [sp, 68]
	ldr	s0, [sp, 52]
	fsub	s1, s1, s0
	ldr	s0, [sp, 128]
	fmul	s1, s1, s0
	ldr	s2, [sp, 64]
	ldr	s0, [sp, 48]
	fsub	s2, s2, s0
	ldr	s0, [sp, 124]
	fmul	s0, s2, s0
	fsub	s0, s1, s0
	str	s0, [sp, 132]
	ldr	s1, [sp, 60]
	ldr	s0, [sp, 52]
	fsub	s1, s1, s0
	ldr	s0, [sp, 128]
	fmul	s1, s1, s0
	ldr	s2, [sp, 56]
	ldr	s0, [sp, 48]
	fsub	s2, s2, s0
	ldr	s0, [sp, 124]
	fmul	s0, s2, s0
	fsub	s0, s1, s0
	str	s0, [sp, 136]
	ldr	s0, [sp, 132]
	fcmpe	s0, #0.0
	bge	.L670
	b	.L674
.L670:
	ldr	s0, [sp, 132]
	b	.L660
.L674:
	ldr	s0, [sp, 132]
	fneg	s0, s0
.L660:
	str	s0, [sp, 132]
	ldr	s0, [sp, 136]
	fcmpe	s0, #0.0
	bge	.L671
	b	.L675
.L671:
	ldr	s0, [sp, 136]
	b	.L663
.L675:
	ldr	s0, [sp, 136]
	fneg	s0, s0
.L663:
	str	s0, [sp, 136]
	ldr	s1, [sp, 132]
	ldr	s0, [sp, 136]
	fadd	s1, s1, s0
	ldr	s2, [sp, 132]
	ldr	s0, [sp, 136]
	fadd	s0, s2, s0
	fmul	s1, s1, s0
	ldr	s0, [sp, 124]
	fmul	s2, s0, s0
	ldr	s0, [sp, 128]
	fmul	s0, s0, s0
	fadd	s2, s2, s0
	ldr	s0, [sp, 224]
	fmul	s0, s2, s0
	fcmpe	s1, s0
	bmi	.L672
	b	.L676
.L672:
	add	x0, sp, 192
	ldr	s1, [sp, 48]
	ldr	s0, [sp, 52]
	bl	_ZN6ImVec2C1Eff
	add	x0, sp, 192
	ldr	x2, [sp, 104]
	mov	x1, x0
	ldr	x0, [sp, 88]
	bl	_Z18ImLineClosestPointRK6ImVec2S1_S1_
	fmov	s2, s0
	fmov	s0, s1
	str	s2, [sp, 200]
	str	s0, [sp, 204]
	add	x0, sp, 200
	mov	x1, x0
	ldr	x0, [sp, 104]
	bl	_ZmiRK6ImVec2S1_
	fmov	s2, s0
	fmov	s0, s1
	str	s2, [sp, 208]
	str	s0, [sp, 212]
	add	x0, sp, 208
	bl	_ZL11ImLengthSqrRK6ImVec2
	str	s0, [sp, 188]
	ldr	x0, [sp, 80]
	ldr	s0, [x0]
	ldr	s1, [sp, 188]
	fcmpe	s1, s0
	bmi	.L673
	b	.L666
.L673:
	ldr	x0, [sp, 96]
	ldr	x1, [sp, 200]
	str	x1, [x0]
	ldr	x0, [sp, 80]
	ldr	s0, [sp, 188]
	str	s0, [x0]
.L666:
	ldr	x0, [sp, 88]
	ldr	x1, [sp, 192]
	str	x1, [x0]
	b	.L677
.L676:
	ldr	w0, [sp, 44]
	cmp	w0, 9
	bgt	.L677
	ldr	s1, [sp, 76]
	ldr	s0, [sp, 68]
	fadd	s1, s1, s0
	fmov	s0, 5.0e-1
	fmul	s0, s1, s0
	str	s0, [sp, 140]
	ldr	s1, [sp, 72]
	ldr	s0, [sp, 64]
	fadd	s1, s1, s0
	fmov	s0, 5.0e-1
	fmul	s0, s1, s0
	str	s0, [sp, 144]
	ldr	s1, [sp, 68]
	ldr	s0, [sp, 60]
	fadd	s1, s1, s0
	fmov	s0, 5.0e-1
	fmul	s0, s1, s0
	str	s0, [sp, 148]
	ldr	s1, [sp, 64]
	ldr	s0, [sp, 56]
	fadd	s1, s1, s0
	fmov	s0, 5.0e-1
	fmul	s0, s1, s0
	str	s0, [sp, 152]
	ldr	s1, [sp, 60]
	ldr	s0, [sp, 52]
	fadd	s1, s1, s0
	fmov	s0, 5.0e-1
	fmul	s0, s1, s0
	str	s0, [sp, 156]
	ldr	s1, [sp, 56]
	ldr	s0, [sp, 48]
	fadd	s1, s1, s0
	fmov	s0, 5.0e-1
	fmul	s0, s1, s0
	str	s0, [sp, 160]
	ldr	s1, [sp, 140]
	ldr	s0, [sp, 148]
	fadd	s1, s1, s0
	fmov	s0, 5.0e-1
	fmul	s0, s1, s0
	str	s0, [sp, 164]
	ldr	s1, [sp, 144]
	ldr	s0, [sp, 152]
	fadd	s1, s1, s0
	fmov	s0, 5.0e-1
	fmul	s0, s1, s0
	str	s0, [sp, 168]
	ldr	s1, [sp, 148]
	ldr	s0, [sp, 156]
	fadd	s1, s1, s0
	fmov	s0, 5.0e-1
	fmul	s0, s1, s0
	str	s0, [sp, 172]
	ldr	s1, [sp, 152]
	ldr	s0, [sp, 160]
	fadd	s1, s1, s0
	fmov	s0, 5.0e-1
	fmul	s0, s1, s0
	str	s0, [sp, 176]
	ldr	s1, [sp, 164]
	ldr	s0, [sp, 172]
	fadd	s1, s1, s0
	fmov	s0, 5.0e-1
	fmul	s0, s1, s0
	str	s0, [sp, 180]
	ldr	s1, [sp, 168]
	ldr	s0, [sp, 176]
	fadd	s1, s1, s0
	fmov	s0, 5.0e-1
	fmul	s0, s1, s0
	str	s0, [sp, 184]
	ldr	w0, [sp, 44]
	add	w0, w0, 1
	ldr	s0, [sp, 224]
	str	s0, [sp]
	mov	w4, w0
	ldr	s7, [sp, 184]
	ldr	s6, [sp, 180]
	ldr	s5, [sp, 168]
	ldr	s4, [sp, 164]
	ldr	s3, [sp, 144]
	ldr	s2, [sp, 140]
	ldr	s1, [sp, 72]
	ldr	s0, [sp, 76]
	ldr	x3, [sp, 80]
	ldr	x2, [sp, 88]
	ldr	x1, [sp, 96]
	ldr	x0, [sp, 104]
	bl	_ZL38ImBezierCubicClosestPointCasteljauStepRK6ImVec2RS_S2_Rffffffffffi
	ldr	w0, [sp, 44]
	add	w0, w0, 1
	ldr	s0, [sp, 224]
	str	s0, [sp]
	mov	w4, w0
	ldr	s7, [sp, 48]
	ldr	s6, [sp, 52]
	ldr	s5, [sp, 160]
	ldr	s4, [sp, 156]
	ldr	s3, [sp, 176]
	ldr	s2, [sp, 172]
	ldr	s1, [sp, 184]
	ldr	s0, [sp, 180]
	ldr	x3, [sp, 80]
	ldr	x2, [sp, 88]
	ldr	x1, [sp, 96]
	ldr	x0, [sp, 104]
	bl	_ZL38ImBezierCubicClosestPointCasteljauStepRK6ImVec2RS_S2_Rffffffffffi
.L677:
	nop
	adrp	x0, :got:__stack_chk_guard
	ldr	x0, [x0, #:got_lo12:__stack_chk_guard]
	ldr	x2, [sp, 216]
	ldr	x1, [x0]
	subs	x2, x2, x1
	mov	x1, 0
	beq	.L669
	bl	__stack_chk_fail
.L669:
	ldp	x29, x30, [sp, 16]
	add	sp, sp, 224
	.cfi_restore 29
	.cfi_restore 30
	.cfi_def_cfa_offset 0
	ret
	.cfi_endproc
.LFE1592:
	.size	_ZL38ImBezierCubicClosestPointCasteljauStepRK6ImVec2RS_S2_Rffffffffffi, .-_ZL38ImBezierCubicClosestPointCasteljauStepRK6ImVec2RS_S2_Rffffffffffi
	.section	.rodata
	.align	3
.LC63:
	.string	"ImVec2 ImBezierCubicClosestPointCasteljau(const ImVec2&, const ImVec2&, const ImVec2&, const ImVec2&, const ImVec2&, float)"
	.align	3
.LC64:
	.string	"tess_tol > 0.0f"
	.text
	.align	2
	.global	_Z34ImBezierCubicClosestPointCasteljauRK6ImVec2S1_S1_S1_S1_f
	.type	_Z34ImBezierCubicClosestPointCasteljauRK6ImVec2S1_S1_S1_S1_f, %function
_Z34ImBezierCubicClosestPointCasteljauRK6ImVec2S1_S1_S1_S1_f:
.LFB1593:
	.cfi_startproc
	sub	sp, sp, #128
	.cfi_def_cfa_offset 128
	stp	x29, x30, [sp, 16]
	.cfi_offset 29, -112
	.cfi_offset 30, -104
	add	x29, sp, 16
	str	d8, [sp, 32]
	.cfi_offset 72, -96
	str	x0, [sp, 88]
	str	x1, [sp, 80]
	str	x2, [sp, 72]
	str	x3, [sp, 64]
	str	x4, [sp, 56]
	str	s0, [sp, 52]
	adrp	x0, :got:__stack_chk_guard
	ldr	x0, [x0, #:got_lo12:__stack_chk_guard]
	ldr	x1, [x0]
	str	x1, [sp, 120]
	mov	x1, 0
	ldr	s0, [sp, 52]
	fcmpe	s0, #0.0
	bgt	.L679
	adrp	x0, .LC63
	add	x3, x0, :lo12:.LC63
	mov	w2, 1560
	adrp	x0, .LC46
	add	x1, x0, :lo12:.LC46
	adrp	x0, .LC64
	add	x0, x0, :lo12:.LC64
	bl	__assert_fail
.L679:
	ldr	x0, [sp, 88]
	ldr	x0, [x0]
	str	x0, [sp, 104]
	str	wzr, [sp, 112]
	str	wzr, [sp, 116]
	mov	w0, 2139095039
	fmov	s0, w0
	str	s0, [sp, 100]
	ldr	x0, [sp, 88]
	ldr	s8, [x0]
	ldr	x0, [sp, 88]
	ldr	s1, [x0, 4]
	ldr	x0, [sp, 80]
	ldr	s2, [x0]
	ldr	x0, [sp, 80]
	ldr	s3, [x0, 4]
	ldr	x0, [sp, 72]
	ldr	s4, [x0]
	ldr	x0, [sp, 72]
	ldr	s5, [x0, 4]
	ldr	x0, [sp, 64]
	ldr	s6, [x0]
	ldr	x0, [sp, 64]
	ldr	s7, [x0, 4]
	add	x2, sp, 100
	add	x1, sp, 104
	add	x0, sp, 112
	ldr	s0, [sp, 52]
	str	s0, [sp]
	mov	w4, 0
	fmov	s0, s8
	mov	x3, x2
	mov	x2, x1
	mov	x1, x0
	ldr	x0, [sp, 56]
	bl	_ZL38ImBezierCubicClosestPointCasteljauStepRK6ImVec2RS_S2_Rffffffffffi
	ldr	x0, [sp, 112]
	mov	x1, x0
	lsr	w1, w1, 0
	lsr	x0, x0, 32
	fmov	s0, w1
	fmov	s1, w0
	adrp	x0, :got:__stack_chk_guard
	ldr	x0, [x0, #:got_lo12:__stack_chk_guard]
	ldr	x2, [sp, 120]
	ldr	x1, [x0]
	subs	x2, x2, x1
	mov	x1, 0
	beq	.L681
	bl	__stack_chk_fail
.L681:
	ldr	d8, [sp, 32]
	ldp	x29, x30, [sp, 16]
	add	sp, sp, 128
	.cfi_restore 29
	.cfi_restore 30
	.cfi_restore 72
	.cfi_def_cfa_offset 0
	ret
	.cfi_endproc
.LFE1593:
	.size	_Z34ImBezierCubicClosestPointCasteljauRK6ImVec2S1_S1_S1_S1_f, .-_Z34ImBezierCubicClosestPointCasteljauRK6ImVec2S1_S1_S1_S1_f
	.align	2
	.global	_Z18ImLineClosestPointRK6ImVec2S1_S1_
	.type	_Z18ImLineClosestPointRK6ImVec2S1_S1_, %function
_Z18ImLineClosestPointRK6ImVec2S1_S1_:
.LFB1594:
	.cfi_startproc
	stp	x29, x30, [sp, -96]!
	.cfi_def_cfa_offset 96
	.cfi_offset 29, -96
	.cfi_offset 30, -88
	mov	x29, sp
	str	x0, [sp, 40]
	str	x1, [sp, 32]
	str	x2, [sp, 24]
	adrp	x0, :got:__stack_chk_guard
	ldr	x0, [x0, #:got_lo12:__stack_chk_guard]
	ldr	x1, [x0]
	str	x1, [sp, 88]
	mov	x1, 0
	ldr	x1, [sp, 40]
	ldr	x0, [sp, 24]
	bl	_ZmiRK6ImVec2S1_
	fmov	s2, s0
	fmov	s0, s1
	str	s2, [sp, 56]
	str	s0, [sp, 60]
	ldr	x1, [sp, 40]
	ldr	x0, [sp, 32]
	bl	_ZmiRK6ImVec2S1_
	fmov	s2, s0
	fmov	s0, s1
	str	s2, [sp, 64]
	str	s0, [sp, 68]
	ldr	s1, [sp, 56]
	ldr	s0, [sp, 64]
	fmul	s1, s1, s0
	ldr	s2, [sp, 60]
	ldr	s0, [sp, 68]
	fmul	s0, s2, s0
	fadd	s0, s1, s0
	str	s0, [sp, 48]
	ldr	s0, [sp, 48]
	fcmpe	s0, #0.0
	bmi	.L690
	b	.L692
.L690:
	ldr	x0, [sp, 40]
	ldr	x0, [x0]
	b	.L688
.L692:
	ldr	s1, [sp, 64]
	ldr	s0, [sp, 64]
	fmul	s1, s1, s0
	ldr	s2, [sp, 68]
	ldr	s0, [sp, 68]
	fmul	s0, s2, s0
	fadd	s0, s1, s0
	str	s0, [sp, 52]
	ldr	s1, [sp, 48]
	ldr	s0, [sp, 52]
	fcmpe	s1, s0
	bgt	.L691
	b	.L693
.L691:
	ldr	x0, [sp, 32]
	ldr	x0, [x0]
	b	.L688
.L693:
	add	x0, sp, 64
	ldr	s0, [sp, 48]
	bl	_ZmlRK6ImVec2f
	fmov	s2, s0
	fmov	s0, s1
	str	s2, [sp, 72]
	str	s0, [sp, 76]
	add	x0, sp, 72
	ldr	s0, [sp, 52]
	bl	_ZdvRK6ImVec2f
	fmov	s2, s0
	fmov	s0, s1
	str	s2, [sp, 80]
	str	s0, [sp, 84]
	add	x0, sp, 80
	mov	x1, x0
	ldr	x0, [sp, 40]
	bl	_ZplRK6ImVec2S1_
	fmov	s2, s0
	fmov	s0, s1
	fmov	x0, d2
	fmov	w1, s0
	bfi	x0, x1, 32, 32
.L688:
	mov	x1, x0
	lsr	w1, w1, 0
	lsr	x0, x0, 32
	fmov	s0, w1
	fmov	s1, w0
	adrp	x0, :got:__stack_chk_guard
	ldr	x0, [x0, #:got_lo12:__stack_chk_guard]
	ldr	x2, [sp, 88]
	ldr	x1, [x0]
	subs	x2, x2, x1
	mov	x1, 0
	beq	.L689
	bl	__stack_chk_fail
.L689:
	ldp	x29, x30, [sp], 96
	.cfi_restore 30
	.cfi_restore 29
	.cfi_def_cfa_offset 0
	ret
	.cfi_endproc
.LFE1594:
	.size	_Z18ImLineClosestPointRK6ImVec2S1_S1_, .-_Z18ImLineClosestPointRK6ImVec2S1_S1_
	.align	2
	.global	_Z23ImTriangleContainsPointRK6ImVec2S1_S1_S1_
	.type	_Z23ImTriangleContainsPointRK6ImVec2S1_S1_S1_, %function
_Z23ImTriangleContainsPointRK6ImVec2S1_S1_S1_:
.LFB1595:
	.cfi_startproc
	sub	sp, sp, #48
	.cfi_def_cfa_offset 48
	str	x0, [sp, 24]
	str	x1, [sp, 16]
	str	x2, [sp, 8]
	str	x3, [sp]
	ldr	x0, [sp]
	ldr	s1, [x0]
	ldr	x0, [sp, 16]
	ldr	s0, [x0]
	fsub	s1, s1, s0
	ldr	x0, [sp, 24]
	ldr	s2, [x0, 4]
	ldr	x0, [sp, 16]
	ldr	s0, [x0, 4]
	fsub	s0, s2, s0
	fmul	s1, s1, s0
	ldr	x0, [sp]
	ldr	s2, [x0, 4]
	ldr	x0, [sp, 16]
	ldr	s0, [x0, 4]
	fsub	s2, s2, s0
	ldr	x0, [sp, 24]
	ldr	s3, [x0]
	ldr	x0, [sp, 16]
	ldr	s0, [x0]
	fsub	s0, s3, s0
	fmul	s0, s2, s0
	fsub	s0, s1, s0
	fcmpe	s0, #0.0
	cset	w0, mi
	strb	w0, [sp, 45]
	ldr	x0, [sp]
	ldr	s1, [x0]
	ldr	x0, [sp, 8]
	ldr	s0, [x0]
	fsub	s1, s1, s0
	ldr	x0, [sp, 16]
	ldr	s2, [x0, 4]
	ldr	x0, [sp, 8]
	ldr	s0, [x0, 4]
	fsub	s0, s2, s0
	fmul	s1, s1, s0
	ldr	x0, [sp]
	ldr	s2, [x0, 4]
	ldr	x0, [sp, 8]
	ldr	s0, [x0, 4]
	fsub	s2, s2, s0
	ldr	x0, [sp, 16]
	ldr	s3, [x0]
	ldr	x0, [sp, 8]
	ldr	s0, [x0]
	fsub	s0, s3, s0
	fmul	s0, s2, s0
	fsub	s0, s1, s0
	fcmpe	s0, #0.0
	cset	w0, mi
	strb	w0, [sp, 46]
	ldr	x0, [sp]
	ldr	s1, [x0]
	ldr	x0, [sp, 24]
	ldr	s0, [x0]
	fsub	s1, s1, s0
	ldr	x0, [sp, 8]
	ldr	s2, [x0, 4]
	ldr	x0, [sp, 24]
	ldr	s0, [x0, 4]
	fsub	s0, s2, s0
	fmul	s1, s1, s0
	ldr	x0, [sp]
	ldr	s2, [x0, 4]
	ldr	x0, [sp, 24]
	ldr	s0, [x0, 4]
	fsub	s2, s2, s0
	ldr	x0, [sp, 8]
	ldr	s3, [x0]
	ldr	x0, [sp, 24]
	ldr	s0, [x0]
	fsub	s0, s3, s0
	fmul	s0, s2, s0
	fsub	s0, s1, s0
	fcmpe	s0, #0.0
	cset	w0, mi
	strb	w0, [sp, 47]
	ldrb	w1, [sp, 45]
	ldrb	w0, [sp, 46]
	cmp	w1, w0
	bne	.L695
	ldrb	w1, [sp, 46]
	ldrb	w0, [sp, 47]
	cmp	w1, w0
	bne	.L695
	mov	w0, 1
	b	.L696
.L695:
	mov	w0, 0
.L696:
	add	sp, sp, 48
	.cfi_def_cfa_offset 0
	ret
	.cfi_endproc
.LFE1595:
	.size	_Z23ImTriangleContainsPointRK6ImVec2S1_S1_S1_, .-_Z23ImTriangleContainsPointRK6ImVec2S1_S1_S1_
	.align	2
	.global	_Z27ImTriangleBarycentricCoordsRK6ImVec2S1_S1_S1_RfS2_S2_
	.type	_Z27ImTriangleBarycentricCoordsRK6ImVec2S1_S1_S1_RfS2_S2_, %function
_Z27ImTriangleBarycentricCoordsRK6ImVec2S1_S1_S1_RfS2_S2_:
.LFB1596:
	.cfi_startproc
	stp	x29, x30, [sp, -112]!
	.cfi_def_cfa_offset 112
	.cfi_offset 29, -112
	.cfi_offset 30, -104
	mov	x29, sp
	str	x0, [sp, 72]
	str	x1, [sp, 64]
	str	x2, [sp, 56]
	str	x3, [sp, 48]
	str	x4, [sp, 40]
	str	x5, [sp, 32]
	str	x6, [sp, 24]
	ldr	x1, [sp, 72]
	ldr	x0, [sp, 64]
	bl	_ZmiRK6ImVec2S1_
	fmov	s2, s0
	fmov	s0, s1
	str	s2, [sp, 88]
	str	s0, [sp, 92]
	ldr	x1, [sp, 72]
	ldr	x0, [sp, 56]
	bl	_ZmiRK6ImVec2S1_
	fmov	s2, s0
	fmov	s0, s1
	str	s2, [sp, 96]
	str	s0, [sp, 100]
	ldr	x1, [sp, 72]
	ldr	x0, [sp, 48]
	bl	_ZmiRK6ImVec2S1_
	fmov	s2, s0
	fmov	s0, s1
	str	s2, [sp, 104]
	str	s0, [sp, 108]
	ldr	s1, [sp, 88]
	ldr	s0, [sp, 100]
	fmul	s1, s1, s0
	ldr	s2, [sp, 96]
	ldr	s0, [sp, 92]
	fmul	s0, s2, s0
	fsub	s0, s1, s0
	str	s0, [sp, 84]
	ldr	s1, [sp, 104]
	ldr	s0, [sp, 100]
	fmul	s1, s1, s0
	ldr	s2, [sp, 96]
	ldr	s0, [sp, 108]
	fmul	s0, s2, s0
	fsub	s1, s1, s0
	ldr	s0, [sp, 84]
	fdiv	s0, s1, s0
	ldr	x0, [sp, 32]
	str	s0, [x0]
	ldr	s1, [sp, 88]
	ldr	s0, [sp, 108]
	fmul	s1, s1, s0
	ldr	s2, [sp, 104]
	ldr	s0, [sp, 92]
	fmul	s0, s2, s0
	fsub	s1, s1, s0
	ldr	s0, [sp, 84]
	fdiv	s0, s1, s0
	ldr	x0, [sp, 24]
	str	s0, [x0]
	ldr	x0, [sp, 32]
	ldr	s0, [x0]
	fmov	s1, 1.0e+0
	fsub	s1, s1, s0
	ldr	x0, [sp, 24]
	ldr	s0, [x0]
	fsub	s0, s1, s0
	ldr	x0, [sp, 40]
	str	s0, [x0]
	nop
	ldp	x29, x30, [sp], 112
	.cfi_restore 30
	.cfi_restore 29
	.cfi_def_cfa_offset 0
	ret
	.cfi_endproc
.LFE1596:
	.size	_Z27ImTriangleBarycentricCoordsRK6ImVec2S1_S1_S1_RfS2_S2_, .-_Z27ImTriangleBarycentricCoordsRK6ImVec2S1_S1_S1_RfS2_S2_
	.align	2
	.global	_Z22ImTriangleClosestPointRK6ImVec2S1_S1_S1_
	.type	_Z22ImTriangleClosestPointRK6ImVec2S1_S1_S1_, %function
_Z22ImTriangleClosestPointRK6ImVec2S1_S1_S1_:
.LFB1597:
	.cfi_startproc
	stp	x29, x30, [sp, -112]!
	.cfi_def_cfa_offset 112
	.cfi_offset 29, -112
	.cfi_offset 30, -104
	mov	x29, sp
	str	x0, [sp, 40]
	str	x1, [sp, 32]
	str	x2, [sp, 24]
	str	x3, [sp, 16]
	adrp	x0, :got:__stack_chk_guard
	ldr	x0, [x0, #:got_lo12:__stack_chk_guard]
	ldr	x1, [x0]
	str	x1, [sp, 104]
	mov	x1, 0
	ldr	x2, [sp, 16]
	ldr	x1, [sp, 32]
	ldr	x0, [sp, 40]
	bl	_Z18ImLineClosestPointRK6ImVec2S1_S1_
	fmov	s2, s0
	fmov	s0, s1
	str	s2, [sp, 72]
	str	s0, [sp, 76]
	ldr	x2, [sp, 16]
	ldr	x1, [sp, 24]
	ldr	x0, [sp, 32]
	bl	_Z18ImLineClosestPointRK6ImVec2S1_S1_
	fmov	s2, s0
	fmov	s0, s1
	str	s2, [sp, 80]
	str	s0, [sp, 84]
	ldr	x2, [sp, 16]
	ldr	x1, [sp, 40]
	ldr	x0, [sp, 24]
	bl	_Z18ImLineClosestPointRK6ImVec2S1_S1_
	fmov	s2, s0
	fmov	s0, s1
	str	s2, [sp, 88]
	str	s0, [sp, 92]
	add	x0, sp, 72
	mov	x1, x0
	ldr	x0, [sp, 16]
	bl	_ZmiRK6ImVec2S1_
	fmov	s2, s0
	fmov	s0, s1
	str	s2, [sp, 96]
	str	s0, [sp, 100]
	add	x0, sp, 96
	bl	_ZL11ImLengthSqrRK6ImVec2
	str	s0, [sp, 56]
	add	x0, sp, 80
	mov	x1, x0
	ldr	x0, [sp, 16]
	bl	_ZmiRK6ImVec2S1_
	fmov	s2, s0
	fmov	s0, s1
	str	s2, [sp, 96]
	str	s0, [sp, 100]
	add	x0, sp, 96
	bl	_ZL11ImLengthSqrRK6ImVec2
	str	s0, [sp, 60]
	add	x0, sp, 88
	mov	x1, x0
	ldr	x0, [sp, 16]
	bl	_ZmiRK6ImVec2S1_
	fmov	s2, s0
	fmov	s0, s1
	str	s2, [sp, 96]
	str	s0, [sp, 100]
	add	x0, sp, 96
	bl	_ZL11ImLengthSqrRK6ImVec2
	str	s0, [sp, 64]
	ldr	s1, [sp, 64]
	ldr	s0, [sp, 60]
	bl	_Z5ImMinIfET_S0_S0_
	fmov	s1, s0
	ldr	s0, [sp, 56]
	bl	_Z5ImMinIfET_S0_S0_
	str	s0, [sp, 68]
	ldr	s1, [sp, 68]
	ldr	s0, [sp, 56]
	fcmp	s1, s0
	bne	.L700
	ldr	x0, [sp, 72]
	b	.L703
.L700:
	ldr	s1, [sp, 68]
	ldr	s0, [sp, 60]
	fcmp	s1, s0
	bne	.L702
	ldr	x0, [sp, 80]
	b	.L703
.L702:
	ldr	x0, [sp, 88]
.L703:
	mov	x1, x0
	lsr	w1, w1, 0
	lsr	x0, x0, 32
	fmov	s0, w1
	fmov	s1, w0
	adrp	x0, :got:__stack_chk_guard
	ldr	x0, [x0, #:got_lo12:__stack_chk_guard]
	ldr	x2, [sp, 104]
	ldr	x1, [x0]
	subs	x2, x2, x1
	mov	x1, 0
	beq	.L704
	bl	__stack_chk_fail
.L704:
	ldp	x29, x30, [sp], 112
	.cfi_restore 30
	.cfi_restore 29
	.cfi_def_cfa_offset 0
	ret
	.cfi_endproc
.LFE1597:
	.size	_Z22ImTriangleClosestPointRK6ImVec2S1_S1_S1_, .-_Z22ImTriangleClosestPointRK6ImVec2S1_S1_S1_
	.align	2
	.global	_Z9ImStricmpPKcS0_
	.type	_Z9ImStricmpPKcS0_, %function
_Z9ImStricmpPKcS0_:
.LFB1598:
	.cfi_startproc
	stp	x29, x30, [sp, -64]!
	.cfi_def_cfa_offset 64
	.cfi_offset 29, -64
	.cfi_offset 30, -56
	mov	x29, sp
	str	x19, [sp, 16]
	.cfi_offset 19, -48
	str	x0, [sp, 40]
	str	x1, [sp, 32]
	b	.L706
.L709:
	ldr	x0, [sp, 40]
	add	x0, x0, 1
	str	x0, [sp, 40]
	ldr	x0, [sp, 32]
	add	x0, x0, 1
	str	x0, [sp, 32]
.L706:
	ldr	x0, [sp, 32]
	ldrb	w0, [x0]
	bl	_ZL9ImToUpperc
	and	w0, w0, 255
	mov	w19, w0
	ldr	x0, [sp, 40]
	ldrb	w0, [x0]
	bl	_ZL9ImToUpperc
	and	w0, w0, 255
	sub	w0, w19, w0
	str	w0, [sp, 60]
	ldr	w0, [sp, 60]
	cmp	w0, 0
	bne	.L707
	ldr	x0, [sp, 40]
	ldrb	w0, [x0]
	cmp	w0, 0
	beq	.L707
	mov	w0, 1
	b	.L708
.L707:
	mov	w0, 0
.L708:
	cmp	w0, 0
	bne	.L709
	ldr	w0, [sp, 60]
	ldr	x19, [sp, 16]
	ldp	x29, x30, [sp], 64
	.cfi_restore 30
	.cfi_restore 29
	.cfi_restore 19
	.cfi_def_cfa_offset 0
	ret
	.cfi_endproc
.LFE1598:
	.size	_Z9ImStricmpPKcS0_, .-_Z9ImStricmpPKcS0_
	.align	2
	.global	_Z10ImStrnicmpPKcS0_m
	.type	_Z10ImStrnicmpPKcS0_m, %function
_Z10ImStrnicmpPKcS0_m:
.LFB1599:
	.cfi_startproc
	stp	x29, x30, [sp, -80]!
	.cfi_def_cfa_offset 80
	.cfi_offset 29, -80
	.cfi_offset 30, -72
	mov	x29, sp
	str	x19, [sp, 16]
	.cfi_offset 19, -64
	str	x0, [sp, 56]
	str	x1, [sp, 48]
	str	x2, [sp, 40]
	str	wzr, [sp, 76]
	b	.L712
.L715:
	ldr	x0, [sp, 56]
	add	x0, x0, 1
	str	x0, [sp, 56]
	ldr	x0, [sp, 48]
	add	x0, x0, 1
	str	x0, [sp, 48]
	ldr	x0, [sp, 40]
	sub	x0, x0, #1
	str	x0, [sp, 40]
.L712:
	ldr	x0, [sp, 40]
	cmp	x0, 0
	beq	.L713
	ldr	x0, [sp, 48]
	ldrb	w0, [x0]
	bl	_ZL9ImToUpperc
	and	w0, w0, 255
	mov	w19, w0
	ldr	x0, [sp, 56]
	ldrb	w0, [x0]
	bl	_ZL9ImToUpperc
	and	w0, w0, 255
	sub	w0, w19, w0
	str	w0, [sp, 76]
	ldr	w0, [sp, 76]
	cmp	w0, 0
	bne	.L713
	ldr	x0, [sp, 56]
	ldrb	w0, [x0]
	cmp	w0, 0
	beq	.L713
	mov	w0, 1
	b	.L714
.L713:
	mov	w0, 0
.L714:
	cmp	w0, 0
	bne	.L715
	ldr	w0, [sp, 76]
	ldr	x19, [sp, 16]
	ldp	x29, x30, [sp], 80
	.cfi_restore 30
	.cfi_restore 29
	.cfi_restore 19
	.cfi_def_cfa_offset 0
	ret
	.cfi_endproc
.LFE1599:
	.size	_Z10ImStrnicmpPKcS0_m, .-_Z10ImStrnicmpPKcS0_m
	.align	2
	.global	_Z9ImStrncpyPcPKcm
	.type	_Z9ImStrncpyPcPKcm, %function
_Z9ImStrncpyPcPKcm:
.LFB1600:
	.cfi_startproc
	stp	x29, x30, [sp, -48]!
	.cfi_def_cfa_offset 48
	.cfi_offset 29, -48
	.cfi_offset 30, -40
	mov	x29, sp
	str	x0, [sp, 40]
	str	x1, [sp, 32]
	str	x2, [sp, 24]
	ldr	x0, [sp, 24]
	cmp	x0, 0
	beq	.L721
	ldr	x0, [sp, 24]
	cmp	x0, 1
	bls	.L720
	ldr	x0, [sp, 24]
	sub	x0, x0, #1
	mov	x2, x0
	ldr	x1, [sp, 32]
	ldr	x0, [sp, 40]
	bl	strncpy
.L720:
	ldr	x0, [sp, 24]
	sub	x0, x0, #1
	ldr	x1, [sp, 40]
	add	x0, x1, x0
	strb	wzr, [x0]
	b	.L717
.L721:
	nop
.L717:
	ldp	x29, x30, [sp], 48
	.cfi_restore 30
	.cfi_restore 29
	.cfi_def_cfa_offset 0
	ret
	.cfi_endproc
.LFE1600:
	.size	_Z9ImStrncpyPcPKcm, .-_Z9ImStrncpyPcPKcm
	.align	2
	.global	_Z8ImStrdupPKc
	.type	_Z8ImStrdupPKc, %function
_Z8ImStrdupPKc:
.LFB1601:
	.cfi_startproc
	stp	x29, x30, [sp, -48]!
	.cfi_def_cfa_offset 48
	.cfi_offset 29, -48
	.cfi_offset 30, -40
	mov	x29, sp
	str	x0, [sp, 24]
	ldr	x0, [sp, 24]
	bl	strlen
	str	x0, [sp, 32]
	ldr	x0, [sp, 32]
	add	x0, x0, 1
	bl	_ZN5ImGui8MemAllocEm
	str	x0, [sp, 40]
	ldr	x0, [sp, 32]
	add	x0, x0, 1
	mov	x2, x0
	ldr	x1, [sp, 24]
	ldr	x0, [sp, 40]
	bl	memcpy
	ldp	x29, x30, [sp], 48
	.cfi_restore 30
	.cfi_restore 29
	.cfi_def_cfa_offset 0
	ret
	.cfi_endproc
.LFE1601:
	.size	_Z8ImStrdupPKc, .-_Z8ImStrdupPKc
	.align	2
	.global	_Z11ImStrdupcpyPcPmPKc
	.type	_Z11ImStrdupcpyPcPmPKc, %function
_Z11ImStrdupcpyPcPmPKc:
.LFB1602:
	.cfi_startproc
	stp	x29, x30, [sp, -64]!
	.cfi_def_cfa_offset 64
	.cfi_offset 29, -64
	.cfi_offset 30, -56
	mov	x29, sp
	str	x0, [sp, 40]
	str	x1, [sp, 32]
	str	x2, [sp, 24]
	ldr	x0, [sp, 32]
	cmp	x0, 0
	beq	.L725
	ldr	x0, [sp, 32]
	ldr	x0, [x0]
	b	.L726
.L725:
	ldr	x0, [sp, 40]
	bl	strlen
	add	x0, x0, 1
.L726:
	str	x0, [sp, 48]
	ldr	x0, [sp, 24]
	bl	strlen
	add	x0, x0, 1
	str	x0, [sp, 56]
	ldr	x1, [sp, 48]
	ldr	x0, [sp, 56]
	cmp	x1, x0
	bcs	.L727
	ldr	x0, [sp, 40]
	bl	_ZN5ImGui7MemFreeEPv
	ldr	x0, [sp, 56]
	bl	_ZN5ImGui8MemAllocEm
	str	x0, [sp, 40]
	ldr	x0, [sp, 32]
	cmp	x0, 0
	beq	.L727
	ldr	x0, [sp, 32]
	ldr	x1, [sp, 56]
	str	x1, [x0]
.L727:
	ldr	x2, [sp, 56]
	ldr	x1, [sp, 24]
	ldr	x0, [sp, 40]
	bl	memcpy
	ldp	x29, x30, [sp], 64
	.cfi_restore 30
	.cfi_restore 29
	.cfi_def_cfa_offset 0
	ret
	.cfi_endproc
.LFE1602:
	.size	_Z11ImStrdupcpyPcPmPKc, .-_Z11ImStrdupcpyPcPmPKc
	.align	2
	.global	_Z13ImStrchrRangePKcS0_c
	.type	_Z13ImStrchrRangePKcS0_c, %function
_Z13ImStrchrRangePKcS0_c:
.LFB1603:
	.cfi_startproc
	stp	x29, x30, [sp, -64]!
	.cfi_def_cfa_offset 64
	.cfi_offset 29, -64
	.cfi_offset 30, -56
	mov	x29, sp
	str	x0, [sp, 40]
	str	x1, [sp, 32]
	strb	w2, [sp, 31]
	ldrb	w3, [sp, 31]
	ldr	x1, [sp, 32]
	ldr	x0, [sp, 40]
	sub	x0, x1, x0
	mov	x2, x0
	mov	w1, w3
	ldr	x0, [sp, 40]
	bl	memchr
	str	x0, [sp, 56]
	ldr	x0, [sp, 56]
	ldp	x29, x30, [sp], 64
	.cfi_restore 30
	.cfi_restore 29
	.cfi_def_cfa_offset 0
	ret
	.cfi_endproc
.LFE1603:
	.size	_Z13ImStrchrRangePKcS0_c, .-_Z13ImStrchrRangePKcS0_c
	.align	2
	.global	_Z9ImStrlenWPKt
	.type	_Z9ImStrlenWPKt, %function
_Z9ImStrlenWPKt:
.LFB1604:
	.cfi_startproc
	sub	sp, sp, #32
	.cfi_def_cfa_offset 32
	str	x0, [sp, 8]
	str	wzr, [sp, 28]
	b	.L732
.L733:
	ldr	w0, [sp, 28]
	add	w0, w0, 1
	str	w0, [sp, 28]
.L732:
	ldr	x0, [sp, 8]
	add	x1, x0, 2
	str	x1, [sp, 8]
	ldrh	w0, [x0]
	cmp	w0, 0
	cset	w0, ne
	and	w0, w0, 255
	cmp	w0, 0
	bne	.L733
	ldr	w0, [sp, 28]
	add	sp, sp, 32
	.cfi_def_cfa_offset 0
	ret
	.cfi_endproc
.LFE1604:
	.size	_Z9ImStrlenWPKt, .-_Z9ImStrlenWPKt
	.align	2
	.global	_Z13ImStreolRangePKcS0_
	.type	_Z13ImStreolRangePKcS0_, %function
_Z13ImStreolRangePKcS0_:
.LFB1605:
	.cfi_startproc
	stp	x29, x30, [sp, -48]!
	.cfi_def_cfa_offset 48
	.cfi_offset 29, -48
	.cfi_offset 30, -40
	mov	x29, sp
	str	x0, [sp, 24]
	str	x1, [sp, 16]
	ldr	x1, [sp, 16]
	ldr	x0, [sp, 24]
	sub	x0, x1, x0
	mov	x2, x0
	mov	w1, 10
	ldr	x0, [sp, 24]
	bl	memchr
	str	x0, [sp, 40]
	ldr	x0, [sp, 40]
	cmp	x0, 0
	beq	.L736
	ldr	x0, [sp, 40]
	b	.L738
.L736:
	ldr	x0, [sp, 16]
.L738:
	ldp	x29, x30, [sp], 48
	.cfi_restore 30
	.cfi_restore 29
	.cfi_def_cfa_offset 0
	ret
	.cfi_endproc
.LFE1605:
	.size	_Z13ImStreolRangePKcS0_, .-_Z13ImStreolRangePKcS0_
	.align	2
	.global	_Z9ImStrbolWPKtS0_
	.type	_Z9ImStrbolWPKtS0_, %function
_Z9ImStrbolWPKtS0_:
.LFB1606:
	.cfi_startproc
	sub	sp, sp, #16
	.cfi_def_cfa_offset 16
	str	x0, [sp, 8]
	str	x1, [sp]
	b	.L740
.L742:
	ldr	x0, [sp, 8]
	sub	x0, x0, #2
	str	x0, [sp, 8]
.L740:
	ldr	x1, [sp, 8]
	ldr	x0, [sp]
	cmp	x1, x0
	bls	.L741
	ldr	x0, [sp, 8]
	sub	x0, x0, #2
	ldrh	w0, [x0]
	cmp	w0, 10
	bne	.L742
.L741:
	ldr	x0, [sp, 8]
	add	sp, sp, 16
	.cfi_def_cfa_offset 0
	ret
	.cfi_endproc
.LFE1606:
	.size	_Z9ImStrbolWPKtS0_, .-_Z9ImStrbolWPKtS0_
	.align	2
	.global	_Z9ImStristrPKcS0_S0_S0_
	.type	_Z9ImStristrPKcS0_S0_S0_, %function
_Z9ImStristrPKcS0_S0_S0_:
.LFB1607:
	.cfi_startproc
	stp	x29, x30, [sp, -96]!
	.cfi_def_cfa_offset 96
	.cfi_offset 29, -96
	.cfi_offset 30, -88
	mov	x29, sp
	str	x19, [sp, 16]
	.cfi_offset 19, -80
	str	x0, [sp, 56]
	str	x1, [sp, 48]
	str	x2, [sp, 40]
	str	x3, [sp, 32]
	ldr	x0, [sp, 32]
	cmp	x0, 0
	bne	.L745
	ldr	x0, [sp, 40]
	bl	strlen
	mov	x1, x0
	ldr	x0, [sp, 40]
	add	x0, x0, x1
	str	x0, [sp, 32]
.L745:
	ldr	x0, [sp, 40]
	ldrb	w0, [x0]
	bl	_ZL9ImToUpperc
	strb	w0, [sp, 79]
	b	.L746
.L754:
	ldr	x0, [sp, 56]
	ldrb	w0, [x0]
	bl	_ZL9ImToUpperc
	and	w0, w0, 255
	ldrb	w1, [sp, 79]
	cmp	w1, w0
	cset	w0, eq
	and	w0, w0, 255
	cmp	w0, 0
	beq	.L747
	ldr	x0, [sp, 40]
	add	x0, x0, 1
	str	x0, [sp, 80]
	ldr	x0, [sp, 56]
	add	x0, x0, 1
	str	x0, [sp, 88]
	b	.L748
.L751:
	ldr	x0, [sp, 88]
	ldrb	w0, [x0]
	bl	_ZL9ImToUpperc
	and	w19, w0, 255
	ldr	x0, [sp, 80]
	ldrb	w0, [x0]
	bl	_ZL9ImToUpperc
	and	w0, w0, 255
	cmp	w19, w0
	cset	w0, ne
	and	w0, w0, 255
	cmp	w0, 0
	bne	.L756
	ldr	x0, [sp, 88]
	add	x0, x0, 1
	str	x0, [sp, 88]
	ldr	x0, [sp, 80]
	add	x0, x0, 1
	str	x0, [sp, 80]
.L748:
	ldr	x1, [sp, 80]
	ldr	x0, [sp, 32]
	cmp	x1, x0
	bcc	.L751
	b	.L750
.L756:
	nop
.L750:
	ldr	x1, [sp, 80]
	ldr	x0, [sp, 32]
	cmp	x1, x0
	bne	.L747
	ldr	x0, [sp, 56]
	b	.L752
.L747:
	ldr	x0, [sp, 56]
	add	x0, x0, 1
	str	x0, [sp, 56]
.L746:
	ldr	x0, [sp, 48]
	cmp	x0, 0
	bne	.L753
	ldr	x0, [sp, 56]
	ldrb	w0, [x0]
	cmp	w0, 0
	bne	.L754
.L753:
	ldr	x0, [sp, 48]
	cmp	x0, 0
	beq	.L755
	ldr	x1, [sp, 56]
	ldr	x0, [sp, 48]
	cmp	x1, x0
	bcc	.L754
.L755:
	mov	x0, 0
.L752:
	ldr	x19, [sp, 16]
	ldp	x29, x30, [sp], 96
	.cfi_restore 30
	.cfi_restore 29
	.cfi_restore 19
	.cfi_def_cfa_offset 0
	ret
	.cfi_endproc
.LFE1607:
	.size	_Z9ImStristrPKcS0_S0_S0_, .-_Z9ImStristrPKcS0_S0_S0_
	.align	2
	.global	_Z15ImStrTrimBlanksPc
	.type	_Z15ImStrTrimBlanksPc, %function
_Z15ImStrTrimBlanksPc:
.LFB1608:
	.cfi_startproc
	stp	x29, x30, [sp, -48]!
	.cfi_def_cfa_offset 48
	.cfi_offset 29, -48
	.cfi_offset 30, -40
	mov	x29, sp
	str	x0, [sp, 24]
	ldr	x0, [sp, 24]
	str	x0, [sp, 32]
	b	.L758
.L759:
	ldr	x0, [sp, 32]
	add	x0, x0, 1
	str	x0, [sp, 32]
.L758:
	ldr	x0, [sp, 32]
	ldrb	w0, [x0]
	cmp	w0, 32
	beq	.L759
	ldr	x0, [sp, 32]
	ldrb	w0, [x0]
	cmp	w0, 9
	beq	.L759
	ldr	x0, [sp, 32]
	str	x0, [sp, 40]
	b	.L760
.L761:
	ldr	x0, [sp, 32]
	add	x0, x0, 1
	str	x0, [sp, 32]
.L760:
	ldr	x0, [sp, 32]
	ldrb	w0, [x0]
	cmp	w0, 0
	bne	.L761
	b	.L762
.L764:
	ldr	x0, [sp, 32]
	sub	x0, x0, #1
	str	x0, [sp, 32]
.L762:
	ldr	x1, [sp, 32]
	ldr	x0, [sp, 40]
	cmp	x1, x0
	bls	.L763
	ldr	x0, [sp, 32]
	sub	x0, x0, #1
	ldrb	w0, [x0]
	cmp	w0, 32
	beq	.L764
	ldr	x0, [sp, 32]
	sub	x0, x0, #1
	ldrb	w0, [x0]
	cmp	w0, 9
	beq	.L764
.L763:
	ldr	x1, [sp, 40]
	ldr	x0, [sp, 24]
	cmp	x1, x0
	beq	.L765
	ldr	x1, [sp, 32]
	ldr	x0, [sp, 40]
	sub	x0, x1, x0
	mov	x2, x0
	ldr	x1, [sp, 40]
	ldr	x0, [sp, 24]
	bl	memmove
.L765:
	ldr	x1, [sp, 32]
	ldr	x0, [sp, 40]
	sub	x0, x1, x0
	mov	x1, x0
	ldr	x0, [sp, 24]
	add	x0, x0, x1
	strb	wzr, [x0]
	nop
	ldp	x29, x30, [sp], 48
	.cfi_restore 30
	.cfi_restore 29
	.cfi_def_cfa_offset 0
	ret
	.cfi_endproc
.LFE1608:
	.size	_Z15ImStrTrimBlanksPc, .-_Z15ImStrTrimBlanksPc
	.align	2
	.global	_Z14ImStrSkipBlankPKc
	.type	_Z14ImStrSkipBlankPKc, %function
_Z14ImStrSkipBlankPKc:
.LFB1609:
	.cfi_startproc
	sub	sp, sp, #16
	.cfi_def_cfa_offset 16
	str	x0, [sp, 8]
	b	.L767
.L768:
	ldr	x0, [sp, 8]
	add	x0, x0, 1
	str	x0, [sp, 8]
.L767:
	ldr	x0, [sp, 8]
	ldrb	w0, [x0]
	cmp	w0, 32
	beq	.L768
	ldr	x0, [sp, 8]
	ldrb	w0, [x0]
	cmp	w0, 9
	beq	.L768
	ldr	x0, [sp, 8]
	add	sp, sp, 16
	.cfi_def_cfa_offset 0
	ret
	.cfi_endproc
.LFE1609:
	.size	_Z14ImStrSkipBlankPKc, .-_Z14ImStrSkipBlankPKc
	.align	2
	.global	_Z14ImFormatStringPcmPKcz
	.type	_Z14ImFormatStringPcmPKcz, %function
_Z14ImFormatStringPcmPKcz:
.LFB1610:
	.cfi_startproc
	stp	x29, x30, [sp, -304]!
	.cfi_def_cfa_offset 304
	.cfi_offset 29, -304
	.cfi_offset 30, -296
	mov	x29, sp
	str	x0, [sp, 72]
	str	x1, [sp, 64]
	str	x2, [sp, 56]
	str	x3, [sp, 264]
	str	x4, [sp, 272]
	str	x5, [sp, 280]
	str	x6, [sp, 288]
	str	x7, [sp, 296]
	str	q0, [sp, 128]
	str	q1, [sp, 144]
	str	q2, [sp, 160]
	str	q3, [sp, 176]
	str	q4, [sp, 192]
	str	q5, [sp, 208]
	str	q6, [sp, 224]
	str	q7, [sp, 240]
	adrp	x0, :got:__stack_chk_guard
	ldr	x0, [x0, #:got_lo12:__stack_chk_guard]
	ldr	x1, [x0]
	str	x1, [sp, 120]
	mov	x1, 0
	add	x0, sp, 304
	str	x0, [sp, 88]
	add	x0, sp, 304
	str	x0, [sp, 96]
	add	x0, sp, 256
	str	x0, [sp, 104]
	mov	w0, -40
	str	w0, [sp, 112]
	mov	w0, -128
	str	w0, [sp, 116]
	add	x0, sp, 16
	add	x1, sp, 88
	ldp	q0, q1, [x1]
	stp	q0, q1, [x0]
	add	x0, sp, 16
	mov	x3, x0
	ldr	x2, [sp, 56]
	ldr	x1, [sp, 64]
	ldr	x0, [sp, 72]
	bl	vsnprintf
	str	w0, [sp, 84]
	ldr	x0, [sp, 72]
	cmp	x0, 0
	bne	.L771
	ldr	w0, [sp, 84]
	b	.L775
.L771:
	ldr	w0, [sp, 84]
	cmn	w0, #1
	beq	.L773
	ldr	x0, [sp, 64]
	mov	w1, w0
	ldr	w0, [sp, 84]
	cmp	w0, w1
	blt	.L774
.L773:
	ldr	x0, [sp, 64]
	sub	w0, w0, #1
	str	w0, [sp, 84]
.L774:
	ldrsw	x0, [sp, 84]
	ldr	x1, [sp, 72]
	add	x0, x1, x0
	strb	wzr, [x0]
	ldr	w0, [sp, 84]
.L775:
	mov	w1, w0
	adrp	x0, :got:__stack_chk_guard
	ldr	x0, [x0, #:got_lo12:__stack_chk_guard]
	ldr	x3, [sp, 120]
	ldr	x2, [x0]
	subs	x3, x3, x2
	mov	x2, 0
	beq	.L776
	bl	__stack_chk_fail
.L776:
	mov	w0, w1
	ldp	x29, x30, [sp], 304
	.cfi_restore 30
	.cfi_restore 29
	.cfi_def_cfa_offset 0
	ret
	.cfi_endproc
.LFE1610:
	.size	_Z14ImFormatStringPcmPKcz, .-_Z14ImFormatStringPcmPKcz
	.align	2
	.global	_Z15ImFormatStringVPcmPKcSt9__va_list
	.type	_Z15ImFormatStringVPcmPKcSt9__va_list, %function
_Z15ImFormatStringVPcmPKcSt9__va_list:
.LFB1611:
	.cfi_startproc
	stp	x29, x30, [sp, -112]!
	.cfi_def_cfa_offset 112
	.cfi_offset 29, -112
	.cfi_offset 30, -104
	mov	x29, sp
	str	x19, [sp, 16]
	.cfi_offset 19, -96
	str	x0, [sp, 88]
	str	x1, [sp, 80]
	str	x2, [sp, 72]
	mov	x19, x3
	add	x0, sp, 32
	mov	x1, x19
	ldp	q0, q1, [x1]
	stp	q0, q1, [x0]
	add	x0, sp, 32
	mov	x3, x0
	ldr	x2, [sp, 72]
	ldr	x1, [sp, 80]
	ldr	x0, [sp, 88]
	bl	vsnprintf
	str	w0, [sp, 108]
	ldr	x0, [sp, 88]
	cmp	x0, 0
	bne	.L778
	ldr	w0, [sp, 108]
	b	.L779
.L778:
	ldr	w0, [sp, 108]
	cmn	w0, #1
	beq	.L780
	ldr	x0, [sp, 80]
	mov	w1, w0
	ldr	w0, [sp, 108]
	cmp	w0, w1
	blt	.L781
.L780:
	ldr	x0, [sp, 80]
	sub	w0, w0, #1
	str	w0, [sp, 108]
.L781:
	ldrsw	x0, [sp, 108]
	ldr	x1, [sp, 88]
	add	x0, x1, x0
	strb	wzr, [x0]
	ldr	w0, [sp, 108]
.L779:
	ldr	x19, [sp, 16]
	ldp	x29, x30, [sp], 112
	.cfi_restore 30
	.cfi_restore 29
	.cfi_restore 19
	.cfi_def_cfa_offset 0
	ret
	.cfi_endproc
.LFE1611:
	.size	_Z15ImFormatStringVPcmPKcSt9__va_list, .-_Z15ImFormatStringVPcmPKcSt9__va_list
	.align	2
	.global	_Z26ImFormatStringToTempBufferPPKcS1_S0_z
	.type	_Z26ImFormatStringToTempBufferPPKcS1_S0_z, %function
_Z26ImFormatStringToTempBufferPPKcS1_S0_z:
.LFB1612:
	.cfi_startproc
	stp	x29, x30, [sp, -320]!
	.cfi_def_cfa_offset 320
	.cfi_offset 29, -320
	.cfi_offset 30, -312
	mov	x29, sp
	str	x0, [sp, 72]
	str	x1, [sp, 64]
	str	x2, [sp, 56]
	str	x3, [sp, 280]
	str	x4, [sp, 288]
	str	x5, [sp, 296]
	str	x6, [sp, 304]
	str	x7, [sp, 312]
	str	q0, [sp, 144]
	str	q1, [sp, 160]
	str	q2, [sp, 176]
	str	q3, [sp, 192]
	str	q4, [sp, 208]
	str	q5, [sp, 224]
	str	q6, [sp, 240]
	str	q7, [sp, 256]
	adrp	x0, :got:__stack_chk_guard
	ldr	x0, [x0, #:got_lo12:__stack_chk_guard]
	ldr	x1, [x0]
	str	x1, [sp, 136]
	mov	x1, 0
	adrp	x0, GImGui
	add	x0, x0, :lo12:GImGui
	ldr	x0, [x0]
	str	x0, [sp, 96]
	add	x0, sp, 320
	str	x0, [sp, 104]
	add	x0, sp, 320
	str	x0, [sp, 112]
	add	x0, sp, 272
	str	x0, [sp, 120]
	mov	w0, -40
	str	w0, [sp, 128]
	mov	w0, -128
	str	w0, [sp, 132]
	ldr	x0, [sp, 96]
	ldr	x4, [x0, 23976]
	ldr	x0, [sp, 96]
	add	x0, x0, 16384
	ldr	w0, [x0, 7584]
	sxtw	x5, w0
	add	x0, sp, 16
	add	x1, sp, 104
	ldp	q0, q1, [x1]
	stp	q0, q1, [x0]
	add	x0, sp, 16
	mov	x3, x0
	ldr	x2, [sp, 56]
	mov	x1, x5
	mov	x0, x4
	bl	_Z15ImFormatStringVPcmPKcSt9__va_list
	str	w0, [sp, 92]
	ldr	x0, [sp, 96]
	ldr	x1, [x0, 23976]
	ldr	x0, [sp, 72]
	str	x1, [x0]
	ldr	x0, [sp, 64]
	cmp	x0, 0
	beq	.L785
	ldr	x0, [sp, 96]
	ldr	x1, [x0, 23976]
	ldrsw	x0, [sp, 92]
	add	x1, x1, x0
	ldr	x0, [sp, 64]
	str	x1, [x0]
.L785:
	nop
	adrp	x0, :got:__stack_chk_guard
	ldr	x0, [x0, #:got_lo12:__stack_chk_guard]
	ldr	x2, [sp, 136]
	ldr	x1, [x0]
	subs	x2, x2, x1
	mov	x1, 0
	beq	.L784
	bl	__stack_chk_fail
.L784:
	ldp	x29, x30, [sp], 320
	.cfi_restore 30
	.cfi_restore 29
	.cfi_def_cfa_offset 0
	ret
	.cfi_endproc
.LFE1612:
	.size	_Z26ImFormatStringToTempBufferPPKcS1_S0_z, .-_Z26ImFormatStringToTempBufferPPKcS1_S0_z
	.align	2
	.global	_Z27ImFormatStringToTempBufferVPPKcS1_S0_St9__va_list
	.type	_Z27ImFormatStringToTempBufferVPPKcS1_S0_St9__va_list, %function
_Z27ImFormatStringToTempBufferVPPKcS1_S0_St9__va_list:
.LFB1613:
	.cfi_startproc
	stp	x29, x30, [sp, -112]!
	.cfi_def_cfa_offset 112
	.cfi_offset 29, -112
	.cfi_offset 30, -104
	mov	x29, sp
	str	x19, [sp, 16]
	.cfi_offset 19, -96
	str	x0, [sp, 88]
	str	x1, [sp, 80]
	str	x2, [sp, 72]
	mov	x19, x3
	adrp	x0, GImGui
	add	x0, x0, :lo12:GImGui
	ldr	x0, [x0]
	str	x0, [sp, 104]
	ldr	x0, [sp, 104]
	ldr	x4, [x0, 23976]
	ldr	x0, [sp, 104]
	add	x0, x0, 16384
	ldr	w0, [x0, 7584]
	sxtw	x5, w0
	add	x0, sp, 32
	mov	x1, x19
	ldp	q0, q1, [x1]
	stp	q0, q1, [x0]
	add	x0, sp, 32
	mov	x3, x0
	ldr	x2, [sp, 72]
	mov	x1, x5
	mov	x0, x4
	bl	_Z15ImFormatStringVPcmPKcSt9__va_list
	str	w0, [sp, 100]
	ldr	x0, [sp, 104]
	ldr	x1, [x0, 23976]
	ldr	x0, [sp, 88]
	str	x1, [x0]
	ldr	x0, [sp, 80]
	cmp	x0, 0
	beq	.L788
	ldr	x0, [sp, 104]
	ldr	x1, [x0, 23976]
	ldrsw	x0, [sp, 100]
	add	x1, x1, x0
	ldr	x0, [sp, 80]
	str	x1, [x0]
.L788:
	nop
	ldr	x19, [sp, 16]
	ldp	x29, x30, [sp], 112
	.cfi_restore 30
	.cfi_restore 29
	.cfi_restore 19
	.cfi_def_cfa_offset 0
	ret
	.cfi_endproc
.LFE1613:
	.size	_Z27ImFormatStringToTempBufferVPPKcS1_S0_St9__va_list, .-_Z27ImFormatStringToTempBufferVPPKcS1_S0_St9__va_list
	.section	.rodata
	.align	3
	.type	_ZL17GCrc32LookupTable, %object
	.size	_ZL17GCrc32LookupTable, 1024
_ZL17GCrc32LookupTable:
	.word	0
	.word	1996959894
	.word	-301047508
