	.arch armv8-a
	.file	"imgui_widgets.cpp"
	.text
	.section	.text._ZN6ImVec2C2Ev,"axG",@progbits,_ZN6ImVec2C5Ev,comdat
	.align	2
	.weak	_ZN6ImVec2C2Ev
	.type	_ZN6ImVec2C2Ev, %function
_ZN6ImVec2C2Ev:
.LFB1:
	.cfi_startproc
	sub	sp, sp, #16
	.cfi_def_cfa_offset 16
	str	x0, [sp, 8]
	ldr	x0, [sp, 8]
	str	wzr, [x0]
	ldr	x0, [sp, 8]
	str	wzr, [x0, 4]
	nop
	add	sp, sp, 16
	.cfi_def_cfa_offset 0
	ret
	.cfi_endproc
.LFE1:
	.size	_ZN6ImVec2C2Ev, .-_ZN6ImVec2C2Ev
	.weak	_ZN6ImVec2C1Ev
	.set	_ZN6ImVec2C1Ev,_ZN6ImVec2C2Ev
	.section	.text._ZN6ImVec2C2Eff,"axG",@progbits,_ZN6ImVec2C5Eff,comdat
	.align	2
	.weak	_ZN6ImVec2C2Eff
	.type	_ZN6ImVec2C2Eff, %function
_ZN6ImVec2C2Eff:
.LFB4:
	.cfi_startproc
	sub	sp, sp, #16
	.cfi_def_cfa_offset 16
	str	x0, [sp, 8]
	str	s0, [sp, 4]
	str	s1, [sp]
	ldr	x0, [sp, 8]
	ldr	s0, [sp, 4]
	str	s0, [x0]
	ldr	x0, [sp, 8]
	ldr	s0, [sp]
	str	s0, [x0, 4]
	nop
	add	sp, sp, 16
	.cfi_def_cfa_offset 0
	ret
	.cfi_endproc
.LFE4:
	.size	_ZN6ImVec2C2Eff, .-_ZN6ImVec2C2Eff
	.weak	_ZN6ImVec2C1Eff
	.set	_ZN6ImVec2C1Eff,_ZN6ImVec2C2Eff
	.section	.rodata
	.align	3
.LC0:
	.string	"float ImVec2::operator[](size_t) const"
	.align	3
.LC1:
	.string	"/media/psf/Home/Desktop/git/C-/mac/myproject/external/imgui/include/imgui.h"
	.align	3
.LC2:
	.string	"idx <= 1"
	.section	.text._ZNK6ImVec2ixEm,"axG",@progbits,_ZNK6ImVec2ixEm,comdat
	.align	2
	.weak	_ZNK6ImVec2ixEm
	.type	_ZNK6ImVec2ixEm, %function
_ZNK6ImVec2ixEm:
.LFB6:
	.cfi_startproc
	stp	x29, x30, [sp, -32]!
	.cfi_def_cfa_offset 32
	.cfi_offset 29, -32
	.cfi_offset 30, -24
	mov	x29, sp
	str	x0, [sp, 24]
	str	x1, [sp, 16]
	ldr	x0, [sp, 16]
	cmp	x0, 1
	bls	.L4
	adrp	x0, .LC0
	add	x3, x0, :lo12:.LC0
	mov	w2, 258
	adrp	x0, .LC1
	add	x1, x0, :lo12:.LC1
	adrp	x0, .LC2
	add	x0, x0, :lo12:.LC2
	bl	__assert_fail
.L4:
	ldr	x1, [sp, 24]
	ldr	x0, [sp, 16]
	lsl	x0, x0, 2
	add	x0, x1, x0
	ldr	s0, [x0]
	ldp	x29, x30, [sp], 32
	.cfi_restore 30
	.cfi_restore 29
	.cfi_def_cfa_offset 0
	ret
	.cfi_endproc
.LFE6:
	.size	_ZNK6ImVec2ixEm, .-_ZNK6ImVec2ixEm
	.section	.rodata
	.align	3
.LC3:
	.string	"float& ImVec2::operator[](size_t)"
	.section	.text._ZN6ImVec2ixEm,"axG",@progbits,_ZN6ImVec2ixEm,comdat
	.align	2
	.weak	_ZN6ImVec2ixEm
	.type	_ZN6ImVec2ixEm, %function
_ZN6ImVec2ixEm:
.LFB7:
	.cfi_startproc
	stp	x29, x30, [sp, -32]!
	.cfi_def_cfa_offset 32
	.cfi_offset 29, -32
	.cfi_offset 30, -24
	mov	x29, sp
	str	x0, [sp, 24]
	str	x1, [sp, 16]
	ldr	x0, [sp, 16]
	cmp	x0, 1
	bls	.L7
	adrp	x0, .LC3
	add	x3, x0, :lo12:.LC3
	mov	w2, 259
	adrp	x0, .LC1
	add	x1, x0, :lo12:.LC1
	adrp	x0, .LC2
	add	x0, x0, :lo12:.LC2
	bl	__assert_fail
.L7:
	ldr	x1, [sp, 24]
	ldr	x0, [sp, 16]
	lsl	x0, x0, 2
	add	x0, x1, x0
	ldp	x29, x30, [sp], 32
	.cfi_restore 30
	.cfi_restore 29
	.cfi_def_cfa_offset 0
	ret
	.cfi_endproc
.LFE7:
	.size	_ZN6ImVec2ixEm, .-_ZN6ImVec2ixEm
	.section	.text._ZN6ImVec4C2Effff,"axG",@progbits,_ZN6ImVec4C5Effff,comdat
	.align	2
	.weak	_ZN6ImVec4C2Effff
	.type	_ZN6ImVec4C2Effff, %function
_ZN6ImVec4C2Effff:
.LFB12:
	.cfi_startproc
	sub	sp, sp, #32
	.cfi_def_cfa_offset 32
	str	x0, [sp, 24]
	str	s0, [sp, 20]
	str	s1, [sp, 16]
	str	s2, [sp, 12]
	str	s3, [sp, 8]
	ldr	x0, [sp, 24]
	ldr	s0, [sp, 20]
	str	s0, [x0]
	ldr	x0, [sp, 24]
	ldr	s0, [sp, 16]
	str	s0, [x0, 4]
	ldr	x0, [sp, 24]
	ldr	s0, [sp, 12]
	str	s0, [x0, 8]
	ldr	x0, [sp, 24]
	ldr	s0, [sp, 8]
	str	s0, [x0, 12]
	nop
	add	sp, sp, 32
	.cfi_def_cfa_offset 0
	ret
	.cfi_endproc
.LFE12:
	.size	_ZN6ImVec4C2Effff, .-_ZN6ImVec4C2Effff
	.weak	_ZN6ImVec4C1Effff
	.set	_ZN6ImVec4C1Effff,_ZN6ImVec4C2Effff
	.section	.text._Znwm12ImNewWrapperPv,"axG",@progbits,_Znwm12ImNewWrapperPv,comdat
	.align	2
	.weak	_Znwm12ImNewWrapperPv
	.type	_Znwm12ImNewWrapperPv, %function
_Znwm12ImNewWrapperPv:
.LFB14:
	.cfi_startproc
	sub	sp, sp, #32
	.cfi_def_cfa_offset 32
	str	x0, [sp, 24]
	strb	w1, [sp, 16]
	str	x2, [sp, 8]
	ldr	x0, [sp, 8]
	add	sp, sp, 32
	.cfi_def_cfa_offset 0
	ret
	.cfi_endproc
.LFE14:
	.size	_Znwm12ImNewWrapperPv, .-_Znwm12ImNewWrapperPv
	.section	.text._ZdlPv12ImNewWrapperS_,"axG",@progbits,_ZdlPv12ImNewWrapperS_,comdat
	.align	2
	.weak	_ZdlPv12ImNewWrapperS_
	.type	_ZdlPv12ImNewWrapperS_, %function
_ZdlPv12ImNewWrapperS_:
.LFB15:
	.cfi_startproc
	sub	sp, sp, #32
	.cfi_def_cfa_offset 32
	str	x0, [sp, 24]
	strb	w1, [sp, 16]
	str	x2, [sp, 8]
	nop
	add	sp, sp, 32
	.cfi_def_cfa_offset 0
	ret
	.cfi_endproc
.LFE15:
	.size	_ZdlPv12ImNewWrapperS_, .-_ZdlPv12ImNewWrapperS_
	.section	.text._ZN15ImGuiTextBufferC2Ev,"axG",@progbits,_ZN15ImGuiTextBufferC5Ev,comdat
	.align	2
	.weak	_ZN15ImGuiTextBufferC2Ev
	.type	_ZN15ImGuiTextBufferC2Ev, %function
_ZN15ImGuiTextBufferC2Ev:
.LFB89:
	.cfi_startproc
	stp	x29, x30, [sp, -32]!
	.cfi_def_cfa_offset 32
	.cfi_offset 29, -32
	.cfi_offset 30, -24
	mov	x29, sp
	str	x0, [sp, 24]
	ldr	x0, [sp, 24]
	bl	_ZN8ImVectorIcEC1Ev
	nop
	ldp	x29, x30, [sp], 32
	.cfi_restore 30
	.cfi_restore 29
	.cfi_def_cfa_offset 0
	ret
	.cfi_endproc
.LFE89:
	.size	_ZN15ImGuiTextBufferC2Ev, .-_ZN15ImGuiTextBufferC2Ev
	.weak	_ZN15ImGuiTextBufferC1Ev
	.set	_ZN15ImGuiTextBufferC1Ev,_ZN15ImGuiTextBufferC2Ev
	.section	.text._ZNK15ImGuiTextBuffer4sizeEv,"axG",@progbits,_ZNK15ImGuiTextBuffer4sizeEv,comdat
	.align	2
	.weak	_ZNK15ImGuiTextBuffer4sizeEv
	.type	_ZNK15ImGuiTextBuffer4sizeEv, %function
_ZNK15ImGuiTextBuffer4sizeEv:
.LFB94:
	.cfi_startproc
	sub	sp, sp, #16
	.cfi_def_cfa_offset 16
	str	x0, [sp, 8]
	ldr	x0, [sp, 8]
	ldr	w0, [x0]
	cmp	w0, 0
	beq	.L15
	ldr	x0, [sp, 8]
	ldr	w0, [x0]
	sub	w0, w0, #1
	b	.L17
.L15:
	mov	w0, 0
.L17:
	add	sp, sp, 16
	.cfi_def_cfa_offset 0
	ret
	.cfi_endproc
.LFE94:
	.size	_ZNK15ImGuiTextBuffer4sizeEv, .-_ZNK15ImGuiTextBuffer4sizeEv
	.section	.text._ZN10ImDrawList10PathLineToERK6ImVec2,"axG",@progbits,_ZN10ImDrawList10PathLineToERK6ImVec2,comdat
	.align	2
	.weak	_ZN10ImDrawList10PathLineToERK6ImVec2
	.type	_ZN10ImDrawList10PathLineToERK6ImVec2, %function
_ZN10ImDrawList10PathLineToERK6ImVec2:
.LFB154:
	.cfi_startproc
	stp	x29, x30, [sp, -32]!
	.cfi_def_cfa_offset 32
	.cfi_offset 29, -32
	.cfi_offset 30, -24
	mov	x29, sp
	str	x0, [sp, 24]
	str	x1, [sp, 16]
	ldr	x0, [sp, 24]
	add	x0, x0, 120
	ldr	x1, [sp, 16]
	bl	_ZN8ImVectorI6ImVec2E9push_backERKS0_
	nop
	ldp	x29, x30, [sp], 32
	.cfi_restore 30
	.cfi_restore 29
	.cfi_def_cfa_offset 0
	ret
	.cfi_endproc
.LFE154:
	.size	_ZN10ImDrawList10PathLineToERK6ImVec2, .-_ZN10ImDrawList10PathLineToERK6ImVec2
	.section	.text._ZN10ImDrawList14PathFillConvexEj,"axG",@progbits,_ZN10ImDrawList14PathFillConvexEj,comdat
	.align	2
	.weak	_ZN10ImDrawList14PathFillConvexEj
	.type	_ZN10ImDrawList14PathFillConvexEj, %function
_ZN10ImDrawList14PathFillConvexEj:
.LFB156:
	.cfi_startproc
	stp	x29, x30, [sp, -32]!
	.cfi_def_cfa_offset 32
	.cfi_offset 29, -32
	.cfi_offset 30, -24
	mov	x29, sp
	str	x0, [sp, 24]
	str	w1, [sp, 20]
	ldr	x0, [sp, 24]
	ldr	x1, [x0, 128]
	ldr	x0, [sp, 24]
	ldr	w0, [x0, 120]
	ldr	w3, [sp, 20]
	mov	w2, w0
	ldr	x0, [sp, 24]
	bl	_ZN10ImDrawList19AddConvexPolyFilledEPK6ImVec2ij
	ldr	x0, [sp, 24]
	str	wzr, [x0, 120]
	nop
	ldp	x29, x30, [sp], 32
	.cfi_restore 30
	.cfi_restore 29
	.cfi_def_cfa_offset 0
	ret
	.cfi_endproc
.LFE156:
	.size	_ZN10ImDrawList14PathFillConvexEj, .-_ZN10ImDrawList14PathFillConvexEj
	.section	.text._ZN10ImDrawList10PathStrokeEjif,"axG",@progbits,_ZN10ImDrawList10PathStrokeEjif,comdat
	.align	2
	.weak	_ZN10ImDrawList10PathStrokeEjif
	.type	_ZN10ImDrawList10PathStrokeEjif, %function
_ZN10ImDrawList10PathStrokeEjif:
.LFB157:
	.cfi_startproc
	stp	x29, x30, [sp, -48]!
	.cfi_def_cfa_offset 48
	.cfi_offset 29, -48
	.cfi_offset 30, -40
	mov	x29, sp
	str	x0, [sp, 40]
	str	w1, [sp, 36]
	str	w2, [sp, 32]
	str	s0, [sp, 28]
	ldr	x0, [sp, 40]
	ldr	x1, [x0, 128]
	ldr	x0, [sp, 40]
	ldr	w0, [x0, 120]
	ldr	s0, [sp, 28]
	ldr	w4, [sp, 32]
	ldr	w3, [sp, 36]
	mov	w2, w0
	ldr	x0, [sp, 40]
	bl	_ZN10ImDrawList11AddPolylineEPK6ImVec2ijif
	ldr	x0, [sp, 40]
	str	wzr, [x0, 120]
	nop
	ldp	x29, x30, [sp], 48
	.cfi_restore 30
	.cfi_restore 29
	.cfi_def_cfa_offset 0
	ret
	.cfi_endproc
.LFE157:
	.size	_ZN10ImDrawList10PathStrokeEjif, .-_ZN10ImDrawList10PathStrokeEjif
	.section	.text._ZN10ImDrawList12PrimWriteVtxERK6ImVec2S2_j,"axG",@progbits,_ZN10ImDrawList12PrimWriteVtxERK6ImVec2S2_j,comdat
	.align	2
	.weak	_ZN10ImDrawList12PrimWriteVtxERK6ImVec2S2_j
	.type	_ZN10ImDrawList12PrimWriteVtxERK6ImVec2S2_j, %function
_ZN10ImDrawList12PrimWriteVtxERK6ImVec2S2_j:
.LFB161:
	.cfi_startproc
	sub	sp, sp, #32
	.cfi_def_cfa_offset 32
	str	x0, [sp, 24]
	str	x1, [sp, 16]
	str	x2, [sp, 8]
	str	w3, [sp, 4]
	ldr	x0, [sp, 24]
	ldr	x0, [x0, 72]
	ldr	x1, [sp, 16]
	ldr	x1, [x1]
	str	x1, [x0]
	ldr	x0, [sp, 24]
	ldr	x0, [x0, 72]
	ldr	x1, [sp, 8]
	ldr	x1, [x1]
	str	x1, [x0, 8]
	ldr	x0, [sp, 24]
	ldr	x0, [x0, 72]
	ldr	w1, [sp, 4]
	str	w1, [x0, 16]
	ldr	x0, [sp, 24]
	ldr	x0, [x0, 72]
	add	x1, x0, 20
	ldr	x0, [sp, 24]
	str	x1, [x0, 72]
	ldr	x0, [sp, 24]
	ldr	w0, [x0, 52]
	add	w1, w0, 1
	ldr	x0, [sp, 24]
	str	w1, [x0, 52]
	nop
	add	sp, sp, 32
	.cfi_def_cfa_offset 0
	ret
	.cfi_endproc
.LFE161:
	.size	_ZN10ImDrawList12PrimWriteVtxERK6ImVec2S2_j, .-_ZN10ImDrawList12PrimWriteVtxERK6ImVec2S2_j
	.section	.text._ZN10ImDrawList12PrimWriteIdxEt,"axG",@progbits,_ZN10ImDrawList12PrimWriteIdxEt,comdat
	.align	2
	.weak	_ZN10ImDrawList12PrimWriteIdxEt
	.type	_ZN10ImDrawList12PrimWriteIdxEt, %function
_ZN10ImDrawList12PrimWriteIdxEt:
.LFB162:
	.cfi_startproc
	sub	sp, sp, #16
	.cfi_def_cfa_offset 16
	str	x0, [sp, 8]
	strh	w1, [sp, 6]
	ldr	x0, [sp, 8]
	ldr	x0, [x0, 80]
	ldrh	w1, [sp, 6]
	strh	w1, [x0]
	ldr	x0, [sp, 8]
	ldr	x0, [x0, 80]
	add	x1, x0, 2
	ldr	x0, [sp, 8]
	str	x1, [x0, 80]
	nop
	add	sp, sp, 16
	.cfi_def_cfa_offset 0
	ret
	.cfi_endproc
.LFE162:
	.size	_ZN10ImDrawList12PrimWriteIdxEt, .-_ZN10ImDrawList12PrimWriteIdxEt
	.section	.text._ZN10ImDrawList7PrimVtxERK6ImVec2S2_j,"axG",@progbits,_ZN10ImDrawList7PrimVtxERK6ImVec2S2_j,comdat
	.align	2
	.weak	_ZN10ImDrawList7PrimVtxERK6ImVec2S2_j
	.type	_ZN10ImDrawList7PrimVtxERK6ImVec2S2_j, %function
_ZN10ImDrawList7PrimVtxERK6ImVec2S2_j:
.LFB163:
	.cfi_startproc
	stp	x29, x30, [sp, -48]!
	.cfi_def_cfa_offset 48
	.cfi_offset 29, -48
	.cfi_offset 30, -40
	mov	x29, sp
	str	x0, [sp, 40]
	str	x1, [sp, 32]
	str	x2, [sp, 24]
	str	w3, [sp, 20]
	ldr	x0, [sp, 40]
	ldr	w0, [x0, 52]
	and	w0, w0, 65535
	mov	w1, w0
	ldr	x0, [sp, 40]
	bl	_ZN10ImDrawList12PrimWriteIdxEt
	ldr	w3, [sp, 20]
	ldr	x2, [sp, 24]
	ldr	x1, [sp, 32]
	ldr	x0, [sp, 40]
	bl	_ZN10ImDrawList12PrimWriteVtxERK6ImVec2S2_j
	nop
	ldp	x29, x30, [sp], 48
	.cfi_restore 30
	.cfi_restore 29
	.cfi_def_cfa_offset 0
	ret
	.cfi_endproc
.LFE163:
	.size	_ZN10ImDrawList7PrimVtxERK6ImVec2S2_j, .-_ZN10ImDrawList7PrimVtxERK6ImVec2S2_j
	.section	.text._ZNK6ImFont14GetCharAdvanceEt,"axG",@progbits,_ZNK6ImFont14GetCharAdvanceEt,comdat
	.align	2
	.weak	_ZNK6ImFont14GetCharAdvanceEt
	.type	_ZNK6ImFont14GetCharAdvanceEt, %function
_ZNK6ImFont14GetCharAdvanceEt:
.LFB184:
	.cfi_startproc
	stp	x29, x30, [sp, -32]!
	.cfi_def_cfa_offset 32
	.cfi_offset 29, -32
	.cfi_offset 30, -24
	mov	x29, sp
	str	x0, [sp, 24]
	strh	w1, [sp, 22]
	ldrh	w1, [sp, 22]
	ldr	x0, [sp, 24]
	ldr	w0, [x0]
	cmp	w1, w0
	bge	.L25
	ldr	x0, [sp, 24]
	ldrh	w1, [sp, 22]
	bl	_ZNK8ImVectorIfEixEi
	ldr	s0, [x0]
	b	.L27
.L25:
	ldr	x0, [sp, 24]
	ldr	s0, [x0, 16]
.L27:
	ldp	x29, x30, [sp], 32
	.cfi_restore 30
	.cfi_restore 29
	.cfi_def_cfa_offset 0
	ret
	.cfi_endproc
.LFE184:
	.size	_ZNK6ImFont14GetCharAdvanceEt, .-_ZNK6ImFont14GetCharAdvanceEt
	.text
	.align	2
	.type	_ZL7ImQsortPvmmPFiPKvS1_E, %function
_ZL7ImQsortPvmmPFiPKvS1_E:
.LFB1149:
	.cfi_startproc
	stp	x29, x30, [sp, -48]!
	.cfi_def_cfa_offset 48
	.cfi_offset 29, -48
	.cfi_offset 30, -40
	mov	x29, sp
	str	x0, [sp, 40]
	str	x1, [sp, 32]
	str	x2, [sp, 24]
	str	x3, [sp, 16]
	ldr	x0, [sp, 32]
	cmp	x0, 1
	bls	.L30
	ldr	x3, [sp, 16]
	ldr	x2, [sp, 24]
	ldr	x1, [sp, 32]
	ldr	x0, [sp, 40]
	bl	qsort
.L30:
	nop
	ldp	x29, x30, [sp], 48
	.cfi_restore 30
	.cfi_restore 29
	.cfi_def_cfa_offset 0
	ret
	.cfi_endproc
.LFE1149:
	.size	_ZL7ImQsortPvmmPFiPKvS1_E, .-_ZL7ImQsortPvmmPFiPKvS1_E
	.align	2
	.type	_ZL14ImIsPowerOfTwoi, %function
_ZL14ImIsPowerOfTwoi:
.LFB1150:
	.cfi_startproc
	sub	sp, sp, #16
	.cfi_def_cfa_offset 16
	str	w0, [sp, 12]
	ldr	w0, [sp, 12]
	cmp	w0, 0
	beq	.L32
	ldr	w0, [sp, 12]
	sub	w1, w0, #1
	ldr	w0, [sp, 12]
	and	w0, w1, w0
	cmp	w0, 0
	bne	.L32
	mov	w0, 1
	b	.L33
.L32:
	mov	w0, 0
.L33:
	add	sp, sp, 16
	.cfi_def_cfa_offset 0
	ret
	.cfi_endproc
.LFE1150:
	.size	_ZL14ImIsPowerOfTwoi, .-_ZL14ImIsPowerOfTwoi
	.align	2
	.type	_ZL14ImCharIsBlankAc, %function
_ZL14ImCharIsBlankAc:
.LFB1154:
	.cfi_startproc
	sub	sp, sp, #16
	.cfi_def_cfa_offset 16
	strb	w0, [sp, 15]
	ldrb	w0, [sp, 15]
	cmp	w0, 32
	beq	.L36
	ldrb	w0, [sp, 15]
	cmp	w0, 9
	bne	.L37
.L36:
	mov	w0, 1
	b	.L38
.L37:
	mov	w0, 0
.L38:
	add	sp, sp, 16
	.cfi_def_cfa_offset 0
	ret
	.cfi_endproc
.LFE1154:
	.size	_ZL14ImCharIsBlankAc, .-_ZL14ImCharIsBlankAc
	.align	2
	.type	_ZL14ImCharIsBlankWj, %function
_ZL14ImCharIsBlankWj:
.LFB1155:
	.cfi_startproc
	sub	sp, sp, #16
	.cfi_def_cfa_offset 16
	str	w0, [sp, 12]
	ldr	w0, [sp, 12]
	cmp	w0, 32
	beq	.L41
	ldr	w0, [sp, 12]
	cmp	w0, 9
	beq	.L41
	ldr	w0, [sp, 12]
	cmp	w0, 12288
	bne	.L42
.L41:
	mov	w0, 1
	b	.L43
.L42:
	mov	w0, 0
.L43:
	add	sp, sp, 16
	.cfi_def_cfa_offset 0
	ret
	.cfi_endproc
.LFE1155:
	.size	_ZL14ImCharIsBlankWj, .-_ZL14ImCharIsBlankWj
	.align	2
	.type	_ZmlRK6ImVec2f, %function
_ZmlRK6ImVec2f:
.LFB1156:
	.cfi_startproc
	stp	x29, x30, [sp, -48]!
	.cfi_def_cfa_offset 48
	.cfi_offset 29, -48
	.cfi_offset 30, -40
	mov	x29, sp
	str	x0, [sp, 24]
	str	s0, [sp, 20]
	adrp	x0, :got:__stack_chk_guard
	ldr	x0, [x0, #:got_lo12:__stack_chk_guard]
	ldr	x1, [x0]
	str	x1, [sp, 40]
	mov	x1, 0
	ldr	x0, [sp, 24]
	ldr	s1, [x0]
	ldr	s0, [sp, 20]
	fmul	s2, s1, s0
	ldr	x0, [sp, 24]
	ldr	s1, [x0, 4]
	ldr	s0, [sp, 20]
	fmul	s0, s1, s0
	add	x0, sp, 32
	fmov	s1, s0
	fmov	s0, s2
	bl	_ZN6ImVec2C1Eff
	ldr	x0, [sp, 32]
	mov	x1, x0
	lsr	w1, w1, 0
	lsr	x0, x0, 32
	fmov	s0, w1
	fmov	s1, w0
	adrp	x0, :got:__stack_chk_guard
	ldr	x0, [x0, #:got_lo12:__stack_chk_guard]
	ldr	x2, [sp, 40]
	ldr	x1, [x0]
	subs	x2, x2, x1
	mov	x1, 0
	beq	.L47
	bl	__stack_chk_fail
.L47:
	ldp	x29, x30, [sp], 48
	.cfi_restore 30
	.cfi_restore 29
	.cfi_def_cfa_offset 0
	ret
	.cfi_endproc
.LFE1156:
	.size	_ZmlRK6ImVec2f, .-_ZmlRK6ImVec2f
	.align	2
	.type	_ZplRK6ImVec2S1_, %function
_ZplRK6ImVec2S1_:
.LFB1158:
	.cfi_startproc
	stp	x29, x30, [sp, -48]!
	.cfi_def_cfa_offset 48
	.cfi_offset 29, -48
	.cfi_offset 30, -40
	mov	x29, sp
	str	x0, [sp, 24]
	str	x1, [sp, 16]
	adrp	x0, :got:__stack_chk_guard
	ldr	x0, [x0, #:got_lo12:__stack_chk_guard]
	ldr	x1, [x0]
	str	x1, [sp, 40]
	mov	x1, 0
	ldr	x0, [sp, 24]
	ldr	s1, [x0]
	ldr	x0, [sp, 16]
	ldr	s0, [x0]
	fadd	s2, s1, s0
	ldr	x0, [sp, 24]
	ldr	s1, [x0, 4]
	ldr	x0, [sp, 16]
	ldr	s0, [x0, 4]
	fadd	s0, s1, s0
	add	x0, sp, 32
	fmov	s1, s0
	fmov	s0, s2
	bl	_ZN6ImVec2C1Eff
	ldr	x0, [sp, 32]
	mov	x1, x0
	lsr	w1, w1, 0
	lsr	x0, x0, 32
	fmov	s0, w1
	fmov	s1, w0
	adrp	x0, :got:__stack_chk_guard
	ldr	x0, [x0, #:got_lo12:__stack_chk_guard]
	ldr	x2, [sp, 40]
	ldr	x1, [x0]
	subs	x2, x2, x1
	mov	x1, 0
	beq	.L50
	bl	__stack_chk_fail
.L50:
	ldp	x29, x30, [sp], 48
	.cfi_restore 30
	.cfi_restore 29
	.cfi_def_cfa_offset 0
	ret
	.cfi_endproc
.LFE1158:
	.size	_ZplRK6ImVec2S1_, .-_ZplRK6ImVec2S1_
	.align	2
	.type	_ZmiRK6ImVec2S1_, %function
_ZmiRK6ImVec2S1_:
.LFB1159:
	.cfi_startproc
	stp	x29, x30, [sp, -48]!
	.cfi_def_cfa_offset 48
	.cfi_offset 29, -48
	.cfi_offset 30, -40
	mov	x29, sp
	str	x0, [sp, 24]
	str	x1, [sp, 16]
	adrp	x0, :got:__stack_chk_guard
	ldr	x0, [x0, #:got_lo12:__stack_chk_guard]
	ldr	x1, [x0]
	str	x1, [sp, 40]
	mov	x1, 0
	ldr	x0, [sp, 24]
	ldr	s1, [x0]
	ldr	x0, [sp, 16]
	ldr	s0, [x0]
	fsub	s2, s1, s0
	ldr	x0, [sp, 24]
	ldr	s1, [x0, 4]
	ldr	x0, [sp, 16]
	ldr	s0, [x0, 4]
	fsub	s0, s1, s0
	add	x0, sp, 32
	fmov	s1, s0
	fmov	s0, s2
	bl	_ZN6ImVec2C1Eff
	ldr	x0, [sp, 32]
	mov	x1, x0
	lsr	w1, w1, 0
	lsr	x0, x0, 32
	fmov	s0, w1
	fmov	s1, w0
	adrp	x0, :got:__stack_chk_guard
	ldr	x0, [x0, #:got_lo12:__stack_chk_guard]
	ldr	x2, [sp, 40]
	ldr	x1, [x0]
	subs	x2, x2, x1
	mov	x1, 0
	beq	.L53
	bl	__stack_chk_fail
.L53:
	ldp	x29, x30, [sp], 48
	.cfi_restore 30
	.cfi_restore 29
	.cfi_def_cfa_offset 0
	ret
	.cfi_endproc
.LFE1159:
	.size	_ZmiRK6ImVec2S1_, .-_ZmiRK6ImVec2S1_
	.align	2
	.type	_ZpLR6ImVec2RKS_, %function
_ZpLR6ImVec2RKS_:
.LFB1164:
	.cfi_startproc
	sub	sp, sp, #16
	.cfi_def_cfa_offset 16
	str	x0, [sp, 8]
	str	x1, [sp]
	ldr	x0, [sp, 8]
	ldr	s1, [x0]
	ldr	x0, [sp]
	ldr	s0, [x0]
	fadd	s0, s1, s0
	ldr	x0, [sp, 8]
	str	s0, [x0]
	ldr	x0, [sp, 8]
	ldr	s1, [x0, 4]
	ldr	x0, [sp]
	ldr	s0, [x0, 4]
	fadd	s0, s1, s0
	ldr	x0, [sp, 8]
	str	s0, [x0, 4]
	ldr	x0, [sp, 8]
	add	sp, sp, 16
	.cfi_def_cfa_offset 0
	ret
	.cfi_endproc
.LFE1164:
	.size	_ZpLR6ImVec2RKS_, .-_ZpLR6ImVec2RKS_
	.align	2
	.type	_ZmIR6ImVec2RKS_, %function
_ZmIR6ImVec2RKS_:
.LFB1165:
	.cfi_startproc
	sub	sp, sp, #16
	.cfi_def_cfa_offset 16
	str	x0, [sp, 8]
	str	x1, [sp]
	ldr	x0, [sp, 8]
	ldr	s1, [x0]
	ldr	x0, [sp]
	ldr	s0, [x0]
	fsub	s0, s1, s0
	ldr	x0, [sp, 8]
	str	s0, [x0]
	ldr	x0, [sp, 8]
	ldr	s1, [x0, 4]
	ldr	x0, [sp]
	ldr	s0, [x0, 4]
	fsub	s0, s1, s0
	ldr	x0, [sp, 8]
	str	s0, [x0, 4]
	ldr	x0, [sp, 8]
	add	sp, sp, 16
	.cfi_def_cfa_offset 0
	ret
	.cfi_endproc
.LFE1165:
	.size	_ZmIR6ImVec2RKS_, .-_ZmIR6ImVec2RKS_
	.align	2
	.type	_ZL5ImPowff, %function
_ZL5ImPowff:
.LFB1171:
	.cfi_startproc
	stp	x29, x30, [sp, -32]!
	.cfi_def_cfa_offset 32
	.cfi_offset 29, -32
	.cfi_offset 30, -24
	mov	x29, sp
	str	s0, [sp, 28]
	str	s1, [sp, 24]
	ldr	s1, [sp, 24]
	ldr	s0, [sp, 28]
	bl	powf
	ldp	x29, x30, [sp], 32
	.cfi_restore 30
	.cfi_restore 29
	.cfi_def_cfa_offset 0
	ret
	.cfi_endproc
.LFE1171:
	.size	_ZL5ImPowff, .-_ZL5ImPowff
	.align	2
	.type	_ZL5ImPowdd, %function
_ZL5ImPowdd:
.LFB1172:
	.cfi_startproc
	stp	x29, x30, [sp, -32]!
	.cfi_def_cfa_offset 32
	.cfi_offset 29, -32
	.cfi_offset 30, -24
	mov	x29, sp
	str	d0, [sp, 24]
	str	d1, [sp, 16]
	ldr	d1, [sp, 16]
	ldr	d0, [sp, 24]
	bl	pow
	ldp	x29, x30, [sp], 32
	.cfi_restore 30
	.cfi_restore 29
	.cfi_def_cfa_offset 0
	ret
	.cfi_endproc
.LFE1172:
	.size	_ZL5ImPowdd, .-_ZL5ImPowdd
	.align	2
	.type	_ZL5ImLogf, %function
_ZL5ImLogf:
.LFB1173:
	.cfi_startproc
	stp	x29, x30, [sp, -32]!
	.cfi_def_cfa_offset 32
	.cfi_offset 29, -32
	.cfi_offset 30, -24
	mov	x29, sp
	str	s0, [sp, 28]
	ldr	s0, [sp, 28]
	bl	logf
	ldp	x29, x30, [sp], 32
	.cfi_restore 30
	.cfi_restore 29
	.cfi_def_cfa_offset 0
	ret
	.cfi_endproc
.LFE1173:
	.size	_ZL5ImLogf, .-_ZL5ImLogf
	.align	2
	.type	_ZL5ImLogd, %function
_ZL5ImLogd:
.LFB1174:
	.cfi_startproc
	stp	x29, x30, [sp, -32]!
	.cfi_def_cfa_offset 32
	.cfi_offset 29, -32
	.cfi_offset 30, -24
	mov	x29, sp
	str	d0, [sp, 24]
	ldr	d0, [sp, 24]
	bl	log
	ldp	x29, x30, [sp], 32
	.cfi_restore 30
	.cfi_restore 29
	.cfi_def_cfa_offset 0
	ret
	.cfi_endproc
.LFE1174:
	.size	_ZL5ImLogd, .-_ZL5ImLogd
	.align	2
	.type	_ZL5ImAbsf, %function
_ZL5ImAbsf:
.LFB1176:
	.cfi_startproc
	sub	sp, sp, #16
	.cfi_def_cfa_offset 16
	str	s0, [sp, 12]
	ldr	s0, [sp, 12]
	fabs	s0, s0
	add	sp, sp, 16
	.cfi_def_cfa_offset 0
	ret
	.cfi_endproc
.LFE1176:
	.size	_ZL5ImAbsf, .-_ZL5ImAbsf
	.align	2
	.type	_ZL5ImAbsd, %function
_ZL5ImAbsd:
.LFB1177:
	.cfi_startproc
	sub	sp, sp, #16
	.cfi_def_cfa_offset 16
	str	d0, [sp, 8]
	ldr	d0, [sp, 8]
	fabs	d0, d0
	add	sp, sp, 16
	.cfi_def_cfa_offset 0
	ret
	.cfi_endproc
.LFE1177:
	.size	_ZL5ImAbsd, .-_ZL5ImAbsd
	.section	.text._ZL5ImMinRK6ImVec2S1_,"axG",@progbits,_ZN6ImRect8ClipWithERKS_,comdat
	.align	2
	.type	_ZL5ImMinRK6ImVec2S1_, %function
_ZL5ImMinRK6ImVec2S1_:
.LFB1189:
	.cfi_startproc
	stp	x29, x30, [sp, -48]!
	.cfi_def_cfa_offset 48
	.cfi_offset 29, -48
	.cfi_offset 30, -40
	mov	x29, sp
	str	x0, [sp, 24]
	str	x1, [sp, 16]
	adrp	x0, :got:__stack_chk_guard
	ldr	x0, [x0, #:got_lo12:__stack_chk_guard]
	ldr	x1, [x0]
	str	x1, [sp, 40]
	mov	x1, 0
	ldr	x0, [sp, 24]
	ldr	s1, [x0]
	ldr	x0, [sp, 16]
	ldr	s0, [x0]
	fcmpe	s1, s0
	bmi	.L79
	b	.L81
.L79:
	ldr	x0, [sp, 24]
	ldr	s0, [x0]
	b	.L73
.L81:
	ldr	x0, [sp, 16]
	ldr	s0, [x0]
.L73:
	ldr	x0, [sp, 24]
	ldr	s2, [x0, 4]
	ldr	x0, [sp, 16]
	ldr	s1, [x0, 4]
	fcmpe	s2, s1
	bmi	.L80
	b	.L82
.L80:
	ldr	x0, [sp, 24]
	ldr	s1, [x0, 4]
	b	.L76
.L82:
	ldr	x0, [sp, 16]
	ldr	s1, [x0, 4]
.L76:
	add	x0, sp, 32
	bl	_ZN6ImVec2C1Eff
	ldr	x0, [sp, 32]
	mov	x1, x0
	lsr	w1, w1, 0
	lsr	x0, x0, 32
	fmov	s0, w1
	fmov	s1, w0
	adrp	x0, :got:__stack_chk_guard
	ldr	x0, [x0, #:got_lo12:__stack_chk_guard]
	ldr	x2, [sp, 40]
	ldr	x1, [x0]
	subs	x2, x2, x1
	mov	x1, 0
	beq	.L78
	bl	__stack_chk_fail
.L78:
	ldp	x29, x30, [sp], 48
	.cfi_restore 30
	.cfi_restore 29
	.cfi_def_cfa_offset 0
	ret
	.cfi_endproc
.LFE1189:
	.size	_ZL5ImMinRK6ImVec2S1_, .-_ZL5ImMinRK6ImVec2S1_
	.text
	.align	2
	.type	_ZL5ImMaxRK6ImVec2S1_, %function
_ZL5ImMaxRK6ImVec2S1_:
.LFB1190:
	.cfi_startproc
	stp	x29, x30, [sp, -48]!
	.cfi_def_cfa_offset 48
	.cfi_offset 29, -48
	.cfi_offset 30, -40
	mov	x29, sp
	str	x0, [sp, 24]
	str	x1, [sp, 16]
	adrp	x0, :got:__stack_chk_guard
	ldr	x0, [x0, #:got_lo12:__stack_chk_guard]
	ldr	x1, [x0]
	str	x1, [sp, 40]
	mov	x1, 0
	ldr	x0, [sp, 24]
	ldr	s1, [x0]
	ldr	x0, [sp, 16]
	ldr	s0, [x0]
	fcmpe	s1, s0
	bge	.L92
	b	.L94
.L92:
	ldr	x0, [sp, 24]
	ldr	s0, [x0]
	b	.L86
.L94:
	ldr	x0, [sp, 16]
	ldr	s0, [x0]
.L86:
	ldr	x0, [sp, 24]
	ldr	s2, [x0, 4]
	ldr	x0, [sp, 16]
	ldr	s1, [x0, 4]
	fcmpe	s2, s1
	bge	.L93
	b	.L95
.L93:
	ldr	x0, [sp, 24]
	ldr	s1, [x0, 4]
	b	.L89
.L95:
	ldr	x0, [sp, 16]
	ldr	s1, [x0, 4]
.L89:
	add	x0, sp, 32
	bl	_ZN6ImVec2C1Eff
	ldr	x0, [sp, 32]
	mov	x1, x0
	lsr	w1, w1, 0
	lsr	x0, x0, 32
	fmov	s0, w1
	fmov	s1, w0
	adrp	x0, :got:__stack_chk_guard
	ldr	x0, [x0, #:got_lo12:__stack_chk_guard]
	ldr	x2, [sp, 40]
	ldr	x1, [x0]
	subs	x2, x2, x1
	mov	x1, 0
	beq	.L91
	bl	__stack_chk_fail
.L91:
	ldp	x29, x30, [sp], 48
	.cfi_restore 30
	.cfi_restore 29
	.cfi_def_cfa_offset 0
	ret
	.cfi_endproc
.LFE1190:
	.size	_ZL5ImMaxRK6ImVec2S1_, .-_ZL5ImMaxRK6ImVec2S1_
	.align	2
	.type	_ZL6ImLerpRK6ImVec2S1_f, %function
_ZL6ImLerpRK6ImVec2S1_f:
.LFB1192:
	.cfi_startproc
	stp	x29, x30, [sp, -64]!
	.cfi_def_cfa_offset 64
	.cfi_offset 29, -64
	.cfi_offset 30, -56
	mov	x29, sp
	str	x0, [sp, 40]
	str	x1, [sp, 32]
	str	s0, [sp, 28]
	adrp	x0, :got:__stack_chk_guard
	ldr	x0, [x0, #:got_lo12:__stack_chk_guard]
	ldr	x1, [x0]
	str	x1, [sp, 56]
	mov	x1, 0
	ldr	x0, [sp, 40]
	ldr	s1, [x0]
	ldr	x0, [sp, 32]
	ldr	s2, [x0]
	ldr	x0, [sp, 40]
	ldr	s0, [x0]
	fsub	s2, s2, s0
	ldr	s0, [sp, 28]
	fmul	s0, s2, s0
	fadd	s3, s1, s0
	ldr	x0, [sp, 40]
	ldr	s1, [x0, 4]
	ldr	x0, [sp, 32]
	ldr	s2, [x0, 4]
	ldr	x0, [sp, 40]
	ldr	s0, [x0, 4]
	fsub	s2, s2, s0
	ldr	s0, [sp, 28]
	fmul	s0, s2, s0
	fadd	s0, s1, s0
	add	x0, sp, 48
	fmov	s1, s0
	fmov	s0, s3
	bl	_ZN6ImVec2C1Eff
	ldr	x0, [sp, 48]
	mov	x1, x0
	lsr	w1, w1, 0
	lsr	x0, x0, 32
	fmov	s0, w1
	fmov	s1, w0
	adrp	x0, :got:__stack_chk_guard
	ldr	x0, [x0, #:got_lo12:__stack_chk_guard]
	ldr	x2, [sp, 56]
	ldr	x1, [x0]
	subs	x2, x2, x1
	mov	x1, 0
	beq	.L98
	bl	__stack_chk_fail
.L98:
	ldp	x29, x30, [sp], 64
	.cfi_restore 30
	.cfi_restore 29
	.cfi_def_cfa_offset 0
	ret
	.cfi_endproc
.LFE1192:
	.size	_ZL6ImLerpRK6ImVec2S1_f, .-_ZL6ImLerpRK6ImVec2S1_f
	.align	2
	.type	_ZL6ImLerpRK6ImVec2S1_S1_, %function
_ZL6ImLerpRK6ImVec2S1_S1_:
.LFB1193:
	.cfi_startproc
	stp	x29, x30, [sp, -64]!
	.cfi_def_cfa_offset 64
	.cfi_offset 29, -64
	.cfi_offset 30, -56
	mov	x29, sp
	str	x0, [sp, 40]
	str	x1, [sp, 32]
	str	x2, [sp, 24]
	adrp	x0, :got:__stack_chk_guard
	ldr	x0, [x0, #:got_lo12:__stack_chk_guard]
	ldr	x1, [x0]
	str	x1, [sp, 56]
	mov	x1, 0
	ldr	x0, [sp, 40]
	ldr	s1, [x0]
	ldr	x0, [sp, 32]
	ldr	s2, [x0]
	ldr	x0, [sp, 40]
	ldr	s0, [x0]
	fsub	s2, s2, s0
	ldr	x0, [sp, 24]
	ldr	s0, [x0]
	fmul	s0, s2, s0
	fadd	s3, s1, s0
	ldr	x0, [sp, 40]
	ldr	s1, [x0, 4]
	ldr	x0, [sp, 32]
	ldr	s2, [x0, 4]
	ldr	x0, [sp, 40]
	ldr	s0, [x0, 4]
	fsub	s2, s2, s0
	ldr	x0, [sp, 24]
	ldr	s0, [x0, 4]
	fmul	s0, s2, s0
	fadd	s0, s1, s0
	add	x0, sp, 48
	fmov	s1, s0
	fmov	s0, s3
	bl	_ZN6ImVec2C1Eff
	ldr	x0, [sp, 48]
	mov	x1, x0
	lsr	w1, w1, 0
	lsr	x0, x0, 32
	fmov	s0, w1
	fmov	s1, w0
	adrp	x0, :got:__stack_chk_guard
	ldr	x0, [x0, #:got_lo12:__stack_chk_guard]
	ldr	x2, [sp, 56]
	ldr	x1, [x0]
	subs	x2, x2, x1
	mov	x1, 0
	beq	.L101
	bl	__stack_chk_fail
.L101:
	ldp	x29, x30, [sp], 64
	.cfi_restore 30
	.cfi_restore 29
	.cfi_def_cfa_offset 0
	ret
	.cfi_endproc
.LFE1193:
	.size	_ZL6ImLerpRK6ImVec2S1_S1_, .-_ZL6ImLerpRK6ImVec2S1_S1_
	.align	2
	.type	_ZL10ImSaturatef, %function
_ZL10ImSaturatef:
.LFB1195:
	.cfi_startproc
	sub	sp, sp, #16
	.cfi_def_cfa_offset 16
	str	s0, [sp, 12]
	ldr	s0, [sp, 12]
	fcmpe	s0, #0.0
	bmi	.L110
	b	.L112
.L110:
	movi	v0.2s, #0
	b	.L109
.L112:
	ldr	s1, [sp, 12]
	fmov	s0, 1.0e+0
	fcmpe	s1, s0
	bgt	.L111
	b	.L113
.L111:
	fmov	s0, 1.0e+0
	b	.L109
.L113:
	ldr	s0, [sp, 12]
.L109:
	add	sp, sp, 16
	.cfi_def_cfa_offset 0
	ret
	.cfi_endproc
.LFE1195:
	.size	_ZL10ImSaturatef, .-_ZL10ImSaturatef
	.align	2
	.type	_ZL11ImLengthSqrRK6ImVec2, %function
_ZL11ImLengthSqrRK6ImVec2:
.LFB1196:
	.cfi_startproc
	sub	sp, sp, #16
	.cfi_def_cfa_offset 16
	str	x0, [sp, 8]
	ldr	x0, [sp, 8]
	ldr	s1, [x0]
	ldr	x0, [sp, 8]
	ldr	s0, [x0]
	fmul	s1, s1, s0
	ldr	x0, [sp, 8]
	ldr	s2, [x0, 4]
	ldr	x0, [sp, 8]
	ldr	s0, [x0, 4]
	fmul	s0, s2, s0
	fadd	s0, s1, s0
	add	sp, sp, 16
	.cfi_def_cfa_offset 0
	ret
	.cfi_endproc
.LFE1196:
	.size	_ZL11ImLengthSqrRK6ImVec2, .-_ZL11ImLengthSqrRK6ImVec2
	.align	2
	.type	_ZL7ImFloorf, %function
_ZL7ImFloorf:
.LFB1199:
	.cfi_startproc
	sub	sp, sp, #16
	.cfi_def_cfa_offset 16
	str	s0, [sp, 12]
	ldr	s0, [sp, 12]
	fcvtzs	s0, s0
	scvtf	s0, s0
	add	sp, sp, 16
	.cfi_def_cfa_offset 0
	ret
	.cfi_endproc
.LFE1199:
	.size	_ZL7ImFloorf, .-_ZL7ImFloorf
	.align	2
	.type	_ZL7ImFloorRK6ImVec2, %function
_ZL7ImFloorRK6ImVec2:
.LFB1201:
	.cfi_startproc
	stp	x29, x30, [sp, -48]!
	.cfi_def_cfa_offset 48
	.cfi_offset 29, -48
	.cfi_offset 30, -40
	mov	x29, sp
	str	x0, [sp, 24]
	adrp	x0, :got:__stack_chk_guard
	ldr	x0, [x0, #:got_lo12:__stack_chk_guard]
	ldr	x1, [x0]
	str	x1, [sp, 40]
	mov	x1, 0
	ldr	x0, [sp, 24]
	ldr	s0, [x0]
	fcvtzs	s0, s0
	scvtf	s2, s0
	ldr	x0, [sp, 24]
	ldr	s0, [x0, 4]
	fcvtzs	s0, s0
	scvtf	s0, s0
	add	x0, sp, 32
	fmov	s1, s0
	fmov	s0, s2
	bl	_ZN6ImVec2C1Eff
	ldr	x0, [sp, 32]
	mov	x1, x0
	lsr	w1, w1, 0
	lsr	x0, x0, 32
	fmov	s0, w1
	fmov	s1, w0
	adrp	x0, :got:__stack_chk_guard
	ldr	x0, [x0, #:got_lo12:__stack_chk_guard]
	ldr	x2, [sp, 40]
	ldr	x1, [x0]
	subs	x2, x2, x1
	mov	x1, 0
	beq	.L120
	bl	__stack_chk_fail
.L120:
	ldp	x29, x30, [sp], 48
	.cfi_restore 30
	.cfi_restore 29
	.cfi_def_cfa_offset 0
	ret
	.cfi_endproc
.LFE1201:
	.size	_ZL7ImFloorRK6ImVec2, .-_ZL7ImFloorRK6ImVec2
	.align	2
	.type	_ZL8ImRotateRK6ImVec2ff, %function
_ZL8ImRotateRK6ImVec2ff:
.LFB1205:
	.cfi_startproc
	stp	x29, x30, [sp, -48]!
	.cfi_def_cfa_offset 48
	.cfi_offset 29, -48
	.cfi_offset 30, -40
	mov	x29, sp
	str	x0, [sp, 24]
	str	s0, [sp, 20]
	str	s1, [sp, 16]
	adrp	x0, :got:__stack_chk_guard
	ldr	x0, [x0, #:got_lo12:__stack_chk_guard]
	ldr	x1, [x0]
	str	x1, [sp, 40]
	mov	x1, 0
	ldr	x0, [sp, 24]
	ldr	s1, [x0]
	ldr	s0, [sp, 20]
	fmul	s1, s1, s0
	ldr	x0, [sp, 24]
	ldr	s2, [x0, 4]
	ldr	s0, [sp, 16]
	fmul	s0, s2, s0
	fsub	s3, s1, s0
	ldr	x0, [sp, 24]
	ldr	s1, [x0]
	ldr	s0, [sp, 16]
	fmul	s1, s1, s0
	ldr	x0, [sp, 24]
	ldr	s2, [x0, 4]
	ldr	s0, [sp, 20]
	fmul	s0, s2, s0
	fadd	s0, s1, s0
	add	x0, sp, 32
	fmov	s1, s0
	fmov	s0, s3
	bl	_ZN6ImVec2C1Eff
	ldr	x0, [sp, 32]
	mov	x1, x0
	lsr	w1, w1, 0
	lsr	x0, x0, 32
	fmov	s0, w1
	fmov	s1, w0
	adrp	x0, :got:__stack_chk_guard
	ldr	x0, [x0, #:got_lo12:__stack_chk_guard]
	ldr	x2, [sp, 40]
	ldr	x1, [x0]
	subs	x2, x2, x1
	mov	x1, 0
	beq	.L123
	bl	__stack_chk_fail
.L123:
	ldp	x29, x30, [sp], 48
	.cfi_restore 30
	.cfi_restore 29
	.cfi_def_cfa_offset 0
	ret
	.cfi_endproc
.LFE1205:
	.size	_ZL8ImRotateRK6ImVec2ff, .-_ZL8ImRotateRK6ImVec2ff
	.align	2
	.type	_ZL13ImLinearSweepfff, %function
_ZL13ImLinearSweepfff:
.LFB1206:
	.cfi_startproc
	stp	x29, x30, [sp, -32]!
	.cfi_def_cfa_offset 32
	.cfi_offset 29, -32
	.cfi_offset 30, -24
	mov	x29, sp
	str	s0, [sp, 28]
	str	s1, [sp, 24]
	str	s2, [sp, 20]
	ldr	s1, [sp, 28]
	ldr	s0, [sp, 24]
	fcmpe	s1, s0
	bmi	.L130
	b	.L132
.L130:
	ldr	s1, [sp, 28]
	ldr	s0, [sp, 20]
	fadd	s0, s1, s0
	ldr	s1, [sp, 24]
	bl	_Z5ImMinIfET_S0_S0_
	b	.L127
.L132:
	ldr	s1, [sp, 28]
	ldr	s0, [sp, 24]
	fcmpe	s1, s0
	bgt	.L131
	b	.L133
.L131:
	ldr	s1, [sp, 28]
	ldr	s0, [sp, 20]
	fsub	s0, s1, s0
	ldr	s1, [sp, 24]
	bl	_Z5ImMaxIfET_S0_S0_
	b	.L127
.L133:
	ldr	s0, [sp, 28]
.L127:
	ldp	x29, x30, [sp], 32
	.cfi_restore 30
	.cfi_restore 29
	.cfi_def_cfa_offset 0
	ret
	.cfi_endproc
.LFE1206:
	.size	_ZL13ImLinearSweepfff, .-_ZL13ImLinearSweepfff
	.section	.text._ZN6ImRectC2Ev,"axG",@progbits,_ZN6ImRectC5Ev,comdat
	.align	2
	.weak	_ZN6ImRectC2Ev
	.type	_ZN6ImRectC2Ev, %function
_ZN6ImRectC2Ev:
.LFB1226:
	.cfi_startproc
	stp	x29, x30, [sp, -32]!
	.cfi_def_cfa_offset 32
	.cfi_offset 29, -32
	.cfi_offset 30, -24
	mov	x29, sp
	str	x0, [sp, 24]
	ldr	x0, [sp, 24]
	movi	v1.2s, #0
	movi	v0.2s, #0
	bl	_ZN6ImVec2C1Eff
	ldr	x0, [sp, 24]
	add	x0, x0, 8
	movi	v1.2s, #0
	movi	v0.2s, #0
	bl	_ZN6ImVec2C1Eff
	nop
	ldp	x29, x30, [sp], 32
	.cfi_restore 30
	.cfi_restore 29
	.cfi_def_cfa_offset 0
	ret
	.cfi_endproc
.LFE1226:
	.size	_ZN6ImRectC2Ev, .-_ZN6ImRectC2Ev
	.weak	_ZN6ImRectC1Ev
	.set	_ZN6ImRectC1Ev,_ZN6ImRectC2Ev
	.section	.text._ZN6ImRectC2ERK6ImVec2S2_,"axG",@progbits,_ZN6ImRectC5ERK6ImVec2S2_,comdat
	.align	2
	.weak	_ZN6ImRectC2ERK6ImVec2S2_
	.type	_ZN6ImRectC2ERK6ImVec2S2_, %function
_ZN6ImRectC2ERK6ImVec2S2_:
.LFB1229:
	.cfi_startproc
	sub	sp, sp, #32
	.cfi_def_cfa_offset 32
	str	x0, [sp, 24]
	str	x1, [sp, 16]
	str	x2, [sp, 8]
	ldr	x0, [sp, 24]
	ldr	x1, [sp, 16]
	ldr	x1, [x1]
	str	x1, [x0]
	ldr	x0, [sp, 24]
	ldr	x1, [sp, 8]
	ldr	x1, [x1]
	str	x1, [x0, 8]
	nop
	add	sp, sp, 32
	.cfi_def_cfa_offset 0
	ret
	.cfi_endproc
.LFE1229:
	.size	_ZN6ImRectC2ERK6ImVec2S2_, .-_ZN6ImRectC2ERK6ImVec2S2_
	.weak	_ZN6ImRectC1ERK6ImVec2S2_
	.set	_ZN6ImRectC1ERK6ImVec2S2_,_ZN6ImRectC2ERK6ImVec2S2_
	.section	.text._ZN6ImRectC2ERK6ImVec4,"axG",@progbits,_ZN6ImRectC5ERK6ImVec4,comdat
	.align	2
	.weak	_ZN6ImRectC2ERK6ImVec4
	.type	_ZN6ImRectC2ERK6ImVec4, %function
_ZN6ImRectC2ERK6ImVec4:
.LFB1232:
	.cfi_startproc
	stp	x29, x30, [sp, -32]!
	.cfi_def_cfa_offset 32
	.cfi_offset 29, -32
	.cfi_offset 30, -24
	mov	x29, sp
	str	x0, [sp, 24]
	str	x1, [sp, 16]
	ldr	x1, [sp, 24]
	ldr	x0, [sp, 16]
	ldr	s0, [x0]
	ldr	x0, [sp, 16]
	ldr	s1, [x0, 4]
	mov	x0, x1
	bl	_ZN6ImVec2C1Eff
	ldr	x0, [sp, 24]
	add	x1, x0, 8
	ldr	x0, [sp, 16]
	ldr	s0, [x0, 8]
	ldr	x0, [sp, 16]
	ldr	s1, [x0, 12]
	mov	x0, x1
	bl	_ZN6ImVec2C1Eff
	nop
	ldp	x29, x30, [sp], 32
	.cfi_restore 30
	.cfi_restore 29
	.cfi_def_cfa_offset 0
	ret
	.cfi_endproc
.LFE1232:
	.size	_ZN6ImRectC2ERK6ImVec4, .-_ZN6ImRectC2ERK6ImVec4
	.weak	_ZN6ImRectC1ERK6ImVec4
	.set	_ZN6ImRectC1ERK6ImVec4,_ZN6ImRectC2ERK6ImVec4
	.section	.text._ZN6ImRectC2Effff,"axG",@progbits,_ZN6ImRectC5Effff,comdat
	.align	2
	.weak	_ZN6ImRectC2Effff
	.type	_ZN6ImRectC2Effff, %function
_ZN6ImRectC2Effff:
.LFB1235:
	.cfi_startproc
	stp	x29, x30, [sp, -48]!
	.cfi_def_cfa_offset 48
	.cfi_offset 29, -48
	.cfi_offset 30, -40
	mov	x29, sp
	str	x0, [sp, 40]
	str	s0, [sp, 36]
	str	s1, [sp, 32]
	str	s2, [sp, 28]
	str	s3, [sp, 24]
	ldr	x0, [sp, 40]
	ldr	s1, [sp, 32]
	ldr	s0, [sp, 36]
	bl	_ZN6ImVec2C1Eff
	ldr	x0, [sp, 40]
	add	x0, x0, 8
	ldr	s1, [sp, 24]
	ldr	s0, [sp, 28]
	bl	_ZN6ImVec2C1Eff
	nop
	ldp	x29, x30, [sp], 48
	.cfi_restore 30
	.cfi_restore 29
	.cfi_def_cfa_offset 0
	ret
	.cfi_endproc
.LFE1235:
	.size	_ZN6ImRectC2Effff, .-_ZN6ImRectC2Effff
	.weak	_ZN6ImRectC1Effff
	.set	_ZN6ImRectC1Effff,_ZN6ImRectC2Effff
	.section	.text._ZNK6ImRect9GetCenterEv,"axG",@progbits,_ZNK6ImRect9GetCenterEv,comdat
	.align	2
	.weak	_ZNK6ImRect9GetCenterEv
	.type	_ZNK6ImRect9GetCenterEv, %function
_ZNK6ImRect9GetCenterEv:
.LFB1237:
	.cfi_startproc
	stp	x29, x30, [sp, -48]!
	.cfi_def_cfa_offset 48
	.cfi_offset 29, -48
	.cfi_offset 30, -40
	mov	x29, sp
	str	x0, [sp, 24]
	adrp	x0, :got:__stack_chk_guard
	ldr	x0, [x0, #:got_lo12:__stack_chk_guard]
	ldr	x1, [x0]
	str	x1, [sp, 40]
	mov	x1, 0
	ldr	x0, [sp, 24]
	ldr	s1, [x0]
	ldr	x0, [sp, 24]
	ldr	s0, [x0, 8]
	fadd	s1, s1, s0
	fmov	s0, 5.0e-1
	fmul	s2, s1, s0
	ldr	x0, [sp, 24]
	ldr	s1, [x0, 4]
	ldr	x0, [sp, 24]
	ldr	s0, [x0, 12]
	fadd	s1, s1, s0
	fmov	s0, 5.0e-1
	fmul	s0, s1, s0
	add	x0, sp, 32
	fmov	s1, s0
	fmov	s0, s2
	bl	_ZN6ImVec2C1Eff
	ldr	x0, [sp, 32]
	mov	x1, x0
	lsr	w1, w1, 0
	lsr	x0, x0, 32
	fmov	s0, w1
	fmov	s1, w0
	adrp	x0, :got:__stack_chk_guard
	ldr	x0, [x0, #:got_lo12:__stack_chk_guard]
	ldr	x2, [sp, 40]
	ldr	x1, [x0]
	subs	x2, x2, x1
	mov	x1, 0
	beq	.L140
	bl	__stack_chk_fail
.L140:
	ldp	x29, x30, [sp], 48
	.cfi_restore 30
	.cfi_restore 29
	.cfi_def_cfa_offset 0
	ret
	.cfi_endproc
.LFE1237:
	.size	_ZNK6ImRect9GetCenterEv, .-_ZNK6ImRect9GetCenterEv
	.section	.text._ZNK6ImRect7GetSizeEv,"axG",@progbits,_ZNK6ImRect7GetSizeEv,comdat
	.align	2
	.weak	_ZNK6ImRect7GetSizeEv
	.type	_ZNK6ImRect7GetSizeEv, %function
_ZNK6ImRect7GetSizeEv:
.LFB1238:
	.cfi_startproc
	stp	x29, x30, [sp, -48]!
	.cfi_def_cfa_offset 48
	.cfi_offset 29, -48
	.cfi_offset 30, -40
	mov	x29, sp
	str	x0, [sp, 24]
	adrp	x0, :got:__stack_chk_guard
	ldr	x0, [x0, #:got_lo12:__stack_chk_guard]
	ldr	x1, [x0]
	str	x1, [sp, 40]
	mov	x1, 0
	ldr	x0, [sp, 24]
	ldr	s1, [x0, 8]
	ldr	x0, [sp, 24]
	ldr	s0, [x0]
	fsub	s2, s1, s0
	ldr	x0, [sp, 24]
	ldr	s1, [x0, 12]
	ldr	x0, [sp, 24]
	ldr	s0, [x0, 4]
	fsub	s0, s1, s0
	add	x0, sp, 32
	fmov	s1, s0
	fmov	s0, s2
	bl	_ZN6ImVec2C1Eff
	ldr	x0, [sp, 32]
	mov	x1, x0
	lsr	w1, w1, 0
	lsr	x0, x0, 32
	fmov	s0, w1
	fmov	s1, w0
	adrp	x0, :got:__stack_chk_guard
	ldr	x0, [x0, #:got_lo12:__stack_chk_guard]
	ldr	x2, [sp, 40]
	ldr	x1, [x0]
	subs	x2, x2, x1
	mov	x1, 0
	beq	.L143
	bl	__stack_chk_fail
.L143:
	ldp	x29, x30, [sp], 48
	.cfi_restore 30
	.cfi_restore 29
	.cfi_def_cfa_offset 0
	ret
	.cfi_endproc
.LFE1238:
	.size	_ZNK6ImRect7GetSizeEv, .-_ZNK6ImRect7GetSizeEv
	.section	.text._ZNK6ImRect8GetWidthEv,"axG",@progbits,_ZNK6ImRect8GetWidthEv,comdat
	.align	2
	.weak	_ZNK6ImRect8GetWidthEv
	.type	_ZNK6ImRect8GetWidthEv, %function
_ZNK6ImRect8GetWidthEv:
.LFB1239:
	.cfi_startproc
	sub	sp, sp, #16
	.cfi_def_cfa_offset 16
	str	x0, [sp, 8]
	ldr	x0, [sp, 8]
	ldr	s1, [x0, 8]
	ldr	x0, [sp, 8]
	ldr	s0, [x0]
	fsub	s0, s1, s0
	add	sp, sp, 16
	.cfi_def_cfa_offset 0
	ret
	.cfi_endproc
.LFE1239:
	.size	_ZNK6ImRect8GetWidthEv, .-_ZNK6ImRect8GetWidthEv
	.section	.text._ZNK6ImRect9GetHeightEv,"axG",@progbits,_ZNK6ImRect9GetHeightEv,comdat
	.align	2
	.weak	_ZNK6ImRect9GetHeightEv
	.type	_ZNK6ImRect9GetHeightEv, %function
_ZNK6ImRect9GetHeightEv:
.LFB1240:
	.cfi_startproc
	sub	sp, sp, #16
	.cfi_def_cfa_offset 16
	str	x0, [sp, 8]
	ldr	x0, [sp, 8]
	ldr	s1, [x0, 12]
	ldr	x0, [sp, 8]
	ldr	s0, [x0, 4]
	fsub	s0, s1, s0
	add	sp, sp, 16
	.cfi_def_cfa_offset 0
	ret
	.cfi_endproc
.LFE1240:
	.size	_ZNK6ImRect9GetHeightEv, .-_ZNK6ImRect9GetHeightEv
	.section	.text._ZNK6ImRect7GetAreaEv,"axG",@progbits,_ZNK6ImRect7GetAreaEv,comdat
	.align	2
	.weak	_ZNK6ImRect7GetAreaEv
	.type	_ZNK6ImRect7GetAreaEv, %function
_ZNK6ImRect7GetAreaEv:
.LFB1241:
	.cfi_startproc
	sub	sp, sp, #16
	.cfi_def_cfa_offset 16
	str	x0, [sp, 8]
	ldr	x0, [sp, 8]
	ldr	s1, [x0, 8]
	ldr	x0, [sp, 8]
	ldr	s0, [x0]
	fsub	s1, s1, s0
	ldr	x0, [sp, 8]
	ldr	s2, [x0, 12]
	ldr	x0, [sp, 8]
	ldr	s0, [x0, 4]
	fsub	s0, s2, s0
	fmul	s0, s1, s0
	add	sp, sp, 16
	.cfi_def_cfa_offset 0
	ret
	.cfi_endproc
.LFE1241:
	.size	_ZNK6ImRect7GetAreaEv, .-_ZNK6ImRect7GetAreaEv
	.section	.text._ZNK6ImRect5GetTLEv,"axG",@progbits,_ZNK6ImRect5GetTLEv,comdat
	.align	2
	.weak	_ZNK6ImRect5GetTLEv
	.type	_ZNK6ImRect5GetTLEv, %function
_ZNK6ImRect5GetTLEv:
.LFB1242:
	.cfi_startproc
	sub	sp, sp, #16
	.cfi_def_cfa_offset 16
	str	x0, [sp, 8]
	ldr	x0, [sp, 8]
	ldr	x0, [x0]
	mov	x1, x0
	lsr	w1, w1, 0
	lsr	x0, x0, 32
	fmov	s0, w1
	fmov	s1, w0
	add	sp, sp, 16
	.cfi_def_cfa_offset 0
	ret
	.cfi_endproc
.LFE1242:
	.size	_ZNK6ImRect5GetTLEv, .-_ZNK6ImRect5GetTLEv
	.section	.text._ZNK6ImRect5GetTREv,"axG",@progbits,_ZNK6ImRect5GetTREv,comdat
	.align	2
	.weak	_ZNK6ImRect5GetTREv
	.type	_ZNK6ImRect5GetTREv, %function
_ZNK6ImRect5GetTREv:
.LFB1243:
	.cfi_startproc
	stp	x29, x30, [sp, -48]!
	.cfi_def_cfa_offset 48
	.cfi_offset 29, -48
	.cfi_offset 30, -40
	mov	x29, sp
	str	x0, [sp, 24]
	adrp	x0, :got:__stack_chk_guard
	ldr	x0, [x0, #:got_lo12:__stack_chk_guard]
	ldr	x1, [x0]
	str	x1, [sp, 40]
	mov	x1, 0
	ldr	x0, [sp, 24]
	ldr	s0, [x0, 8]
	ldr	x0, [sp, 24]
	ldr	s1, [x0, 4]
	add	x0, sp, 32
	bl	_ZN6ImVec2C1Eff
	ldr	x0, [sp, 32]
	mov	x1, x0
	lsr	w1, w1, 0
	lsr	x0, x0, 32
	fmov	s0, w1
	fmov	s1, w0
	adrp	x0, :got:__stack_chk_guard
	ldr	x0, [x0, #:got_lo12:__stack_chk_guard]
	ldr	x2, [sp, 40]
	ldr	x1, [x0]
	subs	x2, x2, x1
	mov	x1, 0
	beq	.L154
	bl	__stack_chk_fail
.L154:
	ldp	x29, x30, [sp], 48
	.cfi_restore 30
	.cfi_restore 29
	.cfi_def_cfa_offset 0
	ret
	.cfi_endproc
.LFE1243:
	.size	_ZNK6ImRect5GetTREv, .-_ZNK6ImRect5GetTREv
	.section	.text._ZNK6ImRect5GetBLEv,"axG",@progbits,_ZNK6ImRect5GetBLEv,comdat
	.align	2
	.weak	_ZNK6ImRect5GetBLEv
	.type	_ZNK6ImRect5GetBLEv, %function
_ZNK6ImRect5GetBLEv:
.LFB1244:
	.cfi_startproc
	stp	x29, x30, [sp, -48]!
	.cfi_def_cfa_offset 48
	.cfi_offset 29, -48
	.cfi_offset 30, -40
	mov	x29, sp
	str	x0, [sp, 24]
	adrp	x0, :got:__stack_chk_guard
	ldr	x0, [x0, #:got_lo12:__stack_chk_guard]
	ldr	x1, [x0]
	str	x1, [sp, 40]
	mov	x1, 0
	ldr	x0, [sp, 24]
	ldr	s0, [x0]
	ldr	x0, [sp, 24]
	ldr	s1, [x0, 12]
	add	x0, sp, 32
	bl	_ZN6ImVec2C1Eff
	ldr	x0, [sp, 32]
	mov	x1, x0
	lsr	w1, w1, 0
	lsr	x0, x0, 32
	fmov	s0, w1
	fmov	s1, w0
	adrp	x0, :got:__stack_chk_guard
	ldr	x0, [x0, #:got_lo12:__stack_chk_guard]
	ldr	x2, [sp, 40]
	ldr	x1, [x0]
	subs	x2, x2, x1
	mov	x1, 0
	beq	.L157
	bl	__stack_chk_fail
.L157:
	ldp	x29, x30, [sp], 48
	.cfi_restore 30
	.cfi_restore 29
	.cfi_def_cfa_offset 0
	ret
	.cfi_endproc
.LFE1244:
	.size	_ZNK6ImRect5GetBLEv, .-_ZNK6ImRect5GetBLEv
	.section	.text._ZNK6ImRect5GetBREv,"axG",@progbits,_ZNK6ImRect5GetBREv,comdat
	.align	2
	.weak	_ZNK6ImRect5GetBREv
	.type	_ZNK6ImRect5GetBREv, %function
_ZNK6ImRect5GetBREv:
.LFB1245:
	.cfi_startproc
	sub	sp, sp, #16
	.cfi_def_cfa_offset 16
	str	x0, [sp, 8]
	ldr	x0, [sp, 8]
	ldr	x0, [x0, 8]
	mov	x1, x0
	lsr	w1, w1, 0
	lsr	x0, x0, 32
	fmov	s0, w1
	fmov	s1, w0
	add	sp, sp, 16
	.cfi_def_cfa_offset 0
	ret
	.cfi_endproc
.LFE1245:
	.size	_ZNK6ImRect5GetBREv, .-_ZNK6ImRect5GetBREv
	.section	.text._ZNK6ImRect8ContainsERK6ImVec2,"axG",@progbits,_ZNK6ImRect8ContainsERK6ImVec2,comdat
	.align	2
	.weak	_ZNK6ImRect8ContainsERK6ImVec2
	.type	_ZNK6ImRect8ContainsERK6ImVec2, %function
_ZNK6ImRect8ContainsERK6ImVec2:
.LFB1246:
	.cfi_startproc
	sub	sp, sp, #16
	.cfi_def_cfa_offset 16
	str	x0, [sp, 8]
	str	x1, [sp]
	ldr	x0, [sp]
	ldr	s1, [x0]
	ldr	x0, [sp, 8]
	ldr	s0, [x0]
	fcmpe	s1, s0
	bge	.L168
	b	.L161
.L168:
	ldr	x0, [sp]
	ldr	s1, [x0, 4]
	ldr	x0, [sp, 8]
	ldr	s0, [x0, 4]
	fcmpe	s1, s0
	bge	.L169
	b	.L161
.L169:
	ldr	x0, [sp]
	ldr	s1, [x0]
	ldr	x0, [sp, 8]
	ldr	s0, [x0, 8]
	fcmpe	s1, s0
	bmi	.L170
	b	.L161
.L170:
	ldr	x0, [sp]
	ldr	s1, [x0, 4]
	ldr	x0, [sp, 8]
	ldr	s0, [x0, 12]
	fcmpe	s1, s0
	bmi	.L171
	b	.L161
.L171:
	mov	w0, 1
	b	.L166
.L161:
	mov	w0, 0
.L166:
	add	sp, sp, 16
	.cfi_def_cfa_offset 0
	ret
	.cfi_endproc
.LFE1246:
	.size	_ZNK6ImRect8ContainsERK6ImVec2, .-_ZNK6ImRect8ContainsERK6ImVec2
	.section	.text._ZNK6ImRect8ContainsERKS_,"axG",@progbits,_ZNK6ImRect8ContainsERKS_,comdat
	.align	2
	.weak	_ZNK6ImRect8ContainsERKS_
	.type	_ZNK6ImRect8ContainsERKS_, %function
_ZNK6ImRect8ContainsERKS_:
.LFB1247:
	.cfi_startproc
	sub	sp, sp, #16
	.cfi_def_cfa_offset 16
	str	x0, [sp, 8]
	str	x1, [sp]
	ldr	x0, [sp]
	ldr	s1, [x0]
	ldr	x0, [sp, 8]
	ldr	s0, [x0]
	fcmpe	s1, s0
	bge	.L180
	b	.L173
.L180:
	ldr	x0, [sp]
	ldr	s1, [x0, 4]
	ldr	x0, [sp, 8]
	ldr	s0, [x0, 4]
	fcmpe	s1, s0
	bge	.L181
	b	.L173
.L181:
	ldr	x0, [sp]
	ldr	s1, [x0, 8]
	ldr	x0, [sp, 8]
	ldr	s0, [x0, 8]
	fcmpe	s1, s0
	bls	.L182
	b	.L173
.L182:
	ldr	x0, [sp]
	ldr	s1, [x0, 12]
	ldr	x0, [sp, 8]
	ldr	s0, [x0, 12]
	fcmpe	s1, s0
	bls	.L183
	b	.L173
.L183:
	mov	w0, 1
	b	.L178
.L173:
	mov	w0, 0
.L178:
	add	sp, sp, 16
	.cfi_def_cfa_offset 0
	ret
	.cfi_endproc
.LFE1247:
	.size	_ZNK6ImRect8ContainsERKS_, .-_ZNK6ImRect8ContainsERKS_
	.section	.text._ZNK6ImRect8OverlapsERKS_,"axG",@progbits,_ZNK6ImRect8OverlapsERKS_,comdat
	.align	2
	.weak	_ZNK6ImRect8OverlapsERKS_
	.type	_ZNK6ImRect8OverlapsERKS_, %function
_ZNK6ImRect8OverlapsERKS_:
.LFB1248:
	.cfi_startproc
	sub	sp, sp, #16
	.cfi_def_cfa_offset 16
	str	x0, [sp, 8]
	str	x1, [sp]
	ldr	x0, [sp]
	ldr	s1, [x0, 4]
	ldr	x0, [sp, 8]
	ldr	s0, [x0, 12]
	fcmpe	s1, s0
	bmi	.L192
	b	.L185
.L192:
	ldr	x0, [sp]
	ldr	s1, [x0, 12]
	ldr	x0, [sp, 8]
	ldr	s0, [x0, 4]
	fcmpe	s1, s0
	bgt	.L193
	b	.L185
.L193:
	ldr	x0, [sp]
	ldr	s1, [x0]
	ldr	x0, [sp, 8]
	ldr	s0, [x0, 8]
	fcmpe	s1, s0
	bmi	.L194
	b	.L185
.L194:
	ldr	x0, [sp]
	ldr	s1, [x0, 8]
	ldr	x0, [sp, 8]
	ldr	s0, [x0]
	fcmpe	s1, s0
	bgt	.L195
	b	.L185
.L195:
	mov	w0, 1
	b	.L190
.L185:
	mov	w0, 0
.L190:
	add	sp, sp, 16
	.cfi_def_cfa_offset 0
	ret
	.cfi_endproc
.LFE1248:
	.size	_ZNK6ImRect8OverlapsERKS_, .-_ZNK6ImRect8OverlapsERKS_
	.section	.text._ZN6ImRect6ExpandEf,"axG",@progbits,_ZN6ImRect6ExpandEf,comdat
	.align	2
	.weak	_ZN6ImRect6ExpandEf
	.type	_ZN6ImRect6ExpandEf, %function
_ZN6ImRect6ExpandEf:
.LFB1251:
	.cfi_startproc
	sub	sp, sp, #16
	.cfi_def_cfa_offset 16
	str	x0, [sp, 8]
	str	s0, [sp, 4]
	ldr	x0, [sp, 8]
	ldr	s1, [x0]
	ldr	s0, [sp, 4]
	fsub	s0, s1, s0
	ldr	x0, [sp, 8]
	str	s0, [x0]
	ldr	x0, [sp, 8]
	ldr	s1, [x0, 4]
	ldr	s0, [sp, 4]
	fsub	s0, s1, s0
	ldr	x0, [sp, 8]
	str	s0, [x0, 4]
	ldr	x0, [sp, 8]
	ldr	s1, [x0, 8]
	ldr	s0, [sp, 4]
	fadd	s0, s1, s0
	ldr	x0, [sp, 8]
	str	s0, [x0, 8]
	ldr	x0, [sp, 8]
	ldr	s1, [x0, 12]
	ldr	s0, [sp, 4]
	fadd	s0, s1, s0
	ldr	x0, [sp, 8]
	str	s0, [x0, 12]
	nop
	add	sp, sp, 16
	.cfi_def_cfa_offset 0
	ret
	.cfi_endproc
.LFE1251:
	.size	_ZN6ImRect6ExpandEf, .-_ZN6ImRect6ExpandEf
	.section	.text._ZN6ImRect6ExpandERK6ImVec2,"axG",@progbits,_ZN6ImRect6ExpandERK6ImVec2,comdat
	.align	2
	.weak	_ZN6ImRect6ExpandERK6ImVec2
	.type	_ZN6ImRect6ExpandERK6ImVec2, %function
_ZN6ImRect6ExpandERK6ImVec2:
.LFB1252:
	.cfi_startproc
	sub	sp, sp, #16
	.cfi_def_cfa_offset 16
	str	x0, [sp, 8]
	str	x1, [sp]
	ldr	x0, [sp, 8]
	ldr	s1, [x0]
	ldr	x0, [sp]
	ldr	s0, [x0]
	fsub	s0, s1, s0
	ldr	x0, [sp, 8]
	str	s0, [x0]
	ldr	x0, [sp, 8]
	ldr	s1, [x0, 4]
	ldr	x0, [sp]
	ldr	s0, [x0, 4]
	fsub	s0, s1, s0
	ldr	x0, [sp, 8]
	str	s0, [x0, 4]
	ldr	x0, [sp, 8]
	ldr	s1, [x0, 8]
	ldr	x0, [sp]
	ldr	s0, [x0]
	fadd	s0, s1, s0
	ldr	x0, [sp, 8]
	str	s0, [x0, 8]
	ldr	x0, [sp, 8]
	ldr	s1, [x0, 12]
	ldr	x0, [sp]
	ldr	s0, [x0, 4]
	fadd	s0, s1, s0
	ldr	x0, [sp, 8]
	str	s0, [x0, 12]
	nop
	add	sp, sp, 16
	.cfi_def_cfa_offset 0
	ret
	.cfi_endproc
.LFE1252:
	.size	_ZN6ImRect6ExpandERK6ImVec2, .-_ZN6ImRect6ExpandERK6ImVec2
	.section	.text._ZN6ImRect9TranslateERK6ImVec2,"axG",@progbits,_ZN6ImRect9TranslateERK6ImVec2,comdat
	.align	2
	.weak	_ZN6ImRect9TranslateERK6ImVec2
	.type	_ZN6ImRect9TranslateERK6ImVec2, %function
_ZN6ImRect9TranslateERK6ImVec2:
.LFB1253:
	.cfi_startproc
	sub	sp, sp, #16
	.cfi_def_cfa_offset 16
	str	x0, [sp, 8]
	str	x1, [sp]
	ldr	x0, [sp, 8]
	ldr	s1, [x0]
	ldr	x0, [sp]
	ldr	s0, [x0]
	fadd	s0, s1, s0
	ldr	x0, [sp, 8]
	str	s0, [x0]
	ldr	x0, [sp, 8]
	ldr	s1, [x0, 4]
	ldr	x0, [sp]
	ldr	s0, [x0, 4]
	fadd	s0, s1, s0
	ldr	x0, [sp, 8]
	str	s0, [x0, 4]
	ldr	x0, [sp, 8]
	ldr	s1, [x0, 8]
	ldr	x0, [sp]
	ldr	s0, [x0]
	fadd	s0, s1, s0
	ldr	x0, [sp, 8]
	str	s0, [x0, 8]
	ldr	x0, [sp, 8]
	ldr	s1, [x0, 12]
	ldr	x0, [sp]
	ldr	s0, [x0, 4]
	fadd	s0, s1, s0
	ldr	x0, [sp, 8]
	str	s0, [x0, 12]
	nop
	add	sp, sp, 16
	.cfi_def_cfa_offset 0
	ret
	.cfi_endproc
.LFE1253:
	.size	_ZN6ImRect9TranslateERK6ImVec2, .-_ZN6ImRect9TranslateERK6ImVec2
	.section	.text._ZN6ImRect8ClipWithERKS_,"axG",@progbits,_ZN6ImRect8ClipWithERKS_,comdat
	.align	2
	.weak	_ZN6ImRect8ClipWithERKS_
	.type	_ZN6ImRect8ClipWithERKS_, %function
_ZN6ImRect8ClipWithERKS_:
.LFB1256:
	.cfi_startproc
	stp	x29, x30, [sp, -48]!
	.cfi_def_cfa_offset 48
	.cfi_offset 29, -48
	.cfi_offset 30, -40
	mov	x29, sp
	str	x19, [sp, 16]
	.cfi_offset 19, -32
	str	x0, [sp, 40]
	str	x1, [sp, 32]
	ldr	x0, [sp, 40]
	ldr	x1, [sp, 32]
	ldr	x19, [sp, 40]
	bl	_ZL5ImMaxRK6ImVec2S1_
	fmov	s2, s0
	fmov	s0, s1
	str	s2, [x19]
	str	s0, [x19, 4]
	ldr	x0, [sp, 40]
	add	x2, x0, 8
	ldr	x0, [sp, 32]
	add	x0, x0, 8
	ldr	x19, [sp, 40]
	mov	x1, x0
	mov	x0, x2
	bl	_ZL5ImMinRK6ImVec2S1_
	fmov	s2, s0
	fmov	s0, s1
	str	s2, [x19, 8]
	str	s0, [x19, 12]
	nop
	ldr	x19, [sp, 16]
	ldp	x29, x30, [sp], 48
	.cfi_restore 30
	.cfi_restore 29
	.cfi_restore 19
	.cfi_def_cfa_offset 0
	ret
	.cfi_endproc
.LFE1256:
	.size	_ZN6ImRect8ClipWithERKS_, .-_ZN6ImRect8ClipWithERKS_
	.section	.text._ZN19ImGuiInputTextState15CursorAnimResetEv,"axG",@progbits,_ZN19ImGuiInputTextState15CursorAnimResetEv,comdat
	.align	2
	.weak	_ZN19ImGuiInputTextState15CursorAnimResetEv
	.type	_ZN19ImGuiInputTextState15CursorAnimResetEv, %function
_ZN19ImGuiInputTextState15CursorAnimResetEv:
.LFB1356:
	.cfi_startproc
	sub	sp, sp, #16
	.cfi_def_cfa_offset 16
	str	x0, [sp, 8]
	ldr	x0, [sp, 8]
	mov	w1, 39322
	movk	w1, 0xbe99, lsl 16
	fmov	s0, w1
	str	s0, [x0, 3704]
	nop
	add	sp, sp, 16
	.cfi_def_cfa_offset 0
	ret
	.cfi_endproc
.LFE1356:
	.size	_ZN19ImGuiInputTextState15CursorAnimResetEv, .-_ZN19ImGuiInputTextState15CursorAnimResetEv
	.section	.text._ZN19ImGuiInputTextState11CursorClampEv,"axG",@progbits,_ZN19ImGuiInputTextState11CursorClampEv,comdat
	.align	2
	.weak	_ZN19ImGuiInputTextState11CursorClampEv
	.type	_ZN19ImGuiInputTextState11CursorClampEv, %function
_ZN19ImGuiInputTextState11CursorClampEv:
.LFB1357:
	.cfi_startproc
	stp	x29, x30, [sp, -32]!
	.cfi_def_cfa_offset 32
	.cfi_offset 29, -32
	.cfi_offset 30, -24
	mov	x29, sp
	str	x0, [sp, 24]
	ldr	x0, [sp, 24]
	ldr	w2, [x0, 76]
	ldr	x0, [sp, 24]
	ldr	w0, [x0, 4]
	mov	w1, w0
	mov	w0, w2
	bl	_Z5ImMinIiET_S0_S0_
	mov	w1, w0
	ldr	x0, [sp, 24]
	str	w1, [x0, 76]
	ldr	x0, [sp, 24]
	ldr	w2, [x0, 80]
	ldr	x0, [sp, 24]
	ldr	w0, [x0, 4]
	mov	w1, w0
	mov	w0, w2
	bl	_Z5ImMinIiET_S0_S0_
	mov	w1, w0
	ldr	x0, [sp, 24]
	str	w1, [x0, 80]
	ldr	x0, [sp, 24]
	ldr	w2, [x0, 84]
	ldr	x0, [sp, 24]
	ldr	w0, [x0, 4]
	mov	w1, w0
	mov	w0, w2
	bl	_Z5ImMinIiET_S0_S0_
	mov	w1, w0
	ldr	x0, [sp, 24]
	str	w1, [x0, 84]
	nop
	ldp	x29, x30, [sp], 32
	.cfi_restore 30
	.cfi_restore 29
	.cfi_def_cfa_offset 0
	ret
	.cfi_endproc
.LFE1357:
	.size	_ZN19ImGuiInputTextState11CursorClampEv, .-_ZN19ImGuiInputTextState11CursorClampEv
	.section	.text._ZNK19ImGuiInputTextState12HasSelectionEv,"axG",@progbits,_ZNK19ImGuiInputTextState12HasSelectionEv,comdat
	.align	2
	.weak	_ZNK19ImGuiInputTextState12HasSelectionEv
	.type	_ZNK19ImGuiInputTextState12HasSelectionEv, %function
_ZNK19ImGuiInputTextState12HasSelectionEv:
.LFB1358:
	.cfi_startproc
	sub	sp, sp, #16
	.cfi_def_cfa_offset 16
	str	x0, [sp, 8]
	ldr	x0, [sp, 8]
	ldr	w1, [x0, 80]
	ldr	x0, [sp, 8]
	ldr	w0, [x0, 84]
	cmp	w1, w0
	cset	w0, ne
	and	w0, w0, 255
	add	sp, sp, 16
	.cfi_def_cfa_offset 0
	ret
	.cfi_endproc
.LFE1358:
	.size	_ZNK19ImGuiInputTextState12HasSelectionEv, .-_ZNK19ImGuiInputTextState12HasSelectionEv
	.section	.text._ZN19ImGuiInputTextState14ClearSelectionEv,"axG",@progbits,_ZN19ImGuiInputTextState14ClearSelectionEv,comdat
	.align	2
	.weak	_ZN19ImGuiInputTextState14ClearSelectionEv
	.type	_ZN19ImGuiInputTextState14ClearSelectionEv, %function
_ZN19ImGuiInputTextState14ClearSelectionEv:
.LFB1359:
	.cfi_startproc
	sub	sp, sp, #16
	.cfi_def_cfa_offset 16
	str	x0, [sp, 8]
	ldr	x0, [sp, 8]
	ldr	w1, [x0, 76]
	ldr	x0, [sp, 8]
	str	w1, [x0, 84]
	ldr	x0, [sp, 8]
	ldr	w1, [x0, 84]
	ldr	x0, [sp, 8]
	str	w1, [x0, 80]
	nop
	add	sp, sp, 16
	.cfi_def_cfa_offset 0
	ret
	.cfi_endproc
.LFE1359:
	.size	_ZN19ImGuiInputTextState14ClearSelectionEv, .-_ZN19ImGuiInputTextState14ClearSelectionEv
	.section	.text._ZN19ImGuiInputTextState9SelectAllEv,"axG",@progbits,_ZN19ImGuiInputTextState9SelectAllEv,comdat
	.align	2
	.weak	_ZN19ImGuiInputTextState9SelectAllEv
	.type	_ZN19ImGuiInputTextState9SelectAllEv, %function
_ZN19ImGuiInputTextState9SelectAllEv:
.LFB1363:
	.cfi_startproc
	sub	sp, sp, #16
	.cfi_def_cfa_offset 16
	str	x0, [sp, 8]
	ldr	x0, [sp, 8]
	str	wzr, [x0, 80]
	ldr	x0, [sp, 8]
	ldr	w1, [x0, 4]
	ldr	x0, [sp, 8]
	str	w1, [x0, 84]
	ldr	x0, [sp, 8]
	ldr	w1, [x0, 84]
	ldr	x0, [sp, 8]
	str	w1, [x0, 76]
	ldr	x0, [sp, 8]
	strb	wzr, [x0, 98]
	nop
	add	sp, sp, 16
	.cfi_def_cfa_offset 0
	ret
	.cfi_endproc
.LFE1363:
	.size	_ZN19ImGuiInputTextState9SelectAllEv, .-_ZN19ImGuiInputTextState9SelectAllEv
	.section	.text._ZN19ImGuiNextWindowData10ClearFlagsEv,"axG",@progbits,_ZN19ImGuiNextWindowData10ClearFlagsEv,comdat
	.align	2
	.weak	_ZN19ImGuiNextWindowData10ClearFlagsEv
	.type	_ZN19ImGuiNextWindowData10ClearFlagsEv, %function
_ZN19ImGuiNextWindowData10ClearFlagsEv:
.LFB1370:
	.cfi_startproc
	sub	sp, sp, #16
	.cfi_def_cfa_offset 16
	str	x0, [sp, 8]
	ldr	x0, [sp, 8]
	str	wzr, [x0]
	nop
	add	sp, sp, 16
	.cfi_def_cfa_offset 0
	ret
	.cfi_endproc
.LFE1370:
	.size	_ZN19ImGuiNextWindowData10ClearFlagsEv, .-_ZN19ImGuiNextWindowData10ClearFlagsEv
	.section	.text._ZN17ImGuiNextItemData10ClearFlagsEv,"axG",@progbits,_ZN17ImGuiNextItemData10ClearFlagsEv,comdat
	.align	2
	.weak	_ZN17ImGuiNextItemData10ClearFlagsEv
	.type	_ZN17ImGuiNextItemData10ClearFlagsEv, %function
_ZN17ImGuiNextItemData10ClearFlagsEv:
.LFB1374:
	.cfi_startproc
	sub	sp, sp, #16
	.cfi_def_cfa_offset 16
	str	x0, [sp, 8]
	ldr	x0, [sp, 8]
	str	wzr, [x0]
	nop
	add	sp, sp, 16
	.cfi_def_cfa_offset 0
	ret
	.cfi_endproc
.LFE1374:
	.size	_ZN17ImGuiNextItemData10ClearFlagsEv, .-_ZN17ImGuiNextItemData10ClearFlagsEv
	.section	.text._ZN17ImGuiLastItemDataC2Ev,"axG",@progbits,_ZN17ImGuiLastItemDataC5Ev,comdat
	.align	2
	.weak	_ZN17ImGuiLastItemDataC2Ev
	.type	_ZN17ImGuiLastItemDataC2Ev, %function
_ZN17ImGuiLastItemDataC2Ev:
.LFB1376:
	.cfi_startproc
	stp	x29, x30, [sp, -32]!
	.cfi_def_cfa_offset 32
	.cfi_offset 29, -32
	.cfi_offset 30, -24
	mov	x29, sp
	str	x0, [sp, 24]
	ldr	x0, [sp, 24]
	add	x0, x0, 12
	bl	_ZN6ImRectC1Ev
	ldr	x0, [sp, 24]
	add	x0, x0, 28
	bl	_ZN6ImRectC1Ev
	ldr	x0, [sp, 24]
	add	x0, x0, 44
	bl	_ZN6ImRectC1Ev
	mov	x2, 60
	mov	w1, 0
	ldr	x0, [sp, 24]
	bl	memset
	nop
	ldp	x29, x30, [sp], 32
	.cfi_restore 30
	.cfi_restore 29
	.cfi_def_cfa_offset 0
	ret
	.cfi_endproc
.LFE1376:
	.size	_ZN17ImGuiLastItemDataC2Ev, .-_ZN17ImGuiLastItemDataC2Ev
	.weak	_ZN17ImGuiLastItemDataC1Ev
	.set	_ZN17ImGuiLastItemDataC1Ev,_ZN17ImGuiLastItemDataC2Ev
	.section	.text._ZN15ImGuiPtrOrIndexC2EPv,"axG",@progbits,_ZN15ImGuiPtrOrIndexC5EPv,comdat
	.align	2
	.weak	_ZN15ImGuiPtrOrIndexC2EPv
	.type	_ZN15ImGuiPtrOrIndexC2EPv, %function
_ZN15ImGuiPtrOrIndexC2EPv:
.LFB1382:
	.cfi_startproc
	sub	sp, sp, #16
	.cfi_def_cfa_offset 16
	str	x0, [sp, 8]
	str	x1, [sp]
	ldr	x0, [sp, 8]
	ldr	x1, [sp]
	str	x1, [x0]
	ldr	x0, [sp, 8]
	mov	w1, -1
	str	w1, [x0, 8]
	nop
	add	sp, sp, 16
	.cfi_def_cfa_offset 0
	ret
	.cfi_endproc
.LFE1382:
	.size	_ZN15ImGuiPtrOrIndexC2EPv, .-_ZN15ImGuiPtrOrIndexC2EPv
	.weak	_ZN15ImGuiPtrOrIndexC1EPv
	.set	_ZN15ImGuiPtrOrIndexC1EPv,_ZN15ImGuiPtrOrIndexC2EPv
	.section	.text._ZN15ImGuiPtrOrIndexC2Ei,"axG",@progbits,_ZN15ImGuiPtrOrIndexC5Ei,comdat
	.align	2
	.weak	_ZN15ImGuiPtrOrIndexC2Ei
	.type	_ZN15ImGuiPtrOrIndexC2Ei, %function
_ZN15ImGuiPtrOrIndexC2Ei:
.LFB1385:
	.cfi_startproc
	sub	sp, sp, #16
	.cfi_def_cfa_offset 16
	str	x0, [sp, 8]
	str	w1, [sp, 4]
	ldr	x0, [sp, 8]
	str	xzr, [x0]
	ldr	x0, [sp, 8]
	ldr	w1, [sp, 4]
	str	w1, [x0, 8]
	nop
	add	sp, sp, 16
	.cfi_def_cfa_offset 0
	ret
	.cfi_endproc
.LFE1385:
	.size	_ZN15ImGuiPtrOrIndexC2Ei, .-_ZN15ImGuiPtrOrIndexC2Ei
	.weak	_ZN15ImGuiPtrOrIndexC1Ei
	.set	_ZN15ImGuiPtrOrIndexC1Ei,_ZN15ImGuiPtrOrIndexC2Ei
	.section	.text._ZNK14ImGuiViewportP15CalcWorkRectPosERK6ImVec2,"axG",@progbits,_ZNK14ImGuiViewportP15CalcWorkRectPosERK6ImVec2,comdat
	.align	2
	.weak	_ZNK14ImGuiViewportP15CalcWorkRectPosERK6ImVec2
	.type	_ZNK14ImGuiViewportP15CalcWorkRectPosERK6ImVec2, %function
_ZNK14ImGuiViewportP15CalcWorkRectPosERK6ImVec2:
.LFB1428:
	.cfi_startproc
	stp	x29, x30, [sp, -48]!
	.cfi_def_cfa_offset 48
	.cfi_offset 29, -48
	.cfi_offset 30, -40
	mov	x29, sp
	str	x0, [sp, 24]
	str	x1, [sp, 16]
	adrp	x0, :got:__stack_chk_guard
	ldr	x0, [x0, #:got_lo12:__stack_chk_guard]
	ldr	x1, [x0]
	str	x1, [sp, 40]
	mov	x1, 0
	ldr	x0, [sp, 24]
	ldr	s1, [x0, 4]
	ldr	x0, [sp, 16]
	ldr	s0, [x0]
	fadd	s2, s1, s0
	ldr	x0, [sp, 24]
	ldr	s1, [x0, 8]
	ldr	x0, [sp, 16]
	ldr	s0, [x0, 4]
	fadd	s0, s1, s0
	add	x0, sp, 32
	fmov	s1, s0
	fmov	s0, s2
	bl	_ZN6ImVec2C1Eff
	ldr	x0, [sp, 32]
	mov	x1, x0
	lsr	w1, w1, 0
	lsr	x0, x0, 32
	fmov	s0, w1
	fmov	s1, w0
	adrp	x0, :got:__stack_chk_guard
	ldr	x0, [x0, #:got_lo12:__stack_chk_guard]
	ldr	x2, [sp, 40]
	ldr	x1, [x0]
	subs	x2, x2, x1
	mov	x1, 0
	beq	.L213
	bl	__stack_chk_fail
.L213:
	ldp	x29, x30, [sp], 48
	.cfi_restore 30
	.cfi_restore 29
	.cfi_def_cfa_offset 0
	ret
	.cfi_endproc
.LFE1428:
	.size	_ZNK14ImGuiViewportP15CalcWorkRectPosERK6ImVec2, .-_ZNK14ImGuiViewportP15CalcWorkRectPosERK6ImVec2
	.section	.text._ZNK14ImGuiViewportP16CalcWorkRectSizeERK6ImVec2S2_,"axG",@progbits,_ZNK14ImGuiViewportP16CalcWorkRectSizeERK6ImVec2S2_,comdat
	.align	2
	.weak	_ZNK14ImGuiViewportP16CalcWorkRectSizeERK6ImVec2S2_
	.type	_ZNK14ImGuiViewportP16CalcWorkRectSizeERK6ImVec2S2_, %function
_ZNK14ImGuiViewportP16CalcWorkRectSizeERK6ImVec2S2_:
.LFB1429:
	.cfi_startproc
	stp	x29, x30, [sp, -80]!
	.cfi_def_cfa_offset 80
	.cfi_offset 29, -80
	.cfi_offset 30, -72
	mov	x29, sp
	str	d8, [sp, 16]
	.cfi_offset 72, -64
	str	x0, [sp, 56]
	str	x1, [sp, 48]
	str	x2, [sp, 40]
	adrp	x0, :got:__stack_chk_guard
	ldr	x0, [x0, #:got_lo12:__stack_chk_guard]
	ldr	x1, [x0]
	str	x1, [sp, 72]
	mov	x1, 0
	ldr	x0, [sp, 56]
	ldr	s1, [x0, 12]
	ldr	x0, [sp, 48]
	ldr	s0, [x0]
	fsub	s1, s1, s0
	ldr	x0, [sp, 40]
	ldr	s0, [x0]
	fadd	s0, s1, s0
	fmov	s1, s0
	movi	v0.2s, #0
	bl	_Z5ImMaxIfET_S0_S0_
	fmov	s8, s0
	ldr	x0, [sp, 56]
	ldr	s1, [x0, 16]
	ldr	x0, [sp, 48]
	ldr	s0, [x0, 4]
	fsub	s1, s1, s0
	ldr	x0, [sp, 40]
	ldr	s0, [x0, 4]
	fadd	s0, s1, s0
	fmov	s1, s0
	movi	v0.2s, #0
	bl	_Z5ImMaxIfET_S0_S0_
	add	x0, sp, 64
	fmov	s1, s0
	fmov	s0, s8
	bl	_ZN6ImVec2C1Eff
	ldr	x0, [sp, 64]
	mov	x1, x0
	lsr	w1, w1, 0
	lsr	x0, x0, 32
	fmov	s0, w1
	fmov	s1, w0
	adrp	x0, :got:__stack_chk_guard
	ldr	x0, [x0, #:got_lo12:__stack_chk_guard]
	ldr	x2, [sp, 72]
	ldr	x1, [x0]
	subs	x2, x2, x1
	mov	x1, 0
	beq	.L216
	bl	__stack_chk_fail
.L216:
	ldr	d8, [sp, 16]
	ldp	x29, x30, [sp], 80
	.cfi_restore 30
	.cfi_restore 29
	.cfi_restore 72
	.cfi_def_cfa_offset 0
	ret
	.cfi_endproc
.LFE1429:
	.size	_ZNK14ImGuiViewportP16CalcWorkRectSizeERK6ImVec2S2_, .-_ZNK14ImGuiViewportP16CalcWorkRectSizeERK6ImVec2S2_
	.section	.text._ZNK14ImGuiViewportP16GetBuildWorkRectEv,"axG",@progbits,_ZNK14ImGuiViewportP16GetBuildWorkRectEv,comdat
	.align	2
	.weak	_ZNK14ImGuiViewportP16GetBuildWorkRectEv
	.type	_ZNK14ImGuiViewportP16GetBuildWorkRectEv, %function
_ZNK14ImGuiViewportP16GetBuildWorkRectEv:
.LFB1433:
	.cfi_startproc
	stp	x29, x30, [sp, -80]!
	.cfi_def_cfa_offset 80
	.cfi_offset 29, -80
	.cfi_offset 30, -72
	mov	x29, sp
	str	x0, [sp, 24]
	adrp	x0, :got:__stack_chk_guard
	ldr	x0, [x0, #:got_lo12:__stack_chk_guard]
	ldr	x1, [x0]
	str	x1, [sp, 72]
	mov	x1, 0
	ldr	x0, [sp, 24]
	add	x0, x0, 168
	mov	x1, x0
	ldr	x0, [sp, 24]
	bl	_ZNK14ImGuiViewportP15CalcWorkRectPosERK6ImVec2
	fmov	s2, s0
	fmov	s0, s1
	str	s2, [sp, 40]
	str	s0, [sp, 44]
	ldr	x0, [sp, 24]
	add	x1, x0, 168
	ldr	x0, [sp, 24]
	add	x0, x0, 176
	mov	x2, x0
	ldr	x0, [sp, 24]
	bl	_ZNK14ImGuiViewportP16CalcWorkRectSizeERK6ImVec2S2_
	fmov	s2, s0
	fmov	s0, s1
	str	s2, [sp, 48]
	str	s0, [sp, 52]
	ldr	s4, [sp, 40]
	ldr	s5, [sp, 44]
	ldr	s1, [sp, 40]
	ldr	s0, [sp, 48]
	fadd	s2, s1, s0
	ldr	s1, [sp, 44]
	ldr	s0, [sp, 52]
	fadd	s0, s1, s0
	add	x0, sp, 56
	fmov	s3, s0
	fmov	s1, s5
	fmov	s0, s4
	bl	_ZN6ImRectC1Effff
	ldp	x0, x1, [sp, 56]
	mov	x2, x0
	mov	x3, x1
	lsr	w4, w2, 0
	mov	x2, x0
	mov	x3, x1
	lsr	x2, x2, 32
	mov	w5, w2
	mov	x2, x0
	mov	x3, x1
	lsr	w2, w3, 0
	lsr	x0, x1, 32
	fmov	s0, w4
	fmov	s1, w5
	fmov	s2, w2
	fmov	s3, w0
	adrp	x0, :got:__stack_chk_guard
	ldr	x0, [x0, #:got_lo12:__stack_chk_guard]
	ldr	x2, [sp, 72]
	ldr	x1, [x0]
	subs	x2, x2, x1
	mov	x1, 0
	beq	.L219
	bl	__stack_chk_fail
.L219:
	ldp	x29, x30, [sp], 80
	.cfi_restore 30
	.cfi_restore 29
	.cfi_def_cfa_offset 0
	ret
	.cfi_endproc
.LFE1433:
	.size	_ZNK14ImGuiViewportP16GetBuildWorkRectEv, .-_ZNK14ImGuiViewportP16GetBuildWorkRectEv
	.section	.text._ZNK11ImGuiWindow4RectEv,"axG",@progbits,_ZNK11ImGuiWindow4RectEv,comdat
	.align	2
	.weak	_ZNK11ImGuiWindow4RectEv
	.type	_ZNK11ImGuiWindow4RectEv, %function
_ZNK11ImGuiWindow4RectEv:
.LFB1498:
	.cfi_startproc
	stp	x29, x30, [sp, -64]!
	.cfi_def_cfa_offset 64
	.cfi_offset 29, -64
	.cfi_offset 30, -56
	mov	x29, sp
	str	x0, [sp, 24]
	adrp	x0, :got:__stack_chk_guard
	ldr	x0, [x0, #:got_lo12:__stack_chk_guard]
	ldr	x1, [x0]
	str	x1, [sp, 56]
	mov	x1, 0
	ldr	x0, [sp, 24]
	ldr	s4, [x0, 24]
	ldr	x0, [sp, 24]
	ldr	s5, [x0, 28]
	ldr	x0, [sp, 24]
	ldr	s1, [x0, 24]
	ldr	x0, [sp, 24]
	ldr	s0, [x0, 32]
	fadd	s2, s1, s0
	ldr	x0, [sp, 24]
	ldr	s1, [x0, 28]
	ldr	x0, [sp, 24]
	ldr	s0, [x0, 36]
	fadd	s0, s1, s0
	add	x0, sp, 40
	fmov	s3, s0
	fmov	s1, s5
	fmov	s0, s4
	bl	_ZN6ImRectC1Effff
	ldp	x0, x1, [sp, 40]
	mov	x2, x0
	mov	x3, x1
	lsr	w4, w2, 0
	mov	x2, x0
	mov	x3, x1
	lsr	x2, x2, 32
	mov	w5, w2
	mov	x2, x0
	mov	x3, x1
	lsr	w2, w3, 0
	lsr	x0, x1, 32
	fmov	s0, w4
	fmov	s1, w5
	fmov	s2, w2
	fmov	s3, w0
	adrp	x0, :got:__stack_chk_guard
	ldr	x0, [x0, #:got_lo12:__stack_chk_guard]
	ldr	x2, [sp, 56]
	ldr	x1, [x0]
	subs	x2, x2, x1
	mov	x1, 0
	beq	.L222
	bl	__stack_chk_fail
.L222:
	ldp	x29, x30, [sp], 64
	.cfi_restore 30
	.cfi_restore 29
	.cfi_def_cfa_offset 0
	ret
	.cfi_endproc
.LFE1498:
	.size	_ZNK11ImGuiWindow4RectEv, .-_ZNK11ImGuiWindow4RectEv
	.section	.text._ZNK11ImGuiWindow12CalcFontSizeEv,"axG",@progbits,_ZNK11ImGuiWindow12CalcFontSizeEv,comdat
	.align	2
	.weak	_ZNK11ImGuiWindow12CalcFontSizeEv
	.type	_ZNK11ImGuiWindow12CalcFontSizeEv, %function
_ZNK11ImGuiWindow12CalcFontSizeEv:
.LFB1499:
	.cfi_startproc
	sub	sp, sp, #32
	.cfi_def_cfa_offset 32
	str	x0, [sp, 8]
	adrp	x0, :got:GImGui
	ldr	x0, [x0, #:got_lo12:GImGui]
	ldr	x0, [x0]
	str	x0, [sp, 24]
	ldr	x0, [sp, 24]
	ldr	s1, [x0, 15364]
	ldr	x0, [sp, 8]
	ldr	s0, [x0, 624]
	fmul	s0, s1, s0
	str	s0, [sp, 20]
	ldr	x0, [sp, 8]
	ldr	x0, [x0, 840]
	cmp	x0, 0
	beq	.L224
	ldr	x0, [sp, 8]
	ldr	x0, [x0, 840]
	ldr	s0, [x0, 624]
	ldr	s1, [sp, 20]
	fmul	s0, s1, s0
	str	s0, [sp, 20]
.L224:
	ldr	s0, [sp, 20]
	add	sp, sp, 32
	.cfi_def_cfa_offset 0
	ret
	.cfi_endproc
.LFE1499:
	.size	_ZNK11ImGuiWindow12CalcFontSizeEv, .-_ZNK11ImGuiWindow12CalcFontSizeEv
	.section	.text._ZNK11ImGuiWindow14TitleBarHeightEv,"axG",@progbits,_ZNK11ImGuiWindow14TitleBarHeightEv,comdat
	.align	2
	.weak	_ZNK11ImGuiWindow14TitleBarHeightEv
	.type	_ZNK11ImGuiWindow14TitleBarHeightEv, %function
_ZNK11ImGuiWindow14TitleBarHeightEv:
.LFB1500:
	.cfi_startproc
	stp	x29, x30, [sp, -48]!
	.cfi_def_cfa_offset 48
	.cfi_offset 29, -48
	.cfi_offset 30, -40
	mov	x29, sp
	str	x0, [sp, 24]
	adrp	x0, :got:GImGui
	ldr	x0, [x0, #:got_lo12:GImGui]
	ldr	x0, [x0]
	str	x0, [sp, 40]
	ldr	x0, [sp, 24]
	ldr	w0, [x0, 12]
	and	w0, w0, 1
	cmp	w0, 0
	bne	.L227
	ldr	x0, [sp, 24]
	bl	_ZNK11ImGuiWindow12CalcFontSizeEv
	fmov	s1, s0
	ldr	x0, [sp, 40]
	ldr	s0, [x0, 14368]
	fadd	s0, s0, s0
	fadd	s0, s1, s0
	b	.L229
.L227:
	movi	v0.2s, #0
.L229:
	ldp	x29, x30, [sp], 48
	.cfi_restore 30
	.cfi_restore 29
	.cfi_def_cfa_offset 0
	ret
	.cfi_endproc
.LFE1500:
	.size	_ZNK11ImGuiWindow14TitleBarHeightEv, .-_ZNK11ImGuiWindow14TitleBarHeightEv
	.section	.text._ZNK11ImGuiWindow13MenuBarHeightEv,"axG",@progbits,_ZNK11ImGuiWindow13MenuBarHeightEv,comdat
	.align	2
	.weak	_ZNK11ImGuiWindow13MenuBarHeightEv
	.type	_ZNK11ImGuiWindow13MenuBarHeightEv, %function
_ZNK11ImGuiWindow13MenuBarHeightEv:
.LFB1502:
	.cfi_startproc
	stp	x29, x30, [sp, -64]!
	.cfi_def_cfa_offset 64
	.cfi_offset 29, -64
	.cfi_offset 30, -56
	mov	x29, sp
	str	d8, [sp, 16]
	.cfi_offset 72, -48
	str	x0, [sp, 40]
	adrp	x0, :got:GImGui
	ldr	x0, [x0, #:got_lo12:GImGui]
	ldr	x0, [x0]
	str	x0, [sp, 56]
	ldr	x0, [sp, 40]
	ldr	w0, [x0, 12]
	and	w0, w0, 1024
	cmp	w0, 0
	beq	.L231
	ldr	x0, [sp, 40]
	ldr	s8, [x0, 328]
	ldr	x0, [sp, 40]
	bl	_ZNK11ImGuiWindow12CalcFontSizeEv
	fadd	s1, s8, s0
	ldr	x0, [sp, 56]
	ldr	s0, [x0, 14368]
	fadd	s0, s0, s0
	fadd	s0, s1, s0
	b	.L233
.L231:
	movi	v0.2s, #0
.L233:
	ldr	d8, [sp, 16]
	ldp	x29, x30, [sp], 64
	.cfi_restore 30
	.cfi_restore 29
	.cfi_restore 72
	.cfi_def_cfa_offset 0
	ret
	.cfi_endproc
.LFE1502:
	.size	_ZNK11ImGuiWindow13MenuBarHeightEv, .-_ZNK11ImGuiWindow13MenuBarHeightEv
	.section	.text._ZNK11ImGuiWindow11MenuBarRectEv,"axG",@progbits,_ZNK11ImGuiWindow11MenuBarRectEv,comdat
	.align	2
	.weak	_ZNK11ImGuiWindow11MenuBarRectEv
	.type	_ZNK11ImGuiWindow11MenuBarRectEv, %function
_ZNK11ImGuiWindow11MenuBarRectEv:
.LFB1503:
	.cfi_startproc
	stp	x29, x30, [sp, -80]!
	.cfi_def_cfa_offset 80
	.cfi_offset 29, -80
	.cfi_offset 30, -72
	mov	x29, sp
	stp	d8, d9, [sp, 16]
	.cfi_offset 72, -64
	.cfi_offset 73, -56
	str	x0, [sp, 40]
	adrp	x0, :got:__stack_chk_guard
	ldr	x0, [x0, #:got_lo12:__stack_chk_guard]
	ldr	x1, [x0]
	str	x1, [sp, 72]
	mov	x1, 0
	ldr	x0, [sp, 40]
	ldr	s8, [x0, 28]
	ldr	x0, [sp, 40]
	bl	_ZNK11ImGuiWindow14TitleBarHeightEv
	fadd	s0, s8, s0
	str	s0, [sp, 52]
	ldr	x0, [sp, 40]
	ldr	s8, [x0, 24]
	ldr	x0, [sp, 40]
	ldr	s1, [x0, 24]
	ldr	x0, [sp, 40]
	ldr	s0, [x0, 40]
	fadd	s9, s1, s0
	ldr	x0, [sp, 40]
	bl	_ZNK11ImGuiWindow13MenuBarHeightEv
	fmov	s1, s0
	ldr	s0, [sp, 52]
	fadd	s0, s1, s0
	add	x0, sp, 56
	fmov	s3, s0
	fmov	s2, s9
	ldr	s1, [sp, 52]
	fmov	s0, s8
	bl	_ZN6ImRectC1Effff
	ldp	x0, x1, [sp, 56]
	mov	x2, x0
	mov	x3, x1
	lsr	w4, w2, 0
	mov	x2, x0
	mov	x3, x1
	lsr	x2, x2, 32
	mov	w5, w2
	mov	x2, x0
	mov	x3, x1
	lsr	w2, w3, 0
	lsr	x0, x1, 32
	fmov	s0, w4
	fmov	s1, w5
	fmov	s2, w2
	fmov	s3, w0
	adrp	x0, :got:__stack_chk_guard
	ldr	x0, [x0, #:got_lo12:__stack_chk_guard]
	ldr	x2, [sp, 72]
	ldr	x1, [x0]
	subs	x2, x2, x1
	mov	x1, 0
	beq	.L236
	bl	__stack_chk_fail
.L236:
	ldp	d8, d9, [sp, 16]
	ldp	x29, x30, [sp], 80
	.cfi_restore 30
	.cfi_restore 29
	.cfi_restore 72
	.cfi_restore 73
	.cfi_def_cfa_offset 0
	ret
	.cfi_endproc
.LFE1503:
	.size	_ZNK11ImGuiWindow11MenuBarRectEv, .-_ZNK11ImGuiWindow11MenuBarRectEv
	.section	.text._ZN12ImGuiTabItemC2Ev,"axG",@progbits,_ZN12ImGuiTabItemC5Ev,comdat
	.align	2
	.weak	_ZN12ImGuiTabItemC2Ev
	.type	_ZN12ImGuiTabItemC2Ev, %function
_ZN12ImGuiTabItemC2Ev:
.LFB1505:
	.cfi_startproc
	stp	x29, x30, [sp, -32]!
	.cfi_def_cfa_offset 32
	.cfi_offset 29, -32
	.cfi_offset 30, -24
	mov	x29, sp
	str	x0, [sp, 24]
	mov	x2, 44
	mov	w1, 0
	ldr	x0, [sp, 24]
	bl	memset
	ldr	x0, [sp, 24]
	mov	w1, -1
	str	w1, [x0, 12]
	ldr	x0, [sp, 24]
	ldr	w1, [x0, 12]
	ldr	x0, [sp, 24]
	str	w1, [x0, 8]
	ldr	x0, [sp, 24]
	fmov	s0, -1.0e+0
	str	s0, [x0, 28]
	ldr	x0, [sp, 24]
	mov	w1, -1
	str	w1, [x0, 32]
	ldr	x0, [sp, 24]
	mov	w1, -1
	strh	w1, [x0, 38]
	ldr	x0, [sp, 24]
	ldrsh	w1, [x0, 38]
	ldr	x0, [sp, 24]
	strh	w1, [x0, 36]
	nop
	ldp	x29, x30, [sp], 32
	.cfi_restore 30
	.cfi_restore 29
	.cfi_def_cfa_offset 0
	ret
	.cfi_endproc
.LFE1505:
	.size	_ZN12ImGuiTabItemC2Ev, .-_ZN12ImGuiTabItemC2Ev
	.weak	_ZN12ImGuiTabItemC1Ev
	.set	_ZN12ImGuiTabItemC1Ev,_ZN12ImGuiTabItemC2Ev
	.section	.text._ZNK11ImGuiTabBar11GetTabOrderEPK12ImGuiTabItem,"axG",@progbits,_ZNK11ImGuiTabBar11GetTabOrderEPK12ImGuiTabItem,comdat
	.align	2
	.weak	_ZNK11ImGuiTabBar11GetTabOrderEPK12ImGuiTabItem
	.type	_ZNK11ImGuiTabBar11GetTabOrderEPK12ImGuiTabItem, %function
_ZNK11ImGuiTabBar11GetTabOrderEPK12ImGuiTabItem:
.LFB1507:
	.cfi_startproc
	stp	x29, x30, [sp, -32]!
	.cfi_def_cfa_offset 32
	.cfi_offset 29, -32
	.cfi_offset 30, -24
	mov	x29, sp
	str	x0, [sp, 24]
	str	x1, [sp, 16]
	ldr	x0, [sp, 24]
	ldr	x1, [sp, 16]
	bl	_ZNK8ImVectorI12ImGuiTabItemE14index_from_ptrEPKS0_
	ldp	x29, x30, [sp], 32
	.cfi_restore 30
	.cfi_restore 29
	.cfi_def_cfa_offset 0
	ret
	.cfi_endproc
.LFE1507:
	.size	_ZNK11ImGuiTabBar11GetTabOrderEPK12ImGuiTabItem, .-_ZNK11ImGuiTabBar11GetTabOrderEPK12ImGuiTabItem
	.section	.rodata
	.align	3
.LC4:
	.string	"const char* ImGuiTabBar::GetTabName(const ImGuiTabItem*) const"
	.align	3
.LC5:
	.string	"/media/psf/Home/Desktop/git/C-/mac/myproject/external/imgui/include/imgui_internal.h"
	.align	3
.LC6:
	.string	"tab->NameOffset != -1 && tab->NameOffset < TabsNames.Buf.Size"
	.section	.text._ZNK11ImGuiTabBar10GetTabNameEPK12ImGuiTabItem,"axG",@progbits,_ZNK11ImGuiTabBar10GetTabNameEPK12ImGuiTabItem,comdat
	.align	2
	.weak	_ZNK11ImGuiTabBar10GetTabNameEPK12ImGuiTabItem
	.type	_ZNK11ImGuiTabBar10GetTabNameEPK12ImGuiTabItem, %function
_ZNK11ImGuiTabBar10GetTabNameEPK12ImGuiTabItem:
.LFB1508:
	.cfi_startproc
	stp	x29, x30, [sp, -32]!
	.cfi_def_cfa_offset 32
	.cfi_offset 29, -32
	.cfi_offset 30, -24
	mov	x29, sp
	str	x0, [sp, 24]
	str	x1, [sp, 16]
	ldr	x0, [sp, 16]
	ldr	w0, [x0, 32]
	cmn	w0, #1
	beq	.L241
	ldr	x0, [sp, 16]
	ldr	w1, [x0, 32]
	ldr	x0, [sp, 24]
	ldr	w0, [x0, 136]
	cmp	w1, w0
	blt	.L244
.L241:
	adrp	x0, .LC4
	add	x3, x0, :lo12:.LC4
	mov	w2, 2419
	adrp	x0, .LC5
	add	x1, x0, :lo12:.LC5
	adrp	x0, .LC6
	add	x0, x0, :lo12:.LC6
	bl	__assert_fail
.L244:
	ldr	x0, [sp, 24]
	ldr	x1, [x0, 144]
	ldr	x0, [sp, 16]
	ldr	w0, [x0, 32]
	sxtw	x0, w0
	add	x0, x1, x0
	ldp	x29, x30, [sp], 32
	.cfi_restore 30
	.cfi_restore 29
	.cfi_def_cfa_offset 0
	ret
	.cfi_endproc
.LFE1508:
	.size	_ZNK11ImGuiTabBar10GetTabNameEPK12ImGuiTabItem, .-_ZNK11ImGuiTabBar10GetTabNameEPK12ImGuiTabItem
	.section	.text._ZN5ImGui16GetCurrentWindowEv,"axG",@progbits,_ZN5ImGui16GetCurrentWindowEv,comdat
	.align	2
	.weak	_ZN5ImGui16GetCurrentWindowEv
	.type	_ZN5ImGui16GetCurrentWindowEv, %function
_ZN5ImGui16GetCurrentWindowEv:
.LFB1532:
	.cfi_startproc
	sub	sp, sp, #16
	.cfi_def_cfa_offset 16
	adrp	x0, :got:GImGui
	ldr	x0, [x0, #:got_lo12:GImGui]
	ldr	x0, [x0]
	str	x0, [sp, 8]
	ldr	x0, [sp, 8]
	ldr	x0, [x0, 16032]
	mov	w1, 1
	strb	w1, [x0, 152]
	ldr	x0, [sp, 8]
	ldr	x0, [x0, 16032]
	add	sp, sp, 16
	.cfi_def_cfa_offset 0
	ret
	.cfi_endproc
.LFE1532:
	.size	_ZN5ImGui16GetCurrentWindowEv, .-_ZN5ImGui16GetCurrentWindowEv
	.section	.text._ZN5ImGui18WindowRectAbsToRelEP11ImGuiWindowRK6ImRect,"axG",@progbits,_ZN5ImGui18WindowRectAbsToRelEP11ImGuiWindowRK6ImRect,comdat
	.align	2
	.weak	_ZN5ImGui18WindowRectAbsToRelEP11ImGuiWindowRK6ImRect
	.type	_ZN5ImGui18WindowRectAbsToRelEP11ImGuiWindowRK6ImRect, %function
_ZN5ImGui18WindowRectAbsToRelEP11ImGuiWindowRK6ImRect:
.LFB1533:
	.cfi_startproc
	stp	x29, x30, [sp, -64]!
	.cfi_def_cfa_offset 64
	.cfi_offset 29, -64
	.cfi_offset 30, -56
	mov	x29, sp
	str	x0, [sp, 24]
	str	x1, [sp, 16]
	adrp	x0, :got:__stack_chk_guard
	ldr	x0, [x0, #:got_lo12:__stack_chk_guard]
	ldr	x1, [x0]
	str	x1, [sp, 56]
	mov	x1, 0
	ldr	x0, [sp, 24]
	ldr	x0, [x0, 240]
	str	x0, [sp, 32]
	ldr	x0, [sp, 16]
	ldr	s1, [x0]
	ldr	s0, [sp, 32]
	fsub	s4, s1, s0
	ldr	x0, [sp, 16]
	ldr	s1, [x0, 4]
	ldr	s0, [sp, 36]
	fsub	s5, s1, s0
	ldr	x0, [sp, 16]
	ldr	s1, [x0, 8]
	ldr	s0, [sp, 32]
	fsub	s2, s1, s0
	ldr	x0, [sp, 16]
	ldr	s1, [x0, 12]
	ldr	s0, [sp, 36]
	fsub	s0, s1, s0
	add	x0, sp, 40
	fmov	s3, s0
	fmov	s1, s5
	fmov	s0, s4
	bl	_ZN6ImRectC1Effff
	ldp	x0, x1, [sp, 40]
	mov	x2, x0
	mov	x3, x1
	lsr	w4, w2, 0
	mov	x2, x0
	mov	x3, x1
	lsr	x2, x2, 32
	mov	w5, w2
	mov	x2, x0
	mov	x3, x1
	lsr	w2, w3, 0
	lsr	x0, x1, 32
	fmov	s0, w4
	fmov	s1, w5
	fmov	s2, w2
	fmov	s3, w0
	adrp	x0, :got:__stack_chk_guard
	ldr	x0, [x0, #:got_lo12:__stack_chk_guard]
	ldr	x2, [sp, 56]
	ldr	x1, [x0]
	subs	x2, x2, x1
	mov	x1, 0
	beq	.L249
	bl	__stack_chk_fail
.L249:
	ldp	x29, x30, [sp], 64
	.cfi_restore 30
	.cfi_restore 29
	.cfi_def_cfa_offset 0
	ret
	.cfi_endproc
.LFE1533:
	.size	_ZN5ImGui18WindowRectAbsToRelEP11ImGuiWindowRK6ImRect, .-_ZN5ImGui18WindowRectAbsToRelEP11ImGuiWindowRK6ImRect
	.section	.text._ZN5ImGui8ItemSizeERK6ImRectf,"axG",@progbits,_ZN5ImGui8ItemSizeERK6ImRectf,comdat
	.align	2
	.weak	_ZN5ImGui8ItemSizeERK6ImRectf
	.type	_ZN5ImGui8ItemSizeERK6ImRectf, %function
_ZN5ImGui8ItemSizeERK6ImRectf:
.LFB1544:
	.cfi_startproc
	stp	x29, x30, [sp, -48]!
	.cfi_def_cfa_offset 48
	.cfi_offset 29, -48
	.cfi_offset 30, -40
	mov	x29, sp
	str	x0, [sp, 24]
	str	s0, [sp, 20]
	adrp	x0, :got:__stack_chk_guard
	ldr	x0, [x0, #:got_lo12:__stack_chk_guard]
	ldr	x1, [x0]
	str	x1, [sp, 40]
	mov	x1, 0
	ldr	x0, [sp, 24]
	bl	_ZNK6ImRect7GetSizeEv
	fmov	s2, s0
	fmov	s0, s1
	str	s2, [sp, 32]
	str	s0, [sp, 36]
	add	x0, sp, 32
	ldr	s0, [sp, 20]
	bl	_ZN5ImGui8ItemSizeERK6ImVec2f
	nop
	adrp	x0, :got:__stack_chk_guard
	ldr	x0, [x0, #:got_lo12:__stack_chk_guard]
	ldr	x2, [sp, 40]
	ldr	x1, [x0]
	subs	x2, x2, x1
	mov	x1, 0
	beq	.L251
	bl	__stack_chk_fail
.L251:
	ldp	x29, x30, [sp], 48
	.cfi_restore 30
	.cfi_restore 29
	.cfi_def_cfa_offset 0
	ret
	.cfi_endproc
.LFE1544:
	.size	_ZN5ImGui8ItemSizeERK6ImRectf, .-_ZN5ImGui8ItemSizeERK6ImRectf
	.section	.rodata
	.align	3
.LC7:
	.string	"ImGuiKey ImGui::MouseButtonToKey(ImGuiMouseButton)"
	.align	3
.LC8:
	.string	"button >= 0 && button < ImGuiMouseButton_COUNT"
	.section	.text._ZN5ImGui16MouseButtonToKeyEi,"axG",@progbits,_ZN5ImGui16MouseButtonToKeyEi,comdat
	.align	2
	.weak	_ZN5ImGui16MouseButtonToKeyEi
	.type	_ZN5ImGui16MouseButtonToKeyEi, %function
_ZN5ImGui16MouseButtonToKeyEi:
.LFB1553:
	.cfi_startproc
	stp	x29, x30, [sp, -32]!
	.cfi_def_cfa_offset 32
	.cfi_offset 29, -32
	.cfi_offset 30, -24
	mov	x29, sp
	str	w0, [sp, 28]
	ldr	w0, [sp, 28]
	cmp	w0, 0
	blt	.L253
	ldr	w0, [sp, 28]
	cmp	w0, 4
	ble	.L256
.L253:
	adrp	x0, .LC7
	add	x3, x0, :lo12:.LC7
	mov	w2, 2880
	adrp	x0, .LC5
	add	x1, x0, :lo12:.LC5
	adrp	x0, .LC8
	add	x0, x0, :lo12:.LC8
	bl	__assert_fail
.L256:
	ldr	w0, [sp, 28]
	add	w0, w0, 641
	ldp	x29, x30, [sp], 32
	.cfi_restore 30
	.cfi_restore 29
	.cfi_def_cfa_offset 0
	ret
	.cfi_endproc
.LFE1553:
	.size	_ZN5ImGui16MouseButtonToKeyEi, .-_ZN5ImGui16MouseButtonToKeyEi
	.section	.text._ZN5ImGui17TempInputIsActiveEj,"axG",@progbits,_ZN5ImGui17TempInputIsActiveEj,comdat
	.align	2
	.weak	_ZN5ImGui17TempInputIsActiveEj
	.type	_ZN5ImGui17TempInputIsActiveEj, %function
_ZN5ImGui17TempInputIsActiveEj:
.LFB1559:
	.cfi_startproc
	sub	sp, sp, #32
	.cfi_def_cfa_offset 32
	str	w0, [sp, 12]
	adrp	x0, :got:GImGui
	ldr	x0, [x0, #:got_lo12:GImGui]
	ldr	x0, [x0]
	str	x0, [sp, 24]
	ldr	x0, [sp, 24]
	ldr	w0, [x0, 16108]
	ldr	w1, [sp, 12]
	cmp	w1, w0
	bne	.L258
	ldr	x0, [sp, 24]
	add	x0, x0, 16384
	ldr	w0, [x0, 6808]
	ldr	w1, [sp, 12]
	cmp	w1, w0
	bne	.L258
	mov	w0, 1
	b	.L259
.L258:
	mov	w0, 0
.L259:
	add	sp, sp, 32
	.cfi_def_cfa_offset 0
	ret
	.cfi_endproc
.LFE1559:
	.size	_ZN5ImGui17TempInputIsActiveEj, .-_ZN5ImGui17TempInputIsActiveEj
	.section	.text._ZN5ImGui17GetInputTextStateEj,"axG",@progbits,_ZN5ImGui17GetInputTextStateEj,comdat
	.align	2
	.weak	_ZN5ImGui17GetInputTextStateEj
	.type	_ZN5ImGui17GetInputTextStateEj, %function
_ZN5ImGui17GetInputTextStateEj:
.LFB1560:
	.cfi_startproc
	sub	sp, sp, #32
	.cfi_def_cfa_offset 32
	str	w0, [sp, 12]
	adrp	x0, :got:GImGui
	ldr	x0, [x0, #:got_lo12:GImGui]
	ldr	x0, [x0]
	str	x0, [sp, 24]
	ldr	w0, [sp, 12]
	cmp	w0, 0
	beq	.L262
	ldr	x0, [sp, 24]
	add	x0, x0, 16384
	ldr	w0, [x0, 2976]
	ldr	w1, [sp, 12]
	cmp	w1, w0
	bne	.L262
	ldr	x1, [sp, 24]
	mov	x0, 19360
	add	x0, x1, x0
	b	.L263
.L262:
	mov	x0, 0
.L263:
	add	sp, sp, 32
	.cfi_def_cfa_offset 0
	ret
	.cfi_endproc
.LFE1560:
	.size	_ZN5ImGui17GetInputTextStateEj, .-_ZN5ImGui17GetInputTextStateEj
	.section	.rodata
	.align	2
	.type	_ZL27DRAGDROP_HOLD_TO_OPEN_TIMER, %object
	.size	_ZL27DRAGDROP_HOLD_TO_OPEN_TIMER, 4
_ZL27DRAGDROP_HOLD_TO_OPEN_TIMER:
	.word	1060320051
	.align	2
	.type	_ZL27DRAG_MOUSE_THRESHOLD_FACTOR, %object
	.size	_ZL27DRAG_MOUSE_THRESHOLD_FACTOR, 4
_ZL27DRAG_MOUSE_THRESHOLD_FACTOR:
	.word	1056964608
	.type	_ZL9IM_S8_MIN, %object
	.size	_ZL9IM_S8_MIN, 1
_ZL9IM_S8_MIN:
	.byte	-128
	.type	_ZL9IM_S8_MAX, %object
	.size	_ZL9IM_S8_MAX, 1
_ZL9IM_S8_MAX:
	.byte	127
	.type	_ZL9IM_U8_MIN, %object
	.size	_ZL9IM_U8_MIN, 1
_ZL9IM_U8_MIN:
	.zero	1
	.type	_ZL9IM_U8_MAX, %object
	.size	_ZL9IM_U8_MAX, 1
_ZL9IM_U8_MAX:
	.byte	-1
	.align	1
	.type	_ZL10IM_S16_MIN, %object
	.size	_ZL10IM_S16_MIN, 2
_ZL10IM_S16_MIN:
	.hword	-32768
	.align	1
	.type	_ZL10IM_S16_MAX, %object
	.size	_ZL10IM_S16_MAX, 2
_ZL10IM_S16_MAX:
	.hword	32767
	.align	1
	.type	_ZL10IM_U16_MIN, %object
	.size	_ZL10IM_U16_MIN, 2
_ZL10IM_U16_MIN:
	.zero	2
	.align	1
	.type	_ZL10IM_U16_MAX, %object
	.size	_ZL10IM_U16_MAX, 2
_ZL10IM_U16_MAX:
	.hword	-1
	.align	2
	.type	_ZL10IM_S32_MIN, %object
	.size	_ZL10IM_S32_MIN, 4
_ZL10IM_S32_MIN:
	.word	-2147483648
	.align	2
	.type	_ZL10IM_S32_MAX, %object
	.size	_ZL10IM_S32_MAX, 4
_ZL10IM_S32_MAX:
	.word	2147483647
	.align	2
	.type	_ZL10IM_U32_MIN, %object
	.size	_ZL10IM_U32_MIN, 4
_ZL10IM_U32_MIN:
	.zero	4
	.align	2
	.type	_ZL10IM_U32_MAX, %object
	.size	_ZL10IM_U32_MAX, 4
_ZL10IM_U32_MAX:
	.word	-1
	.align	3
	.type	_ZL10IM_S64_MIN, %object
	.size	_ZL10IM_S64_MIN, 8
_ZL10IM_S64_MIN:
	.xword	-9223372036854775808
	.align	3
	.type	_ZL10IM_S64_MAX, %object
	.size	_ZL10IM_S64_MAX, 8
_ZL10IM_S64_MAX:
	.xword	9223372036854775807
	.align	3
	.type	_ZL10IM_U64_MIN, %object
	.size	_ZL10IM_U64_MIN, 8
_ZL10IM_U64_MIN:
	.zero	8
	.align	3
	.type	_ZL10IM_U64_MAX, %object
	.size	_ZL10IM_U64_MAX, 8
_ZL10IM_U64_MAX:
	.xword	-1
	.align	3
.LC9:
	.string	""
	.text
	.align	2
	.global	_ZN5ImGui6TextExEPKcS1_i
	.type	_ZN5ImGui6TextExEPKcS1_i, %function
_ZN5ImGui6TextExEPKcS1_i:
.LFB1568:
	.cfi_startproc
	stp	x29, x30, [sp, -224]!
	.cfi_def_cfa_offset 224
	.cfi_offset 29, -224
	.cfi_offset 30, -216
	mov	x29, sp
	str	d8, [sp, 16]
	.cfi_offset 72, -208
	str	x0, [sp, 56]
	str	x1, [sp, 48]
	str	w2, [sp, 44]
	adrp	x0, :got:__stack_chk_guard
	ldr	x0, [x0, #:got_lo12:__stack_chk_guard]
	ldr	x1, [x0]
	str	x1, [sp, 216]
	mov	x1, 0
	bl	_ZN5ImGui16GetCurrentWindowEv
	str	x0, [sp, 176]
	ldr	x0, [sp, 176]
	ldrb	w0, [x0, 155]
	cmp	w0, 0
	bne	.L294
	adrp	x0, :got:GImGui
	ldr	x0, [x0, #:got_lo12:GImGui]
	ldr	x0, [x0]
	str	x0, [sp, 184]
	ldr	x1, [sp, 56]
	ldr	x0, [sp, 48]
	cmp	x1, x0
	bne	.L268
	adrp	x0, .LC9
	add	x0, x0, :lo12:.LC9
	str	x0, [sp, 48]
	ldr	x0, [sp, 48]
	str	x0, [sp, 56]
.L268:
	ldr	x0, [sp, 56]
	str	x0, [sp, 192]
	ldr	x0, [sp, 48]
	cmp	x0, 0
	bne	.L269
	ldr	x0, [sp, 56]
	bl	strlen
	mov	x1, x0
	ldr	x0, [sp, 56]
	add	x0, x0, x1
	str	x0, [sp, 48]
.L269:
	ldr	x0, [sp, 176]
	ldr	s2, [x0, 224]
	ldr	x0, [sp, 176]
	ldr	s1, [x0, 228]
	ldr	x0, [sp, 176]
	ldr	s0, [x0, 280]
	fadd	s0, s1, s0
	add	x0, sp, 104
	fmov	s1, s0
	fmov	s0, s2
	bl	_ZN6ImVec2C1Eff
	ldr	x0, [sp, 176]
	ldr	s0, [x0, 416]
	str	s0, [sp, 88]
	ldr	s0, [sp, 88]
	fcmpe	s0, #0.0
	cset	w0, ge
	strb	w0, [sp, 79]
	ldr	x1, [sp, 48]
	ldr	x0, [sp, 56]
	sub	x0, x1, x0
	cmp	x0, 2000
	ble	.L270
	ldrb	w0, [sp, 79]
	cmp	w0, 0
	beq	.L271
.L270:
	ldrb	w0, [sp, 79]
	cmp	w0, 0
	beq	.L272
	ldr	x0, [sp, 176]
	add	x0, x0, 224
	ldr	s0, [sp, 88]
	bl	_ZN5ImGui19CalcWrapWidthForPosERK6ImVec2f
	b	.L273
.L272:
	movi	v0.2s, #0
.L273:
	str	s0, [sp, 100]
	ldr	s0, [sp, 100]
	mov	w2, 0
	ldr	x1, [sp, 48]
	ldr	x0, [sp, 192]
	bl	_ZN5ImGui12CalcTextSizeEPKcS1_bf
	fmov	s2, s0
	fmov	s0, s1
	str	s2, [sp, 128]
	str	s0, [sp, 132]
	add	x1, sp, 128
	add	x0, sp, 104
	bl	_ZplRK6ImVec2S1_
	fmov	s2, s0
	fmov	s0, s1
	str	s2, [sp, 136]
	str	s0, [sp, 140]
	add	x2, sp, 136
	add	x1, sp, 104
	add	x0, sp, 200
	bl	_ZN6ImRectC1ERK6ImVec2S2_
	add	x0, sp, 128
	movi	v0.2s, #0
	bl	_ZN5ImGui8ItemSizeERK6ImVec2f
	add	x0, sp, 200
	mov	w3, 0
	mov	x2, 0
	mov	w1, 0
	bl	_ZN5ImGui7ItemAddERK6ImRectjPS1_i
	and	w0, w0, 255
	eor	w0, w0, 1
	and	w0, w0, 255
	cmp	w0, 0
	bne	.L295
	ldr	s0, [sp, 200]
	ldr	s1, [sp, 204]
	ldr	s2, [sp, 100]
	ldr	x1, [sp, 48]
	ldr	x0, [sp, 192]
	bl	_ZN5ImGui17RenderTextWrappedE6ImVec2PKcS2_f
	b	.L265
.L271:
	ldr	x0, [sp, 56]
	str	x0, [sp, 144]
	bl	_ZN5ImGui17GetTextLineHeightEv
	str	s0, [sp, 92]
	str	wzr, [sp, 112]
	str	wzr, [sp, 116]
	ldr	x0, [sp, 104]
	str	x0, [sp, 120]
	ldr	x0, [sp, 184]
	add	x0, x0, 20480
	ldrb	w0, [x0, 3048]
	eor	w0, w0, 1
	and	w0, w0, 255
	cmp	w0, 0
	beq	.L276
	ldr	x0, [sp, 176]
	ldr	s1, [x0, 540]
	ldr	s0, [sp, 108]
	fsub	s1, s1, s0
	ldr	s0, [sp, 92]
	fdiv	s0, s1, s0
	fcvtzs	s0, s0
	str	s0, [sp, 96]
	ldr	w0, [sp, 96]
	cmp	w0, 0
	ble	.L276
	str	wzr, [sp, 80]
	b	.L277
.L281:
	ldr	x1, [sp, 48]
	ldr	x0, [sp, 144]
	sub	x0, x1, x0
	mov	x2, x0
	mov	w1, 10
	ldr	x0, [sp, 144]
	bl	memchr
	str	x0, [sp, 152]
	ldr	x0, [sp, 152]
	cmp	x0, 0
	bne	.L278
	ldr	x0, [sp, 48]
	str	x0, [sp, 152]
.L278:
	ldr	w0, [sp, 44]
	and	w0, w0, 1
	cmp	w0, 0
	bne	.L279
	ldr	s8, [sp, 112]
	fmov	s0, -1.0e+0
	mov	w2, 0
	ldr	x1, [sp, 152]
	ldr	x0, [sp, 144]
	bl	_ZN5ImGui12CalcTextSizeEPKcS1_bf
	fmov	s2, s0
	fmov	s0, s1
	fmov	x0, d2
	fmov	w1, s0
	bfi	x0, x1, 32, 32
	sbfx	x0, x0, 0, 32
	fmov	s1, w0
	fmov	s0, s8
	bl	_Z5ImMaxIfET_S0_S0_
	str	s0, [sp, 112]
.L279:
	ldr	x0, [sp, 152]
	add	x0, x0, 1
	str	x0, [sp, 144]
	ldr	w0, [sp, 80]
	add	w0, w0, 1
	str	w0, [sp, 80]
.L277:
	ldr	x1, [sp, 144]
	ldr	x0, [sp, 48]
	cmp	x1, x0
	bcs	.L280
	ldr	w1, [sp, 80]
	ldr	w0, [sp, 96]
	cmp	w1, w0
	blt	.L281
.L280:
	ldr	s1, [sp, 124]
	ldr	s0, [sp, 80]
	scvtf	s2, s0
	ldr	s0, [sp, 92]
	fmul	s0, s2, s0
	fadd	s0, s1, s0
	str	s0, [sp, 124]
.L276:
	ldr	x1, [sp, 144]
	ldr	x0, [sp, 48]
	cmp	x1, x0
	bcs	.L282
	add	x0, sp, 128
	ldr	s1, [sp, 92]
	mov	w1, 2139095039
	fmov	s0, w1
	bl	_ZN6ImVec2C1Eff
	add	x1, sp, 128
	add	x0, sp, 120
	bl	_ZplRK6ImVec2S1_
	fmov	s2, s0
	fmov	s0, s1
	str	s2, [sp, 136]
	str	s0, [sp, 140]
	add	x2, sp, 136
	add	x1, sp, 120
	add	x0, sp, 200
	bl	_ZN6ImRectC1ERK6ImVec2S2_
	b	.L283
.L287:
	add	x0, sp, 200
	mov	w1, 0
	bl	_ZN5ImGui11IsClippedExERK6ImRectj
	and	w0, w0, 255
	cmp	w0, 0
	bne	.L296
	ldr	x1, [sp, 48]
	ldr	x0, [sp, 144]
	sub	x0, x1, x0
	mov	x2, x0
	mov	w1, 10
	ldr	x0, [sp, 144]
	bl	memchr
	str	x0, [sp, 160]
	ldr	x0, [sp, 160]
	cmp	x0, 0
	bne	.L286
	ldr	x0, [sp, 48]
	str	x0, [sp, 160]
.L286:
	ldr	s8, [sp, 112]
	fmov	s0, -1.0e+0
	mov	w2, 0
	ldr	x1, [sp, 160]
	ldr	x0, [sp, 144]
	bl	_ZN5ImGui12CalcTextSizeEPKcS1_bf
	fmov	s2, s0
	fmov	s0, s1
	fmov	x0, d2
	fmov	w1, s0
	bfi	x0, x1, 32, 32
	sbfx	x0, x0, 0, 32
	fmov	s1, w0
	fmov	s0, s8
	bl	_Z5ImMaxIfET_S0_S0_
	str	s0, [sp, 112]
	ldr	s0, [sp, 120]
	ldr	s1, [sp, 124]
	mov	w2, 0
	ldr	x1, [sp, 160]
	ldr	x0, [sp, 144]
	bl	_ZN5ImGui10RenderTextE6ImVec2PKcS2_b
	ldr	x0, [sp, 160]
	add	x0, x0, 1
	str	x0, [sp, 144]
	ldr	s1, [sp, 204]
	ldr	s0, [sp, 92]
	fadd	s0, s1, s0
	str	s0, [sp, 204]
	ldr	s1, [sp, 212]
	ldr	s0, [sp, 92]
	fadd	s0, s1, s0
	str	s0, [sp, 212]
	ldr	s1, [sp, 124]
	ldr	s0, [sp, 92]
	fadd	s0, s1, s0
	str	s0, [sp, 124]
.L283:
	ldr	x1, [sp, 144]
	ldr	x0, [sp, 48]
	cmp	x1, x0
	bcc	.L287
	b	.L285
.L296:
	nop
.L285:
	str	wzr, [sp, 84]
	b	.L288
.L291:
	ldr	x1, [sp, 48]
	ldr	x0, [sp, 144]
	sub	x0, x1, x0
	mov	x2, x0
	mov	w1, 10
	ldr	x0, [sp, 144]
	bl	memchr
	str	x0, [sp, 168]
	ldr	x0, [sp, 168]
	cmp	x0, 0
	bne	.L289
	ldr	x0, [sp, 48]
	str	x0, [sp, 168]
.L289:
	ldr	w0, [sp, 44]
	and	w0, w0, 1
	cmp	w0, 0
	bne	.L290
	ldr	s8, [sp, 112]
	fmov	s0, -1.0e+0
	mov	w2, 0
	ldr	x1, [sp, 168]
	ldr	x0, [sp, 144]
	bl	_ZN5ImGui12CalcTextSizeEPKcS1_bf
	fmov	s2, s0
	fmov	s0, s1
	fmov	x0, d2
	fmov	w1, s0
	bfi	x0, x1, 32, 32
	sbfx	x0, x0, 0, 32
	fmov	s1, w0
	fmov	s0, s8
	bl	_Z5ImMaxIfET_S0_S0_
	str	s0, [sp, 112]
.L290:
	ldr	x0, [sp, 168]
	add	x0, x0, 1
	str	x0, [sp, 144]
	ldr	w0, [sp, 84]
	add	w0, w0, 1
	str	w0, [sp, 84]
.L288:
	ldr	x1, [sp, 144]
	ldr	x0, [sp, 48]
	cmp	x1, x0
	bcc	.L291
	ldr	s1, [sp, 124]
	ldr	s0, [sp, 84]
	scvtf	s2, s0
	ldr	s0, [sp, 92]
	fmul	s0, s2, s0
	fadd	s0, s1, s0
	str	s0, [sp, 124]
.L282:
	add	x1, sp, 104
	add	x0, sp, 120
	bl	_ZmiRK6ImVec2S1_
	fmov	s2, s0
	fmov	s0, s1
	fmov	x0, d2
	fmov	w1, s0
	bfi	x0, x1, 32, 32
	asr	x0, x0, 32
	fmov	s0, w0
	str	s0, [sp, 116]
	add	x1, sp, 112
	add	x0, sp, 104
	bl	_ZplRK6ImVec2S1_
	fmov	s2, s0
	fmov	s0, s1
	str	s2, [sp, 136]
	str	s0, [sp, 140]
	add	x2, sp, 136
	add	x1, sp, 104
	add	x0, sp, 200
	bl	_ZN6ImRectC1ERK6ImVec2S2_
	add	x0, sp, 112
	movi	v0.2s, #0
	bl	_ZN5ImGui8ItemSizeERK6ImVec2f
	add	x0, sp, 200
	mov	w3, 0
	mov	x2, 0
	mov	w1, 0
	bl	_ZN5ImGui7ItemAddERK6ImRectjPS1_i
	b	.L265
.L294:
	nop
	b	.L265
.L295:
	nop
.L265:
	adrp	x0, :got:__stack_chk_guard
	ldr	x0, [x0, #:got_lo12:__stack_chk_guard]
	ldr	x2, [sp, 216]
	ldr	x1, [x0]
	subs	x2, x2, x1
	mov	x1, 0
	beq	.L293
	bl	__stack_chk_fail
.L293:
	ldr	d8, [sp, 16]
	ldp	x29, x30, [sp], 224
	.cfi_restore 30
	.cfi_restore 29
	.cfi_restore 72
	.cfi_def_cfa_offset 0
	ret
	.cfi_endproc
.LFE1568:
	.size	_ZN5ImGui6TextExEPKcS1_i, .-_ZN5ImGui6TextExEPKcS1_i
	.align	2
	.global	_ZN5ImGui15TextUnformattedEPKcS1_
	.type	_ZN5ImGui15TextUnformattedEPKcS1_, %function
_ZN5ImGui15TextUnformattedEPKcS1_:
.LFB1569:
	.cfi_startproc
	stp	x29, x30, [sp, -32]!
	.cfi_def_cfa_offset 32
	.cfi_offset 29, -32
	.cfi_offset 30, -24
	mov	x29, sp
	str	x0, [sp, 24]
	str	x1, [sp, 16]
	mov	w2, 1
	ldr	x1, [sp, 16]
	ldr	x0, [sp, 24]
	bl	_ZN5ImGui6TextExEPKcS1_i
	nop
	ldp	x29, x30, [sp], 32
	.cfi_restore 30
	.cfi_restore 29
	.cfi_def_cfa_offset 0
	ret
	.cfi_endproc
.LFE1569:
	.size	_ZN5ImGui15TextUnformattedEPKcS1_, .-_ZN5ImGui15TextUnformattedEPKcS1_
	.align	2
	.global	_ZN5ImGui4TextEPKcz
	.type	_ZN5ImGui4TextEPKcz, %function
_ZN5ImGui4TextEPKcz:
.LFB1570:
	.cfi_startproc
	stp	x29, x30, [sp, -304]!
	.cfi_def_cfa_offset 304
	.cfi_offset 29, -304
	.cfi_offset 30, -296
	mov	x29, sp
	str	x0, [sp, 56]
	str	x1, [sp, 248]
	str	x2, [sp, 256]
	str	x3, [sp, 264]
	str	x4, [sp, 272]
	str	x5, [sp, 280]
	str	x6, [sp, 288]
	str	x7, [sp, 296]
	str	q0, [sp, 112]
	str	q1, [sp, 128]
	str	q2, [sp, 144]
	str	q3, [sp, 160]
	str	q4, [sp, 176]
	str	q5, [sp, 192]
	str	q6, [sp, 208]
	str	q7, [sp, 224]
	adrp	x0, :got:__stack_chk_guard
	ldr	x0, [x0, #:got_lo12:__stack_chk_guard]
	ldr	x1, [x0]
	str	x1, [sp, 104]
	mov	x1, 0
	add	x0, sp, 304
	str	x0, [sp, 72]
	add	x0, sp, 304
	str	x0, [sp, 80]
	add	x0, sp, 240
	str	x0, [sp, 88]
	mov	w0, -56
	str	w0, [sp, 96]
	mov	w0, -128
	str	w0, [sp, 100]
	add	x0, sp, 16
	add	x1, sp, 72
	ldp	q0, q1, [x1]
	stp	q0, q1, [x0]
	add	x0, sp, 16
	mov	x1, x0
	ldr	x0, [sp, 56]
	bl	_ZN5ImGui5TextVEPKcSt9__va_list
	nop
	adrp	x0, :got:__stack_chk_guard
	ldr	x0, [x0, #:got_lo12:__stack_chk_guard]
	ldr	x2, [sp, 104]
	ldr	x1, [x0]
	subs	x2, x2, x1
	mov	x1, 0
	beq	.L299
	bl	__stack_chk_fail
.L299:
	ldp	x29, x30, [sp], 304
	.cfi_restore 30
	.cfi_restore 29
	.cfi_def_cfa_offset 0
	ret
	.cfi_endproc
.LFE1570:
	.size	_ZN5ImGui4TextEPKcz, .-_ZN5ImGui4TextEPKcz
	.align	2
	.global	_ZN5ImGui5TextVEPKcSt9__va_list
	.type	_ZN5ImGui5TextVEPKcSt9__va_list, %function
_ZN5ImGui5TextVEPKcSt9__va_list:
.LFB1571:
	.cfi_startproc
	stp	x29, x30, [sp, -112]!
	.cfi_def_cfa_offset 112
	.cfi_offset 29, -112
	.cfi_offset 30, -104
	mov	x29, sp
	str	x19, [sp, 16]
	.cfi_offset 19, -96
	str	x0, [sp, 72]
	mov	x19, x1
	adrp	x0, :got:__stack_chk_guard
	ldr	x0, [x0, #:got_lo12:__stack_chk_guard]
	ldr	x1, [x0]
	str	x1, [sp, 104]
	mov	x1, 0
	bl	_ZN5ImGui16GetCurrentWindowEv
	str	x0, [sp, 96]
	ldr	x0, [sp, 96]
	ldrb	w0, [x0, 155]
	cmp	w0, 0
	bne	.L304
	add	x0, sp, 32
	mov	x1, x19
	ldp	q0, q1, [x1]
	stp	q0, q1, [x0]
	add	x2, sp, 32
	add	x1, sp, 88
	add	x0, sp, 80
	mov	x3, x2
	ldr	x2, [sp, 72]
	bl	_Z27ImFormatStringToTempBufferVPPKcS1_S0_St9__va_list
	ldr	x0, [sp, 80]
	ldr	x1, [sp, 88]
	mov	w2, 1
	bl	_ZN5ImGui6TextExEPKcS1_i
	b	.L300
.L304:
	nop
.L300:
	adrp	x0, :got:__stack_chk_guard
	ldr	x0, [x0, #:got_lo12:__stack_chk_guard]
	ldr	x2, [sp, 104]
	ldr	x1, [x0]
	subs	x2, x2, x1
	mov	x1, 0
	beq	.L303
	bl	__stack_chk_fail
.L303:
	ldr	x19, [sp, 16]
	ldp	x29, x30, [sp], 112
	.cfi_restore 30
	.cfi_restore 29
	.cfi_restore 19
	.cfi_def_cfa_offset 0
	ret
	.cfi_endproc
.LFE1571:
	.size	_ZN5ImGui5TextVEPKcSt9__va_list, .-_ZN5ImGui5TextVEPKcSt9__va_list
	.align	2
	.global	_ZN5ImGui11TextColoredERK6ImVec4PKcz
	.type	_ZN5ImGui11TextColoredERK6ImVec4PKcz, %function
_ZN5ImGui11TextColoredERK6ImVec4PKcz:
.LFB1572:
	.cfi_startproc
	stp	x29, x30, [sp, -288]!
	.cfi_def_cfa_offset 288
	.cfi_offset 29, -288
	.cfi_offset 30, -280
	mov	x29, sp
	str	x0, [sp, 56]
	str	x1, [sp, 48]
	str	x2, [sp, 240]
	str	x3, [sp, 248]
	str	x4, [sp, 256]
	str	x5, [sp, 264]
	str	x6, [sp, 272]
	str	x7, [sp, 280]
	str	q0, [sp, 112]
	str	q1, [sp, 128]
	str	q2, [sp, 144]
	str	q3, [sp, 160]
	str	q4, [sp, 176]
	str	q5, [sp, 192]
	str	q6, [sp, 208]
	str	q7, [sp, 224]
	adrp	x0, :got:__stack_chk_guard
	ldr	x0, [x0, #:got_lo12:__stack_chk_guard]
	ldr	x1, [x0]
	str	x1, [sp, 104]
	mov	x1, 0
	add	x0, sp, 288
	str	x0, [sp, 72]
	add	x0, sp, 288
	str	x0, [sp, 80]
	add	x0, sp, 240
	str	x0, [sp, 88]
	mov	w0, -48
	str	w0, [sp, 96]
	mov	w0, -128
	str	w0, [sp, 100]
	add	x0, sp, 16
	add	x1, sp, 72
	ldp	q0, q1, [x1]
	stp	q0, q1, [x0]
	add	x0, sp, 16
	mov	x2, x0
	ldr	x1, [sp, 48]
	ldr	x0, [sp, 56]
	bl	_ZN5ImGui12TextColoredVERK6ImVec4PKcSt9__va_list
	nop
	adrp	x0, :got:__stack_chk_guard
	ldr	x0, [x0, #:got_lo12:__stack_chk_guard]
	ldr	x2, [sp, 104]
	ldr	x1, [x0]
	subs	x2, x2, x1
	mov	x1, 0
	beq	.L306
	bl	__stack_chk_fail
.L306:
	ldp	x29, x30, [sp], 288
	.cfi_restore 30
	.cfi_restore 29
	.cfi_def_cfa_offset 0
	ret
	.cfi_endproc
.LFE1572:
	.size	_ZN5ImGui11TextColoredERK6ImVec4PKcz, .-_ZN5ImGui11TextColoredERK6ImVec4PKcz
	.align	2
	.global	_ZN5ImGui12TextColoredVERK6ImVec4PKcSt9__va_list
	.type	_ZN5ImGui12TextColoredVERK6ImVec4PKcSt9__va_list, %function
_ZN5ImGui12TextColoredVERK6ImVec4PKcSt9__va_list:
.LFB1573:
	.cfi_startproc
	stp	x29, x30, [sp, -80]!
	.cfi_def_cfa_offset 80
	.cfi_offset 29, -80
	.cfi_offset 30, -72
	mov	x29, sp
	str	x19, [sp, 16]
	.cfi_offset 19, -64
	str	x0, [sp, 72]
	str	x1, [sp, 64]
	mov	x19, x2
	ldr	x1, [sp, 72]
	mov	w0, 0
	bl	_ZN5ImGui14PushStyleColorEiRK6ImVec4
	ldr	x0, [sp, 64]
	ldrb	w0, [x0]
	cmp	w0, 37
	bne	.L308
	ldr	x0, [sp, 64]
	add	x0, x0, 1
	ldrb	w0, [x0]
	cmp	w0, 115
	bne	.L308
	ldr	x0, [sp, 64]
	add	x0, x0, 2
	ldrb	w0, [x0]
	cmp	w0, 0
	bne	.L308
	ldr	w1, [x19, 24]
	ldr	x0, [x19]
	cmp	w1, 0
	blt	.L309
	add	x1, x0, 15
	and	x1, x1, -8
	str	x1, [x19]
	b	.L310
.L309:
	add	w2, w1, 8
	str	w2, [x19, 24]
	ldr	w2, [x19, 24]
	cmp	w2, 0
	ble	.L311
	add	x1, x0, 15
	and	x1, x1, -8
	str	x1, [x19]
	b	.L310
.L311:
	ldr	x2, [x19, 8]
	sxtw	x0, w1
	add	x0, x2, x0
.L310:
	ldr	x0, [x0]
	mov	w2, 1
	mov	x1, 0
	bl	_ZN5ImGui6TextExEPKcS1_i
	b	.L313
.L308:
	add	x0, sp, 32
	mov	x1, x19
	ldp	q0, q1, [x1]
	stp	q0, q1, [x0]
	add	x0, sp, 32
	mov	x1, x0
	ldr	x0, [sp, 64]
	bl	_ZN5ImGui5TextVEPKcSt9__va_list
.L313:
	mov	w0, 1
	bl	_ZN5ImGui13PopStyleColorEi
	nop
	ldr	x19, [sp, 16]
	ldp	x29, x30, [sp], 80
	.cfi_restore 30
	.cfi_restore 29
	.cfi_restore 19
	.cfi_def_cfa_offset 0
	ret
	.cfi_endproc
.LFE1573:
	.size	_ZN5ImGui12TextColoredVERK6ImVec4PKcSt9__va_list, .-_ZN5ImGui12TextColoredVERK6ImVec4PKcSt9__va_list
	.align	2
	.global	_ZN5ImGui12TextDisabledEPKcz
	.type	_ZN5ImGui12TextDisabledEPKcz, %function
_ZN5ImGui12TextDisabledEPKcz:
.LFB1574:
	.cfi_startproc
	stp	x29, x30, [sp, -304]!
	.cfi_def_cfa_offset 304
	.cfi_offset 29, -304
	.cfi_offset 30, -296
	mov	x29, sp
	str	x0, [sp, 56]
	str	x1, [sp, 248]
	str	x2, [sp, 256]
	str	x3, [sp, 264]
	str	x4, [sp, 272]
	str	x5, [sp, 280]
	str	x6, [sp, 288]
	str	x7, [sp, 296]
	str	q0, [sp, 112]
	str	q1, [sp, 128]
	str	q2, [sp, 144]
	str	q3, [sp, 160]
	str	q4, [sp, 176]
	str	q5, [sp, 192]
	str	q6, [sp, 208]
	str	q7, [sp, 224]
	adrp	x0, :got:__stack_chk_guard
	ldr	x0, [x0, #:got_lo12:__stack_chk_guard]
	ldr	x1, [x0]
	str	x1, [sp, 104]
	mov	x1, 0
	add	x0, sp, 304
	str	x0, [sp, 72]
	add	x0, sp, 304
	str	x0, [sp, 80]
	add	x0, sp, 240
	str	x0, [sp, 88]
	mov	w0, -56
	str	w0, [sp, 96]
	mov	w0, -128
	str	w0, [sp, 100]
	add	x0, sp, 16
	add	x1, sp, 72
	ldp	q0, q1, [x1]
	stp	q0, q1, [x0]
	add	x0, sp, 16
	mov	x1, x0
	ldr	x0, [sp, 56]
	bl	_ZN5ImGui13TextDisabledVEPKcSt9__va_list
	nop
	adrp	x0, :got:__stack_chk_guard
	ldr	x0, [x0, #:got_lo12:__stack_chk_guard]
	ldr	x2, [sp, 104]
	ldr	x1, [x0]
	subs	x2, x2, x1
	mov	x1, 0
	beq	.L315
	bl	__stack_chk_fail
.L315:
	ldp	x29, x30, [sp], 304
	.cfi_restore 30
	.cfi_restore 29
	.cfi_def_cfa_offset 0
	ret
	.cfi_endproc
.LFE1574:
	.size	_ZN5ImGui12TextDisabledEPKcz, .-_ZN5ImGui12TextDisabledEPKcz
	.align	2
	.global	_ZN5ImGui13TextDisabledVEPKcSt9__va_list
	.type	_ZN5ImGui13TextDisabledVEPKcSt9__va_list, %function
_ZN5ImGui13TextDisabledVEPKcSt9__va_list:
.LFB1575:
	.cfi_startproc
	stp	x29, x30, [sp, -96]!
	.cfi_def_cfa_offset 96
	.cfi_offset 29, -96
	.cfi_offset 30, -88
	mov	x29, sp
	str	x19, [sp, 16]
	.cfi_offset 19, -80
	str	x0, [sp, 72]
	mov	x19, x1
	adrp	x0, :got:GImGui
	ldr	x0, [x0, #:got_lo12:GImGui]
	ldr	x0, [x0]
	str	x0, [sp, 88]
	ldr	x1, [sp, 88]
	mov	x0, 14520
	add	x0, x1, x0
	mov	x1, x0
	mov	w0, 0
	bl	_ZN5ImGui14PushStyleColorEiRK6ImVec4
	ldr	x0, [sp, 72]
	ldrb	w0, [x0]
	cmp	w0, 37
	bne	.L317
	ldr	x0, [sp, 72]
	add	x0, x0, 1
	ldrb	w0, [x0]
	cmp	w0, 115
	bne	.L317
	ldr	x0, [sp, 72]
	add	x0, x0, 2
	ldrb	w0, [x0]
	cmp	w0, 0
	bne	.L317
	ldr	w1, [x19, 24]
	ldr	x0, [x19]
	cmp	w1, 0
	blt	.L318
	add	x1, x0, 15
	and	x1, x1, -8
	str	x1, [x19]
	b	.L319
.L318:
	add	w2, w1, 8
	str	w2, [x19, 24]
	ldr	w2, [x19, 24]
	cmp	w2, 0
	ble	.L320
	add	x1, x0, 15
	and	x1, x1, -8
	str	x1, [x19]
	b	.L319
.L320:
	ldr	x2, [x19, 8]
	sxtw	x0, w1
	add	x0, x2, x0
.L319:
	ldr	x0, [x0]
	mov	w2, 1
	mov	x1, 0
	bl	_ZN5ImGui6TextExEPKcS1_i
	b	.L322
.L317:
	add	x0, sp, 32
	mov	x1, x19
	ldp	q0, q1, [x1]
	stp	q0, q1, [x0]
	add	x0, sp, 32
	mov	x1, x0
	ldr	x0, [sp, 72]
	bl	_ZN5ImGui5TextVEPKcSt9__va_list
.L322:
	mov	w0, 1
	bl	_ZN5ImGui13PopStyleColorEi
	nop
	ldr	x19, [sp, 16]
	ldp	x29, x30, [sp], 96
	.cfi_restore 30
	.cfi_restore 29
	.cfi_restore 19
	.cfi_def_cfa_offset 0
	ret
	.cfi_endproc
.LFE1575:
	.size	_ZN5ImGui13TextDisabledVEPKcSt9__va_list, .-_ZN5ImGui13TextDisabledVEPKcSt9__va_list
	.align	2
	.global	_ZN5ImGui11TextWrappedEPKcz
	.type	_ZN5ImGui11TextWrappedEPKcz, %function
_ZN5ImGui11TextWrappedEPKcz:
.LFB1576:
	.cfi_startproc
	stp	x29, x30, [sp, -304]!
	.cfi_def_cfa_offset 304
	.cfi_offset 29, -304
	.cfi_offset 30, -296
	mov	x29, sp
	str	x0, [sp, 56]
	str	x1, [sp, 248]
	str	x2, [sp, 256]
	str	x3, [sp, 264]
	str	x4, [sp, 272]
	str	x5, [sp, 280]
	str	x6, [sp, 288]
	str	x7, [sp, 296]
	str	q0, [sp, 112]
	str	q1, [sp, 128]
	str	q2, [sp, 144]
	str	q3, [sp, 160]
	str	q4, [sp, 176]
	str	q5, [sp, 192]
	str	q6, [sp, 208]
	str	q7, [sp, 224]
	adrp	x0, :got:__stack_chk_guard
	ldr	x0, [x0, #:got_lo12:__stack_chk_guard]
	ldr	x1, [x0]
	str	x1, [sp, 104]
	mov	x1, 0
	add	x0, sp, 304
	str	x0, [sp, 72]
	add	x0, sp, 304
	str	x0, [sp, 80]
	add	x0, sp, 240
	str	x0, [sp, 88]
	mov	w0, -56
	str	w0, [sp, 96]
	mov	w0, -128
	str	w0, [sp, 100]
	add	x0, sp, 16
	add	x1, sp, 72
	ldp	q0, q1, [x1]
	stp	q0, q1, [x0]
	add	x0, sp, 16
	mov	x1, x0
	ldr	x0, [sp, 56]
	bl	_ZN5ImGui12TextWrappedVEPKcSt9__va_list
	nop
	adrp	x0, :got:__stack_chk_guard
	ldr	x0, [x0, #:got_lo12:__stack_chk_guard]
	ldr	x2, [sp, 104]
	ldr	x1, [x0]
	subs	x2, x2, x1
	mov	x1, 0
	beq	.L324
	bl	__stack_chk_fail
.L324:
	ldp	x29, x30, [sp], 304
	.cfi_restore 30
	.cfi_restore 29
	.cfi_def_cfa_offset 0
	ret
	.cfi_endproc
.LFE1576:
	.size	_ZN5ImGui11TextWrappedEPKcz, .-_ZN5ImGui11TextWrappedEPKcz
	.align	2
	.global	_ZN5ImGui12TextWrappedVEPKcSt9__va_list
	.type	_ZN5ImGui12TextWrappedVEPKcSt9__va_list, %function
_ZN5ImGui12TextWrappedVEPKcSt9__va_list:
.LFB1577:
	.cfi_startproc
	stp	x29, x30, [sp, -96]!
	.cfi_def_cfa_offset 96
	.cfi_offset 29, -96
	.cfi_offset 30, -88
	mov	x29, sp
	str	x19, [sp, 16]
	.cfi_offset 19, -80
	str	x0, [sp, 72]
	mov	x19, x1
	adrp	x0, :got:GImGui
	ldr	x0, [x0, #:got_lo12:GImGui]
	ldr	x0, [x0]
	str	x0, [sp, 88]
	ldr	x0, [sp, 88]
	ldr	x0, [x0, 16032]
	ldr	s0, [x0, 416]
	fcmpe	s0, #0.0
	cset	w0, mi
	strb	w0, [sp, 87]
	ldrb	w0, [sp, 87]
	cmp	w0, 0
	beq	.L326
	movi	v0.2s, #0
	bl	_ZN5ImGui15PushTextWrapPosEf
.L326:
	ldr	x0, [sp, 72]
	ldrb	w0, [x0]
	cmp	w0, 37
	bne	.L327
	ldr	x0, [sp, 72]
	add	x0, x0, 1
	ldrb	w0, [x0]
	cmp	w0, 115
	bne	.L327
	ldr	x0, [sp, 72]
	add	x0, x0, 2
	ldrb	w0, [x0]
	cmp	w0, 0
	bne	.L327
	ldr	w1, [x19, 24]
	ldr	x0, [x19]
	cmp	w1, 0
	blt	.L328
	add	x1, x0, 15
	and	x1, x1, -8
	str	x1, [x19]
	b	.L329
.L328:
	add	w2, w1, 8
	str	w2, [x19, 24]
	ldr	w2, [x19, 24]
	cmp	w2, 0
	ble	.L330
	add	x1, x0, 15
	and	x1, x1, -8
	str	x1, [x19]
	b	.L329
.L330:
	ldr	x2, [x19, 8]
	sxtw	x0, w1
	add	x0, x2, x0
.L329:
	ldr	x0, [x0]
	mov	w2, 1
	mov	x1, 0
	bl	_ZN5ImGui6TextExEPKcS1_i
	b	.L332
.L327:
	add	x0, sp, 32
	mov	x1, x19
	ldp	q0, q1, [x1]
	stp	q0, q1, [x0]
	add	x0, sp, 32
	mov	x1, x0
	ldr	x0, [sp, 72]
	bl	_ZN5ImGui5TextVEPKcSt9__va_list
.L332:
	ldrb	w0, [sp, 87]
	cmp	w0, 0
	beq	.L334
	bl	_ZN5ImGui14PopTextWrapPosEv
.L334:
	nop
	ldr	x19, [sp, 16]
	ldp	x29, x30, [sp], 96
	.cfi_restore 30
	.cfi_restore 29
	.cfi_restore 19
	.cfi_def_cfa_offset 0
	ret
	.cfi_endproc
.LFE1577:
	.size	_ZN5ImGui12TextWrappedVEPKcSt9__va_list, .-_ZN5ImGui12TextWrappedVEPKcSt9__va_list
	.align	2
	.global	_ZN5ImGui9LabelTextEPKcS1_z
	.type	_ZN5ImGui9LabelTextEPKcS1_z, %function
_ZN5ImGui9LabelTextEPKcS1_z:
.LFB1578:
	.cfi_startproc
	stp	x29, x30, [sp, -288]!
	.cfi_def_cfa_offset 288
	.cfi_offset 29, -288
	.cfi_offset 30, -280
	mov	x29, sp
	str	x0, [sp, 56]
	str	x1, [sp, 48]
	str	x2, [sp, 240]
	str	x3, [sp, 248]
	str	x4, [sp, 256]
	str	x5, [sp, 264]
	str	x6, [sp, 272]
	str	x7, [sp, 280]
	str	q0, [sp, 112]
	str	q1, [sp, 128]
	str	q2, [sp, 144]
	str	q3, [sp, 160]
	str	q4, [sp, 176]
	str	q5, [sp, 192]
	str	q6, [sp, 208]
	str	q7, [sp, 224]
	adrp	x0, :got:__stack_chk_guard
	ldr	x0, [x0, #:got_lo12:__stack_chk_guard]
	ldr	x1, [x0]
	str	x1, [sp, 104]
	mov	x1, 0
	add	x0, sp, 288
	str	x0, [sp, 72]
	add	x0, sp, 288
	str	x0, [sp, 80]
	add	x0, sp, 240
	str	x0, [sp, 88]
	mov	w0, -48
	str	w0, [sp, 96]
	mov	w0, -128
	str	w0, [sp, 100]
	add	x0, sp, 16
	add	x1, sp, 72
	ldp	q0, q1, [x1]
	stp	q0, q1, [x0]
	add	x0, sp, 16
	mov	x2, x0
	ldr	x1, [sp, 48]
	ldr	x0, [sp, 56]
	bl	_ZN5ImGui10LabelTextVEPKcS1_St9__va_list
	nop
	adrp	x0, :got:__stack_chk_guard
	ldr	x0, [x0, #:got_lo12:__stack_chk_guard]
	ldr	x2, [sp, 104]
	ldr	x1, [x0]
	subs	x2, x2, x1
	mov	x1, 0
	beq	.L336
	bl	__stack_chk_fail
.L336:
	ldp	x29, x30, [sp], 288
	.cfi_restore 30
	.cfi_restore 29
	.cfi_def_cfa_offset 0
	ret
	.cfi_endproc
.LFE1578:
	.size	_ZN5ImGui9LabelTextEPKcS1_z, .-_ZN5ImGui9LabelTextEPKcS1_z
	.align	2
	.global	_ZN5ImGui10LabelTextVEPKcS1_St9__va_list
	.type	_ZN5ImGui10LabelTextVEPKcS1_St9__va_list, %function
_ZN5ImGui10LabelTextVEPKcS1_St9__va_list:
.LFB1579:
	.cfi_startproc
	stp	x29, x30, [sp, -224]!
	.cfi_def_cfa_offset 224
	.cfi_offset 29, -224
	.cfi_offset 30, -216
	mov	x29, sp
	stp	x19, x20, [sp, 16]
	str	d8, [sp, 32]
	.cfi_offset 19, -208
	.cfi_offset 20, -200
	.cfi_offset 72, -192
	str	x0, [sp, 88]
	str	x1, [sp, 80]
	mov	x19, x2
	adrp	x0, :got:__stack_chk_guard
	ldr	x0, [x0, #:got_lo12:__stack_chk_guard]
	ldr	x1, [x0]
	str	x1, [sp, 216]
	mov	x1, 0
	bl	_ZN5ImGui16GetCurrentWindowEv
	str	x0, [sp, 160]
	ldr	x0, [sp, 160]
	ldrb	w0, [x0, 155]
	cmp	w0, 0
	bne	.L351
	adrp	x0, :got:GImGui
	ldr	x0, [x0, #:got_lo12:GImGui]
	ldr	x0, [x0]
	str	x0, [sp, 168]
	ldr	x1, [sp, 168]
	mov	x0, 14304
	add	x0, x1, x0
	str	x0, [sp, 176]
	bl	_ZN5ImGui13CalcItemWidthEv
	str	s0, [sp, 100]
	add	x0, sp, 48
	mov	x1, x19
	ldp	q0, q1, [x1]
	stp	q0, q1, [x0]
	add	x2, sp, 48
	add	x1, sp, 112
	add	x0, sp, 104
	mov	x3, x2
	ldr	x2, [sp, 80]
	bl	_Z27ImFormatStringToTempBufferVPPKcS1_S0_St9__va_list
	ldr	x0, [sp, 104]
	ldr	x1, [sp, 112]
	fmov	s0, -1.0e+0
	mov	w2, 0
	bl	_ZN5ImGui12CalcTextSizeEPKcS1_bf
	fmov	s2, s0
	fmov	s0, s1
	str	s2, [sp, 120]
	str	s0, [sp, 124]
	fmov	s0, -1.0e+0
	mov	w2, 1
	mov	x1, 0
	ldr	x0, [sp, 88]
	bl	_ZN5ImGui12CalcTextSizeEPKcS1_bf
	fmov	s2, s0
	fmov	s0, s1
	str	s2, [sp, 128]
	str	s0, [sp, 132]
	ldr	x0, [sp, 160]
	ldr	x0, [x0, 224]
	str	x0, [sp, 136]
	ldr	s1, [sp, 124]
	ldr	x0, [sp, 176]
	ldr	s0, [x0, 64]
	fadd	s0, s0, s0
	fadd	s0, s1, s0
	add	x0, sp, 152
	fmov	s1, s0
	ldr	s0, [sp, 100]
	bl	_ZN6ImVec2C1Eff
	add	x1, sp, 152
	add	x0, sp, 136
	bl	_ZplRK6ImVec2S1_
	fmov	s2, s0
	fmov	s0, s1
	str	s2, [sp, 200]
	str	s0, [sp, 204]
	add	x2, sp, 200
	add	x1, sp, 136
	add	x0, sp, 184
	bl	_ZN6ImRectC1ERK6ImVec2S2_
	ldr	s0, [sp, 128]
	fcmpe	s0, #0.0
	bgt	.L348
	b	.L350
.L348:
	ldr	x0, [sp, 176]
	ldr	s1, [x0, 84]
	ldr	s0, [sp, 128]
	fadd	s0, s1, s0
	b	.L342
.L350:
	movi	v0.2s, #0
.L342:
	ldr	s1, [sp, 100]
	fadd	s8, s0, s1
	ldr	s0, [sp, 124]
	ldr	s1, [sp, 132]
	bl	_Z5ImMaxIfET_S0_S0_
	fmov	s1, s0
	ldr	x0, [sp, 176]
	ldr	s0, [x0, 64]
	fadd	s0, s0, s0
	fadd	s0, s1, s0
	add	x0, sp, 144
	fmov	s1, s0
	fmov	s0, s8
	bl	_ZN6ImVec2C1Eff
	add	x1, sp, 144
	add	x0, sp, 136
	bl	_ZplRK6ImVec2S1_
	fmov	s2, s0
	fmov	s0, s1
	str	s2, [sp, 152]
	str	s0, [sp, 156]
	add	x2, sp, 152
	add	x1, sp, 136
	add	x0, sp, 200
	bl	_ZN6ImRectC1ERK6ImVec2S2_
	ldr	x0, [sp, 176]
	ldr	s0, [x0, 64]
	add	x0, sp, 200
	bl	_ZN5ImGui8ItemSizeERK6ImRectf
	add	x0, sp, 200
	mov	w3, 0
	mov	x2, 0
	mov	w1, 0
	bl	_ZN5ImGui7ItemAddERK6ImRectjPS1_i
	and	w0, w0, 255
	eor	w0, w0, 1
	and	w0, w0, 255
	cmp	w0, 0
	bne	.L352
	ldr	x0, [sp, 176]
	add	x1, x0, 60
	add	x0, sp, 184
	bl	_ZplRK6ImVec2S1_
	fmov	s2, s0
	fmov	s0, s1
	str	s2, [sp, 144]
	str	s0, [sp, 148]
	ldr	x19, [sp, 104]
	ldr	x20, [sp, 112]
	add	x0, sp, 152
	movi	v1.2s, #0
	movi	v0.2s, #0
	bl	_ZN6ImVec2C1Eff
	add	x3, sp, 152
	add	x2, sp, 120
	add	x0, sp, 184
	add	x1, x0, 8
	add	x0, sp, 144
	mov	x6, 0
	mov	x5, x3
	mov	x4, x2
	mov	x3, x20
	mov	x2, x19
	bl	_ZN5ImGui17RenderTextClippedERK6ImVec2S2_PKcS4_PS1_S2_PK6ImRect
	ldr	s0, [sp, 128]
	fcmpe	s0, #0.0
	bgt	.L349
	b	.L337
.L349:
	ldr	s1, [sp, 192]
	ldr	x0, [sp, 176]
	ldr	s0, [x0, 84]
	fadd	s2, s1, s0
	ldr	s1, [sp, 188]
	ldr	x0, [sp, 176]
	ldr	s0, [x0, 64]
	fadd	s0, s1, s0
	add	x0, sp, 152
	fmov	s1, s0
	fmov	s0, s2
	bl	_ZN6ImVec2C1Eff
	ldr	s0, [sp, 152]
	ldr	s1, [sp, 156]
	mov	w2, 1
	mov	x1, 0
	ldr	x0, [sp, 88]
	bl	_ZN5ImGui10RenderTextE6ImVec2PKcS2_b
	b	.L337
.L351:
	nop
	b	.L337
.L352:
	nop
.L337:
	adrp	x0, :got:__stack_chk_guard
	ldr	x0, [x0, #:got_lo12:__stack_chk_guard]
	ldr	x2, [sp, 216]
	ldr	x1, [x0]
	subs	x2, x2, x1
	mov	x1, 0
	beq	.L347
	bl	__stack_chk_fail
.L347:
	ldr	d8, [sp, 32]
	ldp	x19, x20, [sp, 16]
	ldp	x29, x30, [sp], 224
	.cfi_restore 30
	.cfi_restore 29
	.cfi_restore 19
	.cfi_restore 20
	.cfi_restore 72
	.cfi_def_cfa_offset 0
	ret
	.cfi_endproc
.LFE1579:
	.size	_ZN5ImGui10LabelTextVEPKcS1_St9__va_list, .-_ZN5ImGui10LabelTextVEPKcS1_St9__va_list
	.align	2
	.global	_ZN5ImGui10BulletTextEPKcz
	.type	_ZN5ImGui10BulletTextEPKcz, %function
_ZN5ImGui10BulletTextEPKcz:
.LFB1580:
	.cfi_startproc
	stp	x29, x30, [sp, -304]!
	.cfi_def_cfa_offset 304
	.cfi_offset 29, -304
	.cfi_offset 30, -296
	mov	x29, sp
	str	x0, [sp, 56]
	str	x1, [sp, 248]
	str	x2, [sp, 256]
	str	x3, [sp, 264]
	str	x4, [sp, 272]
	str	x5, [sp, 280]
	str	x6, [sp, 288]
	str	x7, [sp, 296]
	str	q0, [sp, 112]
	str	q1, [sp, 128]
	str	q2, [sp, 144]
	str	q3, [sp, 160]
	str	q4, [sp, 176]
	str	q5, [sp, 192]
	str	q6, [sp, 208]
	str	q7, [sp, 224]
	adrp	x0, :got:__stack_chk_guard
	ldr	x0, [x0, #:got_lo12:__stack_chk_guard]
	ldr	x1, [x0]
	str	x1, [sp, 104]
	mov	x1, 0
	add	x0, sp, 304
	str	x0, [sp, 72]
	add	x0, sp, 304
	str	x0, [sp, 80]
	add	x0, sp, 240
	str	x0, [sp, 88]
	mov	w0, -56
	str	w0, [sp, 96]
	mov	w0, -128
	str	w0, [sp, 100]
	add	x0, sp, 16
	add	x1, sp, 72
	ldp	q0, q1, [x1]
	stp	q0, q1, [x0]
	add	x0, sp, 16
	mov	x1, x0
	ldr	x0, [sp, 56]
	bl	_ZN5ImGui11BulletTextVEPKcSt9__va_list
	nop
	adrp	x0, :got:__stack_chk_guard
	ldr	x0, [x0, #:got_lo12:__stack_chk_guard]
	ldr	x2, [sp, 104]
	ldr	x1, [x0]
	subs	x2, x2, x1
	mov	x1, 0
	beq	.L354
	bl	__stack_chk_fail
.L354:
	ldp	x29, x30, [sp], 304
	.cfi_restore 30
	.cfi_restore 29
	.cfi_def_cfa_offset 0
	ret
	.cfi_endproc
.LFE1580:
	.size	_ZN5ImGui10BulletTextEPKcz, .-_ZN5ImGui10BulletTextEPKcz
	.align	2
	.global	_ZN5ImGui11BulletTextVEPKcSt9__va_list
	.type	_ZN5ImGui11BulletTextVEPKcSt9__va_list, %function
_ZN5ImGui11BulletTextVEPKcSt9__va_list:
.LFB1581:
	.cfi_startproc
	stp	x29, x30, [sp, -192]!
	.cfi_def_cfa_offset 192
	.cfi_offset 29, -192
	.cfi_offset 30, -184
	mov	x29, sp
	str	x19, [sp, 16]
	.cfi_offset 19, -176
	str	x0, [sp, 72]
	mov	x19, x1
	adrp	x0, :got:__stack_chk_guard
	ldr	x0, [x0, #:got_lo12:__stack_chk_guard]
	ldr	x1, [x0]
	str	x1, [sp, 184]
	mov	x1, 0
	bl	_ZN5ImGui16GetCurrentWindowEv
	str	x0, [sp, 144]
	ldr	x0, [sp, 144]
	ldrb	w0, [x0, 155]
	cmp	w0, 0
	bne	.L366
	adrp	x0, :got:GImGui
	ldr	x0, [x0, #:got_lo12:GImGui]
	ldr	x0, [x0]
	str	x0, [sp, 152]
	ldr	x1, [sp, 152]
	mov	x0, 14304
	add	x0, x1, x0
	str	x0, [sp, 160]
	add	x0, sp, 32
	mov	x1, x19
	ldp	q0, q1, [x1]
	stp	q0, q1, [x0]
	add	x2, sp, 32
	add	x1, sp, 104
	add	x0, sp, 96
	mov	x3, x2
	ldr	x2, [sp, 72]
	bl	_Z27ImFormatStringToTempBufferVPPKcS1_S0_St9__va_list
	ldr	x0, [sp, 96]
	ldr	x1, [sp, 104]
	fmov	s0, -1.0e+0
	mov	w2, 0
	bl	_ZN5ImGui12CalcTextSizeEPKcS1_bf
	fmov	s2, s0
	fmov	s0, s1
	str	s2, [sp, 112]
	str	s0, [sp, 116]
	ldr	x0, [sp, 152]
	ldr	s1, [x0, 15360]
	ldr	s0, [sp, 112]
	fcmpe	s0, #0.0
	bgt	.L364
	b	.L365
.L364:
	ldr	s2, [sp, 112]
	ldr	x0, [sp, 160]
	ldr	s0, [x0, 60]
	fadd	s0, s0, s0
	fadd	s0, s2, s0
	b	.L360
.L365:
	movi	v0.2s, #0
.L360:
	fadd	s0, s0, s1
	ldr	s1, [sp, 116]
	add	x0, sp, 120
	bl	_ZN6ImVec2C1Eff
	ldr	x0, [sp, 144]
	ldr	x0, [x0, 224]
	str	x0, [sp, 128]
	ldr	s1, [sp, 132]
	ldr	x0, [sp, 144]
	ldr	s0, [x0, 280]
	fadd	s0, s1, s0
	str	s0, [sp, 132]
	add	x0, sp, 120
	movi	v0.2s, #0
	bl	_ZN5ImGui8ItemSizeERK6ImVec2f
	add	x1, sp, 120
	add	x0, sp, 128
	bl	_ZplRK6ImVec2S1_
	fmov	s2, s0
	fmov	s0, s1
	str	s2, [sp, 136]
	str	s0, [sp, 140]
	add	x2, sp, 136
	add	x1, sp, 128
	add	x0, sp, 168
	bl	_ZN6ImRectC1ERK6ImVec2S2_
	add	x0, sp, 168
	mov	w3, 0
	mov	x2, 0
	mov	w1, 0
	bl	_ZN5ImGui7ItemAddERK6ImRectjPS1_i
	and	w0, w0, 255
	eor	w0, w0, 1
	and	w0, w0, 255
	cmp	w0, 0
	bne	.L367
	fmov	s0, 1.0e+0
	mov	w0, 0
	bl	_ZN5ImGui11GetColorU32Eif
	str	w0, [sp, 92]
	ldr	x0, [sp, 144]
	ldr	x19, [x0, 632]
	ldr	x0, [sp, 160]
	ldr	s1, [x0, 60]
	ldr	x0, [sp, 152]
	ldr	s2, [x0, 15360]
	fmov	s0, 5.0e-1
	fmul	s0, s2, s0
	fadd	s2, s1, s0
	ldr	x0, [sp, 152]
	ldr	s1, [x0, 15360]
	fmov	s0, 5.0e-1
	fmul	s0, s1, s0
	add	x0, sp, 136
	fmov	s1, s0
	fmov	s0, s2
	bl	_ZN6ImVec2C1Eff
	add	x1, sp, 136
	add	x0, sp, 168
	bl	_ZplRK6ImVec2S1_
	fmov	s2, s0
	fmov	s0, s1
	fmov	x0, d2
	fmov	w1, s0
	bfi	x0, x1, 32, 32
	mov	x1, x0
	lsr	w2, w1, 0
	lsr	x0, x0, 32
	fmov	s1, w0
	ldr	w1, [sp, 92]
	fmov	s0, w2
	mov	x0, x19
	bl	_ZN5ImGui12RenderBulletEP10ImDrawList6ImVec2j
	ldr	x0, [sp, 152]
	ldr	s1, [x0, 15360]
	ldr	x0, [sp, 160]
	ldr	s0, [x0, 60]
	fadd	s0, s0, s0
	fadd	s0, s1, s0
	add	x0, sp, 136
	movi	v1.2s, #0
	bl	_ZN6ImVec2C1Eff
	add	x1, sp, 136
	add	x0, sp, 168
	bl	_ZplRK6ImVec2S1_
	fmov	s2, s0
	fmov	s0, s1
	fmov	x0, d2
	fmov	w1, s0
	bfi	x0, x1, 32, 32
	ldr	x3, [sp, 96]
	ldr	x1, [sp, 104]
	mov	x2, x0
	lsr	w4, w2, 0
	lsr	x0, x0, 32
	fmov	s1, w0
	mov	w2, 0
	mov	x0, x3
	fmov	s0, w4
	bl	_ZN5ImGui10RenderTextE6ImVec2PKcS2_b
	b	.L355
.L366:
	nop
	b	.L355
.L367:
	nop
.L355:
	adrp	x0, :got:__stack_chk_guard
	ldr	x0, [x0, #:got_lo12:__stack_chk_guard]
	ldr	x2, [sp, 184]
	ldr	x1, [x0]
	subs	x2, x2, x1
	mov	x1, 0
	beq	.L363
	bl	__stack_chk_fail
.L363:
	ldr	x19, [sp, 16]
	ldp	x29, x30, [sp], 192
	.cfi_restore 30
	.cfi_restore 29
	.cfi_restore 19
	.cfi_def_cfa_offset 0
	ret
	.cfi_endproc
.LFE1581:
	.size	_ZN5ImGui11BulletTextVEPKcSt9__va_list, .-_ZN5ImGui11BulletTextVEPKcSt9__va_list
	.align	2
	.global	_ZN5ImGui14ButtonBehaviorERK6ImRectjPbS3_i
	.type	_ZN5ImGui14ButtonBehaviorERK6ImRectjPbS3_i, %function
_ZN5ImGui14ButtonBehaviorERK6ImRectjPbS3_i:
.LFB1582:
	.cfi_startproc
	stp	x29, x30, [sp, -144]!
	.cfi_def_cfa_offset 144
	.cfi_offset 29, -144
	.cfi_offset 30, -136
	mov	x29, sp
	str	x19, [sp, 16]
	.cfi_offset 19, -128
	str	x0, [sp, 56]
	str	w1, [sp, 52]
	str	x2, [sp, 40]
	str	x3, [sp, 32]
	str	w4, [sp, 48]
	adrp	x0, :got:GImGui
	ldr	x0, [x0, #:got_lo12:GImGui]
	ldr	x0, [x0]
	str	x0, [sp, 104]
	bl	_ZN5ImGui16GetCurrentWindowEv
	str	x0, [sp, 112]
	ldr	w0, [sp, 48]
	and	w0, w0, 7
	cmp	w0, 0
	bne	.L369
	ldr	w0, [sp, 48]
	orr	w0, w0, 1
	str	w0, [sp, 48]
.L369:
	ldr	w0, [sp, 48]
	and	w0, w0, 1008
	cmp	w0, 0
	bne	.L370
	ldr	w0, [sp, 48]
	orr	w0, w0, 32
	str	w0, [sp, 48]
.L370:
	ldr	x0, [sp, 104]
	ldr	x0, [x0, 16040]
	str	x0, [sp, 120]
	ldr	w0, [sp, 48]
	and	w0, w0, 2048
	cmp	w0, 0
	beq	.L371
	ldr	x0, [sp, 104]
	ldr	x0, [x0, 16040]
	cmp	x0, 0
	beq	.L371
	ldr	x0, [sp, 104]
	ldr	x0, [x0, 16040]
	ldr	x0, [x0, 856]
	ldr	x1, [sp, 112]
	cmp	x1, x0
	bne	.L371
	mov	w0, 1
	b	.L372
.L371:
	mov	w0, 0
.L372:
	strb	w0, [sp, 76]
	ldrb	w0, [sp, 76]
	cmp	w0, 0
	beq	.L373
	ldr	x0, [sp, 104]
	ldr	x1, [sp, 112]
	str	x1, [x0, 16040]
.L373:
	strb	wzr, [sp, 72]
	ldr	w1, [sp, 52]
	ldr	x0, [sp, 56]
	bl	_ZN5ImGui13ItemHoverableERK6ImRectj
	and	w0, w0, 255
	strb	w0, [sp, 73]
	ldrb	w0, [sp, 73]
	cmp	w0, 0
	beq	.L374
	ldr	x0, [sp, 104]
	add	x0, x0, 16384
	ldrb	w0, [x0, 2580]
	cmp	w0, 0
	beq	.L374
	ldr	x0, [sp, 104]
	add	x0, x0, 16384
	ldr	w0, [x0, 2612]
	ldr	w1, [sp, 52]
	cmp	w1, w0
	bne	.L374
	ldr	x0, [sp, 104]
	add	x0, x0, 16384
	ldr	w0, [x0, 2584]
	and	w0, w0, 2
	cmp	w0, 0
	bne	.L374
	strb	wzr, [sp, 73]
.L374:
	ldr	x0, [sp, 104]
	add	x0, x0, 16384
	ldrb	w0, [x0, 2580]
	cmp	w0, 0
	beq	.L375
	ldr	w0, [sp, 48]
	and	w0, w0, 512
	cmp	w0, 0
	beq	.L375
	ldr	x0, [sp, 104]
	add	x0, x0, 16384
	ldr	w0, [x0, 2584]
	and	w0, w0, 4
	cmp	w0, 0
	bne	.L375
	mov	w0, 128
	bl	_ZN5ImGui13IsItemHoveredEi
	and	w0, w0, 255
	cmp	w0, 0
	beq	.L375
	mov	w0, 1
	strb	w0, [sp, 73]
	ldr	w0, [sp, 52]
	bl	_ZN5ImGui12SetHoveredIDEj
	ldr	x0, [sp, 104]
	ldr	s1, [x0, 16100]
	ldr	x0, [sp, 104]
	ldr	s0, [x0, 24]
	fsub	s0, s1, s0
	mov	w0, 13107
	movk	w0, 0x3f33, lsl 16
	fmov	s1, w0
	fcmpe	s0, s1
	bls	.L443
	b	.L375
.L443:
	ldr	x0, [sp, 104]
	ldr	s0, [x0, 16100]
	mov	w0, 13107
	movk	w0, 0x3f33, lsl 16
	fmov	s1, w0
	fcmpe	s0, s1
	bge	.L444
	b	.L375
.L444:
	mov	w0, 1
	strb	w0, [sp, 72]
	ldr	x0, [sp, 104]
	add	x0, x0, 16384
	ldr	w1, [sp, 52]
	str	w1, [x0, 2704]
	ldr	x0, [sp, 112]
	bl	_ZN5ImGui11FocusWindowEP11ImGuiWindow
.L375:
	ldrb	w0, [sp, 76]
	cmp	w0, 0
	beq	.L378
	ldr	x0, [sp, 104]
	ldr	x1, [sp, 120]
	str	x1, [x0, 16040]
.L378:
	ldrb	w0, [sp, 73]
	cmp	w0, 0
	beq	.L379
	ldr	w0, [sp, 48]
	and	w0, w0, 4096
	cmp	w0, 0
	beq	.L379
	ldr	x0, [sp, 104]
	ldr	w0, [x0, 16092]
	ldr	w1, [sp, 52]
	cmp	w1, w0
	beq	.L379
	ldr	x0, [sp, 104]
	ldr	w0, [x0, 16092]
	cmp	w0, 0
	beq	.L379
	strb	wzr, [sp, 73]
.L379:
	ldr	w0, [sp, 48]
	and	w0, w0, 2097152
	cmp	w0, 0
	bne	.L380
	ldr	w0, [sp, 52]
	b	.L381
.L380:
	mov	w0, 0
.L381:
	str	w0, [sp, 92]
	ldrb	w0, [sp, 73]
	cmp	w0, 0
	beq	.L382
	ldr	w0, [sp, 48]
	and	w0, w0, 65536
	cmp	w0, 0
	beq	.L383
	ldr	x0, [sp, 104]
	ldrb	w0, [x0, 3604]
	eor	w0, w0, 1
	and	w0, w0, 255
	cmp	w0, 0
	beq	.L384
	ldr	x0, [sp, 104]
	ldrb	w0, [x0, 3605]
	eor	w0, w0, 1
	and	w0, w0, 255
	cmp	w0, 0
	beq	.L384
	ldr	x0, [sp, 104]
	ldrb	w0, [x0, 3606]
	eor	w0, w0, 1
	and	w0, w0, 255
	cmp	w0, 0
	beq	.L384
.L383:
	mov	w0, -1
	str	w0, [sp, 84]
	ldr	w0, [sp, 48]
	and	w0, w0, 1
	cmp	w0, 0
	beq	.L385
	mov	w2, 0
	ldr	w1, [sp, 92]
	mov	w0, 0
	bl	_ZN5ImGui14IsMouseClickedEiji
	and	w0, w0, 255
	cmp	w0, 0
	beq	.L385
	mov	w0, 1
	b	.L386
.L385:
	mov	w0, 0
.L386:
	cmp	w0, 0
	beq	.L387
	str	wzr, [sp, 84]
	b	.L388
.L387:
	ldr	w0, [sp, 48]
	and	w0, w0, 2
	cmp	w0, 0
	beq	.L389
	mov	w2, 0
	ldr	w1, [sp, 92]
	mov	w0, 1
	bl	_ZN5ImGui14IsMouseClickedEiji
	and	w0, w0, 255
	cmp	w0, 0
	beq	.L389
	mov	w0, 1
	b	.L390
.L389:
	mov	w0, 0
.L390:
	cmp	w0, 0
	beq	.L391
	mov	w0, 1
	str	w0, [sp, 84]
	b	.L388
.L391:
	ldr	w0, [sp, 48]
	and	w0, w0, 4
	cmp	w0, 0
	beq	.L392
	mov	w2, 0
	ldr	w1, [sp, 92]
	mov	w0, 2
	bl	_ZN5ImGui14IsMouseClickedEiji
	and	w0, w0, 255
	cmp	w0, 0
	beq	.L392
	mov	w0, 1
	b	.L393
.L392:
	mov	w0, 0
.L393:
	cmp	w0, 0
	beq	.L388
	mov	w0, 2
	str	w0, [sp, 84]
.L388:
	ldr	w0, [sp, 84]
	cmn	w0, #1
	beq	.L394
	ldr	x0, [sp, 104]
	ldr	w0, [x0, 16108]
	ldr	w1, [sp, 52]
	cmp	w1, w0
	beq	.L394
	ldr	w0, [sp, 48]
	and	w0, w0, 1048576
	cmp	w0, 0
	bne	.L395
	ldr	w0, [sp, 84]
	bl	_ZN5ImGui16MouseButtonToKeyEi
	mov	w2, 0
	ldr	w1, [sp, 52]
	bl	_ZN5ImGui11SetKeyOwnerE8ImGuiKeyji
.L395:
	ldr	w0, [sp, 48]
	and	w0, w0, 96
	cmp	w0, 0
	beq	.L396
	ldr	x1, [sp, 112]
	ldr	w0, [sp, 52]
	bl	_ZN5ImGui11SetActiveIDEjP11ImGuiWindow
	ldr	x0, [sp, 104]
	ldr	w1, [sp, 84]
	str	w1, [x0, 16148]
	ldr	w0, [sp, 48]
	and	w0, w0, 262144
	cmp	w0, 0
	bne	.L397
	ldr	x1, [sp, 112]
	ldr	w0, [sp, 52]
	bl	_ZN5ImGui10SetFocusIDEjP11ImGuiWindow
.L397:
	ldr	x0, [sp, 112]
	bl	_ZN5ImGui11FocusWindowEP11ImGuiWindow
.L396:
	ldr	w0, [sp, 48]
	and	w0, w0, 16
	cmp	w0, 0
	bne	.L398
	ldr	w0, [sp, 48]
	and	w0, w0, 256
	cmp	w0, 0
	beq	.L394
	ldr	x1, [sp, 104]
	ldrsw	x2, [sp, 84]
	mov	x0, 7064
	add	x0, x2, x0
	lsl	x0, x0, 1
	add	x0, x1, x0
	ldrh	w0, [x0, 18]
	cmp	w0, 2
	bne	.L394
.L398:
	mov	w0, 1
	strb	w0, [sp, 72]
	ldr	w0, [sp, 48]
	and	w0, w0, 131072
	cmp	w0, 0
	beq	.L399
	bl	_ZN5ImGui13ClearActiveIDEv
	b	.L400
.L399:
	ldr	x1, [sp, 112]
	ldr	w0, [sp, 52]
	bl	_ZN5ImGui11SetActiveIDEjP11ImGuiWindow
.L400:
	ldr	w0, [sp, 48]
	and	w0, w0, 262144
	cmp	w0, 0
	bne	.L401
	ldr	x1, [sp, 112]
	ldr	w0, [sp, 52]
	bl	_ZN5ImGui10SetFocusIDEjP11ImGuiWindow
.L401:
	ldr	x0, [sp, 104]
	ldr	w1, [sp, 84]
	str	w1, [x0, 16148]
	ldr	x0, [sp, 112]
	bl	_ZN5ImGui11FocusWindowEP11ImGuiWindow
.L394:
	ldr	w0, [sp, 48]
	and	w0, w0, 128
	cmp	w0, 0
	beq	.L402
	mov	w0, -1
	str	w0, [sp, 88]
	ldr	w0, [sp, 48]
	and	w0, w0, 1
	cmp	w0, 0
	beq	.L403
	ldr	w1, [sp, 92]
	mov	w0, 0
	bl	_ZN5ImGui15IsMouseReleasedEij
	and	w0, w0, 255
	cmp	w0, 0
	beq	.L403
	mov	w0, 1
	b	.L404
.L403:
	mov	w0, 0
.L404:
	cmp	w0, 0
	beq	.L405
	str	wzr, [sp, 88]
	b	.L406
.L405:
	ldr	w0, [sp, 48]
	and	w0, w0, 2
	cmp	w0, 0
	beq	.L407
	ldr	w1, [sp, 92]
	mov	w0, 1
	bl	_ZN5ImGui15IsMouseReleasedEij
	and	w0, w0, 255
	cmp	w0, 0
	beq	.L407
	mov	w0, 1
	b	.L408
.L407:
	mov	w0, 0
.L408:
	cmp	w0, 0
	beq	.L409
	mov	w0, 1
	str	w0, [sp, 88]
	b	.L406
.L409:
	ldr	w0, [sp, 48]
	and	w0, w0, 4
	cmp	w0, 0
	beq	.L410
	ldr	w1, [sp, 92]
	mov	w0, 2
	bl	_ZN5ImGui15IsMouseReleasedEij
	and	w0, w0, 255
	cmp	w0, 0
	beq	.L410
	mov	w0, 1
	b	.L411
.L410:
	mov	w0, 0
.L411:
	cmp	w0, 0
	beq	.L406
	mov	w0, 2
	str	w0, [sp, 88]
.L406:
	ldr	w0, [sp, 88]
	cmn	w0, #1
	beq	.L402
	ldr	w0, [sp, 48]
	and	w0, w0, 1024
	cmp	w0, 0
	beq	.L412
	ldr	x1, [sp, 104]
	ldrsw	x0, [sp, 88]
	add	x0, x0, 3548
	lsl	x0, x0, 2
	add	x0, x1, x0
	ldr	s1, [x0, 12]
	ldr	x0, [sp, 104]
	ldr	s0, [x0, 60]
	fcmpe	s1, s0
	bge	.L445
	b	.L412
.L445:
	mov	w0, 1
	b	.L414
.L412:
	mov	w0, 0
.L414:
	strb	w0, [sp, 77]
	ldrb	w0, [sp, 77]
	eor	w0, w0, 1
	and	w0, w0, 255
	cmp	w0, 0
	beq	.L415
	mov	w0, 1
	strb	w0, [sp, 72]
.L415:
	ldr	w0, [sp, 48]
	and	w0, w0, 262144
	cmp	w0, 0
	bne	.L416
	ldr	x1, [sp, 112]
	ldr	w0, [sp, 52]
	bl	_ZN5ImGui10SetFocusIDEjP11ImGuiWindow
.L416:
	bl	_ZN5ImGui13ClearActiveIDEv
.L402:
	ldr	x0, [sp, 104]
	ldr	w0, [x0, 16108]
	ldr	w1, [sp, 52]
	cmp	w1, w0
	bne	.L384
	ldr	w0, [sp, 48]
	and	w0, w0, 1024
	cmp	w0, 0
	beq	.L384
	ldr	x0, [sp, 104]
	ldr	w0, [x0, 16148]
	ldr	x1, [sp, 104]
	sxtw	x0, w0
	add	x0, x0, 3544
	lsl	x0, x0, 2
	add	x0, x1, x0
	ldr	s0, [x0, 8]
	fcmpe	s0, #0.0
	bgt	.L446
	b	.L417
.L446:
	ldr	x0, [sp, 104]
	ldr	w0, [x0, 16148]
	mov	w2, 1
	ldr	w1, [sp, 92]
	bl	_ZN5ImGui14IsMouseClickedEiji
	and	w0, w0, 255
	cmp	w0, 0
	beq	.L417
	mov	w0, 1
	b	.L419
.L417:
	mov	w0, 0
.L419:
	cmp	w0, 0
	beq	.L384
	mov	w0, 1
	strb	w0, [sp, 72]
.L384:
	ldrb	w0, [sp, 72]
	cmp	w0, 0
	beq	.L382
	ldr	x0, [sp, 104]
	add	x0, x0, 16384
	mov	w1, 1
	strb	w1, [x0, 2218]
.L382:
	ldr	x0, [sp, 104]
	add	x0, x0, 16384
	ldr	w0, [x0, 2160]
	ldr	w1, [sp, 52]
	cmp	w1, w0
	bne	.L420
	ldr	x0, [sp, 104]
	add	x0, x0, 16384
	ldrb	w0, [x0, 2218]
	eor	w0, w0, 1
	and	w0, w0, 255
	cmp	w0, 0
	beq	.L420
	ldr	x0, [sp, 104]
	add	x0, x0, 16384
	ldrb	w0, [x0, 2219]
	cmp	w0, 0
	beq	.L420
	ldr	x0, [sp, 104]
	ldr	w0, [x0, 16108]
	cmp	w0, 0
	beq	.L421
	ldr	x0, [sp, 104]
	ldr	w0, [x0, 16108]
	ldr	w1, [sp, 52]
	cmp	w1, w0
	beq	.L421
	ldr	x0, [sp, 104]
	ldr	w1, [x0, 16108]
	ldr	x0, [sp, 112]
	ldr	w0, [x0, 92]
	cmp	w1, w0
	bne	.L420
.L421:
	ldr	w0, [sp, 48]
	and	w0, w0, 524288
	cmp	w0, 0
	bne	.L420
	mov	w0, 1
	strb	w0, [sp, 73]
.L420:
	ldr	x0, [sp, 104]
	add	x0, x0, 16384
	ldr	w0, [x0, 2172]
	ldr	w1, [sp, 52]
	cmp	w1, w0
	bne	.L422
	ldr	x0, [sp, 104]
	add	x0, x0, 16384
	ldr	w0, [x0, 2168]
	ldr	w1, [sp, 52]
	cmp	w1, w0
	cset	w0, eq
	strb	w0, [sp, 78]
	ldr	x0, [sp, 104]
	add	x0, x0, 16384
	ldr	w0, [x0, 2176]
	ldr	w1, [sp, 52]
	cmp	w1, w0
	cset	w0, eq
	strb	w0, [sp, 74]
	ldrb	w0, [sp, 74]
	eor	w0, w0, 1
	and	w0, w0, 255
	cmp	w0, 0
	beq	.L423
	ldr	w0, [sp, 48]
	and	w0, w0, 1024
	cmp	w0, 0
	beq	.L423
	mov	w0, 524
	bl	_ZN5ImGui10GetKeyDataE8ImGuiKey
	str	x0, [sp, 128]
	mov	w0, 622
	bl	_ZN5ImGui10GetKeyDataE8ImGuiKey
	str	x0, [sp, 136]
	ldr	x0, [sp, 128]
	ldr	s0, [x0, 4]
	ldr	x0, [sp, 136]
	ldr	s1, [x0, 4]
	bl	_Z5ImMaxIfET_S0_S0_
	str	s0, [sp, 96]
	ldr	x0, [sp, 104]
	ldr	s0, [x0, 24]
	ldr	s1, [sp, 96]
	fsub	s0, s1, s0
	ldr	x0, [sp, 104]
	ldr	s1, [x0, 60]
	ldr	x0, [sp, 104]
	ldr	s2, [x0, 64]
	fmov	s3, s2
	fmov	s2, s1
	ldr	s1, [sp, 96]
	bl	_ZN5ImGui25CalcTypematicRepeatAmountEffff
	cmp	w0, 0
	cset	w0, gt
	strb	w0, [sp, 74]
.L423:
	ldrb	w0, [sp, 78]
	cmp	w0, 0
	bne	.L424
	ldrb	w0, [sp, 74]
	cmp	w0, 0
	beq	.L422
.L424:
	mov	w0, 1
	strb	w0, [sp, 72]
	ldr	x1, [sp, 112]
	ldr	w0, [sp, 52]
	bl	_ZN5ImGui11SetActiveIDEjP11ImGuiWindow
	ldr	x0, [sp, 104]
	mov	w1, 5
	str	w1, [x0, 16144]
	ldr	w0, [sp, 48]
	and	w0, w0, 262144
	cmp	w0, 0
	bne	.L422
	ldr	x1, [sp, 112]
	ldr	w0, [sp, 52]
	bl	_ZN5ImGui10SetFocusIDEjP11ImGuiWindow
.L422:
	strb	wzr, [sp, 75]
	ldr	x0, [sp, 104]
	ldr	w0, [x0, 16108]
	ldr	w1, [sp, 52]
	cmp	w1, w0
	bne	.L425
	ldr	x0, [sp, 104]
	ldr	w0, [x0, 16144]
	cmp	w0, 1
	bne	.L426
	ldr	x0, [sp, 104]
	add	x0, x0, 12288
	ldrb	w0, [x0, 3832]
	cmp	w0, 0
	beq	.L427
	ldr	x0, [sp, 104]
	add	x0, x0, 3580
	ldr	x1, [sp, 56]
	ldr	x19, [sp, 104]
	bl	_ZmiRK6ImVec2S1_
	fmov	s2, s0
	fmov	s0, s1
	str	s2, [x19, 16128]
	str	s0, [x19, 16132]
.L427:
	ldr	x0, [sp, 104]
	ldr	w0, [x0, 16148]
	str	w0, [sp, 100]
	ldr	w1, [sp, 92]
	ldr	w0, [sp, 100]
	bl	_ZN5ImGui11IsMouseDownEij
	and	w0, w0, 255
	cmp	w0, 0
	beq	.L428
	mov	w0, 1
	strb	w0, [sp, 75]
	b	.L429
.L428:
	ldrb	w0, [sp, 73]
	cmp	w0, 0
	beq	.L430
	ldr	w0, [sp, 48]
	and	w0, w0, 32
	cmp	w0, 0
	beq	.L430
	mov	w0, 1
	b	.L431
.L430:
	mov	w0, 0
.L431:
	strb	w0, [sp, 79]
	ldr	w0, [sp, 48]
	and	w0, w0, 64
	cmp	w0, 0
	cset	w0, ne
	strb	w0, [sp, 80]
	ldrb	w0, [sp, 79]
	cmp	w0, 0
	bne	.L432
	ldrb	w0, [sp, 80]
	cmp	w0, 0
	beq	.L433
.L432:
	ldr	x0, [sp, 104]
	add	x0, x0, 16384
	ldrb	w0, [x0, 2580]
	eor	w0, w0, 1
	and	w0, w0, 255
	cmp	w0, 0
	beq	.L433
	ldr	w0, [sp, 48]
	and	w0, w0, 256
	cmp	w0, 0
	beq	.L434
	ldr	x1, [sp, 104]
	ldrsw	x0, [sp, 100]
	add	x0, x1, x0
	add	x0, x0, 12288
	ldrb	w0, [x0, 1878]
	cmp	w0, 0
	beq	.L434
	ldr	x1, [sp, 104]
	ldrsw	x2, [sp, 100]
	mov	x0, 7072
	add	x0, x2, x0
	lsl	x0, x0, 1
	add	x0, x1, x0
	ldrh	w0, [x0, 12]
	cmp	w0, 2
	bne	.L434
	mov	w0, 1
	b	.L435
.L434:
	mov	w0, 0
.L435:
	strb	w0, [sp, 81]
	ldr	w0, [sp, 48]
	and	w0, w0, 1024
	cmp	w0, 0
	beq	.L436
	ldr	x1, [sp, 104]
	ldrsw	x0, [sp, 100]
	add	x0, x0, 3548
	lsl	x0, x0, 2
	add	x0, x1, x0
	ldr	s1, [x0, 12]
	ldr	x0, [sp, 104]
	ldr	s0, [x0, 60]
	fcmpe	s1, s0
	bge	.L447
	b	.L436
.L447:
	mov	w0, 1
	b	.L438
.L436:
	mov	w0, 0
.L438:
	strb	w0, [sp, 82]
	ldr	w0, [sp, 100]
	bl	_ZN5ImGui16MouseButtonToKeyEi
	ldr	w1, [sp, 92]
	bl	_ZN5ImGui12TestKeyOwnerE8ImGuiKeyj
	and	w0, w0, 255
	strb	w0, [sp, 83]
	ldrb	w0, [sp, 81]
	eor	w0, w0, 1
	and	w0, w0, 255
	cmp	w0, 0
	beq	.L433
	ldrb	w0, [sp, 82]
	eor	w0, w0, 1
	and	w0, w0, 255
	cmp	w0, 0
	beq	.L433
	ldrb	w0, [sp, 83]
	cmp	w0, 0
	beq	.L433
	mov	w0, 1
	strb	w0, [sp, 72]
.L433:
	bl	_ZN5ImGui13ClearActiveIDEv
.L429:
	ldr	w0, [sp, 48]
	and	w0, w0, 262144
	cmp	w0, 0
	bne	.L439
	ldr	x0, [sp, 104]
	add	x0, x0, 16384
	mov	w1, 1
	strb	w1, [x0, 2218]
	b	.L439
.L426:
	ldr	x0, [sp, 104]
	ldr	w0, [x0, 16144]
	cmp	w0, 5
	bne	.L439
	ldr	x0, [sp, 104]
	add	x0, x0, 16384
	ldr	w0, [x0, 2172]
	ldr	w1, [sp, 52]
	cmp	w1, w0
	beq	.L439
	bl	_ZN5ImGui13ClearActiveIDEv
.L439:
	ldrb	w0, [sp, 72]
	cmp	w0, 0
	beq	.L425
	ldr	x0, [sp, 104]
	add	x0, x0, 12288
	mov	w1, 1
	strb	w1, [x0, 3835]
.L425:
	ldr	x0, [sp, 40]
	cmp	x0, 0
	beq	.L440
	ldr	x0, [sp, 40]
	ldrb	w1, [sp, 73]
	strb	w1, [x0]
.L440:
	ldr	x0, [sp, 32]
	cmp	x0, 0
	beq	.L441
	ldr	x0, [sp, 32]
	ldrb	w1, [sp, 75]
	strb	w1, [x0]
.L441:
	ldrb	w0, [sp, 72]
	ldr	x19, [sp, 16]
	ldp	x29, x30, [sp], 144
	.cfi_restore 30
	.cfi_restore 29
	.cfi_restore 19
	.cfi_def_cfa_offset 0
	ret
	.cfi_endproc
.LFE1582:
	.size	_ZN5ImGui14ButtonBehaviorERK6ImRectjPbS3_i, .-_ZN5ImGui14ButtonBehaviorERK6ImRectjPbS3_i
	.section	.rodata
	.align	3
.LC10:
	.string	"]"
	.align	3
.LC11:
	.string	"["
	.text
	.align	2
	.global	_ZN5ImGui8ButtonExEPKcRK6ImVec2i
	.type	_ZN5ImGui8ButtonExEPKcRK6ImVec2i, %function
_ZN5ImGui8ButtonExEPKcRK6ImVec2i:
.LFB1583:
	.cfi_startproc
	stp	x29, x30, [sp, -160]!
	.cfi_def_cfa_offset 160
	.cfi_offset 29, -160
	.cfi_offset 30, -152
	mov	x29, sp
	str	x0, [sp, 40]
	str	x1, [sp, 32]
	str	w2, [sp, 28]
	adrp	x0, :got:__stack_chk_guard
	ldr	x0, [x0, #:got_lo12:__stack_chk_guard]
	ldr	x1, [x0]
	str	x1, [sp, 152]
	mov	x1, 0
	bl	_ZN5ImGui16GetCurrentWindowEv
	str	x0, [sp, 112]
	ldr	x0, [sp, 112]
	ldrb	w0, [x0, 155]
	cmp	w0, 0
	beq	.L449
	mov	w0, 0
	b	.L461
.L449:
	adrp	x0, :got:GImGui
	ldr	x0, [x0, #:got_lo12:GImGui]
	ldr	x0, [x0]
	str	x0, [sp, 120]
	ldr	x1, [sp, 120]
	mov	x0, 14304
	add	x0, x1, x0
	str	x0, [sp, 128]
	mov	x2, 0
	ldr	x1, [sp, 40]
	ldr	x0, [sp, 112]
	bl	_ZN11ImGuiWindow5GetIDEPKcS1_
	str	w0, [sp, 64]
	fmov	s0, -1.0e+0
	mov	w2, 1
	mov	x1, 0
	ldr	x0, [sp, 40]
	bl	_ZN5ImGui12CalcTextSizeEPKcS1_bf
	fmov	s2, s0
	fmov	s0, s1
	str	s2, [sp, 72]
	str	s0, [sp, 76]
	ldr	x0, [sp, 112]
	ldr	x0, [x0, 224]
	str	x0, [sp, 80]
	ldr	w0, [sp, 28]
	and	w0, w0, 32768
	cmp	w0, 0
	beq	.L451
	ldr	x0, [sp, 128]
	ldr	s1, [x0, 64]
	ldr	x0, [sp, 112]
	ldr	s0, [x0, 280]
	fcmpe	s1, s0
	bmi	.L463
	b	.L451
.L463:
	ldr	s1, [sp, 84]
	ldr	x0, [sp, 112]
	ldr	s2, [x0, 280]
	ldr	x0, [sp, 128]
	ldr	s0, [x0, 64]
	fsub	s0, s2, s0
	fadd	s0, s1, s0
	str	s0, [sp, 84]
.L451:
	ldr	s1, [sp, 72]
	ldr	x0, [sp, 128]
	ldr	s0, [x0, 60]
	fadd	s0, s0, s0
	fadd	s2, s1, s0
	ldr	s1, [sp, 76]
	ldr	x0, [sp, 128]
	ldr	s0, [x0, 64]
	fadd	s0, s0, s0
	fadd	s3, s1, s0
	ldr	x0, [sp, 32]
	ldr	s0, [x0]
	ldr	s1, [x0, 4]
	bl	_ZN5ImGui12CalcItemSizeE6ImVec2ff
	fmov	s2, s0
	fmov	s0, s1
	str	s2, [sp, 88]
	str	s0, [sp, 92]
	add	x1, sp, 88
	add	x0, sp, 80
	bl	_ZplRK6ImVec2S1_
	fmov	s2, s0
	fmov	s0, s1
	str	s2, [sp, 104]
	str	s0, [sp, 108]
	add	x2, sp, 104
	add	x1, sp, 80
	add	x0, sp, 136
	bl	_ZN6ImRectC1ERK6ImVec2S2_
	ldr	x0, [sp, 128]
	ldr	s0, [x0, 64]
	add	x0, sp, 88
	bl	_ZN5ImGui8ItemSizeERK6ImVec2f
	add	x0, sp, 136
	mov	w3, 0
	mov	x2, 0
	ldr	w1, [sp, 64]
	bl	_ZN5ImGui7ItemAddERK6ImRectjPS1_i
	and	w0, w0, 255
	eor	w0, w0, 1
	and	w0, w0, 255
	cmp	w0, 0
	beq	.L453
	mov	w0, 0
	b	.L461
.L453:
	ldr	x0, [sp, 120]
	add	x0, x0, 16384
	ldr	w0, [x0, 1832]
	and	w0, w0, 2
	cmp	w0, 0
	beq	.L454
	ldr	w0, [sp, 28]
	orr	w0, w0, 1024
	str	w0, [sp, 28]
.L454:
	add	x2, sp, 62
	add	x1, sp, 61
	add	x0, sp, 136
	ldr	w4, [sp, 28]
	mov	x3, x2
	mov	x2, x1
	ldr	w1, [sp, 64]
	bl	_ZN5ImGui14ButtonBehaviorERK6ImRectjPbS3_i
	and	w0, w0, 255
	strb	w0, [sp, 63]
	ldrb	w0, [sp, 62]
	eor	w0, w0, 1
	and	w0, w0, 255
	cmp	w0, 0
	bne	.L455
	ldrb	w0, [sp, 61]
	eor	w0, w0, 1
	and	w0, w0, 255
	cmp	w0, 0
	beq	.L456
.L455:
	ldrb	w0, [sp, 61]
	cmp	w0, 0
	beq	.L457
	mov	w0, 22
	b	.L459
.L457:
	mov	w0, 21
	b	.L459
.L456:
	mov	w0, 23
.L459:
	fmov	s0, 1.0e+0
	bl	_ZN5ImGui11GetColorU32Eif
	str	w0, [sp, 68]
	add	x0, sp, 136
	mov	w2, 1
	ldr	w1, [sp, 64]
	bl	_ZN5ImGui18RenderNavHighlightERK6ImRectji
	ldr	x0, [sp, 128]
	ldr	s4, [x0, 68]
	ldr	s2, [sp, 144]
	ldr	s3, [sp, 148]
	ldr	s0, [sp, 136]
	ldr	s1, [sp, 140]
	mov	w1, 1
	ldr	w0, [sp, 68]
	bl	_ZN5ImGui11RenderFrameE6ImVec2S0_jbf
	ldr	x0, [sp, 120]
	add	x0, x0, 20480
	ldrb	w0, [x0, 3048]
	cmp	w0, 0
	beq	.L460
	adrp	x0, .LC10
	add	x1, x0, :lo12:.LC10
	adrp	x0, .LC11
	add	x0, x0, :lo12:.LC11
	bl	_ZN5ImGui24LogSetNextTextDecorationEPKcS1_
.L460:
	ldr	x0, [sp, 128]
	add	x1, x0, 60
	add	x0, sp, 136
	bl	_ZplRK6ImVec2S1_
	fmov	s2, s0
	fmov	s0, s1
	str	s2, [sp, 96]
	str	s0, [sp, 100]
	ldr	x0, [sp, 128]
	add	x1, x0, 60
	add	x0, sp, 136
	add	x0, x0, 8
	bl	_ZmiRK6ImVec2S1_
	fmov	s2, s0
	fmov	s0, s1
	str	s2, [sp, 104]
	str	s0, [sp, 108]
	ldr	x0, [sp, 128]
	add	x3, x0, 152
	add	x4, sp, 136
	add	x2, sp, 72
	add	x1, sp, 104
	add	x0, sp, 96
	mov	x6, x4
	mov	x5, x3
	mov	x4, x2
	mov	x3, 0
	ldr	x2, [sp, 40]
	bl	_ZN5ImGui17RenderTextClippedERK6ImVec2S2_PKcS4_PS1_S2_PK6ImRect
	ldrb	w0, [sp, 63]
.L461:
	mov	w1, w0
	adrp	x0, :got:__stack_chk_guard
	ldr	x0, [x0, #:got_lo12:__stack_chk_guard]
	ldr	x3, [sp, 152]
	ldr	x2, [x0]
	subs	x3, x3, x2
	mov	x2, 0
	beq	.L462
	bl	__stack_chk_fail
.L462:
	mov	w0, w1
	ldp	x29, x30, [sp], 160
	.cfi_restore 30
	.cfi_restore 29
	.cfi_def_cfa_offset 0
	ret
	.cfi_endproc
.LFE1583:
	.size	_ZN5ImGui8ButtonExEPKcRK6ImVec2i, .-_ZN5ImGui8ButtonExEPKcRK6ImVec2i
	.align	2
	.global	_ZN5ImGui6ButtonEPKcRK6ImVec2
	.type	_ZN5ImGui6ButtonEPKcRK6ImVec2, %function
_ZN5ImGui6ButtonEPKcRK6ImVec2:
.LFB1584:
	.cfi_startproc
	stp	x29, x30, [sp, -32]!
	.cfi_def_cfa_offset 32
	.cfi_offset 29, -32
	.cfi_offset 30, -24
	mov	x29, sp
	str	x0, [sp, 24]
	str	x1, [sp, 16]
	mov	w2, 0
	ldr	x1, [sp, 16]
	ldr	x0, [sp, 24]
	bl	_ZN5ImGui8ButtonExEPKcRK6ImVec2i
	and	w0, w0, 255
	ldp	x29, x30, [sp], 32
	.cfi_restore 30
	.cfi_restore 29
	.cfi_def_cfa_offset 0
	ret
	.cfi_endproc
.LFE1584:
	.size	_ZN5ImGui6ButtonEPKcRK6ImVec2, .-_ZN5ImGui6ButtonEPKcRK6ImVec2
	.align	2
	.global	_ZN5ImGui11SmallButtonEPKc
	.type	_ZN5ImGui11SmallButtonEPKc, %function
_ZN5ImGui11SmallButtonEPKc:
.LFB1585:
	.cfi_startproc
	stp	x29, x30, [sp, -64]!
	.cfi_def_cfa_offset 64
	.cfi_offset 29, -64
	.cfi_offset 30, -56
	mov	x29, sp
	str	x0, [sp, 24]
	adrp	x0, :got:__stack_chk_guard
	ldr	x0, [x0, #:got_lo12:__stack_chk_guard]
	ldr	x1, [x0]
	str	x1, [sp, 56]
	mov	x1, 0
	adrp	x0, :got:GImGui
	ldr	x0, [x0, #:got_lo12:GImGui]
	ldr	x0, [x0]
	str	x0, [sp, 48]
	ldr	x0, [sp, 48]
	ldr	s0, [x0, 14368]
	str	s0, [sp, 36]
	ldr	x0, [sp, 48]
	str	wzr, [x0, 14368]
	add	x0, sp, 40
	movi	v1.2s, #0
	movi	v0.2s, #0
	bl	_ZN6ImVec2C1Eff
	add	x0, sp, 40
	mov	w2, 32768
	mov	x1, x0
	ldr	x0, [sp, 24]
	bl	_ZN5ImGui8ButtonExEPKcRK6ImVec2i
	and	w0, w0, 255
	strb	w0, [sp, 35]
	ldr	x0, [sp, 48]
	ldr	s0, [sp, 36]
	str	s0, [x0, 14368]
	ldrb	w0, [sp, 35]
	mov	w1, w0
	adrp	x0, :got:__stack_chk_guard
	ldr	x0, [x0, #:got_lo12:__stack_chk_guard]
	ldr	x3, [sp, 56]
	ldr	x2, [x0]
	subs	x3, x3, x2
	mov	x2, 0
	beq	.L468
	bl	__stack_chk_fail
.L468:
	mov	w0, w1
	ldp	x29, x30, [sp], 64
	.cfi_restore 30
	.cfi_restore 29
	.cfi_def_cfa_offset 0
	ret
	.cfi_endproc
.LFE1585:
	.size	_ZN5ImGui11SmallButtonEPKc, .-_ZN5ImGui11SmallButtonEPKc
	.section	.rodata
	.align	3
.LC12:
	.string	"bool ImGui::InvisibleButton(const char*, const ImVec2&, ImGuiButtonFlags)"
	.align	3
.LC13:
	.string	"/media/psf/Home/Desktop/git/C-/mac/myproject/external/imgui/src/imgui_widgets.cpp"
	.align	3
.LC14:
	.string	"size_arg.x != 0.0f && size_arg.y != 0.0f"
	.text
	.align	2
	.global	_ZN5ImGui15InvisibleButtonEPKcRK6ImVec2i
	.type	_ZN5ImGui15InvisibleButtonEPKcRK6ImVec2i, %function
_ZN5ImGui15InvisibleButtonEPKcRK6ImVec2i:
.LFB1586:
	.cfi_startproc
	stp	x29, x30, [sp, -128]!
	.cfi_def_cfa_offset 128
	.cfi_offset 29, -128
	.cfi_offset 30, -120
	mov	x29, sp
	str	x19, [sp, 16]
	.cfi_offset 19, -112
	str	x0, [sp, 56]
	str	x1, [sp, 48]
	str	w2, [sp, 44]
	adrp	x0, :got:__stack_chk_guard
	ldr	x0, [x0, #:got_lo12:__stack_chk_guard]
	ldr	x1, [x0]
	str	x1, [sp, 120]
	mov	x1, 0
	adrp	x0, :got:GImGui
	ldr	x0, [x0, #:got_lo12:GImGui]
	ldr	x0, [x0]
	str	x0, [sp, 88]
	bl	_ZN5ImGui16GetCurrentWindowEv
	str	x0, [sp, 96]
	ldr	x0, [sp, 96]
	ldrb	w0, [x0, 155]
	cmp	w0, 0
	beq	.L470
	mov	w0, 0
	b	.L475
.L470:
	ldr	x0, [sp, 48]
	ldr	s0, [x0]
	fcmp	s0, #0.0
	beq	.L472
	ldr	x0, [sp, 48]
	ldr	s0, [x0, 4]
	fcmp	s0, #0.0
	bne	.L477
.L472:
	adrp	x0, .LC12
	add	x3, x0, :lo12:.LC12
	mov	w2, 753
	adrp	x0, .LC13
	add	x1, x0, :lo12:.LC13
	adrp	x0, .LC14
	add	x0, x0, :lo12:.LC14
	bl	__assert_fail
.L477:
	mov	x2, 0
	ldr	x1, [sp, 56]
	ldr	x0, [sp, 96]
	bl	_ZN11ImGuiWindow5GetIDEPKcS1_
	str	w0, [sp, 68]
	ldr	x0, [sp, 48]
	ldr	s0, [x0]
	ldr	s1, [x0, 4]
	movi	v3.2s, #0
	movi	v2.2s, #0
	bl	_ZN5ImGui12CalcItemSizeE6ImVec2ff
	fmov	s2, s0
	fmov	s0, s1
	str	s2, [sp, 72]
	str	s0, [sp, 76]
	ldr	x0, [sp, 96]
	add	x19, x0, 224
	ldr	x0, [sp, 96]
	add	x0, x0, 224
	add	x1, sp, 72
	bl	_ZplRK6ImVec2S1_
	fmov	s2, s0
	fmov	s0, s1
	str	s2, [sp, 80]
	str	s0, [sp, 84]
	add	x1, sp, 80
	add	x0, sp, 104
	mov	x2, x1
	mov	x1, x19
	bl	_ZN6ImRectC1ERK6ImVec2S2_
	add	x0, sp, 72
	fmov	s0, -1.0e+0
	bl	_ZN5ImGui8ItemSizeERK6ImVec2f
	add	x0, sp, 104
	mov	w3, 0
	mov	x2, 0
	ldr	w1, [sp, 68]
	bl	_ZN5ImGui7ItemAddERK6ImRectjPS1_i
	and	w0, w0, 255
	eor	w0, w0, 1
	and	w0, w0, 255
	cmp	w0, 0
	beq	.L474
	mov	w0, 0
	b	.L475
.L474:
	add	x2, sp, 80
	add	x1, sp, 66
	add	x0, sp, 104
	ldr	w4, [sp, 44]
	mov	x3, x2
	mov	x2, x1
	ldr	w1, [sp, 68]
	bl	_ZN5ImGui14ButtonBehaviorERK6ImRectjPbS3_i
	and	w0, w0, 255
	strb	w0, [sp, 67]
	ldrb	w0, [sp, 67]
.L475:
	mov	w1, w0
	adrp	x0, :got:__stack_chk_guard
	ldr	x0, [x0, #:got_lo12:__stack_chk_guard]
	ldr	x3, [sp, 120]
	ldr	x2, [x0]
	subs	x3, x3, x2
	mov	x2, 0
	beq	.L476
	bl	__stack_chk_fail
.L476:
	mov	w0, w1
	ldr	x19, [sp, 16]
	ldp	x29, x30, [sp], 128
	.cfi_restore 30
	.cfi_restore 29
	.cfi_restore 19
	.cfi_def_cfa_offset 0
	ret
	.cfi_endproc
.LFE1586:
	.size	_ZN5ImGui15InvisibleButtonEPKcRK6ImVec2i, .-_ZN5ImGui15InvisibleButtonEPKcRK6ImVec2i
	.align	2
	.global	_ZN5ImGui13ArrowButtonExEPKci6ImVec2i
	.type	_ZN5ImGui13ArrowButtonExEPKci6ImVec2i, %function
_ZN5ImGui13ArrowButtonExEPKci6ImVec2i:
.LFB1587:
	.cfi_startproc
	stp	x29, x30, [sp, -144]!
	.cfi_def_cfa_offset 144
	.cfi_offset 29, -144
	.cfi_offset 30, -136
	mov	x29, sp
	str	x19, [sp, 16]
	str	d8, [sp, 24]
	.cfi_offset 19, -128
	.cfi_offset 72, -120
	str	x0, [sp, 56]
	str	w1, [sp, 52]
	fmov	s2, s0
	fmov	s0, s1
	fmov	x0, d2
	fmov	w1, s0
	bfi	x0, x1, 32, 32
	str	x0, [sp, 40]
	str	w2, [sp, 48]
	adrp	x0, :got:__stack_chk_guard
	ldr	x0, [x0, #:got_lo12:__stack_chk_guard]
	ldr	x1, [x0]
	str	x1, [sp, 136]
	mov	x1, 0
	adrp	x0, :got:GImGui
	ldr	x0, [x0, #:got_lo12:GImGui]
	ldr	x0, [x0]
	str	x0, [sp, 104]
	bl	_ZN5ImGui16GetCurrentWindowEv
	str	x0, [sp, 112]
	ldr	x0, [sp, 112]
	ldrb	w0, [x0, 155]
	cmp	w0, 0
	beq	.L479
	mov	w0, 0
	b	.L491
.L479:
	mov	x2, 0
	ldr	x1, [sp, 56]
	ldr	x0, [sp, 112]
	bl	_ZN11ImGuiWindow5GetIDEPKcS1_
	str	w0, [sp, 80]
	ldr	x0, [sp, 112]
	add	x19, x0, 224
	ldr	x0, [sp, 112]
	add	x0, x0, 224
	add	x1, sp, 40
	bl	_ZplRK6ImVec2S1_
	fmov	s2, s0
	fmov	s0, s1
	str	s2, [sp, 96]
	str	s0, [sp, 100]
	add	x1, sp, 96
	add	x0, sp, 120
	mov	x2, x1
	mov	x1, x19
	bl	_ZN6ImRectC1ERK6ImVec2S2_
	bl	_ZN5ImGui14GetFrameHeightEv
	str	s0, [sp, 84]
	ldr	s0, [sp, 44]
	ldr	s1, [sp, 84]
	fcmpe	s1, s0
	bls	.L493
	b	.L494
.L493:
	ldr	x0, [sp, 104]
	ldr	s0, [x0, 14368]
	b	.L483
.L494:
	fmov	s0, -1.0e+0
.L483:
	add	x0, sp, 40
	bl	_ZN5ImGui8ItemSizeERK6ImVec2f
	add	x0, sp, 120
	mov	w3, 0
	mov	x2, 0
	ldr	w1, [sp, 80]
	bl	_ZN5ImGui7ItemAddERK6ImRectjPS1_i
	and	w0, w0, 255
	eor	w0, w0, 1
	and	w0, w0, 255
	cmp	w0, 0
	beq	.L484
	mov	w0, 0
	b	.L491
.L484:
	ldr	x0, [sp, 104]
	add	x0, x0, 16384
	ldr	w0, [x0, 1832]
	and	w0, w0, 2
	cmp	w0, 0
	beq	.L485
	ldr	w0, [sp, 48]
	orr	w0, w0, 1024
	str	w0, [sp, 48]
.L485:
	add	x2, sp, 78
	add	x1, sp, 77
	add	x0, sp, 120
	ldr	w4, [sp, 48]
	mov	x3, x2
	mov	x2, x1
	ldr	w1, [sp, 80]
	bl	_ZN5ImGui14ButtonBehaviorERK6ImRectjPbS3_i
	and	w0, w0, 255
	strb	w0, [sp, 79]
	ldrb	w0, [sp, 78]
	eor	w0, w0, 1
	and	w0, w0, 255
	cmp	w0, 0
	bne	.L486
	ldrb	w0, [sp, 77]
	eor	w0, w0, 1
	and	w0, w0, 255
	cmp	w0, 0
	beq	.L487
.L486:
	ldrb	w0, [sp, 77]
	cmp	w0, 0
	beq	.L488
	mov	w0, 22
	b	.L490
.L488:
	mov	w0, 21
	b	.L490
.L487:
	mov	w0, 23
.L490:
	fmov	s0, 1.0e+0
	bl	_ZN5ImGui11GetColorU32Eif
	str	w0, [sp, 88]
	fmov	s0, 1.0e+0
	mov	w0, 0
	bl	_ZN5ImGui11GetColorU32Eif
	str	w0, [sp, 92]
	add	x0, sp, 120
	mov	w2, 1
	ldr	w1, [sp, 80]
	bl	_ZN5ImGui18RenderNavHighlightERK6ImRectji
	ldr	x0, [sp, 104]
	ldr	s4, [x0, 14372]
	ldr	s2, [sp, 128]
	ldr	s3, [sp, 132]
	ldr	s0, [sp, 120]
	ldr	s1, [sp, 124]
	mov	w1, 1
	ldr	w0, [sp, 88]
	bl	_ZN5ImGui11RenderFrameE6ImVec2S0_jbf
	ldr	x0, [sp, 112]
	ldr	x19, [x0, 632]
	ldr	s1, [sp, 40]
	ldr	x0, [sp, 104]
	ldr	s0, [x0, 15360]
	fsub	s1, s1, s0
	fmov	s0, 5.0e-1
	fmul	s0, s1, s0
	fmov	s1, s0
	movi	v0.2s, #0
	bl	_Z5ImMaxIfET_S0_S0_
	fmov	s8, s0
	ldr	s1, [sp, 44]
	ldr	x0, [sp, 104]
	ldr	s0, [x0, 15360]
	fsub	s1, s1, s0
	fmov	s0, 5.0e-1
	fmul	s0, s1, s0
	fmov	s1, s0
	movi	v0.2s, #0
	bl	_Z5ImMaxIfET_S0_S0_
	add	x0, sp, 96
	fmov	s1, s0
	fmov	s0, s8
	bl	_ZN6ImVec2C1Eff
	add	x1, sp, 96
	add	x0, sp, 120
	bl	_ZplRK6ImVec2S1_
	fmov	s2, s0
	fmov	s0, s1
	fmov	x0, d2
	fmov	w1, s0
	bfi	x0, x1, 32, 32
	mov	x1, x0
	lsr	w3, w1, 0
	lsr	x0, x0, 32
	fmov	s1, w0
	fmov	s2, 1.0e+0
	ldr	w2, [sp, 52]
	ldr	w1, [sp, 92]
	fmov	s0, w3
	mov	x0, x19
	bl	_ZN5ImGui11RenderArrowEP10ImDrawList6ImVec2jif
	ldrb	w0, [sp, 79]
.L491:
	mov	w1, w0
	adrp	x0, :got:__stack_chk_guard
	ldr	x0, [x0, #:got_lo12:__stack_chk_guard]
	ldr	x3, [sp, 136]
	ldr	x2, [x0]
	subs	x3, x3, x2
	mov	x2, 0
	beq	.L492
	bl	__stack_chk_fail
.L492:
	mov	w0, w1
	ldr	d8, [sp, 24]
	ldr	x19, [sp, 16]
	ldp	x29, x30, [sp], 144
	.cfi_restore 30
	.cfi_restore 29
	.cfi_restore 19
	.cfi_restore 72
	.cfi_def_cfa_offset 0
	ret
	.cfi_endproc
.LFE1587:
	.size	_ZN5ImGui13ArrowButtonExEPKci6ImVec2i, .-_ZN5ImGui13ArrowButtonExEPKci6ImVec2i
	.align	2
	.global	_ZN5ImGui11ArrowButtonEPKci
	.type	_ZN5ImGui11ArrowButtonEPKci, %function
_ZN5ImGui11ArrowButtonEPKci:
.LFB1588:
	.cfi_startproc
	stp	x29, x30, [sp, -64]!
	.cfi_def_cfa_offset 64
	.cfi_offset 29, -64
	.cfi_offset 30, -56
	mov	x29, sp
	str	x0, [sp, 24]
	str	w1, [sp, 20]
	adrp	x0, :got:__stack_chk_guard
	ldr	x0, [x0, #:got_lo12:__stack_chk_guard]
	ldr	x1, [x0]
	str	x1, [sp, 56]
	mov	x1, 0
	bl	_ZN5ImGui14GetFrameHeightEv
	str	s0, [sp, 44]
	add	x0, sp, 48
	ldr	s1, [sp, 44]
	ldr	s0, [sp, 44]
	bl	_ZN6ImVec2C1Eff
	ldr	s0, [sp, 48]
	ldr	s1, [sp, 52]
	mov	w2, 0
	ldr	w1, [sp, 20]
	ldr	x0, [sp, 24]
	bl	_ZN5ImGui13ArrowButtonExEPKci6ImVec2i
	and	w0, w0, 255
	mov	w1, w0
	adrp	x0, :got:__stack_chk_guard
	ldr	x0, [x0, #:got_lo12:__stack_chk_guard]
	ldr	x3, [sp, 56]
	ldr	x2, [x0]
	subs	x3, x3, x2
	mov	x2, 0
	beq	.L497
	bl	__stack_chk_fail
.L497:
	mov	w0, w1
	ldp	x29, x30, [sp], 64
	.cfi_restore 30
	.cfi_restore 29
	.cfi_def_cfa_offset 0
	ret
	.cfi_endproc
.LFE1588:
	.size	_ZN5ImGui11ArrowButtonEPKci, .-_ZN5ImGui11ArrowButtonEPKci
	.align	2
	.global	_ZN5ImGui11CloseButtonEjRK6ImVec2
	.type	_ZN5ImGui11CloseButtonEjRK6ImVec2, %function
_ZN5ImGui11CloseButtonEjRK6ImVec2:
.LFB1589:
	.cfi_startproc
	stp	x29, x30, [sp, -176]!
	.cfi_def_cfa_offset 176
	.cfi_offset 29, -176
	.cfi_offset 30, -168
	mov	x29, sp
	str	x19, [sp, 16]
	str	d8, [sp, 24]
	.cfi_offset 19, -160
	.cfi_offset 72, -152
	str	w0, [sp, 44]
	str	x1, [sp, 32]
	adrp	x0, :got:__stack_chk_guard
	ldr	x0, [x0, #:got_lo12:__stack_chk_guard]
	ldr	x1, [x0]
	str	x1, [sp, 168]
	mov	x1, 0
	adrp	x0, :got:GImGui
	ldr	x0, [x0, #:got_lo12:GImGui]
	ldr	x0, [x0]
	str	x0, [sp, 120]
	ldr	x0, [sp, 120]
	ldr	x0, [x0, 16032]
	str	x0, [sp, 128]
	ldr	x0, [sp, 120]
	ldr	s0, [x0, 15360]
	ldr	x0, [sp, 120]
	ldr	s1, [x0, 15360]
	add	x0, sp, 96
	bl	_ZN6ImVec2C1Eff
	add	x0, sp, 96
	mov	x1, x0
	ldr	x0, [sp, 32]
	bl	_ZplRK6ImVec2S1_
	fmov	s2, s0
	fmov	s0, s1
	str	s2, [sp, 104]
	str	s0, [sp, 108]
	ldr	x1, [sp, 120]
	mov	x0, 14364
	add	x0, x1, x0
	fmov	s0, 2.0e+0
	bl	_ZmlRK6ImVec2f
	fmov	s2, s0
	fmov	s0, s1
	str	s2, [sp, 112]
	str	s0, [sp, 116]
	add	x1, sp, 112
	add	x0, sp, 104
	bl	_ZplRK6ImVec2S1_
	fmov	s2, s0
	fmov	s0, s1
	str	s2, [sp, 152]
	str	s0, [sp, 156]
	add	x1, sp, 152
	add	x0, sp, 136
	mov	x2, x1
	ldr	x1, [sp, 32]
	bl	_ZN6ImRectC1ERK6ImVec2S2_
	ldp	x0, x1, [sp, 136]
	stp	x0, x1, [sp, 152]
	ldr	x0, [sp, 128]
	add	x0, x0, 456
	bl	_ZNK6ImRect7GetAreaEv
	fmov	s8, s0
	add	x0, sp, 136
	bl	_ZNK6ImRect7GetAreaEv
	fdiv	s0, s8, s0
	str	s0, [sp, 64]
	ldr	s1, [sp, 64]
	fmov	s0, 1.5e+0
	fcmpe	s1, s0
	bmi	.L508
	b	.L499
.L508:
	add	x0, sp, 152
	bl	_ZNK6ImRect7GetSizeEv
	fmov	s2, s0
	fmov	s0, s1
	str	s2, [sp, 96]
	str	s0, [sp, 100]
	add	x0, sp, 96
	fmov	s0, -2.5e-1
	bl	_ZmlRK6ImVec2f
	fmov	s2, s0
	fmov	s0, s1
	str	s2, [sp, 104]
	str	s0, [sp, 108]
	add	x0, sp, 104
	bl	_ZL7ImFloorRK6ImVec2
	fmov	s2, s0
	fmov	s0, s1
	str	s2, [sp, 112]
	str	s0, [sp, 116]
	add	x1, sp, 112
	add	x0, sp, 152
	bl	_ZN6ImRect6ExpandERK6ImVec2
.L499:
	add	x0, sp, 152
	mov	w3, 0
	mov	x2, 0
	ldr	w1, [sp, 44]
	bl	_ZN5ImGui7ItemAddERK6ImRectjPS1_i
	and	w0, w0, 255
	eor	w0, w0, 1
	strb	w0, [sp, 62]
	add	x2, sp, 61
	add	x1, sp, 60
	add	x0, sp, 152
	mov	w4, 0
	mov	x3, x2
	mov	x2, x1
	ldr	w1, [sp, 44]
	bl	_ZN5ImGui14ButtonBehaviorERK6ImRectjPbS3_i
	and	w0, w0, 255
	strb	w0, [sp, 63]
	ldrb	w0, [sp, 62]
	cmp	w0, 0
	beq	.L501
	ldrb	w0, [sp, 63]
	b	.L506
.L501:
	ldrb	w0, [sp, 61]
	cmp	w0, 0
	beq	.L503
	mov	w0, 23
	b	.L504
.L503:
	mov	w0, 22
.L504:
	fmov	s0, 1.0e+0
	bl	_ZN5ImGui11GetColorU32Eif
	str	w0, [sp, 68]
	add	x0, sp, 136
	bl	_ZNK6ImRect9GetCenterEv
	fmov	s2, s0
	fmov	s0, s1
	str	s2, [sp, 80]
	str	s0, [sp, 84]
	ldrb	w0, [sp, 60]
	cmp	w0, 0
	beq	.L505
	ldr	x0, [sp, 128]
	ldr	x19, [x0, 632]
	ldr	x0, [sp, 120]
	ldr	s1, [x0, 15360]
	fmov	s0, 5.0e-1
	fmul	s1, s1, s0
	fmov	s0, 1.0e+0
	fadd	s0, s1, s0
	fmov	s1, s0
	fmov	s0, 2.0e+0
	bl	_Z5ImMaxIfET_S0_S0_
	add	x0, sp, 80
	mov	w3, 12
	ldr	w2, [sp, 68]
	mov	x1, x0
	mov	x0, x19
	bl	_ZN10ImDrawList15AddCircleFilledERK6ImVec2fji
.L505:
	ldr	x0, [sp, 120]
	ldr	s1, [x0, 15360]
	fmov	s0, 5.0e-1
	fmul	s0, s1, s0
	mov	w0, 1153
	movk	w0, 0x3f35, lsl 16
	fmov	s1, w0
	fmul	s1, s0, s1
	fmov	s0, 1.0e+0
	fsub	s0, s1, s0
	str	s0, [sp, 72]
	fmov	s0, 1.0e+0
	mov	w0, 0
	bl	_ZN5ImGui11GetColorU32Eif
	str	w0, [sp, 76]
	add	x0, sp, 112
	fmov	s1, 5.0e-1
	fmov	s0, 5.0e-1
	bl	_ZN6ImVec2C1Eff
	add	x1, sp, 112
	add	x0, sp, 80
	bl	_ZmIR6ImVec2RKS_
	ldr	x0, [sp, 128]
	ldr	x19, [x0, 632]
	add	x0, sp, 88
	ldr	s1, [sp, 72]
	ldr	s0, [sp, 72]
	bl	_ZN6ImVec2C1Eff
	add	x1, sp, 88
	add	x0, sp, 80
	bl	_ZplRK6ImVec2S1_
	fmov	s2, s0
	fmov	s0, s1
	str	s2, [sp, 96]
	str	s0, [sp, 100]
	ldr	s0, [sp, 72]
	fneg	s2, s0
	ldr	s0, [sp, 72]
	fneg	s0, s0
	add	x0, sp, 104
	fmov	s1, s0
	fmov	s0, s2
	bl	_ZN6ImVec2C1Eff
	add	x1, sp, 104
	add	x0, sp, 80
	bl	_ZplRK6ImVec2S1_
	fmov	s2, s0
	fmov	s0, s1
	str	s2, [sp, 112]
	str	s0, [sp, 116]
	add	x1, sp, 112
	add	x0, sp, 96
	fmov	s0, 1.0e+0
	ldr	w3, [sp, 76]
	mov	x2, x1
	mov	x1, x0
	mov	x0, x19
	bl	_ZN10ImDrawList7AddLineERK6ImVec2S2_jf
	ldr	x0, [sp, 128]
	ldr	x19, [x0, 632]
	ldr	s0, [sp, 72]
	fneg	s0, s0
	add	x0, sp, 88
	fmov	s1, s0
	ldr	s0, [sp, 72]
	bl	_ZN6ImVec2C1Eff
	add	x1, sp, 88
	add	x0, sp, 80
	bl	_ZplRK6ImVec2S1_
	fmov	s2, s0
	fmov	s0, s1
	str	s2, [sp, 96]
	str	s0, [sp, 100]
	ldr	s0, [sp, 72]
	fneg	s0, s0
	add	x0, sp, 104
	ldr	s1, [sp, 72]
	bl	_ZN6ImVec2C1Eff
	add	x1, sp, 104
	add	x0, sp, 80
	bl	_ZplRK6ImVec2S1_
	fmov	s2, s0
	fmov	s0, s1
	str	s2, [sp, 112]
	str	s0, [sp, 116]
	add	x1, sp, 112
	add	x0, sp, 96
	fmov	s0, 1.0e+0
	ldr	w3, [sp, 76]
	mov	x2, x1
	mov	x1, x0
	mov	x0, x19
	bl	_ZN10ImDrawList7AddLineERK6ImVec2S2_jf
	ldrb	w0, [sp, 63]
.L506:
	mov	w1, w0
	adrp	x0, :got:__stack_chk_guard
	ldr	x0, [x0, #:got_lo12:__stack_chk_guard]
	ldr	x3, [sp, 168]
	ldr	x2, [x0]
	subs	x3, x3, x2
	mov	x2, 0
	beq	.L507
	bl	__stack_chk_fail
.L507:
	mov	w0, w1
	ldr	d8, [sp, 24]
	ldr	x19, [sp, 16]
	ldp	x29, x30, [sp], 176
	.cfi_restore 30
	.cfi_restore 29
	.cfi_restore 19
	.cfi_restore 72
	.cfi_def_cfa_offset 0
	ret
	.cfi_endproc
.LFE1589:
	.size	_ZN5ImGui11CloseButtonEjRK6ImVec2, .-_ZN5ImGui11CloseButtonEjRK6ImVec2
	.align	2
	.global	_ZN5ImGui14CollapseButtonEjRK6ImVec2
	.type	_ZN5ImGui14CollapseButtonEjRK6ImVec2, %function
_ZN5ImGui14CollapseButtonEjRK6ImVec2:
.LFB1590:
	.cfi_startproc
	stp	x29, x30, [sp, -144]!
	.cfi_def_cfa_offset 144
	.cfi_offset 29, -144
	.cfi_offset 30, -136
	mov	x29, sp
	str	x19, [sp, 16]
	.cfi_offset 19, -128
	str	w0, [sp, 44]
	str	x1, [sp, 32]
	adrp	x0, :got:__stack_chk_guard
	ldr	x0, [x0, #:got_lo12:__stack_chk_guard]
	ldr	x1, [x0]
	str	x1, [sp, 136]
	mov	x1, 0
	adrp	x0, :got:GImGui
	ldr	x0, [x0, #:got_lo12:GImGui]
	ldr	x0, [x0]
	str	x0, [sp, 104]
	ldr	x0, [sp, 104]
	ldr	x0, [x0, 16032]
	str	x0, [sp, 112]
	ldr	x0, [sp, 104]
	ldr	s0, [x0, 15360]
	ldr	x0, [sp, 104]
	ldr	s1, [x0, 15360]
	add	x0, sp, 72
	bl	_ZN6ImVec2C1Eff
	add	x0, sp, 72
	mov	x1, x0
	ldr	x0, [sp, 32]
	bl	_ZplRK6ImVec2S1_
	fmov	s2, s0
	fmov	s0, s1
	str	s2, [sp, 80]
	str	s0, [sp, 84]
	ldr	x1, [sp, 104]
	mov	x0, 14364
	add	x0, x1, x0
	fmov	s0, 2.0e+0
	bl	_ZmlRK6ImVec2f
	fmov	s2, s0
	fmov	s0, s1
	str	s2, [sp, 88]
	str	s0, [sp, 92]
	add	x1, sp, 88
	add	x0, sp, 80
	bl	_ZplRK6ImVec2S1_
	fmov	s2, s0
	fmov	s0, s1
	str	s2, [sp, 96]
	str	s0, [sp, 100]
	add	x1, sp, 96
	add	x0, sp, 120
	mov	x2, x1
	ldr	x1, [sp, 32]
	bl	_ZN6ImRectC1ERK6ImVec2S2_
	add	x0, sp, 120
	mov	w3, 0
	mov	x2, 0
	ldr	w1, [sp, 44]
	bl	_ZN5ImGui7ItemAddERK6ImRectjPS1_i
	add	x2, sp, 88
	add	x1, sp, 80
	add	x0, sp, 120
	mov	w4, 0
	mov	x3, x2
	mov	x2, x1
	ldr	w1, [sp, 44]
	bl	_ZN5ImGui14ButtonBehaviorERK6ImRectjPbS3_i
	and	w0, w0, 255
	strb	w0, [sp, 63]
	ldrb	w0, [sp, 88]
	eor	w0, w0, 1
	and	w0, w0, 255
	cmp	w0, 0
	bne	.L510
	ldrb	w0, [sp, 80]
	eor	w0, w0, 1
	and	w0, w0, 255
	cmp	w0, 0
	beq	.L511
.L510:
	ldrb	w0, [sp, 80]
	cmp	w0, 0
	beq	.L512
	mov	w0, 22
	b	.L514
.L512:
	mov	w0, 21
	b	.L514
.L511:
	mov	w0, 23
.L514:
	fmov	s0, 1.0e+0
	bl	_ZN5ImGui11GetColorU32Eif
	str	w0, [sp, 64]
	fmov	s0, 1.0e+0
	mov	w0, 0
	bl	_ZN5ImGui11GetColorU32Eif
	str	w0, [sp, 68]
	ldrb	w0, [sp, 80]
	cmp	w0, 0
	bne	.L515
	ldrb	w0, [sp, 88]
	cmp	w0, 0
	beq	.L516
.L515:
	ldr	x0, [sp, 112]
	ldr	x19, [x0, 632]
	add	x0, sp, 120
	bl	_ZNK6ImRect9GetCenterEv
	fmov	s2, s0
	fmov	s0, s1
	str	s2, [sp, 96]
	str	s0, [sp, 100]
	ldr	x0, [sp, 104]
	ldr	s1, [x0, 15360]
	fmov	s0, 5.0e-1
	fmul	s1, s1, s0
	fmov	s0, 1.0e+0
	fadd	s0, s1, s0
	add	x0, sp, 96
	mov	w3, 12
	ldr	w2, [sp, 64]
	mov	x1, x0
	mov	x0, x19
	bl	_ZN10ImDrawList15AddCircleFilledERK6ImVec2fji
.L516:
	ldr	x0, [sp, 112]
	ldr	x19, [x0, 632]
	ldr	x1, [sp, 104]
	mov	x0, 14364
	add	x1, x1, x0
	add	x0, sp, 120
	bl	_ZplRK6ImVec2S1_
	fmov	s2, s0
	fmov	s0, s1
	fmov	x0, d2
	fmov	w1, s0
	bfi	x0, x1, 32, 32
	ldr	x1, [sp, 112]
	ldrb	w1, [x1, 153]
	cmp	w1, 0
	beq	.L517
	mov	w1, 1
	b	.L518
.L517:
	mov	w1, 3
.L518:
	mov	x2, x0
	lsr	w3, w2, 0
	lsr	x0, x0, 32
	fmov	s1, w0
	fmov	s2, 1.0e+0
	mov	w2, w1
	ldr	w1, [sp, 68]
	fmov	s0, w3
	mov	x0, x19
	bl	_ZN5ImGui11RenderArrowEP10ImDrawList6ImVec2jif
	bl	_ZN5ImGui12IsItemActiveEv
	and	w0, w0, 255
	cmp	w0, 0
	beq	.L519
	fmov	s0, -1.0e+0
	mov	w0, 0
	bl	_ZN5ImGui15IsMouseDraggingEif
	and	w0, w0, 255
	cmp	w0, 0
	beq	.L519
	mov	w0, 1
	b	.L520
.L519:
	mov	w0, 0
.L520:
	cmp	w0, 0
	beq	.L521
	ldr	x0, [sp, 112]
	bl	_ZN5ImGui22StartMouseMovingWindowEP11ImGuiWindow
.L521:
	ldrb	w0, [sp, 63]
	mov	w1, w0
	adrp	x0, :got:__stack_chk_guard
	ldr	x0, [x0, #:got_lo12:__stack_chk_guard]
	ldr	x3, [sp, 136]
	ldr	x2, [x0]
	subs	x3, x3, x2
	mov	x2, 0
	beq	.L523
	bl	__stack_chk_fail
.L523:
	mov	w0, w1
	ldr	x19, [sp, 16]
	ldp	x29, x30, [sp], 144
	.cfi_restore 30
	.cfi_restore 29
	.cfi_restore 19
	.cfi_def_cfa_offset 0
	ret
	.cfi_endproc
.LFE1590:
	.size	_ZN5ImGui14CollapseButtonEjRK6ImVec2, .-_ZN5ImGui14CollapseButtonEjRK6ImVec2
	.section	.rodata
	.align	3
.LC15:
	.string	"#SCROLLX"
	.align	3
.LC16:
	.string	"#SCROLLY"
	.text
	.align	2
	.global	_ZN5ImGui20GetWindowScrollbarIDEP11ImGuiWindow9ImGuiAxis
	.type	_ZN5ImGui20GetWindowScrollbarIDEP11ImGuiWindow9ImGuiAxis, %function
_ZN5ImGui20GetWindowScrollbarIDEP11ImGuiWindow9ImGuiAxis:
.LFB1591:
	.cfi_startproc
	stp	x29, x30, [sp, -32]!
	.cfi_def_cfa_offset 32
	.cfi_offset 29, -32
	.cfi_offset 30, -24
	mov	x29, sp
	str	x0, [sp, 24]
	str	w1, [sp, 20]
	ldr	w0, [sp, 20]
	cmp	w0, 0
	bne	.L525
	adrp	x0, .LC15
	add	x0, x0, :lo12:.LC15
	b	.L526
.L525:
	adrp	x0, .LC16
	add	x0, x0, :lo12:.LC16
.L526:
	mov	x2, 0
	mov	x1, x0
	ldr	x0, [sp, 24]
	bl	_ZN11ImGuiWindow5GetIDEPKcS1_
	ldp	x29, x30, [sp], 32
	.cfi_restore 30
	.cfi_restore 29
	.cfi_def_cfa_offset 0
	ret
	.cfi_endproc
.LFE1591:
	.size	_ZN5ImGui20GetWindowScrollbarIDEP11ImGuiWindow9ImGuiAxis, .-_ZN5ImGui20GetWindowScrollbarIDEP11ImGuiWindow9ImGuiAxis
	.section	.rodata
	.align	3
.LC17:
	.string	"ImRect ImGui::GetWindowScrollbarRect(ImGuiWindow*, ImGuiAxis)"
	.align	3
.LC18:
	.string	"scrollbar_size > 0.0f"
	.text
	.align	2
	.global	_ZN5ImGui22GetWindowScrollbarRectEP11ImGuiWindow9ImGuiAxis
	.type	_ZN5ImGui22GetWindowScrollbarRectEP11ImGuiWindow9ImGuiAxis, %function
_ZN5ImGui22GetWindowScrollbarRectEP11ImGuiWindow9ImGuiAxis:
.LFB1592:
	.cfi_startproc
	stp	x29, x30, [sp, -112]!
	.cfi_def_cfa_offset 112
	.cfi_offset 29, -112
	.cfi_offset 30, -104
	mov	x29, sp
	str	d8, [sp, 16]
	.cfi_offset 72, -96
	str	x0, [sp, 40]
	str	w1, [sp, 36]
	adrp	x0, :got:__stack_chk_guard
	ldr	x0, [x0, #:got_lo12:__stack_chk_guard]
	ldr	x1, [x0]
	str	x1, [sp, 104]
	mov	x1, 0
	ldr	x0, [sp, 40]
	bl	_ZNK11ImGuiWindow4RectEv
	fmov	s5, s0
	fmov	s4, s1
	fmov	s1, s2
	fmov	s0, s3
	str	s5, [sp, 56]
	str	s4, [sp, 60]
	str	s1, [sp, 64]
	str	s0, [sp, 68]
	ldr	x0, [sp, 40]
	add	x0, x0, 512
	ldp	x0, x1, [x0, -40]
	stp	x0, x1, [sp, 72]
	ldr	x0, [sp, 40]
	ldr	s0, [x0, 84]
	str	s0, [sp, 48]
	ldr	x0, [sp, 40]
	add	x2, x0, 140
	ldr	w0, [sp, 36]
	eor	w0, w0, 1
	sxtw	x0, w0
	mov	x1, x0
	mov	x0, x2
	bl	_ZN6ImVec2ixEm
	ldr	s0, [x0]
	str	s0, [sp, 52]
	ldr	s0, [sp, 52]
	fcmpe	s0, #0.0
	bgt	.L529
	adrp	x0, .LC17
	add	x3, x0, :lo12:.LC17
	mov	w2, 881
	adrp	x0, .LC13
	add	x1, x0, :lo12:.LC13
	adrp	x0, .LC18
	add	x0, x0, :lo12:.LC18
	bl	__assert_fail
.L529:
	ldr	w0, [sp, 36]
	cmp	w0, 0
	bne	.L530
	ldr	s8, [sp, 72]
	ldr	s2, [sp, 60]
	ldr	s1, [sp, 68]
	ldr	s0, [sp, 48]
	fsub	s1, s1, s0
	ldr	s0, [sp, 52]
	fsub	s0, s1, s0
	fmov	s1, s0
	fmov	s0, s2
	bl	_Z5ImMaxIfET_S0_S0_
	fmov	s4, s0
	ldr	s0, [sp, 80]
	ldr	s1, [sp, 68]
	add	x0, sp, 88
	fmov	s3, s1
	fmov	s2, s0
	fmov	s1, s4
	fmov	s0, s8
	bl	_ZN6ImRectC1Effff
	ldp	x0, x1, [sp, 88]
	b	.L532
.L530:
	ldr	s2, [sp, 56]
	ldr	s1, [sp, 64]
	ldr	s0, [sp, 48]
	fsub	s1, s1, s0
	ldr	s0, [sp, 52]
	fsub	s0, s1, s0
	fmov	s1, s0
	fmov	s0, s2
	bl	_Z5ImMaxIfET_S0_S0_
	fmov	s4, s0
	ldr	s0, [sp, 76]
	ldr	s1, [sp, 64]
	ldr	s2, [sp, 84]
	add	x0, sp, 88
	fmov	s3, s2
	fmov	s2, s1
	fmov	s1, s0
	fmov	s0, s4
	bl	_ZN6ImRectC1Effff
	ldp	x0, x1, [sp, 88]
.L532:
	mov	x2, x0
	mov	x3, x1
	lsr	w4, w2, 0
	mov	x2, x0
	mov	x3, x1
	lsr	x2, x2, 32
	mov	w5, w2
	mov	x2, x0
	mov	x3, x1
	lsr	w2, w3, 0
	lsr	x0, x1, 32
	fmov	s0, w4
	fmov	s1, w5
	fmov	s2, w2
	fmov	s3, w0
	adrp	x0, :got:__stack_chk_guard
	ldr	x0, [x0, #:got_lo12:__stack_chk_guard]
	ldr	x2, [sp, 104]
	ldr	x1, [x0]
	subs	x2, x2, x1
	mov	x1, 0
	beq	.L533
	bl	__stack_chk_fail
.L533:
	ldr	d8, [sp, 16]
	ldp	x29, x30, [sp], 112
	.cfi_restore 30
	.cfi_restore 29
	.cfi_restore 72
	.cfi_def_cfa_offset 0
	ret
	.cfi_endproc
.LFE1592:
	.size	_ZN5ImGui22GetWindowScrollbarRectEP11ImGuiWindow9ImGuiAxis, .-_ZN5ImGui22GetWindowScrollbarRectEP11ImGuiWindow9ImGuiAxis
	.align	2
	.global	_ZN5ImGui9ScrollbarE9ImGuiAxis
	.type	_ZN5ImGui9ScrollbarE9ImGuiAxis, %function
_ZN5ImGui9ScrollbarE9ImGuiAxis:
.LFB1593:
	.cfi_startproc
	stp	x29, x30, [sp, -112]!
	.cfi_def_cfa_offset 112
	.cfi_offset 29, -112
	.cfi_offset 30, -104
	mov	x29, sp
	str	d8, [sp, 16]
	.cfi_offset 72, -96
	str	w0, [sp, 44]
	adrp	x0, :got:__stack_chk_guard
	ldr	x0, [x0, #:got_lo12:__stack_chk_guard]
	ldr	x1, [x0]
	str	x1, [sp, 104]
	mov	x1, 0
	adrp	x0, :got:GImGui
	ldr	x0, [x0, #:got_lo12:GImGui]
	ldr	x0, [x0]
	str	x0, [sp, 72]
	ldr	x0, [sp, 72]
	ldr	x0, [x0, 16032]
	str	x0, [sp, 80]
	ldr	w1, [sp, 44]
	ldr	x0, [sp, 80]
	bl	_ZN5ImGui20GetWindowScrollbarIDEP11ImGuiWindow9ImGuiAxis
	str	w0, [sp, 52]
	ldr	w1, [sp, 44]
	ldr	x0, [sp, 80]
	bl	_ZN5ImGui22GetWindowScrollbarRectEP11ImGuiWindow9ImGuiAxis
	fmov	s5, s0
	fmov	s4, s1
	fmov	s1, s2
	fmov	s0, s3
	str	s5, [sp, 88]
	str	s4, [sp, 92]
	str	s1, [sp, 96]
	str	s0, [sp, 100]
	mov	w0, 256
	str	w0, [sp, 48]
	ldr	w0, [sp, 44]
	cmp	w0, 0
	bne	.L535
	ldr	w0, [sp, 48]
	orr	w0, w0, 64
	str	w0, [sp, 48]
	ldr	x0, [sp, 80]
	ldrb	w0, [x0, 149]
	eor	w0, w0, 1
	and	w0, w0, 255
	cmp	w0, 0
	beq	.L536
	ldr	w0, [sp, 48]
	orr	w0, w0, 128
	str	w0, [sp, 48]
	b	.L536
.L535:
	ldr	x0, [sp, 80]
	ldr	w0, [x0, 12]
	and	w0, w0, 1
	cmp	w0, 0
	beq	.L537
	ldr	x0, [sp, 80]
	ldr	w0, [x0, 12]
	and	w0, w0, 1024
	cmp	w0, 0
	bne	.L537
	ldr	w0, [sp, 48]
	orr	w0, w0, 32
	str	w0, [sp, 48]
.L537:
	ldr	x0, [sp, 80]
	ldrb	w0, [x0, 148]
	eor	w0, w0, 1
	and	w0, w0, 255
	cmp	w0, 0
	beq	.L536
	ldr	w0, [sp, 48]
	orr	w0, w0, 128
	str	w0, [sp, 48]
.L536:
	ldr	x0, [sp, 80]
	add	x0, x0, 480
	ldrsw	x1, [sp, 44]
	bl	_ZN6ImVec2ixEm
	ldr	s8, [x0]
	ldr	x0, [sp, 80]
	add	x0, x0, 472
	ldrsw	x1, [sp, 44]
	bl	_ZN6ImVec2ixEm
	ldr	s0, [x0]
	fsub	s0, s8, s0
	str	s0, [sp, 56]
	ldr	x0, [sp, 80]
	add	x0, x0, 48
	ldrsw	x1, [sp, 44]
	bl	_ZN6ImVec2ixEm
	ldr	s8, [x0]
	ldr	x0, [sp, 80]
	add	x0, x0, 72
	ldrsw	x1, [sp, 44]
	bl	_ZN6ImVec2ixEm
	ldr	s0, [x0]
	fadd	s0, s0, s0
	fadd	s0, s8, s0
	str	s0, [sp, 60]
	ldr	x0, [sp, 80]
	add	x0, x0, 100
	ldrsw	x1, [sp, 44]
	bl	_ZN6ImVec2ixEm
	ldr	s0, [x0]
	fcvtzs	x0, s0
	str	x0, [sp, 64]
	ldr	s0, [sp, 56]
	fcvtzs	x2, s0
	ldr	s0, [sp, 60]
	fcvtzs	x3, s0
	add	x1, sp, 64
	add	x0, sp, 88
	ldr	w6, [sp, 48]
	mov	x5, x3
	mov	x4, x2
	mov	x3, x1
	ldr	w2, [sp, 44]
	ldr	w1, [sp, 52]
	bl	_ZN5ImGui11ScrollbarExERK6ImRectj9ImGuiAxisPxxxi
	ldr	x0, [sp, 64]
	scvtf	s8, x0
	ldr	x0, [sp, 80]
	add	x0, x0, 100
	ldrsw	x1, [sp, 44]
	bl	_ZN6ImVec2ixEm
	str	s8, [x0]
	nop
	adrp	x0, :got:__stack_chk_guard
	ldr	x0, [x0, #:got_lo12:__stack_chk_guard]
	ldr	x2, [sp, 104]
	ldr	x1, [x0]
	subs	x2, x2, x1
	mov	x1, 0
	beq	.L538
	bl	__stack_chk_fail
.L538:
	ldr	d8, [sp, 16]
	ldp	x29, x30, [sp], 112
	.cfi_restore 30
	.cfi_restore 29
	.cfi_restore 72
	.cfi_def_cfa_offset 0
	ret
	.cfi_endproc
.LFE1593:
	.size	_ZN5ImGui9ScrollbarE9ImGuiAxis, .-_ZN5ImGui9ScrollbarE9ImGuiAxis
	.section	.rodata
	.align	3
.LC19:
	.string	"bool ImGui::ScrollbarEx(const ImRect&, ImGuiID, ImGuiAxis, ImS64*, ImS64, ImS64, ImDrawFlags)"
	.align	3
.LC20:
	.string	"ImMax(size_contents_v, size_avail_v) > 0.0f"
	.text
	.align	2
	.global	_ZN5ImGui11ScrollbarExERK6ImRectj9ImGuiAxisPxxxi
	.type	_ZN5ImGui11ScrollbarExERK6ImRectj9ImGuiAxisPxxxi, %function
_ZN5ImGui11ScrollbarExERK6ImRectj9ImGuiAxisPxxxi:
.LFB1594:
	.cfi_startproc
	stp	x29, x30, [sp, -256]!
	.cfi_def_cfa_offset 256
	.cfi_offset 29, -256
	.cfi_offset 30, -248
	mov	x29, sp
	stp	d8, d9, [sp, 16]
	str	d10, [sp, 32]
	.cfi_offset 72, -240
	.cfi_offset 73, -232
	.cfi_offset 74, -224
	str	x0, [sp, 88]
	str	w1, [sp, 84]
	str	w2, [sp, 80]
	str	x3, [sp, 72]
	str	x4, [sp, 64]
	str	x5, [sp, 56]
	str	w6, [sp, 52]
	adrp	x0, :got:__stack_chk_guard
	ldr	x0, [x0, #:got_lo12:__stack_chk_guard]
	ldr	x1, [x0]
	str	x1, [sp, 248]
	mov	x1, 0
	adrp	x0, :got:GImGui
	ldr	x0, [x0, #:got_lo12:GImGui]
	ldr	x0, [x0]
	str	x0, [sp, 160]
	ldr	x0, [sp, 160]
	ldr	x0, [x0, 16032]
	str	x0, [sp, 168]
	ldr	x0, [sp, 168]
	ldrb	w0, [x0, 155]
	cmp	w0, 0
	beq	.L540
	mov	w0, 0
	b	.L566
.L540:
	ldr	x0, [sp, 88]
	bl	_ZNK6ImRect8GetWidthEv
	str	s0, [sp, 112]
	ldr	x0, [sp, 88]
	bl	_ZNK6ImRect9GetHeightEv
	str	s0, [sp, 116]
	ldr	s0, [sp, 112]
	fcmpe	s0, #0.0
	bls	.L542
	ldr	s0, [sp, 116]
	fcmpe	s0, #0.0
	bls	.L542
	b	.L571
.L542:
	mov	w0, 0
	b	.L566
.L571:
	fmov	s0, 1.0e+0
	str	s0, [sp, 104]
	ldr	w0, [sp, 80]
	cmp	w0, 1
	bne	.L545
	ldr	x0, [sp, 160]
	ldr	s1, [x0, 15360]
	ldr	x0, [sp, 160]
	ldr	s0, [x0, 14368]
	fadd	s0, s0, s0
	fadd	s0, s1, s0
	ldr	s1, [sp, 116]
	fcmpe	s1, s0
	bmi	.L568
	b	.L545
.L568:
	ldr	x0, [sp, 160]
	ldr	s0, [x0, 15360]
	ldr	s1, [sp, 116]
	fsub	s1, s1, s0
	ldr	x0, [sp, 160]
	ldr	s0, [x0, 14368]
	fadd	s0, s0, s0
	fdiv	s0, s1, s0
	bl	_ZL10ImSaturatef
	str	s0, [sp, 104]
.L545:
	ldr	s0, [sp, 104]
	fcmpe	s0, #0.0
	bls	.L569
	b	.L572
.L569:
	mov	w0, 0
	b	.L566
.L572:
	ldr	x1, [sp, 160]
	mov	x0, 14304
	add	x0, x1, x0
	str	x0, [sp, 176]
	ldr	s1, [sp, 104]
	fmov	s0, 1.0e+0
	fcmpe	s1, s0
	cset	w0, ge
	strb	w0, [sp, 103]
	ldr	x0, [sp, 88]
	ldp	x0, x1, [x0]
	stp	x0, x1, [sp, 200]
	ldr	s1, [sp, 112]
	fmov	s0, 2.0e+0
	fsub	s1, s1, s0
	fmov	s0, 5.0e-1
	fmul	s0, s1, s0
	fcvtzs	s0, s0
	scvtf	s0, s0
	fmov	s2, 3.0e+0
	movi	v1.2s, #0
	bl	_Z7ImClampIfET_S0_S0_S0_
	fneg	s8, s0
	ldr	s1, [sp, 116]
	fmov	s0, 2.0e+0
	fsub	s1, s1, s0
	fmov	s0, 5.0e-1
	fmul	s0, s1, s0
	fcvtzs	s0, s0
	scvtf	s0, s0
	fmov	s2, 3.0e+0
	movi	v1.2s, #0
	bl	_Z7ImClampIfET_S0_S0_S0_
	fneg	s0, s0
	add	x0, sp, 232
	fmov	s1, s0
	fmov	s0, s8
	bl	_ZN6ImVec2C1Eff
	add	x1, sp, 232
	add	x0, sp, 200
	bl	_ZN6ImRect6ExpandERK6ImVec2
	ldr	w0, [sp, 80]
	cmp	w0, 0
	bne	.L549
	add	x0, sp, 200
	bl	_ZNK6ImRect8GetWidthEv
	b	.L550
.L549:
	add	x0, sp, 200
	bl	_ZNK6ImRect9GetHeightEv
.L550:
	str	s0, [sp, 120]
	ldr	x1, [sp, 64]
	ldr	x0, [sp, 56]
	bl	_Z5ImMaxIxET_S0_S0_
	scvtf	s0, x0
	fcmpe	s0, #0.0
	bgt	.L551
	adrp	x0, .LC19
	add	x3, x0, :lo12:.LC19
	mov	w2, 953
	adrp	x0, .LC13
	add	x1, x0, :lo12:.LC13
	adrp	x0, .LC20
	add	x0, x0, :lo12:.LC20
	bl	__assert_fail
.L551:
	ldr	x1, [sp, 64]
	ldr	x0, [sp, 56]
	bl	_Z5ImMaxIxET_S0_S0_
	mov	x1, 1
	bl	_Z5ImMaxIxET_S0_S0_
	str	x0, [sp, 184]
	ldr	x0, [sp, 64]
	scvtf	s1, x0
	ldr	x0, [sp, 184]
	scvtf	s0, x0
	fdiv	s1, s1, s0
	ldr	s0, [sp, 120]
	fmul	s0, s1, s0
	ldr	x0, [sp, 176]
	ldr	s1, [x0, 124]
	ldr	s2, [sp, 120]
	bl	_Z7ImClampIfET_S0_S0_S0_
	str	s0, [sp, 124]
	ldr	s0, [sp, 120]
	ldr	s1, [sp, 124]
	fdiv	s0, s1, s0
	str	s0, [sp, 128]
	strb	wzr, [sp, 100]
	strb	wzr, [sp, 101]
	mov	w3, 8
	mov	x2, 0
	ldr	w1, [sp, 84]
	ldr	x0, [sp, 88]
	bl	_ZN5ImGui7ItemAddERK6ImRectjPS1_i
	add	x2, sp, 100
	add	x1, sp, 101
	add	x0, sp, 200
	mov	w4, 262144
	mov	x3, x2
	mov	x2, x1
	ldr	w1, [sp, 84]
	bl	_ZN5ImGui14ButtonBehaviorERK6ImRectjPbS3_i
	ldr	x1, [sp, 56]
	ldr	x0, [sp, 64]
	sub	x0, x1, x0
	mov	x1, x0
	mov	x0, 1
	bl	_Z5ImMaxIxET_S0_S0_
	str	x0, [sp, 192]
	ldr	x0, [sp, 72]
	ldr	x0, [x0]
	scvtf	s1, x0
	ldr	x0, [sp, 192]
	scvtf	s0, x0
	fdiv	s0, s1, s0
	bl	_ZL10ImSaturatef
	str	s0, [sp, 132]
	ldr	s1, [sp, 120]
	ldr	s0, [sp, 124]
	fsub	s1, s1, s0
	ldr	s0, [sp, 132]
	fmul	s1, s1, s0
	ldr	s0, [sp, 120]
	fdiv	s0, s1, s0
	str	s0, [sp, 108]
	ldrb	w0, [sp, 100]
	cmp	w0, 0
	beq	.L552
	ldrb	w0, [sp, 103]
	cmp	w0, 0
	beq	.L552
	ldr	s1, [sp, 128]
	fmov	s0, 1.0e+0
	fcmpe	s1, s0
	bmi	.L570
	b	.L552
.L570:
	ldrsw	x1, [sp, 80]
	add	x0, sp, 200
	bl	_ZN6ImVec2ixEm
	ldr	s0, [x0]
	str	s0, [sp, 136]
	ldr	x0, [sp, 160]
	add	x0, x0, 3580
	ldrsw	x1, [sp, 80]
	bl	_ZN6ImVec2ixEm
	ldr	s0, [x0]
	str	s0, [sp, 140]
	ldr	s1, [sp, 140]
	ldr	s0, [sp, 136]
	fsub	s1, s1, s0
	ldr	s0, [sp, 120]
	fdiv	s0, s1, s0
	bl	_ZL10ImSaturatef
	str	s0, [sp, 144]
	ldr	w0, [sp, 84]
	bl	_ZN5ImGui12SetHoveredIDEj
	strb	wzr, [sp, 102]
	ldr	x0, [sp, 160]
	add	x0, x0, 12288
	ldrb	w0, [x0, 3832]
	cmp	w0, 0
	beq	.L554
	ldr	s1, [sp, 144]
	ldr	s0, [sp, 108]
	fcmpe	s1, s0
	bmi	.L555
	ldr	s1, [sp, 108]
	ldr	s0, [sp, 128]
	fadd	s0, s1, s0
	ldr	s1, [sp, 144]
	fcmpe	s1, s0
	bgt	.L555
	b	.L573
.L555:
	mov	w0, 1
	b	.L558
.L573:
	mov	w0, 0
.L558:
	strb	w0, [sp, 102]
	ldrb	w0, [sp, 102]
	cmp	w0, 0
	beq	.L559
	ldr	x0, [sp, 160]
	add	x0, x0, 16384
	str	wzr, [x0, 6912]
	b	.L554
.L559:
	ldr	s1, [sp, 144]
	ldr	s0, [sp, 108]
	fsub	s1, s1, s0
	ldr	s2, [sp, 128]
	fmov	s0, 5.0e-1
	fmul	s0, s2, s0
	fsub	s0, s1, s0
	ldr	x0, [sp, 160]
	add	x0, x0, 16384
	str	s0, [x0, 6912]
.L554:
	ldr	x0, [sp, 160]
	add	x0, x0, 16384
	ldr	s0, [x0, 6912]
	ldr	s1, [sp, 144]
	fsub	s1, s1, s0
	ldr	s2, [sp, 128]
	fmov	s0, 5.0e-1
	fmul	s0, s2, s0
	fsub	s1, s1, s0
	fmov	s2, 1.0e+0
	ldr	s0, [sp, 128]
	fsub	s0, s2, s0
	fdiv	s0, s1, s0
	bl	_ZL10ImSaturatef
	str	s0, [sp, 148]
	ldr	x0, [sp, 192]
	scvtf	s1, x0
	ldr	s0, [sp, 148]
	fmul	s0, s1, s0
	fcvtzs	x1, s0
	ldr	x0, [sp, 72]
	str	x1, [x0]
	ldr	x0, [sp, 72]
	ldr	x0, [x0]
	scvtf	s1, x0
	ldr	x0, [sp, 192]
	scvtf	s0, x0
	fdiv	s0, s1, s0
	bl	_ZL10ImSaturatef
	str	s0, [sp, 132]
	ldr	s1, [sp, 120]
	ldr	s0, [sp, 124]
	fsub	s1, s1, s0
	ldr	s0, [sp, 132]
	fmul	s1, s1, s0
	ldr	s0, [sp, 120]
	fdiv	s0, s1, s0
	str	s0, [sp, 108]
	ldrb	w0, [sp, 102]
	cmp	w0, 0
	beq	.L552
	ldr	s1, [sp, 144]
	ldr	s0, [sp, 108]
	fsub	s1, s1, s0
	ldr	s2, [sp, 128]
	fmov	s0, 5.0e-1
	fmul	s0, s2, s0
	fsub	s0, s1, s0
	ldr	x0, [sp, 160]
	add	x0, x0, 16384
	str	s0, [x0, 6912]
.L552:
	fmov	s0, 1.0e+0
	mov	w0, 14
	bl	_ZN5ImGui11GetColorU32Eif
	str	w0, [sp, 152]
	ldrb	w0, [sp, 100]
	cmp	w0, 0
	beq	.L560
	mov	w0, 17
	b	.L561
.L560:
	ldrb	w0, [sp, 101]
	cmp	w0, 0
	beq	.L562
	mov	w0, 16
	b	.L561
.L562:
	mov	w0, 15
.L561:
	ldr	s0, [sp, 104]
	bl	_ZN5ImGui11GetColorU32Eif
	str	w0, [sp, 156]
	ldr	x0, [sp, 168]
	ldr	x5, [x0, 632]
	ldr	x1, [sp, 88]
	ldr	x0, [sp, 88]
	add	x2, x0, 8
	ldr	x0, [sp, 168]
	ldr	s0, [x0, 80]
	ldr	w4, [sp, 52]
	ldr	w3, [sp, 152]
	mov	x0, x5
	bl	_ZN10ImDrawList13AddRectFilledERK6ImVec2S2_jfi
	str	wzr, [sp, 216]
	str	wzr, [sp, 220]
	str	wzr, [sp, 224]
	str	wzr, [sp, 228]
	ldr	w0, [sp, 80]
	cmp	w0, 0
	bne	.L564
	ldr	s0, [sp, 200]
	ldr	s1, [sp, 208]
	ldr	s2, [sp, 108]
	bl	_Z6ImLerpIfET_S0_S0_f
	fmov	s9, s0
	ldr	s8, [sp, 204]
	ldr	s0, [sp, 200]
	ldr	s1, [sp, 208]
	ldr	s2, [sp, 108]
	bl	_Z6ImLerpIfET_S0_S0_f
	fmov	s1, s0
	ldr	s0, [sp, 124]
	fadd	s0, s1, s0
	ldr	s1, [sp, 212]
	add	x0, sp, 232
	fmov	s3, s1
	fmov	s2, s0
	fmov	s1, s8
	fmov	s0, s9
	bl	_ZN6ImRectC1Effff
	ldp	x0, x1, [sp, 232]
	stp	x0, x1, [sp, 216]
	b	.L565
.L564:
	ldr	s8, [sp, 200]
	ldr	s0, [sp, 204]
	ldr	s1, [sp, 212]
	ldr	s2, [sp, 108]
	bl	_Z6ImLerpIfET_S0_S0_f
	fmov	s10, s0
	ldr	s9, [sp, 208]
	ldr	s0, [sp, 204]
	ldr	s1, [sp, 212]
	ldr	s2, [sp, 108]
	bl	_Z6ImLerpIfET_S0_S0_f
	fmov	s1, s0
	ldr	s0, [sp, 124]
	fadd	s0, s1, s0
	add	x0, sp, 232
	fmov	s3, s0
	fmov	s2, s9
	fmov	s1, s10
	fmov	s0, s8
	bl	_ZN6ImRectC1Effff
	ldp	x0, x1, [sp, 232]
	stp	x0, x1, [sp, 216]
.L565:
	ldr	x0, [sp, 168]
	ldr	x5, [x0, 632]
	ldr	x0, [sp, 176]
	ldr	s0, [x0, 120]
	add	x0, sp, 216
	add	x1, x0, 8
	add	x0, sp, 216
	mov	w4, 0
	ldr	w3, [sp, 156]
	mov	x2, x1
	mov	x1, x0
	mov	x0, x5
	bl	_ZN10ImDrawList13AddRectFilledERK6ImVec2S2_jfi
	ldrb	w0, [sp, 100]
.L566:
	mov	w1, w0
	adrp	x0, :got:__stack_chk_guard
	ldr	x0, [x0, #:got_lo12:__stack_chk_guard]
	ldr	x3, [sp, 248]
	ldr	x2, [x0]
	subs	x3, x3, x2
	mov	x2, 0
	beq	.L567
	bl	__stack_chk_fail
.L567:
	mov	w0, w1
	ldp	d8, d9, [sp, 16]
	ldr	d10, [sp, 32]
	ldp	x29, x30, [sp], 256
	.cfi_restore 30
	.cfi_restore 29
	.cfi_restore 74
	.cfi_restore 72
	.cfi_restore 73
	.cfi_def_cfa_offset 0
	ret
	.cfi_endproc
.LFE1594:
	.size	_ZN5ImGui11ScrollbarExERK6ImRectj9ImGuiAxisPxxxi, .-_ZN5ImGui11ScrollbarExERK6ImRectj9ImGuiAxisPxxxi
	.align	2
	.global	_ZN5ImGui5ImageEPvRK6ImVec2S3_S3_RK6ImVec4S6_
	.type	_ZN5ImGui5ImageEPvRK6ImVec2S3_S3_RK6ImVec4S6_, %function
_ZN5ImGui5ImageEPvRK6ImVec2S3_S3_RK6ImVec4S6_:
.LFB1595:
	.cfi_startproc
	stp	x29, x30, [sp, -144]!
	.cfi_def_cfa_offset 144
	.cfi_offset 29, -144
	.cfi_offset 30, -136
	mov	x29, sp
	str	x19, [sp, 16]
	.cfi_offset 19, -128
	str	x0, [sp, 72]
	str	x1, [sp, 64]
	str	x2, [sp, 56]
	str	x3, [sp, 48]
	str	x4, [sp, 40]
	str	x5, [sp, 32]
	adrp	x0, :got:__stack_chk_guard
	ldr	x0, [x0, #:got_lo12:__stack_chk_guard]
	ldr	x1, [x0]
	str	x1, [sp, 136]
	mov	x1, 0
	bl	_ZN5ImGui16GetCurrentWindowEv
	str	x0, [sp, 112]
	ldr	x0, [sp, 112]
	ldrb	w0, [x0, 155]
	cmp	w0, 0
	bne	.L588
	ldr	x0, [sp, 112]
	add	x19, x0, 224
	ldr	x0, [sp, 112]
	add	x0, x0, 224
	ldr	x1, [sp, 64]
	bl	_ZplRK6ImVec2S1_
	fmov	s2, s0
	fmov	s0, s1
	str	s2, [sp, 104]
	str	s0, [sp, 108]
	add	x1, sp, 104
	add	x0, sp, 120
	mov	x2, x1
	mov	x1, x19
	bl	_ZN6ImRectC1ERK6ImVec2S2_
	ldr	x0, [sp, 32]
	ldr	s0, [x0, 12]
	fcmpe	s0, #0.0
	bgt	.L585
	b	.L577
.L585:
	add	x0, sp, 104
	fmov	s1, 2.0e+0
	fmov	s0, 2.0e+0
	bl	_ZN6ImVec2C1Eff
	add	x1, sp, 104
	add	x0, sp, 120
	add	x0, x0, 8
	bl	_ZpLR6ImVec2RKS_
.L577:
	add	x0, sp, 120
	fmov	s0, -1.0e+0
	bl	_ZN5ImGui8ItemSizeERK6ImRectf
	add	x0, sp, 120
	mov	w3, 0
	mov	x2, 0
	mov	w1, 0
	bl	_ZN5ImGui7ItemAddERK6ImRectjPS1_i
	and	w0, w0, 255
	eor	w0, w0, 1
	and	w0, w0, 255
	cmp	w0, 0
	bne	.L589
	ldr	x0, [sp, 32]
	ldr	s0, [x0, 12]
	fcmpe	s0, #0.0
	bgt	.L586
	b	.L587
.L586:
	ldr	x0, [sp, 112]
	ldr	x19, [x0, 632]
	ldr	x0, [sp, 32]
	bl	_ZN5ImGui11GetColorU32ERK6ImVec4
	mov	w2, w0
	add	x0, sp, 120
	add	x1, x0, 8
	add	x0, sp, 120
	fmov	s1, 1.0e+0
	mov	w4, 0
	movi	v0.2s, #0
	mov	w3, w2
	mov	x2, x1
	mov	x1, x0
	mov	x0, x19
	bl	_ZN10ImDrawList7AddRectERK6ImVec2S2_jfif
	ldr	x0, [sp, 112]
	ldr	x19, [x0, 632]
	add	x0, sp, 80
	fmov	s1, 1.0e+0
	fmov	s0, 1.0e+0
	bl	_ZN6ImVec2C1Eff
	add	x1, sp, 80
	add	x0, sp, 120
	bl	_ZplRK6ImVec2S1_
	fmov	s2, s0
	fmov	s0, s1
	str	s2, [sp, 88]
	str	s0, [sp, 92]
	add	x0, sp, 96
	fmov	s1, 1.0e+0
	fmov	s0, 1.0e+0
	bl	_ZN6ImVec2C1Eff
	add	x1, sp, 96
	add	x0, sp, 120
	add	x0, x0, 8
	bl	_ZmiRK6ImVec2S1_
	fmov	s2, s0
	fmov	s0, s1
	str	s2, [sp, 104]
	str	s0, [sp, 108]
	ldr	x0, [sp, 40]
	bl	_ZN5ImGui11GetColorU32ERK6ImVec4
	mov	w2, w0
	add	x1, sp, 104
	add	x0, sp, 88
	mov	w6, w2
	ldr	x5, [sp, 48]
	ldr	x4, [sp, 56]
	mov	x3, x1
	mov	x2, x0
	ldr	x1, [sp, 72]
	mov	x0, x19
	bl	_ZN10ImDrawList8AddImageEPvRK6ImVec2S3_S3_S3_j
	b	.L574
.L587:
	ldr	x0, [sp, 112]
	ldr	x19, [x0, 632]
	ldr	x0, [sp, 40]
	bl	_ZN5ImGui11GetColorU32ERK6ImVec4
	mov	w2, w0
	add	x0, sp, 120
	add	x1, x0, 8
	add	x0, sp, 120
	mov	w6, w2
	ldr	x5, [sp, 48]
	ldr	x4, [sp, 56]
	mov	x3, x1
	mov	x2, x0
	ldr	x1, [sp, 72]
	mov	x0, x19
	bl	_ZN10ImDrawList8AddImageEPvRK6ImVec2S3_S3_S3_j
	b	.L574
.L588:
	nop
	b	.L574
.L589:
	nop
.L574:
	adrp	x0, :got:__stack_chk_guard
	ldr	x0, [x0, #:got_lo12:__stack_chk_guard]
	ldr	x2, [sp, 136]
	ldr	x1, [x0]
	subs	x2, x2, x1
	mov	x1, 0
	beq	.L584
	bl	__stack_chk_fail
.L584:
	ldr	x19, [sp, 16]
	ldp	x29, x30, [sp], 144
	.cfi_restore 30
	.cfi_restore 29
	.cfi_restore 19
	.cfi_def_cfa_offset 0
	ret
	.cfi_endproc
.LFE1595:
	.size	_ZN5ImGui5ImageEPvRK6ImVec2S3_S3_RK6ImVec4S6_, .-_ZN5ImGui5ImageEPvRK6ImVec2S3_S3_RK6ImVec4S6_
	.align	2
	.global	_ZN5ImGui13ImageButtonExEjPvRK6ImVec2S3_S3_RK6ImVec4S6_
	.type	_ZN5ImGui13ImageButtonExEjPvRK6ImVec2S3_S3_RK6ImVec4S6_, %function
_ZN5ImGui13ImageButtonExEjPvRK6ImVec2S3_S3_RK6ImVec4S6_:
.LFB1596:
	.cfi_startproc
	stp	x29, x30, [sp, -176]!
	.cfi_def_cfa_offset 176
	.cfi_offset 29, -176
	.cfi_offset 30, -168
	mov	x29, sp
	str	x19, [sp, 16]
	.cfi_offset 19, -160
	str	w0, [sp, 92]
	str	x1, [sp, 80]
	str	x2, [sp, 72]
	str	x3, [sp, 64]
	str	x4, [sp, 56]
	str	x5, [sp, 48]
	str	x6, [sp, 40]
	adrp	x0, :got:__stack_chk_guard
	ldr	x0, [x0, #:got_lo12:__stack_chk_guard]
	ldr	x1, [x0]
	str	x1, [sp, 168]
	mov	x1, 0
	adrp	x0, :got:GImGui
	ldr	x0, [x0, #:got_lo12:GImGui]
	ldr	x0, [x0]
	str	x0, [sp, 136]
	bl	_ZN5ImGui16GetCurrentWindowEv
	str	x0, [sp, 144]
	ldr	x0, [sp, 144]
	ldrb	w0, [x0, 155]
	cmp	w0, 0
	beq	.L591
	mov	w0, 0
	b	.L601
.L591:
	ldr	x1, [sp, 136]
	mov	x0, 14336
	add	x0, x1, x0
	ldr	x0, [x0, 28]
	str	x0, [sp, 104]
	ldr	x0, [sp, 144]
	add	x19, x0, 224
	ldr	x0, [sp, 144]
	add	x0, x0, 224
	ldr	x1, [sp, 72]
	bl	_ZplRK6ImVec2S1_
	fmov	s2, s0
	fmov	s0, s1
	str	s2, [sp, 112]
	str	s0, [sp, 116]
	add	x0, sp, 104
	fmov	s0, 2.0e+0
	bl	_ZmlRK6ImVec2f
	fmov	s2, s0
	fmov	s0, s1
	str	s2, [sp, 120]
	str	s0, [sp, 124]
	add	x1, sp, 120
	add	x0, sp, 112
	bl	_ZplRK6ImVec2S1_
	fmov	s2, s0
	fmov	s0, s1
	str	s2, [sp, 128]
	str	s0, [sp, 132]
	add	x1, sp, 128
	add	x0, sp, 152
	mov	x2, x1
	mov	x1, x19
	bl	_ZN6ImRectC1ERK6ImVec2S2_
	add	x0, sp, 152
	fmov	s0, -1.0e+0
	bl	_ZN5ImGui8ItemSizeERK6ImRectf
	add	x0, sp, 152
	mov	w3, 0
	mov	x2, 0
	ldr	w1, [sp, 92]
	bl	_ZN5ImGui7ItemAddERK6ImRectjPS1_i
	and	w0, w0, 255
	eor	w0, w0, 1
	and	w0, w0, 255
	cmp	w0, 0
	beq	.L593
	mov	w0, 0
	b	.L601
.L593:
	add	x2, sp, 112
	add	x1, sp, 98
	add	x0, sp, 152
	mov	w4, 0
	mov	x3, x2
	mov	x2, x1
	ldr	w1, [sp, 92]
	bl	_ZN5ImGui14ButtonBehaviorERK6ImRectjPbS3_i
	and	w0, w0, 255
	strb	w0, [sp, 99]
	ldrb	w0, [sp, 112]
	eor	w0, w0, 1
	and	w0, w0, 255
	cmp	w0, 0
	bne	.L594
	ldrb	w0, [sp, 98]
	eor	w0, w0, 1
	and	w0, w0, 255
	cmp	w0, 0
	beq	.L595
.L594:
	ldrb	w0, [sp, 98]
	cmp	w0, 0
	beq	.L596
	mov	w0, 22
	b	.L598
.L596:
	mov	w0, 21
	b	.L598
.L595:
	mov	w0, 23
.L598:
	fmov	s0, 1.0e+0
	bl	_ZN5ImGui11GetColorU32Eif
	str	w0, [sp, 100]
	add	x0, sp, 152
	mov	w2, 1
	ldr	w1, [sp, 92]
	bl	_ZN5ImGui18RenderNavHighlightERK6ImRectji
	ldr	s0, [sp, 104]
	ldr	s1, [sp, 108]
	bl	_Z5ImMinIfET_S0_S0_
	fmov	s3, s0
	ldr	x0, [sp, 136]
	ldr	s0, [x0, 14372]
	fmov	s2, s0
	movi	v1.2s, #0
	fmov	s0, s3
	bl	_Z7ImClampIfET_S0_S0_S0_
	fmov	s4, s0
	ldr	s2, [sp, 160]
	ldr	s3, [sp, 164]
	ldr	s0, [sp, 152]
	ldr	s1, [sp, 156]
	mov	w1, 1
	ldr	w0, [sp, 100]
	bl	_ZN5ImGui11RenderFrameE6ImVec2S0_jbf
	ldr	x0, [sp, 48]
	ldr	s0, [x0, 12]
	fcmpe	s0, #0.0
	bgt	.L603
	b	.L599
.L603:
	ldr	x0, [sp, 144]
	ldr	x19, [x0, 632]
	add	x1, sp, 104
	add	x0, sp, 152
	bl	_ZplRK6ImVec2S1_
	fmov	s2, s0
	fmov	s0, s1
	str	s2, [sp, 120]
	str	s0, [sp, 124]
	add	x1, sp, 104
	add	x0, sp, 152
	add	x0, x0, 8
	bl	_ZmiRK6ImVec2S1_
	fmov	s2, s0
	fmov	s0, s1
	str	s2, [sp, 128]
	str	s0, [sp, 132]
	ldr	x0, [sp, 48]
	bl	_ZN5ImGui11GetColorU32ERK6ImVec4
	mov	w2, w0
	add	x1, sp, 128
	add	x0, sp, 120
	mov	w4, 0
	movi	v0.2s, #0
	mov	w3, w2
	mov	x2, x1
	mov	x1, x0
	mov	x0, x19
	bl	_ZN10ImDrawList13AddRectFilledERK6ImVec2S2_jfi
.L599:
	ldr	x0, [sp, 144]
	ldr	x19, [x0, 632]
	add	x1, sp, 104
	add	x0, sp, 152
	bl	_ZplRK6ImVec2S1_
	fmov	s2, s0
	fmov	s0, s1
	str	s2, [sp, 120]
	str	s0, [sp, 124]
	add	x1, sp, 104
	add	x0, sp, 152
	add	x0, x0, 8
	bl	_ZmiRK6ImVec2S1_
	fmov	s2, s0
	fmov	s0, s1
	str	s2, [sp, 128]
	str	s0, [sp, 132]
	ldr	x0, [sp, 40]
	bl	_ZN5ImGui11GetColorU32ERK6ImVec4
	mov	w2, w0
	add	x1, sp, 128
	add	x0, sp, 120
	mov	w6, w2
	ldr	x5, [sp, 56]
	ldr	x4, [sp, 64]
	mov	x3, x1
	mov	x2, x0
	ldr	x1, [sp, 80]
	mov	x0, x19
	bl	_ZN10ImDrawList8AddImageEPvRK6ImVec2S3_S3_S3_j
	ldrb	w0, [sp, 99]
.L601:
	mov	w1, w0
	adrp	x0, :got:__stack_chk_guard
	ldr	x0, [x0, #:got_lo12:__stack_chk_guard]
	ldr	x3, [sp, 168]
	ldr	x2, [x0]
	subs	x3, x3, x2
	mov	x2, 0
	beq	.L602
	bl	__stack_chk_fail
.L602:
	mov	w0, w1
	ldr	x19, [sp, 16]
	ldp	x29, x30, [sp], 176
	.cfi_restore 30
	.cfi_restore 29
	.cfi_restore 19
	.cfi_def_cfa_offset 0
	ret
	.cfi_endproc
.LFE1596:
	.size	_ZN5ImGui13ImageButtonExEjPvRK6ImVec2S3_S3_RK6ImVec4S6_, .-_ZN5ImGui13ImageButtonExEjPvRK6ImVec2S3_S3_RK6ImVec4S6_
	.align	2
	.global	_ZN5ImGui11ImageButtonEPKcPvRK6ImVec2S5_S5_RK6ImVec4S8_
	.type	_ZN5ImGui11ImageButtonEPKcPvRK6ImVec2S5_S5_RK6ImVec4S8_, %function
_ZN5ImGui11ImageButtonEPKcPvRK6ImVec2S5_S5_RK6ImVec4S8_:
.LFB1597:
	.cfi_startproc
	stp	x29, x30, [sp, -96]!
	.cfi_def_cfa_offset 96
	.cfi_offset 29, -96
	.cfi_offset 30, -88
	mov	x29, sp
	str	x0, [sp, 72]
	str	x1, [sp, 64]
	str	x2, [sp, 56]
	str	x3, [sp, 48]
	str	x4, [sp, 40]
	str	x5, [sp, 32]
	str	x6, [sp, 24]
	adrp	x0, :got:GImGui
	ldr	x0, [x0, #:got_lo12:GImGui]
	ldr	x0, [x0]
	str	x0, [sp, 80]
	ldr	x0, [sp, 80]
	ldr	x0, [x0, 16032]
	str	x0, [sp, 88]
	ldr	x0, [sp, 88]
	ldrb	w0, [x0, 155]
	cmp	w0, 0
	beq	.L605
	mov	w0, 0
	b	.L606
.L605:
	mov	x2, 0
	ldr	x1, [sp, 72]
	ldr	x0, [sp, 88]
	bl	_ZN11ImGuiWindow5GetIDEPKcS1_
	ldr	x6, [sp, 24]
	ldr	x5, [sp, 32]
	ldr	x4, [sp, 40]
	ldr	x3, [sp, 48]
	ldr	x2, [sp, 56]
	ldr	x1, [sp, 64]
	bl	_ZN5ImGui13ImageButtonExEjPvRK6ImVec2S3_S3_RK6ImVec4S6_
	and	w0, w0, 255
	nop
.L606:
	ldp	x29, x30, [sp], 96
	.cfi_restore 30
	.cfi_restore 29
	.cfi_def_cfa_offset 0
	ret
	.cfi_endproc
.LFE1597:
	.size	_ZN5ImGui11ImageButtonEPKcPvRK6ImVec2S5_S5_RK6ImVec4S8_, .-_ZN5ImGui11ImageButtonEPKcPvRK6ImVec2S5_S5_RK6ImVec4S8_
	.section	.rodata
	.align	3
.LC21:
	.string	"#image"
	.text
	.align	2
	.global	_ZN5ImGui11ImageButtonEPvRK6ImVec2S3_S3_iRK6ImVec4S6_
	.type	_ZN5ImGui11ImageButtonEPvRK6ImVec2S3_S3_iRK6ImVec4S6_, %function
_ZN5ImGui11ImageButtonEPvRK6ImVec2S3_S3_iRK6ImVec4S6_:
.LFB1598:
	.cfi_startproc
	stp	x29, x30, [sp, -128]!
	.cfi_def_cfa_offset 128
	.cfi_offset 29, -128
	.cfi_offset 30, -120
	mov	x29, sp
	str	x0, [sp, 72]
	str	x1, [sp, 64]
	str	x2, [sp, 56]
	str	x3, [sp, 48]
	str	w4, [sp, 44]
	str	x5, [sp, 32]
	str	x6, [sp, 24]
	adrp	x0, :got:__stack_chk_guard
	ldr	x0, [x0, #:got_lo12:__stack_chk_guard]
	ldr	x1, [x0]
	str	x1, [sp, 120]
	mov	x1, 0
	adrp	x0, :got:GImGui
	ldr	x0, [x0, #:got_lo12:GImGui]
	ldr	x0, [x0]
	str	x0, [sp, 104]
	ldr	x0, [sp, 104]
	ldr	x0, [x0, 16032]
	str	x0, [sp, 112]
	ldr	x0, [sp, 112]
	ldrb	w0, [x0, 155]
	cmp	w0, 0
	beq	.L608
	mov	w0, 0
	b	.L609
.L608:
	ldr	x0, [sp, 72]
	bl	_ZN5ImGui6PushIDEPKv
	mov	x2, 0
	adrp	x0, .LC21
	add	x1, x0, :lo12:.LC21
	ldr	x0, [sp, 112]
	bl	_ZN11ImGuiWindow5GetIDEPKcS1_
	str	w0, [sp, 92]
	bl	_ZN5ImGui5PopIDEv
	ldr	w0, [sp, 44]
	cmp	w0, 0
	blt	.L610
	ldr	s0, [sp, 44]
	scvtf	s2, s0
	ldr	s0, [sp, 44]
	scvtf	s0, s0
	add	x0, sp, 96
	fmov	s1, s0
	fmov	s0, s2
	bl	_ZN6ImVec2C1Eff
	add	x0, sp, 96
	mov	x1, x0
	mov	w0, 11
	bl	_ZN5ImGui12PushStyleVarEiRK6ImVec2
.L610:
	ldr	x6, [sp, 24]
	ldr	x5, [sp, 32]
	ldr	x4, [sp, 48]
	ldr	x3, [sp, 56]
	ldr	x2, [sp, 64]
	ldr	x1, [sp, 72]
	ldr	w0, [sp, 92]
	bl	_ZN5ImGui13ImageButtonExEjPvRK6ImVec2S3_S3_RK6ImVec4S6_
	and	w0, w0, 255
	strb	w0, [sp, 91]
	ldr	w0, [sp, 44]
	cmp	w0, 0
	blt	.L611
	mov	w0, 1
	bl	_ZN5ImGui11PopStyleVarEi
.L611:
	ldrb	w0, [sp, 91]
.L609:
	mov	w1, w0
	adrp	x0, :got:__stack_chk_guard
	ldr	x0, [x0, #:got_lo12:__stack_chk_guard]
	ldr	x3, [sp, 120]
	ldr	x2, [x0]
	subs	x3, x3, x2
	mov	x2, 0
	beq	.L612
	bl	__stack_chk_fail
.L612:
	mov	w0, w1
	ldp	x29, x30, [sp], 128
	.cfi_restore 30
	.cfi_restore 29
	.cfi_def_cfa_offset 0
	ret
	.cfi_endproc
.LFE1598:
	.size	_ZN5ImGui11ImageButtonEPvRK6ImVec2S3_S3_iRK6ImVec4S6_, .-_ZN5ImGui11ImageButtonEPvRK6ImVec2S3_S3_iRK6ImVec4S6_
	.section	.rodata
	.align	3
.LC22:
	.string	"[~]"
	.align	3
.LC23:
	.string	"[x]"
	.align	3
.LC24:
	.string	"[ ]"
	.text
	.align	2
	.global	_ZN5ImGui8CheckboxEPKcPb
	.type	_ZN5ImGui8CheckboxEPKcPb, %function
_ZN5ImGui8CheckboxEPKcPb:
.LFB1599:
	.cfi_startproc
	stp	x29, x30, [sp, -176]!
	.cfi_def_cfa_offset 176
	.cfi_offset 29, -176
	.cfi_offset 30, -168
	mov	x29, sp
	str	x19, [sp, 16]
	str	d8, [sp, 24]
	.cfi_offset 19, -160
	.cfi_offset 72, -152
	str	x0, [sp, 40]
	str	x1, [sp, 32]
	adrp	x0, :got:__stack_chk_guard
	ldr	x0, [x0, #:got_lo12:__stack_chk_guard]
	ldr	x1, [x0]
	str	x1, [sp, 168]
	mov	x1, 0
	bl	_ZN5ImGui16GetCurrentWindowEv
	str	x0, [sp, 112]
	ldr	x0, [sp, 112]
	ldrb	w0, [x0, 155]
	cmp	w0, 0
	beq	.L614
	mov	w0, 0
	b	.L635
.L614:
	adrp	x0, :got:GImGui
	ldr	x0, [x0, #:got_lo12:GImGui]
	ldr	x0, [x0]
	str	x0, [sp, 120]
	ldr	x1, [sp, 120]
	mov	x0, 14304
	add	x0, x1, x0
	str	x0, [sp, 128]
	mov	x2, 0
	ldr	x1, [sp, 40]
	ldr	x0, [sp, 112]
	bl	_ZN11ImGuiWindow5GetIDEPKcS1_
	str	w0, [sp, 56]
	fmov	s0, -1.0e+0
	mov	w2, 1
	mov	x1, 0
	ldr	x0, [sp, 40]
	bl	_ZN5ImGui12CalcTextSizeEPKcS1_bf
	fmov	s2, s0
	fmov	s0, s1
	str	s2, [sp, 72]
	str	s0, [sp, 76]
	bl	_ZN5ImGui14GetFrameHeightEv
	str	s0, [sp, 60]
	ldr	x0, [sp, 112]
	ldr	x0, [x0, 224]
	str	x0, [sp, 80]
	ldr	s0, [sp, 72]
	fcmpe	s0, #0.0
	bgt	.L637
	b	.L639
.L637:
	ldr	x0, [sp, 128]
	ldr	s1, [x0, 84]
	ldr	s0, [sp, 72]
	fadd	s0, s1, s0
	b	.L618
.L639:
	movi	v0.2s, #0
.L618:
	ldr	s1, [sp, 60]
	fadd	s2, s0, s1
	ldr	s1, [sp, 76]
	ldr	x0, [sp, 128]
	ldr	s0, [x0, 64]
	fadd	s0, s0, s0
	fadd	s0, s1, s0
	add	x0, sp, 104
	fmov	s1, s0
	fmov	s0, s2
	bl	_ZN6ImVec2C1Eff
	add	x1, sp, 104
	add	x0, sp, 80
	bl	_ZplRK6ImVec2S1_
	fmov	s2, s0
	fmov	s0, s1
	str	s2, [sp, 152]
	str	s0, [sp, 156]
	add	x2, sp, 152
	add	x1, sp, 80
	add	x0, sp, 136
	bl	_ZN6ImRectC1ERK6ImVec2S2_
	ldr	x0, [sp, 128]
	ldr	s0, [x0, 64]
	add	x0, sp, 136
	bl	_ZN5ImGui8ItemSizeERK6ImRectf
	add	x0, sp, 136
	mov	w3, 0
	mov	x2, 0
	ldr	w1, [sp, 56]
	bl	_ZN5ImGui7ItemAddERK6ImRectjPS1_i
	and	w0, w0, 255
	eor	w0, w0, 1
	and	w0, w0, 255
	cmp	w0, 0
	beq	.L619
	mov	w0, 0
	b	.L635
.L619:
	add	x2, sp, 53
	add	x1, sp, 52
	add	x0, sp, 136
	mov	w4, 0
	mov	x3, x2
	mov	x2, x1
	ldr	w1, [sp, 56]
	bl	_ZN5ImGui14ButtonBehaviorERK6ImRectjPbS3_i
	and	w0, w0, 255
	strb	w0, [sp, 54]
	ldrb	w0, [sp, 54]
	cmp	w0, 0
	beq	.L620
	ldr	x0, [sp, 32]
	ldrb	w0, [x0]
	eor	w0, w0, 1
	and	w1, w0, 255
	ldr	x0, [sp, 32]
	strb	w1, [x0]
	ldr	w0, [sp, 56]
	bl	_ZN5ImGui14MarkItemEditedEj
.L620:
	add	x0, sp, 96
	ldr	s1, [sp, 60]
	ldr	s0, [sp, 60]
	bl	_ZN6ImVec2C1Eff
	add	x1, sp, 96
	add	x0, sp, 80
	bl	_ZplRK6ImVec2S1_
	fmov	s2, s0
	fmov	s0, s1
	str	s2, [sp, 104]
	str	s0, [sp, 108]
	add	x2, sp, 104
	add	x1, sp, 80
	add	x0, sp, 152
	bl	_ZN6ImRectC1ERK6ImVec2S2_
	add	x0, sp, 136
	mov	w2, 1
	ldr	w1, [sp, 56]
	bl	_ZN5ImGui18RenderNavHighlightERK6ImRectji
	ldrb	w0, [sp, 53]
	eor	w0, w0, 1
	and	w0, w0, 255
	cmp	w0, 0
	bne	.L621
	ldrb	w0, [sp, 52]
	eor	w0, w0, 1
	and	w0, w0, 255
	cmp	w0, 0
	beq	.L622
.L621:
	ldrb	w0, [sp, 52]
	cmp	w0, 0
	beq	.L623
	mov	w0, 8
	b	.L625
.L623:
	mov	w0, 7
	b	.L625
.L622:
	mov	w0, 9
.L625:
	fmov	s0, 1.0e+0
	bl	_ZN5ImGui11GetColorU32Eif
	mov	w2, w0
	ldr	x0, [sp, 128]
	ldr	s4, [x0, 68]
	ldr	s2, [sp, 160]
	ldr	s3, [sp, 164]
	ldr	s0, [sp, 152]
	ldr	s1, [sp, 156]
	mov	w1, 1
	mov	w0, w2
	bl	_ZN5ImGui11RenderFrameE6ImVec2S0_jbf
	fmov	s0, 1.0e+0
	mov	w0, 18
	bl	_ZN5ImGui11GetColorU32Eif
	str	w0, [sp, 64]
	ldr	x0, [sp, 120]
	add	x0, x0, 16384
	ldr	w0, [x0, 1832]
	and	w0, w0, 64
	cmp	w0, 0
	cset	w0, ne
	strb	w0, [sp, 55]
	ldrb	w0, [sp, 55]
	cmp	w0, 0
	beq	.L626
	mov	w0, 26214
	movk	w0, 0x4066, lsl 16
	fmov	s1, w0
	ldr	s0, [sp, 60]
	fdiv	s0, s0, s1
	fcvtzs	s0, s0
	scvtf	s0, s0
	fmov	s1, s0
	fmov	s0, 1.0e+0
	bl	_Z5ImMaxIfET_S0_S0_
	fmov	s8, s0
	mov	w0, 26214
	movk	w0, 0x4066, lsl 16
	fmov	s1, w0
	ldr	s0, [sp, 60]
	fdiv	s0, s0, s1
	fcvtzs	s0, s0
	scvtf	s0, s0
	fmov	s1, s0
	fmov	s0, 1.0e+0
	bl	_Z5ImMaxIfET_S0_S0_
	add	x0, sp, 88
	fmov	s1, s0
	fmov	s0, s8
	bl	_ZN6ImVec2C1Eff
	ldr	x0, [sp, 112]
	ldr	x19, [x0, 632]
	add	x1, sp, 88
	add	x0, sp, 152
	bl	_ZplRK6ImVec2S1_
	fmov	s2, s0
	fmov	s0, s1
	str	s2, [sp, 96]
	str	s0, [sp, 100]
	add	x1, sp, 88
	add	x0, sp, 152
	add	x0, x0, 8
	bl	_ZmiRK6ImVec2S1_
	fmov	s2, s0
	fmov	s0, s1
	str	s2, [sp, 104]
	str	s0, [sp, 108]
	ldr	x0, [sp, 128]
	ldr	s0, [x0, 68]
	add	x1, sp, 104
	add	x0, sp, 96
	mov	w4, 0
	ldr	w3, [sp, 64]
	mov	x2, x1
	mov	x1, x0
	mov	x0, x19
	bl	_ZN10ImDrawList13AddRectFilledERK6ImVec2S2_jfi
	b	.L627
.L626:
	ldr	x0, [sp, 32]
	ldrb	w0, [x0]
	cmp	w0, 0
	beq	.L627
	fmov	s0, 6.0e+0
	ldr	s1, [sp, 60]
	fdiv	s0, s1, s0
	fcvtzs	s0, s0
	scvtf	s0, s0
	fmov	s1, s0
	fmov	s0, 1.0e+0
	bl	_Z5ImMaxIfET_S0_S0_
	str	s0, [sp, 68]
	ldr	x0, [sp, 112]
	ldr	x19, [x0, 632]
	add	x0, sp, 104
	ldr	s1, [sp, 68]
	ldr	s0, [sp, 68]
	bl	_ZN6ImVec2C1Eff
	add	x1, sp, 104
	add	x0, sp, 152
	bl	_ZplRK6ImVec2S1_
	fmov	s2, s0
	fmov	s0, s1
	fmov	x0, d2
	fmov	w1, s0
	bfi	x0, x1, 32, 32
	ldr	s0, [sp, 68]
	fadd	s0, s0, s0
	ldr	s1, [sp, 60]
	fsub	s0, s1, s0
	mov	x1, x0
	lsr	w2, w1, 0
	lsr	x0, x0, 32
	fmov	s1, w0
	fmov	s2, s0
	ldr	w1, [sp, 64]
	fmov	s0, w2
	mov	x0, x19
	bl	_ZN5ImGui15RenderCheckMarkEP10ImDrawList6ImVec2jf
.L627:
	ldr	s1, [sp, 160]
	ldr	x0, [sp, 128]
	ldr	s0, [x0, 84]
	fadd	s2, s1, s0
	ldr	s1, [sp, 156]
	ldr	x0, [sp, 128]
	ldr	s0, [x0, 64]
	fadd	s0, s1, s0
	add	x0, sp, 104
	fmov	s1, s0
	fmov	s0, s2
	bl	_ZN6ImVec2C1Eff
	ldr	x0, [sp, 120]
	add	x0, x0, 20480
	ldrb	w0, [x0, 3048]
	cmp	w0, 0
	beq	.L628
	ldrb	w0, [sp, 55]
	cmp	w0, 0
	beq	.L629
	adrp	x0, .LC22
	add	x0, x0, :lo12:.LC22
	b	.L630
.L629:
	ldr	x0, [sp, 32]
	ldrb	w0, [x0]
	cmp	w0, 0
	beq	.L631
	adrp	x0, .LC23
	add	x0, x0, :lo12:.LC23
	b	.L630
.L631:
	adrp	x0, .LC24
	add	x0, x0, :lo12:.LC24
.L630:
	add	x3, sp, 104
	mov	x2, 0
	mov	x1, x0
	mov	x0, x3
	bl	_ZN5ImGui15LogRenderedTextEPK6ImVec2PKcS4_
.L628:
	ldr	s0, [sp, 72]
	fcmpe	s0, #0.0
	bgt	.L638
	b	.L633
.L638:
	ldr	s0, [sp, 104]
	ldr	s1, [sp, 108]
	mov	w2, 1
	mov	x1, 0
	ldr	x0, [sp, 40]
	bl	_ZN5ImGui10RenderTextE6ImVec2PKcS2_b
.L633:
	ldrb	w0, [sp, 54]
.L635:
	mov	w1, w0
	adrp	x0, :got:__stack_chk_guard
	ldr	x0, [x0, #:got_lo12:__stack_chk_guard]
	ldr	x3, [sp, 168]
	ldr	x2, [x0]
	subs	x3, x3, x2
	mov	x2, 0
	beq	.L636
	bl	__stack_chk_fail
.L636:
	mov	w0, w1
	ldr	d8, [sp, 24]
	ldr	x19, [sp, 16]
	ldp	x29, x30, [sp], 176
	.cfi_restore 30
	.cfi_restore 29
	.cfi_restore 19
	.cfi_restore 72
	.cfi_def_cfa_offset 0
	ret
	.cfi_endproc
.LFE1599:
	.size	_ZN5ImGui8CheckboxEPKcPb, .-_ZN5ImGui8CheckboxEPKcPb
	.align	2
	.global	_ZN5ImGui13CheckboxFlagsEPKcPii
	.type	_ZN5ImGui13CheckboxFlagsEPKcPii, %function
_ZN5ImGui13CheckboxFlagsEPKcPii:
.LFB1601:
	.cfi_startproc
	stp	x29, x30, [sp, -48]!
	.cfi_def_cfa_offset 48
	.cfi_offset 29, -48
	.cfi_offset 30, -40
	mov	x29, sp
	str	x0, [sp, 40]
	str	x1, [sp, 32]
	str	w2, [sp, 28]
	ldr	w2, [sp, 28]
	ldr	x1, [sp, 32]
	ldr	x0, [sp, 40]
	bl	_ZN5ImGui14CheckboxFlagsTIiEEbPKcPT_S3_
	and	w0, w0, 255
	ldp	x29, x30, [sp], 48
	.cfi_restore 30
	.cfi_restore 29
	.cfi_def_cfa_offset 0
	ret
	.cfi_endproc
.LFE1601:
	.size	_ZN5ImGui13CheckboxFlagsEPKcPii, .-_ZN5ImGui13CheckboxFlagsEPKcPii
	.align	2
	.global	_ZN5ImGui13CheckboxFlagsEPKcPjj
	.type	_ZN5ImGui13CheckboxFlagsEPKcPjj, %function
_ZN5ImGui13CheckboxFlagsEPKcPjj:
.LFB1602:
	.cfi_startproc
	stp	x29, x30, [sp, -48]!
	.cfi_def_cfa_offset 48
	.cfi_offset 29, -48
	.cfi_offset 30, -40
	mov	x29, sp
	str	x0, [sp, 40]
	str	x1, [sp, 32]
	str	w2, [sp, 28]
	ldr	w2, [sp, 28]
	ldr	x1, [sp, 32]
	ldr	x0, [sp, 40]
	bl	_ZN5ImGui14CheckboxFlagsTIjEEbPKcPT_S3_
	and	w0, w0, 255
	ldp	x29, x30, [sp], 48
	.cfi_restore 30
	.cfi_restore 29
	.cfi_def_cfa_offset 0
	ret
	.cfi_endproc
.LFE1602:
	.size	_ZN5ImGui13CheckboxFlagsEPKcPjj, .-_ZN5ImGui13CheckboxFlagsEPKcPjj
	.align	2
	.global	_ZN5ImGui13CheckboxFlagsEPKcPxx
	.type	_ZN5ImGui13CheckboxFlagsEPKcPxx, %function
_ZN5ImGui13CheckboxFlagsEPKcPxx:
.LFB1603:
	.cfi_startproc
	stp	x29, x30, [sp, -48]!
	.cfi_def_cfa_offset 48
	.cfi_offset 29, -48
	.cfi_offset 30, -40
	mov	x29, sp
	str	x0, [sp, 40]
	str	x1, [sp, 32]
	str	x2, [sp, 24]
	ldr	x2, [sp, 24]
	ldr	x1, [sp, 32]
	ldr	x0, [sp, 40]
	bl	_ZN5ImGui14CheckboxFlagsTIxEEbPKcPT_S3_
	and	w0, w0, 255
	ldp	x29, x30, [sp], 48
	.cfi_restore 30
	.cfi_restore 29
	.cfi_def_cfa_offset 0
	ret
	.cfi_endproc
.LFE1603:
	.size	_ZN5ImGui13CheckboxFlagsEPKcPxx, .-_ZN5ImGui13CheckboxFlagsEPKcPxx
	.align	2
	.global	_ZN5ImGui13CheckboxFlagsEPKcPyy
	.type	_ZN5ImGui13CheckboxFlagsEPKcPyy, %function
_ZN5ImGui13CheckboxFlagsEPKcPyy:
.LFB1604:
	.cfi_startproc
	stp	x29, x30, [sp, -48]!
	.cfi_def_cfa_offset 48
	.cfi_offset 29, -48
	.cfi_offset 30, -40
	mov	x29, sp
	str	x0, [sp, 40]
	str	x1, [sp, 32]
	str	x2, [sp, 24]
	ldr	x2, [sp, 24]
	ldr	x1, [sp, 32]
	ldr	x0, [sp, 40]
	bl	_ZN5ImGui14CheckboxFlagsTIyEEbPKcPT_S3_
	and	w0, w0, 255
	ldp	x29, x30, [sp], 48
	.cfi_restore 30
	.cfi_restore 29
	.cfi_def_cfa_offset 0
	ret
	.cfi_endproc
.LFE1604:
	.size	_ZN5ImGui13CheckboxFlagsEPKcPyy, .-_ZN5ImGui13CheckboxFlagsEPKcPyy
	.section	.rodata
	.align	3
.LC25:
	.string	"(x)"
	.align	3
.LC26:
	.string	"( )"
	.text
	.align	2
	.global	_ZN5ImGui11RadioButtonEPKcb
	.type	_ZN5ImGui11RadioButtonEPKcb, %function
_ZN5ImGui11RadioButtonEPKcb:
.LFB1605:
	.cfi_startproc
	stp	x29, x30, [sp, -176]!
	.cfi_def_cfa_offset 176
	.cfi_offset 29, -176
	.cfi_offset 30, -168
	mov	x29, sp
	str	x19, [sp, 16]
	str	d8, [sp, 24]
	.cfi_offset 19, -160
	.cfi_offset 72, -152
	str	x0, [sp, 40]
	strb	w1, [sp, 39]
	adrp	x0, :got:__stack_chk_guard
	ldr	x0, [x0, #:got_lo12:__stack_chk_guard]
	ldr	x1, [x0]
	str	x1, [sp, 168]
	mov	x1, 0
	bl	_ZN5ImGui16GetCurrentWindowEv
	str	x0, [sp, 112]
	ldr	x0, [sp, 112]
	ldrb	w0, [x0, 155]
	cmp	w0, 0
	beq	.L649
	mov	w0, 0
	b	.L669
.L649:
	adrp	x0, :got:GImGui
	ldr	x0, [x0, #:got_lo12:GImGui]
	ldr	x0, [x0]
	str	x0, [sp, 120]
	ldr	x1, [sp, 120]
	mov	x0, 14304
	add	x0, x1, x0
	str	x0, [sp, 128]
	mov	x2, 0
	ldr	x1, [sp, 40]
	ldr	x0, [sp, 112]
	bl	_ZN11ImGuiWindow5GetIDEPKcS1_
	str	w0, [sp, 56]
	fmov	s0, -1.0e+0
	mov	w2, 1
	mov	x1, 0
	ldr	x0, [sp, 40]
	bl	_ZN5ImGui12CalcTextSizeEPKcS1_bf
	fmov	s2, s0
	fmov	s0, s1
	str	s2, [sp, 72]
	str	s0, [sp, 76]
	bl	_ZN5ImGui14GetFrameHeightEv
	str	s0, [sp, 60]
	ldr	x0, [sp, 112]
	ldr	x0, [x0, 224]
	str	x0, [sp, 80]
	add	x0, sp, 104
	ldr	s1, [sp, 60]
	ldr	s0, [sp, 60]
	bl	_ZN6ImVec2C1Eff
	add	x1, sp, 104
	add	x0, sp, 80
	bl	_ZplRK6ImVec2S1_
	fmov	s2, s0
	fmov	s0, s1
	str	s2, [sp, 152]
	str	s0, [sp, 156]
	add	x2, sp, 152
	add	x1, sp, 80
	add	x0, sp, 136
	bl	_ZN6ImRectC1ERK6ImVec2S2_
	ldr	s0, [sp, 72]
	fcmpe	s0, #0.0
	bgt	.L671
	b	.L674
.L671:
	ldr	x0, [sp, 128]
	ldr	s1, [x0, 84]
	ldr	s0, [sp, 72]
	fadd	s0, s1, s0
	b	.L653
.L674:
	movi	v0.2s, #0
.L653:
	ldr	s1, [sp, 60]
	fadd	s2, s0, s1
	ldr	s1, [sp, 76]
	ldr	x0, [sp, 128]
	ldr	s0, [x0, 64]
	fadd	s0, s0, s0
	fadd	s0, s1, s0
	add	x0, sp, 96
	fmov	s1, s0
	fmov	s0, s2
	bl	_ZN6ImVec2C1Eff
	add	x1, sp, 96
	add	x0, sp, 80
	bl	_ZplRK6ImVec2S1_
	fmov	s2, s0
	fmov	s0, s1
	str	s2, [sp, 104]
	str	s0, [sp, 108]
	add	x2, sp, 104
	add	x1, sp, 80
	add	x0, sp, 152
	bl	_ZN6ImRectC1ERK6ImVec2S2_
	ldr	x0, [sp, 128]
	ldr	s0, [x0, 64]
	add	x0, sp, 152
	bl	_ZN5ImGui8ItemSizeERK6ImRectf
	add	x0, sp, 152
	mov	w3, 0
	mov	x2, 0
	ldr	w1, [sp, 56]
	bl	_ZN5ImGui7ItemAddERK6ImRectjPS1_i
	and	w0, w0, 255
	eor	w0, w0, 1
	and	w0, w0, 255
	cmp	w0, 0
	beq	.L654
	mov	w0, 0
	b	.L669
.L654:
	add	x0, sp, 136
	bl	_ZNK6ImRect9GetCenterEv
	fmov	s2, s0
	fmov	s0, s1
	str	s2, [sp, 88]
	str	s0, [sp, 92]
	ldr	s1, [sp, 88]
	fmov	s0, 5.0e-1
	fadd	s0, s1, s0
	fcvtzs	s0, s0
	scvtf	s0, s0
	str	s0, [sp, 88]
	ldr	s1, [sp, 92]
	fmov	s0, 5.0e-1
	fadd	s0, s1, s0
	fcvtzs	s0, s0
	scvtf	s0, s0
	str	s0, [sp, 92]
	ldr	s1, [sp, 60]
	fmov	s0, 1.0e+0
	fsub	s1, s1, s0
	fmov	s0, 5.0e-1
	fmul	s0, s1, s0
	str	s0, [sp, 64]
	add	x2, sp, 54
	add	x1, sp, 53
	add	x0, sp, 152
	mov	w4, 0
	mov	x3, x2
	mov	x2, x1
	ldr	w1, [sp, 56]
	bl	_ZN5ImGui14ButtonBehaviorERK6ImRectjPbS3_i
	and	w0, w0, 255
	strb	w0, [sp, 55]
	ldrb	w0, [sp, 55]
	cmp	w0, 0
	beq	.L655
	ldr	w0, [sp, 56]
	bl	_ZN5ImGui14MarkItemEditedEj
.L655:
	add	x0, sp, 152
	mov	w2, 1
	ldr	w1, [sp, 56]
	bl	_ZN5ImGui18RenderNavHighlightERK6ImRectji
	ldr	x0, [sp, 112]
	ldr	x19, [x0, 632]
	ldrb	w0, [sp, 54]
	eor	w0, w0, 1
	and	w0, w0, 255
	cmp	w0, 0
	bne	.L656
	ldrb	w0, [sp, 53]
	eor	w0, w0, 1
	and	w0, w0, 255
	cmp	w0, 0
	beq	.L657
.L656:
	ldrb	w0, [sp, 53]
	cmp	w0, 0
	beq	.L658
	mov	w0, 8
	b	.L660
.L658:
	mov	w0, 7
	b	.L660
.L657:
	mov	w0, 9
.L660:
	fmov	s0, 1.0e+0
	bl	_ZN5ImGui11GetColorU32Eif
	mov	w1, w0
	add	x0, sp, 88
	mov	w3, 16
	mov	w2, w1
	ldr	s0, [sp, 64]
	mov	x1, x0
	mov	x0, x19
	bl	_ZN10ImDrawList15AddCircleFilledERK6ImVec2fji
	ldrb	w0, [sp, 39]
	cmp	w0, 0
	beq	.L661
	fmov	s0, 6.0e+0
	ldr	s1, [sp, 60]
	fdiv	s0, s1, s0
	fcvtzs	s0, s0
	scvtf	s0, s0
	fmov	s1, s0
	fmov	s0, 1.0e+0
	bl	_Z5ImMaxIfET_S0_S0_
	str	s0, [sp, 68]
	ldr	x0, [sp, 112]
	ldr	x19, [x0, 632]
	ldr	s1, [sp, 64]
	ldr	s0, [sp, 68]
	fsub	s8, s1, s0
	fmov	s0, 1.0e+0
	mov	w0, 18
	bl	_ZN5ImGui11GetColorU32Eif
	mov	w1, w0
	add	x0, sp, 88
	mov	w3, 16
	mov	w2, w1
	fmov	s0, s8
	mov	x1, x0
	mov	x0, x19
	bl	_ZN10ImDrawList15AddCircleFilledERK6ImVec2fji
.L661:
	ldr	x0, [sp, 128]
	ldr	s0, [x0, 72]
	fcmpe	s0, #0.0
	bgt	.L672
	b	.L662
.L672:
	ldr	x0, [sp, 112]
	ldr	x19, [x0, 632]
	add	x0, sp, 96
	fmov	s1, 1.0e+0
	fmov	s0, 1.0e+0
	bl	_ZN6ImVec2C1Eff
	add	x1, sp, 96
	add	x0, sp, 88
	bl	_ZplRK6ImVec2S1_
	fmov	s2, s0
	fmov	s0, s1
	str	s2, [sp, 104]
	str	s0, [sp, 108]
	fmov	s0, 1.0e+0
	mov	w0, 6
	bl	_ZN5ImGui11GetColorU32Eif
	mov	w1, w0
	ldr	x0, [sp, 128]
	ldr	s0, [x0, 72]
	add	x0, sp, 104
	fmov	s1, s0
	mov	w3, 16
	mov	w2, w1
	ldr	s0, [sp, 64]
	mov	x1, x0
	mov	x0, x19
	bl	_ZN10ImDrawList9AddCircleERK6ImVec2fjif
	ldr	x0, [sp, 112]
	ldr	x19, [x0, 632]
	fmov	s0, 1.0e+0
	mov	w0, 5
	bl	_ZN5ImGui11GetColorU32Eif
	mov	w1, w0
	ldr	x0, [sp, 128]
	ldr	s0, [x0, 72]
	add	x0, sp, 88
	fmov	s1, s0
	mov	w3, 16
	mov	w2, w1
	ldr	s0, [sp, 64]
	mov	x1, x0
	mov	x0, x19
	bl	_ZN10ImDrawList9AddCircleERK6ImVec2fjif
.L662:
	ldr	s1, [sp, 144]
	ldr	x0, [sp, 128]
	ldr	s0, [x0, 84]
	fadd	s2, s1, s0
	ldr	s1, [sp, 140]
	ldr	x0, [sp, 128]
	ldr	s0, [x0, 64]
	fadd	s0, s1, s0
	add	x0, sp, 104
	fmov	s1, s0
	fmov	s0, s2
	bl	_ZN6ImVec2C1Eff
	ldr	x0, [sp, 120]
	add	x0, x0, 20480
	ldrb	w0, [x0, 3048]
	cmp	w0, 0
	beq	.L664
	ldrb	w0, [sp, 39]
	cmp	w0, 0
	beq	.L665
	adrp	x0, .LC25
	add	x0, x0, :lo12:.LC25
	b	.L666
.L665:
	adrp	x0, .LC26
	add	x0, x0, :lo12:.LC26
.L666:
	add	x3, sp, 104
	mov	x2, 0
	mov	x1, x0
	mov	x0, x3
	bl	_ZN5ImGui15LogRenderedTextEPK6ImVec2PKcS4_
.L664:
	ldr	s0, [sp, 72]
	fcmpe	s0, #0.0
	bgt	.L673
	b	.L667
.L673:
	ldr	s0, [sp, 104]
	ldr	s1, [sp, 108]
	mov	w2, 1
	mov	x1, 0
	ldr	x0, [sp, 40]
	bl	_ZN5ImGui10RenderTextE6ImVec2PKcS2_b
.L667:
	ldrb	w0, [sp, 55]
.L669:
	mov	w1, w0
	adrp	x0, :got:__stack_chk_guard
	ldr	x0, [x0, #:got_lo12:__stack_chk_guard]
	ldr	x3, [sp, 168]
	ldr	x2, [x0]
	subs	x3, x3, x2
	mov	x2, 0
	beq	.L670
	bl	__stack_chk_fail
.L670:
	mov	w0, w1
	ldr	d8, [sp, 24]
	ldr	x19, [sp, 16]
	ldp	x29, x30, [sp], 176
	.cfi_restore 30
	.cfi_restore 29
	.cfi_restore 19
	.cfi_restore 72
	.cfi_def_cfa_offset 0
	ret
	.cfi_endproc
.LFE1605:
	.size	_ZN5ImGui11RadioButtonEPKcb, .-_ZN5ImGui11RadioButtonEPKcb
	.align	2
	.global	_ZN5ImGui11RadioButtonEPKcPii
	.type	_ZN5ImGui11RadioButtonEPKcPii, %function
_ZN5ImGui11RadioButtonEPKcPii:
.LFB1606:
	.cfi_startproc
	stp	x29, x30, [sp, -64]!
	.cfi_def_cfa_offset 64
	.cfi_offset 29, -64
	.cfi_offset 30, -56
	mov	x29, sp
	str	x0, [sp, 40]
	str	x1, [sp, 32]
	str	w2, [sp, 28]
	ldr	x0, [sp, 32]
	ldr	w0, [x0]
	ldr	w1, [sp, 28]
	cmp	w1, w0
	cset	w0, eq
	and	w0, w0, 255
	mov	w1, w0
	ldr	x0, [sp, 40]
	bl	_ZN5ImGui11RadioButtonEPKcb
	and	w0, w0, 255
	strb	w0, [sp, 63]
	ldrb	w0, [sp, 63]
	cmp	w0, 0
	beq	.L676
	ldr	x0, [sp, 32]
	ldr	w1, [sp, 28]
	str	w1, [x0]
.L676:
	ldrb	w0, [sp, 63]
	ldp	x29, x30, [sp], 64
	.cfi_restore 30
	.cfi_restore 29
	.cfi_def_cfa_offset 0
	ret
	.cfi_endproc
.LFE1606:
	.size	_ZN5ImGui11RadioButtonEPKcPii, .-_ZN5ImGui11RadioButtonEPKcPii
	.section	.rodata
	.align	3
.LC27:
	.string	"%.0f%%"
	.text
	.align	2
	.global	_ZN5ImGui11ProgressBarEfRK6ImVec2PKc
	.type	_ZN5ImGui11ProgressBarEfRK6ImVec2PKc, %function
_ZN5ImGui11ProgressBarEfRK6ImVec2PKc:
.LFB1607:
	.cfi_startproc
	stp	x29, x30, [sp, -192]!
	.cfi_def_cfa_offset 192
	.cfi_offset 29, -192
	.cfi_offset 30, -184
	mov	x29, sp
	str	x19, [sp, 16]
	.cfi_offset 19, -176
	str	s0, [sp, 60]
	str	x0, [sp, 48]
	str	x1, [sp, 40]
	adrp	x0, :got:__stack_chk_guard
	ldr	x0, [x0, #:got_lo12:__stack_chk_guard]
	ldr	x1, [x0]
	str	x1, [sp, 184]
	mov	x1, 0
	bl	_ZN5ImGui16GetCurrentWindowEv
	str	x0, [sp, 112]
	ldr	x0, [sp, 112]
	ldrb	w0, [x0, 155]
	cmp	w0, 0
	bne	.L688
	adrp	x0, :got:GImGui
	ldr	x0, [x0, #:got_lo12:GImGui]
	ldr	x0, [x0]
	str	x0, [sp, 120]
	ldr	x1, [sp, 120]
	mov	x0, 14304
	add	x0, x1, x0
	str	x0, [sp, 128]
	ldr	x0, [sp, 112]
	ldr	x0, [x0, 224]
	str	x0, [sp, 64]
	bl	_ZN5ImGui13CalcItemWidthEv
	fmov	s4, s0
	ldr	x0, [sp, 120]
	ldr	s1, [x0, 15360]
	ldr	x0, [sp, 128]
	ldr	s0, [x0, 64]
	fadd	s0, s0, s0
	fadd	s2, s1, s0
	ldr	x0, [sp, 48]
	ldr	s0, [x0]
	ldr	s1, [x0, 4]
	fmov	s3, s2
	fmov	s2, s4
	bl	_ZN5ImGui12CalcItemSizeE6ImVec2ff
	fmov	s2, s0
	fmov	s0, s1
	str	s2, [sp, 72]
	str	s0, [sp, 76]
	add	x1, sp, 72
	add	x0, sp, 64
	bl	_ZplRK6ImVec2S1_
	fmov	s2, s0
	fmov	s0, s1
	str	s2, [sp, 104]
	str	s0, [sp, 108]
	add	x2, sp, 104
	add	x1, sp, 64
	add	x0, sp, 136
	bl	_ZN6ImRectC1ERK6ImVec2S2_
	ldr	x0, [sp, 128]
	ldr	s0, [x0, 64]
	add	x0, sp, 72
	bl	_ZN5ImGui8ItemSizeERK6ImVec2f
	add	x0, sp, 136
	mov	w3, 0
	mov	x2, 0
	mov	w1, 0
	bl	_ZN5ImGui7ItemAddERK6ImRectjPS1_i
	and	w0, w0, 255
	eor	w0, w0, 1
	and	w0, w0, 255
	cmp	w0, 0
	bne	.L689
	ldr	s0, [sp, 60]
	bl	_ZL10ImSaturatef
	str	s0, [sp, 60]
	fmov	s0, 1.0e+0
	mov	w0, 7
	bl	_ZN5ImGui11GetColorU32Eif
	mov	w2, w0
	ldr	x0, [sp, 128]
	ldr	s4, [x0, 68]
	ldr	s2, [sp, 144]
	ldr	s3, [sp, 148]
	ldr	s0, [sp, 136]
	ldr	s1, [sp, 140]
	mov	w1, 1
	mov	w0, w2
	bl	_ZN5ImGui11RenderFrameE6ImVec2S0_jbf
	ldr	x0, [sp, 128]
	ldr	s0, [x0, 72]
	fneg	s2, s0
	ldr	x0, [sp, 128]
	ldr	s0, [x0, 72]
	fneg	s0, s0
	add	x0, sp, 104
	fmov	s1, s0
	fmov	s0, s2
	bl	_ZN6ImVec2C1Eff
	add	x1, sp, 104
	add	x0, sp, 136
	bl	_ZN6ImRect6ExpandERK6ImVec2
	ldr	s0, [sp, 136]
	ldr	s1, [sp, 144]
	ldr	s2, [sp, 60]
	bl	_Z6ImLerpIfET_S0_S0_f
	fmov	s2, s0
	ldr	s0, [sp, 148]
	add	x0, sp, 80
	fmov	s1, s0
	fmov	s0, s2
	bl	_ZN6ImVec2C1Eff
	ldr	x0, [sp, 112]
	ldr	x19, [x0, 632]
	fmov	s0, 1.0e+0
	mov	w0, 40
	bl	_ZN5ImGui11GetColorU32Eif
	mov	w1, w0
	ldr	x0, [sp, 128]
	ldr	s0, [x0, 68]
	add	x0, sp, 136
	fmov	s2, s0
	ldr	s1, [sp, 60]
	movi	v0.2s, #0
	mov	w2, w1
	mov	x1, x0
	mov	x0, x19
	bl	_ZN5ImGui22RenderRectFilledRangeHEP10ImDrawListRK6ImRectjfff
	ldr	x0, [sp, 40]
	cmp	x0, 0
	bne	.L682
	ldr	s0, [sp, 60]
	mov	w0, 1120403456
	fmov	s1, w0
	fmul	s0, s0, s1
	mov	w0, 55050
	movk	w0, 0x3c23, lsl 16
	fmov	s1, w0
	fadd	s0, s0, s1
	fcvt	d0, s0
	add	x3, sp, 152
	adrp	x0, .LC27
	add	x2, x0, :lo12:.LC27
	mov	x1, 32
	mov	x0, x3
	bl	_Z14ImFormatStringPcmPKcz
	add	x0, sp, 152
	str	x0, [sp, 40]
.L682:
	fmov	s0, -1.0e+0
	mov	w2, 0
	mov	x1, 0
	ldr	x0, [sp, 40]
	bl	_ZN5ImGui12CalcTextSizeEPKcS1_bf
	fmov	s2, s0
	fmov	s0, s1
	str	s2, [sp, 88]
	str	s0, [sp, 92]
	ldr	s0, [sp, 88]
	fcmpe	s0, #0.0
	bgt	.L687
	b	.L678
.L687:
	ldr	s1, [sp, 80]
	ldr	x0, [sp, 128]
	ldr	s0, [x0, 76]
	fadd	s3, s1, s0
	ldr	s4, [sp, 136]
	ldr	s1, [sp, 144]
	ldr	s0, [sp, 88]
	fsub	s1, s1, s0
	ldr	x0, [sp, 128]
	ldr	s0, [x0, 84]
	fsub	s0, s1, s0
	fmov	s2, s0
	fmov	s1, s4
	fmov	s0, s3
	bl	_Z7ImClampIfET_S0_S0_S0_
	fmov	s2, s0
	ldr	s0, [sp, 140]
	add	x0, sp, 96
	fmov	s1, s0
	fmov	s0, s2
	bl	_ZN6ImVec2C1Eff
	add	x0, sp, 104
	fmov	s1, 5.0e-1
	movi	v0.2s, #0
	bl	_ZN6ImVec2C1Eff
	add	x4, sp, 136
	add	x3, sp, 104
	add	x2, sp, 88
	add	x0, sp, 136
	add	x1, x0, 8
	add	x0, sp, 96
	mov	x6, x4
	mov	x5, x3
	mov	x4, x2
	mov	x3, 0
	ldr	x2, [sp, 40]
	bl	_ZN5ImGui17RenderTextClippedERK6ImVec2S2_PKcS4_PS1_S2_PK6ImRect
	b	.L678
.L688:
	nop
	b	.L678
.L689:
	nop
.L678:
	adrp	x0, :got:__stack_chk_guard
	ldr	x0, [x0, #:got_lo12:__stack_chk_guard]
	ldr	x2, [sp, 184]
	ldr	x1, [x0]
	subs	x2, x2, x1
	mov	x1, 0
	beq	.L686
	bl	__stack_chk_fail
.L686:
	ldr	x19, [sp, 16]
	ldp	x29, x30, [sp], 192
	.cfi_restore 30
	.cfi_restore 29
	.cfi_restore 19
	.cfi_def_cfa_offset 0
	ret
	.cfi_endproc
.LFE1607:
	.size	_ZN5ImGui11ProgressBarEfRK6ImVec2PKc, .-_ZN5ImGui11ProgressBarEfRK6ImVec2PKc
	.align	2
	.global	_ZN5ImGui6BulletEv
	.type	_ZN5ImGui6BulletEv, %function
_ZN5ImGui6BulletEv:
.LFB1608:
	.cfi_startproc
	stp	x29, x30, [sp, -112]!
	.cfi_def_cfa_offset 112
	.cfi_offset 29, -112
	.cfi_offset 30, -104
	mov	x29, sp
	stp	x19, x20, [sp, 16]
	.cfi_offset 19, -96
	.cfi_offset 20, -88
	adrp	x0, :got:__stack_chk_guard
	ldr	x0, [x0, #:got_lo12:__stack_chk_guard]
	ldr	x1, [x0]
	str	x1, [sp, 104]
	mov	x1, 0
	bl	_ZN5ImGui16GetCurrentWindowEv
	str	x0, [sp, 64]
	ldr	x0, [sp, 64]
	ldrb	w0, [x0, 155]
	cmp	w0, 0
	bne	.L696
	adrp	x0, :got:GImGui
	ldr	x0, [x0, #:got_lo12:GImGui]
	ldr	x0, [x0]
	str	x0, [sp, 72]
	ldr	x1, [sp, 72]
	mov	x0, 14304
	add	x0, x1, x0
	str	x0, [sp, 80]
	ldr	x0, [sp, 64]
	ldr	s2, [x0, 268]
	ldr	x0, [sp, 72]
	ldr	s1, [x0, 15360]
	ldr	x0, [sp, 80]
	ldr	s0, [x0, 64]
	fadd	s0, s0, s0
	fadd	s0, s1, s0
	fmov	s1, s0
	fmov	s0, s2
	bl	_Z5ImMinIfET_S0_S0_
	fmov	s2, s0
	ldr	x0, [sp, 72]
	ldr	s0, [x0, 15360]
	fmov	s1, s0
	fmov	s0, s2
	bl	_Z5ImMaxIfET_S0_S0_
	str	s0, [sp, 40]
	ldr	x0, [sp, 64]
	add	x19, x0, 224
	ldr	x0, [sp, 64]
	add	x20, x0, 224
	ldr	x0, [sp, 72]
	ldr	s0, [x0, 15360]
	add	x0, sp, 48
	ldr	s1, [sp, 40]
	bl	_ZN6ImVec2C1Eff
	add	x0, sp, 48
	mov	x1, x0
	mov	x0, x20
	bl	_ZplRK6ImVec2S1_
	fmov	s2, s0
	fmov	s0, s1
	str	s2, [sp, 56]
	str	s0, [sp, 60]
	add	x1, sp, 56
	add	x0, sp, 88
	mov	x2, x1
	mov	x1, x19
	bl	_ZN6ImRectC1ERK6ImVec2S2_
	add	x0, sp, 88
	fmov	s0, -1.0e+0
	bl	_ZN5ImGui8ItemSizeERK6ImRectf
	add	x0, sp, 88
	mov	w3, 0
	mov	x2, 0
	mov	w1, 0
	bl	_ZN5ImGui7ItemAddERK6ImRectjPS1_i
	and	w0, w0, 255
	eor	w0, w0, 1
	and	w0, w0, 255
	cmp	w0, 0
	beq	.L693
	ldr	x0, [sp, 80]
	ldr	s0, [x0, 60]
	fadd	s0, s0, s0
	fmov	s1, s0
	movi	v0.2s, #0
	bl	_ZN5ImGui8SameLineEff
	b	.L690
.L693:
	fmov	s0, 1.0e+0
	mov	w0, 0
	bl	_ZN5ImGui11GetColorU32Eif
	str	w0, [sp, 44]
	ldr	x0, [sp, 64]
	ldr	x19, [x0, 632]
	ldr	x0, [sp, 80]
	ldr	s1, [x0, 60]
	ldr	x0, [sp, 72]
	ldr	s2, [x0, 15360]
	fmov	s0, 5.0e-1
	fmul	s0, s2, s0
	fadd	s2, s1, s0
	ldr	s1, [sp, 40]
	fmov	s0, 5.0e-1
	fmul	s0, s1, s0
	add	x0, sp, 56
	fmov	s1, s0
	fmov	s0, s2
	bl	_ZN6ImVec2C1Eff
	add	x1, sp, 56
	add	x0, sp, 88
	bl	_ZplRK6ImVec2S1_
	fmov	s2, s0
	fmov	s0, s1
	fmov	x0, d2
	fmov	w1, s0
	bfi	x0, x1, 32, 32
	mov	x1, x0
	lsr	w2, w1, 0
	lsr	x0, x0, 32
	fmov	s1, w0
	ldr	w1, [sp, 44]
	fmov	s0, w2
	mov	x0, x19
	bl	_ZN5ImGui12RenderBulletEP10ImDrawList6ImVec2j
	ldr	x0, [sp, 80]
	ldr	s0, [x0, 60]
	fadd	s0, s0, s0
	fmov	s1, s0
	movi	v0.2s, #0
	bl	_ZN5ImGui8SameLineEff
	b	.L690
.L696:
	nop
.L690:
	adrp	x0, :got:__stack_chk_guard
	ldr	x0, [x0, #:got_lo12:__stack_chk_guard]
	ldr	x2, [sp, 104]
	ldr	x1, [x0]
	subs	x2, x2, x1
	mov	x1, 0
	beq	.L695
	bl	__stack_chk_fail
.L695:
	ldp	x19, x20, [sp, 16]
	ldp	x29, x30, [sp], 112
	.cfi_restore 30
	.cfi_restore 29
	.cfi_restore 19
	.cfi_restore 20
	.cfi_def_cfa_offset 0
	ret
	.cfi_endproc
.LFE1608:
	.size	_ZN5ImGui6BulletEv, .-_ZN5ImGui6BulletEv
	.align	2
	.global	_ZN5ImGui7SpacingEv
	.type	_ZN5ImGui7SpacingEv, %function
_ZN5ImGui7SpacingEv:
.LFB1609:
	.cfi_startproc
	stp	x29, x30, [sp, -48]!
	.cfi_def_cfa_offset 48
	.cfi_offset 29, -48
	.cfi_offset 30, -40
	mov	x29, sp
	adrp	x0, :got:__stack_chk_guard
	ldr	x0, [x0, #:got_lo12:__stack_chk_guard]
	ldr	x1, [x0]
	str	x1, [sp, 40]
	mov	x1, 0
	bl	_ZN5ImGui16GetCurrentWindowEv
	str	x0, [sp, 32]
	ldr	x0, [sp, 32]
	ldrb	w0, [x0, 155]
	cmp	w0, 0
	bne	.L701
	add	x0, sp, 24
	movi	v1.2s, #0
	movi	v0.2s, #0
	bl	_ZN6ImVec2C1Eff
	add	x0, sp, 24
	fmov	s0, -1.0e+0
	bl	_ZN5ImGui8ItemSizeERK6ImVec2f
	b	.L697
.L701:
	nop
.L697:
	adrp	x0, :got:__stack_chk_guard
	ldr	x0, [x0, #:got_lo12:__stack_chk_guard]
	ldr	x2, [sp, 40]
	ldr	x1, [x0]
	subs	x2, x2, x1
	mov	x1, 0
	beq	.L700
	bl	__stack_chk_fail
.L700:
	ldp	x29, x30, [sp], 48
	.cfi_restore 30
	.cfi_restore 29
	.cfi_def_cfa_offset 0
	ret
	.cfi_endproc
.LFE1609:
	.size	_ZN5ImGui7SpacingEv, .-_ZN5ImGui7SpacingEv
	.align	2
	.global	_ZN5ImGui5DummyERK6ImVec2
	.type	_ZN5ImGui5DummyERK6ImVec2, %function
_ZN5ImGui5DummyERK6ImVec2:
.LFB1610:
	.cfi_startproc
	stp	x29, x30, [sp, -96]!
	.cfi_def_cfa_offset 96
	.cfi_offset 29, -96
	.cfi_offset 30, -88
	mov	x29, sp
	str	x19, [sp, 16]
	.cfi_offset 19, -80
	str	x0, [sp, 40]
	adrp	x0, :got:__stack_chk_guard
	ldr	x0, [x0, #:got_lo12:__stack_chk_guard]
	ldr	x1, [x0]
	str	x1, [sp, 88]
	mov	x1, 0
	bl	_ZN5ImGui16GetCurrentWindowEv
	str	x0, [sp, 64]
	ldr	x0, [sp, 64]
	ldrb	w0, [x0, 155]
	cmp	w0, 0
	bne	.L706
	ldr	x0, [sp, 64]
	add	x19, x0, 224
	ldr	x0, [sp, 64]
	add	x0, x0, 224
	ldr	x1, [sp, 40]
	bl	_ZplRK6ImVec2S1_
	fmov	s2, s0
	fmov	s0, s1
	str	s2, [sp, 56]
	str	s0, [sp, 60]
	add	x1, sp, 56
	add	x0, sp, 72
	mov	x2, x1
	mov	x1, x19
	bl	_ZN6ImRectC1ERK6ImVec2S2_
	fmov	s0, -1.0e+0
	ldr	x0, [sp, 40]
	bl	_ZN5ImGui8ItemSizeERK6ImVec2f
	add	x0, sp, 72
	mov	w3, 0
	mov	x2, 0
	mov	w1, 0
	bl	_ZN5ImGui7ItemAddERK6ImRectjPS1_i
	b	.L702
.L706:
	nop
.L702:
	adrp	x0, :got:__stack_chk_guard
	ldr	x0, [x0, #:got_lo12:__stack_chk_guard]
	ldr	x2, [sp, 88]
	ldr	x1, [x0]
	subs	x2, x2, x1
	mov	x1, 0
	beq	.L705
	bl	__stack_chk_fail
.L705:
	ldr	x19, [sp, 16]
	ldp	x29, x30, [sp], 96
	.cfi_restore 30
	.cfi_restore 29
	.cfi_restore 19
	.cfi_def_cfa_offset 0
	ret
	.cfi_endproc
.LFE1610:
	.size	_ZN5ImGui5DummyERK6ImVec2, .-_ZN5ImGui5DummyERK6ImVec2
	.align	2
	.global	_ZN5ImGui7NewLineEv
	.type	_ZN5ImGui7NewLineEv, %function
_ZN5ImGui7NewLineEv:
.LFB1611:
	.cfi_startproc
	stp	x29, x30, [sp, -64]!
	.cfi_def_cfa_offset 64
	.cfi_offset 29, -64
	.cfi_offset 30, -56
	mov	x29, sp
	adrp	x0, :got:__stack_chk_guard
	ldr	x0, [x0, #:got_lo12:__stack_chk_guard]
	ldr	x1, [x0]
	str	x1, [sp, 56]
	mov	x1, 0
	bl	_ZN5ImGui16GetCurrentWindowEv
	str	x0, [sp, 40]
	ldr	x0, [sp, 40]
	ldrb	w0, [x0, 155]
	cmp	w0, 0
	bne	.L716
	adrp	x0, :got:GImGui
	ldr	x0, [x0, #:got_lo12:GImGui]
	ldr	x0, [x0]
	str	x0, [sp, 48]
	ldr	x0, [sp, 40]
	ldr	w0, [x0, 404]
	str	w0, [sp, 28]
	ldr	x0, [sp, 40]
	mov	w1, 1
	str	w1, [x0, 404]
	ldr	x0, [sp, 40]
	strb	wzr, [x0, 288]
	ldr	x0, [sp, 40]
	ldr	s0, [x0, 268]
	fcmpe	s0, #0.0
	bgt	.L714
	b	.L715
.L714:
	add	x0, sp, 32
	movi	v1.2s, #0
	movi	v0.2s, #0
	bl	_ZN6ImVec2C1Eff
	add	x0, sp, 32
	fmov	s0, -1.0e+0
	bl	_ZN5ImGui8ItemSizeERK6ImVec2f
	b	.L712
.L715:
	ldr	x0, [sp, 48]
	ldr	s0, [x0, 15360]
	add	x0, sp, 32
	fmov	s1, s0
	movi	v0.2s, #0
	bl	_ZN6ImVec2C1Eff
	add	x0, sp, 32
	fmov	s0, -1.0e+0
	bl	_ZN5ImGui8ItemSizeERK6ImVec2f
.L712:
	ldr	x0, [sp, 40]
	ldr	w1, [sp, 28]
	str	w1, [x0, 404]
	b	.L707
.L716:
	nop
.L707:
	adrp	x0, :got:__stack_chk_guard
	ldr	x0, [x0, #:got_lo12:__stack_chk_guard]
	ldr	x2, [sp, 56]
	ldr	x1, [x0]
	subs	x2, x2, x1
	mov	x1, 0
	beq	.L713
	bl	__stack_chk_fail
.L713:
	ldp	x29, x30, [sp], 64
	.cfi_restore 30
	.cfi_restore 29
	.cfi_def_cfa_offset 0
	ret
	.cfi_endproc
.LFE1611:
	.size	_ZN5ImGui7NewLineEv, .-_ZN5ImGui7NewLineEv
	.align	2
	.global	_ZN5ImGui23AlignTextToFramePaddingEv
	.type	_ZN5ImGui23AlignTextToFramePaddingEv, %function
_ZN5ImGui23AlignTextToFramePaddingEv:
.LFB1612:
	.cfi_startproc
	stp	x29, x30, [sp, -32]!
	.cfi_def_cfa_offset 32
	.cfi_offset 29, -32
	.cfi_offset 30, -24
	mov	x29, sp
	bl	_ZN5ImGui16GetCurrentWindowEv
	str	x0, [sp, 16]
	ldr	x0, [sp, 16]
	ldrb	w0, [x0, 155]
	cmp	w0, 0
	bne	.L720
	adrp	x0, :got:GImGui
	ldr	x0, [x0, #:got_lo12:GImGui]
	ldr	x0, [x0]
	str	x0, [sp, 24]
	ldr	x0, [sp, 16]
	ldr	s2, [x0, 268]
	ldr	x0, [sp, 24]
	ldr	s1, [x0, 15360]
	ldr	x0, [sp, 24]
	ldr	s0, [x0, 14368]
	fadd	s0, s0, s0
	fadd	s0, s1, s0
	fmov	s1, s0
	fmov	s0, s2
	bl	_Z5ImMaxIfET_S0_S0_
	ldr	x0, [sp, 16]
	str	s0, [x0, 268]
	ldr	x0, [sp, 16]
	ldr	s0, [x0, 280]
	ldr	x0, [sp, 24]
	ldr	s1, [x0, 14368]
	bl	_Z5ImMaxIfET_S0_S0_
	ldr	x0, [sp, 16]
	str	s0, [x0, 280]
	b	.L717
.L720:
	nop
.L717:
	ldp	x29, x30, [sp], 32
	.cfi_restore 30
	.cfi_restore 29
	.cfi_def_cfa_offset 0
	ret
	.cfi_endproc
.LFE1612:
	.size	_ZN5ImGui23AlignTextToFramePaddingEv, .-_ZN5ImGui23AlignTextToFramePaddingEv
	.section	.rodata
	.align	3
.LC28:
	.string	"void ImGui::SeparatorEx(ImGuiSeparatorFlags)"
	.align	3
.LC29:
	.string	"ImIsPowerOfTwo(flags & (ImGuiSeparatorFlags_Horizontal | ImGuiSeparatorFlags_Vertical))"
	.align	3
.LC30:
	.string	" |"
	.align	3
.LC31:
	.string	"--------------------------------\n"
	.text
	.align	2
	.global	_ZN5ImGui11SeparatorExEi
	.type	_ZN5ImGui11SeparatorExEi, %function
_ZN5ImGui11SeparatorExEi:
.LFB1613:
	.cfi_startproc
	stp	x29, x30, [sp, -160]!
	.cfi_def_cfa_offset 160
	.cfi_offset 29, -160
	.cfi_offset 30, -152
	mov	x29, sp
	str	x19, [sp, 16]
	.cfi_offset 19, -144
	str	w0, [sp, 44]
	adrp	x0, :got:__stack_chk_guard
	ldr	x0, [x0, #:got_lo12:__stack_chk_guard]
	ldr	x1, [x0]
	str	x1, [sp, 152]
	mov	x1, 0
	bl	_ZN5ImGui16GetCurrentWindowEv
	str	x0, [sp, 104]
	ldr	x0, [sp, 104]
	ldrb	w0, [x0, 155]
	cmp	w0, 0
	bne	.L738
	adrp	x0, :got:GImGui
	ldr	x0, [x0, #:got_lo12:GImGui]
	ldr	x0, [x0]
	str	x0, [sp, 112]
	ldr	w0, [sp, 44]
	and	w0, w0, 3
	bl	_ZL14ImIsPowerOfTwoi
	and	w0, w0, 255
	cmp	w0, 0
	bne	.L724
	adrp	x0, .LC28
	add	x3, x0, :lo12:.LC28
	mov	w2, 1400
	adrp	x0, .LC13
	add	x1, x0, :lo12:.LC13
	adrp	x0, .LC29
	add	x0, x0, :lo12:.LC29
	bl	__assert_fail
.L724:
	fmov	s0, 1.0e+0
	str	s0, [sp, 72]
	str	wzr, [sp, 76]
	ldr	w0, [sp, 44]
	and	w0, w0, 2
	cmp	w0, 0
	beq	.L725
	ldr	x0, [sp, 104]
	ldr	s0, [x0, 228]
	str	s0, [sp, 80]
	ldr	x0, [sp, 104]
	ldr	s1, [x0, 228]
	ldr	x0, [sp, 104]
	ldr	s0, [x0, 268]
	fadd	s0, s1, s0
	str	s0, [sp, 84]
	ldr	x0, [sp, 104]
	ldr	s0, [x0, 224]
	add	x0, sp, 88
	ldr	s1, [sp, 80]
	bl	_ZN6ImVec2C1Eff
	ldr	x0, [sp, 104]
	ldr	s1, [x0, 224]
	ldr	s0, [sp, 72]
	fadd	s0, s1, s0
	add	x0, sp, 96
	ldr	s1, [sp, 84]
	bl	_ZN6ImVec2C1Eff
	add	x2, sp, 96
	add	x1, sp, 88
	add	x0, sp, 136
	bl	_ZN6ImRectC1ERK6ImVec2S2_
	add	x0, sp, 96
	movi	v1.2s, #0
	ldr	s0, [sp, 76]
	bl	_ZN6ImVec2C1Eff
	add	x0, sp, 96
	fmov	s0, -1.0e+0
	bl	_ZN5ImGui8ItemSizeERK6ImVec2f
	add	x0, sp, 136
	mov	w3, 0
	mov	x2, 0
	mov	w1, 0
	bl	_ZN5ImGui7ItemAddERK6ImRectjPS1_i
	and	w0, w0, 255
	eor	w0, w0, 1
	and	w0, w0, 255
	cmp	w0, 0
	bne	.L739
	ldr	x0, [sp, 104]
	ldr	x19, [x0, 632]
	ldr	s0, [sp, 136]
	ldr	s1, [sp, 140]
	add	x0, sp, 88
	bl	_ZN6ImVec2C1Eff
	ldr	s0, [sp, 136]
	ldr	s1, [sp, 148]
	add	x0, sp, 96
	bl	_ZN6ImVec2C1Eff
	fmov	s0, 1.0e+0
	mov	w0, 27
	bl	_ZN5ImGui11GetColorU32Eif
	mov	w2, w0
	add	x1, sp, 96
	add	x0, sp, 88
	fmov	s0, 1.0e+0
	mov	w3, w2
	mov	x2, x1
	mov	x1, x0
	mov	x0, x19
	bl	_ZN10ImDrawList7AddLineERK6ImVec2S2_jf
	ldr	x0, [sp, 112]
	add	x0, x0, 20480
	ldrb	w0, [x0, 3048]
	cmp	w0, 0
	beq	.L721
	adrp	x0, .LC30
	add	x0, x0, :lo12:.LC30
	bl	_ZN5ImGui7LogTextEPKcz
	b	.L721
.L725:
	ldr	w0, [sp, 44]
	and	w0, w0, 1
	cmp	w0, 0
	beq	.L721
	ldr	x0, [sp, 104]
	ldr	s0, [x0, 24]
	str	s0, [sp, 64]
	ldr	x0, [sp, 104]
	ldr	s1, [x0, 24]
	ldr	x0, [sp, 104]
	ldr	s0, [x0, 32]
	fadd	s0, s1, s0
	str	s0, [sp, 68]
	ldr	x0, [sp, 112]
	add	x0, x0, 16384
	ldr	w0, [x0, 2080]
	cmp	w0, 0
	ble	.L728
	ldr	x1, [sp, 112]
	mov	x0, 18464
	add	x0, x1, x0
	bl	_ZN8ImVectorI14ImGuiGroupDataE4backEv
	ldr	w1, [x0]
	ldr	x0, [sp, 104]
	ldr	w0, [x0, 8]
	cmp	w1, w0
	bne	.L728
	mov	w0, 1
	b	.L729
.L728:
	mov	w0, 0
.L729:
	cmp	w0, 0
	beq	.L730
	ldr	x0, [sp, 104]
	ldr	s0, [x0, 292]
	ldr	s1, [sp, 64]
	fadd	s0, s1, s0
	str	s0, [sp, 64]
.L730:
	ldr	x0, [sp, 112]
	ldr	x0, [x0, 19152]
	str	x0, [sp, 120]
	ldr	x0, [sp, 120]
	cmp	x0, 0
	beq	.L731
	ldr	x0, [sp, 120]
	add	x2, x0, 24
	ldr	x0, [sp, 120]
	ldr	w0, [x0, 124]
	mov	w1, w0
	mov	x0, x2
	bl	_ZN6ImSpanI16ImGuiTableColumnEixEi
	ldr	s0, [x0, 8]
	str	s0, [sp, 64]
	ldr	x0, [sp, 120]
	add	x2, x0, 24
	ldr	x0, [sp, 120]
	ldr	w0, [x0, 124]
	mov	w1, w0
	mov	x0, x2
	bl	_ZN6ImSpanI16ImGuiTableColumnEixEi
	ldr	s0, [x0, 12]
	str	s0, [sp, 68]
.L731:
	ldr	w0, [sp, 44]
	and	w0, w0, 4
	cmp	w0, 0
	beq	.L732
	ldr	x0, [sp, 104]
	ldr	x0, [x0, 392]
	b	.L733
.L732:
	mov	x0, 0
.L733:
	str	x0, [sp, 128]
	ldr	x0, [sp, 128]
	cmp	x0, 0
	beq	.L734
	bl	_ZN5ImGui21PushColumnsBackgroundEv
.L734:
	ldr	x0, [sp, 104]
	ldr	s0, [x0, 228]
	add	x0, sp, 88
	fmov	s1, s0
	ldr	s0, [sp, 64]
	bl	_ZN6ImVec2C1Eff
	ldr	x0, [sp, 104]
	ldr	s1, [x0, 228]
	ldr	s0, [sp, 72]
	fadd	s0, s1, s0
	add	x0, sp, 96
	fmov	s1, s0
	ldr	s0, [sp, 68]
	bl	_ZN6ImVec2C1Eff
	add	x2, sp, 96
	add	x1, sp, 88
	add	x0, sp, 136
	bl	_ZN6ImRectC1ERK6ImVec2S2_
	add	x0, sp, 96
	ldr	s1, [sp, 76]
	movi	v0.2s, #0
	bl	_ZN6ImVec2C1Eff
	add	x0, sp, 96
	fmov	s0, -1.0e+0
	bl	_ZN5ImGui8ItemSizeERK6ImVec2f
	add	x0, sp, 136
	mov	w3, 0
	mov	x2, 0
	mov	w1, 0
	bl	_ZN5ImGui7ItemAddERK6ImRectjPS1_i
	and	w0, w0, 255
	strb	w0, [sp, 63]
	ldrb	w0, [sp, 63]
	cmp	w0, 0
	beq	.L735
	ldr	x0, [sp, 104]
	ldr	x19, [x0, 632]
	ldr	s0, [sp, 144]
	ldr	s1, [sp, 140]
	add	x0, sp, 96
	bl	_ZN6ImVec2C1Eff
	fmov	s0, 1.0e+0
	mov	w0, 27
	bl	_ZN5ImGui11GetColorU32Eif
	mov	w2, w0
	add	x1, sp, 96
	add	x0, sp, 136
	fmov	s0, 1.0e+0
	mov	w3, w2
	mov	x2, x1
	mov	x1, x0
	mov	x0, x19
	bl	_ZN10ImDrawList7AddLineERK6ImVec2S2_jf
	ldr	x0, [sp, 112]
	add	x0, x0, 20480
	ldrb	w0, [x0, 3048]
	cmp	w0, 0
	beq	.L735
	add	x3, sp, 136
	mov	x2, 0
	adrp	x0, .LC31
	add	x1, x0, :lo12:.LC31
	mov	x0, x3
	bl	_ZN5ImGui15LogRenderedTextEPK6ImVec2PKcS4_
.L735:
	ldr	x0, [sp, 128]
	cmp	x0, 0
	beq	.L721
	bl	_ZN5ImGui20PopColumnsBackgroundEv
	ldr	x0, [sp, 104]
	ldr	s0, [x0, 228]
	ldr	x0, [sp, 128]
	str	s0, [x0, 28]
	b	.L721
.L738:
	nop
	b	.L721
.L739:
	nop
.L721:
	adrp	x0, :got:__stack_chk_guard
	ldr	x0, [x0, #:got_lo12:__stack_chk_guard]
	ldr	x2, [sp, 152]
	ldr	x1, [x0]
	subs	x2, x2, x1
	mov	x1, 0
	beq	.L737
	bl	__stack_chk_fail
.L737:
	ldr	x19, [sp, 16]
	ldp	x29, x30, [sp], 160
	.cfi_restore 30
	.cfi_restore 29
	.cfi_restore 19
	.cfi_def_cfa_offset 0
	ret
	.cfi_endproc
.LFE1613:
	.size	_ZN5ImGui11SeparatorExEi, .-_ZN5ImGui11SeparatorExEi
	.align	2
	.global	_ZN5ImGui9SeparatorEv
	.type	_ZN5ImGui9SeparatorEv, %function
_ZN5ImGui9SeparatorEv:
.LFB1614:
	.cfi_startproc
	stp	x29, x30, [sp, -48]!
	.cfi_def_cfa_offset 48
	.cfi_offset 29, -48
	.cfi_offset 30, -40
	mov	x29, sp
	adrp	x0, :got:GImGui
	ldr	x0, [x0, #:got_lo12:GImGui]
	ldr	x0, [x0]
	str	x0, [sp, 32]
	ldr	x0, [sp, 32]
	ldr	x0, [x0, 16032]
	str	x0, [sp, 40]
	ldr	x0, [sp, 40]
	ldrb	w0, [x0, 155]
	cmp	w0, 0
	bne	.L745
	ldr	x0, [sp, 40]
	ldr	w0, [x0, 404]
	cmp	w0, 0
	bne	.L743
	mov	w0, 2
	b	.L744
.L743:
	mov	w0, 1
.L744:
	str	w0, [sp, 28]
	ldr	w0, [sp, 28]
	orr	w0, w0, 4
	str	w0, [sp, 28]
	ldr	w0, [sp, 28]
	bl	_ZN5ImGui11SeparatorExEi
	b	.L740
.L745:
	nop
.L740:
	ldp	x29, x30, [sp], 48
	.cfi_restore 30
	.cfi_restore 29
	.cfi_def_cfa_offset 0
	ret
	.cfi_endproc
.LFE1614:
	.size	_ZN5ImGui9SeparatorEv, .-_ZN5ImGui9SeparatorEv
	.section	.rodata
	.align	3
.LC32:
	.string	"bool ImGui::SplitterBehavior(const ImRect&, ImGuiID, ImGuiAxis, float*, float*, float, float, float, float)"
	.align	3
.LC33:
	.string	"*size1 + mouse_delta >= min_size1"
	.align	3
.LC34:
	.string	"*size2 - mouse_delta >= min_size2"
	.text
	.align	2
	.global	_ZN5ImGui16SplitterBehaviorERK6ImRectj9ImGuiAxisPfS4_ffff
	.type	_ZN5ImGui16SplitterBehaviorERK6ImRectj9ImGuiAxisPfS4_ffff, %function
_ZN5ImGui16SplitterBehaviorERK6ImRectj9ImGuiAxisPfS4_ffff:
.LFB1615:
	.cfi_startproc
	stp	x29, x30, [sp, -160]!
	.cfi_def_cfa_offset 160
	.cfi_offset 29, -160
	.cfi_offset 30, -152
	mov	x29, sp
	str	x0, [sp, 56]
	str	w1, [sp, 52]
	str	w2, [sp, 48]
	str	x3, [sp, 40]
	str	x4, [sp, 32]
	str	s0, [sp, 28]
	str	s1, [sp, 24]
	str	s2, [sp, 20]
	str	s3, [sp, 16]
	adrp	x0, :got:__stack_chk_guard
	ldr	x0, [x0, #:got_lo12:__stack_chk_guard]
	ldr	x1, [x0]
	str	x1, [sp, 152]
	mov	x1, 0
	adrp	x0, :got:GImGui
	ldr	x0, [x0, #:got_lo12:GImGui]
	ldr	x0, [x0]
	str	x0, [sp, 104]
	ldr	x0, [sp, 104]
	ldr	x0, [x0, 16032]
	str	x0, [sp, 112]
	mov	w3, 8
	mov	x2, 0
	ldr	w1, [sp, 52]
	ldr	x0, [sp, 56]
	bl	_ZN5ImGui7ItemAddERK6ImRectjPS1_i
	and	w0, w0, 255
	eor	w0, w0, 1
	and	w0, w0, 255
	cmp	w0, 0
	beq	.L747
	mov	w0, 0
	b	.L777
.L747:
	ldr	x0, [sp, 56]
	ldp	x0, x1, [x0]
	stp	x0, x1, [sp, 120]
	ldr	w0, [sp, 48]
	cmp	w0, 1
	bne	.L749
	add	x0, sp, 136
	ldr	s1, [sp, 20]
	movi	v0.2s, #0
	bl	_ZN6ImVec2C1Eff
	b	.L750
.L749:
	add	x0, sp, 136
	movi	v1.2s, #0
	ldr	s0, [sp, 20]
	bl	_ZN6ImVec2C1Eff
.L750:
	add	x1, sp, 136
	add	x0, sp, 120
	bl	_ZN6ImRect6ExpandERK6ImVec2
	add	x2, sp, 71
	add	x1, sp, 70
	add	x0, sp, 120
	mov	w4, 6144
	mov	x3, x2
	mov	x2, x1
	ldr	w1, [sp, 52]
	bl	_ZN5ImGui14ButtonBehaviorERK6ImRectjPbS3_i
	ldrb	w0, [sp, 70]
	cmp	w0, 0
	beq	.L751
	ldr	x0, [sp, 104]
	add	x0, x0, 16384
	ldr	w0, [x0, 1836]
	orr	w1, w0, 1
	ldr	x0, [sp, 104]
	add	x0, x0, 16384
	str	w1, [x0, 1836]
.L751:
	ldr	x0, [sp, 104]
	ldr	w0, [x0, 16108]
	ldr	w1, [sp, 52]
	cmp	w1, w0
	beq	.L752
	bl	_ZN5ImGui19SetItemAllowOverlapEv
.L752:
	ldrb	w0, [sp, 71]
	cmp	w0, 0
	bne	.L753
	ldrb	w0, [sp, 70]
	cmp	w0, 0
	beq	.L754
	ldr	x0, [sp, 104]
	ldr	w0, [x0, 16092]
	ldr	w1, [sp, 52]
	cmp	w1, w0
	bne	.L754
	ldr	x0, [sp, 104]
	ldr	s0, [x0, 16100]
	ldr	s1, [sp, 16]
	fcmpe	s1, s0
	bls	.L753
	b	.L754
.L753:
	ldr	w0, [sp, 48]
	cmp	w0, 1
	bne	.L756
	mov	w0, 3
	b	.L757
.L756:
	mov	w0, 4
.L757:
	bl	_ZN5ImGui14SetMouseCursorEi
.L754:
	ldr	x0, [sp, 56]
	ldp	x0, x1, [x0]
	stp	x0, x1, [sp, 136]
	ldrb	w0, [sp, 71]
	cmp	w0, 0
	beq	.L758
	ldr	x0, [sp, 104]
	add	x2, x0, 3580
	ldr	x1, [sp, 104]
	mov	x0, 16128
	add	x0, x1, x0
	mov	x1, x0
	mov	x0, x2
	bl	_ZmiRK6ImVec2S1_
	fmov	s2, s0
	fmov	s0, s1
	str	s2, [sp, 96]
	str	s0, [sp, 100]
	add	x1, sp, 120
	add	x0, sp, 96
	bl	_ZmiRK6ImVec2S1_
	fmov	s2, s0
	fmov	s0, s1
	str	s2, [sp, 88]
	str	s0, [sp, 92]
	ldr	w0, [sp, 48]
	cmp	w0, 1
	bne	.L759
	ldr	s0, [sp, 92]
	b	.L760
.L759:
	ldr	s0, [sp, 88]
.L760:
	str	s0, [sp, 72]
	ldr	x0, [sp, 40]
	ldr	s1, [x0]
	ldr	s0, [sp, 28]
	fsub	s0, s1, s0
	fmov	s1, s0
	movi	v0.2s, #0
	bl	_Z5ImMaxIfET_S0_S0_
	str	s0, [sp, 76]
	ldr	x0, [sp, 32]
	ldr	s1, [x0]
	ldr	s0, [sp, 24]
	fsub	s0, s1, s0
	fmov	s1, s0
	movi	v0.2s, #0
	bl	_Z5ImMaxIfET_S0_S0_
	str	s0, [sp, 80]
	ldr	s0, [sp, 76]
	fneg	s0, s0
	ldr	s1, [sp, 72]
	fcmpe	s1, s0
	bmi	.L779
	b	.L761
.L779:
	ldr	s0, [sp, 76]
	fneg	s0, s0
	str	s0, [sp, 72]
.L761:
	ldr	s1, [sp, 72]
	ldr	s0, [sp, 80]
	fcmpe	s1, s0
	bgt	.L780
	b	.L763
.L780:
	ldr	s0, [sp, 80]
	str	s0, [sp, 72]
.L763:
	ldr	s0, [sp, 72]
	fcmp	s0, #0.0
	beq	.L758
	ldr	s0, [sp, 72]
	fcmpe	s0, #0.0
	bmi	.L781
	b	.L766
.L781:
	ldr	x0, [sp, 40]
	ldr	s1, [x0]
	ldr	s0, [sp, 72]
	fadd	s0, s1, s0
	ldr	s1, [sp, 28]
	fcmpe	s1, s0
	bls	.L766
	adrp	x0, .LC32
	add	x3, x0, :lo12:.LC32
	mov	w2, 1514
	adrp	x0, .LC13
	add	x1, x0, :lo12:.LC13
	adrp	x0, .LC33
	add	x0, x0, :lo12:.LC33
	bl	__assert_fail
.L766:
	ldr	s0, [sp, 72]
	fcmpe	s0, #0.0
	bgt	.L782
	b	.L768
.L782:
	ldr	x0, [sp, 32]
	ldr	s1, [x0]
	ldr	s0, [sp, 72]
	fsub	s0, s1, s0
	ldr	s1, [sp, 24]
	fcmpe	s1, s0
	bls	.L768
	adrp	x0, .LC32
	add	x3, x0, :lo12:.LC32
	mov	w2, 1516
	adrp	x0, .LC13
	add	x1, x0, :lo12:.LC13
	adrp	x0, .LC34
	add	x0, x0, :lo12:.LC34
	bl	__assert_fail
.L768:
	ldr	x0, [sp, 40]
	ldr	s1, [x0]
	ldr	s0, [sp, 72]
	fadd	s0, s1, s0
	ldr	x0, [sp, 40]
	str	s0, [x0]
	ldr	x0, [sp, 32]
	ldr	s1, [x0]
	ldr	s0, [sp, 72]
	fsub	s0, s1, s0
	ldr	x0, [sp, 32]
	str	s0, [x0]
	ldr	w0, [sp, 48]
	cmp	w0, 0
	bne	.L770
	add	x0, sp, 96
	movi	v1.2s, #0
	ldr	s0, [sp, 72]
	bl	_ZN6ImVec2C1Eff
	b	.L771
.L770:
	add	x0, sp, 96
	ldr	s1, [sp, 72]
	movi	v0.2s, #0
	bl	_ZN6ImVec2C1Eff
.L771:
	add	x1, sp, 96
	add	x0, sp, 136
	bl	_ZN6ImRect9TranslateERK6ImVec2
	ldr	w0, [sp, 52]
	bl	_ZN5ImGui14MarkItemEditedEj
.L758:
	ldrb	w0, [sp, 71]
	cmp	w0, 0
	beq	.L772
	mov	w0, 29
	b	.L773
.L772:
	ldrb	w0, [sp, 70]
	cmp	w0, 0
	beq	.L774
	ldr	x0, [sp, 104]
	ldr	s0, [x0, 16100]
	ldr	s1, [sp, 16]
	fcmpe	s1, s0
	bls	.L783
	b	.L774
.L783:
	mov	w0, 28
	b	.L773
.L774:
	mov	w0, 27
.L773:
	fmov	s0, 1.0e+0
	bl	_ZN5ImGui11GetColorU32Eif
	str	w0, [sp, 84]
	ldr	x0, [sp, 112]
	ldr	x5, [x0, 632]
	add	x0, sp, 136
	add	x1, x0, 8
	add	x0, sp, 136
	mov	w4, 0
	movi	v0.2s, #0
	ldr	w3, [sp, 84]
	mov	x2, x1
	mov	x1, x0
	mov	x0, x5
	bl	_ZN10ImDrawList13AddRectFilledERK6ImVec2S2_jfi
	ldrb	w0, [sp, 71]
.L777:
	mov	w1, w0
	adrp	x0, :got:__stack_chk_guard
	ldr	x0, [x0, #:got_lo12:__stack_chk_guard]
	ldr	x3, [sp, 152]
	ldr	x2, [x0]
	subs	x3, x3, x2
	mov	x2, 0
	beq	.L778
	bl	__stack_chk_fail
.L778:
	mov	w0, w1
	ldp	x29, x30, [sp], 160
	.cfi_restore 30
	.cfi_restore 29
	.cfi_def_cfa_offset 0
	ret
	.cfi_endproc
.LFE1615:
	.size	_ZN5ImGui16SplitterBehaviorERK6ImRectj9ImGuiAxisPfS4_ffff, .-_ZN5ImGui16SplitterBehaviorERK6ImRectj9ImGuiAxisPfS4_ffff
	.align	2
	.type	_ZL23ShrinkWidthItemComparerPKvS0_, %function
_ZL23ShrinkWidthItemComparerPKvS0_:
.LFB1616:
	.cfi_startproc
	sub	sp, sp, #48
	.cfi_def_cfa_offset 48
	str	x0, [sp, 8]
	str	x1, [sp]
	ldr	x0, [sp, 8]
	str	x0, [sp, 32]
	ldr	x0, [sp]
	str	x0, [sp, 40]
	ldr	x0, [sp, 40]
	ldr	s1, [x0, 4]
	ldr	x0, [sp, 32]
	ldr	s0, [x0, 4]
	fsub	s0, s1, s0
	fcvtzs	s0, s0
	str	s0, [sp, 28]
	ldr	w0, [sp, 28]
	cmp	w0, 0
	beq	.L785
	ldr	w0, [sp, 28]
	b	.L786
.L785:
	ldr	x0, [sp, 40]
	ldr	w1, [x0]
	ldr	x0, [sp, 32]
	ldr	w0, [x0]
	sub	w0, w1, w0
.L786:
	add	sp, sp, 48
	.cfi_def_cfa_offset 0
	ret
	.cfi_endproc
.LFE1616:
	.size	_ZL23ShrinkWidthItemComparerPKvS0_, .-_ZL23ShrinkWidthItemComparerPKvS0_
	.align	2
	.global	_ZN5ImGui12ShrinkWidthsEP20ImGuiShrinkWidthItemif
	.type	_ZN5ImGui12ShrinkWidthsEP20ImGuiShrinkWidthItemif, %function
_ZN5ImGui12ShrinkWidthsEP20ImGuiShrinkWidthItemif:
.LFB1617:
	.cfi_startproc
	stp	x29, x30, [sp, -64]!
	.cfi_def_cfa_offset 64
	.cfi_offset 29, -64
	.cfi_offset 30, -56
	mov	x29, sp
	str	x0, [sp, 24]
	str	w1, [sp, 20]
	str	s0, [sp, 16]
	ldr	w0, [sp, 20]
	cmp	w0, 1
	bne	.L788
	ldr	x0, [sp, 24]
	ldr	s0, [x0, 4]
	fcmpe	s0, #0.0
	bge	.L812
	b	.L787
.L812:
	ldr	x0, [sp, 24]
	ldr	s1, [x0, 4]
	ldr	s0, [sp, 16]
	fsub	s0, s1, s0
	fmov	s1, 1.0e+0
	bl	_Z5ImMaxIfET_S0_S0_
	ldr	x0, [sp, 24]
	str	s0, [x0, 4]
	b	.L787
.L788:
	ldrsw	x1, [sp, 20]
	adrp	x0, _ZL23ShrinkWidthItemComparerPKvS0_
	add	x3, x0, :lo12:_ZL23ShrinkWidthItemComparerPKvS0_
	mov	x2, 12
	ldr	x0, [sp, 24]
	bl	_ZL7ImQsortPvmmPFiPKvS1_E
	mov	w0, 1
	str	w0, [sp, 32]
	b	.L792
.L795:
	ldr	w0, [sp, 32]
	add	w0, w0, 1
	str	w0, [sp, 32]
.L793:
	ldr	w1, [sp, 32]
	ldr	w0, [sp, 20]
	cmp	w1, w0
	bge	.L794
	ldr	x0, [sp, 24]
	ldr	s1, [x0, 4]
	ldrsw	x1, [sp, 32]
	mov	x0, x1
	lsl	x0, x0, 1
	add	x0, x0, x1
	lsl	x0, x0, 2
	mov	x1, x0
	ldr	x0, [sp, 24]
	add	x0, x0, x1
	ldr	s0, [x0, 4]
	fcmpe	s1, s0
	bls	.L795
.L794:
	ldr	w1, [sp, 32]
	ldr	w0, [sp, 20]
	cmp	w1, w0
	bge	.L796
	ldrsw	x1, [sp, 32]
	mov	x0, x1
	lsl	x0, x0, 1
	add	x0, x0, x1
	lsl	x0, x0, 2
	mov	x1, x0
	ldr	x0, [sp, 24]
	add	x0, x0, x1
	ldr	s0, [x0, 4]
	fcmpe	s0, #0.0
	bge	.L813
	b	.L796
.L813:
	ldr	x0, [sp, 24]
	ldr	s1, [x0, 4]
	ldrsw	x1, [sp, 32]
	mov	x0, x1
	lsl	x0, x0, 1
	add	x0, x0, x1
	lsl	x0, x0, 2
	mov	x1, x0
	ldr	x0, [sp, 24]
	add	x0, x0, x1
	ldr	s0, [x0, 4]
	fsub	s0, s1, s0
	b	.L798
.L796:
	ldr	x0, [sp, 24]
	ldr	s1, [x0, 4]
	fmov	s0, 1.0e+0
	fsub	s0, s1, s0
.L798:
	str	s0, [sp, 48]
	ldr	s0, [sp, 48]
	fcmpe	s0, #0.0
	bls	.L815
	ldr	s0, [sp, 32]
	scvtf	s0, s0
	ldr	s1, [sp, 16]
	fdiv	s0, s1, s0
	ldr	s1, [sp, 48]
	bl	_Z5ImMinIfET_S0_S0_
	str	s0, [sp, 52]
	str	wzr, [sp, 36]
	b	.L802
.L803:
	ldrsw	x1, [sp, 36]
	mov	x0, x1
	lsl	x0, x0, 1
	add	x0, x0, x1
	lsl	x0, x0, 2
	mov	x1, x0
	ldr	x0, [sp, 24]
	add	x0, x0, x1
	ldr	s1, [x0, 4]
	ldrsw	x1, [sp, 36]
	mov	x0, x1
	lsl	x0, x0, 1
	add	x0, x0, x1
	lsl	x0, x0, 2
	mov	x1, x0
	ldr	x0, [sp, 24]
	add	x0, x0, x1
	ldr	s0, [sp, 52]
	fsub	s0, s1, s0
	str	s0, [x0, 4]
	ldr	w0, [sp, 36]
	add	w0, w0, 1
	str	w0, [sp, 36]
.L802:
	ldr	w1, [sp, 36]
	ldr	w0, [sp, 32]
	cmp	w1, w0
	blt	.L803
	ldr	s0, [sp, 32]
	scvtf	s1, s0
	ldr	s0, [sp, 52]
	fmul	s0, s1, s0
	ldr	s1, [sp, 16]
	fsub	s0, s1, s0
	str	s0, [sp, 16]
.L792:
	ldr	s0, [sp, 16]
	fcmpe	s0, #0.0
	bgt	.L814
	b	.L801
.L814:
	ldr	w1, [sp, 32]
	ldr	w0, [sp, 20]
	cmp	w1, w0
	blt	.L793
	b	.L801
.L815:
	nop
.L801:
	str	wzr, [sp, 16]
	str	wzr, [sp, 40]
	b	.L806
.L807:
	ldrsw	x1, [sp, 40]
	mov	x0, x1
	lsl	x0, x0, 1
	add	x0, x0, x1
	lsl	x0, x0, 2
	mov	x1, x0
	ldr	x0, [sp, 24]
	add	x0, x0, x1
	ldr	s0, [x0, 4]
	bl	_ZL7ImFloorf
	str	s0, [sp, 60]
	ldrsw	x1, [sp, 40]
	mov	x0, x1
	lsl	x0, x0, 1
	add	x0, x0, x1
	lsl	x0, x0, 2
	mov	x1, x0
	ldr	x0, [sp, 24]
	add	x0, x0, x1
	ldr	s1, [x0, 4]
	ldr	s0, [sp, 60]
	fsub	s0, s1, s0
	ldr	s1, [sp, 16]
	fadd	s0, s1, s0
	str	s0, [sp, 16]
	ldrsw	x1, [sp, 40]
	mov	x0, x1
	lsl	x0, x0, 1
	add	x0, x0, x1
	lsl	x0, x0, 2
	mov	x1, x0
	ldr	x0, [sp, 24]
	add	x0, x0, x1
	ldr	s0, [sp, 60]
	str	s0, [x0, 4]
	ldr	w0, [sp, 40]
	add	w0, w0, 1
	str	w0, [sp, 40]
.L806:
	ldr	w1, [sp, 40]
	ldr	w0, [sp, 20]
	cmp	w1, w0
	blt	.L807
	b	.L808
.L811:
	str	wzr, [sp, 44]
	b	.L809
.L810:
	ldrsw	x1, [sp, 44]
	mov	x0, x1
	lsl	x0, x0, 1
	add	x0, x0, x1
	lsl	x0, x0, 2
	mov	x1, x0
	ldr	x0, [sp, 24]
	add	x0, x0, x1
	ldr	s1, [x0, 8]
	ldrsw	x1, [sp, 44]
	mov	x0, x1
	lsl	x0, x0, 1
	add	x0, x0, x1
	lsl	x0, x0, 2
	mov	x1, x0
	ldr	x0, [sp, 24]
	add	x0, x0, x1
	ldr	s0, [x0, 4]
	fsub	s0, s1, s0
	fmov	s1, 1.0e+0
	bl	_Z5ImMinIfET_S0_S0_
	str	s0, [sp, 56]
	ldrsw	x1, [sp, 44]
	mov	x0, x1
	lsl	x0, x0, 1
	add	x0, x0, x1
	lsl	x0, x0, 2
	mov	x1, x0
	ldr	x0, [sp, 24]
	add	x0, x0, x1
	ldr	s1, [x0, 4]
	ldrsw	x1, [sp, 44]
	mov	x0, x1
	lsl	x0, x0, 1
	add	x0, x0, x1
	lsl	x0, x0, 2
	mov	x1, x0
	ldr	x0, [sp, 24]
	add	x0, x0, x1
	ldr	s0, [sp, 56]
	fadd	s0, s1, s0
	str	s0, [x0, 4]
	ldr	s1, [sp, 16]
	ldr	s0, [sp, 56]
	fsub	s0, s1, s0
	str	s0, [sp, 16]
	ldr	w0, [sp, 44]
	add	w0, w0, 1
	str	w0, [sp, 44]
.L809:
	ldr	w1, [sp, 44]
	ldr	w0, [sp, 20]
	cmp	w1, w0
	bge	.L808
	ldr	s0, [sp, 16]
	fcmpe	s0, #0.0
	bgt	.L810
.L808:
	ldr	s0, [sp, 16]
	fcmpe	s0, #0.0
	bgt	.L811
.L787:
	ldp	x29, x30, [sp], 64
	.cfi_restore 30
	.cfi_restore 29
	.cfi_def_cfa_offset 0
	ret
	.cfi_endproc
.LFE1617:
	.size	_ZN5ImGui12ShrinkWidthsEP20ImGuiShrinkWidthItemif, .-_ZN5ImGui12ShrinkWidthsEP20ImGuiShrinkWidthItemif
	.align	2
	.type	_ZL31CalcMaxPopupHeightFromItemCounti, %function
_ZL31CalcMaxPopupHeightFromItemCounti:
.LFB1618:
	.cfi_startproc
	sub	sp, sp, #32
	.cfi_def_cfa_offset 32
	str	w0, [sp, 12]
	adrp	x0, :got:GImGui
	ldr	x0, [x0, #:got_lo12:GImGui]
	ldr	x0, [x0]
	str	x0, [sp, 24]
	ldr	w0, [sp, 12]
	cmp	w0, 0
	bgt	.L817
	mov	w0, 2139095039
	fmov	s0, w0
	b	.L818
.L817:
	ldr	x0, [sp, 24]
	ldr	s1, [x0, 15360]
	ldr	x0, [sp, 24]
	ldr	s0, [x0, 14384]
	fadd	s1, s1, s0
	ldr	s0, [sp, 12]
	scvtf	s0, s0
	fmul	s1, s1, s0
	ldr	x0, [sp, 24]
	ldr	s0, [x0, 14384]
	fsub	s1, s1, s0
	ldr	x0, [sp, 24]
	ldr	s0, [x0, 14316]
	fadd	s0, s0, s0
	fadd	s0, s1, s0
.L818:
	add	sp, sp, 32
	.cfi_def_cfa_offset 0
	ret
	.cfi_endproc
.LFE1618:
	.size	_ZL31CalcMaxPopupHeightFromItemCounti, .-_ZL31CalcMaxPopupHeightFromItemCounti
	.section	.rodata
	.align	3
.LC35:
	.string	"bool ImGui::BeginCombo(const char*, const char*, ImGuiComboFlags)"
	.align	3
.LC36:
	.string	"(flags & (ImGuiComboFlags_NoArrowButton | ImGuiComboFlags_NoPreview)) != (ImGuiComboFlags_NoArrowButton | ImGuiComboFlags_NoPreview)"
	.align	3
.LC37:
	.string	"##ComboPopup"
	.align	3
.LC38:
	.string	"preview_value == __null || preview_value[0] == 0"
	.align	3
.LC39:
	.string	"}"
	.align	3
.LC40:
	.string	"{"
	.text
	.align	2
	.global	_ZN5ImGui10BeginComboEPKcS1_i
	.type	_ZN5ImGui10BeginComboEPKcS1_i, %function
_ZN5ImGui10BeginComboEPKcS1_i:
.LFB1619:
	.cfi_startproc
	stp	x29, x30, [sp, -208]!
	.cfi_def_cfa_offset 208
	.cfi_offset 29, -208
	.cfi_offset 30, -200
	mov	x29, sp
	stp	x19, x20, [sp, 16]
	.cfi_offset 19, -192
	.cfi_offset 20, -184
	str	x0, [sp, 56]
	str	x1, [sp, 48]
	str	w2, [sp, 44]
	adrp	x0, :got:__stack_chk_guard
	ldr	x0, [x0, #:got_lo12:__stack_chk_guard]
	ldr	x1, [x0]
	str	x1, [sp, 200]
	mov	x1, 0
	adrp	x0, :got:GImGui
	ldr	x0, [x0, #:got_lo12:GImGui]
	ldr	x0, [x0]
	str	x0, [sp, 128]
	bl	_ZN5ImGui16GetCurrentWindowEv
	str	x0, [sp, 136]
	ldr	x0, [sp, 128]
	add	x0, x0, 16384
	ldr	w0, [x0, 1888]
	str	w0, [sp, 68]
	ldr	x1, [sp, 128]
	mov	x0, 18272
	add	x0, x1, x0
	bl	_ZN19ImGuiNextWindowData10ClearFlagsEv
	ldr	x0, [sp, 136]
	ldrb	w0, [x0, 155]
	cmp	w0, 0
	beq	.L820
	mov	w0, 0
	b	.L852
.L820:
	ldr	x1, [sp, 128]
	mov	x0, 14304
	add	x0, x1, x0
	str	x0, [sp, 144]
	mov	x2, 0
	ldr	x1, [sp, 56]
	ldr	x0, [sp, 136]
	bl	_ZN11ImGuiWindow5GetIDEPKcS1_
	str	w0, [sp, 72]
	ldr	w0, [sp, 44]
	and	w0, w0, 96
	cmp	w0, 96
	bne	.L822
	adrp	x0, .LC35
	add	x3, x0, :lo12:.LC35
	mov	w2, 1615
	adrp	x0, .LC13
	add	x1, x0, :lo12:.LC13
	adrp	x0, .LC36
	add	x0, x0, :lo12:.LC36
	bl	__assert_fail
.L822:
	ldr	w0, [sp, 44]
	and	w0, w0, 32
	cmp	w0, 0
	bne	.L823
	bl	_ZN5ImGui14GetFrameHeightEv
	b	.L824
.L823:
	movi	v0.2s, #0
.L824:
	str	s0, [sp, 76]
	fmov	s0, -1.0e+0
	mov	w2, 1
	mov	x1, 0
	ldr	x0, [sp, 56]
	bl	_ZN5ImGui12CalcTextSizeEPKcS1_bf
	fmov	s2, s0
	fmov	s0, s1
	str	s2, [sp, 104]
	str	s0, [sp, 108]
	ldr	w0, [sp, 44]
	and	w0, w0, 64
	cmp	w0, 0
	bne	.L825
	bl	_ZN5ImGui13CalcItemWidthEv
	b	.L826
.L825:
	ldr	s0, [sp, 76]
.L826:
	str	s0, [sp, 80]
	ldr	x0, [sp, 136]
	add	x19, x0, 224
	ldr	x0, [sp, 136]
	add	x20, x0, 224
	ldr	s1, [sp, 108]
	ldr	x0, [sp, 144]
	ldr	s0, [x0, 64]
	fadd	s0, s0, s0
	fadd	s0, s1, s0
	add	x0, sp, 168
	fmov	s1, s0
	ldr	s0, [sp, 80]
	bl	_ZN6ImVec2C1Eff
	add	x0, sp, 168
	mov	x1, x0
	mov	x0, x20
	bl	_ZplRK6ImVec2S1_
	fmov	s2, s0
	fmov	s0, s1
	str	s2, [sp, 184]
	str	s0, [sp, 188]
	add	x1, sp, 184
	add	x0, sp, 152
	mov	x2, x1
	mov	x1, x19
	bl	_ZN6ImRectC1ERK6ImVec2S2_
	ldr	s0, [sp, 104]
	fcmpe	s0, #0.0
	bgt	.L854
	b	.L858
.L854:
	ldr	x0, [sp, 144]
	ldr	s1, [x0, 84]
	ldr	s0, [sp, 104]
	fadd	s0, s1, s0
	b	.L829
.L858:
	movi	v0.2s, #0
.L829:
	add	x0, sp, 120
	movi	v1.2s, #0
	bl	_ZN6ImVec2C1Eff
	add	x1, sp, 120
	add	x0, sp, 152
	add	x0, x0, 8
	bl	_ZplRK6ImVec2S1_
	fmov	s2, s0
	fmov	s0, s1
	str	s2, [sp, 184]
	str	s0, [sp, 188]
	add	x2, sp, 184
	add	x1, sp, 152
	add	x0, sp, 168
	bl	_ZN6ImRectC1ERK6ImVec2S2_
	ldr	x0, [sp, 144]
	ldr	s0, [x0, 64]
	add	x0, sp, 168
	bl	_ZN5ImGui8ItemSizeERK6ImRectf
	add	x1, sp, 152
	add	x0, sp, 168
	mov	w3, 0
	mov	x2, x1
	ldr	w1, [sp, 72]
	bl	_ZN5ImGui7ItemAddERK6ImRectjPS1_i
	and	w0, w0, 255
	eor	w0, w0, 1
	and	w0, w0, 255
	cmp	w0, 0
	beq	.L830
	mov	w0, 0
	b	.L852
.L830:
	add	x2, sp, 65
	add	x1, sp, 64
	add	x0, sp, 152
	mov	w4, 0
	mov	x3, x2
	mov	x2, x1
	ldr	w1, [sp, 72]
	bl	_ZN5ImGui14ButtonBehaviorERK6ImRectjPbS3_i
	and	w0, w0, 255
	strb	w0, [sp, 67]
	ldr	w2, [sp, 72]
	mov	x1, 0
	adrp	x0, .LC37
	add	x0, x0, :lo12:.LC37
	bl	_Z9ImHashStrPKcmj
	str	w0, [sp, 84]
	mov	w1, 0
	ldr	w0, [sp, 84]
	bl	_ZN5ImGui11IsPopupOpenEji
	and	w0, w0, 255
	strb	w0, [sp, 66]
	ldrb	w0, [sp, 67]
	cmp	w0, 0
	beq	.L831
	ldrb	w0, [sp, 66]
	eor	w0, w0, 1
	and	w0, w0, 255
	cmp	w0, 0
	beq	.L831
	mov	w1, 0
	ldr	w0, [sp, 84]
	bl	_ZN5ImGui11OpenPopupExEji
	mov	w0, 1
	strb	w0, [sp, 66]
.L831:
	ldrb	w0, [sp, 64]
	cmp	w0, 0
	beq	.L832
	mov	w0, 8
	b	.L833
.L832:
	mov	w0, 7
.L833:
	fmov	s0, 1.0e+0
	bl	_ZN5ImGui11GetColorU32Eif
	str	w0, [sp, 88]
	ldr	s2, [sp, 152]
	ldr	s1, [sp, 160]
	ldr	s0, [sp, 76]
	fsub	s0, s1, s0
	fmov	s1, s0
	fmov	s0, s2
	bl	_Z5ImMaxIfET_S0_S0_
	str	s0, [sp, 92]
	add	x0, sp, 152
	mov	w2, 1
	ldr	w1, [sp, 72]
	bl	_ZN5ImGui18RenderNavHighlightERK6ImRectji
	ldr	w0, [sp, 44]
	and	w0, w0, 64
	cmp	w0, 0
	bne	.L834
	ldr	x0, [sp, 136]
	ldr	x19, [x0, 632]
	ldr	s0, [sp, 164]
	add	x0, sp, 184
	fmov	s1, s0
	ldr	s0, [sp, 92]
	bl	_ZN6ImVec2C1Eff
	ldr	x0, [sp, 144]
	ldr	s0, [x0, 68]
	ldr	w0, [sp, 44]
	and	w0, w0, 32
	cmp	w0, 0
	beq	.L835
	mov	w0, 240
	b	.L836
.L835:
	mov	w0, 80
.L836:
	add	x2, sp, 184
	add	x1, sp, 152
	mov	w4, w0
	ldr	w3, [sp, 88]
	mov	x0, x19
	bl	_ZN10ImDrawList13AddRectFilledERK6ImVec2S2_jfi
.L834:
	ldr	w0, [sp, 44]
	and	w0, w0, 32
	cmp	w0, 0
	bne	.L837
	ldrb	w0, [sp, 66]
	cmp	w0, 0
	bne	.L838
	ldrb	w0, [sp, 64]
	cmp	w0, 0
	beq	.L839
.L838:
	mov	w0, 22
	b	.L840
.L839:
	mov	w0, 21
.L840:
	fmov	s0, 1.0e+0
	bl	_ZN5ImGui11GetColorU32Eif
	str	w0, [sp, 96]
	fmov	s0, 1.0e+0
	mov	w0, 0
	bl	_ZN5ImGui11GetColorU32Eif
	str	w0, [sp, 100]
	ldr	x0, [sp, 136]
	ldr	x19, [x0, 632]
	ldr	s0, [sp, 156]
	add	x0, sp, 184
	fmov	s1, s0
	ldr	s0, [sp, 92]
	bl	_ZN6ImVec2C1Eff
	ldr	x0, [sp, 144]
	ldr	s2, [x0, 68]
	ldr	s1, [sp, 80]
	ldr	s0, [sp, 76]
	fcmpe	s1, s0
	bls	.L855
	b	.L859
.L855:
	mov	w0, 240
	b	.L843
.L859:
	mov	w0, 160
.L843:
	add	x1, sp, 152
	add	x2, x1, 8
	add	x1, sp, 184
	mov	w4, w0
	fmov	s0, s2
	ldr	w3, [sp, 96]
	mov	x0, x19
	bl	_ZN10ImDrawList13AddRectFilledERK6ImVec2S2_jfi
	ldr	s1, [sp, 92]
	ldr	s0, [sp, 76]
	fadd	s1, s1, s0
	ldr	x0, [sp, 144]
	ldr	s0, [x0, 60]
	fsub	s1, s1, s0
	ldr	s0, [sp, 160]
	fcmpe	s1, s0
	bls	.L856
	b	.L837
.L856:
	ldr	x0, [sp, 136]
	ldr	x19, [x0, 632]
	ldr	x0, [sp, 144]
	ldr	s1, [x0, 64]
	ldr	s0, [sp, 92]
	fadd	s2, s1, s0
	ldr	s1, [sp, 156]
	ldr	x0, [sp, 144]
	ldr	s0, [x0, 64]
	fadd	s0, s1, s0
	add	x0, sp, 184
	fmov	s1, s0
	fmov	s0, s2
	bl	_ZN6ImVec2C1Eff
	ldr	s0, [sp, 184]
	ldr	s1, [sp, 188]
	fmov	s2, 1.0e+0
	mov	w2, 3
	ldr	w1, [sp, 100]
	mov	x0, x19
	bl	_ZN5ImGui11RenderArrowEP10ImDrawList6ImVec2jif
.L837:
	ldr	x0, [sp, 144]
	ldr	s4, [x0, 68]
	ldr	s2, [sp, 160]
	ldr	s3, [sp, 164]
	ldr	s0, [sp, 152]
	ldr	s1, [sp, 156]
	bl	_ZN5ImGui17RenderFrameBorderE6ImVec2S0_f
	ldr	w0, [sp, 44]
	and	w0, w0, 1048576
	cmp	w0, 0
	beq	.L845
	ldr	s0, [sp, 152]
	ldr	s1, [sp, 156]
	ldr	s2, [sp, 164]
	add	x0, sp, 184
	fmov	s3, s2
	ldr	s2, [sp, 92]
	bl	_ZN6ImRectC1Effff
	ldr	x1, [sp, 128]
	mov	x0, 23040
	add	x0, x1, x0
	add	x2, x0, 188
	ldp	x0, x1, [sp, 184]
	stp	x0, x1, [x2]
	ldr	x0, [sp, 48]
	cmp	x0, 0
	beq	.L846
	ldr	x0, [sp, 48]
	ldrb	w0, [x0]
	cmp	w0, 0
	beq	.L846
	adrp	x0, .LC35
	add	x3, x0, :lo12:.LC35
	mov	w2, 1657
	adrp	x0, .LC13
	add	x1, x0, :lo12:.LC13
	adrp	x0, .LC38
	add	x0, x0, :lo12:.LC38
	bl	__assert_fail
.L846:
	str	xzr, [sp, 48]
.L845:
	ldr	x0, [sp, 48]
	cmp	x0, 0
	beq	.L847
	ldr	w0, [sp, 44]
	and	w0, w0, 64
	cmp	w0, 0
	bne	.L847
	ldr	x0, [sp, 128]
	add	x0, x0, 20480
	ldrb	w0, [x0, 3048]
	cmp	w0, 0
	beq	.L848
	adrp	x0, .LC39
	add	x1, x0, :lo12:.LC39
	adrp	x0, .LC40
	add	x0, x0, :lo12:.LC40
	bl	_ZN5ImGui24LogSetNextTextDecorationEPKcS1_
.L848:
	ldr	x0, [sp, 144]
	add	x1, x0, 60
	add	x0, sp, 152
	bl	_ZplRK6ImVec2S1_
	fmov	s2, s0
	fmov	s0, s1
	str	s2, [sp, 112]
	str	s0, [sp, 116]
	ldr	s0, [sp, 164]
	add	x0, sp, 120
	fmov	s1, s0
	ldr	s0, [sp, 92]
	bl	_ZN6ImVec2C1Eff
	add	x0, sp, 184
	movi	v1.2s, #0
	movi	v0.2s, #0
	bl	_ZN6ImVec2C1Eff
	add	x2, sp, 184
	add	x1, sp, 120
	add	x0, sp, 112
	mov	x6, 0
	mov	x5, x2
	mov	x4, 0
	mov	x3, 0
	ldr	x2, [sp, 48]
	bl	_ZN5ImGui17RenderTextClippedERK6ImVec2S2_PKcS4_PS1_S2_PK6ImRect
.L847:
	ldr	s0, [sp, 104]
	fcmpe	s0, #0.0
	bgt	.L857
	b	.L849
.L857:
	ldr	s1, [sp, 160]
	ldr	x0, [sp, 144]
	ldr	s0, [x0, 84]
	fadd	s2, s1, s0
	ldr	s1, [sp, 156]
	ldr	x0, [sp, 144]
	ldr	s0, [x0, 64]
	fadd	s0, s1, s0
	add	x0, sp, 184
	fmov	s1, s0
	fmov	s0, s2
	bl	_ZN6ImVec2C1Eff
	ldr	s0, [sp, 184]
	ldr	s1, [sp, 188]
	mov	w2, 1
	mov	x1, 0
	ldr	x0, [sp, 56]
	bl	_ZN5ImGui10RenderTextE6ImVec2PKcS2_b
.L849:
	ldrb	w0, [sp, 66]
	eor	w0, w0, 1
	and	w0, w0, 255
	cmp	w0, 0
	beq	.L851
	mov	w0, 0
	b	.L852
.L851:
	ldr	x0, [sp, 128]
	add	x0, x0, 16384
	ldr	w1, [sp, 68]
	str	w1, [x0, 1888]
	add	x0, sp, 152
	ldr	w2, [sp, 44]
	mov	x1, x0
	ldr	w0, [sp, 84]
	bl	_ZN5ImGui15BeginComboPopupEjRK6ImRecti
	and	w0, w0, 255
	nop
.L852:
	mov	w1, w0
	adrp	x0, :got:__stack_chk_guard
	ldr	x0, [x0, #:got_lo12:__stack_chk_guard]
	ldr	x3, [sp, 200]
	ldr	x2, [x0]
	subs	x3, x3, x2
	mov	x2, 0
	beq	.L853
	bl	__stack_chk_fail
.L853:
	mov	w0, w1
	ldp	x19, x20, [sp, 16]
	ldp	x29, x30, [sp], 208
	.cfi_restore 30
	.cfi_restore 29
	.cfi_restore 19
	.cfi_restore 20
	.cfi_def_cfa_offset 0
	ret
	.cfi_endproc
.LFE1619:
	.size	_ZN5ImGui10BeginComboEPKcS1_i, .-_ZN5ImGui10BeginComboEPKcS1_i
	.section	.rodata
	.align	3
.LC41:
	.string	"bool ImGui::BeginComboPopup(ImGuiID, const ImRect&, ImGuiComboFlags)"
	.align	3
.LC42:
	.string	"ImIsPowerOfTwo(flags & ImGuiComboFlags_HeightMask_)"
	.align	3
.LC43:
	.string	"##Combo_%02d"
	.align	3
.LC44:
	.string	"0"
	.text
	.align	2
	.global	_ZN5ImGui15BeginComboPopupEjRK6ImRecti
	.type	_ZN5ImGui15BeginComboPopupEjRK6ImRecti, %function
_ZN5ImGui15BeginComboPopupEjRK6ImRecti:
.LFB1620:
	.cfi_startproc
	stp	x29, x30, [sp, -128]!
	.cfi_def_cfa_offset 128
	.cfi_offset 29, -128
	.cfi_offset 30, -120
	mov	x29, sp
	str	w0, [sp, 28]
	str	x1, [sp, 16]
	str	w2, [sp, 24]
	adrp	x0, :got:__stack_chk_guard
	ldr	x0, [x0, #:got_lo12:__stack_chk_guard]
	ldr	x1, [x0]
	str	x1, [sp, 120]
	mov	x1, 0
	adrp	x0, :got:GImGui
	ldr	x0, [x0, #:got_lo12:GImGui]
	ldr	x0, [x0]
	str	x0, [sp, 72]
	mov	w1, 0
	ldr	w0, [sp, 28]
	bl	_ZN5ImGui11IsPopupOpenEji
	and	w0, w0, 255
	eor	w0, w0, 1
	and	w0, w0, 255
	cmp	w0, 0
	beq	.L861
	ldr	x1, [sp, 72]
	mov	x0, 18272
	add	x0, x1, x0
	bl	_ZN19ImGuiNextWindowData10ClearFlagsEv
	mov	w0, 0
	b	.L874
.L861:
	ldr	x0, [sp, 16]
	bl	_ZNK6ImRect8GetWidthEv
	str	s0, [sp, 40]
	ldr	x0, [sp, 72]
	add	x0, x0, 16384
	ldr	w0, [x0, 1888]
	and	w0, w0, 16
	cmp	w0, 0
	beq	.L863
	ldr	x0, [sp, 72]
	add	x0, x0, 16384
	ldr	s0, [x0, 1948]
	ldr	s1, [sp, 40]
	bl	_Z5ImMaxIfET_S0_S0_
	ldr	x0, [sp, 72]
	add	x0, x0, 16384
	str	s0, [x0, 1948]
	b	.L864
.L863:
	ldr	w0, [sp, 24]
	and	w0, w0, 30
	cmp	w0, 0
	bne	.L865
	ldr	w0, [sp, 24]
	orr	w0, w0, 4
	str	w0, [sp, 24]
.L865:
	ldr	w0, [sp, 24]
	and	w0, w0, 30
	bl	_ZL14ImIsPowerOfTwoi
	and	w0, w0, 255
	cmp	w0, 0
	bne	.L866
	adrp	x0, .LC41
	add	x3, x0, :lo12:.LC41
	mov	w2, 1697
	adrp	x0, .LC13
	add	x1, x0, :lo12:.LC13
	adrp	x0, .LC42
	add	x0, x0, :lo12:.LC42
	bl	__assert_fail
.L866:
	mov	w0, -1
	str	w0, [sp, 36]
	ldr	w0, [sp, 24]
	and	w0, w0, 4
	cmp	w0, 0
	beq	.L867
	mov	w0, 8
	str	w0, [sp, 36]
	b	.L868
.L867:
	ldr	w0, [sp, 24]
	and	w0, w0, 2
	cmp	w0, 0
	beq	.L869
	mov	w0, 4
	str	w0, [sp, 36]
	b	.L868
.L869:
	ldr	w0, [sp, 24]
	and	w0, w0, 8
	cmp	w0, 0
	beq	.L868
	mov	w0, 20
	str	w0, [sp, 36]
.L868:
	add	x0, sp, 64
	movi	v1.2s, #0
	ldr	s0, [sp, 40]
	bl	_ZN6ImVec2C1Eff
	ldr	w0, [sp, 36]
	bl	_ZL31CalcMaxPopupHeightFromItemCounti
	add	x0, sp, 88
	fmov	s1, s0
	mov	w1, 2139095039
	fmov	s0, w1
	bl	_ZN6ImVec2C1Eff
	add	x1, sp, 88
	add	x0, sp, 64
	mov	x3, 0
	mov	x2, 0
	bl	_ZN5ImGui28SetNextWindowSizeConstraintsERK6ImVec2S2_PFvP21ImGuiSizeCallbackDataEPv
.L864:
	ldr	x0, [sp, 72]
	add	x0, x0, 16384
	ldr	w0, [x0, 2112]
	add	x4, sp, 104
	mov	w3, w0
	adrp	x0, .LC43
	add	x2, x0, :lo12:.LC43
	mov	x1, 16
	mov	x0, x4
	bl	_Z14ImFormatStringPcmPKcz
	add	x0, sp, 104
	bl	_ZN5ImGui16FindWindowByNameEPKc
	str	x0, [sp, 80]
	ldr	x0, [sp, 80]
	cmp	x0, 0
	beq	.L870
	ldr	x0, [sp, 80]
	ldrb	w0, [x0, 151]
	cmp	w0, 0
	beq	.L870
	ldr	x0, [sp, 80]
	bl	_ZN5ImGui25CalcWindowNextAutoFitSizeEP11ImGuiWindow
	fmov	s2, s0
	fmov	s0, s1
	str	s2, [sp, 48]
	str	s0, [sp, 52]
	ldr	w0, [sp, 24]
	and	w0, w0, 1
	cmp	w0, 0
	beq	.L871
	mov	w0, 0
	b	.L872
.L871:
	mov	w0, 3
.L872:
	ldr	x1, [sp, 80]
	str	w0, [x1, 180]
	ldr	x0, [sp, 80]
	bl	_ZN5ImGui25GetPopupAllowedExtentRectEP11ImGuiWindow
	fmov	s5, s0
	fmov	s4, s1
	fmov	s1, s2
	fmov	s0, s3
	str	s5, [sp, 88]
	str	s4, [sp, 92]
	str	s1, [sp, 96]
	str	s0, [sp, 100]
	ldr	x0, [sp, 16]
	bl	_ZNK6ImRect5GetBLEv
	fmov	s2, s0
	fmov	s0, s1
	str	s2, [sp, 64]
	str	s0, [sp, 68]
	ldr	x0, [sp, 80]
	add	x2, x0, 180
	add	x3, sp, 88
	add	x1, sp, 48
	add	x0, sp, 64
	mov	w5, 1
	ldr	x4, [sp, 16]
	bl	_ZN5ImGui27FindBestWindowPosForPopupExERK6ImVec2S2_PiRK6ImRectS6_24ImGuiPopupPositionPolicy
	fmov	s2, s0
	fmov	s0, s1
	str	s2, [sp, 56]
	str	s0, [sp, 60]
	add	x0, sp, 64
	movi	v1.2s, #0
	movi	v0.2s, #0
	bl	_ZN6ImVec2C1Eff
	add	x1, sp, 64
	add	x0, sp, 56
	mov	x2, x1
	mov	w1, 0
	bl	_ZN5ImGui16SetNextWindowPosERK6ImVec2iS2_
.L870:
	mov	w0, 327
	movk	w0, 0x400, lsl 16
	str	w0, [sp, 44]
	ldr	x0, [sp, 72]
	ldr	s0, [x0, 14364]
	ldr	x0, [sp, 72]
	ldr	s1, [x0, 14316]
	add	x0, sp, 88
	bl	_ZN6ImVec2C1Eff
	add	x0, sp, 88
	mov	x1, x0
	mov	w0, 2
	bl	_ZN5ImGui12PushStyleVarEiRK6ImVec2
	add	x0, sp, 104
	ldr	w2, [sp, 44]
	mov	x1, 0
	bl	_ZN5ImGui5BeginEPKcPbi
	and	w0, w0, 255
	strb	w0, [sp, 35]
	mov	w0, 1
	bl	_ZN5ImGui11PopStyleVarEi
	ldrb	w0, [sp, 35]
	eor	w0, w0, 1
	and	w0, w0, 255
	cmp	w0, 0
	beq	.L873
	bl	_ZN5ImGui8EndPopupEv
	adrp	x0, .LC41
	add	x3, x0, :lo12:.LC41
	mov	w2, 1731
	adrp	x0, .LC13
	add	x1, x0, :lo12:.LC13
	adrp	x0, .LC44
	add	x0, x0, :lo12:.LC44
	bl	__assert_fail
.L873:
	mov	w0, 1
.L874:
	mov	w1, w0
	adrp	x0, :got:__stack_chk_guard
	ldr	x0, [x0, #:got_lo12:__stack_chk_guard]
	ldr	x3, [sp, 120]
	ldr	x2, [x0]
	subs	x3, x3, x2
	mov	x2, 0
	beq	.L875
	bl	__stack_chk_fail
.L875:
	mov	w0, w1
	ldp	x29, x30, [sp], 128
	.cfi_restore 30
	.cfi_restore 29
	.cfi_def_cfa_offset 0
	ret
	.cfi_endproc
.LFE1620:
	.size	_ZN5ImGui15BeginComboPopupEjRK6ImRecti, .-_ZN5ImGui15BeginComboPopupEjRK6ImRecti
	.align	2
	.global	_ZN5ImGui8EndComboEv
	.type	_ZN5ImGui8EndComboEv, %function
_ZN5ImGui8EndComboEv:
.LFB1621:
	.cfi_startproc
	stp	x29, x30, [sp, -16]!
	.cfi_def_cfa_offset 16
	.cfi_offset 29, -16
	.cfi_offset 30, -8
	mov	x29, sp
	bl	_ZN5ImGui8EndPopupEv
	nop
	ldp	x29, x30, [sp], 16
	.cfi_restore 30
	.cfi_restore 29
	.cfi_def_cfa_offset 0
	ret
	.cfi_endproc
.LFE1621:
	.size	_ZN5ImGui8EndComboEv, .-_ZN5ImGui8EndComboEv
	.section	.rodata
	.align	3
.LC45:
	.string	"bool ImGui::BeginComboPreview()"
	.align	3
.LC46:
	.string	"g.LastItemData.Rect.Min.x == preview_data->PreviewRect.Min.x && g.LastItemData.Rect.Min.y == preview_data->PreviewRect.Min.y"
	.text
	.align	2
	.global	_ZN5ImGui17BeginComboPreviewEv
	.type	_ZN5ImGui17BeginComboPreviewEv, %function
_ZN5ImGui17BeginComboPreviewEv:
.LFB1622:
	.cfi_startproc
	stp	x29, x30, [sp, -64]!
	.cfi_def_cfa_offset 64
	.cfi_offset 29, -64
	.cfi_offset 30, -56
	mov	x29, sp
	str	x19, [sp, 16]
	.cfi_offset 19, -48
	adrp	x0, :got:GImGui
	ldr	x0, [x0, #:got_lo12:GImGui]
	ldr	x0, [x0]
	str	x0, [sp, 40]
	ldr	x0, [sp, 40]
	ldr	x0, [x0, 16032]
	str	x0, [sp, 48]
	ldr	x1, [sp, 40]
	mov	x0, 23228
	add	x0, x1, x0
	str	x0, [sp, 56]
	ldr	x0, [sp, 48]
	ldrb	w0, [x0, 155]
	cmp	w0, 0
	bne	.L878
	ldr	x0, [sp, 40]
	add	x0, x0, 16384
	ldr	w0, [x0, 1836]
	and	w0, w0, 512
	cmp	w0, 0
	bne	.L879
.L878:
	mov	w0, 0
	b	.L880
.L879:
	ldr	x0, [sp, 40]
	add	x0, x0, 16384
	ldr	s1, [x0, 1840]
	ldr	x0, [sp, 56]
	ldr	s0, [x0]
	fcmp	s1, s0
	bne	.L881
	ldr	x0, [sp, 40]
	add	x0, x0, 16384
	ldr	s1, [x0, 1844]
	ldr	x0, [sp, 56]
	ldr	s0, [x0, 4]
	fcmp	s1, s0
	beq	.L884
.L881:
	adrp	x0, .LC45
	add	x3, x0, :lo12:.LC45
	mov	w2, 1752
	adrp	x0, .LC13
	add	x1, x0, :lo12:.LC13
	adrp	x0, .LC46
	add	x0, x0, :lo12:.LC46
	bl	__assert_fail
.L884:
	ldr	x0, [sp, 48]
	add	x0, x0, 536
	ldr	x1, [sp, 56]
	bl	_ZNK6ImRect8ContainsERKS_
	and	w0, w0, 255
	eor	w0, w0, 1
	and	w0, w0, 255
	cmp	w0, 0
	beq	.L883
	mov	w0, 0
	b	.L880
.L883:
	ldr	x0, [sp, 56]
	ldr	x1, [sp, 48]
	ldr	x1, [x1, 224]
	str	x1, [x0, 16]
	ldr	x0, [sp, 56]
	ldr	x1, [sp, 48]
	ldr	x1, [x1, 248]
	str	x1, [x0, 24]
	ldr	x0, [sp, 56]
	ldr	x1, [sp, 48]
	ldr	x1, [x1, 232]
	str	x1, [x0, 32]
	ldr	x0, [sp, 48]
	ldr	s0, [x0, 284]
	ldr	x0, [sp, 56]
	str	s0, [x0, 40]
	ldr	x0, [sp, 48]
	ldr	w1, [x0, 404]
	ldr	x0, [sp, 56]
	str	w1, [x0, 44]
	ldr	x2, [sp, 56]
	ldr	x1, [sp, 40]
	mov	x0, 14364
	add	x0, x1, x0
	ldr	x19, [sp, 48]
	mov	x1, x0
	mov	x0, x2
	bl	_ZplRK6ImVec2S1_
	fmov	s2, s0
	fmov	s0, s1
	str	s2, [x19, 224]
	str	s0, [x19, 228]
	ldr	x0, [sp, 48]
	ldr	x1, [sp, 48]
	ldr	x1, [x1, 224]
	str	x1, [x0, 248]
	ldr	x0, [sp, 48]
	str	wzr, [x0, 404]
	ldr	x0, [sp, 48]
	strb	wzr, [x0, 288]
	ldr	x3, [sp, 56]
	ldr	x0, [sp, 56]
	add	x0, x0, 8
	mov	w2, 1
	mov	x1, x0
	mov	x0, x3
	bl	_ZN5ImGui12PushClipRectERK6ImVec2S2_b
	mov	w0, 1
.L880:
	ldr	x19, [sp, 16]
	ldp	x29, x30, [sp], 64
	.cfi_restore 30
	.cfi_restore 29
	.cfi_restore 19
	.cfi_def_cfa_offset 0
	ret
	.cfi_endproc
.LFE1622:
	.size	_ZN5ImGui17BeginComboPreviewEv, .-_ZN5ImGui17BeginComboPreviewEv
	.align	2
	.global	_ZN5ImGui15EndComboPreviewEv
	.type	_ZN5ImGui15EndComboPreviewEv, %function
_ZN5ImGui15EndComboPreviewEv:
.LFB1623:
	.cfi_startproc
	stp	x29, x30, [sp, -96]!
	.cfi_def_cfa_offset 96
	.cfi_offset 29, -96
	.cfi_offset 30, -88
	mov	x29, sp
	str	x19, [sp, 16]
	.cfi_offset 19, -80
	adrp	x0, :got:__stack_chk_guard
	ldr	x0, [x0, #:got_lo12:__stack_chk_guard]
	ldr	x1, [x0]
	str	x1, [sp, 88]
	mov	x1, 0
	adrp	x0, :got:GImGui
	ldr	x0, [x0, #:got_lo12:GImGui]
	ldr	x0, [x0]
	str	x0, [sp, 40]
	ldr	x0, [sp, 40]
	ldr	x0, [x0, 16032]
	str	x0, [sp, 48]
	ldr	x1, [sp, 40]
	mov	x0, 23228
	add	x0, x1, x0
	str	x0, [sp, 56]
	ldr	x0, [sp, 48]
	ldr	x0, [x0, 632]
	str	x0, [sp, 64]
	ldr	x0, [sp, 48]
	ldr	s1, [x0, 248]
	ldr	x0, [sp, 56]
	ldr	s0, [x0, 8]
	fcmpe	s1, s0
	bmi	.L890
	b	.L886
.L890:
	ldr	x0, [sp, 48]
	ldr	s1, [x0, 252]
	ldr	x0, [sp, 56]
	ldr	s0, [x0, 12]
	fcmpe	s1, s0
	bmi	.L891
	b	.L886
.L891:
	ldr	x0, [sp, 64]
	ldr	w0, [x0]
	cmp	w0, 1
	ble	.L886
	ldr	x2, [sp, 64]
	ldr	x0, [sp, 64]
	ldr	w0, [x0]
	sub	w0, w0, #2
	mov	w1, w0
	mov	x0, x2
	bl	_ZN8ImVectorI9ImDrawCmdEixEi
	mov	x19, x0
	ldr	x2, [sp, 64]
	ldr	x0, [sp, 64]
	ldr	w0, [x0]
	sub	w0, w0, #1
	mov	w1, w0
	mov	x0, x2
	bl	_ZN8ImVectorI9ImDrawCmdEixEi
	mov	x2, x0
	ldp	x0, x1, [x19]
	stp	x0, x1, [x2]
	ldr	x3, [sp, 64]
	ldp	x0, x1, [x2]
	stp	x0, x1, [x3, 136]
	ldr	x0, [sp, 64]
	bl	_ZN10ImDrawList17_TryMergeDrawCmdsEv
.L886:
	bl	_ZN5ImGui11PopClipRectEv
	ldr	x0, [sp, 48]
	ldr	x1, [sp, 56]
	ldr	x1, [x1, 16]
	str	x1, [x0, 224]
	ldr	x0, [sp, 48]
	add	x2, x0, 248
	ldr	x0, [sp, 56]
	add	x0, x0, 24
	ldr	x19, [sp, 48]
	mov	x1, x0
	mov	x0, x2
	bl	_ZL5ImMaxRK6ImVec2S1_
	fmov	s2, s0
	fmov	s0, s1
	str	s2, [x19, 248]
	str	s0, [x19, 252]
	ldr	x0, [sp, 48]
	ldr	x1, [sp, 56]
	ldr	x1, [x1, 32]
	str	x1, [x0, 232]
	ldr	x0, [sp, 56]
	ldr	s0, [x0, 40]
	ldr	x0, [sp, 48]
	str	s0, [x0, 284]
	ldr	x0, [sp, 56]
	ldr	w1, [x0, 44]
	ldr	x0, [sp, 48]
	str	w1, [x0, 404]
	ldr	x0, [sp, 48]
	strb	wzr, [x0, 288]
	add	x0, sp, 72
	bl	_ZN6ImRectC1Ev
	ldr	x2, [sp, 56]
	ldp	x0, x1, [sp, 72]
	stp	x0, x1, [x2]
	nop
	adrp	x0, :got:__stack_chk_guard
	ldr	x0, [x0, #:got_lo12:__stack_chk_guard]
	ldr	x2, [sp, 88]
	ldr	x1, [x0]
	subs	x2, x2, x1
	mov	x1, 0
	beq	.L889
	bl	__stack_chk_fail
.L889:
	ldr	x19, [sp, 16]
	ldp	x29, x30, [sp], 96
	.cfi_restore 30
	.cfi_restore 29
	.cfi_restore 19
	.cfi_def_cfa_offset 0
	ret
	.cfi_endproc
.LFE1623:
	.size	_ZN5ImGui15EndComboPreviewEv, .-_ZN5ImGui15EndComboPreviewEv
	.align	2
	.type	_ZL17Items_ArrayGetterPviPPKc, %function
_ZL17Items_ArrayGetterPviPPKc:
.LFB1624:
	.cfi_startproc
	sub	sp, sp, #48
	.cfi_def_cfa_offset 48
	str	x0, [sp, 24]
	str	w1, [sp, 20]
	str	x2, [sp, 8]
	ldr	x0, [sp, 24]
	str	x0, [sp, 40]
	ldr	x0, [sp, 8]
	cmp	x0, 0
	beq	.L893
	ldrsw	x0, [sp, 20]
	lsl	x0, x0, 3
	ldr	x1, [sp, 40]
	add	x0, x1, x0
	ldr	x1, [x0]
	ldr	x0, [sp, 8]
	str	x1, [x0]
.L893:
	mov	w0, 1
	add	sp, sp, 48
	.cfi_def_cfa_offset 0
	ret
	.cfi_endproc
.LFE1624:
	.size	_ZL17Items_ArrayGetterPviPPKc, .-_ZL17Items_ArrayGetterPviPPKc
	.align	2
	.type	_ZL24Items_SingleStringGetterPviPPKc, %function
_ZL24Items_SingleStringGetterPviPPKc:
.LFB1625:
	.cfi_startproc
	stp	x29, x30, [sp, -80]!
	.cfi_def_cfa_offset 80
	.cfi_offset 29, -80
	.cfi_offset 30, -72
	mov	x29, sp
	str	x0, [sp, 40]
	str	w1, [sp, 36]
	str	x2, [sp, 24]
	ldr	x0, [sp, 40]
	str	x0, [sp, 72]
	str	wzr, [sp, 60]
	ldr	x0, [sp, 72]
	str	x0, [sp, 64]
	b	.L896
.L899:
	ldr	w1, [sp, 36]
	ldr	w0, [sp, 60]
	cmp	w1, w0
	beq	.L903
	ldr	x0, [sp, 64]
	bl	strlen
	add	x0, x0, 1
	ldr	x1, [sp, 64]
	add	x0, x1, x0
	str	x0, [sp, 64]
	ldr	w0, [sp, 60]
	add	w0, w0, 1
	str	w0, [sp, 60]
.L896:
	ldr	x0, [sp, 64]
	ldrb	w0, [x0]
	cmp	w0, 0
	bne	.L899
	b	.L898
.L903:
	nop
.L898:
	ldr	x0, [sp, 64]
	ldrb	w0, [x0]
	cmp	w0, 0
	bne	.L900
	mov	w0, 0
	b	.L901
.L900:
	ldr	x0, [sp, 24]
	cmp	x0, 0
	beq	.L902
	ldr	x0, [sp, 24]
	ldr	x1, [sp, 64]
	str	x1, [x0]
.L902:
	mov	w0, 1
.L901:
	ldp	x29, x30, [sp], 80
	.cfi_restore 30
	.cfi_restore 29
	.cfi_def_cfa_offset 0
	ret
	.cfi_endproc
.LFE1625:
	.size	_ZL24Items_SingleStringGetterPviPPKc, .-_ZL24Items_SingleStringGetterPviPPKc
	.section	.rodata
	.align	3
.LC47:
	.string	"*Unknown item*"
	.text
	.align	2
	.global	_ZN5ImGui5ComboEPKcPiPFbPviPS1_ES3_ii
	.type	_ZN5ImGui5ComboEPKcPiPFbPviPS1_ES3_ii, %function
_ZN5ImGui5ComboEPKcPiPFbPviPS1_ES3_ii:
.LFB1626:
	.cfi_startproc
	stp	x29, x30, [sp, -128]!
	.cfi_def_cfa_offset 128
	.cfi_offset 29, -128
	.cfi_offset 30, -120
	mov	x29, sp
	str	x19, [sp, 16]
	.cfi_offset 19, -112
	str	x0, [sp, 72]
	str	x1, [sp, 64]
	str	x2, [sp, 56]
	str	x3, [sp, 48]
	str	w4, [sp, 44]
	str	w5, [sp, 40]
	adrp	x0, :got:__stack_chk_guard
	ldr	x0, [x0, #:got_lo12:__stack_chk_guard]
	ldr	x1, [x0]
	str	x1, [sp, 120]
	mov	x1, 0
	adrp	x0, :got:GImGui
	ldr	x0, [x0, #:got_lo12:GImGui]
	ldr	x0, [x0]
	str	x0, [sp, 112]
	str	xzr, [sp, 88]
	ldr	x0, [sp, 64]
	ldr	w0, [x0]
	cmp	w0, 0
	blt	.L905
	ldr	x0, [sp, 64]
	ldr	w0, [x0]
	ldr	w1, [sp, 44]
	cmp	w1, w0
	ble	.L905
	ldr	x3, [sp, 56]
	ldr	x0, [sp, 64]
	ldr	w0, [x0]
	add	x1, sp, 88
	mov	x2, x1
	mov	w1, w0
	ldr	x0, [sp, 48]
	blr	x3
.L905:
	ldr	w0, [sp, 40]
	cmn	w0, #1
	beq	.L906
	ldr	x0, [sp, 112]
	add	x0, x0, 16384
	ldr	w0, [x0, 1888]
	and	w0, w0, 16
	cmp	w0, 0
	bne	.L906
	add	x0, sp, 96
	movi	v1.2s, #0
	movi	v0.2s, #0
	bl	_ZN6ImVec2C1Eff
	ldr	w0, [sp, 40]
	bl	_ZL31CalcMaxPopupHeightFromItemCounti
	add	x0, sp, 104
	fmov	s1, s0
	mov	w1, 2139095039
	fmov	s0, w1
	bl	_ZN6ImVec2C1Eff
	add	x1, sp, 104
	add	x0, sp, 96
	mov	x3, 0
	mov	x2, 0
	bl	_ZN5ImGui28SetNextWindowSizeConstraintsERK6ImVec2S2_PFvP21ImGuiSizeCallbackDataEPv
.L906:
	ldr	x0, [sp, 88]
	mov	w2, 0
	mov	x1, x0
	ldr	x0, [sp, 72]
	bl	_ZN5ImGui10BeginComboEPKcS1_i
	and	w0, w0, 255
	eor	w0, w0, 1
	and	w0, w0, 255
	cmp	w0, 0
	beq	.L907
	mov	w0, 0
	b	.L915
.L907:
	strb	wzr, [sp, 82]
	str	wzr, [sp, 84]
	b	.L909
.L913:
	ldr	w0, [sp, 84]
	bl	_ZN5ImGui6PushIDEi
	ldr	x0, [sp, 64]
	ldr	w0, [x0]
	ldr	w1, [sp, 84]
	cmp	w1, w0
	cset	w0, eq
	strb	w0, [sp, 83]
	ldr	x3, [sp, 56]
	add	x0, sp, 96
	mov	x2, x0
	ldr	w1, [sp, 84]
	ldr	x0, [sp, 48]
	blr	x3
	and	w0, w0, 255
	eor	w0, w0, 1
	and	w0, w0, 255
	cmp	w0, 0
	beq	.L910
	adrp	x0, .LC47
	add	x0, x0, :lo12:.LC47
	str	x0, [sp, 96]
.L910:
	ldr	x19, [sp, 96]
	add	x0, sp, 104
	movi	v1.2s, #0
	movi	v0.2s, #0
	bl	_ZN6ImVec2C1Eff
	add	x0, sp, 104
	mov	x3, x0
	mov	w2, 0
	ldrb	w1, [sp, 83]
	mov	x0, x19
	bl	_ZN5ImGui10SelectableEPKcbiRK6ImVec2
	and	w0, w0, 255
	cmp	w0, 0
	beq	.L911
	mov	w0, 1
	strb	w0, [sp, 82]
	ldr	x0, [sp, 64]
	ldr	w1, [sp, 84]
	str	w1, [x0]
.L911:
	ldrb	w0, [sp, 83]
	cmp	w0, 0
	beq	.L912
	bl	_ZN5ImGui19SetItemDefaultFocusEv
.L912:
	bl	_ZN5ImGui5PopIDEv
	ldr	w0, [sp, 84]
	add	w0, w0, 1
	str	w0, [sp, 84]
.L909:
	ldr	w1, [sp, 84]
	ldr	w0, [sp, 44]
	cmp	w1, w0
	blt	.L913
	bl	_ZN5ImGui8EndComboEv
	ldrb	w0, [sp, 82]
	cmp	w0, 0
	beq	.L914
	ldr	x0, [sp, 112]
	add	x0, x0, 16384
	ldr	w0, [x0, 1828]
	bl	_ZN5ImGui14MarkItemEditedEj
.L914:
	ldrb	w0, [sp, 82]
.L915:
	mov	w1, w0
	adrp	x0, :got:__stack_chk_guard
	ldr	x0, [x0, #:got_lo12:__stack_chk_guard]
	ldr	x3, [sp, 120]
	ldr	x2, [x0]
	subs	x3, x3, x2
	mov	x2, 0
	beq	.L916
	bl	__stack_chk_fail
.L916:
	mov	w0, w1
	ldr	x19, [sp, 16]
	ldp	x29, x30, [sp], 128
	.cfi_restore 30
	.cfi_restore 29
	.cfi_restore 19
	.cfi_def_cfa_offset 0
	ret
	.cfi_endproc
.LFE1626:
	.size	_ZN5ImGui5ComboEPKcPiPFbPviPS1_ES3_ii, .-_ZN5ImGui5ComboEPKcPiPFbPviPS1_ES3_ii
	.align	2
	.global	_ZN5ImGui5ComboEPKcPiPKS1_ii
	.type	_ZN5ImGui5ComboEPKcPiPKS1_ii, %function
_ZN5ImGui5ComboEPKcPiPKS1_ii:
.LFB1627:
	.cfi_startproc
	stp	x29, x30, [sp, -64]!
	.cfi_def_cfa_offset 64
	.cfi_offset 29, -64
	.cfi_offset 30, -56
	mov	x29, sp
	str	x0, [sp, 40]
	str	x1, [sp, 32]
	str	x2, [sp, 24]
	str	w3, [sp, 20]
	str	w4, [sp, 16]
	ldr	w5, [sp, 16]
	ldr	w4, [sp, 20]
	ldr	x3, [sp, 24]
	adrp	x0, _ZL17Items_ArrayGetterPviPPKc
	add	x2, x0, :lo12:_ZL17Items_ArrayGetterPviPPKc
	ldr	x1, [sp, 32]
	ldr	x0, [sp, 40]
	bl	_ZN5ImGui5ComboEPKcPiPFbPviPS1_ES3_ii
	and	w0, w0, 255
	strb	w0, [sp, 63]
	ldrb	w0, [sp, 63]
	ldp	x29, x30, [sp], 64
	.cfi_restore 30
	.cfi_restore 29
	.cfi_def_cfa_offset 0
	ret
	.cfi_endproc
.LFE1627:
	.size	_ZN5ImGui5ComboEPKcPiPKS1_ii, .-_ZN5ImGui5ComboEPKcPiPKS1_ii
	.align	2
	.global	_ZN5ImGui5ComboEPKcPiS1_i
	.type	_ZN5ImGui5ComboEPKcPiS1_i, %function
_ZN5ImGui5ComboEPKcPiS1_i:
.LFB1628:
	.cfi_startproc
	stp	x29, x30, [sp, -64]!
	.cfi_def_cfa_offset 64
	.cfi_offset 29, -64
	.cfi_offset 30, -56
	mov	x29, sp
	str	x0, [sp, 40]
	str	x1, [sp, 32]
	str	x2, [sp, 24]
	str	w3, [sp, 20]
	str	wzr, [sp, 52]
	ldr	x0, [sp, 24]
	str	x0, [sp, 56]
	b	.L920
.L921:
	ldr	x0, [sp, 56]
	bl	strlen
	add	x0, x0, 1
	ldr	x1, [sp, 56]
	add	x0, x1, x0
	str	x0, [sp, 56]
	ldr	w0, [sp, 52]
	add	w0, w0, 1
	str	w0, [sp, 52]
.L920:
	ldr	x0, [sp, 56]
	ldrb	w0, [x0]
	cmp	w0, 0
	bne	.L921
	ldr	w5, [sp, 20]
	ldr	w4, [sp, 52]
	ldr	x3, [sp, 24]
	adrp	x0, _ZL24Items_SingleStringGetterPviPPKc
	add	x2, x0, :lo12:_ZL24Items_SingleStringGetterPviPPKc
	ldr	x1, [sp, 32]
	ldr	x0, [sp, 40]
	bl	_ZN5ImGui5ComboEPKcPiPFbPviPS1_ES3_ii
	and	w0, w0, 255
	strb	w0, [sp, 51]
	ldrb	w0, [sp, 51]
	ldp	x29, x30, [sp], 64
	.cfi_restore 30
	.cfi_restore 29
	.cfi_def_cfa_offset 0
	ret
	.cfi_endproc
.LFE1628:
	.size	_ZN5ImGui5ComboEPKcPiS1_i, .-_ZN5ImGui5ComboEPKcPiS1_i
	.section	.rodata
	.align	3
.LC48:
	.string	"S8"
	.align	3
.LC49:
	.string	"%d"
	.align	3
.LC50:
	.string	"U8"
	.align	3
.LC51:
	.string	"%u"
	.align	3
.LC52:
	.string	"S16"
	.align	3
.LC53:
	.string	"U16"
	.align	3
.LC54:
	.string	"S32"
	.align	3
.LC55:
	.string	"U32"
	.align	3
.LC56:
	.string	"S64"
	.align	3
.LC57:
	.string	"%lld"
	.align	3
.LC58:
	.string	"U64"
	.align	3
.LC59:
	.string	"%llu"
	.align	3
.LC60:
	.string	"float"
	.align	3
.LC61:
	.string	"%.3f"
	.align	3
.LC62:
	.string	"%f"
	.align	3
.LC63:
	.string	"double"
	.align	3
.LC64:
	.string	"%lf"
	.section	.data.rel.ro.local,"aw"
	.align	3
	.type	_ZL13GDataTypeInfo, %object
	.size	_ZL13GDataTypeInfo, 320
_ZL13GDataTypeInfo:
	.xword	1
	.xword	.LC48
	.xword	.LC49
	.xword	.LC49
	.xword	1
	.xword	.LC50
	.xword	.LC51
	.xword	.LC51
	.xword	2
	.xword	.LC52
	.xword	.LC49
	.xword	.LC49
	.xword	2
	.xword	.LC53
	.xword	.LC51
	.xword	.LC51
	.xword	4
	.xword	.LC54
	.xword	.LC49
	.xword	.LC49
	.xword	4
	.xword	.LC55
	.xword	.LC51
	.xword	.LC51
	.xword	8
	.xword	.LC56
	.xword	.LC57
	.xword	.LC57
	.xword	8
	.xword	.LC58
	.xword	.LC59
	.xword	.LC59
	.xword	4
	.xword	.LC60
	.xword	.LC61
	.xword	.LC62
	.xword	8
	.xword	.LC63
	.xword	.LC62
	.xword	.LC64
	.section	.rodata
	.align	3
.LC65:
	.string	"const ImGuiDataTypeInfo* ImGui::DataTypeGetInfo(ImGuiDataType)"
	.align	3
.LC66:
	.string	"data_type >= 0 && data_type < ImGuiDataType_COUNT"
	.text
	.align	2
	.global	_ZN5ImGui15DataTypeGetInfoEi
	.type	_ZN5ImGui15DataTypeGetInfoEi, %function
_ZN5ImGui15DataTypeGetInfoEi:
.LFB1629:
	.cfi_startproc
	stp	x29, x30, [sp, -32]!
	.cfi_def_cfa_offset 32
	.cfi_offset 29, -32
	.cfi_offset 30, -24
	mov	x29, sp
	str	w0, [sp, 28]
	ldr	w0, [sp, 28]
	cmp	w0, 0
	blt	.L924
	ldr	w0, [sp, 28]
	cmp	w0, 9
	ble	.L927
.L924:
	adrp	x0, .LC65
	add	x3, x0, :lo12:.LC65
	mov	w2, 1926
	adrp	x0, .LC13
	add	x1, x0, :lo12:.LC13
	adrp	x0, .LC66
	add	x0, x0, :lo12:.LC66
	bl	__assert_fail
.L927:
	ldrsw	x0, [sp, 28]
	lsl	x1, x0, 5
	adrp	x0, _ZL13GDataTypeInfo
	add	x0, x0, :lo12:_ZL13GDataTypeInfo
	add	x0, x1, x0
	ldp	x29, x30, [sp], 32
	.cfi_restore 30
	.cfi_restore 29
	.cfi_def_cfa_offset 0
	ret
	.cfi_endproc
.LFE1629:
	.size	_ZN5ImGui15DataTypeGetInfoEi, .-_ZN5ImGui15DataTypeGetInfoEi
	.section	.rodata
	.align	3
.LC67:
	.string	"int ImGui::DataTypeFormatString(char*, int, ImGuiDataType, const void*, const char*)"
	.text
	.align	2
	.global	_ZN5ImGui20DataTypeFormatStringEPciiPKvPKc
	.type	_ZN5ImGui20DataTypeFormatStringEPciiPKvPKc, %function
_ZN5ImGui20DataTypeFormatStringEPciiPKvPKc:
.LFB1630:
	.cfi_startproc
	stp	x29, x30, [sp, -48]!
	.cfi_def_cfa_offset 48
	.cfi_offset 29, -48
	.cfi_offset 30, -40
	mov	x29, sp
	str	x0, [sp, 40]
	str	w1, [sp, 36]
	str	w2, [sp, 32]
	str	x3, [sp, 24]
	str	x4, [sp, 16]
	ldr	w0, [sp, 32]
	cmp	w0, 4
	beq	.L929
	ldr	w0, [sp, 32]
	cmp	w0, 5
	bne	.L930
.L929:
	ldrsw	x1, [sp, 36]
	ldr	x0, [sp, 24]
	ldr	w0, [x0]
	mov	w3, w0
	ldr	x2, [sp, 16]
	ldr	x0, [sp, 40]
	bl	_Z14ImFormatStringPcmPKcz
	b	.L931
.L930:
	ldr	w0, [sp, 32]
	cmp	w0, 6
	beq	.L932
	ldr	w0, [sp, 32]
	cmp	w0, 7
	bne	.L933
.L932:
	ldrsw	x1, [sp, 36]
	ldr	x0, [sp, 24]
	ldr	x0, [x0]
	mov	x3, x0
	ldr	x2, [sp, 16]
	ldr	x0, [sp, 40]
	bl	_Z14ImFormatStringPcmPKcz
	b	.L931
.L933:
	ldr	w0, [sp, 32]
	cmp	w0, 8
	bne	.L934
	ldrsw	x1, [sp, 36]
	ldr	x0, [sp, 24]
	ldr	s0, [x0]
	fcvt	d0, s0
	ldr	x2, [sp, 16]
	ldr	x0, [sp, 40]
	bl	_Z14ImFormatStringPcmPKcz
	b	.L931
.L934:
	ldr	w0, [sp, 32]
	cmp	w0, 9
	bne	.L935
	ldrsw	x1, [sp, 36]
	ldr	x0, [sp, 24]
	ldr	d0, [x0]
	ldr	x2, [sp, 16]
	ldr	x0, [sp, 40]
	bl	_Z14ImFormatStringPcmPKcz
	b	.L931
.L935:
	ldr	w0, [sp, 32]
	cmp	w0, 0
	bne	.L936
	ldrsw	x1, [sp, 36]
	ldr	x0, [sp, 24]
	ldrsb	w0, [x0]
	mov	w3, w0
	ldr	x2, [sp, 16]
	ldr	x0, [sp, 40]
	bl	_Z14ImFormatStringPcmPKcz
	b	.L931
.L936:
	ldr	w0, [sp, 32]
	cmp	w0, 1
	bne	.L937
	ldrsw	x1, [sp, 36]
	ldr	x0, [sp, 24]
	ldrb	w0, [x0]
	mov	w3, w0
	ldr	x2, [sp, 16]
	ldr	x0, [sp, 40]
	bl	_Z14ImFormatStringPcmPKcz
	b	.L931
.L937:
	ldr	w0, [sp, 32]
	cmp	w0, 2
	bne	.L938
	ldrsw	x1, [sp, 36]
	ldr	x0, [sp, 24]
	ldrsh	w0, [x0]
	mov	w3, w0
	ldr	x2, [sp, 16]
	ldr	x0, [sp, 40]
	bl	_Z14ImFormatStringPcmPKcz
	b	.L931
.L938:
	ldr	w0, [sp, 32]
	cmp	w0, 3
	bne	.L939
	ldrsw	x1, [sp, 36]
	ldr	x0, [sp, 24]
	ldrh	w0, [x0]
	mov	w3, w0
	ldr	x2, [sp, 16]
	ldr	x0, [sp, 40]
	bl	_Z14ImFormatStringPcmPKcz
	b	.L931
.L939:
	adrp	x0, .LC67
	add	x3, x0, :lo12:.LC67
	mov	w2, 1949
	adrp	x0, .LC13
	add	x1, x0, :lo12:.LC13
	adrp	x0, .LC44
	add	x0, x0, :lo12:.LC44
	bl	__assert_fail
.L931:
	ldp	x29, x30, [sp], 48
	.cfi_restore 30
	.cfi_restore 29
	.cfi_def_cfa_offset 0
	ret
	.cfi_endproc
.LFE1630:
	.size	_ZN5ImGui20DataTypeFormatStringEPciiPKvPKc, .-_ZN5ImGui20DataTypeFormatStringEPciiPKvPKc
	.section	.rodata
	.align	3
.LC68:
	.string	"void ImGui::DataTypeApplyOp(ImGuiDataType, int, void*, const void*, const void*)"
	.align	3
.LC69:
	.string	"op == '+' || op == '-'"
	.text
	.align	2
	.global	_ZN5ImGui15DataTypeApplyOpEiiPvPKvS2_
	.type	_ZN5ImGui15DataTypeApplyOpEiiPvPKvS2_, %function
_ZN5ImGui15DataTypeApplyOpEiiPvPKvS2_:
.LFB1631:
	.cfi_startproc
	stp	x29, x30, [sp, -48]!
	.cfi_def_cfa_offset 48
	.cfi_offset 29, -48
	.cfi_offset 30, -40
	mov	x29, sp
	str	w0, [sp, 44]
	str	w1, [sp, 40]
	str	x2, [sp, 32]
	str	x3, [sp, 24]
	str	x4, [sp, 16]
	ldr	w0, [sp, 40]
	cmp	w0, 43
	beq	.L941
	ldr	w0, [sp, 40]
	cmp	w0, 45
	beq	.L941
	adrp	x0, .LC68
	add	x3, x0, :lo12:.LC68
	mov	w2, 1955
	adrp	x0, .LC13
	add	x1, x0, :lo12:.LC13
	adrp	x0, .LC69
	add	x0, x0, :lo12:.LC69
	bl	__assert_fail
.L941:
	ldr	w0, [sp, 44]
	cmp	w0, 10
	beq	.L975
	ldr	w0, [sp, 44]
	cmp	w0, 10
	bgt	.L943
	ldr	w0, [sp, 44]
	cmp	w0, 9
	beq	.L944
	ldr	w0, [sp, 44]
	cmp	w0, 9
	bgt	.L943
	ldr	w0, [sp, 44]
	cmp	w0, 8
	beq	.L945
	ldr	w0, [sp, 44]
	cmp	w0, 8
	bgt	.L943
	ldr	w0, [sp, 44]
	cmp	w0, 7
	beq	.L946
	ldr	w0, [sp, 44]
	cmp	w0, 7
	bgt	.L943
	ldr	w0, [sp, 44]
	cmp	w0, 6
	beq	.L947
	ldr	w0, [sp, 44]
	cmp	w0, 6
	bgt	.L943
	ldr	w0, [sp, 44]
	cmp	w0, 5
	beq	.L948
	ldr	w0, [sp, 44]
	cmp	w0, 5
	bgt	.L943
	ldr	w0, [sp, 44]
	cmp	w0, 4
	beq	.L949
	ldr	w0, [sp, 44]
	cmp	w0, 4
	bgt	.L943
	ldr	w0, [sp, 44]
	cmp	w0, 3
	beq	.L950
	ldr	w0, [sp, 44]
	cmp	w0, 3
	bgt	.L943
	ldr	w0, [sp, 44]
	cmp	w0, 2
	beq	.L951
	ldr	w0, [sp, 44]
	cmp	w0, 2
	bgt	.L943
	ldr	w0, [sp, 44]
	cmp	w0, 0
	beq	.L952
	ldr	w0, [sp, 44]
	cmp	w0, 1
	beq	.L953
	b	.L943
.L952:
	ldr	w0, [sp, 40]
	cmp	w0, 43
	bne	.L954
	ldr	x0, [sp, 24]
	ldrsb	w4, [x0]
	ldr	x0, [sp, 16]
	ldrsb	w0, [x0]
	mov	w3, 127
	mov	w2, -128
	mov	w1, w0
	mov	w0, w4
	bl	_Z18ImAddClampOverflowIaET_S0_S0_S0_S0_
	sxtb	w1, w0
	ldr	x0, [sp, 32]
	strb	w1, [x0]
.L954:
	ldr	w0, [sp, 40]
	cmp	w0, 45
	bne	.L976
	ldr	x0, [sp, 24]
	ldrsb	w4, [x0]
	ldr	x0, [sp, 16]
	ldrsb	w0, [x0]
	mov	w3, 127
	mov	w2, -128
	mov	w1, w0
	mov	w0, w4
	bl	_Z18ImSubClampOverflowIaET_S0_S0_S0_S0_
	sxtb	w1, w0
	ldr	x0, [sp, 32]
	strb	w1, [x0]
	b	.L976
.L953:
	ldr	w0, [sp, 40]
	cmp	w0, 43
	bne	.L957
	ldr	x0, [sp, 24]
	ldrb	w4, [x0]
	ldr	x0, [sp, 16]
	ldrb	w0, [x0]
	mov	w3, -1
	mov	w2, 0
	mov	w1, w0
	mov	w0, w4
	bl	_Z18ImAddClampOverflowIhET_S0_S0_S0_S0_
	and	w1, w0, 255
	ldr	x0, [sp, 32]
	strb	w1, [x0]
.L957:
	ldr	w0, [sp, 40]
	cmp	w0, 45
	bne	.L977
	ldr	x0, [sp, 24]
	ldrb	w4, [x0]
	ldr	x0, [sp, 16]
	ldrb	w0, [x0]
	mov	w3, -1
	mov	w2, 0
	mov	w1, w0
	mov	w0, w4
	bl	_Z18ImSubClampOverflowIhET_S0_S0_S0_S0_
	and	w1, w0, 255
	ldr	x0, [sp, 32]
	strb	w1, [x0]
	b	.L977
.L951:
	ldr	w0, [sp, 40]
	cmp	w0, 43
	bne	.L959
	ldr	x0, [sp, 24]
	ldrsh	w4, [x0]
	ldr	x0, [sp, 16]
	ldrsh	w0, [x0]
	mov	w3, 32767
	mov	w2, -32768
	mov	w1, w0
	mov	w0, w4
	bl	_Z18ImAddClampOverflowIsET_S0_S0_S0_S0_
	sxth	w1, w0
	ldr	x0, [sp, 32]
	strh	w1, [x0]
.L959:
	ldr	w0, [sp, 40]
	cmp	w0, 45
	bne	.L978
	ldr	x0, [sp, 24]
	ldrsh	w4, [x0]
	ldr	x0, [sp, 16]
	ldrsh	w0, [x0]
	mov	w3, 32767
	mov	w2, -32768
	mov	w1, w0
	mov	w0, w4
	bl	_Z18ImSubClampOverflowIsET_S0_S0_S0_S0_
	sxth	w1, w0
	ldr	x0, [sp, 32]
	strh	w1, [x0]
	b	.L978
.L950:
	ldr	w0, [sp, 40]
	cmp	w0, 43
	bne	.L961
	ldr	x0, [sp, 24]
	ldrh	w4, [x0]
	ldr	x0, [sp, 16]
	ldrh	w0, [x0]
	mov	w3, -1
	mov	w2, 0
	mov	w1, w0
	mov	w0, w4
	bl	_Z18ImAddClampOverflowItET_S0_S0_S0_S0_
	and	w1, w0, 65535
	ldr	x0, [sp, 32]
	strh	w1, [x0]
.L961:
	ldr	w0, [sp, 40]
	cmp	w0, 45
	bne	.L979
	ldr	x0, [sp, 24]
	ldrh	w4, [x0]
	ldr	x0, [sp, 16]
	ldrh	w0, [x0]
	mov	w3, -1
	mov	w2, 0
	mov	w1, w0
	mov	w0, w4
	bl	_Z18ImSubClampOverflowItET_S0_S0_S0_S0_
	and	w1, w0, 65535
	ldr	x0, [sp, 32]
	strh	w1, [x0]
	b	.L979
.L949:
	ldr	w0, [sp, 40]
	cmp	w0, 43
	bne	.L963
	ldr	x0, [sp, 24]
	ldr	w4, [x0]
	ldr	x0, [sp, 16]
	ldr	w0, [x0]
	mov	w3, 2147483647
	mov	w2, -2147483648
	mov	w1, w0
	mov	w0, w4
	bl	_Z18ImAddClampOverflowIiET_S0_S0_S0_S0_
	mov	w1, w0
	ldr	x0, [sp, 32]
	str	w1, [x0]
.L963:
	ldr	w0, [sp, 40]
	cmp	w0, 45
	bne	.L980
	ldr	x0, [sp, 24]
	ldr	w4, [x0]
	ldr	x0, [sp, 16]
	ldr	w0, [x0]
	mov	w3, 2147483647
	mov	w2, -2147483648
	mov	w1, w0
	mov	w0, w4
	bl	_Z18ImSubClampOverflowIiET_S0_S0_S0_S0_
	mov	w1, w0
	ldr	x0, [sp, 32]
	str	w1, [x0]
	b	.L980
.L948:
	ldr	w0, [sp, 40]
	cmp	w0, 43
	bne	.L965
	ldr	x0, [sp, 24]
	ldr	w4, [x0]
	ldr	x0, [sp, 16]
	ldr	w0, [x0]
	mov	w3, -1
	mov	w2, 0
	mov	w1, w0
	mov	w0, w4
	bl	_Z18ImAddClampOverflowIjET_S0_S0_S0_S0_
	mov	w1, w0
	ldr	x0, [sp, 32]
	str	w1, [x0]
.L965:
	ldr	w0, [sp, 40]
	cmp	w0, 45
	bne	.L981
	ldr	x0, [sp, 24]
	ldr	w4, [x0]
	ldr	x0, [sp, 16]
	ldr	w0, [x0]
	mov	w3, -1
	mov	w2, 0
	mov	w1, w0
	mov	w0, w4
	bl	_Z18ImSubClampOverflowIjET_S0_S0_S0_S0_
	mov	w1, w0
	ldr	x0, [sp, 32]
	str	w1, [x0]
	b	.L981
.L947:
	ldr	w0, [sp, 40]
	cmp	w0, 43
	bne	.L967
	ldr	x0, [sp, 24]
	ldr	x4, [x0]
	ldr	x0, [sp, 16]
	ldr	x0, [x0]
	mov	x3, 9223372036854775807
	mov	x2, -9223372036854775808
	mov	x1, x0
	mov	x0, x4
	bl	_Z18ImAddClampOverflowIxET_S0_S0_S0_S0_
	mov	x1, x0
	ldr	x0, [sp, 32]
	str	x1, [x0]
.L967:
	ldr	w0, [sp, 40]
	cmp	w0, 45
	bne	.L982
	ldr	x0, [sp, 24]
	ldr	x4, [x0]
	ldr	x0, [sp, 16]
	ldr	x0, [x0]
	mov	x3, 9223372036854775807
	mov	x2, -9223372036854775808
	mov	x1, x0
	mov	x0, x4
	bl	_Z18ImSubClampOverflowIxET_S0_S0_S0_S0_
	mov	x1, x0
	ldr	x0, [sp, 32]
	str	x1, [x0]
	b	.L982
.L946:
	ldr	w0, [sp, 40]
	cmp	w0, 43
	bne	.L969
	ldr	x0, [sp, 24]
	ldr	x4, [x0]
	ldr	x0, [sp, 16]
	ldr	x0, [x0]
	mov	x3, -1
	mov	x2, 0
	mov	x1, x0
	mov	x0, x4
	bl	_Z18ImAddClampOverflowIyET_S0_S0_S0_S0_
	mov	x1, x0
	ldr	x0, [sp, 32]
	str	x1, [x0]
.L969:
	ldr	w0, [sp, 40]
	cmp	w0, 45
	bne	.L983
	ldr	x0, [sp, 24]
	ldr	x4, [x0]
	ldr	x0, [sp, 16]
	ldr	x0, [x0]
	mov	x3, -1
	mov	x2, 0
	mov	x1, x0
	mov	x0, x4
	bl	_Z18ImSubClampOverflowIyET_S0_S0_S0_S0_
	mov	x1, x0
	ldr	x0, [sp, 32]
	str	x1, [x0]
	b	.L983
.L945:
	ldr	w0, [sp, 40]
	cmp	w0, 43
	bne	.L971
	ldr	x0, [sp, 24]
	ldr	s1, [x0]
	ldr	x0, [sp, 16]
	ldr	s0, [x0]
	fadd	s0, s1, s0
	ldr	x0, [sp, 32]
	str	s0, [x0]
.L971:
	ldr	w0, [sp, 40]
	cmp	w0, 45
	bne	.L984
	ldr	x0, [sp, 24]
	ldr	s1, [x0]
	ldr	x0, [sp, 16]
	ldr	s0, [x0]
	fsub	s0, s1, s0
	ldr	x0, [sp, 32]
	str	s0, [x0]
	b	.L984
.L944:
	ldr	w0, [sp, 40]
	cmp	w0, 43
	bne	.L973
	ldr	x0, [sp, 24]
	ldr	d1, [x0]
	ldr	x0, [sp, 16]
	ldr	d0, [x0]
	fadd	d0, d1, d0
	ldr	x0, [sp, 32]
	str	d0, [x0]
.L973:
	ldr	w0, [sp, 40]
	cmp	w0, 45
	bne	.L985
	ldr	x0, [sp, 24]
	ldr	d1, [x0]
	ldr	x0, [sp, 16]
	ldr	d0, [x0]
	fsub	d0, d1, d0
	ldr	x0, [sp, 32]
	str	d0, [x0]
	b	.L985
.L975:
	nop
.L943:
	adrp	x0, .LC68
	add	x3, x0, :lo12:.LC68
	mov	w2, 2000
	adrp	x0, .LC13
	add	x1, x0, :lo12:.LC13
	adrp	x0, .LC44
	add	x0, x0, :lo12:.LC44
	bl	__assert_fail
.L976:
	nop
	b	.L940
.L977:
	nop
	b	.L940
.L978:
	nop
	b	.L940
.L979:
	nop
	b	.L940
.L980:
	nop
	b	.L940
.L981:
	nop
	b	.L940
.L982:
	nop
	b	.L940
.L983:
	nop
	b	.L940
.L984:
	nop
	b	.L940
.L985:
	nop
.L940:
	ldp	x29, x30, [sp], 48
	.cfi_restore 30
	.cfi_restore 29
	.cfi_def_cfa_offset 0
	ret
	.cfi_endproc
.LFE1631:
	.size	_ZN5ImGui15DataTypeApplyOpEiiPvPKvS2_, .-_ZN5ImGui15DataTypeApplyOpEiiPvPKvS2_
	.section	.rodata
	.align	3
.LC70:
	.string	"bool ImGui::DataTypeApplyFromText(const char*, ImGuiDataType, void*, const char*)"
	.text
	.align	2
	.global	_ZN5ImGui21DataTypeApplyFromTextEPKciPvS1_
	.type	_ZN5ImGui21DataTypeApplyFromTextEPKciPvS1_, %function
_ZN5ImGui21DataTypeApplyFromTextEPKciPvS1_:
.LFB1632:
	.cfi_startproc
	stp	x29, x30, [sp, -112]!
	.cfi_def_cfa_offset 112
	.cfi_offset 29, -112
	.cfi_offset 30, -104
	mov	x29, sp
	str	x0, [sp, 40]
	str	w1, [sp, 36]
	str	x2, [sp, 24]
	str	x3, [sp, 16]
	adrp	x0, :got:__stack_chk_guard
	ldr	x0, [x0, #:got_lo12:__stack_chk_guard]
	ldr	x1, [x0]
	str	x1, [sp, 104]
	mov	x1, 0
	b	.L987
.L988:
	ldr	x0, [sp, 40]
	add	x0, x0, 1
	str	x0, [sp, 40]
.L987:
	ldr	x0, [sp, 40]
	ldrb	w0, [x0]
	bl	_ZL14ImCharIsBlankAc
	and	w0, w0, 255
	cmp	w0, 0
	bne	.L988
	ldr	x0, [sp, 40]
	ldrb	w0, [x0]
	cmp	w0, 0
	bne	.L989
	mov	w0, 0
	b	.L1002
.L989:
	ldr	w0, [sp, 36]
	bl	_ZN5ImGui15DataTypeGetInfoEi
	str	x0, [sp, 56]
	ldr	x0, [sp, 56]
	ldr	x1, [x0]
	add	x0, sp, 64
	mov	x2, x1
	ldr	x1, [sp, 24]
	bl	memcpy
	ldr	w0, [sp, 36]
