	.arch armv8-a
	.file	"imgui_draw.cpp"
	.text
	.section	.text._ZN6ImVec2C2Ev,"axG",@progbits,_ZN6ImVec2C5Ev,comdat
	.align	2
	.weak	_ZN6ImVec2C2Ev
	.type	_ZN6ImVec2C2Ev, %function
_ZN6ImVec2C2Ev:
.LFB1:
	.cfi_startproc
	sub	sp, sp, #16
	.cfi_def_cfa_offset 16
	str	x0, [sp, 8]
	ldr	x0, [sp, 8]
	str	wzr, [x0]
	ldr	x0, [sp, 8]
	str	wzr, [x0, 4]
	nop
	add	sp, sp, 16
	.cfi_def_cfa_offset 0
	ret
	.cfi_endproc
.LFE1:
	.size	_ZN6ImVec2C2Ev, .-_ZN6ImVec2C2Ev
	.weak	_ZN6ImVec2C1Ev
	.set	_ZN6ImVec2C1Ev,_ZN6ImVec2C2Ev
	.section	.text._ZN6ImVec2C2Eff,"axG",@progbits,_ZN6ImVec2C5Eff,comdat
	.align	2
	.weak	_ZN6ImVec2C2Eff
	.type	_ZN6ImVec2C2Eff, %function
_ZN6ImVec2C2Eff:
.LFB4:
	.cfi_startproc
	sub	sp, sp, #16
	.cfi_def_cfa_offset 16
	str	x0, [sp, 8]
	str	s0, [sp, 4]
	str	s1, [sp]
	ldr	x0, [sp, 8]
	ldr	s0, [sp, 4]
	str	s0, [x0]
	ldr	x0, [sp, 8]
	ldr	s0, [sp]
	str	s0, [x0, 4]
	nop
	add	sp, sp, 16
	.cfi_def_cfa_offset 0
	ret
	.cfi_endproc
.LFE4:
	.size	_ZN6ImVec2C2Eff, .-_ZN6ImVec2C2Eff
	.weak	_ZN6ImVec2C1Eff
	.set	_ZN6ImVec2C1Eff,_ZN6ImVec2C2Eff
	.section	.text._ZN6ImVec4C2Ev,"axG",@progbits,_ZN6ImVec4C5Ev,comdat
	.align	2
	.weak	_ZN6ImVec4C2Ev
	.type	_ZN6ImVec4C2Ev, %function
_ZN6ImVec4C2Ev:
.LFB9:
	.cfi_startproc
	sub	sp, sp, #16
	.cfi_def_cfa_offset 16
	str	x0, [sp, 8]
	ldr	x0, [sp, 8]
	str	wzr, [x0]
	ldr	x0, [sp, 8]
	str	wzr, [x0, 4]
	ldr	x0, [sp, 8]
	str	wzr, [x0, 8]
	ldr	x0, [sp, 8]
	str	wzr, [x0, 12]
	nop
	add	sp, sp, 16
	.cfi_def_cfa_offset 0
	ret
	.cfi_endproc
.LFE9:
	.size	_ZN6ImVec4C2Ev, .-_ZN6ImVec4C2Ev
	.weak	_ZN6ImVec4C1Ev
	.set	_ZN6ImVec4C1Ev,_ZN6ImVec4C2Ev
	.section	.text._ZN6ImVec4C2Effff,"axG",@progbits,_ZN6ImVec4C5Effff,comdat
	.align	2
	.weak	_ZN6ImVec4C2Effff
	.type	_ZN6ImVec4C2Effff, %function
_ZN6ImVec4C2Effff:
.LFB12:
	.cfi_startproc
	sub	sp, sp, #32
	.cfi_def_cfa_offset 32
	str	x0, [sp, 24]
	str	s0, [sp, 20]
	str	s1, [sp, 16]
	str	s2, [sp, 12]
	str	s3, [sp, 8]
	ldr	x0, [sp, 24]
	ldr	s0, [sp, 20]
	str	s0, [x0]
	ldr	x0, [sp, 24]
	ldr	s0, [sp, 16]
	str	s0, [x0, 4]
	ldr	x0, [sp, 24]
	ldr	s0, [sp, 12]
	str	s0, [x0, 8]
	ldr	x0, [sp, 24]
	ldr	s0, [sp, 8]
	str	s0, [x0, 12]
	nop
	add	sp, sp, 32
	.cfi_def_cfa_offset 0
	ret
	.cfi_endproc
.LFE12:
	.size	_ZN6ImVec4C2Effff, .-_ZN6ImVec4C2Effff
	.weak	_ZN6ImVec4C1Effff
	.set	_ZN6ImVec4C1Effff,_ZN6ImVec4C2Effff
	.section	.text._Znwm12ImNewWrapperPv,"axG",@progbits,_Znwm12ImNewWrapperPv,comdat
	.align	2
	.weak	_Znwm12ImNewWrapperPv
	.type	_Znwm12ImNewWrapperPv, %function
_Znwm12ImNewWrapperPv:
.LFB14:
	.cfi_startproc
	sub	sp, sp, #32
	.cfi_def_cfa_offset 32
	str	x0, [sp, 24]
	strb	w1, [sp, 16]
	str	x2, [sp, 8]
	ldr	x0, [sp, 8]
	add	sp, sp, 32
	.cfi_def_cfa_offset 0
	ret
	.cfi_endproc
.LFE14:
	.size	_Znwm12ImNewWrapperPv, .-_Znwm12ImNewWrapperPv
	.section	.text._ZdlPv12ImNewWrapperS_,"axG",@progbits,_ZdlPv12ImNewWrapperS_,comdat
	.align	2
	.weak	_ZdlPv12ImNewWrapperS_
	.type	_ZdlPv12ImNewWrapperS_, %function
_ZdlPv12ImNewWrapperS_:
.LFB15:
	.cfi_startproc
	sub	sp, sp, #32
	.cfi_def_cfa_offset 32
	str	x0, [sp, 24]
	strb	w1, [sp, 16]
	str	x2, [sp, 8]
	nop
	add	sp, sp, 32
	.cfi_def_cfa_offset 0
	ret
	.cfi_endproc
.LFE15:
	.size	_ZdlPv12ImNewWrapperS_, .-_ZdlPv12ImNewWrapperS_
	.section	.text._ZN9ImDrawCmdC2Ev,"axG",@progbits,_ZN9ImDrawCmdC5Ev,comdat
	.align	2
	.weak	_ZN9ImDrawCmdC2Ev
	.type	_ZN9ImDrawCmdC2Ev, %function
_ZN9ImDrawCmdC2Ev:
.LFB132:
	.cfi_startproc
	stp	x29, x30, [sp, -32]!
	.cfi_def_cfa_offset 32
	.cfi_offset 29, -32
	.cfi_offset 30, -24
	mov	x29, sp
	str	x0, [sp, 24]
	ldr	x0, [sp, 24]
	bl	_ZN6ImVec4C1Ev
	mov	x2, 56
	mov	w1, 0
	ldr	x0, [sp, 24]
	bl	memset
	nop
	ldp	x29, x30, [sp], 32
	.cfi_restore 30
	.cfi_restore 29
	.cfi_def_cfa_offset 0
	ret
	.cfi_endproc
.LFE132:
	.size	_ZN9ImDrawCmdC2Ev, .-_ZN9ImDrawCmdC2Ev
	.weak	_ZN9ImDrawCmdC1Ev
	.set	_ZN9ImDrawCmdC1Ev,_ZN9ImDrawCmdC2Ev
	.section	.text._ZN18ImDrawListSplitterC2Ev,"axG",@progbits,_ZN18ImDrawListSplitterC5Ev,comdat
	.align	2
	.weak	_ZN18ImDrawListSplitterC2Ev
	.type	_ZN18ImDrawListSplitterC2Ev, %function
_ZN18ImDrawListSplitterC2Ev:
.LFB136:
	.cfi_startproc
	stp	x29, x30, [sp, -32]!
	.cfi_def_cfa_offset 32
	.cfi_offset 29, -32
	.cfi_offset 30, -24
	mov	x29, sp
	str	x0, [sp, 24]
	ldr	x0, [sp, 24]
	add	x0, x0, 8
	bl	_ZN8ImVectorI13ImDrawChannelEC1Ev
	mov	x2, 24
	mov	w1, 0
	ldr	x0, [sp, 24]
	bl	memset
	nop
	ldp	x29, x30, [sp], 32
	.cfi_restore 30
	.cfi_restore 29
	.cfi_def_cfa_offset 0
	ret
	.cfi_endproc
.LFE136:
	.size	_ZN18ImDrawListSplitterC2Ev, .-_ZN18ImDrawListSplitterC2Ev
	.weak	_ZN18ImDrawListSplitterC1Ev
	.set	_ZN18ImDrawListSplitterC1Ev,_ZN18ImDrawListSplitterC2Ev
	.section	.text._ZN18ImDrawListSplitter5ClearEv,"axG",@progbits,_ZN18ImDrawListSplitter5ClearEv,comdat
	.align	2
	.weak	_ZN18ImDrawListSplitter5ClearEv
	.type	_ZN18ImDrawListSplitter5ClearEv, %function
_ZN18ImDrawListSplitter5ClearEv:
.LFB141:
	.cfi_startproc
	sub	sp, sp, #16
	.cfi_def_cfa_offset 16
	str	x0, [sp, 8]
	ldr	x0, [sp, 8]
	str	wzr, [x0]
	ldr	x0, [sp, 8]
	mov	w1, 1
	str	w1, [x0, 4]
	nop
	add	sp, sp, 16
	.cfi_def_cfa_offset 0
	ret
	.cfi_endproc
.LFE141:
	.size	_ZN18ImDrawListSplitter5ClearEv, .-_ZN18ImDrawListSplitter5ClearEv
	.section	.text._ZN15ImDrawCmdHeaderC2Ev,"axG",@progbits,_ZN15ImDrawCmdHeaderC5Ev,comdat
	.align	2
	.weak	_ZN15ImDrawCmdHeaderC2Ev
	.type	_ZN15ImDrawCmdHeaderC2Ev, %function
_ZN15ImDrawCmdHeaderC2Ev:
.LFB144:
	.cfi_startproc
	stp	x29, x30, [sp, -32]!
	.cfi_def_cfa_offset 32
	.cfi_offset 29, -32
	.cfi_offset 30, -24
	mov	x29, sp
	str	x0, [sp, 24]
	ldr	x0, [sp, 24]
	bl	_ZN6ImVec4C1Ev
	nop
	ldp	x29, x30, [sp], 32
	.cfi_restore 30
	.cfi_restore 29
	.cfi_def_cfa_offset 0
	ret
	.cfi_endproc
.LFE144:
	.size	_ZN15ImDrawCmdHeaderC2Ev, .-_ZN15ImDrawCmdHeaderC2Ev
	.weak	_ZN15ImDrawCmdHeaderC1Ev
	.set	_ZN15ImDrawCmdHeaderC1Ev,_ZN15ImDrawCmdHeaderC2Ev
	.section	.text._ZN10ImDrawListC2EP20ImDrawListSharedData,"axG",@progbits,_ZN10ImDrawListC5EP20ImDrawListSharedData,comdat
	.align	2
	.weak	_ZN10ImDrawListC2EP20ImDrawListSharedData
	.type	_ZN10ImDrawListC2EP20ImDrawListSharedData, %function
_ZN10ImDrawListC2EP20ImDrawListSharedData:
.LFB146:
	.cfi_startproc
	stp	x29, x30, [sp, -32]!
	.cfi_def_cfa_offset 32
	.cfi_offset 29, -32
	.cfi_offset 30, -24
	mov	x29, sp
	str	x0, [sp, 24]
	str	x1, [sp, 16]
	ldr	x0, [sp, 24]
	bl	_ZN8ImVectorI9ImDrawCmdEC1Ev
	ldr	x0, [sp, 24]
	add	x0, x0, 16
	bl	_ZN8ImVectorItEC1Ev
	ldr	x0, [sp, 24]
	add	x0, x0, 32
	bl	_ZN8ImVectorI10ImDrawVertEC1Ev
	ldr	x0, [sp, 24]
	add	x0, x0, 88
	bl	_ZN8ImVectorI6ImVec4EC1Ev
	ldr	x0, [sp, 24]
	add	x0, x0, 104
	bl	_ZN8ImVectorIPvEC1Ev
	ldr	x0, [sp, 24]
	add	x0, x0, 120
	bl	_ZN8ImVectorI6ImVec2EC1Ev
	ldr	x0, [sp, 24]
	add	x0, x0, 136
	bl	_ZN15ImDrawCmdHeaderC1Ev
	ldr	x0, [sp, 24]
	add	x0, x0, 168
	bl	_ZN18ImDrawListSplitterC1Ev
	mov	x2, 200
	mov	w1, 0
	ldr	x0, [sp, 24]
	bl	memset
	ldr	x0, [sp, 24]
	ldr	x1, [sp, 16]
	str	x1, [x0, 56]
	nop
	ldp	x29, x30, [sp], 32
	.cfi_restore 30
	.cfi_restore 29
	.cfi_def_cfa_offset 0
	ret
	.cfi_endproc
.LFE146:
	.size	_ZN10ImDrawListC2EP20ImDrawListSharedData, .-_ZN10ImDrawListC2EP20ImDrawListSharedData
	.weak	_ZN10ImDrawListC1EP20ImDrawListSharedData
	.set	_ZN10ImDrawListC1EP20ImDrawListSharedData,_ZN10ImDrawListC2EP20ImDrawListSharedData
	.section	.text._ZN10ImDrawList10PathLineToERK6ImVec2,"axG",@progbits,_ZN10ImDrawList10PathLineToERK6ImVec2,comdat
	.align	2
	.weak	_ZN10ImDrawList10PathLineToERK6ImVec2
	.type	_ZN10ImDrawList10PathLineToERK6ImVec2, %function
_ZN10ImDrawList10PathLineToERK6ImVec2:
.LFB154:
	.cfi_startproc
	stp	x29, x30, [sp, -32]!
	.cfi_def_cfa_offset 32
	.cfi_offset 29, -32
	.cfi_offset 30, -24
	mov	x29, sp
	str	x0, [sp, 24]
	str	x1, [sp, 16]
	ldr	x0, [sp, 24]
	add	x0, x0, 120
	ldr	x1, [sp, 16]
	bl	_ZN8ImVectorI6ImVec2E9push_backERKS0_
	nop
	ldp	x29, x30, [sp], 32
	.cfi_restore 30
	.cfi_restore 29
	.cfi_def_cfa_offset 0
	ret
	.cfi_endproc
.LFE154:
	.size	_ZN10ImDrawList10PathLineToERK6ImVec2, .-_ZN10ImDrawList10PathLineToERK6ImVec2
	.section	.text._ZN10ImDrawList14PathFillConvexEj,"axG",@progbits,_ZN10ImDrawList14PathFillConvexEj,comdat
	.align	2
	.weak	_ZN10ImDrawList14PathFillConvexEj
	.type	_ZN10ImDrawList14PathFillConvexEj, %function
_ZN10ImDrawList14PathFillConvexEj:
.LFB156:
	.cfi_startproc
	stp	x29, x30, [sp, -32]!
	.cfi_def_cfa_offset 32
	.cfi_offset 29, -32
	.cfi_offset 30, -24
	mov	x29, sp
	str	x0, [sp, 24]
	str	w1, [sp, 20]
	ldr	x0, [sp, 24]
	ldr	x1, [x0, 128]
	ldr	x0, [sp, 24]
	ldr	w0, [x0, 120]
	ldr	w3, [sp, 20]
	mov	w2, w0
	ldr	x0, [sp, 24]
	bl	_ZN10ImDrawList19AddConvexPolyFilledEPK6ImVec2ij
	ldr	x0, [sp, 24]
	str	wzr, [x0, 120]
	nop
	ldp	x29, x30, [sp], 32
	.cfi_restore 30
	.cfi_restore 29
	.cfi_def_cfa_offset 0
	ret
	.cfi_endproc
.LFE156:
	.size	_ZN10ImDrawList14PathFillConvexEj, .-_ZN10ImDrawList14PathFillConvexEj
	.section	.text._ZN10ImDrawList10PathStrokeEjif,"axG",@progbits,_ZN10ImDrawList10PathStrokeEjif,comdat
	.align	2
	.weak	_ZN10ImDrawList10PathStrokeEjif
	.type	_ZN10ImDrawList10PathStrokeEjif, %function
_ZN10ImDrawList10PathStrokeEjif:
.LFB157:
	.cfi_startproc
	stp	x29, x30, [sp, -48]!
	.cfi_def_cfa_offset 48
	.cfi_offset 29, -48
	.cfi_offset 30, -40
	mov	x29, sp
	str	x0, [sp, 40]
	str	w1, [sp, 36]
	str	w2, [sp, 32]
	str	s0, [sp, 28]
	ldr	x0, [sp, 40]
	ldr	x1, [x0, 128]
	ldr	x0, [sp, 40]
	ldr	w0, [x0, 120]
	ldr	s0, [sp, 28]
	ldr	w4, [sp, 32]
	ldr	w3, [sp, 36]
	mov	w2, w0
	ldr	x0, [sp, 40]
	bl	_ZN10ImDrawList11AddPolylineEPK6ImVec2ijif
	ldr	x0, [sp, 40]
	str	wzr, [x0, 120]
	nop
	ldp	x29, x30, [sp], 48
	.cfi_restore 30
	.cfi_restore 29
	.cfi_def_cfa_offset 0
	ret
	.cfi_endproc
.LFE157:
	.size	_ZN10ImDrawList10PathStrokeEjif, .-_ZN10ImDrawList10PathStrokeEjif
	.section	.text._ZN10ImDrawList12PrimWriteVtxERK6ImVec2S2_j,"axG",@progbits,_ZN10ImDrawList12PrimWriteVtxERK6ImVec2S2_j,comdat
	.align	2
	.weak	_ZN10ImDrawList12PrimWriteVtxERK6ImVec2S2_j
	.type	_ZN10ImDrawList12PrimWriteVtxERK6ImVec2S2_j, %function
_ZN10ImDrawList12PrimWriteVtxERK6ImVec2S2_j:
.LFB161:
	.cfi_startproc
	sub	sp, sp, #32
	.cfi_def_cfa_offset 32
	str	x0, [sp, 24]
	str	x1, [sp, 16]
	str	x2, [sp, 8]
	str	w3, [sp, 4]
	ldr	x0, [sp, 24]
	ldr	x0, [x0, 72]
	ldr	x1, [sp, 16]
	ldr	x1, [x1]
	str	x1, [x0]
	ldr	x0, [sp, 24]
	ldr	x0, [x0, 72]
	ldr	x1, [sp, 8]
	ldr	x1, [x1]
	str	x1, [x0, 8]
	ldr	x0, [sp, 24]
	ldr	x0, [x0, 72]
	ldr	w1, [sp, 4]
	str	w1, [x0, 16]
	ldr	x0, [sp, 24]
	ldr	x0, [x0, 72]
	add	x1, x0, 20
	ldr	x0, [sp, 24]
	str	x1, [x0, 72]
	ldr	x0, [sp, 24]
	ldr	w0, [x0, 52]
	add	w1, w0, 1
	ldr	x0, [sp, 24]
	str	w1, [x0, 52]
	nop
	add	sp, sp, 32
	.cfi_def_cfa_offset 0
	ret
	.cfi_endproc
.LFE161:
	.size	_ZN10ImDrawList12PrimWriteVtxERK6ImVec2S2_j, .-_ZN10ImDrawList12PrimWriteVtxERK6ImVec2S2_j
	.section	.text._ZN10ImDrawList12PrimWriteIdxEt,"axG",@progbits,_ZN10ImDrawList12PrimWriteIdxEt,comdat
	.align	2
	.weak	_ZN10ImDrawList12PrimWriteIdxEt
	.type	_ZN10ImDrawList12PrimWriteIdxEt, %function
_ZN10ImDrawList12PrimWriteIdxEt:
.LFB162:
	.cfi_startproc
	sub	sp, sp, #16
	.cfi_def_cfa_offset 16
	str	x0, [sp, 8]
	strh	w1, [sp, 6]
	ldr	x0, [sp, 8]
	ldr	x0, [x0, 80]
	ldrh	w1, [sp, 6]
	strh	w1, [x0]
	ldr	x0, [sp, 8]
	ldr	x0, [x0, 80]
	add	x1, x0, 2
	ldr	x0, [sp, 8]
	str	x1, [x0, 80]
	nop
	add	sp, sp, 16
	.cfi_def_cfa_offset 0
	ret
	.cfi_endproc
.LFE162:
	.size	_ZN10ImDrawList12PrimWriteIdxEt, .-_ZN10ImDrawList12PrimWriteIdxEt
	.section	.text._ZNK24ImFontGlyphRangesBuilder6GetBitEm,"axG",@progbits,_ZNK24ImFontGlyphRangesBuilder6GetBitEm,comdat
	.align	2
	.weak	_ZNK24ImFontGlyphRangesBuilder6GetBitEm
	.type	_ZNK24ImFontGlyphRangesBuilder6GetBitEm, %function
_ZNK24ImFontGlyphRangesBuilder6GetBitEm:
.LFB174:
	.cfi_startproc
	stp	x29, x30, [sp, -48]!
	.cfi_def_cfa_offset 48
	.cfi_offset 29, -48
	.cfi_offset 30, -40
	mov	x29, sp
	str	x0, [sp, 24]
	str	x1, [sp, 16]
	ldr	x0, [sp, 16]
	lsr	x0, x0, 5
	str	w0, [sp, 40]
	ldr	x0, [sp, 16]
	and	w0, w0, 31
	mov	w1, 1
	lsl	w0, w1, w0
	str	w0, [sp, 44]
	ldr	x0, [sp, 24]
	ldr	w1, [sp, 40]
	bl	_ZNK8ImVectorIjEixEi
	ldr	w1, [x0]
	ldr	w0, [sp, 44]
	and	w0, w1, w0
	cmp	w0, 0
	cset	w0, ne
	and	w0, w0, 255
	ldp	x29, x30, [sp], 48
	.cfi_restore 30
	.cfi_restore 29
	.cfi_def_cfa_offset 0
	ret
	.cfi_endproc
.LFE174:
	.size	_ZNK24ImFontGlyphRangesBuilder6GetBitEm, .-_ZNK24ImFontGlyphRangesBuilder6GetBitEm
	.section	.text._ZN24ImFontGlyphRangesBuilder6SetBitEm,"axG",@progbits,_ZN24ImFontGlyphRangesBuilder6SetBitEm,comdat
	.align	2
	.weak	_ZN24ImFontGlyphRangesBuilder6SetBitEm
	.type	_ZN24ImFontGlyphRangesBuilder6SetBitEm, %function
_ZN24ImFontGlyphRangesBuilder6SetBitEm:
.LFB175:
	.cfi_startproc
	stp	x29, x30, [sp, -48]!
	.cfi_def_cfa_offset 48
	.cfi_offset 29, -48
	.cfi_offset 30, -40
	mov	x29, sp
	str	x0, [sp, 24]
	str	x1, [sp, 16]
	ldr	x0, [sp, 16]
	lsr	x0, x0, 5
	str	w0, [sp, 40]
	ldr	x0, [sp, 16]
	and	w0, w0, 31
	mov	w1, 1
	lsl	w0, w1, w0
	str	w0, [sp, 44]
	ldr	x0, [sp, 24]
	ldr	w1, [sp, 40]
	bl	_ZN8ImVectorIjEixEi
	ldr	w2, [x0]
	ldr	w1, [sp, 44]
	orr	w1, w2, w1
	str	w1, [x0]
	nop
	ldp	x29, x30, [sp], 48
	.cfi_restore 30
	.cfi_restore 29
	.cfi_def_cfa_offset 0
	ret
	.cfi_endproc
.LFE175:
	.size	_ZN24ImFontGlyphRangesBuilder6SetBitEm, .-_ZN24ImFontGlyphRangesBuilder6SetBitEm
	.section	.text._ZN24ImFontGlyphRangesBuilder7AddCharEt,"axG",@progbits,_ZN24ImFontGlyphRangesBuilder7AddCharEt,comdat
	.align	2
	.weak	_ZN24ImFontGlyphRangesBuilder7AddCharEt
	.type	_ZN24ImFontGlyphRangesBuilder7AddCharEt, %function
_ZN24ImFontGlyphRangesBuilder7AddCharEt:
.LFB176:
	.cfi_startproc
	stp	x29, x30, [sp, -32]!
	.cfi_def_cfa_offset 32
	.cfi_offset 29, -32
	.cfi_offset 30, -24
	mov	x29, sp
	str	x0, [sp, 24]
	strh	w1, [sp, 22]
	ldrh	w0, [sp, 22]
	mov	x1, x0
	ldr	x0, [sp, 24]
	bl	_ZN24ImFontGlyphRangesBuilder6SetBitEm
	nop
	ldp	x29, x30, [sp], 32
	.cfi_restore 30
	.cfi_restore 29
	.cfi_def_cfa_offset 0
	ret
	.cfi_endproc
.LFE176:
	.size	_ZN24ImFontGlyphRangesBuilder7AddCharEt, .-_ZN24ImFontGlyphRangesBuilder7AddCharEt
	.section	.text._ZN21ImFontAtlasCustomRectC2Ev,"axG",@progbits,_ZN21ImFontAtlasCustomRectC5Ev,comdat
	.align	2
	.weak	_ZN21ImFontAtlasCustomRectC2Ev
	.type	_ZN21ImFontAtlasCustomRectC2Ev, %function
_ZN21ImFontAtlasCustomRectC2Ev:
.LFB178:
	.cfi_startproc
	stp	x29, x30, [sp, -48]!
	.cfi_def_cfa_offset 48
	.cfi_offset 29, -48
	.cfi_offset 30, -40
	mov	x29, sp
	str	x0, [sp, 24]
	adrp	x0, :got:__stack_chk_guard
	ldr	x0, [x0, #:got_lo12:__stack_chk_guard]
	ldr	x1, [x0]
	str	x1, [sp, 40]
	mov	x1, 0
	ldr	x0, [sp, 24]
	add	x0, x0, 16
	bl	_ZN6ImVec2C1Ev
	ldr	x0, [sp, 24]
	strh	wzr, [x0, 2]
	ldr	x0, [sp, 24]
	ldrh	w1, [x0, 2]
	ldr	x0, [sp, 24]
	strh	w1, [x0]
	ldr	x0, [sp, 24]
	mov	w1, -1
	strh	w1, [x0, 6]
	ldr	x0, [sp, 24]
	ldrh	w1, [x0, 6]
	ldr	x0, [sp, 24]
	strh	w1, [x0, 4]
	ldr	x0, [sp, 24]
	str	wzr, [x0, 8]
	ldr	x0, [sp, 24]
	str	wzr, [x0, 12]
	add	x0, sp, 32
	movi	v1.2s, #0
	movi	v0.2s, #0
	bl	_ZN6ImVec2C1Eff
	ldr	x0, [sp, 24]
	ldr	x1, [sp, 32]
	str	x1, [x0, 16]
	ldr	x0, [sp, 24]
	str	xzr, [x0, 24]
	nop
	adrp	x0, :got:__stack_chk_guard
	ldr	x0, [x0, #:got_lo12:__stack_chk_guard]
	ldr	x2, [sp, 40]
	ldr	x1, [x0]
	subs	x2, x2, x1
	mov	x1, 0
	beq	.L23
	bl	__stack_chk_fail
.L23:
	ldp	x29, x30, [sp], 48
	.cfi_restore 30
	.cfi_restore 29
	.cfi_def_cfa_offset 0
	ret
	.cfi_endproc
.LFE178:
	.size	_ZN21ImFontAtlasCustomRectC2Ev, .-_ZN21ImFontAtlasCustomRectC2Ev
	.weak	_ZN21ImFontAtlasCustomRectC1Ev
	.set	_ZN21ImFontAtlasCustomRectC1Ev,_ZN21ImFontAtlasCustomRectC2Ev
	.section	.text._ZNK21ImFontAtlasCustomRect8IsPackedEv,"axG",@progbits,_ZNK21ImFontAtlasCustomRect8IsPackedEv,comdat
	.align	2
	.weak	_ZNK21ImFontAtlasCustomRect8IsPackedEv
	.type	_ZNK21ImFontAtlasCustomRect8IsPackedEv, %function
_ZNK21ImFontAtlasCustomRect8IsPackedEv:
.LFB180:
	.cfi_startproc
	sub	sp, sp, #16
	.cfi_def_cfa_offset 16
	str	x0, [sp, 8]
	ldr	x0, [sp, 8]
	ldrh	w1, [x0, 4]
	mov	w0, 65535
	cmp	w1, w0
	cset	w0, ne
	and	w0, w0, 255
	add	sp, sp, 16
	.cfi_def_cfa_offset 0
	ret
	.cfi_endproc
.LFE180:
	.size	_ZNK21ImFontAtlasCustomRect8IsPackedEv, .-_ZNK21ImFontAtlasCustomRect8IsPackedEv
	.section	.rodata
	.align	3
.LC2:
	.string	"ImFontAtlasCustomRect* ImFontAtlas::GetCustomRectByIndex(int)"
	.align	3
.LC3:
	.string	"/media/psf/Home/Desktop/git/C-/mac/myproject/external/imgui/include/imgui.h"
	.align	3
.LC4:
	.string	"index >= 0"
	.section	.text._ZN11ImFontAtlas20GetCustomRectByIndexEi,"axG",@progbits,_ZN11ImFontAtlas20GetCustomRectByIndexEi,comdat
	.align	2
	.weak	_ZN11ImFontAtlas20GetCustomRectByIndexEi
	.type	_ZN11ImFontAtlas20GetCustomRectByIndexEi, %function
_ZN11ImFontAtlas20GetCustomRectByIndexEi:
.LFB183:
	.cfi_startproc
	stp	x29, x30, [sp, -32]!
	.cfi_def_cfa_offset 32
	.cfi_offset 29, -32
	.cfi_offset 30, -24
	mov	x29, sp
	str	x0, [sp, 24]
	str	w1, [sp, 20]
	ldr	w0, [sp, 20]
	cmp	w0, 0
	bge	.L27
	adrp	x0, .LC2
	add	x3, x0, :lo12:.LC2
	mov	w2, 2800
	adrp	x0, .LC3
	add	x1, x0, :lo12:.LC3
	adrp	x0, .LC4
	add	x0, x0, :lo12:.LC4
	bl	__assert_fail
.L27:
	ldr	x0, [sp, 24]
	add	x0, x0, 88
	ldr	w1, [sp, 20]
	bl	_ZN8ImVectorI21ImFontAtlasCustomRectEixEi
	ldp	x29, x30, [sp], 32
	.cfi_restore 30
	.cfi_restore 29
	.cfi_def_cfa_offset 0
	ret
	.cfi_endproc
.LFE183:
	.size	_ZN11ImFontAtlas20GetCustomRectByIndexEi, .-_ZN11ImFontAtlas20GetCustomRectByIndexEi
	.section	.text._ZNK6ImFont8IsLoadedEv,"axG",@progbits,_ZNK6ImFont8IsLoadedEv,comdat
	.align	2
	.weak	_ZNK6ImFont8IsLoadedEv
	.type	_ZNK6ImFont8IsLoadedEv, %function
_ZNK6ImFont8IsLoadedEv:
.LFB185:
	.cfi_startproc
	sub	sp, sp, #16
	.cfi_def_cfa_offset 16
	str	x0, [sp, 8]
	ldr	x0, [sp, 8]
	ldr	x0, [x0, 64]
	cmp	x0, 0
	cset	w0, ne
	and	w0, w0, 255
	add	sp, sp, 16
	.cfi_def_cfa_offset 0
	ret
	.cfi_endproc
.LFE185:
	.size	_ZNK6ImFont8IsLoadedEv, .-_ZNK6ImFont8IsLoadedEv
	.section	.text._ZSt4acosf,"axG",@progbits,_ZSt4acosf,comdat
	.align	2
	.weak	_ZSt4acosf
	.type	_ZSt4acosf, %function
_ZSt4acosf:
.LFB226:
	.cfi_startproc
	stp	x29, x30, [sp, -32]!
	.cfi_def_cfa_offset 32
	.cfi_offset 29, -32
	.cfi_offset 30, -24
	mov	x29, sp
	str	s0, [sp, 28]
	ldr	s0, [sp, 28]
	bl	acosf
	ldp	x29, x30, [sp], 32
	.cfi_restore 30
	.cfi_restore 29
	.cfi_def_cfa_offset 0
	ret
	.cfi_endproc
.LFE226:
	.size	_ZSt4acosf, .-_ZSt4acosf
	.section	.text._ZSt3cosf,"axG",@progbits,_ZSt3cosf,comdat
	.align	2
	.weak	_ZSt3cosf
	.type	_ZSt3cosf, %function
_ZSt3cosf:
.LFB241:
	.cfi_startproc
	stp	x29, x30, [sp, -32]!
	.cfi_def_cfa_offset 32
	.cfi_offset 29, -32
	.cfi_offset 30, -24
	mov	x29, sp
	str	s0, [sp, 28]
	ldr	s0, [sp, 28]
	bl	cosf
	ldp	x29, x30, [sp], 32
	.cfi_restore 30
	.cfi_restore 29
	.cfi_def_cfa_offset 0
	ret
	.cfi_endproc
.LFE241:
	.size	_ZSt3cosf, .-_ZSt3cosf
	.text
	.align	2
	.type	_ZL7ImQsortPvmmPFiPKvS1_E, %function
_ZL7ImQsortPvmmPFiPKvS1_E:
.LFB1149:
	.cfi_startproc
	stp	x29, x30, [sp, -48]!
	.cfi_def_cfa_offset 48
	.cfi_offset 29, -48
	.cfi_offset 30, -40
	mov	x29, sp
	str	x0, [sp, 40]
	str	x1, [sp, 32]
	str	x2, [sp, 24]
	str	x3, [sp, 16]
	ldr	x0, [sp, 32]
	cmp	x0, 1
	bls	.L37
	ldr	x3, [sp, 16]
	ldr	x2, [sp, 24]
	ldr	x1, [sp, 32]
	ldr	x0, [sp, 40]
	bl	qsort
.L37:
	nop
	ldp	x29, x30, [sp], 48
	.cfi_restore 30
	.cfi_restore 29
	.cfi_def_cfa_offset 0
	ret
	.cfi_endproc
.LFE1149:
	.size	_ZL7ImQsortPvmmPFiPKvS1_E, .-_ZL7ImQsortPvmmPFiPKvS1_E
	.align	2
	.type	_ZL17ImUpperPowerOfTwoi, %function
_ZL17ImUpperPowerOfTwoi:
.LFB1152:
	.cfi_startproc
	sub	sp, sp, #16
	.cfi_def_cfa_offset 16
	str	w0, [sp, 12]
	ldr	w0, [sp, 12]
	sub	w0, w0, #1
	str	w0, [sp, 12]
	ldr	w0, [sp, 12]
	asr	w0, w0, 1
	ldr	w1, [sp, 12]
	orr	w0, w1, w0
	str	w0, [sp, 12]
	ldr	w0, [sp, 12]
	asr	w0, w0, 2
	ldr	w1, [sp, 12]
	orr	w0, w1, w0
	str	w0, [sp, 12]
	ldr	w0, [sp, 12]
	asr	w0, w0, 4
	ldr	w1, [sp, 12]
	orr	w0, w1, w0
	str	w0, [sp, 12]
	ldr	w0, [sp, 12]
	asr	w0, w0, 8
	ldr	w1, [sp, 12]
	orr	w0, w1, w0
	str	w0, [sp, 12]
	ldr	w0, [sp, 12]
	asr	w0, w0, 16
	ldr	w1, [sp, 12]
	orr	w0, w1, w0
	str	w0, [sp, 12]
	ldr	w0, [sp, 12]
	add	w0, w0, 1
	str	w0, [sp, 12]
	ldr	w0, [sp, 12]
	add	sp, sp, 16
	.cfi_def_cfa_offset 0
	ret
	.cfi_endproc
.LFE1152:
	.size	_ZL17ImUpperPowerOfTwoi, .-_ZL17ImUpperPowerOfTwoi
	.align	2
	.type	_ZL14ImCharIsBlankAc, %function
_ZL14ImCharIsBlankAc:
.LFB1154:
	.cfi_startproc
	sub	sp, sp, #16
	.cfi_def_cfa_offset 16
	strb	w0, [sp, 15]
	ldrb	w0, [sp, 15]
	cmp	w0, 32
	beq	.L41
	ldrb	w0, [sp, 15]
	cmp	w0, 9
	bne	.L42
.L41:
	mov	w0, 1
	b	.L43
.L42:
	mov	w0, 0
.L43:
	add	sp, sp, 16
	.cfi_def_cfa_offset 0
	ret
	.cfi_endproc
.LFE1154:
	.size	_ZL14ImCharIsBlankAc, .-_ZL14ImCharIsBlankAc
	.align	2
	.type	_ZL14ImCharIsBlankWj, %function
_ZL14ImCharIsBlankWj:
.LFB1155:
	.cfi_startproc
	sub	sp, sp, #16
	.cfi_def_cfa_offset 16
	str	w0, [sp, 12]
	ldr	w0, [sp, 12]
	cmp	w0, 32
	beq	.L46
	ldr	w0, [sp, 12]
	cmp	w0, 9
	beq	.L46
	ldr	w0, [sp, 12]
	cmp	w0, 12288
	bne	.L47
.L46:
	mov	w0, 1
	b	.L48
.L47:
	mov	w0, 0
.L48:
	add	sp, sp, 16
	.cfi_def_cfa_offset 0
	ret
	.cfi_endproc
.LFE1155:
	.size	_ZL14ImCharIsBlankWj, .-_ZL14ImCharIsBlankWj
	.align	2
	.type	_ZmlRK6ImVec2f, %function
_ZmlRK6ImVec2f:
.LFB1156:
	.cfi_startproc
	stp	x29, x30, [sp, -48]!
	.cfi_def_cfa_offset 48
	.cfi_offset 29, -48
	.cfi_offset 30, -40
	mov	x29, sp
	str	x0, [sp, 24]
	str	s0, [sp, 20]
	adrp	x0, :got:__stack_chk_guard
	ldr	x0, [x0, #:got_lo12:__stack_chk_guard]
	ldr	x1, [x0]
	str	x1, [sp, 40]
	mov	x1, 0
	ldr	x0, [sp, 24]
	ldr	s1, [x0]
	ldr	s0, [sp, 20]
	fmul	s2, s1, s0
	ldr	x0, [sp, 24]
	ldr	s1, [x0, 4]
	ldr	s0, [sp, 20]
	fmul	s0, s1, s0
	add	x0, sp, 32
	fmov	s1, s0
	fmov	s0, s2
	bl	_ZN6ImVec2C1Eff
	ldr	x0, [sp, 32]
	mov	x1, x0
	lsr	w1, w1, 0
	lsr	x0, x0, 32
	fmov	s0, w1
	fmov	s1, w0
	adrp	x0, :got:__stack_chk_guard
	ldr	x0, [x0, #:got_lo12:__stack_chk_guard]
	ldr	x2, [sp, 40]
	ldr	x1, [x0]
	subs	x2, x2, x1
	mov	x1, 0
	beq	.L52
	bl	__stack_chk_fail
.L52:
	ldp	x29, x30, [sp], 48
	.cfi_restore 30
	.cfi_restore 29
	.cfi_def_cfa_offset 0
	ret
	.cfi_endproc
.LFE1156:
	.size	_ZmlRK6ImVec2f, .-_ZmlRK6ImVec2f
	.align	2
	.type	_ZplRK6ImVec2S1_, %function
_ZplRK6ImVec2S1_:
.LFB1158:
	.cfi_startproc
	stp	x29, x30, [sp, -48]!
	.cfi_def_cfa_offset 48
	.cfi_offset 29, -48
	.cfi_offset 30, -40
	mov	x29, sp
	str	x0, [sp, 24]
	str	x1, [sp, 16]
	adrp	x0, :got:__stack_chk_guard
	ldr	x0, [x0, #:got_lo12:__stack_chk_guard]
	ldr	x1, [x0]
	str	x1, [sp, 40]
	mov	x1, 0
	ldr	x0, [sp, 24]
	ldr	s1, [x0]
	ldr	x0, [sp, 16]
	ldr	s0, [x0]
	fadd	s2, s1, s0
	ldr	x0, [sp, 24]
	ldr	s1, [x0, 4]
	ldr	x0, [sp, 16]
	ldr	s0, [x0, 4]
	fadd	s0, s1, s0
	add	x0, sp, 32
	fmov	s1, s0
	fmov	s0, s2
	bl	_ZN6ImVec2C1Eff
	ldr	x0, [sp, 32]
	mov	x1, x0
	lsr	w1, w1, 0
	lsr	x0, x0, 32
	fmov	s0, w1
	fmov	s1, w0
	adrp	x0, :got:__stack_chk_guard
	ldr	x0, [x0, #:got_lo12:__stack_chk_guard]
	ldr	x2, [sp, 40]
	ldr	x1, [x0]
	subs	x2, x2, x1
	mov	x1, 0
	beq	.L55
	bl	__stack_chk_fail
.L55:
	ldp	x29, x30, [sp], 48
	.cfi_restore 30
	.cfi_restore 29
	.cfi_def_cfa_offset 0
	ret
	.cfi_endproc
.LFE1158:
	.size	_ZplRK6ImVec2S1_, .-_ZplRK6ImVec2S1_
	.align	2
	.type	_ZmiRK6ImVec2S1_, %function
_ZmiRK6ImVec2S1_:
.LFB1159:
	.cfi_startproc
	stp	x29, x30, [sp, -48]!
	.cfi_def_cfa_offset 48
	.cfi_offset 29, -48
	.cfi_offset 30, -40
	mov	x29, sp
	str	x0, [sp, 24]
	str	x1, [sp, 16]
	adrp	x0, :got:__stack_chk_guard
	ldr	x0, [x0, #:got_lo12:__stack_chk_guard]
	ldr	x1, [x0]
	str	x1, [sp, 40]
	mov	x1, 0
	ldr	x0, [sp, 24]
	ldr	s1, [x0]
	ldr	x0, [sp, 16]
	ldr	s0, [x0]
	fsub	s2, s1, s0
	ldr	x0, [sp, 24]
	ldr	s1, [x0, 4]
	ldr	x0, [sp, 16]
	ldr	s0, [x0, 4]
	fsub	s0, s1, s0
	add	x0, sp, 32
	fmov	s1, s0
	fmov	s0, s2
	bl	_ZN6ImVec2C1Eff
	ldr	x0, [sp, 32]
	mov	x1, x0
	lsr	w1, w1, 0
	lsr	x0, x0, 32
	fmov	s0, w1
	fmov	s1, w0
	adrp	x0, :got:__stack_chk_guard
	ldr	x0, [x0, #:got_lo12:__stack_chk_guard]
	ldr	x2, [sp, 40]
	ldr	x1, [x0]
	subs	x2, x2, x1
	mov	x1, 0
	beq	.L58
	bl	__stack_chk_fail
.L58:
	ldp	x29, x30, [sp], 48
	.cfi_restore 30
	.cfi_restore 29
	.cfi_def_cfa_offset 0
	ret
	.cfi_endproc
.LFE1159:
	.size	_ZmiRK6ImVec2S1_, .-_ZmiRK6ImVec2S1_
	.align	2
	.type	_ZmlRK6ImVec2S1_, %function
_ZmlRK6ImVec2S1_:
.LFB1160:
	.cfi_startproc
	stp	x29, x30, [sp, -48]!
	.cfi_def_cfa_offset 48
	.cfi_offset 29, -48
	.cfi_offset 30, -40
	mov	x29, sp
	str	x0, [sp, 24]
	str	x1, [sp, 16]
	adrp	x0, :got:__stack_chk_guard
	ldr	x0, [x0, #:got_lo12:__stack_chk_guard]
	ldr	x1, [x0]
	str	x1, [sp, 40]
	mov	x1, 0
	ldr	x0, [sp, 24]
	ldr	s1, [x0]
	ldr	x0, [sp, 16]
	ldr	s0, [x0]
	fmul	s2, s1, s0
	ldr	x0, [sp, 24]
	ldr	s1, [x0, 4]
	ldr	x0, [sp, 16]
	ldr	s0, [x0, 4]
	fmul	s0, s1, s0
	add	x0, sp, 32
	fmov	s1, s0
	fmov	s0, s2
	bl	_ZN6ImVec2C1Eff
	ldr	x0, [sp, 32]
	mov	x1, x0
	lsr	w1, w1, 0
	lsr	x0, x0, 32
	fmov	s0, w1
	fmov	s1, w0
	adrp	x0, :got:__stack_chk_guard
	ldr	x0, [x0, #:got_lo12:__stack_chk_guard]
	ldr	x2, [sp, 40]
	ldr	x1, [x0]
	subs	x2, x2, x1
	mov	x1, 0
	beq	.L61
	bl	__stack_chk_fail
.L61:
	ldp	x29, x30, [sp], 48
	.cfi_restore 30
	.cfi_restore 29
	.cfi_def_cfa_offset 0
	ret
	.cfi_endproc
.LFE1160:
	.size	_ZmlRK6ImVec2S1_, .-_ZmlRK6ImVec2S1_
	.align	2
	.type	_ZpLR6ImVec2RKS_, %function
_ZpLR6ImVec2RKS_:
.LFB1164:
	.cfi_startproc
	sub	sp, sp, #16
	.cfi_def_cfa_offset 16
	str	x0, [sp, 8]
	str	x1, [sp]
	ldr	x0, [sp, 8]
	ldr	s1, [x0]
	ldr	x0, [sp]
	ldr	s0, [x0]
	fadd	s0, s1, s0
	ldr	x0, [sp, 8]
	str	s0, [x0]
	ldr	x0, [sp, 8]
	ldr	s1, [x0, 4]
	ldr	x0, [sp]
	ldr	s0, [x0, 4]
	fadd	s0, s1, s0
	ldr	x0, [sp, 8]
	str	s0, [x0, 4]
	ldr	x0, [sp, 8]
	add	sp, sp, 16
	.cfi_def_cfa_offset 0
	ret
	.cfi_endproc
.LFE1164:
	.size	_ZpLR6ImVec2RKS_, .-_ZpLR6ImVec2RKS_
	.align	2
	.type	_ZL5ImPowff, %function
_ZL5ImPowff:
.LFB1171:
	.cfi_startproc
	stp	x29, x30, [sp, -32]!
	.cfi_def_cfa_offset 32
	.cfi_offset 29, -32
	.cfi_offset 30, -24
	mov	x29, sp
	str	s0, [sp, 28]
	str	s1, [sp, 24]
	ldr	s1, [sp, 24]
	ldr	s0, [sp, 28]
	bl	powf
	ldp	x29, x30, [sp], 32
	.cfi_restore 30
	.cfi_restore 29
	.cfi_def_cfa_offset 0
	ret
	.cfi_endproc
.LFE1171:
	.size	_ZL5ImPowff, .-_ZL5ImPowff
	.align	2
	.type	_ZL5ImAbsi, %function
_ZL5ImAbsi:
.LFB1175:
	.cfi_startproc
	sub	sp, sp, #16
	.cfi_def_cfa_offset 16
	str	w0, [sp, 12]
	ldr	w0, [sp, 12]
	cmp	w0, 0
	csneg	w0, w0, w0, ge
	add	sp, sp, 16
	.cfi_def_cfa_offset 0
	ret
	.cfi_endproc
.LFE1175:
	.size	_ZL5ImAbsi, .-_ZL5ImAbsi
	.align	2
	.type	_ZL5ImAbsf, %function
_ZL5ImAbsf:
.LFB1176:
	.cfi_startproc
	sub	sp, sp, #16
	.cfi_def_cfa_offset 16
	str	s0, [sp, 12]
	ldr	s0, [sp, 12]
	fabs	s0, s0
	add	sp, sp, 16
	.cfi_def_cfa_offset 0
	ret
	.cfi_endproc
.LFE1176:
	.size	_ZL5ImAbsf, .-_ZL5ImAbsf
	.align	2
	.type	_ZL7ImRsqrtf, %function
_ZL7ImRsqrtf:
.LFB1180:
	.cfi_startproc
	stp	x29, x30, [sp, -32]!
	.cfi_def_cfa_offset 32
	.cfi_offset 29, -32
	.cfi_offset 30, -24
	mov	x29, sp
	str	s0, [sp, 28]
	ldr	s0, [sp, 28]
	bl	sqrtf
	fmov	s1, s0
	fmov	s0, 1.0e+0
	fdiv	s0, s0, s1
	ldp	x29, x30, [sp], 32
	.cfi_restore 30
	.cfi_restore 29
	.cfi_def_cfa_offset 0
	ret
	.cfi_endproc
.LFE1180:
	.size	_ZL7ImRsqrtf, .-_ZL7ImRsqrtf
	.align	2
	.type	_ZL5ImMinRK6ImVec2S1_, %function
_ZL5ImMinRK6ImVec2S1_:
.LFB1189:
	.cfi_startproc
	stp	x29, x30, [sp, -48]!
	.cfi_def_cfa_offset 48
	.cfi_offset 29, -48
	.cfi_offset 30, -40
	mov	x29, sp
	str	x0, [sp, 24]
	str	x1, [sp, 16]
	adrp	x0, :got:__stack_chk_guard
	ldr	x0, [x0, #:got_lo12:__stack_chk_guard]
	ldr	x1, [x0]
	str	x1, [sp, 40]
	mov	x1, 0
	ldr	x0, [sp, 24]
	ldr	s1, [x0]
	ldr	x0, [sp, 16]
	ldr	s0, [x0]
	fcmpe	s1, s0
	bmi	.L81
	b	.L83
.L81:
	ldr	x0, [sp, 24]
	ldr	s0, [x0]
	b	.L75
.L83:
	ldr	x0, [sp, 16]
	ldr	s0, [x0]
.L75:
	ldr	x0, [sp, 24]
	ldr	s2, [x0, 4]
	ldr	x0, [sp, 16]
	ldr	s1, [x0, 4]
	fcmpe	s2, s1
	bmi	.L82
	b	.L84
.L82:
	ldr	x0, [sp, 24]
	ldr	s1, [x0, 4]
	b	.L78
.L84:
	ldr	x0, [sp, 16]
	ldr	s1, [x0, 4]
.L78:
	add	x0, sp, 32
	bl	_ZN6ImVec2C1Eff
	ldr	x0, [sp, 32]
	mov	x1, x0
	lsr	w1, w1, 0
	lsr	x0, x0, 32
	fmov	s0, w1
	fmov	s1, w0
	adrp	x0, :got:__stack_chk_guard
	ldr	x0, [x0, #:got_lo12:__stack_chk_guard]
	ldr	x2, [sp, 40]
	ldr	x1, [x0]
	subs	x2, x2, x1
	mov	x1, 0
	beq	.L80
	bl	__stack_chk_fail
.L80:
	ldp	x29, x30, [sp], 48
	.cfi_restore 30
	.cfi_restore 29
	.cfi_def_cfa_offset 0
	ret
	.cfi_endproc
.LFE1189:
	.size	_ZL5ImMinRK6ImVec2S1_, .-_ZL5ImMinRK6ImVec2S1_
	.align	2
	.type	_ZL5ImMaxRK6ImVec2S1_, %function
_ZL5ImMaxRK6ImVec2S1_:
.LFB1190:
	.cfi_startproc
	stp	x29, x30, [sp, -48]!
	.cfi_def_cfa_offset 48
	.cfi_offset 29, -48
	.cfi_offset 30, -40
	mov	x29, sp
	str	x0, [sp, 24]
	str	x1, [sp, 16]
	adrp	x0, :got:__stack_chk_guard
	ldr	x0, [x0, #:got_lo12:__stack_chk_guard]
	ldr	x1, [x0]
	str	x1, [sp, 40]
	mov	x1, 0
	ldr	x0, [sp, 24]
	ldr	s1, [x0]
	ldr	x0, [sp, 16]
	ldr	s0, [x0]
	fcmpe	s1, s0
	bge	.L94
	b	.L96
.L94:
	ldr	x0, [sp, 24]
	ldr	s0, [x0]
	b	.L88
.L96:
	ldr	x0, [sp, 16]
	ldr	s0, [x0]
.L88:
	ldr	x0, [sp, 24]
	ldr	s2, [x0, 4]
	ldr	x0, [sp, 16]
	ldr	s1, [x0, 4]
	fcmpe	s2, s1
	bge	.L95
	b	.L97
.L95:
	ldr	x0, [sp, 24]
	ldr	s1, [x0, 4]
	b	.L91
.L97:
	ldr	x0, [sp, 16]
	ldr	s1, [x0, 4]
.L91:
	add	x0, sp, 32
	bl	_ZN6ImVec2C1Eff
	ldr	x0, [sp, 32]
	mov	x1, x0
	lsr	w1, w1, 0
	lsr	x0, x0, 32
	fmov	s0, w1
	fmov	s1, w0
	adrp	x0, :got:__stack_chk_guard
	ldr	x0, [x0, #:got_lo12:__stack_chk_guard]
	ldr	x2, [sp, 40]
	ldr	x1, [x0]
	subs	x2, x2, x1
	mov	x1, 0
	beq	.L93
	bl	__stack_chk_fail
.L93:
	ldp	x29, x30, [sp], 48
	.cfi_restore 30
	.cfi_restore 29
	.cfi_def_cfa_offset 0
	ret
	.cfi_endproc
.LFE1190:
	.size	_ZL5ImMaxRK6ImVec2S1_, .-_ZL5ImMaxRK6ImVec2S1_
	.align	2
	.type	_ZL7ImClampRK6ImVec2S1_S_, %function
_ZL7ImClampRK6ImVec2S1_S_:
.LFB1191:
	.cfi_startproc
	stp	x29, x30, [sp, -64]!
	.cfi_def_cfa_offset 64
	.cfi_offset 29, -64
	.cfi_offset 30, -56
	mov	x29, sp
	str	x0, [sp, 40]
	str	x1, [sp, 32]
	fmov	s2, s0
	fmov	s0, s1
	fmov	x0, d2
	fmov	w1, s0
	bfi	x0, x1, 32, 32
	str	x0, [sp, 24]
	adrp	x0, :got:__stack_chk_guard
	ldr	x0, [x0, #:got_lo12:__stack_chk_guard]
	ldr	x1, [x0]
	str	x1, [sp, 56]
	mov	x1, 0
	ldr	x0, [sp, 40]
	ldr	s1, [x0]
	ldr	x0, [sp, 32]
	ldr	s0, [x0]
	fcmpe	s1, s0
	bmi	.L113
	b	.L117
.L113:
	ldr	x0, [sp, 32]
	ldr	s0, [x0]
	b	.L101
.L117:
	ldr	x0, [sp, 40]
	ldr	s1, [x0]
	ldr	s0, [sp, 24]
	fcmpe	s1, s0
	bgt	.L114
	b	.L118
.L114:
	ldr	s0, [sp, 24]
	b	.L101
.L118:
	ldr	x0, [sp, 40]
	ldr	s0, [x0]
.L101:
	ldr	x0, [sp, 40]
	ldr	s2, [x0, 4]
	ldr	x0, [sp, 32]
	ldr	s1, [x0, 4]
	fcmpe	s2, s1
	bmi	.L115
	b	.L119
.L115:
	ldr	x0, [sp, 32]
	ldr	s1, [x0, 4]
	b	.L107
.L119:
	ldr	x0, [sp, 40]
	ldr	s2, [x0, 4]
	ldr	s1, [sp, 28]
	fcmpe	s2, s1
	bgt	.L116
	b	.L120
.L116:
	ldr	s1, [sp, 28]
	b	.L107
.L120:
	ldr	x0, [sp, 40]
	ldr	s1, [x0, 4]
.L107:
	add	x0, sp, 48
	bl	_ZN6ImVec2C1Eff
	ldr	x0, [sp, 48]
	mov	x1, x0
	lsr	w1, w1, 0
	lsr	x0, x0, 32
	fmov	s0, w1
	fmov	s1, w0
	adrp	x0, :got:__stack_chk_guard
	ldr	x0, [x0, #:got_lo12:__stack_chk_guard]
	ldr	x2, [sp, 56]
	ldr	x1, [x0]
	subs	x2, x2, x1
	mov	x1, 0
	beq	.L112
	bl	__stack_chk_fail
.L112:
	ldp	x29, x30, [sp], 64
	.cfi_restore 30
	.cfi_restore 29
	.cfi_def_cfa_offset 0
	ret
	.cfi_endproc
.LFE1191:
	.size	_ZL7ImClampRK6ImVec2S1_S_, .-_ZL7ImClampRK6ImVec2S1_S_
	.align	2
	.type	_ZL6ImLerpRK6ImVec4S1_f, %function
_ZL6ImLerpRK6ImVec4S1_f:
.LFB1194:
	.cfi_startproc
	stp	x29, x30, [sp, -80]!
	.cfi_def_cfa_offset 80
	.cfi_offset 29, -80
	.cfi_offset 30, -72
	mov	x29, sp
	str	x0, [sp, 40]
	str	x1, [sp, 32]
	str	s0, [sp, 28]
	adrp	x0, :got:__stack_chk_guard
	ldr	x0, [x0, #:got_lo12:__stack_chk_guard]
	ldr	x1, [x0]
	str	x1, [sp, 72]
	mov	x1, 0
	ldr	x0, [sp, 40]
	ldr	s1, [x0]
	ldr	x0, [sp, 32]
	ldr	s2, [x0]
	ldr	x0, [sp, 40]
	ldr	s0, [x0]
	fsub	s2, s2, s0
	ldr	s0, [sp, 28]
	fmul	s0, s2, s0
	fadd	s4, s1, s0
	ldr	x0, [sp, 40]
	ldr	s1, [x0, 4]
	ldr	x0, [sp, 32]
	ldr	s2, [x0, 4]
	ldr	x0, [sp, 40]
	ldr	s0, [x0, 4]
	fsub	s2, s2, s0
	ldr	s0, [sp, 28]
	fmul	s0, s2, s0
	fadd	s5, s1, s0
	ldr	x0, [sp, 40]
	ldr	s1, [x0, 8]
	ldr	x0, [sp, 32]
	ldr	s2, [x0, 8]
	ldr	x0, [sp, 40]
	ldr	s0, [x0, 8]
	fsub	s2, s2, s0
	ldr	s0, [sp, 28]
	fmul	s0, s2, s0
	fadd	s6, s1, s0
	ldr	x0, [sp, 40]
	ldr	s1, [x0, 12]
	ldr	x0, [sp, 32]
	ldr	s2, [x0, 12]
	ldr	x0, [sp, 40]
	ldr	s0, [x0, 12]
	fsub	s2, s2, s0
	ldr	s0, [sp, 28]
	fmul	s0, s2, s0
	fadd	s0, s1, s0
	add	x0, sp, 56
	fmov	s3, s0
	fmov	s2, s6
	fmov	s1, s5
	fmov	s0, s4
	bl	_ZN6ImVec4C1Effff
	ldp	x0, x1, [sp, 56]
	mov	x2, x0
	mov	x3, x1
	lsr	w4, w2, 0
	mov	x2, x0
	mov	x3, x1
	lsr	x2, x2, 32
	mov	w5, w2
	mov	x2, x0
	mov	x3, x1
	lsr	w2, w3, 0
	lsr	x0, x1, 32
	fmov	s0, w4
	fmov	s1, w5
	fmov	s2, w2
	fmov	s3, w0
	adrp	x0, :got:__stack_chk_guard
	ldr	x0, [x0, #:got_lo12:__stack_chk_guard]
	ldr	x2, [sp, 72]
	ldr	x1, [x0]
	subs	x2, x2, x1
	mov	x1, 0
	beq	.L123
	bl	__stack_chk_fail
.L123:
	ldp	x29, x30, [sp], 80
	.cfi_restore 30
	.cfi_restore 29
	.cfi_def_cfa_offset 0
	ret
	.cfi_endproc
.LFE1194:
	.size	_ZL6ImLerpRK6ImVec4S1_f, .-_ZL6ImLerpRK6ImVec4S1_f
	.align	2
	.type	_ZL11ImLengthSqrRK6ImVec2, %function
_ZL11ImLengthSqrRK6ImVec2:
.LFB1196:
	.cfi_startproc
	sub	sp, sp, #16
	.cfi_def_cfa_offset 16
	str	x0, [sp, 8]
	ldr	x0, [sp, 8]
	ldr	s1, [x0]
	ldr	x0, [sp, 8]
	ldr	s0, [x0]
	fmul	s1, s1, s0
	ldr	x0, [sp, 8]
	ldr	s2, [x0, 4]
	ldr	x0, [sp, 8]
	ldr	s0, [x0, 4]
	fmul	s0, s2, s0
	fadd	s0, s1, s0
	add	sp, sp, 16
	.cfi_def_cfa_offset 0
	ret
	.cfi_endproc
.LFE1196:
	.size	_ZL11ImLengthSqrRK6ImVec2, .-_ZL11ImLengthSqrRK6ImVec2
	.align	2
	.type	_ZL7ImFloorf, %function
_ZL7ImFloorf:
.LFB1199:
	.cfi_startproc
	sub	sp, sp, #16
	.cfi_def_cfa_offset 16
	str	s0, [sp, 12]
	ldr	s0, [sp, 12]
	fcvtzs	s0, s0
	scvtf	s0, s0
	add	sp, sp, 16
	.cfi_def_cfa_offset 0
	ret
	.cfi_endproc
.LFE1199:
	.size	_ZL7ImFloorf, .-_ZL7ImFloorf
	.align	2
	.type	_ZL13ImFloorSignedf, %function
_ZL13ImFloorSignedf:
.LFB1200:
	.cfi_startproc
	sub	sp, sp, #16
	.cfi_def_cfa_offset 16
	str	s0, [sp, 12]
	ldr	s0, [sp, 12]
	fcmpe	s0, #0.0
	bge	.L129
	ldr	s0, [sp, 12]
	fcvtzs	s0, s0
	scvtf	s0, s0
	ldr	s1, [sp, 12]
	fcmp	s1, s0
	bne	.L130
.L129:
	ldr	s0, [sp, 12]
	fcvtzs	s0, s0
	scvtf	s0, s0
	b	.L131
.L130:
	ldr	s0, [sp, 12]
	fcvtzs	w0, s0
	sub	w0, w0, #1
	scvtf	s0, w0
.L131:
	add	sp, sp, 16
	.cfi_def_cfa_offset 0
	ret
	.cfi_endproc
.LFE1200:
	.size	_ZL13ImFloorSignedf, .-_ZL13ImFloorSignedf
	.align	2
	.type	_ZL5ImDotRK6ImVec2S1_, %function
_ZL5ImDotRK6ImVec2S1_:
.LFB1204:
	.cfi_startproc
	sub	sp, sp, #16
	.cfi_def_cfa_offset 16
	str	x0, [sp, 8]
	str	x1, [sp]
	ldr	x0, [sp, 8]
	ldr	s1, [x0]
	ldr	x0, [sp]
	ldr	s0, [x0]
	fmul	s1, s1, s0
	ldr	x0, [sp, 8]
	ldr	s2, [x0, 4]
	ldr	x0, [sp]
	ldr	s0, [x0, 4]
	fmul	s0, s2, s0
	fadd	s0, s1, s0
	add	sp, sp, 16
	.cfi_def_cfa_offset 0
	ret
	.cfi_endproc
.LFE1204:
	.size	_ZL5ImDotRK6ImVec2S1_, .-_ZL5ImDotRK6ImVec2S1_
	.align	2
	.type	_ZL5ImMulRK6ImVec2S1_, %function
_ZL5ImMulRK6ImVec2S1_:
.LFB1207:
	.cfi_startproc
	stp	x29, x30, [sp, -48]!
	.cfi_def_cfa_offset 48
	.cfi_offset 29, -48
	.cfi_offset 30, -40
	mov	x29, sp
	str	x0, [sp, 24]
	str	x1, [sp, 16]
	adrp	x0, :got:__stack_chk_guard
	ldr	x0, [x0, #:got_lo12:__stack_chk_guard]
	ldr	x1, [x0]
	str	x1, [sp, 40]
	mov	x1, 0
	ldr	x0, [sp, 24]
	ldr	s1, [x0]
	ldr	x0, [sp, 16]
	ldr	s0, [x0]
	fmul	s2, s1, s0
	ldr	x0, [sp, 24]
	ldr	s1, [x0, 4]
	ldr	x0, [sp, 16]
	ldr	s0, [x0, 4]
	fmul	s0, s1, s0
	add	x0, sp, 32
	fmov	s1, s0
	fmov	s0, s2
	bl	_ZN6ImVec2C1Eff
	ldr	x0, [sp, 32]
	mov	x1, x0
	lsr	w1, w1, 0
	lsr	x0, x0, 32
	fmov	s0, w1
	fmov	s1, w0
	adrp	x0, :got:__stack_chk_guard
	ldr	x0, [x0, #:got_lo12:__stack_chk_guard]
	ldr	x2, [sp, 40]
	ldr	x1, [x0]
	subs	x2, x2, x1
	mov	x1, 0
	beq	.L137
	bl	__stack_chk_fail
.L137:
	ldp	x29, x30, [sp], 48
	.cfi_restore 30
	.cfi_restore 29
	.cfi_def_cfa_offset 0
	ret
	.cfi_endproc
.LFE1207:
	.size	_ZL5ImMulRK6ImVec2S1_, .-_ZL5ImMulRK6ImVec2S1_
	.section	.text._Z17ImBitArrayTestBitPKji,"axG",@progbits,_Z17ImBitArrayTestBitPKji,comdat
	.align	2
	.weak	_Z17ImBitArrayTestBitPKji
	.type	_Z17ImBitArrayTestBitPKji, %function
_Z17ImBitArrayTestBitPKji:
.LFB1261:
	.cfi_startproc
	sub	sp, sp, #32
	.cfi_def_cfa_offset 32
	str	x0, [sp, 8]
	str	w1, [sp, 4]
	ldr	w0, [sp, 4]
	and	w0, w0, 31
	mov	w1, 1
	lsl	w0, w1, w0
	str	w0, [sp, 28]
	ldr	w0, [sp, 4]
	asr	w0, w0, 5
	sxtw	x0, w0
	lsl	x0, x0, 2
	ldr	x1, [sp, 8]
	add	x0, x1, x0
	ldr	w1, [x0]
	ldr	w0, [sp, 28]
	and	w0, w1, w0
	cmp	w0, 0
	cset	w0, ne
	and	w0, w0, 255
	add	sp, sp, 32
	.cfi_def_cfa_offset 0
	ret
	.cfi_endproc
.LFE1261:
	.size	_Z17ImBitArrayTestBitPKji, .-_Z17ImBitArrayTestBitPKji
	.section	.text._Z16ImBitArraySetBitPji,"axG",@progbits,_Z16ImBitArraySetBitPji,comdat
	.align	2
	.weak	_Z16ImBitArraySetBitPji
	.type	_Z16ImBitArraySetBitPji, %function
_Z16ImBitArraySetBitPji:
.LFB1263:
	.cfi_startproc
	sub	sp, sp, #32
	.cfi_def_cfa_offset 32
	str	x0, [sp, 8]
	str	w1, [sp, 4]
	ldr	w0, [sp, 4]
	and	w0, w0, 31
	mov	w1, 1
	lsl	w0, w1, w0
	str	w0, [sp, 28]
	ldr	w0, [sp, 4]
	asr	w0, w0, 5
	sxtw	x0, w0
	lsl	x0, x0, 2
	ldr	x1, [sp, 8]
	add	x0, x1, x0
	ldr	w2, [x0]
	ldr	w0, [sp, 4]
	asr	w0, w0, 5
	sxtw	x0, w0
	lsl	x0, x0, 2
	ldr	x1, [sp, 8]
	add	x0, x1, x0
	ldr	w1, [sp, 28]
	orr	w1, w2, w1
	str	w1, [x0]
	nop
	add	sp, sp, 32
	.cfi_def_cfa_offset 0
	ret
	.cfi_endproc
.LFE1263:
	.size	_Z16ImBitArraySetBitPji, .-_Z16ImBitArraySetBitPji
	.section	.text._ZN11ImBitVector6CreateEi,"axG",@progbits,_ZN11ImBitVector6CreateEi,comdat
	.align	2
	.weak	_ZN11ImBitVector6CreateEi
	.type	_ZN11ImBitVector6CreateEi, %function
_ZN11ImBitVector6CreateEi:
.LFB1273:
	.cfi_startproc
	stp	x29, x30, [sp, -32]!
	.cfi_def_cfa_offset 32
	.cfi_offset 29, -32
	.cfi_offset 30, -24
	mov	x29, sp
	str	x0, [sp, 24]
	str	w1, [sp, 20]
	ldr	x2, [sp, 24]
	ldr	w0, [sp, 20]
	add	w0, w0, 31
	asr	w0, w0, 5
	mov	w1, w0
	mov	x0, x2
	bl	_ZN8ImVectorIjE6resizeEi
	ldr	x0, [sp, 24]
	ldr	x3, [x0, 8]
	ldr	x0, [sp, 24]
	ldr	w0, [x0]
	sxtw	x0, w0
	lsl	x0, x0, 2
	mov	x2, x0
	mov	w1, 0
	mov	x0, x3
	bl	memset
	nop
	ldp	x29, x30, [sp], 32
	.cfi_restore 30
	.cfi_restore 29
	.cfi_def_cfa_offset 0
	ret
	.cfi_endproc
.LFE1273:
	.size	_ZN11ImBitVector6CreateEi, .-_ZN11ImBitVector6CreateEi
	.section	.text._ZN11ImBitVector5ClearEv,"axG",@progbits,_ZN11ImBitVector5ClearEv,comdat
	.align	2
	.weak	_ZN11ImBitVector5ClearEv
	.type	_ZN11ImBitVector5ClearEv, %function
_ZN11ImBitVector5ClearEv:
.LFB1274:
	.cfi_startproc
	stp	x29, x30, [sp, -32]!
	.cfi_def_cfa_offset 32
	.cfi_offset 29, -32
	.cfi_offset 30, -24
	mov	x29, sp
	str	x0, [sp, 24]
	ldr	x0, [sp, 24]
	bl	_ZN8ImVectorIjE5clearEv
	nop
	ldp	x29, x30, [sp], 32
	.cfi_restore 30
	.cfi_restore 29
	.cfi_def_cfa_offset 0
	ret
	.cfi_endproc
.LFE1274:
	.size	_ZN11ImBitVector5ClearEv, .-_ZN11ImBitVector5ClearEv
	.section	.rodata
	.align	3
.LC5:
	.string	"bool ImBitVector::TestBit(int) const"
	.align	3
.LC6:
	.string	"/media/psf/Home/Desktop/git/C-/mac/myproject/external/imgui/include/imgui_internal.h"
	.align	3
.LC7:
	.string	"n < (Storage.Size << 5)"
	.section	.text._ZNK11ImBitVector7TestBitEi,"axG",@progbits,_ZNK11ImBitVector7TestBitEi,comdat
	.align	2
	.weak	_ZNK11ImBitVector7TestBitEi
	.type	_ZNK11ImBitVector7TestBitEi, %function
_ZNK11ImBitVector7TestBitEi:
.LFB1275:
	.cfi_startproc
	stp	x29, x30, [sp, -32]!
	.cfi_def_cfa_offset 32
	.cfi_offset 29, -32
	.cfi_offset 30, -24
	mov	x29, sp
	str	x0, [sp, 24]
	str	w1, [sp, 20]
	ldr	x0, [sp, 24]
	ldr	w0, [x0]
	lsl	w0, w0, 5
	ldr	w1, [sp, 20]
	cmp	w1, w0
	blt	.L144
	adrp	x0, .LC5
	add	x3, x0, :lo12:.LC5
	mov	w2, 588
	adrp	x0, .LC6
	add	x1, x0, :lo12:.LC6
	adrp	x0, .LC7
	add	x0, x0, :lo12:.LC7
	bl	__assert_fail
.L144:
	ldr	x0, [sp, 24]
	ldr	x0, [x0, 8]
	ldr	w1, [sp, 20]
	bl	_Z17ImBitArrayTestBitPKji
	and	w0, w0, 255
	ldp	x29, x30, [sp], 32
	.cfi_restore 30
	.cfi_restore 29
	.cfi_def_cfa_offset 0
	ret
	.cfi_endproc
.LFE1275:
	.size	_ZNK11ImBitVector7TestBitEi, .-_ZNK11ImBitVector7TestBitEi
	.section	.rodata
	.align	3
.LC8:
	.string	"void ImBitVector::SetBit(int)"
	.section	.text._ZN11ImBitVector6SetBitEi,"axG",@progbits,_ZN11ImBitVector6SetBitEi,comdat
	.align	2
	.weak	_ZN11ImBitVector6SetBitEi
	.type	_ZN11ImBitVector6SetBitEi, %function
_ZN11ImBitVector6SetBitEi:
.LFB1276:
	.cfi_startproc
	stp	x29, x30, [sp, -32]!
	.cfi_def_cfa_offset 32
	.cfi_offset 29, -32
	.cfi_offset 30, -24
	mov	x29, sp
	str	x0, [sp, 24]
	str	w1, [sp, 20]
	ldr	x0, [sp, 24]
	ldr	w0, [x0]
	lsl	w0, w0, 5
	ldr	w1, [sp, 20]
	cmp	w1, w0
	blt	.L147
	adrp	x0, .LC8
	add	x3, x0, :lo12:.LC8
	mov	w2, 589
	adrp	x0, .LC6
	add	x1, x0, :lo12:.LC6
	adrp	x0, .LC7
	add	x0, x0, :lo12:.LC7
	bl	__assert_fail
.L147:
	ldr	x0, [sp, 24]
	ldr	x0, [x0, 8]
	ldr	w1, [sp, 20]
	bl	_Z16ImBitArraySetBitPji
	nop
	ldp	x29, x30, [sp], 32
	.cfi_restore 30
	.cfi_restore 29
	.cfi_def_cfa_offset 0
	ret
	.cfi_endproc
.LFE1276:
	.size	_ZN11ImBitVector6SetBitEi, .-_ZN11ImBitVector6SetBitEi
	.section	.rodata
	.align	3
.LC9:
	.string	"void stbrp_setup_heuristic(stbrp_context*, int)"
	.align	3
.LC10:
	.string	"/media/psf/Home/Desktop/git/C-/mac/myproject/external/imgui/include/imstb_rectpack.h"
	.align	3
.LC11:
	.string	"heuristic == STBRP_HEURISTIC_Skyline_BL_sortHeight || heuristic == STBRP_HEURISTIC_Skyline_BF_sortHeight"
	.align	3
.LC12:
	.string	"0"
	.text
	.align	2
	.type	stbrp_setup_heuristic, %function
stbrp_setup_heuristic:
.LFB1568:
	.cfi_startproc
	stp	x29, x30, [sp, -32]!
	.cfi_def_cfa_offset 32
	.cfi_offset 29, -32
	.cfi_offset 30, -24
	mov	x29, sp
	str	x0, [sp, 24]
	str	w1, [sp, 20]
	ldr	x0, [sp, 24]
	ldr	w0, [x0, 12]
	cmp	w0, 1
	bne	.L149
	ldr	w0, [sp, 20]
	cmp	w0, 0
	beq	.L150
	ldr	w0, [sp, 20]
	cmp	w0, 1
	beq	.L150
	adrp	x0, .LC9
	add	x3, x0, :lo12:.LC9
	mov	w2, 237
	adrp	x0, .LC10
	add	x1, x0, :lo12:.LC10
	adrp	x0, .LC11
	add	x0, x0, :lo12:.LC11
	bl	__assert_fail
.L150:
	ldr	x0, [sp, 24]
	ldr	w1, [sp, 20]
	str	w1, [x0, 16]
	b	.L152
.L149:
	adrp	x0, .LC9
	add	x3, x0, :lo12:.LC9
	mov	w2, 241
	adrp	x0, .LC10
	add	x1, x0, :lo12:.LC10
	adrp	x0, .LC12
	add	x0, x0, :lo12:.LC12
	bl	__assert_fail
.L152:
	nop
	ldp	x29, x30, [sp], 32
	.cfi_restore 30
	.cfi_restore 29
	.cfi_def_cfa_offset 0
	ret
	.cfi_endproc
.LFE1568:
	.size	stbrp_setup_heuristic, .-stbrp_setup_heuristic
	.align	2
	.type	stbrp_setup_allow_out_of_mem, %function
stbrp_setup_allow_out_of_mem:
.LFB1569:
	.cfi_startproc
	sub	sp, sp, #16
	.cfi_def_cfa_offset 16
	str	x0, [sp, 8]
	str	w1, [sp, 4]
	ldr	w0, [sp, 4]
	cmp	w0, 0
	beq	.L154
	ldr	x0, [sp, 8]
	mov	w1, 1
	str	w1, [x0, 8]
	b	.L156
.L154:
	ldr	x0, [sp, 8]
	ldr	w1, [x0]
	ldr	x0, [sp, 8]
	ldr	w0, [x0, 20]
	add	w0, w1, w0
	sub	w1, w0, #1
	ldr	x0, [sp, 8]
	ldr	w0, [x0, 20]
	sdiv	w1, w1, w0
	ldr	x0, [sp, 8]
	str	w1, [x0, 8]
.L156:
	nop
	add	sp, sp, 16
	.cfi_def_cfa_offset 0
	ret
	.cfi_endproc
.LFE1569:
	.size	stbrp_setup_allow_out_of_mem, .-stbrp_setup_allow_out_of_mem
	.align	2
	.type	stbrp_init_target, %function
stbrp_init_target:
.LFB1570:
	.cfi_startproc
	stp	x29, x30, [sp, -64]!
	.cfi_def_cfa_offset 64
	.cfi_offset 29, -64
	.cfi_offset 30, -56
	mov	x29, sp
	str	x0, [sp, 40]
	str	w1, [sp, 36]
	str	w2, [sp, 32]
	str	x3, [sp, 24]
	str	w4, [sp, 20]
	str	wzr, [sp, 60]
	b	.L158
.L159:
	ldrsw	x0, [sp, 60]
	add	x0, x0, 1
	lsl	x1, x0, 4
	ldrsw	x0, [sp, 60]
	lsl	x0, x0, 4
	ldr	x2, [sp, 24]
	add	x0, x2, x0
	ldr	x2, [sp, 24]
	add	x1, x2, x1
	str	x1, [x0, 8]
	ldr	w0, [sp, 60]
	add	w0, w0, 1
	str	w0, [sp, 60]
.L158:
	ldr	w0, [sp, 20]
	sub	w0, w0, #1
	ldr	w1, [sp, 60]
	cmp	w1, w0
	blt	.L159
	ldrsw	x0, [sp, 60]
	lsl	x0, x0, 4
	ldr	x1, [sp, 24]
	add	x0, x1, x0
	str	xzr, [x0, 8]
	ldr	x0, [sp, 40]
	mov	w1, 1
	str	w1, [x0, 12]
	ldr	x0, [sp, 40]
	str	wzr, [x0, 16]
	ldr	x0, [sp, 40]
	ldr	x1, [sp, 24]
	str	x1, [x0, 32]
	ldr	x0, [sp, 40]
	add	x1, x0, 40
	ldr	x0, [sp, 40]
	str	x1, [x0, 24]
	ldr	x0, [sp, 40]
	ldr	w1, [sp, 36]
	str	w1, [x0]
	ldr	x0, [sp, 40]
	ldr	w1, [sp, 32]
	str	w1, [x0, 4]
	ldr	x0, [sp, 40]
	ldr	w1, [sp, 20]
	str	w1, [x0, 20]
	mov	w1, 0
	ldr	x0, [sp, 40]
	bl	stbrp_setup_allow_out_of_mem
	ldr	x0, [sp, 40]
	str	wzr, [x0, 40]
	ldr	x0, [sp, 40]
	str	wzr, [x0, 44]
	ldr	x0, [sp, 40]
	add	x1, x0, 56
	ldr	x0, [sp, 40]
	str	x1, [x0, 48]
	ldr	x0, [sp, 40]
	ldr	w1, [sp, 36]
	str	w1, [x0, 56]
	ldr	x0, [sp, 40]
	mov	w1, 1073741824
	str	w1, [x0, 60]
	ldr	x0, [sp, 40]
	str	xzr, [x0, 64]
	nop
	ldp	x29, x30, [sp], 64
	.cfi_restore 30
	.cfi_restore 29
	.cfi_def_cfa_offset 0
	ret
	.cfi_endproc
.LFE1570:
	.size	stbrp_init_target, .-stbrp_init_target
	.section	.rodata
	.align	3
.LC13:
	.string	"int stbrp__skyline_find_min_y(stbrp_context*, stbrp_node*, int, int, int*)"
	.align	3
.LC14:
	.string	"first->x <= x0"
	.align	3
.LC15:
	.string	"node->next->x > x0"
	.align	3
.LC16:
	.string	"node->x <= x0"
	.text
	.align	2
	.type	_ZL25stbrp__skyline_find_min_yP13stbrp_contextP10stbrp_nodeiiPi, %function
_ZL25stbrp__skyline_find_min_yP13stbrp_contextP10stbrp_nodeiiPi:
.LFB1571:
	.cfi_startproc
	stp	x29, x30, [sp, -80]!
	.cfi_def_cfa_offset 80
	.cfi_offset 29, -80
	.cfi_offset 30, -72
	mov	x29, sp
	str	x0, [sp, 40]
	str	x1, [sp, 32]
	str	w2, [sp, 28]
	str	w3, [sp, 24]
	str	x4, [sp, 16]
	ldr	x0, [sp, 32]
	str	x0, [sp, 72]
	ldr	w1, [sp, 28]
	ldr	w0, [sp, 24]
	add	w0, w1, w0
	str	w0, [sp, 68]
	ldr	x0, [sp, 32]
	ldr	w0, [x0]
	ldr	w1, [sp, 28]
	cmp	w1, w0
	bge	.L161
	adrp	x0, .LC13
	add	x3, x0, :lo12:.LC13
	mov	w2, 299
	adrp	x0, .LC10
	add	x1, x0, :lo12:.LC10
	adrp	x0, .LC14
	add	x0, x0, :lo12:.LC14
	bl	__assert_fail
.L161:
	ldr	x0, [sp, 72]
	ldr	x0, [x0, 8]
	ldr	w0, [x0]
	ldr	w1, [sp, 28]
	cmp	w1, w0
	blt	.L162
	adrp	x0, .LC13
	add	x3, x0, :lo12:.LC13
	mov	w2, 306
	adrp	x0, .LC10
	add	x1, x0, :lo12:.LC10
	adrp	x0, .LC15
	add	x0, x0, :lo12:.LC15
	bl	__assert_fail
.L162:
	ldr	x0, [sp, 72]
	ldr	w0, [x0]
	ldr	w1, [sp, 28]
	cmp	w1, w0
	bge	.L163
	adrp	x0, .LC13
	add	x3, x0, :lo12:.LC13
	mov	w2, 309
	adrp	x0, .LC10
	add	x1, x0, :lo12:.LC10
	adrp	x0, .LC16
	add	x0, x0, :lo12:.LC16
	bl	__assert_fail
.L163:
	str	wzr, [sp, 52]
	str	wzr, [sp, 60]
	str	wzr, [sp, 56]
	b	.L164
.L169:
	ldr	x0, [sp, 72]
	ldr	w0, [x0, 4]
	ldr	w1, [sp, 52]
	cmp	w1, w0
	bge	.L165
	ldr	x0, [sp, 72]
	ldr	w1, [x0, 4]
	ldr	w0, [sp, 52]
	sub	w1, w1, w0
	ldr	w0, [sp, 56]
	mul	w0, w1, w0
	ldr	w1, [sp, 60]
	add	w0, w1, w0
	str	w0, [sp, 60]
	ldr	x0, [sp, 72]
	ldr	w0, [x0, 4]
	str	w0, [sp, 52]
	ldr	x0, [sp, 72]
	ldr	w0, [x0]
	ldr	w1, [sp, 28]
	cmp	w1, w0
	ble	.L166
	ldr	x0, [sp, 72]
	ldr	x0, [x0, 8]
	ldr	w1, [x0]
	ldr	w0, [sp, 28]
	sub	w0, w1, w0
	ldr	w1, [sp, 56]
	add	w0, w1, w0
	str	w0, [sp, 56]
	b	.L167
.L166:
	ldr	x0, [sp, 72]
	ldr	x0, [x0, 8]
	ldr	w1, [x0]
	ldr	x0, [sp, 72]
	ldr	w0, [x0]
	sub	w0, w1, w0
	ldr	w1, [sp, 56]
	add	w0, w1, w0
	str	w0, [sp, 56]
	b	.L167
.L165:
	ldr	x0, [sp, 72]
	ldr	x0, [x0, 8]
	ldr	w1, [x0]
	ldr	x0, [sp, 72]
	ldr	w0, [x0]
	sub	w0, w1, w0
	str	w0, [sp, 64]
	ldr	w1, [sp, 64]
	ldr	w0, [sp, 56]
	add	w0, w1, w0
	ldr	w1, [sp, 24]
	cmp	w1, w0
	bge	.L168
	ldr	w1, [sp, 24]
	ldr	w0, [sp, 56]
	sub	w0, w1, w0
	str	w0, [sp, 64]
.L168:
	ldr	x0, [sp, 72]
	ldr	w0, [x0, 4]
	ldr	w1, [sp, 52]
	sub	w1, w1, w0
	ldr	w0, [sp, 64]
	mul	w0, w1, w0
	ldr	w1, [sp, 60]
	add	w0, w1, w0
	str	w0, [sp, 60]
	ldr	w1, [sp, 56]
	ldr	w0, [sp, 64]
	add	w0, w1, w0
	str	w0, [sp, 56]
.L167:
	ldr	x0, [sp, 72]
	ldr	x0, [x0, 8]
	str	x0, [sp, 72]
.L164:
	ldr	x0, [sp, 72]
	ldr	w0, [x0]
	ldr	w1, [sp, 68]
	cmp	w1, w0
	bgt	.L169
	ldr	x0, [sp, 16]
	ldr	w1, [sp, 60]
	str	w1, [x0]
	ldr	w0, [sp, 52]
	ldp	x29, x30, [sp], 80
	.cfi_restore 30
	.cfi_restore 29
	.cfi_def_cfa_offset 0
	ret
	.cfi_endproc
.LFE1571:
	.size	_ZL25stbrp__skyline_find_min_yP13stbrp_contextP10stbrp_nodeiiPi, .-_ZL25stbrp__skyline_find_min_yP13stbrp_contextP10stbrp_nodeiiPi
	.section	.rodata
	.align	3
.LC17:
	.string	"stbrp__findresult stbrp__skyline_find_best_pos(stbrp_context*, int, int)"
	.align	3
.LC18:
	.string	"width % c->align == 0"
	.align	3
.LC19:
	.string	"xpos >= 0"
	.align	3
.LC20:
	.string	"node->next->x > xpos && node->x <= xpos"
	.text
	.align	2
	.type	_ZL28stbrp__skyline_find_best_posP13stbrp_contextii, %function
_ZL28stbrp__skyline_find_best_posP13stbrp_contextii:
.LFB1572:
	.cfi_startproc
	stp	x29, x30, [sp, -112]!
	.cfi_def_cfa_offset 112
	.cfi_offset 29, -112
	.cfi_offset 30, -104
	mov	x29, sp
	str	x0, [sp, 24]
	str	w1, [sp, 20]
	str	w2, [sp, 16]
	adrp	x0, :got:__stack_chk_guard
	ldr	x0, [x0, #:got_lo12:__stack_chk_guard]
	ldr	x1, [x0]
	str	x1, [sp, 104]
	mov	x1, 0
	mov	w0, 1073741824
	str	w0, [sp, 32]
	mov	w0, 1073741824
	str	w0, [sp, 40]
	str	xzr, [sp, 80]
	ldr	x0, [sp, 24]
	ldr	w1, [x0, 8]
	ldr	w0, [sp, 20]
	add	w0, w1, w0
	sub	w0, w0, #1
	str	w0, [sp, 20]
	ldr	x0, [sp, 24]
	ldr	w1, [x0, 8]
	ldr	w0, [sp, 20]
	sdiv	w2, w0, w1
	mul	w1, w2, w1
	sub	w0, w0, w1
	ldr	w1, [sp, 20]
	sub	w0, w1, w0
	str	w0, [sp, 20]
	ldr	x0, [sp, 24]
	ldr	w1, [x0, 8]
	ldr	w0, [sp, 20]
	sdiv	w2, w0, w1
	mul	w1, w2, w1
	sub	w0, w0, w1
	cmp	w0, 0
	beq	.L172
	adrp	x0, .LC17
	add	x3, x0, :lo12:.LC17
	mov	w2, 356
	adrp	x0, .LC10
	add	x1, x0, :lo12:.LC10
	adrp	x0, .LC18
	add	x0, x0, :lo12:.LC18
	bl	__assert_fail
.L172:
	ldr	x0, [sp, 24]
	ldr	w0, [x0]
	ldr	w1, [sp, 20]
	cmp	w1, w0
	bgt	.L173
	ldr	x0, [sp, 24]
	ldr	w0, [x0, 4]
	ldr	w1, [sp, 16]
	cmp	w1, w0
	ble	.L174
.L173:
	str	xzr, [sp, 96]
	str	wzr, [sp, 92]
	ldr	w0, [sp, 92]
	str	w0, [sp, 88]
	ldp	x0, x1, [sp, 88]
	b	.L195
.L174:
	ldr	x0, [sp, 24]
	ldr	x0, [x0, 24]
	str	x0, [sp, 64]
	ldr	x0, [sp, 24]
	add	x0, x0, 24
	str	x0, [sp, 56]
	b	.L176
.L180:
	ldr	x0, [sp, 64]
	ldr	w0, [x0]
	add	x1, sp, 88
	mov	x4, x1
	ldr	w3, [sp, 20]
	mov	w2, w0
	ldr	x1, [sp, 64]
	ldr	x0, [sp, 24]
	bl	_ZL25stbrp__skyline_find_min_yP13stbrp_contextP10stbrp_nodeiiPi
	str	w0, [sp, 52]
	ldr	x0, [sp, 24]
	ldr	w0, [x0, 16]
	cmp	w0, 0
	bne	.L177
	ldr	w1, [sp, 52]
	ldr	w0, [sp, 40]
	cmp	w1, w0
	bge	.L178
	ldr	w0, [sp, 52]
	str	w0, [sp, 40]
	ldr	x0, [sp, 56]
	str	x0, [sp, 80]
	b	.L178
.L177:
	ldr	w1, [sp, 52]
	ldr	w0, [sp, 16]
	add	w1, w1, w0
	ldr	x0, [sp, 24]
	ldr	w0, [x0, 4]
	cmp	w1, w0
	bgt	.L178
	ldr	w1, [sp, 52]
	ldr	w0, [sp, 40]
	cmp	w1, w0
	blt	.L179
	ldr	w1, [sp, 52]
	ldr	w0, [sp, 40]
	cmp	w1, w0
	bne	.L178
	ldr	w0, [sp, 88]
	ldr	w1, [sp, 32]
	cmp	w1, w0
	ble	.L178
.L179:
	ldr	w0, [sp, 52]
	str	w0, [sp, 40]
	ldr	w0, [sp, 88]
	str	w0, [sp, 32]
	ldr	x0, [sp, 56]
	str	x0, [sp, 80]
.L178:
	ldr	x0, [sp, 64]
	add	x0, x0, 8
	str	x0, [sp, 56]
	ldr	x0, [sp, 64]
	ldr	x0, [x0, 8]
	str	x0, [sp, 64]
.L176:
	ldr	x0, [sp, 64]
	ldr	w1, [x0]
	ldr	w0, [sp, 20]
	add	w1, w1, w0
	ldr	x0, [sp, 24]
	ldr	w0, [x0]
	cmp	w1, w0
	ble	.L180
	ldr	x0, [sp, 80]
	cmp	x0, 0
	beq	.L181
	ldr	x0, [sp, 80]
	ldr	x0, [x0]
	ldr	w0, [x0]
	b	.L182
.L181:
	mov	w0, 0
.L182:
	str	w0, [sp, 36]
	ldr	x0, [sp, 24]
	ldr	w0, [x0, 16]
	cmp	w0, 1
	bne	.L183
	ldr	x0, [sp, 24]
	ldr	x0, [x0, 24]
	str	x0, [sp, 72]
	ldr	x0, [sp, 24]
	ldr	x0, [x0, 24]
	str	x0, [sp, 64]
	ldr	x0, [sp, 24]
	add	x0, x0, 24
	str	x0, [sp, 56]
	b	.L184
.L185:
	ldr	x0, [sp, 72]
	ldr	x0, [x0, 8]
	str	x0, [sp, 72]
.L184:
	ldr	x0, [sp, 72]
	ldr	w0, [x0]
	ldr	w1, [sp, 20]
	cmp	w1, w0
	bgt	.L185
	b	.L186
.L194:
	ldr	x0, [sp, 72]
	ldr	w1, [x0]
	ldr	w0, [sp, 20]
	sub	w0, w1, w0
	str	w0, [sp, 44]
	ldr	w0, [sp, 44]
	cmp	w0, 0
	bge	.L188
	adrp	x0, .LC17
	add	x3, x0, :lo12:.LC17
	mov	w2, 420
	adrp	x0, .LC10
	add	x1, x0, :lo12:.LC10
	adrp	x0, .LC19
	add	x0, x0, :lo12:.LC19
	bl	__assert_fail
.L189:
	ldr	x0, [sp, 64]
	add	x0, x0, 8
	str	x0, [sp, 56]
	ldr	x0, [sp, 64]
	ldr	x0, [x0, 8]
	str	x0, [sp, 64]
.L188:
	ldr	x0, [sp, 64]
	ldr	x0, [x0, 8]
	ldr	w0, [x0]
	ldr	w1, [sp, 44]
	cmp	w1, w0
	bge	.L189
	ldr	x0, [sp, 64]
	ldr	x0, [x0, 8]
	ldr	w0, [x0]
	ldr	w1, [sp, 44]
	cmp	w1, w0
	bge	.L190
	ldr	x0, [sp, 64]
	ldr	w0, [x0]
	ldr	w1, [sp, 44]
	cmp	w1, w0
	bge	.L197
.L190:
	adrp	x0, .LC17
	add	x3, x0, :lo12:.LC17
	mov	w2, 426
	adrp	x0, .LC10
	add	x1, x0, :lo12:.LC10
	adrp	x0, .LC20
	add	x0, x0, :lo12:.LC20
	bl	__assert_fail
.L197:
	add	x0, sp, 88
	mov	x4, x0
	ldr	w3, [sp, 20]
	ldr	w2, [sp, 44]
	ldr	x1, [sp, 64]
	ldr	x0, [sp, 24]
	bl	_ZL25stbrp__skyline_find_min_yP13stbrp_contextP10stbrp_nodeiiPi
	str	w0, [sp, 48]
	ldr	w1, [sp, 48]
	ldr	w0, [sp, 16]
	add	w1, w1, w0
	ldr	x0, [sp, 24]
	ldr	w0, [x0, 4]
	cmp	w1, w0
	bgt	.L192
	ldr	w1, [sp, 48]
	ldr	w0, [sp, 40]
	cmp	w1, w0
	bgt	.L192
	ldr	w1, [sp, 48]
	ldr	w0, [sp, 40]
	cmp	w1, w0
	blt	.L193
	ldr	w0, [sp, 88]
	ldr	w1, [sp, 32]
	cmp	w1, w0
	bgt	.L193
	ldr	w0, [sp, 88]
	ldr	w1, [sp, 32]
	cmp	w1, w0
	bne	.L192
	ldr	w1, [sp, 44]
	ldr	w0, [sp, 36]
	cmp	w1, w0
	bge	.L192
.L193:
	ldr	w0, [sp, 44]
	str	w0, [sp, 36]
	ldr	w0, [sp, 48]
	str	w0, [sp, 40]
	ldr	w0, [sp, 88]
	str	w0, [sp, 32]
	ldr	x0, [sp, 56]
	str	x0, [sp, 80]
.L192:
	ldr	x0, [sp, 72]
	ldr	x0, [x0, 8]
	str	x0, [sp, 72]
.L186:
	ldr	x0, [sp, 72]
	cmp	x0, 0
	bne	.L194
.L183:
	ldr	x0, [sp, 80]
	str	x0, [sp, 96]
	ldr	w0, [sp, 36]
	str	w0, [sp, 88]
	ldr	w0, [sp, 40]
	str	w0, [sp, 92]
	ldp	x0, x1, [sp, 88]
.L195:
	mov	x2, x0
	mov	x3, x1
	adrp	x0, :got:__stack_chk_guard
	ldr	x0, [x0, #:got_lo12:__stack_chk_guard]
	ldr	x4, [sp, 104]
	ldr	x1, [x0]
	subs	x4, x4, x1
	mov	x1, 0
	beq	.L196
	bl	__stack_chk_fail
.L196:
	mov	x0, x2
	mov	x1, x3
	ldp	x29, x30, [sp], 112
	.cfi_restore 30
	.cfi_restore 29
	.cfi_def_cfa_offset 0
	ret
	.cfi_endproc
.LFE1572:
	.size	_ZL28stbrp__skyline_find_best_posP13stbrp_contextii, .-_ZL28stbrp__skyline_find_best_posP13stbrp_contextii
	.align	2
	.type	_ZL29stbrp__skyline_pack_rectangleP13stbrp_contextii, %function
_ZL29stbrp__skyline_pack_rectangleP13stbrp_contextii:
.LFB1573:
	.cfi_startproc
	stp	x29, x30, [sp, -96]!
	.cfi_def_cfa_offset 96
	.cfi_offset 29, -96
	.cfi_offset 30, -88
	mov	x29, sp
	str	x0, [sp, 24]
	str	w1, [sp, 20]
	str	w2, [sp, 16]
	adrp	x0, :got:__stack_chk_guard
	ldr	x0, [x0, #:got_lo12:__stack_chk_guard]
	ldr	x1, [x0]
	str	x1, [sp, 88]
	mov	x1, 0
	ldr	w2, [sp, 16]
	ldr	w1, [sp, 20]
	ldr	x0, [sp, 24]
	bl	_ZL28stbrp__skyline_find_best_posP13stbrp_contextii
	stp	x0, x1, [sp, 72]
	ldr	x0, [sp, 80]
	cmp	x0, 0
	beq	.L199
	ldr	w1, [sp, 76]
	ldr	w0, [sp, 16]
	add	w1, w1, w0
	ldr	x0, [sp, 24]
	ldr	w0, [x0, 4]
	cmp	w1, w0
	bgt	.L199
	ldr	x0, [sp, 24]
	ldr	x0, [x0, 32]
	cmp	x0, 0
	bne	.L200
.L199:
	str	xzr, [sp, 80]
	ldp	x0, x1, [sp, 72]
	b	.L208
.L200:
	ldr	x0, [sp, 24]
	ldr	x0, [x0, 32]
	str	x0, [sp, 48]
	ldr	w1, [sp, 72]
	ldr	x0, [sp, 48]
	str	w1, [x0]
	ldr	w1, [sp, 76]
	ldr	w0, [sp, 16]
	add	w1, w1, w0
	ldr	x0, [sp, 48]
	str	w1, [x0, 4]
	ldr	x0, [sp, 48]
	ldr	x1, [x0, 8]
	ldr	x0, [sp, 24]
	str	x1, [x0, 32]
	ldr	x0, [sp, 80]
	ldr	x0, [x0]
	str	x0, [sp, 40]
	ldr	x0, [sp, 40]
	ldr	w1, [x0]
	ldr	w0, [sp, 72]
	cmp	w1, w0
	bge	.L202
	ldr	x0, [sp, 40]
	ldr	x0, [x0, 8]
	str	x0, [sp, 56]
	ldr	x0, [sp, 40]
	ldr	x1, [sp, 48]
	str	x1, [x0, 8]
	ldr	x0, [sp, 56]
	str	x0, [sp, 40]
	b	.L204
.L202:
	ldr	x0, [sp, 80]
	ldr	x1, [sp, 48]
	str	x1, [x0]
	b	.L204
.L206:
	ldr	x0, [sp, 40]
	ldr	x0, [x0, 8]
	str	x0, [sp, 64]
	ldr	x0, [sp, 24]
	ldr	x1, [x0, 32]
	ldr	x0, [sp, 40]
	str	x1, [x0, 8]
	ldr	x0, [sp, 24]
	ldr	x1, [sp, 40]
	str	x1, [x0, 32]
	ldr	x0, [sp, 64]
	str	x0, [sp, 40]
.L204:
	ldr	x0, [sp, 40]
	ldr	x0, [x0, 8]
	cmp	x0, 0
	beq	.L205
	ldr	x0, [sp, 40]
	ldr	x0, [x0, 8]
	ldr	w1, [x0]
	ldr	w2, [sp, 72]
	ldr	w0, [sp, 20]
	add	w0, w2, w0
	cmp	w1, w0
	ble	.L206
.L205:
	ldr	x0, [sp, 48]
	ldr	x1, [sp, 40]
	str	x1, [x0, 8]
	ldr	x0, [sp, 40]
	ldr	w1, [x0]
	ldr	w2, [sp, 72]
	ldr	w0, [sp, 20]
	add	w0, w2, w0
	cmp	w1, w0
	bge	.L207
	ldr	w1, [sp, 72]
	ldr	w0, [sp, 20]
	add	w1, w1, w0
	ldr	x0, [sp, 40]
	str	w1, [x0]
.L207:
	ldp	x0, x1, [sp, 72]
.L208:
	mov	x2, x0
	mov	x3, x1
	adrp	x0, :got:__stack_chk_guard
	ldr	x0, [x0, #:got_lo12:__stack_chk_guard]
	ldr	x4, [sp, 88]
	ldr	x1, [x0]
	subs	x4, x4, x1
	mov	x1, 0
	beq	.L209
	bl	__stack_chk_fail
.L209:
	mov	x0, x2
	mov	x1, x3
	ldp	x29, x30, [sp], 96
	.cfi_restore 30
	.cfi_restore 29
	.cfi_def_cfa_offset 0
	ret
	.cfi_endproc
.LFE1573:
	.size	_ZL29stbrp__skyline_pack_rectangleP13stbrp_contextii, .-_ZL29stbrp__skyline_pack_rectangleP13stbrp_contextii
	.align	2
	.type	_ZL19rect_height_comparePKvS0_, %function
_ZL19rect_height_comparePKvS0_:
.LFB1574:
	.cfi_startproc
	sub	sp, sp, #32
	.cfi_def_cfa_offset 32
	str	x0, [sp, 8]
	str	x1, [sp]
	ldr	x0, [sp, 8]
	str	x0, [sp, 16]
	ldr	x0, [sp]
	str	x0, [sp, 24]
	ldr	x0, [sp, 16]
	ldr	w1, [x0, 8]
	ldr	x0, [sp, 24]
	ldr	w0, [x0, 8]
	cmp	w1, w0
	ble	.L211
	mov	w0, -1
	b	.L212
.L211:
	ldr	x0, [sp, 16]
	ldr	w1, [x0, 8]
	ldr	x0, [sp, 24]
	ldr	w0, [x0, 8]
	cmp	w1, w0
	bge	.L213
	mov	w0, 1
	b	.L212
.L213:
	ldr	x0, [sp, 16]
	ldr	w1, [x0, 4]
	ldr	x0, [sp, 24]
	ldr	w0, [x0, 4]
	cmp	w1, w0
	bgt	.L214
	ldr	x0, [sp, 16]
	ldr	w1, [x0, 4]
	ldr	x0, [sp, 24]
	ldr	w0, [x0, 4]
	cmp	w1, w0
	cset	w0, lt
	and	w0, w0, 255
	b	.L216
.L214:
	mov	w0, -1
.L216:
	nop
.L212:
	add	sp, sp, 32
	.cfi_def_cfa_offset 0
	ret
	.cfi_endproc
.LFE1574:
	.size	_ZL19rect_height_comparePKvS0_, .-_ZL19rect_height_comparePKvS0_
	.align	2
	.type	_ZL19rect_original_orderPKvS0_, %function
_ZL19rect_original_orderPKvS0_:
.LFB1575:
	.cfi_startproc
	sub	sp, sp, #32
	.cfi_def_cfa_offset 32
	str	x0, [sp, 8]
	str	x1, [sp]
	ldr	x0, [sp, 8]
	str	x0, [sp, 16]
	ldr	x0, [sp]
	str	x0, [sp, 24]
	ldr	x0, [sp, 16]
	ldr	w1, [x0, 20]
	ldr	x0, [sp, 24]
	ldr	w0, [x0, 20]
	cmp	w1, w0
	blt	.L218
	ldr	x0, [sp, 16]
	ldr	w1, [x0, 20]
	ldr	x0, [sp, 24]
	ldr	w0, [x0, 20]
	cmp	w1, w0
	cset	w0, gt
	and	w0, w0, 255
	b	.L220
.L218:
	mov	w0, -1
.L220:
	add	sp, sp, 32
	.cfi_def_cfa_offset 0
	ret
	.cfi_endproc
.LFE1575:
	.size	_ZL19rect_original_orderPKvS0_, .-_ZL19rect_original_orderPKvS0_
	.align	2
	.type	stbrp_pack_rects, %function
stbrp_pack_rects:
.LFB1576:
	.cfi_startproc
	stp	x29, x30, [sp, -80]!
	.cfi_def_cfa_offset 80
	.cfi_offset 29, -80
	.cfi_offset 30, -72
	mov	x29, sp
	str	x0, [sp, 40]
	str	x1, [sp, 32]
	str	w2, [sp, 28]
	mov	w0, 1
	str	w0, [sp, 60]
	str	wzr, [sp, 56]
	b	.L222
.L223:
	ldrsw	x1, [sp, 56]
	mov	x0, x1
	lsl	x0, x0, 1
	add	x0, x0, x1
	lsl	x0, x0, 3
	mov	x1, x0
	ldr	x0, [sp, 32]
	add	x0, x0, x1
	ldr	w1, [sp, 56]
	str	w1, [x0, 20]
	ldr	w0, [sp, 56]
	add	w0, w0, 1
	str	w0, [sp, 56]
.L222:
	ldr	w1, [sp, 56]
	ldr	w0, [sp, 28]
	cmp	w1, w0
	blt	.L223
	ldrsw	x1, [sp, 28]
	adrp	x0, _ZL19rect_height_comparePKvS0_
	add	x3, x0, :lo12:_ZL19rect_height_comparePKvS0_
	mov	x2, 24
	ldr	x0, [sp, 32]
	bl	_ZL7ImQsortPvmmPFiPKvS1_E
	str	wzr, [sp, 56]
	b	.L224
.L230:
	ldrsw	x1, [sp, 56]
	mov	x0, x1
	lsl	x0, x0, 1
	add	x0, x0, x1
	lsl	x0, x0, 3
	mov	x1, x0
	ldr	x0, [sp, 32]
	add	x0, x0, x1
	ldr	w0, [x0, 4]
	cmp	w0, 0
	beq	.L225
	ldrsw	x1, [sp, 56]
	mov	x0, x1
	lsl	x0, x0, 1
	add	x0, x0, x1
	lsl	x0, x0, 3
	mov	x1, x0
	ldr	x0, [sp, 32]
	add	x0, x0, x1
	ldr	w0, [x0, 8]
	cmp	w0, 0
	bne	.L226
.L225:
	ldrsw	x1, [sp, 56]
	mov	x0, x1
	lsl	x0, x0, 1
	add	x0, x0, x1
	lsl	x0, x0, 3
	mov	x1, x0
	ldr	x0, [sp, 32]
	add	x1, x0, x1
	str	wzr, [x1, 16]
	ldrsw	x2, [sp, 56]
	mov	x0, x2
	lsl	x0, x0, 1
	add	x0, x0, x2
	lsl	x0, x0, 3
	mov	x2, x0
	ldr	x0, [sp, 32]
	add	x0, x0, x2
	ldr	w1, [x1, 16]
	str	w1, [x0, 12]
	b	.L227
.L226:
	ldrsw	x1, [sp, 56]
	mov	x0, x1
	lsl	x0, x0, 1
	add	x0, x0, x1
	lsl	x0, x0, 3
	mov	x1, x0
	ldr	x0, [sp, 32]
	add	x0, x0, x1
	ldr	w3, [x0, 4]
	ldrsw	x1, [sp, 56]
	mov	x0, x1
	lsl	x0, x0, 1
	add	x0, x0, x1
	lsl	x0, x0, 3
	mov	x1, x0
	ldr	x0, [sp, 32]
	add	x0, x0, x1
	ldr	w0, [x0, 8]
	mov	w2, w0
	mov	w1, w3
	ldr	x0, [sp, 40]
	bl	_ZL29stbrp__skyline_pack_rectangleP13stbrp_contextii
	stp	x0, x1, [sp, 64]
	ldr	x0, [sp, 72]
	cmp	x0, 0
	beq	.L228
	ldrsw	x1, [sp, 56]
	mov	x0, x1
	lsl	x0, x0, 1
	add	x0, x0, x1
	lsl	x0, x0, 3
	mov	x1, x0
	ldr	x0, [sp, 32]
	add	x0, x0, x1
	ldr	w1, [sp, 64]
	str	w1, [x0, 12]
	ldrsw	x1, [sp, 56]
	mov	x0, x1
	lsl	x0, x0, 1
	add	x0, x0, x1
	lsl	x0, x0, 3
	mov	x1, x0
	ldr	x0, [sp, 32]
	add	x0, x0, x1
	ldr	w1, [sp, 68]
	str	w1, [x0, 16]
	b	.L227
.L228:
	ldrsw	x1, [sp, 56]
	mov	x0, x1
	lsl	x0, x0, 1
	add	x0, x0, x1
	lsl	x0, x0, 3
	mov	x1, x0
	ldr	x0, [sp, 32]
	add	x1, x0, x1
	mov	w0, 2147483647
	str	w0, [x1, 16]
	ldrsw	x2, [sp, 56]
	mov	x0, x2
	lsl	x0, x0, 1
	add	x0, x0, x2
	lsl	x0, x0, 3
	mov	x2, x0
	ldr	x0, [sp, 32]
	add	x0, x0, x2
	ldr	w1, [x1, 16]
	str	w1, [x0, 12]
.L227:
	ldr	w0, [sp, 56]
	add	w0, w0, 1
	str	w0, [sp, 56]
.L224:
	ldr	w1, [sp, 56]
	ldr	w0, [sp, 28]
	cmp	w1, w0
	blt	.L230
	ldrsw	x1, [sp, 28]
	adrp	x0, _ZL19rect_original_orderPKvS0_
	add	x3, x0, :lo12:_ZL19rect_original_orderPKvS0_
	mov	x2, 24
	ldr	x0, [sp, 32]
	bl	_ZL7ImQsortPvmmPFiPKvS1_E
	str	wzr, [sp, 56]
	b	.L231
.L236:
	ldrsw	x1, [sp, 56]
	mov	x0, x1
	lsl	x0, x0, 1
	add	x0, x0, x1
	lsl	x0, x0, 3
	mov	x1, x0
	ldr	x0, [sp, 32]
	add	x0, x0, x1
	ldr	w1, [x0, 12]
	mov	w0, 2147483647
	cmp	w1, w0
	bne	.L232
	ldrsw	x1, [sp, 56]
	mov	x0, x1
	lsl	x0, x0, 1
	add	x0, x0, x1
	lsl	x0, x0, 3
	mov	x1, x0
	ldr	x0, [sp, 32]
	add	x0, x0, x1
	ldr	w1, [x0, 16]
	mov	w0, 2147483647
	cmp	w1, w0
	beq	.L233
.L232:
	mov	w2, 1
	b	.L234
.L233:
	mov	w2, 0
.L234:
	ldrsw	x1, [sp, 56]
	mov	x0, x1
	lsl	x0, x0, 1
	add	x0, x0, x1
	lsl	x0, x0, 3
	mov	x1, x0
	ldr	x0, [sp, 32]
	add	x0, x0, x1
	mov	w1, w2
	str	w1, [x0, 20]
	ldrsw	x1, [sp, 56]
	mov	x0, x1
	lsl	x0, x0, 1
	add	x0, x0, x1
	lsl	x0, x0, 3
	mov	x1, x0
	ldr	x0, [sp, 32]
	add	x0, x0, x1
	ldr	w0, [x0, 20]
	cmp	w0, 0
	bne	.L235
	str	wzr, [sp, 60]
.L235:
	ldr	w0, [sp, 56]
	add	w0, w0, 1
	str	w0, [sp, 56]
.L231:
	ldr	w1, [sp, 56]
	ldr	w0, [sp, 28]
	cmp	w1, w0
	blt	.L236
	ldr	w0, [sp, 60]
	ldp	x29, x30, [sp], 80
	.cfi_restore 30
	.cfi_restore 29
	.cfi_def_cfa_offset 0
	ret
	.cfi_endproc
.LFE1576:
	.size	stbrp_pack_rects, .-stbrp_pack_rects
	.align	2
	.type	_ZL15stbtt__buf_get8P10stbtt__buf, %function
_ZL15stbtt__buf_get8P10stbtt__buf:
.LFB1577:
	.cfi_startproc
	sub	sp, sp, #16
	.cfi_def_cfa_offset 16
	str	x0, [sp, 8]
	ldr	x0, [sp, 8]
	ldr	w1, [x0, 8]
	ldr	x0, [sp, 8]
	ldr	w0, [x0, 12]
	cmp	w1, w0
	blt	.L239
	mov	w0, 0
	b	.L240
.L239:
	ldr	x0, [sp, 8]
	ldr	x1, [x0]
	ldr	x0, [sp, 8]
	ldr	w0, [x0, 8]
	add	w3, w0, 1
	ldr	x2, [sp, 8]
	str	w3, [x2, 8]
	sxtw	x0, w0
	add	x0, x1, x0
	ldrb	w0, [x0]
.L240:
	add	sp, sp, 16
	.cfi_def_cfa_offset 0
	ret
	.cfi_endproc
.LFE1577:
	.size	_ZL15stbtt__buf_get8P10stbtt__buf, .-_ZL15stbtt__buf_get8P10stbtt__buf
	.align	2
	.type	_ZL16stbtt__buf_peek8P10stbtt__buf, %function
_ZL16stbtt__buf_peek8P10stbtt__buf:
.LFB1578:
	.cfi_startproc
	sub	sp, sp, #16
	.cfi_def_cfa_offset 16
	str	x0, [sp, 8]
	ldr	x0, [sp, 8]
	ldr	w1, [x0, 8]
	ldr	x0, [sp, 8]
	ldr	w0, [x0, 12]
	cmp	w1, w0
	blt	.L242
	mov	w0, 0
	b	.L243
.L242:
	ldr	x0, [sp, 8]
	ldr	x1, [x0]
	ldr	x0, [sp, 8]
	ldr	w0, [x0, 8]
	sxtw	x0, w0
	add	x0, x1, x0
	ldrb	w0, [x0]
.L243:
	add	sp, sp, 16
	.cfi_def_cfa_offset 0
	ret
	.cfi_endproc
.LFE1578:
	.size	_ZL16stbtt__buf_peek8P10stbtt__buf, .-_ZL16stbtt__buf_peek8P10stbtt__buf
	.section	.rodata
	.align	3
.LC21:
	.string	"void stbtt__buf_seek(stbtt__buf*, int)"
	.align	3
.LC22:
	.string	"/media/psf/Home/Desktop/git/C-/mac/myproject/external/imgui/include/imstb_truetype.h"
	.align	3
.LC23:
	.string	"!(o > b->size || o < 0)"
	.text
	.align	2
	.type	_ZL15stbtt__buf_seekP10stbtt__bufi, %function
_ZL15stbtt__buf_seekP10stbtt__bufi:
.LFB1579:
	.cfi_startproc
	stp	x29, x30, [sp, -32]!
	.cfi_def_cfa_offset 32
	.cfi_offset 29, -32
	.cfi_offset 30, -24
	mov	x29, sp
	str	x0, [sp, 24]
	str	w1, [sp, 20]
	ldr	x0, [sp, 24]
	ldr	w0, [x0, 12]
	ldr	w1, [sp, 20]
	cmp	w1, w0
	bgt	.L245
	ldr	w0, [sp, 20]
	cmp	w0, 0
	bge	.L250
.L245:
	adrp	x0, .LC21
	add	x3, x0, :lo12:.LC21
	mov	w2, 1154
	adrp	x0, .LC22
	add	x1, x0, :lo12:.LC22
	adrp	x0, .LC23
	add	x0, x0, :lo12:.LC23
	bl	__assert_fail
.L250:
	ldr	x0, [sp, 24]
	ldr	w0, [x0, 12]
	ldr	w1, [sp, 20]
	cmp	w1, w0
	bgt	.L247
	ldr	w0, [sp, 20]
	cmp	w0, 0
	bge	.L248
.L247:
	ldr	x0, [sp, 24]
	ldr	w0, [x0, 12]
	b	.L249
.L248:
	ldr	w0, [sp, 20]
.L249:
	ldr	x1, [sp, 24]
	str	w0, [x1, 8]
	nop
	ldp	x29, x30, [sp], 32
	.cfi_restore 30
	.cfi_restore 29
	.cfi_def_cfa_offset 0
	ret
	.cfi_endproc
.LFE1579:
	.size	_ZL15stbtt__buf_seekP10stbtt__bufi, .-_ZL15stbtt__buf_seekP10stbtt__bufi
	.align	2
	.type	_ZL15stbtt__buf_skipP10stbtt__bufi, %function
_ZL15stbtt__buf_skipP10stbtt__bufi:
.LFB1580:
	.cfi_startproc
	stp	x29, x30, [sp, -32]!
	.cfi_def_cfa_offset 32
	.cfi_offset 29, -32
	.cfi_offset 30, -24
	mov	x29, sp
	str	x0, [sp, 24]
	str	w1, [sp, 20]
	ldr	x0, [sp, 24]
	ldr	w1, [x0, 8]
	ldr	w0, [sp, 20]
	add	w0, w1, w0
	mov	w1, w0
	ldr	x0, [sp, 24]
	bl	_ZL15stbtt__buf_seekP10stbtt__bufi
	nop
	ldp	x29, x30, [sp], 32
	.cfi_restore 30
	.cfi_restore 29
	.cfi_def_cfa_offset 0
	ret
	.cfi_endproc
.LFE1580:
	.size	_ZL15stbtt__buf_skipP10stbtt__bufi, .-_ZL15stbtt__buf_skipP10stbtt__bufi
	.section	.rodata
	.align	3
.LC24:
	.string	"stbtt_uint32 stbtt__buf_get(stbtt__buf*, int)"
	.align	3
.LC25:
	.string	"n >= 1 && n <= 4"
	.text
	.align	2
	.type	_ZL14stbtt__buf_getP10stbtt__bufi, %function
_ZL14stbtt__buf_getP10stbtt__bufi:
.LFB1581:
	.cfi_startproc
	stp	x29, x30, [sp, -64]!
	.cfi_def_cfa_offset 64
	.cfi_offset 29, -64
	.cfi_offset 30, -56
	mov	x29, sp
	str	x19, [sp, 16]
	.cfi_offset 19, -48
	str	x0, [sp, 40]
	str	w1, [sp, 36]
	str	wzr, [sp, 56]
	ldr	w0, [sp, 36]
	cmp	w0, 0
	ble	.L253
	ldr	w0, [sp, 36]
	cmp	w0, 4
	ble	.L258
.L253:
	adrp	x0, .LC24
	add	x3, x0, :lo12:.LC24
	mov	w2, 1167
	adrp	x0, .LC22
	add	x1, x0, :lo12:.LC22
	adrp	x0, .LC25
	add	x0, x0, :lo12:.LC25
	bl	__assert_fail
.L258:
	str	wzr, [sp, 60]
	b	.L255
.L256:
	ldr	w0, [sp, 56]
	lsl	w19, w0, 8
	ldr	x0, [sp, 40]
	bl	_ZL15stbtt__buf_get8P10stbtt__buf
	and	w0, w0, 255
	orr	w0, w19, w0
	str	w0, [sp, 56]
	ldr	w0, [sp, 60]
	add	w0, w0, 1
	str	w0, [sp, 60]
.L255:
	ldr	w1, [sp, 60]
	ldr	w0, [sp, 36]
	cmp	w1, w0
	blt	.L256
	ldr	w0, [sp, 56]
	ldr	x19, [sp, 16]
	ldp	x29, x30, [sp], 64
	.cfi_restore 30
	.cfi_restore 29
	.cfi_restore 19
	.cfi_def_cfa_offset 0
	ret
	.cfi_endproc
.LFE1581:
	.size	_ZL14stbtt__buf_getP10stbtt__bufi, .-_ZL14stbtt__buf_getP10stbtt__bufi
	.section	.rodata
	.align	3
.LC26:
	.string	"stbtt__buf stbtt__new_buf(const void*, size_t)"
	.align	3
.LC27:
	.string	"size < 0x40000000"
	.text
	.align	2
	.type	_ZL14stbtt__new_bufPKvm, %function
_ZL14stbtt__new_bufPKvm:
.LFB1582:
	.cfi_startproc
	stp	x29, x30, [sp, -64]!
	.cfi_def_cfa_offset 64
	.cfi_offset 29, -64
	.cfi_offset 30, -56
	mov	x29, sp
	str	x0, [sp, 24]
	str	x1, [sp, 16]
	adrp	x0, :got:__stack_chk_guard
	ldr	x0, [x0, #:got_lo12:__stack_chk_guard]
	ldr	x1, [x0]
	str	x1, [sp, 56]
	mov	x1, 0
	ldr	x1, [sp, 16]
	mov	x0, 1073741823
	cmp	x1, x0
	bls	.L260
	adrp	x0, .LC26
	add	x3, x0, :lo12:.LC26
	mov	w2, 1176
	adrp	x0, .LC22
	add	x1, x0, :lo12:.LC22
	adrp	x0, .LC27
	add	x0, x0, :lo12:.LC27
	bl	__assert_fail
.L260:
	ldr	x0, [sp, 24]
	str	x0, [sp, 40]
	ldr	x0, [sp, 16]
	str	w0, [sp, 52]
	str	wzr, [sp, 48]
	ldp	x0, x1, [sp, 40]
	mov	x2, x0
	mov	x3, x1
	adrp	x0, :got:__stack_chk_guard
	ldr	x0, [x0, #:got_lo12:__stack_chk_guard]
	ldr	x4, [sp, 56]
	ldr	x1, [x0]
	subs	x4, x4, x1
	mov	x1, 0
	beq	.L262
	bl	__stack_chk_fail
.L262:
	mov	x0, x2
	mov	x1, x3
	ldp	x29, x30, [sp], 64
	.cfi_restore 30
	.cfi_restore 29
	.cfi_def_cfa_offset 0
	ret
	.cfi_endproc
.LFE1582:
	.size	_ZL14stbtt__new_bufPKvm, .-_ZL14stbtt__new_bufPKvm
	.align	2
	.type	_ZL16stbtt__buf_rangePK10stbtt__bufii, %function
_ZL16stbtt__buf_rangePK10stbtt__bufii:
.LFB1583:
	.cfi_startproc
	stp	x29, x30, [sp, -64]!
	.cfi_def_cfa_offset 64
	.cfi_offset 29, -64
	.cfi_offset 30, -56
	mov	x29, sp
	str	x0, [sp, 24]
	str	w1, [sp, 20]
	str	w2, [sp, 16]
	adrp	x0, :got:__stack_chk_guard
	ldr	x0, [x0, #:got_lo12:__stack_chk_guard]
	ldr	x1, [x0]
	str	x1, [sp, 56]
	mov	x1, 0
	mov	x1, 0
	mov	x0, 0
	bl	_ZL14stbtt__new_bufPKvm
	stp	x0, x1, [sp, 40]
	ldr	w0, [sp, 20]
	cmp	w0, 0
	blt	.L264
	ldr	w0, [sp, 16]
	cmp	w0, 0
	blt	.L264
	ldr	x0, [sp, 24]
	ldr	w0, [x0, 12]
	ldr	w1, [sp, 20]
	cmp	w1, w0
	bgt	.L264
	ldr	x0, [sp, 24]
	ldr	w1, [x0, 12]
	ldr	w0, [sp, 20]
	sub	w0, w1, w0
	ldr	w1, [sp, 16]
	cmp	w1, w0
	ble	.L265
.L264:
	ldp	x0, x1, [sp, 40]
	b	.L267
.L265:
	ldr	x0, [sp, 24]
	ldr	x1, [x0]
	ldrsw	x0, [sp, 20]
	add	x0, x1, x0
	str	x0, [sp, 40]
	ldr	w0, [sp, 16]
	str	w0, [sp, 52]
	ldp	x0, x1, [sp, 40]
.L267:
	mov	x2, x0
	mov	x3, x1
	adrp	x0, :got:__stack_chk_guard
	ldr	x0, [x0, #:got_lo12:__stack_chk_guard]
	ldr	x4, [sp, 56]
	ldr	x1, [x0]
	subs	x4, x4, x1
	mov	x1, 0
	beq	.L268
	bl	__stack_chk_fail
.L268:
	mov	x0, x2
	mov	x1, x3
	ldp	x29, x30, [sp], 64
	.cfi_restore 30
	.cfi_restore 29
	.cfi_def_cfa_offset 0
	ret
	.cfi_endproc
.LFE1583:
	.size	_ZL16stbtt__buf_rangePK10stbtt__bufii, .-_ZL16stbtt__buf_rangePK10stbtt__bufii
	.section	.rodata
	.align	3
.LC28:
	.string	"stbtt__buf stbtt__cff_get_index(stbtt__buf*)"
	.align	3
.LC29:
	.string	"offsize >= 1 && offsize <= 4"
	.text
	.align	2
	.type	_ZL20stbtt__cff_get_indexP10stbtt__buf, %function
_ZL20stbtt__cff_get_indexP10stbtt__buf:
.LFB1584:
	.cfi_startproc
	stp	x29, x30, [sp, -48]!
	.cfi_def_cfa_offset 48
	.cfi_offset 29, -48
	.cfi_offset 30, -40
	mov	x29, sp
	str	x0, [sp, 24]
	ldr	x0, [sp, 24]
	ldr	w0, [x0, 8]
	str	w0, [sp, 36]
	mov	w1, 2
	ldr	x0, [sp, 24]
	bl	_ZL14stbtt__buf_getP10stbtt__bufi
	str	w0, [sp, 40]
	ldr	w0, [sp, 40]
	cmp	w0, 0
	beq	.L270
	ldr	x0, [sp, 24]
	bl	_ZL15stbtt__buf_get8P10stbtt__buf
	and	w0, w0, 255
	str	w0, [sp, 44]
	ldr	w0, [sp, 44]
	cmp	w0, 0
	ble	.L271
	ldr	w0, [sp, 44]
	cmp	w0, 4
	ble	.L274
.L271:
	adrp	x0, .LC28
	add	x3, x0, :lo12:.LC28
	mov	w2, 1202
	adrp	x0, .LC22
	add	x1, x0, :lo12:.LC22
	adrp	x0, .LC29
	add	x0, x0, :lo12:.LC29
	bl	__assert_fail
.L274:
	ldr	w1, [sp, 44]
	ldr	w0, [sp, 40]
	mul	w0, w1, w0
	mov	w1, w0
	ldr	x0, [sp, 24]
	bl	_ZL15stbtt__buf_skipP10stbtt__bufi
	ldr	w1, [sp, 44]
	ldr	x0, [sp, 24]
	bl	_ZL14stbtt__buf_getP10stbtt__bufi
	sub	w0, w0, #1
	mov	w1, w0
	ldr	x0, [sp, 24]
	bl	_ZL15stbtt__buf_skipP10stbtt__bufi
.L270:
	ldr	x0, [sp, 24]
	ldr	w1, [x0, 8]
	ldr	w0, [sp, 36]
	sub	w0, w1, w0
	mov	w2, w0
	ldr	w1, [sp, 36]
	ldr	x0, [sp, 24]
	bl	_ZL16stbtt__buf_rangePK10stbtt__bufii
	ldp	x29, x30, [sp], 48
	.cfi_restore 30
	.cfi_restore 29
	.cfi_def_cfa_offset 0
	ret
	.cfi_endproc
.LFE1584:
	.size	_ZL20stbtt__cff_get_indexP10stbtt__buf, .-_ZL20stbtt__cff_get_indexP10stbtt__buf
	.section	.rodata
	.align	3
.LC30:
	.string	"stbtt_uint32 stbtt__cff_int(stbtt__buf*)"
	.text
	.align	2
	.type	_ZL14stbtt__cff_intP10stbtt__buf, %function
_ZL14stbtt__cff_intP10stbtt__buf:
.LFB1585:
	.cfi_startproc
	stp	x29, x30, [sp, -64]!
	.cfi_def_cfa_offset 64
	.cfi_offset 29, -64
	.cfi_offset 30, -56
	mov	x29, sp
	str	x19, [sp, 16]
	.cfi_offset 19, -48
	str	x0, [sp, 40]
	ldr	x0, [sp, 40]
	bl	_ZL15stbtt__buf_get8P10stbtt__buf
	and	w0, w0, 255
	str	w0, [sp, 60]
	ldr	w0, [sp, 60]
	cmp	w0, 31
	ble	.L276
	ldr	w0, [sp, 60]
	cmp	w0, 246
	bgt	.L276
	ldr	w0, [sp, 60]
	sub	w0, w0, #139
	b	.L277
.L276:
	ldr	w0, [sp, 60]
	cmp	w0, 246
	ble	.L278
	ldr	w0, [sp, 60]
	cmp	w0, 250
	bgt	.L278
	ldr	w0, [sp, 60]
	sub	w0, w0, #247
	lsl	w19, w0, 8
	ldr	x0, [sp, 40]
	bl	_ZL15stbtt__buf_get8P10stbtt__buf
	and	w0, w0, 255
	add	w0, w19, w0
	add	w0, w0, 108
	b	.L277
.L278:
	ldr	w0, [sp, 60]
	cmp	w0, 250
	ble	.L279
	ldr	w0, [sp, 60]
	cmp	w0, 254
	bgt	.L279
	mov	w1, 251
	ldr	w0, [sp, 60]
	sub	w0, w1, w0
	lsl	w19, w0, 8
	ldr	x0, [sp, 40]
	bl	_ZL15stbtt__buf_get8P10stbtt__buf
	and	w0, w0, 255
	sub	w0, w19, w0
	sub	w0, w0, #108
	b	.L277
.L279:
	ldr	w0, [sp, 60]
	cmp	w0, 28
	bne	.L280
	mov	w1, 2
	ldr	x0, [sp, 40]
	bl	_ZL14stbtt__buf_getP10stbtt__bufi
	b	.L277
.L280:
	ldr	w0, [sp, 60]
	cmp	w0, 29
	bne	.L281
	mov	w1, 4
	ldr	x0, [sp, 40]
	bl	_ZL14stbtt__buf_getP10stbtt__bufi
	b	.L277
.L281:
	adrp	x0, .LC30
	add	x3, x0, :lo12:.LC30
	mov	w2, 1217
	adrp	x0, .LC22
	add	x1, x0, :lo12:.LC22
	adrp	x0, .LC12
	add	x0, x0, :lo12:.LC12
	bl	__assert_fail
.L277:
	ldr	x19, [sp, 16]
	ldp	x29, x30, [sp], 64
	.cfi_restore 30
	.cfi_restore 29
	.cfi_restore 19
	.cfi_def_cfa_offset 0
	ret
	.cfi_endproc
.LFE1585:
	.size	_ZL14stbtt__cff_intP10stbtt__buf, .-_ZL14stbtt__cff_intP10stbtt__buf
	.section	.rodata
	.align	3
.LC31:
	.string	"void stbtt__cff_skip_operand(stbtt__buf*)"
	.align	3
.LC32:
	.string	"b0 >= 28"
	.text
	.align	2
	.type	_ZL23stbtt__cff_skip_operandP10stbtt__buf, %function
_ZL23stbtt__cff_skip_operandP10stbtt__buf:
.LFB1586:
	.cfi_startproc
	stp	x29, x30, [sp, -48]!
	.cfi_def_cfa_offset 48
	.cfi_offset 29, -48
	.cfi_offset 30, -40
	mov	x29, sp
	str	x0, [sp, 24]
	ldr	x0, [sp, 24]
	bl	_ZL16stbtt__buf_peek8P10stbtt__buf
	and	w0, w0, 255
	str	w0, [sp, 40]
	ldr	w0, [sp, 40]
	cmp	w0, 27
	bgt	.L283
	adrp	x0, .LC31
	add	x3, x0, :lo12:.LC31
	mov	w2, 1223
	adrp	x0, .LC22
	add	x1, x0, :lo12:.LC22
	adrp	x0, .LC32
	add	x0, x0, :lo12:.LC32
	bl	__assert_fail
.L283:
	ldr	w0, [sp, 40]
	cmp	w0, 30
	bne	.L284
	mov	w1, 1
	ldr	x0, [sp, 24]
	bl	_ZL15stbtt__buf_skipP10stbtt__bufi
	b	.L285
.L287:
	ldr	x0, [sp, 24]
	bl	_ZL15stbtt__buf_get8P10stbtt__buf
	and	w0, w0, 255
	str	w0, [sp, 44]
	ldr	w0, [sp, 44]
	and	w0, w0, 15
	cmp	w0, 15
	beq	.L288
	ldr	w0, [sp, 44]
	asr	w0, w0, 4
	cmp	w0, 15
	beq	.L288
.L285:
	ldr	x0, [sp, 24]
	ldr	w1, [x0, 8]
	ldr	x0, [sp, 24]
	ldr	w0, [x0, 12]
	cmp	w1, w0
	blt	.L287
	b	.L288
.L284:
	ldr	x0, [sp, 24]
	bl	_ZL14stbtt__cff_intP10stbtt__buf
.L288:
	nop
	ldp	x29, x30, [sp], 48
	.cfi_restore 30
	.cfi_restore 29
	.cfi_def_cfa_offset 0
	ret
	.cfi_endproc
.LFE1586:
	.size	_ZL23stbtt__cff_skip_operandP10stbtt__buf, .-_ZL23stbtt__cff_skip_operandP10stbtt__buf
	.align	2
	.type	_ZL15stbtt__dict_getP10stbtt__bufi, %function
_ZL15stbtt__dict_getP10stbtt__bufi:
.LFB1587:
	.cfi_startproc
	stp	x29, x30, [sp, -48]!
	.cfi_def_cfa_offset 48
	.cfi_offset 29, -48
	.cfi_offset 30, -40
	mov	x29, sp
	str	x0, [sp, 24]
	str	w1, [sp, 20]
	mov	w1, 0
	ldr	x0, [sp, 24]
	bl	_ZL15stbtt__buf_seekP10stbtt__bufi
	b	.L290
.L295:
	ldr	x0, [sp, 24]
	ldr	w0, [x0, 8]
	str	w0, [sp, 40]
	b	.L291
.L292:
	ldr	x0, [sp, 24]
	bl	_ZL23stbtt__cff_skip_operandP10stbtt__buf
.L291:
	ldr	x0, [sp, 24]
	bl	_ZL16stbtt__buf_peek8P10stbtt__buf
	and	w0, w0, 255
	cmp	w0, 27
	cset	w0, hi
	and	w0, w0, 255
	cmp	w0, 0
	bne	.L292
	ldr	x0, [sp, 24]
	ldr	w0, [x0, 8]
	str	w0, [sp, 44]
	ldr	x0, [sp, 24]
	bl	_ZL15stbtt__buf_get8P10stbtt__buf
	and	w0, w0, 255
	str	w0, [sp, 36]
	ldr	w0, [sp, 36]
	cmp	w0, 12
	bne	.L293
	ldr	x0, [sp, 24]
	bl	_ZL15stbtt__buf_get8P10stbtt__buf
	and	w0, w0, 255
	orr	w0, w0, 256
	str	w0, [sp, 36]
.L293:
	ldr	w1, [sp, 36]
	ldr	w0, [sp, 20]
	cmp	w1, w0
	bne	.L290
	ldr	w1, [sp, 44]
	ldr	w0, [sp, 40]
	sub	w0, w1, w0
	mov	w2, w0
	ldr	w1, [sp, 40]
	ldr	x0, [sp, 24]
	bl	_ZL16stbtt__buf_rangePK10stbtt__bufii
	b	.L294
.L290:
	ldr	x0, [sp, 24]
	ldr	w1, [x0, 8]
	ldr	x0, [sp, 24]
	ldr	w0, [x0, 12]
	cmp	w1, w0
	blt	.L295
	mov	w2, 0
	mov	w1, 0
	ldr	x0, [sp, 24]
	bl	_ZL16stbtt__buf_rangePK10stbtt__bufii
	nop
.L294:
	ldp	x29, x30, [sp], 48
	.cfi_restore 30
	.cfi_restore 29
	.cfi_def_cfa_offset 0
	ret
	.cfi_endproc
.LFE1587:
	.size	_ZL15stbtt__dict_getP10stbtt__bufi, .-_ZL15stbtt__dict_getP10stbtt__bufi
	.align	2
	.type	_ZL20stbtt__dict_get_intsP10stbtt__bufiiPj, %function
_ZL20stbtt__dict_get_intsP10stbtt__bufiiPj:
.LFB1588:
	.cfi_startproc
	stp	x29, x30, [sp, -96]!
	.cfi_def_cfa_offset 96
	.cfi_offset 29, -96
	.cfi_offset 30, -88
	mov	x29, sp
	str	x19, [sp, 16]
	.cfi_offset 19, -80
	str	x0, [sp, 56]
	str	w1, [sp, 52]
	str	w2, [sp, 48]
	str	x3, [sp, 40]
	adrp	x0, :got:__stack_chk_guard
	ldr	x0, [x0, #:got_lo12:__stack_chk_guard]
	ldr	x1, [x0]
	str	x1, [sp, 88]
	mov	x1, 0
	ldr	w1, [sp, 52]
	ldr	x0, [sp, 56]
	bl	_ZL15stbtt__dict_getP10stbtt__bufi
	stp	x0, x1, [sp, 72]
	str	wzr, [sp, 68]
	b	.L297
.L299:
	ldrsw	x0, [sp, 68]
	lsl	x0, x0, 2
	ldr	x1, [sp, 40]
	add	x19, x1, x0
	add	x0, sp, 72
	bl	_ZL14stbtt__cff_intP10stbtt__buf
	str	w0, [x19]
	ldr	w0, [sp, 68]
	add	w0, w0, 1
	str	w0, [sp, 68]
.L297:
	ldr	w1, [sp, 68]
	ldr	w0, [sp, 48]
	cmp	w1, w0
	bge	.L301
	ldr	w1, [sp, 80]
	ldr	w0, [sp, 84]
	cmp	w1, w0
	blt	.L299
.L301:
	nop
	adrp	x0, :got:__stack_chk_guard
	ldr	x0, [x0, #:got_lo12:__stack_chk_guard]
	ldr	x2, [sp, 88]
	ldr	x1, [x0]
	subs	x2, x2, x1
	mov	x1, 0
	beq	.L300
	bl	__stack_chk_fail
.L300:
	ldr	x19, [sp, 16]
	ldp	x29, x30, [sp], 96
	.cfi_restore 30
	.cfi_restore 29
	.cfi_restore 19
	.cfi_def_cfa_offset 0
	ret
	.cfi_endproc
.LFE1588:
	.size	_ZL20stbtt__dict_get_intsP10stbtt__bufiiPj, .-_ZL20stbtt__dict_get_intsP10stbtt__bufiiPj
	.align	2
	.type	_ZL22stbtt__cff_index_countP10stbtt__buf, %function
_ZL22stbtt__cff_index_countP10stbtt__buf:
.LFB1589:
	.cfi_startproc
	stp	x29, x30, [sp, -32]!
	.cfi_def_cfa_offset 32
	.cfi_offset 29, -32
	.cfi_offset 30, -24
	mov	x29, sp
	str	x0, [sp, 24]
	mov	w1, 0
	ldr	x0, [sp, 24]
	bl	_ZL15stbtt__buf_seekP10stbtt__bufi
	mov	w1, 2
	ldr	x0, [sp, 24]
	bl	_ZL14stbtt__buf_getP10stbtt__bufi
	ldp	x29, x30, [sp], 32
	.cfi_restore 30
	.cfi_restore 29
	.cfi_def_cfa_offset 0
	ret
	.cfi_endproc
.LFE1589:
	.size	_ZL22stbtt__cff_index_countP10stbtt__buf, .-_ZL22stbtt__cff_index_countP10stbtt__buf
	.section	.rodata
	.align	3
.LC33:
	.string	"stbtt__buf stbtt__cff_index_get(stbtt__buf, int)"
	.align	3
.LC34:
	.string	"i >= 0 && i < count"
	.text
	.align	2
	.type	_ZL20stbtt__cff_index_get10stbtt__bufi, %function
_ZL20stbtt__cff_index_get10stbtt__bufi:
.LFB1590:
	.cfi_startproc
	stp	x29, x30, [sp, -64]!
	.cfi_def_cfa_offset 64
	.cfi_offset 29, -64
	.cfi_offset 30, -56
	mov	x29, sp
	stp	x0, x1, [sp, 32]
	str	w2, [sp, 28]
	add	x0, sp, 32
	mov	w1, 0
	bl	_ZL15stbtt__buf_seekP10stbtt__bufi
	add	x0, sp, 32
	mov	w1, 2
	bl	_ZL14stbtt__buf_getP10stbtt__bufi
	str	w0, [sp, 48]
	add	x0, sp, 32
	bl	_ZL15stbtt__buf_get8P10stbtt__buf
	and	w0, w0, 255
	str	w0, [sp, 52]
	ldr	w0, [sp, 28]
	cmp	w0, 0
	blt	.L305
	ldr	w1, [sp, 28]
	ldr	w0, [sp, 48]
	cmp	w1, w0
	blt	.L310
.L305:
	adrp	x0, .LC33
	add	x3, x0, :lo12:.LC33
	mov	w2, 1271
	adrp	x0, .LC22
	add	x1, x0, :lo12:.LC22
	adrp	x0, .LC34
	add	x0, x0, :lo12:.LC34
	bl	__assert_fail
.L310:
	ldr	w0, [sp, 52]
	cmp	w0, 0
	ble	.L307
	ldr	w0, [sp, 52]
	cmp	w0, 4
	ble	.L311
.L307:
	adrp	x0, .LC33
	add	x3, x0, :lo12:.LC33
	mov	w2, 1272
	adrp	x0, .LC22
	add	x1, x0, :lo12:.LC22
	adrp	x0, .LC29
	add	x0, x0, :lo12:.LC29
	bl	__assert_fail
.L311:
	ldr	w1, [sp, 28]
	ldr	w0, [sp, 52]
	mul	w1, w1, w0
	add	x0, sp, 32
	bl	_ZL15stbtt__buf_skipP10stbtt__bufi
	add	x0, sp, 32
	ldr	w1, [sp, 52]
	bl	_ZL14stbtt__buf_getP10stbtt__bufi
	str	w0, [sp, 56]
	add	x0, sp, 32
	ldr	w1, [sp, 52]
	bl	_ZL14stbtt__buf_getP10stbtt__bufi
	str	w0, [sp, 60]
	ldr	w0, [sp, 48]
	add	w1, w0, 1
	ldr	w0, [sp, 52]
	mul	w0, w1, w0
	add	w1, w0, 2
	ldr	w0, [sp, 56]
	add	w3, w1, w0
	ldr	w1, [sp, 60]
	ldr	w0, [sp, 56]
	sub	w1, w1, w0
	add	x0, sp, 32
	mov	w2, w1
	mov	w1, w3
	bl	_ZL16stbtt__buf_rangePK10stbtt__bufii
	ldp	x29, x30, [sp], 64
	.cfi_restore 30
	.cfi_restore 29
	.cfi_def_cfa_offset 0
	ret
	.cfi_endproc
.LFE1590:
	.size	_ZL20stbtt__cff_index_get10stbtt__bufi, .-_ZL20stbtt__cff_index_get10stbtt__bufi
	.align	2
	.type	_ZL8ttUSHORTPh, %function
_ZL8ttUSHORTPh:
.LFB1591:
	.cfi_startproc
	sub	sp, sp, #16
	.cfi_def_cfa_offset 16
	str	x0, [sp, 8]
	ldr	x0, [sp, 8]
	ldrb	w0, [x0]
	and	w0, w0, 65535
	ubfiz	w0, w0, 8, 8
	and	w1, w0, 65535
	ldr	x0, [sp, 8]
	add	x0, x0, 1
	ldrb	w0, [x0]
	and	w0, w0, 65535
	add	w0, w1, w0
	and	w0, w0, 65535
	add	sp, sp, 16
	.cfi_def_cfa_offset 0
	ret
	.cfi_endproc
.LFE1591:
	.size	_ZL8ttUSHORTPh, .-_ZL8ttUSHORTPh
	.align	2
	.type	_ZL7ttSHORTPh, %function
_ZL7ttSHORTPh:
.LFB1592:
	.cfi_startproc
	sub	sp, sp, #16
	.cfi_def_cfa_offset 16
	str	x0, [sp, 8]
	ldr	x0, [sp, 8]
	ldrb	w0, [x0]
	and	w0, w0, 65535
	ubfiz	w0, w0, 8, 8
	and	w1, w0, 65535
	ldr	x0, [sp, 8]
	add	x0, x0, 1
	ldrb	w0, [x0]
	and	w0, w0, 65535
	add	w0, w1, w0
	and	w0, w0, 65535
	sxth	w0, w0
	add	sp, sp, 16
	.cfi_def_cfa_offset 0
	ret
	.cfi_endproc
.LFE1592:
	.size	_ZL7ttSHORTPh, .-_ZL7ttSHORTPh
	.align	2
	.type	_ZL7ttULONGPh, %function
_ZL7ttULONGPh:
.LFB1593:
	.cfi_startproc
	sub	sp, sp, #16
	.cfi_def_cfa_offset 16
	str	x0, [sp, 8]
	ldr	x0, [sp, 8]
	ldrb	w0, [x0]
	lsl	w1, w0, 24
	ldr	x0, [sp, 8]
	add	x0, x0, 1
	ldrb	w0, [x0]
	lsl	w0, w0, 16
	add	w1, w1, w0
	ldr	x0, [sp, 8]
	add	x0, x0, 2
	ldrb	w0, [x0]
	lsl	w0, w0, 8
	add	w0, w1, w0
	ldr	x1, [sp, 8]
	add	x1, x1, 3
	ldrb	w1, [x1]
	add	w0, w0, w1
	add	sp, sp, 16
	.cfi_def_cfa_offset 0
	ret
	.cfi_endproc
.LFE1593:
	.size	_ZL7ttULONGPh, .-_ZL7ttULONGPh
	.align	2
	.type	_ZL6ttLONGPh, %function
_ZL6ttLONGPh:
.LFB1594:
	.cfi_startproc
	sub	sp, sp, #16
	.cfi_def_cfa_offset 16
	str	x0, [sp, 8]
	ldr	x0, [sp, 8]
	ldrb	w0, [x0]
	lsl	w1, w0, 24
	ldr	x0, [sp, 8]
	add	x0, x0, 1
	ldrb	w0, [x0]
	lsl	w0, w0, 16
	add	w1, w1, w0
	ldr	x0, [sp, 8]
	add	x0, x0, 2
	ldrb	w0, [x0]
	lsl	w0, w0, 8
	add	w0, w1, w0
	ldr	x1, [sp, 8]
	add	x1, x1, 3
	ldrb	w1, [x1]
	add	w0, w0, w1
	add	sp, sp, 16
	.cfi_def_cfa_offset 0
	ret
	.cfi_endproc
.LFE1594:
	.size	_ZL6ttLONGPh, .-_ZL6ttLONGPh
	.align	2
	.type	_ZL13stbtt__isfontPh, %function
_ZL13stbtt__isfontPh:
.LFB1595:
	.cfi_startproc
	sub	sp, sp, #16
	.cfi_def_cfa_offset 16
	str	x0, [sp, 8]
	ldr	x0, [sp, 8]
	ldrb	w0, [x0]
	cmp	w0, 49
	bne	.L321
	ldr	x0, [sp, 8]
	add	x0, x0, 1
	ldrb	w0, [x0]
	cmp	w0, 0
	bne	.L321
	ldr	x0, [sp, 8]
	add	x0, x0, 2
	ldrb	w0, [x0]
	cmp	w0, 0
	bne	.L321
	ldr	x0, [sp, 8]
	add	x0, x0, 3
	ldrb	w0, [x0]
	cmp	w0, 0
	bne	.L321
	mov	w0, 1
	b	.L322
.L321:
	ldr	x0, [sp, 8]
	ldrb	w1, [x0]
	mov	w0, 116
	cmp	w1, w0
	bne	.L323
	ldr	x0, [sp, 8]
	add	x0, x0, 1
	ldrb	w1, [x0]
	mov	w0, 121
	cmp	w1, w0
	bne	.L323
	ldr	x0, [sp, 8]
	add	x0, x0, 2
	ldrb	w1, [x0]
	mov	w0, 112
	cmp	w1, w0
	bne	.L323
	ldr	x0, [sp, 8]
	add	x0, x0, 3
	ldrb	w1, [x0]
	mov	w0, 49
	cmp	w1, w0
	bne	.L323
	mov	w0, 1
	b	.L322
.L323:
	ldr	x0, [sp, 8]
	ldrb	w1, [x0]
	mov	w0, 79
	cmp	w1, w0
	bne	.L324
	ldr	x0, [sp, 8]
	add	x0, x0, 1
	ldrb	w1, [x0]
	mov	w0, 84
	cmp	w1, w0
	bne	.L324
	ldr	x0, [sp, 8]
	add	x0, x0, 2
	ldrb	w1, [x0]
	mov	w0, 84
	cmp	w1, w0
	bne	.L324
	ldr	x0, [sp, 8]
	add	x0, x0, 3
	ldrb	w1, [x0]
	mov	w0, 79
	cmp	w1, w0
	bne	.L324
	mov	w0, 1
	b	.L322
.L324:
	ldr	x0, [sp, 8]
	ldrb	w0, [x0]
	cmp	w0, 0
	bne	.L325
	ldr	x0, [sp, 8]
	add	x0, x0, 1
	ldrb	w0, [x0]
	cmp	w0, 1
	bne	.L325
	ldr	x0, [sp, 8]
	add	x0, x0, 2
	ldrb	w0, [x0]
	cmp	w0, 0
	bne	.L325
	ldr	x0, [sp, 8]
	add	x0, x0, 3
	ldrb	w0, [x0]
	cmp	w0, 0
	bne	.L325
	mov	w0, 1
	b	.L322
.L325:
	ldr	x0, [sp, 8]
	ldrb	w1, [x0]
	mov	w0, 116
	cmp	w1, w0
	bne	.L326
	ldr	x0, [sp, 8]
	add	x0, x0, 1
	ldrb	w1, [x0]
	mov	w0, 114
	cmp	w1, w0
	bne	.L326
	ldr	x0, [sp, 8]
	add	x0, x0, 2
	ldrb	w1, [x0]
	mov	w0, 117
	cmp	w1, w0
	bne	.L326
	ldr	x0, [sp, 8]
	add	x0, x0, 3
	ldrb	w1, [x0]
	mov	w0, 101
	cmp	w1, w0
	bne	.L326
	mov	w0, 1
	b	.L322
.L326:
	mov	w0, 0
.L322:
	add	sp, sp, 16
	.cfi_def_cfa_offset 0
	ret
	.cfi_endproc
.LFE1595:
	.size	_ZL13stbtt__isfontPh, .-_ZL13stbtt__isfontPh
	.align	2
	.type	_ZL17stbtt__find_tablePhjPKc, %function
_ZL17stbtt__find_tablePhjPKc:
.LFB1596:
	.cfi_startproc
	stp	x29, x30, [sp, -64]!
	.cfi_def_cfa_offset 64
	.cfi_offset 29, -64
	.cfi_offset 30, -56
	mov	x29, sp
	str	x0, [sp, 40]
	str	w1, [sp, 36]
	str	x2, [sp, 24]
	ldr	w0, [sp, 36]
	add	x0, x0, 4
	ldr	x1, [sp, 40]
	add	x0, x1, x0
	bl	_ZL8ttUSHORTPh
	and	w0, w0, 65535
	str	w0, [sp, 52]
	ldr	w0, [sp, 36]
	add	w0, w0, 12
	str	w0, [sp, 56]
	str	wzr, [sp, 48]
	b	.L328
.L331:
	ldr	w0, [sp, 48]
	lsl	w0, w0, 4
	mov	w1, w0
	ldr	w0, [sp, 56]
	add	w0, w0, w1
	str	w0, [sp, 60]
	ldr	w0, [sp, 60]
	ldr	x1, [sp, 40]
	add	x0, x1, x0
	ldrb	w1, [x0]
	ldr	x0, [sp, 24]
	ldrb	w0, [x0]
	cmp	w1, w0
	bne	.L329
	ldr	w0, [sp, 60]
	add	x0, x0, 1
	ldr	x1, [sp, 40]
	add	x0, x1, x0
	ldrb	w1, [x0]
	ldr	x0, [sp, 24]
	add	x0, x0, 1
	ldrb	w0, [x0]
	cmp	w1, w0
	bne	.L329
	ldr	w0, [sp, 60]
	add	x0, x0, 2
	ldr	x1, [sp, 40]
	add	x0, x1, x0
	ldrb	w1, [x0]
	ldr	x0, [sp, 24]
	add	x0, x0, 2
	ldrb	w0, [x0]
	cmp	w1, w0
	bne	.L329
	ldr	w0, [sp, 60]
	add	x0, x0, 3
	ldr	x1, [sp, 40]
	add	x0, x1, x0
	ldrb	w1, [x0]
	ldr	x0, [sp, 24]
	add	x0, x0, 3
	ldrb	w0, [x0]
	cmp	w1, w0
	bne	.L329
	ldr	w0, [sp, 60]
	add	x0, x0, 8
	ldr	x1, [sp, 40]
	add	x0, x1, x0
	bl	_ZL7ttULONGPh
	b	.L330
.L329:
	ldr	w0, [sp, 48]
	add	w0, w0, 1
	str	w0, [sp, 48]
.L328:
	ldr	w1, [sp, 48]
	ldr	w0, [sp, 52]
	cmp	w1, w0
	blt	.L331
	mov	w0, 0
.L330:
	ldp	x29, x30, [sp], 64
	.cfi_restore 30
	.cfi_restore 29
	.cfi_def_cfa_offset 0
	ret
	.cfi_endproc
.LFE1596:
	.size	_ZL17stbtt__find_tablePhjPKc, .-_ZL17stbtt__find_tablePhjPKc
	.align	2
	.type	_ZL36stbtt_GetFontOffsetForIndex_internalPhi, %function
_ZL36stbtt_GetFontOffsetForIndex_internalPhi:
.LFB1597:
	.cfi_startproc
	stp	x29, x30, [sp, -48]!
	.cfi_def_cfa_offset 48
	.cfi_offset 29, -48
	.cfi_offset 30, -40
	mov	x29, sp
	str	x0, [sp, 24]
	str	w1, [sp, 20]
	ldr	x0, [sp, 24]
	bl	_ZL13stbtt__isfontPh
	cmp	w0, 0
	cset	w0, ne
	and	w0, w0, 255
	cmp	w0, 0
	beq	.L333
	ldr	w0, [sp, 20]
	cmp	w0, 0
	bne	.L334
	mov	w0, 0
	b	.L336
.L334:
	mov	w0, -1
	b	.L336
.L333:
	ldr	x0, [sp, 24]
	ldrb	w1, [x0]
	mov	w0, 116
	cmp	w1, w0
	bne	.L337
	ldr	x0, [sp, 24]
	add	x0, x0, 1
	ldrb	w1, [x0]
	mov	w0, 116
	cmp	w1, w0
	bne	.L337
	ldr	x0, [sp, 24]
	add	x0, x0, 2
	ldrb	w1, [x0]
	mov	w0, 99
	cmp	w1, w0
	bne	.L337
	ldr	x0, [sp, 24]
	add	x0, x0, 3
	ldrb	w1, [x0]
	mov	w0, 102
	cmp	w1, w0
	bne	.L337
	ldr	x0, [sp, 24]
	add	x0, x0, 4
	bl	_ZL7ttULONGPh
	cmp	w0, 65536
	beq	.L338
	ldr	x0, [sp, 24]
	add	x0, x0, 4
	bl	_ZL7ttULONGPh
	cmp	w0, 131072
	bne	.L339
.L338:
	mov	w0, 1
	b	.L340
.L339:
	mov	w0, 0
.L340:
	cmp	w0, 0
	beq	.L337
	ldr	x0, [sp, 24]
	add	x0, x0, 8
	bl	_ZL6ttLONGPh
	str	w0, [sp, 44]
	ldr	w1, [sp, 20]
	ldr	w0, [sp, 44]
	cmp	w1, w0
	blt	.L341
	mov	w0, -1
	b	.L336
.L341:
	ldr	w0, [sp, 20]
	lsl	w0, w0, 2
	sxtw	x0, w0
	add	x0, x0, 12
	ldr	x1, [sp, 24]
	add	x0, x1, x0
	bl	_ZL7ttULONGPh
	b	.L336
.L337:
	mov	w0, -1
.L336:
	ldp	x29, x30, [sp], 48
	.cfi_restore 30
	.cfi_restore 29
	.cfi_def_cfa_offset 0
	ret
	.cfi_endproc
.LFE1597:
	.size	_ZL36stbtt_GetFontOffsetForIndex_internalPhi, .-_ZL36stbtt_GetFontOffsetForIndex_internalPhi
	.align	2
	.type	_ZL31stbtt_GetNumberOfFonts_internalPh, %function
_ZL31stbtt_GetNumberOfFonts_internalPh:
.LFB1598:
	.cfi_startproc
	stp	x29, x30, [sp, -32]!
	.cfi_def_cfa_offset 32
	.cfi_offset 29, -32
	.cfi_offset 30, -24
	mov	x29, sp
	str	x0, [sp, 24]
	ldr	x0, [sp, 24]
	bl	_ZL13stbtt__isfontPh
	cmp	w0, 0
	cset	w0, ne
	and	w0, w0, 255
	cmp	w0, 0
	beq	.L343
	mov	w0, 1
	b	.L344
.L343:
	ldr	x0, [sp, 24]
	ldrb	w1, [x0]
	mov	w0, 116
	cmp	w1, w0
	bne	.L345
	ldr	x0, [sp, 24]
	add	x0, x0, 1
	ldrb	w1, [x0]
	mov	w0, 116
	cmp	w1, w0
	bne	.L345
	ldr	x0, [sp, 24]
	add	x0, x0, 2
	ldrb	w1, [x0]
	mov	w0, 99
	cmp	w1, w0
	bne	.L345
	ldr	x0, [sp, 24]
	add	x0, x0, 3
	ldrb	w1, [x0]
	mov	w0, 102
	cmp	w1, w0
	bne	.L345
	ldr	x0, [sp, 24]
	add	x0, x0, 4
	bl	_ZL7ttULONGPh
	cmp	w0, 65536
	beq	.L346
	ldr	x0, [sp, 24]
	add	x0, x0, 4
	bl	_ZL7ttULONGPh
	cmp	w0, 131072
	bne	.L347
.L346:
	mov	w0, 1
	b	.L348
.L347:
	mov	w0, 0
.L348:
	cmp	w0, 0
	beq	.L345
	ldr	x0, [sp, 24]
	add	x0, x0, 8
	bl	_ZL6ttLONGPh
	b	.L344
.L345:
	mov	w0, 0
.L344:
	ldp	x29, x30, [sp], 32
	.cfi_restore 30
	.cfi_restore 29
	.cfi_def_cfa_offset 0
	ret
	.cfi_endproc
.LFE1598:
	.size	_ZL31stbtt_GetNumberOfFonts_internalPh, .-_ZL31stbtt_GetNumberOfFonts_internalPh
	.align	2
	.type	_ZL16stbtt__get_subrs10stbtt__bufS_, %function
_ZL16stbtt__get_subrs10stbtt__bufS_:
.LFB1599:
	.cfi_startproc
	stp	x29, x30, [sp, -96]!
	.cfi_def_cfa_offset 96
	.cfi_offset 29, -96
	.cfi_offset 30, -88
	mov	x29, sp
	stp	x0, x1, [sp, 32]
	stp	x2, x3, [sp, 16]
	adrp	x0, :got:__stack_chk_guard
	ldr	x0, [x0, #:got_lo12:__stack_chk_guard]
	ldr	x1, [x0]
	str	x1, [sp, 88]
	mov	x1, 0
	str	wzr, [sp, 60]
	str	wzr, [sp, 80]
	str	wzr, [sp, 84]
	add	x1, sp, 80
	add	x0, sp, 16
	mov	x3, x1
	mov	w2, 2
	mov	w1, 18
	bl	_ZL20stbtt__dict_get_intsP10stbtt__bufiiPj
	ldr	w0, [sp, 84]
	cmp	w0, 0
	beq	.L350
	ldr	w0, [sp, 80]
	cmp	w0, 0
	bne	.L351
.L350:
	mov	x1, 0
	mov	x0, 0
	bl	_ZL14stbtt__new_bufPKvm
	b	.L354
.L351:
	ldr	w0, [sp, 84]
	mov	w1, w0
	ldr	w0, [sp, 80]
	mov	w2, w0
	add	x0, sp, 32
	bl	_ZL16stbtt__buf_rangePK10stbtt__bufii
	stp	x0, x1, [sp, 64]
	add	x1, sp, 60
	add	x0, sp, 64
	mov	x3, x1
	mov	w2, 1
	mov	w1, 19
	bl	_ZL20stbtt__dict_get_intsP10stbtt__bufiiPj
	ldr	w0, [sp, 60]
	cmp	w0, 0
	bne	.L353
	mov	x1, 0
	mov	x0, 0
	bl	_ZL14stbtt__new_bufPKvm
	b	.L354
.L353:
	ldr	w1, [sp, 84]
	ldr	w0, [sp, 60]
	add	w0, w1, w0
	mov	w1, w0
	add	x0, sp, 32
	bl	_ZL15stbtt__buf_seekP10stbtt__bufi
	add	x0, sp, 32
	bl	_ZL20stbtt__cff_get_indexP10stbtt__buf
	nop
.L354:
	mov	x2, x0
	mov	x3, x1
	adrp	x0, :got:__stack_chk_guard
	ldr	x0, [x0, #:got_lo12:__stack_chk_guard]
	ldr	x4, [sp, 88]
	ldr	x1, [x0]
	subs	x4, x4, x1
	mov	x1, 0
	beq	.L355
	bl	__stack_chk_fail
.L355:
	mov	x0, x2
	mov	x1, x3
	ldp	x29, x30, [sp], 96
	.cfi_restore 30
	.cfi_restore 29
	.cfi_def_cfa_offset 0
	ret
	.cfi_endproc
.LFE1599:
	.size	_ZL16stbtt__get_subrs10stbtt__bufS_, .-_ZL16stbtt__get_subrs10stbtt__bufS_
	.section	.rodata
	.align	3
.LC35:
	.string	"SVG "
	.text
	.align	2
	.type	_ZL14stbtt__get_svgP14stbtt_fontinfo, %function
_ZL14stbtt__get_svgP14stbtt_fontinfo:
.LFB1600:
	.cfi_startproc
	stp	x29, x30, [sp, -48]!
	.cfi_def_cfa_offset 48
	.cfi_offset 29, -48
	.cfi_offset 30, -40
	mov	x29, sp
	str	x0, [sp, 24]
	ldr	x0, [sp, 24]
	ldr	w0, [x0, 52]
	cmp	w0, 0
	bge	.L357
	ldr	x0, [sp, 24]
	ldr	x3, [x0, 8]
	ldr	x0, [sp, 24]
	ldr	w0, [x0, 16]
	mov	w1, w0
	adrp	x0, .LC35
	add	x2, x0, :lo12:.LC35
	mov	x0, x3
	bl	_ZL17stbtt__find_tablePhjPKc
	str	w0, [sp, 40]
	ldr	w0, [sp, 40]
	cmp	w0, 0
	beq	.L358
	ldr	x0, [sp, 24]
	ldr	x1, [x0, 8]
	ldr	w0, [sp, 40]
	add	x0, x0, 2
	add	x0, x1, x0
	bl	_ZL7ttULONGPh
	str	w0, [sp, 44]
	ldr	w1, [sp, 40]
	ldr	w0, [sp, 44]
	add	w0, w1, w0
	mov	w1, w0
	ldr	x0, [sp, 24]
	str	w1, [x0, 52]
	b	.L357
.L358:
	ldr	x0, [sp, 24]
	str	wzr, [x0, 52]
.L357:
	ldr	x0, [sp, 24]
	ldr	w0, [x0, 52]
	ldp	x29, x30, [sp], 48
	.cfi_restore 30
	.cfi_restore 29
	.cfi_def_cfa_offset 0
	ret
	.cfi_endproc
.LFE1600:
	.size	_ZL14stbtt__get_svgP14stbtt_fontinfo, .-_ZL14stbtt__get_svgP14stbtt_fontinfo
	.section	.rodata
	.align	3
.LC36:
	.string	"cmap"
	.align	3
.LC37:
	.string	"loca"
	.align	3
.LC38:
	.string	"head"
	.align	3
.LC39:
	.string	"glyf"
	.align	3
.LC40:
	.string	"hhea"
	.align	3
.LC41:
	.string	"hmtx"
	.align	3
.LC42:
	.string	"kern"
	.align	3
.LC43:
	.string	"GPOS"
	.align	3
.LC44:
	.string	"CFF "
	.align	3
.LC45:
	.string	"maxp"
	.text
	.align	2
	.type	_ZL23stbtt_InitFont_internalP14stbtt_fontinfoPhi, %function
_ZL23stbtt_InitFont_internalP14stbtt_fontinfoPhi:
.LFB1601:
	.cfi_startproc
	stp	x29, x30, [sp, -160]!
	.cfi_def_cfa_offset 160
	.cfi_offset 29, -160
	.cfi_offset 30, -152
	mov	x29, sp
	str	x19, [sp, 16]
	.cfi_offset 19, -144
	str	x0, [sp, 56]
	str	x1, [sp, 48]
	str	w2, [sp, 44]
	adrp	x0, :got:__stack_chk_guard
	ldr	x0, [x0, #:got_lo12:__stack_chk_guard]
	ldr	x1, [x0]
	str	x1, [sp, 152]
	mov	x1, 0
	ldr	x0, [sp, 56]
	ldr	x1, [sp, 48]
	str	x1, [x0, 8]
	ldr	x0, [sp, 56]
	ldr	w1, [sp, 44]
	str	w1, [x0, 16]
	ldr	x19, [sp, 56]
	mov	x1, 0
	mov	x0, 0
	bl	_ZL14stbtt__new_bufPKvm
	stp	x0, x1, [x19, 64]
	ldr	w1, [sp, 44]
	adrp	x0, .LC36
	add	x2, x0, :lo12:.LC36
	ldr	x0, [sp, 48]
	bl	_ZL17stbtt__find_tablePhjPKc
	str	w0, [sp, 84]
	ldr	w1, [sp, 44]
	adrp	x0, .LC37
	add	x2, x0, :lo12:.LC37
	ldr	x0, [sp, 48]
	bl	_ZL17stbtt__find_tablePhjPKc
	mov	w1, w0
	ldr	x0, [sp, 56]
	str	w1, [x0, 24]
	ldr	w1, [sp, 44]
	adrp	x0, .LC38
	add	x2, x0, :lo12:.LC38
	ldr	x0, [sp, 48]
	bl	_ZL17stbtt__find_tablePhjPKc
	mov	w1, w0
	ldr	x0, [sp, 56]
	str	w1, [x0, 28]
	ldr	w1, [sp, 44]
	adrp	x0, .LC39
	add	x2, x0, :lo12:.LC39
	ldr	x0, [sp, 48]
	bl	_ZL17stbtt__find_tablePhjPKc
	mov	w1, w0
	ldr	x0, [sp, 56]
	str	w1, [x0, 32]
	ldr	w1, [sp, 44]
	adrp	x0, .LC40
	add	x2, x0, :lo12:.LC40
	ldr	x0, [sp, 48]
	bl	_ZL17stbtt__find_tablePhjPKc
	mov	w1, w0
	ldr	x0, [sp, 56]
	str	w1, [x0, 36]
	ldr	w1, [sp, 44]
	adrp	x0, .LC41
	add	x2, x0, :lo12:.LC41
	ldr	x0, [sp, 48]
	bl	_ZL17stbtt__find_tablePhjPKc
	mov	w1, w0
	ldr	x0, [sp, 56]
	str	w1, [x0, 40]
	ldr	w1, [sp, 44]
	adrp	x0, .LC42
	add	x2, x0, :lo12:.LC42
	ldr	x0, [sp, 48]
	bl	_ZL17stbtt__find_tablePhjPKc
	mov	w1, w0
	ldr	x0, [sp, 56]
	str	w1, [x0, 44]
	ldr	w1, [sp, 44]
	adrp	x0, .LC43
	add	x2, x0, :lo12:.LC43
	ldr	x0, [sp, 48]
	bl	_ZL17stbtt__find_tablePhjPKc
	mov	w1, w0
	ldr	x0, [sp, 56]
	str	w1, [x0, 48]
	ldr	w0, [sp, 84]
	cmp	w0, 0
	beq	.L361
	ldr	x0, [sp, 56]
	ldr	w0, [x0, 28]
	cmp	w0, 0
	beq	.L361
	ldr	x0, [sp, 56]
	ldr	w0, [x0, 36]
	cmp	w0, 0
	beq	.L361
	ldr	x0, [sp, 56]
	ldr	w0, [x0, 40]
	cmp	w0, 0
	bne	.L362
.L361:
	mov	w0, 0
	b	.L363
.L362:
	ldr	x0, [sp, 56]
	ldr	w0, [x0, 32]
	cmp	w0, 0
	beq	.L364
	ldr	x0, [sp, 56]
	ldr	w0, [x0, 24]
	cmp	w0, 0
	bne	.L365
	mov	w0, 0
	b	.L363
.L364:
	mov	w0, 2
	str	w0, [sp, 64]
	str	wzr, [sp, 68]
	str	wzr, [sp, 72]
	str	wzr, [sp, 76]
	ldr	w1, [sp, 44]
	adrp	x0, .LC44
	add	x2, x0, :lo12:.LC44
	ldr	x0, [sp, 48]
	bl	_ZL17stbtt__find_tablePhjPKc
	str	w0, [sp, 88]
	ldr	w0, [sp, 88]
	cmp	w0, 0
	bne	.L366
	mov	w0, 0
	b	.L363
.L366:
	ldr	x19, [sp, 56]
	mov	x1, 0
	mov	x0, 0
	bl	_ZL14stbtt__new_bufPKvm
	stp	x0, x1, [x19, 128]
	ldr	x19, [sp, 56]
	mov	x1, 0
	mov	x0, 0
	bl	_ZL14stbtt__new_bufPKvm
	stp	x0, x1, [x19, 144]
	ldr	w0, [sp, 88]
	ldr	x1, [sp, 48]
	add	x0, x1, x0
	ldr	x19, [sp, 56]
	mov	x1, 536870912
	bl	_ZL14stbtt__new_bufPKvm
	stp	x0, x1, [x19, 64]
	ldr	x0, [sp, 56]
	ldp	x0, x1, [x0, 64]
	stp	x0, x1, [sp, 104]
	add	x0, sp, 104
	mov	w1, 2
	bl	_ZL15stbtt__buf_skipP10stbtt__bufi
	add	x0, sp, 104
	bl	_ZL15stbtt__buf_get8P10stbtt__buf
	and	w0, w0, 255
	mov	w1, w0
	add	x0, sp, 104
	bl	_ZL15stbtt__buf_seekP10stbtt__bufi
	add	x0, sp, 104
	bl	_ZL20stbtt__cff_get_indexP10stbtt__buf
	add	x0, sp, 104
	bl	_ZL20stbtt__cff_get_indexP10stbtt__buf
	stp	x0, x1, [sp, 136]
	mov	w2, 0
	ldp	x0, x1, [sp, 136]
	bl	_ZL20stbtt__cff_index_get10stbtt__bufi
	stp	x0, x1, [sp, 120]
	add	x0, sp, 104
	bl	_ZL20stbtt__cff_get_indexP10stbtt__buf
	ldr	x19, [sp, 56]
	add	x0, sp, 104
	bl	_ZL20stbtt__cff_get_indexP10stbtt__buf
	stp	x0, x1, [x19, 96]
	add	x1, sp, 68
	add	x0, sp, 120
	mov	x3, x1
	mov	w2, 1
	mov	w1, 17
	bl	_ZL20stbtt__dict_get_intsP10stbtt__bufiiPj
	add	x1, sp, 64
	add	x0, sp, 120
	mov	x3, x1
	mov	w2, 1
	mov	w1, 262
	bl	_ZL20stbtt__dict_get_intsP10stbtt__bufiiPj
	add	x1, sp, 72
	add	x0, sp, 120
	mov	x3, x1
	mov	w2, 1
	mov	w1, 292
	bl	_ZL20stbtt__dict_get_intsP10stbtt__bufiiPj
	add	x1, sp, 76
	add	x0, sp, 120
	mov	x3, x1
	mov	w2, 1
	mov	w1, 293
	bl	_ZL20stbtt__dict_get_intsP10stbtt__bufiiPj
	ldr	x19, [sp, 56]
	ldp	x2, x3, [sp, 120]
	ldp	x0, x1, [sp, 104]
	bl	_ZL16stbtt__get_subrs10stbtt__bufS_
	stp	x0, x1, [x19, 112]
	ldr	w0, [sp, 64]
	cmp	w0, 2
	beq	.L368
	mov	w0, 0
	b	.L363
.L368:
	ldr	w0, [sp, 68]
	cmp	w0, 0
	bne	.L369
	mov	w0, 0
	b	.L363
.L369:
	ldr	w0, [sp, 72]
	cmp	w0, 0
	beq	.L370
	ldr	w0, [sp, 76]
	cmp	w0, 0
	bne	.L371
	mov	w0, 0
	b	.L363
.L371:
	ldr	w0, [sp, 72]
	mov	w1, w0
	add	x0, sp, 104
	bl	_ZL15stbtt__buf_seekP10stbtt__bufi
	ldr	x19, [sp, 56]
	add	x0, sp, 104
	bl	_ZL20stbtt__cff_get_indexP10stbtt__buf
	stp	x0, x1, [x19, 128]
	ldr	w0, [sp, 76]
	mov	w3, w0
	ldr	w0, [sp, 116]
	mov	w1, w0
	ldr	w0, [sp, 76]
	sub	w0, w1, w0
	mov	w1, w0
	ldr	x19, [sp, 56]
	add	x0, sp, 104
	mov	w2, w1
	mov	w1, w3
	bl	_ZL16stbtt__buf_rangePK10stbtt__bufii
	stp	x0, x1, [x19, 144]
.L370:
	ldr	w0, [sp, 68]
	mov	w1, w0
	add	x0, sp, 104
	bl	_ZL15stbtt__buf_seekP10stbtt__bufi
	ldr	x19, [sp, 56]
	add	x0, sp, 104
	bl	_ZL20stbtt__cff_get_indexP10stbtt__buf
	stp	x0, x1, [x19, 80]
.L365:
	ldr	w1, [sp, 44]
	adrp	x0, .LC45
	add	x2, x0, :lo12:.LC45
	ldr	x0, [sp, 48]
	bl	_ZL17stbtt__find_tablePhjPKc
	str	w0, [sp, 92]
	ldr	w0, [sp, 92]
	cmp	w0, 0
	beq	.L372
	ldr	w0, [sp, 92]
	add	x0, x0, 4
	ldr	x1, [sp, 48]
	add	x0, x1, x0
	bl	_ZL8ttUSHORTPh
	and	w0, w0, 65535
	mov	w1, w0
	ldr	x0, [sp, 56]
	str	w1, [x0, 20]
	b	.L373
.L372:
	ldr	x0, [sp, 56]
	mov	w1, 65535
	str	w1, [x0, 20]
.L373:
	ldr	x0, [sp, 56]
	mov	w1, -1
	str	w1, [x0, 52]
	ldr	w0, [sp, 84]
	add	x0, x0, 2
	ldr	x1, [sp, 48]
	add	x0, x1, x0
	bl	_ZL8ttUSHORTPh
	and	w0, w0, 65535
	str	w0, [sp, 96]
	ldr	x0, [sp, 56]
	str	wzr, [x0, 56]
	str	wzr, [sp, 80]
	b	.L374
.L379:
	ldr	w0, [sp, 80]
	lsl	w0, w0, 3
	mov	w1, w0
	ldr	w0, [sp, 84]
	add	w0, w1, w0
	add	w0, w0, 4
	str	w0, [sp, 100]
	ldr	w0, [sp, 100]
	ldr	x1, [sp, 48]
	add	x0, x1, x0
	bl	_ZL8ttUSHORTPh
	and	w0, w0, 65535
	cmp	w0, 0
	beq	.L375
	cmp	w0, 3
	bne	.L376
	ldr	w0, [sp, 100]
	add	x0, x0, 2
	ldr	x1, [sp, 48]
	add	x0, x1, x0
	bl	_ZL8ttUSHORTPh
	and	w0, w0, 65535
	cmp	w0, 1
	beq	.L377
	cmp	w0, 10
	bne	.L382
.L377:
	ldr	w0, [sp, 100]
	add	x0, x0, 4
	ldr	x1, [sp, 48]
	add	x0, x1, x0
	bl	_ZL7ttULONGPh
	mov	w1, w0
	ldr	w0, [sp, 84]
	add	w0, w1, w0
	mov	w1, w0
	ldr	x0, [sp, 56]
	str	w1, [x0, 56]
	nop
	b	.L382
.L375:
	ldr	w0, [sp, 100]
	add	x0, x0, 4
	ldr	x1, [sp, 48]
	add	x0, x1, x0
	bl	_ZL7ttULONGPh
	mov	w1, w0
	ldr	w0, [sp, 84]
	add	w0, w1, w0
	mov	w1, w0
	ldr	x0, [sp, 56]
	str	w1, [x0, 56]
	b	.L376
.L382:
	nop
.L376:
	ldr	w0, [sp, 80]
	add	w0, w0, 1
	str	w0, [sp, 80]
.L374:
	ldr	w1, [sp, 80]
	ldr	w0, [sp, 96]
	cmp	w1, w0
	blt	.L379
	ldr	x0, [sp, 56]
	ldr	w0, [x0, 56]
	cmp	w0, 0
	bne	.L380
	mov	w0, 0
	b	.L363
.L380:
	ldr	x0, [sp, 56]
	ldr	w0, [x0, 28]
	sxtw	x0, w0
	add	x0, x0, 50
	ldr	x1, [sp, 48]
	add	x0, x1, x0
	bl	_ZL8ttUSHORTPh
	and	w0, w0, 65535
	mov	w1, w0
	ldr	x0, [sp, 56]
	str	w1, [x0, 60]
	mov	w0, 1
.L363:
	mov	w1, w0
	adrp	x0, :got:__stack_chk_guard
	ldr	x0, [x0, #:got_lo12:__stack_chk_guard]
	ldr	x3, [sp, 152]
	ldr	x2, [x0]
	subs	x3, x3, x2
	mov	x2, 0
	beq	.L381
	bl	__stack_chk_fail
.L381:
	mov	w0, w1
	ldr	x19, [sp, 16]
	ldp	x29, x30, [sp], 160
	.cfi_restore 30
	.cfi_restore 29
	.cfi_restore 19
	.cfi_def_cfa_offset 0
	ret
	.cfi_endproc
.LFE1601:
	.size	_ZL23stbtt_InitFont_internalP14stbtt_fontinfoPhi, .-_ZL23stbtt_InitFont_internalP14stbtt_fontinfoPhi
	.section	.rodata
	.align	3
.LC46:
	.string	"int stbtt_FindGlyphIndex(const stbtt_fontinfo*, int)"
	.text
	.align	2
	.type	stbtt_FindGlyphIndex, %function
stbtt_FindGlyphIndex:
.LFB1602:
	.cfi_startproc
	stp	x29, x30, [sp, -112]!
	.cfi_def_cfa_offset 112
	.cfi_offset 29, -112
	.cfi_offset 30, -104
	mov	x29, sp
	str	x0, [sp, 24]
	str	w1, [sp, 20]
	ldr	x0, [sp, 24]
	ldr	x0, [x0, 8]
	str	x0, [sp, 104]
	ldr	x0, [sp, 24]
	ldr	w0, [x0, 56]
	str	w0, [sp, 64]
	ldr	w0, [sp, 64]
	ldr	x1, [sp, 104]
	add	x0, x1, x0
	bl	_ZL8ttUSHORTPh
	strh	w0, [sp, 36]
	ldrh	w0, [sp, 36]
	cmp	w0, 0
	bne	.L384
	ldr	w0, [sp, 64]
	add	x0, x0, 2
	ldr	x1, [sp, 104]
	add	x0, x1, x0
	bl	_ZL8ttUSHORTPh
	and	w0, w0, 65535
	str	w0, [sp, 100]
	ldr	w0, [sp, 100]
	sub	w0, w0, #6
	ldr	w1, [sp, 20]
	cmp	w1, w0
	bge	.L385
	ldr	w1, [sp, 64]
	ldrsw	x0, [sp, 20]
	add	x0, x1, x0
	add	x0, x0, 6
	ldr	x1, [sp, 104]
	add	x0, x1, x0
	ldrb	w0, [x0]
	b	.L386
.L385:
	mov	w0, 0
	b	.L386
.L384:
	ldrh	w0, [sp, 36]
	cmp	w0, 6
	bne	.L387
	ldr	w0, [sp, 64]
	add	x0, x0, 6
	ldr	x1, [sp, 104]
	add	x0, x1, x0
	bl	_ZL8ttUSHORTPh
	and	w0, w0, 65535
	str	w0, [sp, 92]
	ldr	w0, [sp, 64]
	add	x0, x0, 8
	ldr	x1, [sp, 104]
	add	x0, x1, x0
	bl	_ZL8ttUSHORTPh
	and	w0, w0, 65535
	str	w0, [sp, 96]
	ldr	w0, [sp, 20]
	ldr	w1, [sp, 92]
	cmp	w1, w0
	bhi	.L388
	ldr	w1, [sp, 92]
	ldr	w0, [sp, 96]
	add	w1, w1, w0
	ldr	w0, [sp, 20]
	cmp	w1, w0
	bls	.L388
	ldr	w1, [sp, 64]
	ldr	w2, [sp, 20]
	ldr	w0, [sp, 92]
	sub	w0, w2, w0
	lsl	w0, w0, 1
	uxtw	x0, w0
	add	x0, x1, x0
	add	x0, x0, 10
	ldr	x1, [sp, 104]
	add	x0, x1, x0
	bl	_ZL8ttUSHORTPh
	and	w0, w0, 65535
	b	.L386
.L388:
	mov	w0, 0
	b	.L386
.L387:
	ldrh	w0, [sp, 36]
	cmp	w0, 2
	bne	.L389
	adrp	x0, .LC46
	add	x3, x0, :lo12:.LC46
	mov	w2, 1519
	adrp	x0, .LC22
	add	x1, x0, :lo12:.LC22
	adrp	x0, .LC12
	add	x0, x0, :lo12:.LC12
	bl	__assert_fail
.L389:
	ldrh	w0, [sp, 36]
	cmp	w0, 4
	bne	.L390
	ldr	w0, [sp, 64]
	add	x0, x0, 6
	ldr	x1, [sp, 104]
	add	x0, x1, x0
	bl	_ZL8ttUSHORTPh
	and	w0, w0, 65535
	lsr	w0, w0, 1
	strh	w0, [sp, 38]
	ldr	w0, [sp, 64]
	add	x0, x0, 8
	ldr	x1, [sp, 104]
	add	x0, x1, x0
	bl	_ZL8ttUSHORTPh
	and	w0, w0, 65535
	lsr	w0, w0, 1
	strh	w0, [sp, 32]
	ldr	w0, [sp, 64]
	add	x0, x0, 10
	ldr	x1, [sp, 104]
	add	x0, x1, x0
	bl	_ZL8ttUSHORTPh
	strh	w0, [sp, 34]
	ldr	w0, [sp, 64]
	add	x0, x0, 12
	ldr	x1, [sp, 104]
	add	x0, x1, x0
	bl	_ZL8ttUSHORTPh
	and	w0, w0, 65535
	lsr	w0, w0, 1
	strh	w0, [sp, 40]
	ldr	w0, [sp, 64]
	add	w0, w0, 14
	str	w0, [sp, 88]
	ldr	w0, [sp, 88]
	str	w0, [sp, 52]
	ldr	w1, [sp, 20]
	mov	w0, 65535
	cmp	w1, w0
	ble	.L391
	mov	w0, 0
	b	.L386
.L391:
	ldr	w1, [sp, 52]
	ldrh	w0, [sp, 40]
	lsl	w0, w0, 1
	sxtw	x0, w0
	add	x0, x1, x0
	ldr	x1, [sp, 104]
	add	x0, x1, x0
	bl	_ZL8ttUSHORTPh
	and	w0, w0, 65535
	mov	w1, w0
	ldr	w0, [sp, 20]
	cmp	w0, w1
	cset	w0, ge
	and	w0, w0, 255
	cmp	w0, 0
	beq	.L392
	ldrh	w0, [sp, 40]
	lsl	w0, w0, 1
	mov	w1, w0
	ldr	w0, [sp, 52]
	add	w0, w0, w1
	str	w0, [sp, 52]
.L392:
	ldr	w0, [sp, 52]
	sub	w0, w0, #2
	str	w0, [sp, 52]
	b	.L393
.L395:
	ldrh	w0, [sp, 32]
	lsr	w0, w0, 1
	strh	w0, [sp, 32]
	ldr	w1, [sp, 52]
	ldrh	w0, [sp, 32]
	lsl	w0, w0, 1
	sxtw	x0, w0
	add	x0, x1, x0
	ldr	x1, [sp, 104]
	add	x0, x1, x0
	bl	_ZL8ttUSHORTPh
	strh	w0, [sp, 50]
	ldrh	w0, [sp, 50]
	ldr	w1, [sp, 20]
	cmp	w1, w0
	ble	.L394
	ldrh	w0, [sp, 32]
	lsl	w0, w0, 1
	mov	w1, w0
	ldr	w0, [sp, 52]
	add	w0, w0, w1
	str	w0, [sp, 52]
.L394:
	ldrh	w0, [sp, 34]
	sub	w0, w0, #1
	strh	w0, [sp, 34]
.L393:
	ldrh	w0, [sp, 34]
	cmp	w0, 0
	bne	.L395
	ldr	w0, [sp, 52]
	add	w0, w0, 2
	str	w0, [sp, 52]
	ldr	w1, [sp, 52]
	ldr	w0, [sp, 88]
	sub	w0, w1, w0
	lsr	w0, w0, 1
	strh	w0, [sp, 42]
	ldr	w1, [sp, 64]
	ldrh	w0, [sp, 38]
	lsl	w0, w0, 1
	sxtw	x0, w0
	add	x1, x1, x0
	ldrh	w0, [sp, 42]
	lsl	w0, w0, 1
	sxtw	x0, w0
	add	x0, x1, x0
	add	x0, x0, 16
	ldr	x1, [sp, 104]
	add	x0, x1, x0
	bl	_ZL8ttUSHORTPh
	strh	w0, [sp, 44]
	ldr	w1, [sp, 88]
	ldrh	w0, [sp, 42]
	lsl	w0, w0, 1
	sxtw	x0, w0
	add	x0, x1, x0
	ldr	x1, [sp, 104]
	add	x0, x1, x0
	bl	_ZL8ttUSHORTPh
	strh	w0, [sp, 46]
	ldrh	w0, [sp, 44]
	ldr	w1, [sp, 20]
	cmp	w1, w0
	blt	.L396
	ldrh	w0, [sp, 46]
	ldr	w1, [sp, 20]
	cmp	w1, w0
	ble	.L397
.L396:
	mov	w0, 0
	b	.L386
.L397:
	ldr	w2, [sp, 64]
	ldrh	w1, [sp, 38]
	mov	w0, w1
	lsl	w0, w0, 1
	add	w0, w0, w1
	lsl	w0, w0, 1
	sxtw	x0, w0
	add	x1, x2, x0
	ldrh	w0, [sp, 42]
	lsl	w0, w0, 1
	sxtw	x0, w0
	add	x0, x1, x0
	add	x0, x0, 16
	ldr	x1, [sp, 104]
	add	x0, x1, x0
	bl	_ZL8ttUSHORTPh
	strh	w0, [sp, 48]
	ldrh	w0, [sp, 48]
	cmp	w0, 0
	bne	.L398
	ldr	w1, [sp, 64]
	ldrh	w0, [sp, 38]
	lsl	w0, w0, 2
	sxtw	x0, w0
	add	x1, x1, x0
	ldrh	w0, [sp, 42]
	lsl	w0, w0, 1
	sxtw	x0, w0
	add	x0, x1, x0
	add	x0, x0, 16
	ldr	x1, [sp, 104]
	add	x0, x1, x0
	bl	_ZL7ttSHORTPh
	sxth	w0, w0
	and	w1, w0, 65535
	ldr	w0, [sp, 20]
	and	w0, w0, 65535
	add	w0, w1, w0
	and	w0, w0, 65535
	b	.L386
.L398:
	ldrh	w1, [sp, 48]
	ldrh	w0, [sp, 44]
	ldr	w2, [sp, 20]
	sub	w0, w2, w0
	lsl	w0, w0, 1
	sxtw	x0, w0
	add	x1, x1, x0
	ldr	w0, [sp, 64]
	add	x2, x1, x0
	ldrh	w1, [sp, 38]
	mov	w0, w1
	lsl	w0, w0, 1
	add	w0, w0, w1
	lsl	w0, w0, 1
	sxtw	x0, w0
	add	x1, x2, x0
	ldrh	w0, [sp, 42]
	lsl	w0, w0, 1
	sxtw	x0, w0
	add	x0, x1, x0
	add	x0, x0, 16
	ldr	x1, [sp, 104]
	add	x0, x1, x0
	bl	_ZL8ttUSHORTPh
	and	w0, w0, 65535
	b	.L386
.L390:
	ldrh	w0, [sp, 36]
	cmp	w0, 12
	beq	.L399
	ldrh	w0, [sp, 36]
	cmp	w0, 13
	bne	.L400
.L399:
	ldr	w0, [sp, 64]
	add	x0, x0, 12
	ldr	x1, [sp, 104]
	add	x0, x1, x0
	bl	_ZL7ttULONGPh
	str	w0, [sp, 68]
	str	wzr, [sp, 56]
	ldr	w0, [sp, 68]
	str	w0, [sp, 60]
	b	.L401
.L405:
	ldr	w1, [sp, 60]
	ldr	w0, [sp, 56]
	sub	w0, w1, w0
	asr	w0, w0, 1
	ldr	w1, [sp, 56]
	add	w0, w1, w0
	str	w0, [sp, 72]
	ldr	w2, [sp, 64]
	ldr	w1, [sp, 72]
	mov	w0, w1
	lsl	w0, w0, 1
	add	w0, w0, w1
	lsl	w0, w0, 2
	sxtw	x0, w0
	add	x0, x2, x0
	add	x0, x0, 16
	ldr	x1, [sp, 104]
	add	x0, x1, x0
	bl	_ZL7ttULONGPh
	str	w0, [sp, 76]
	ldr	w2, [sp, 64]
	ldr	w1, [sp, 72]
	mov	w0, w1
	lsl	w0, w0, 1
	add	w0, w0, w1
	lsl	w0, w0, 2
	sxtw	x0, w0
	add	x0, x2, x0
	add	x0, x0, 20
	ldr	x1, [sp, 104]
	add	x0, x1, x0
	bl	_ZL7ttULONGPh
	str	w0, [sp, 80]
	ldr	w0, [sp, 20]
	ldr	w1, [sp, 76]
	cmp	w1, w0
	bls	.L402
	ldr	w0, [sp, 72]
	str	w0, [sp, 60]
	b	.L401
.L402:
	ldr	w0, [sp, 20]
	ldr	w1, [sp, 80]
	cmp	w1, w0
	bcs	.L403
	ldr	w0, [sp, 72]
	add	w0, w0, 1
	str	w0, [sp, 56]
	b	.L401
.L403:
	ldr	w2, [sp, 64]
	ldr	w1, [sp, 72]
	mov	w0, w1
	lsl	w0, w0, 1
	add	w0, w0, w1
	lsl	w0, w0, 2
	sxtw	x0, w0
	add	x0, x2, x0
	add	x0, x0, 24
	ldr	x1, [sp, 104]
	add	x0, x1, x0
	bl	_ZL7ttULONGPh
	str	w0, [sp, 84]
	ldrh	w0, [sp, 36]
	cmp	w0, 12
	bne	.L404
	ldr	w1, [sp, 20]
	ldr	w0, [sp, 84]
	add	w1, w1, w0
	ldr	w0, [sp, 76]
	sub	w0, w1, w0
	b	.L386
.L404:
	ldr	w0, [sp, 84]
	b	.L386
.L401:
	ldr	w1, [sp, 56]
	ldr	w0, [sp, 60]
	cmp	w1, w0
	blt	.L405
	mov	w0, 0
	b	.L386
.L400:
	adrp	x0, .LC46
	add	x3, x0, :lo12:.LC46
	mov	w2, 1590
	adrp	x0, .LC22
	add	x1, x0, :lo12:.LC22
	adrp	x0, .LC12
	add	x0, x0, :lo12:.LC12
	bl	__assert_fail
.L386:
	ldp	x29, x30, [sp], 112
	.cfi_restore 30
	.cfi_restore 29
	.cfi_def_cfa_offset 0
	ret
	.cfi_endproc
.LFE1602:
	.size	stbtt_FindGlyphIndex, .-stbtt_FindGlyphIndex
	.align	2
	.type	stbtt_GetCodepointShape, %function
stbtt_GetCodepointShape:
.LFB1603:
	.cfi_startproc
	stp	x29, x30, [sp, -48]!
	.cfi_def_cfa_offset 48
	.cfi_offset 29, -48
	.cfi_offset 30, -40
	mov	x29, sp
	str	x0, [sp, 40]
	str	w1, [sp, 36]
	str	x2, [sp, 24]
	ldr	w1, [sp, 36]
	ldr	x0, [sp, 40]
	bl	stbtt_FindGlyphIndex
	ldr	x2, [sp, 24]
	mov	w1, w0
	ldr	x0, [sp, 40]
	bl	stbtt_GetGlyphShape
	ldp	x29, x30, [sp], 48
	.cfi_restore 30
	.cfi_restore 29
	.cfi_def_cfa_offset 0
	ret
	.cfi_endproc
.LFE1603:
	.size	stbtt_GetCodepointShape, .-stbtt_GetCodepointShape
	.align	2
	.type	_ZL15stbtt_setvertexP12stbtt_vertexhiiii, %function
_ZL15stbtt_setvertexP12stbtt_vertexhiiii:
.LFB1604:
	.cfi_startproc
	sub	sp, sp, #32
	.cfi_def_cfa_offset 32
	str	x0, [sp, 24]
	strb	w1, [sp, 23]
	str	w2, [sp, 16]
	str	w3, [sp, 12]
	str	w4, [sp, 8]
	str	w5, [sp, 4]
	ldr	x0, [sp, 24]
	ldrb	w1, [sp, 23]
	strb	w1, [x0, 12]
	ldr	w0, [sp, 16]
	sxth	w1, w0
	ldr	x0, [sp, 24]
	strh	w1, [x0]
	ldr	w0, [sp, 12]
	sxth	w1, w0
	ldr	x0, [sp, 24]
	strh	w1, [x0, 2]
	ldr	w0, [sp, 8]
	sxth	w1, w0
	ldr	x0, [sp, 24]
	strh	w1, [x0, 4]
	ldr	w0, [sp, 4]
	sxth	w1, w0
	ldr	x0, [sp, 24]
	strh	w1, [x0, 6]
	nop
	add	sp, sp, 32
	.cfi_def_cfa_offset 0
	ret
	.cfi_endproc
.LFE1604:
	.size	_ZL15stbtt_setvertexP12stbtt_vertexhiiii, .-_ZL15stbtt_setvertexP12stbtt_vertexhiiii
	.section	.rodata
	.align	3
.LC47:
	.string	"int stbtt__GetGlyfOffset(const stbtt_fontinfo*, int)"
	.align	3
.LC48:
	.string	"!info->cff.size"
	.text
	.align	2
	.type	_ZL20stbtt__GetGlyfOffsetPK14stbtt_fontinfoi, %function
_ZL20stbtt__GetGlyfOffsetPK14stbtt_fontinfoi:
.LFB1605:
	.cfi_startproc
	stp	x29, x30, [sp, -64]!
	.cfi_def_cfa_offset 64
	.cfi_offset 29, -64
	.cfi_offset 30, -56
	mov	x29, sp
	str	x19, [sp, 16]
	.cfi_offset 19, -48
	str	x0, [sp, 40]
	str	w1, [sp, 36]
	ldr	x0, [sp, 40]
	ldr	w0, [x0, 76]
	cmp	w0, 0
	beq	.L410
	adrp	x0, .LC47
	add	x3, x0, :lo12:.LC47
	mov	w2, 1612
	adrp	x0, .LC22
	add	x1, x0, :lo12:.LC22
	adrp	x0, .LC48
	add	x0, x0, :lo12:.LC48
	bl	__assert_fail
.L410:
	ldr	x0, [sp, 40]
	ldr	w0, [x0, 20]
	ldr	w1, [sp, 36]
	cmp	w1, w0
	blt	.L411
	mov	w0, -1
	b	.L412
.L411:
	ldr	x0, [sp, 40]
	ldr	w0, [x0, 60]
	cmp	w0, 1
	ble	.L413
	mov	w0, -1
	b	.L412
.L413:
	ldr	x0, [sp, 40]
	ldr	w0, [x0, 60]
	cmp	w0, 0
	bne	.L414
	ldr	x0, [sp, 40]
	ldr	w19, [x0, 32]
	ldr	x0, [sp, 40]
	ldr	x1, [x0, 8]
	ldr	x0, [sp, 40]
	ldr	w0, [x0, 24]
	sxtw	x2, w0
	ldr	w0, [sp, 36]
	lsl	w0, w0, 1
	sxtw	x0, w0
	add	x0, x2, x0
	add	x0, x1, x0
	bl	_ZL8ttUSHORTPh
	and	w0, w0, 65535
	lsl	w0, w0, 1
	add	w0, w19, w0
	str	w0, [sp, 56]
	ldr	x0, [sp, 40]
	ldr	w19, [x0, 32]
	ldr	x0, [sp, 40]
	ldr	x1, [x0, 8]
	ldr	x0, [sp, 40]
	ldr	w0, [x0, 24]
	sxtw	x2, w0
	ldr	w0, [sp, 36]
	lsl	w0, w0, 1
	sxtw	x0, w0
	add	x0, x2, x0
	add	x0, x0, 2
	add	x0, x1, x0
	bl	_ZL8ttUSHORTPh
	and	w0, w0, 65535
	lsl	w0, w0, 1
	add	w0, w19, w0
	str	w0, [sp, 60]
	b	.L415
.L414:
	ldr	x0, [sp, 40]
	ldr	w0, [x0, 32]
	mov	w19, w0
	ldr	x0, [sp, 40]
	ldr	x1, [x0, 8]
	ldr	x0, [sp, 40]
	ldr	w0, [x0, 24]
	sxtw	x2, w0
	ldr	w0, [sp, 36]
	lsl	w0, w0, 2
	sxtw	x0, w0
	add	x0, x2, x0
	add	x0, x1, x0
	bl	_ZL7ttULONGPh
	add	w0, w19, w0
	str	w0, [sp, 56]
	ldr	x0, [sp, 40]
	ldr	w0, [x0, 32]
	mov	w19, w0
	ldr	x0, [sp, 40]
	ldr	x1, [x0, 8]
	ldr	x0, [sp, 40]
	ldr	w0, [x0, 24]
	sxtw	x2, w0
	ldr	w0, [sp, 36]
	lsl	w0, w0, 2
	sxtw	x0, w0
	add	x0, x2, x0
	add	x0, x0, 4
	add	x0, x1, x0
	bl	_ZL7ttULONGPh
	add	w0, w19, w0
	str	w0, [sp, 60]
.L415:
	ldr	w1, [sp, 56]
	ldr	w0, [sp, 60]
	cmp	w1, w0
	beq	.L416
	ldr	w0, [sp, 56]
	b	.L418
.L416:
	mov	w0, -1
.L418:
	nop
.L412:
	ldr	x19, [sp, 16]
	ldp	x29, x30, [sp], 64
	.cfi_restore 30
	.cfi_restore 29
	.cfi_restore 19
	.cfi_def_cfa_offset 0
	ret
	.cfi_endproc
.LFE1605:
	.size	_ZL20stbtt__GetGlyfOffsetPK14stbtt_fontinfoi, .-_ZL20stbtt__GetGlyfOffsetPK14stbtt_fontinfoi
	.align	2
	.type	stbtt_GetGlyphBox, %function
stbtt_GetGlyphBox:
.LFB1606:
	.cfi_startproc
	stp	x29, x30, [sp, -80]!
	.cfi_def_cfa_offset 80
	.cfi_offset 29, -80
	.cfi_offset 30, -72
	mov	x29, sp
	str	x0, [sp, 56]
	str	w1, [sp, 52]
	str	x2, [sp, 40]
	str	x3, [sp, 32]
	str	x4, [sp, 24]
	str	x5, [sp, 16]
	ldr	x0, [sp, 56]
	ldr	w0, [x0, 76]
	cmp	w0, 0
	beq	.L420
	ldr	x5, [sp, 16]
	ldr	x4, [sp, 24]
	ldr	x3, [sp, 32]
	ldr	x2, [sp, 40]
	ldr	w1, [sp, 52]
	ldr	x0, [sp, 56]
	bl	_ZL21stbtt__GetGlyphInfoT2PK14stbtt_fontinfoiPiS2_S2_S2_
	b	.L421
.L420:
	ldr	w1, [sp, 52]
	ldr	x0, [sp, 56]
	bl	_ZL20stbtt__GetGlyfOffsetPK14stbtt_fontinfoi
	str	w0, [sp, 76]
	ldr	w0, [sp, 76]
	cmp	w0, 0
	bge	.L422
	mov	w0, 0
	b	.L423
.L422:
	ldr	x0, [sp, 40]
	cmp	x0, 0
	beq	.L424
	ldr	x0, [sp, 56]
	ldr	x1, [x0, 8]
	ldrsw	x0, [sp, 76]
	add	x0, x0, 2
	add	x0, x1, x0
	bl	_ZL7ttSHORTPh
	sxth	w0, w0
	mov	w1, w0
	ldr	x0, [sp, 40]
	str	w1, [x0]
.L424:
	ldr	x0, [sp, 32]
	cmp	x0, 0
	beq	.L425
	ldr	x0, [sp, 56]
	ldr	x1, [x0, 8]
	ldrsw	x0, [sp, 76]
	add	x0, x0, 4
	add	x0, x1, x0
	bl	_ZL7ttSHORTPh
	sxth	w0, w0
	mov	w1, w0
	ldr	x0, [sp, 32]
	str	w1, [x0]
.L425:
	ldr	x0, [sp, 24]
	cmp	x0, 0
	beq	.L426
	ldr	x0, [sp, 56]
	ldr	x1, [x0, 8]
	ldrsw	x0, [sp, 76]
	add	x0, x0, 6
	add	x0, x1, x0
	bl	_ZL7ttSHORTPh
	sxth	w0, w0
	mov	w1, w0
	ldr	x0, [sp, 24]
	str	w1, [x0]
.L426:
	ldr	x0, [sp, 16]
	cmp	x0, 0
	beq	.L421
	ldr	x0, [sp, 56]
	ldr	x1, [x0, 8]
	ldrsw	x0, [sp, 76]
	add	x0, x0, 8
	add	x0, x1, x0
	bl	_ZL7ttSHORTPh
	sxth	w0, w0
	mov	w1, w0
	ldr	x0, [sp, 16]
	str	w1, [x0]
.L421:
	mov	w0, 1
.L423:
	ldp	x29, x30, [sp], 80
	.cfi_restore 30
	.cfi_restore 29
	.cfi_def_cfa_offset 0
	ret
	.cfi_endproc
.LFE1606:
	.size	stbtt_GetGlyphBox, .-stbtt_GetGlyphBox
	.align	2
	.type	stbtt_GetCodepointBox, %function
stbtt_GetCodepointBox:
.LFB1607:
	.cfi_startproc
	stp	x29, x30, [sp, -64]!
	.cfi_def_cfa_offset 64
	.cfi_offset 29, -64
	.cfi_offset 30, -56
	mov	x29, sp
	str	x0, [sp, 56]
	str	w1, [sp, 52]
	str	x2, [sp, 40]
	str	x3, [sp, 32]
	str	x4, [sp, 24]
	str	x5, [sp, 16]
	ldr	w1, [sp, 52]
	ldr	x0, [sp, 56]
	bl	stbtt_FindGlyphIndex
	ldr	x5, [sp, 16]
	ldr	x4, [sp, 24]
	ldr	x3, [sp, 32]
	ldr	x2, [sp, 40]
	mov	w1, w0
	ldr	x0, [sp, 56]
	bl	stbtt_GetGlyphBox
	ldp	x29, x30, [sp], 64
	.cfi_restore 30
	.cfi_restore 29
	.cfi_def_cfa_offset 0
	ret
	.cfi_endproc
.LFE1607:
	.size	stbtt_GetCodepointBox, .-stbtt_GetCodepointBox
	.align	2
	.type	stbtt_IsGlyphEmpty, %function
stbtt_IsGlyphEmpty:
.LFB1608:
	.cfi_startproc
	stp	x29, x30, [sp, -48]!
	.cfi_def_cfa_offset 48
	.cfi_offset 29, -48
	.cfi_offset 30, -40
	mov	x29, sp
	str	x0, [sp, 24]
	str	w1, [sp, 20]
	ldr	x0, [sp, 24]
	ldr	w0, [x0, 76]
	cmp	w0, 0
	beq	.L430
	mov	x5, 0
	mov	x4, 0
	mov	x3, 0
	mov	x2, 0
	ldr	w1, [sp, 20]
	ldr	x0, [sp, 24]
	bl	_ZL21stbtt__GetGlyphInfoT2PK14stbtt_fontinfoiPiS2_S2_S2_
	cmp	w0, 0
	cset	w0, eq
	and	w0, w0, 255
	b	.L431
.L430:
	ldr	w1, [sp, 20]
	ldr	x0, [sp, 24]
	bl	_ZL20stbtt__GetGlyfOffsetPK14stbtt_fontinfoi
	str	w0, [sp, 44]
	ldr	w0, [sp, 44]
	cmp	w0, 0
	bge	.L432
	mov	w0, 1
	b	.L431
.L432:
	ldr	x0, [sp, 24]
	ldr	x1, [x0, 8]
	ldrsw	x0, [sp, 44]
	add	x0, x1, x0
	bl	_ZL7ttSHORTPh
	strh	w0, [sp, 42]
	ldrsh	w0, [sp, 42]
	cmp	w0, 0
	cset	w0, eq
	and	w0, w0, 255
.L431:
	ldp	x29, x30, [sp], 48
	.cfi_restore 30
	.cfi_restore 29
	.cfi_def_cfa_offset 0
	ret
	.cfi_endproc
.LFE1608:
	.size	stbtt_IsGlyphEmpty, .-stbtt_IsGlyphEmpty
	.align	2
	.type	_ZL18stbtt__close_shapeP12stbtt_vertexiiiiiiiii, %function
_ZL18stbtt__close_shapeP12stbtt_vertexiiiiiiiii:
.LFB1609:
	.cfi_startproc
	stp	x29, x30, [sp, -64]!
	.cfi_def_cfa_offset 64
	.cfi_offset 29, -64
	.cfi_offset 30, -56
	mov	x29, sp
	str	x0, [sp, 56]
	str	w1, [sp, 52]
	str	w2, [sp, 48]
	str	w3, [sp, 44]
	str	w4, [sp, 40]
	str	w5, [sp, 36]
	str	w6, [sp, 32]
	str	w7, [sp, 28]
	ldr	w0, [sp, 44]
	cmp	w0, 0
	beq	.L434
	ldr	w0, [sp, 48]
	cmp	w0, 0
	beq	.L435
	ldr	x2, [sp, 56]
	ldr	w0, [sp, 52]
	add	w1, w0, 1
	str	w1, [sp, 52]
	sxtw	x1, w0
	mov	x0, x1
	lsl	x0, x0, 3
	sub	x0, x0, x1
	lsl	x0, x0, 1
	add	x6, x2, x0
	ldr	w1, [sp, 64]
	ldr	w0, [sp, 32]
	add	w0, w1, w0
	asr	w2, w0, 1
	ldr	w1, [sp, 72]
	ldr	w0, [sp, 28]
	add	w0, w1, w0
	asr	w0, w0, 1
	ldr	w5, [sp, 72]
	ldr	w4, [sp, 64]
	mov	w3, w0
	mov	w1, 3
	mov	x0, x6
	bl	_ZL15stbtt_setvertexP12stbtt_vertexhiiii
.L435:
	ldr	x2, [sp, 56]
	ldr	w0, [sp, 52]
	add	w1, w0, 1
	str	w1, [sp, 52]
	sxtw	x1, w0
	mov	x0, x1
	lsl	x0, x0, 3
	sub	x0, x0, x1
	lsl	x0, x0, 1
	add	x0, x2, x0
	ldr	w5, [sp, 28]
	ldr	w4, [sp, 32]
	ldr	w3, [sp, 36]
	ldr	w2, [sp, 40]
	mov	w1, 3
	bl	_ZL15stbtt_setvertexP12stbtt_vertexhiiii
	b	.L436
.L434:
	ldr	w0, [sp, 48]
	cmp	w0, 0
	beq	.L437
	ldr	x2, [sp, 56]
	ldr	w0, [sp, 52]
	add	w1, w0, 1
	str	w1, [sp, 52]
	sxtw	x1, w0
	mov	x0, x1
	lsl	x0, x0, 3
	sub	x0, x0, x1
	lsl	x0, x0, 1
	add	x0, x2, x0
	ldr	w5, [sp, 72]
	ldr	w4, [sp, 64]
	ldr	w3, [sp, 36]
	ldr	w2, [sp, 40]
	mov	w1, 3
	bl	_ZL15stbtt_setvertexP12stbtt_vertexhiiii
	b	.L436
.L437:
	ldr	x2, [sp, 56]
	ldr	w0, [sp, 52]
	add	w1, w0, 1
	str	w1, [sp, 52]
	sxtw	x1, w0
	mov	x0, x1
	lsl	x0, x0, 3
	sub	x0, x0, x1
	lsl	x0, x0, 1
	add	x0, x2, x0
	mov	w5, 0
	mov	w4, 0
	ldr	w3, [sp, 36]
	ldr	w2, [sp, 40]
	mov	w1, 2
	bl	_ZL15stbtt_setvertexP12stbtt_vertexhiiii
.L436:
	ldr	w0, [sp, 52]
	ldp	x29, x30, [sp], 64
	.cfi_restore 30
	.cfi_restore 29
	.cfi_def_cfa_offset 0
	ret
	.cfi_endproc
.LFE1609:
	.size	_ZL18stbtt__close_shapeP12stbtt_vertexiiiiiiiii, .-_ZL18stbtt__close_shapeP12stbtt_vertexiiiiiiiii
	.section	.rodata
	.align	3
.LC49:
	.string	"int stbtt__GetGlyphShapeTT(const stbtt_fontinfo*, int, stbtt_vertex**)"
	.text
	.align	2
	.type	_ZL22stbtt__GetGlyphShapeTTPK14stbtt_fontinfoiPP12stbtt_vertex, %function
_ZL22stbtt__GetGlyphShapeTTPK14stbtt_fontinfoiPP12stbtt_vertex:
.LFB1610:
	.cfi_startproc
	sub	sp, sp, #272
	.cfi_def_cfa_offset 272
	stp	x29, x30, [sp, 16]
	.cfi_offset 29, -256
	.cfi_offset 30, -248
	add	x29, sp, 16
	str	x0, [sp, 56]
	str	w1, [sp, 52]
	str	x2, [sp, 40]
	adrp	x0, :got:__stack_chk_guard
	ldr	x0, [x0, #:got_lo12:__stack_chk_guard]
	ldr	x1, [x0]
	str	x1, [sp, 264]
	mov	x1, 0
	ldr	x0, [sp, 56]
	ldr	x0, [x0, 8]
	str	x0, [sp, 208]
	str	xzr, [sp, 184]
	str	wzr, [sp, 80]
	ldr	w1, [sp, 52]
	ldr	x0, [sp, 56]
	bl	_ZL20stbtt__GetGlyfOffsetPK14stbtt_fontinfoi
	str	w0, [sp, 144]
	ldr	x0, [sp, 40]
	str	xzr, [x0]
	ldr	w0, [sp, 144]
	cmp	w0, 0
	bge	.L440
	mov	w0, 0
	b	.L441
.L440:
	ldrsw	x0, [sp, 144]
	ldr	x1, [sp, 208]
	add	x0, x1, x0
	bl	_ZL7ttSHORTPh
	strh	w0, [sp, 66]
	ldrsh	w0, [sp, 66]
	cmp	w0, 0
	ble	.L442
	strb	wzr, [sp, 64]
	str	wzr, [sp, 88]
	str	wzr, [sp, 96]
	str	wzr, [sp, 100]
	ldrsw	x0, [sp, 144]
	add	x0, x0, 10
	ldr	x1, [sp, 208]
	add	x0, x1, x0
	str	x0, [sp, 232]
	ldrsw	x1, [sp, 144]
	ldrsh	w0, [sp, 66]
	lsl	w0, w0, 1
	sxtw	x0, w0
	add	x0, x1, x0
	add	x0, x0, 10
	ldr	x1, [sp, 208]
	add	x0, x1, x0
	bl	_ZL8ttUSHORTPh
	and	w0, w0, 65535
	str	w0, [sp, 160]
	ldrsw	x1, [sp, 144]
	ldrsh	w0, [sp, 66]
	lsl	w0, w0, 1
	sxtw	x0, w0
	add	x1, x1, x0
	ldrsw	x0, [sp, 160]
	add	x0, x1, x0
	add	x0, x0, 12
	ldr	x1, [sp, 208]
	add	x0, x1, x0
	str	x0, [sp, 192]
	ldrsh	w0, [sp, 66]
	lsl	w0, w0, 1
	sxtw	x0, w0
	sub	x0, x0, #2
	ldr	x1, [sp, 232]
	add	x0, x1, x0
	bl	_ZL8ttUSHORTPh
	and	w0, w0, 65535
	add	w0, w0, 1
	str	w0, [sp, 164]
	ldrsh	w0, [sp, 66]
	lsl	w0, w0, 1
	ldr	w1, [sp, 164]
	add	w0, w1, w0
	str	w0, [sp, 168]
	ldrsw	x1, [sp, 168]
	mov	x0, x1
	lsl	x0, x0, 3
	sub	x0, x0, x1
	lsl	x0, x0, 1
	bl	_ZN5ImGui8MemAllocEm
	str	x0, [sp, 184]
	ldr	x0, [sp, 184]
	cmp	x0, 0
	bne	.L443
	mov	w0, 0
	b	.L441
.L443:
	str	wzr, [sp, 92]
	strb	wzr, [sp, 65]
	ldr	w1, [sp, 168]
	ldr	w0, [sp, 164]
	sub	w0, w1, w0
	str	w0, [sp, 172]
	str	wzr, [sp, 84]
	b	.L444
.L447:
	ldrb	w0, [sp, 65]
	cmp	w0, 0
	bne	.L445
	ldr	x0, [sp, 192]
	add	x1, x0, 1
	str	x1, [sp, 192]
	ldrb	w0, [x0]
	strb	w0, [sp, 64]
	ldrb	w0, [sp, 64]
	and	w0, w0, 8
	cmp	w0, 0
	beq	.L446
	ldr	x0, [sp, 192]
	add	x1, x0, 1
	str	x1, [sp, 192]
	ldrb	w0, [x0]
	strb	w0, [sp, 65]
	b	.L446
.L445:
	ldrb	w0, [sp, 65]
	sub	w0, w0, #1
	strb	w0, [sp, 65]
.L446:
	ldr	w1, [sp, 172]
	ldr	w0, [sp, 84]
	add	w0, w1, w0
	sxtw	x1, w0
	mov	x0, x1
	lsl	x0, x0, 3
	sub	x0, x0, x1
	lsl	x0, x0, 1
	mov	x1, x0
	ldr	x0, [sp, 184]
	add	x0, x0, x1
	ldrb	w1, [sp, 64]
	strb	w1, [x0, 12]
	ldr	w0, [sp, 84]
	add	w0, w0, 1
	str	w0, [sp, 84]
.L444:
	ldr	w1, [sp, 84]
	ldr	w0, [sp, 164]
	cmp	w1, w0
	blt	.L447
	str	wzr, [sp, 104]
	str	wzr, [sp, 84]
	b	.L448
.L453:
	ldr	w1, [sp, 172]
	ldr	w0, [sp, 84]
	add	w0, w1, w0
	sxtw	x1, w0
	mov	x0, x1
	lsl	x0, x0, 3
	sub	x0, x0, x1
	lsl	x0, x0, 1
	mov	x1, x0
	ldr	x0, [sp, 184]
	add	x0, x0, x1
	ldrb	w0, [x0, 12]
	strb	w0, [sp, 64]
	ldrb	w0, [sp, 64]
	and	w0, w0, 2
	cmp	w0, 0
	beq	.L449
	ldr	x0, [sp, 192]
	add	x1, x0, 1
	str	x1, [sp, 192]
	ldrb	w0, [x0]
	strh	w0, [sp, 78]
	ldrb	w0, [sp, 64]
	and	w0, w0, 16
	cmp	w0, 0
	beq	.L450
	ldrsh	w0, [sp, 78]
	b	.L451
.L450:
	ldrsh	w0, [sp, 78]
	neg	w0, w0
.L451:
	ldr	w1, [sp, 104]
	add	w0, w1, w0
	str	w0, [sp, 104]
	b	.L452
.L449:
	ldrb	w0, [sp, 64]
	and	w0, w0, 16
	cmp	w0, 0
	bne	.L452
	ldr	x0, [sp, 192]
	ldrb	w0, [x0]
	and	w0, w0, 65535
	ubfiz	w0, w0, 8, 8
	and	w1, w0, 65535
	ldr	x0, [sp, 192]
	add	x0, x0, 1
	ldrb	w0, [x0]
	and	w0, w0, 65535
	add	w0, w1, w0
	and	w0, w0, 65535
	sxth	w0, w0
	mov	w1, w0
	ldr	w0, [sp, 104]
	add	w0, w0, w1
	str	w0, [sp, 104]
	ldr	x0, [sp, 192]
	add	x0, x0, 2
	str	x0, [sp, 192]
.L452:
	ldr	w1, [sp, 172]
	ldr	w0, [sp, 84]
	add	w0, w1, w0
	sxtw	x1, w0
	mov	x0, x1
	lsl	x0, x0, 3
	sub	x0, x0, x1
	lsl	x0, x0, 1
	mov	x1, x0
	ldr	x0, [sp, 184]
	add	x0, x0, x1
	ldr	w1, [sp, 104]
	sxth	w1, w1
	strh	w1, [x0]
	ldr	w0, [sp, 84]
	add	w0, w0, 1
	str	w0, [sp, 84]
.L448:
	ldr	w1, [sp, 84]
	ldr	w0, [sp, 164]
	cmp	w1, w0
	blt	.L453
	str	wzr, [sp, 108]
	str	wzr, [sp, 84]
	b	.L454
.L459:
	ldr	w1, [sp, 172]
	ldr	w0, [sp, 84]
	add	w0, w1, w0
	sxtw	x1, w0
	mov	x0, x1
	lsl	x0, x0, 3
	sub	x0, x0, x1
	lsl	x0, x0, 1
	mov	x1, x0
	ldr	x0, [sp, 184]
	add	x0, x0, x1
	ldrb	w0, [x0, 12]
	strb	w0, [sp, 64]
	ldrb	w0, [sp, 64]
	and	w0, w0, 4
	cmp	w0, 0
	beq	.L455
	ldr	x0, [sp, 192]
	add	x1, x0, 1
	str	x1, [sp, 192]
	ldrb	w0, [x0]
	strh	w0, [sp, 76]
	ldrb	w0, [sp, 64]
	and	w0, w0, 32
	cmp	w0, 0
	beq	.L456
	ldrsh	w0, [sp, 76]
	b	.L457
.L456:
	ldrsh	w0, [sp, 76]
	neg	w0, w0
.L457:
	ldr	w1, [sp, 108]
	add	w0, w1, w0
	str	w0, [sp, 108]
	b	.L458
.L455:
	ldrb	w0, [sp, 64]
	and	w0, w0, 32
	cmp	w0, 0
	bne	.L458
	ldr	x0, [sp, 192]
	ldrb	w0, [x0]
	and	w0, w0, 65535
	ubfiz	w0, w0, 8, 8
	and	w1, w0, 65535
	ldr	x0, [sp, 192]
	add	x0, x0, 1
	ldrb	w0, [x0]
	and	w0, w0, 65535
	add	w0, w1, w0
	and	w0, w0, 65535
	sxth	w0, w0
	mov	w1, w0
	ldr	w0, [sp, 108]
	add	w0, w0, w1
	str	w0, [sp, 108]
	ldr	x0, [sp, 192]
	add	x0, x0, 2
	str	x0, [sp, 192]
.L458:
	ldr	w1, [sp, 172]
	ldr	w0, [sp, 84]
	add	w0, w1, w0
	sxtw	x1, w0
	mov	x0, x1
	lsl	x0, x0, 3
	sub	x0, x0, x1
	lsl	x0, x0, 1
	mov	x1, x0
	ldr	x0, [sp, 184]
	add	x0, x0, x1
	ldr	w1, [sp, 108]
	sxth	w1, w1
	strh	w1, [x0, 2]
	ldr	w0, [sp, 84]
	add	w0, w0, 1
	str	w0, [sp, 84]
.L454:
	ldr	w1, [sp, 84]
	ldr	w0, [sp, 164]
	cmp	w1, w0
	blt	.L459
	str	wzr, [sp, 80]
	str	wzr, [sp, 132]
	ldr	w0, [sp, 132]
	str	w0, [sp, 128]
	ldr	w0, [sp, 128]
	str	w0, [sp, 116]
	ldr	w0, [sp, 116]
	str	w0, [sp, 112]
	ldr	w0, [sp, 112]
	str	w0, [sp, 124]
	ldr	w0, [sp, 124]
	str	w0, [sp, 120]
	str	wzr, [sp, 84]
	b	.L460
.L471:
	ldr	w1, [sp, 172]
	ldr	w0, [sp, 84]
	add	w0, w1, w0
	sxtw	x1, w0
	mov	x0, x1
	lsl	x0, x0, 3
	sub	x0, x0, x1
	lsl	x0, x0, 1
	mov	x1, x0
	ldr	x0, [sp, 184]
	add	x0, x0, x1
	ldrb	w0, [x0, 12]
	strb	w0, [sp, 64]
	ldr	w1, [sp, 172]
	ldr	w0, [sp, 84]
	add	w0, w1, w0
	sxtw	x1, w0
	mov	x0, x1
	lsl	x0, x0, 3
	sub	x0, x0, x1
	lsl	x0, x0, 1
	mov	x1, x0
	ldr	x0, [sp, 184]
	add	x0, x0, x1
	ldrsh	w0, [x0]
	str	w0, [sp, 104]
	ldr	w1, [sp, 172]
	ldr	w0, [sp, 84]
	add	w0, w1, w0
	sxtw	x1, w0
	mov	x0, x1
	lsl	x0, x0, 3
	sub	x0, x0, x1
	lsl	x0, x0, 1
	mov	x1, x0
	ldr	x0, [sp, 184]
	add	x0, x0, x1
	ldrsh	w0, [x0, 2]
	str	w0, [sp, 108]
	ldr	w1, [sp, 92]
	ldr	w0, [sp, 84]
	cmp	w1, w0
	bne	.L461
	ldr	w0, [sp, 84]
	cmp	w0, 0
	beq	.L462
	ldr	w0, [sp, 116]
	str	w0, [sp, 8]
	ldr	w0, [sp, 112]
	str	w0, [sp]
	ldr	w7, [sp, 132]
	ldr	w6, [sp, 128]
	ldr	w5, [sp, 124]
	ldr	w4, [sp, 120]
	ldr	w3, [sp, 100]
	ldr	w2, [sp, 96]
	ldr	w1, [sp, 80]
	ldr	x0, [sp, 184]
	bl	_ZL18stbtt__close_shapeP12stbtt_vertexiiiiiiiii
	str	w0, [sp, 80]
.L462:
	ldrb	w0, [sp, 64]
	and	w0, w0, 1
	cmp	w0, 0
	cset	w0, eq
	and	w0, w0, 255
	str	w0, [sp, 100]
	ldr	w0, [sp, 100]
	cmp	w0, 0
	beq	.L463
	ldr	w0, [sp, 104]
	str	w0, [sp, 128]
	ldr	w0, [sp, 108]
	str	w0, [sp, 132]
	ldr	w1, [sp, 172]
	ldr	w0, [sp, 84]
	add	w0, w1, w0
	sxtw	x0, w0
	add	x1, x0, 1
	mov	x0, x1
	lsl	x0, x0, 3
	sub	x0, x0, x1
	lsl	x0, x0, 1
	mov	x1, x0
	ldr	x0, [sp, 184]
	add	x0, x0, x1
	ldrb	w0, [x0, 12]
	and	w0, w0, 1
	cmp	w0, 0
	bne	.L464
	ldr	w1, [sp, 172]
	ldr	w0, [sp, 84]
	add	w0, w1, w0
	sxtw	x0, w0
	add	x1, x0, 1
	mov	x0, x1
	lsl	x0, x0, 3
	sub	x0, x0, x1
	lsl	x0, x0, 1
	mov	x1, x0
	ldr	x0, [sp, 184]
	add	x0, x0, x1
	ldrsh	w0, [x0]
	mov	w1, w0
	ldr	w0, [sp, 104]
	add	w0, w1, w0
	asr	w0, w0, 1
	str	w0, [sp, 120]
	ldr	w1, [sp, 172]
	ldr	w0, [sp, 84]
	add	w0, w1, w0
	sxtw	x0, w0
	add	x1, x0, 1
	mov	x0, x1
	lsl	x0, x0, 3
	sub	x0, x0, x1
	lsl	x0, x0, 1
	mov	x1, x0
	ldr	x0, [sp, 184]
	add	x0, x0, x1
	ldrsh	w0, [x0, 2]
	mov	w1, w0
	ldr	w0, [sp, 108]
	add	w0, w1, w0
	asr	w0, w0, 1
	str	w0, [sp, 124]
	b	.L465
.L464:
	ldr	w1, [sp, 172]
	ldr	w0, [sp, 84]
	add	w0, w1, w0
	sxtw	x0, w0
	add	x1, x0, 1
	mov	x0, x1
	lsl	x0, x0, 3
	sub	x0, x0, x1
	lsl	x0, x0, 1
	mov	x1, x0
	ldr	x0, [sp, 184]
	add	x0, x0, x1
	ldrsh	w0, [x0]
	str	w0, [sp, 120]
	ldr	w1, [sp, 172]
	ldr	w0, [sp, 84]
	add	w0, w1, w0
	sxtw	x0, w0
	add	x1, x0, 1
	mov	x0, x1
	lsl	x0, x0, 3
	sub	x0, x0, x1
	lsl	x0, x0, 1
	mov	x1, x0
	ldr	x0, [sp, 184]
	add	x0, x0, x1
	ldrsh	w0, [x0, 2]
	str	w0, [sp, 124]
	ldr	w0, [sp, 84]
	add	w0, w0, 1
	str	w0, [sp, 84]
	b	.L465
.L463:
	ldr	w0, [sp, 104]
	str	w0, [sp, 120]
	ldr	w0, [sp, 108]
	str	w0, [sp, 124]
.L465:
	ldr	x2, [sp, 184]
	ldr	w0, [sp, 80]
	add	w1, w0, 1
	str	w1, [sp, 80]
	sxtw	x1, w0
	mov	x0, x1
	lsl	x0, x0, 3
	sub	x0, x0, x1
	lsl	x0, x0, 1
	add	x0, x2, x0
	mov	w5, 0
	mov	w4, 0
	ldr	w3, [sp, 124]
	ldr	w2, [sp, 120]
	mov	w1, 1
	bl	_ZL15stbtt_setvertexP12stbtt_vertexhiiii
	str	wzr, [sp, 96]
	ldr	w0, [sp, 88]
	lsl	w0, w0, 1
	sxtw	x0, w0
	ldr	x1, [sp, 232]
	add	x0, x1, x0
	bl	_ZL8ttUSHORTPh
	and	w0, w0, 65535
	add	w0, w0, 1
	str	w0, [sp, 92]
	ldr	w0, [sp, 88]
	add	w0, w0, 1
	str	w0, [sp, 88]
	b	.L466
.L461:
	ldrb	w0, [sp, 64]
	and	w0, w0, 1
	cmp	w0, 0
	bne	.L467
	ldr	w0, [sp, 96]
	cmp	w0, 0
	beq	.L468
	ldr	x2, [sp, 184]
	ldr	w0, [sp, 80]
	add	w1, w0, 1
	str	w1, [sp, 80]
	sxtw	x1, w0
	mov	x0, x1
	lsl	x0, x0, 3
	sub	x0, x0, x1
	lsl	x0, x0, 1
	add	x6, x2, x0
	ldr	w1, [sp, 112]
	ldr	w0, [sp, 104]
	add	w0, w1, w0
	asr	w2, w0, 1
	ldr	w1, [sp, 116]
	ldr	w0, [sp, 108]
	add	w0, w1, w0
	asr	w0, w0, 1
	ldr	w5, [sp, 116]
	ldr	w4, [sp, 112]
	mov	w3, w0
	mov	w1, 3
	mov	x0, x6
	bl	_ZL15stbtt_setvertexP12stbtt_vertexhiiii
.L468:
	ldr	w0, [sp, 104]
	str	w0, [sp, 112]
	ldr	w0, [sp, 108]
	str	w0, [sp, 116]
	mov	w0, 1
	str	w0, [sp, 96]
	b	.L466
.L467:
	ldr	w0, [sp, 96]
	cmp	w0, 0
	beq	.L469
	ldr	x2, [sp, 184]
	ldr	w0, [sp, 80]
	add	w1, w0, 1
	str	w1, [sp, 80]
	sxtw	x1, w0
	mov	x0, x1
	lsl	x0, x0, 3
	sub	x0, x0, x1
	lsl	x0, x0, 1
	add	x0, x2, x0
	ldr	w5, [sp, 116]
	ldr	w4, [sp, 112]
	ldr	w3, [sp, 108]
	ldr	w2, [sp, 104]
	mov	w1, 3
	bl	_ZL15stbtt_setvertexP12stbtt_vertexhiiii
	b	.L470
.L469:
	ldr	x2, [sp, 184]
	ldr	w0, [sp, 80]
	add	w1, w0, 1
	str	w1, [sp, 80]
	sxtw	x1, w0
	mov	x0, x1
	lsl	x0, x0, 3
	sub	x0, x0, x1
	lsl	x0, x0, 1
	add	x0, x2, x0
	mov	w5, 0
	mov	w4, 0
	ldr	w3, [sp, 108]
	ldr	w2, [sp, 104]
	mov	w1, 2
	bl	_ZL15stbtt_setvertexP12stbtt_vertexhiiii
.L470:
	str	wzr, [sp, 96]
.L466:
	ldr	w0, [sp, 84]
	add	w0, w0, 1
	str	w0, [sp, 84]
.L460:
	ldr	w1, [sp, 84]
	ldr	w0, [sp, 164]
	cmp	w1, w0
	blt	.L471
	ldr	w0, [sp, 116]
	str	w0, [sp, 8]
	ldr	w0, [sp, 112]
	str	w0, [sp]
	ldr	w7, [sp, 132]
	ldr	w6, [sp, 128]
	ldr	w5, [sp, 124]
	ldr	w4, [sp, 120]
	ldr	w3, [sp, 100]
	ldr	w2, [sp, 96]
	ldr	w1, [sp, 80]
	ldr	x0, [sp, 184]
	bl	_ZL18stbtt__close_shapeP12stbtt_vertexiiiiiiiii
	str	w0, [sp, 80]
	b	.L472
.L442:
	ldrsh	w0, [sp, 66]
	cmp	w0, 0
	bge	.L472
	mov	w0, 1
	str	w0, [sp, 136]
	ldrsw	x0, [sp, 144]
	add	x0, x0, 10
	ldr	x1, [sp, 208]
	add	x0, x1, x0
	str	x0, [sp, 200]
	str	wzr, [sp, 80]
	str	xzr, [sp, 184]
	b	.L473
.L488:
	str	wzr, [sp, 148]
	str	xzr, [sp, 176]
	str	xzr, [sp, 216]
	adrp	x0, .LC0
	add	x0, x0, :lo12:.LC0
	add	x2, sp, 240
	mov	x3, x0
	ldp	x0, x1, [x3]
	stp	x0, x1, [x2]
	ldr	x0, [x3, 16]
	str	x0, [x2, 16]
	ldr	x0, [sp, 200]
	bl	_ZL7ttSHORTPh
	sxth	w0, w0
	strh	w0, [sp, 68]
	ldr	x0, [sp, 200]
	add	x0, x0, 2
	str	x0, [sp, 200]
	ldr	x0, [sp, 200]
	bl	_ZL7ttSHORTPh
	sxth	w0, w0
	strh	w0, [sp, 70]
	ldr	x0, [sp, 200]
	add	x0, x0, 2
	str	x0, [sp, 200]
	ldrh	w0, [sp, 68]
	and	w0, w0, 2
	cmp	w0, 0
	beq	.L474
	ldrh	w0, [sp, 68]
	and	w0, w0, 1
	cmp	w0, 0
	beq	.L475
	ldr	x0, [sp, 200]
	bl	_ZL7ttSHORTPh
	sxth	w0, w0
	scvtf	s0, w0
	str	s0, [sp, 256]
	ldr	x0, [sp, 200]
	add	x0, x0, 2
	str	x0, [sp, 200]
	ldr	x0, [sp, 200]
	bl	_ZL7ttSHORTPh
	sxth	w0, w0
	scvtf	s0, w0
	str	s0, [sp, 260]
	ldr	x0, [sp, 200]
	add	x0, x0, 2
	str	x0, [sp, 200]
	b	.L476
.L475:
	ldr	x0, [sp, 200]
	ldrsb	w0, [x0]
	scvtf	s0, w0
	str	s0, [sp, 256]
	ldr	x0, [sp, 200]
	add	x0, x0, 1
	str	x0, [sp, 200]
	ldr	x0, [sp, 200]
	ldrsb	w0, [x0]
	scvtf	s0, w0
	str	s0, [sp, 260]
	ldr	x0, [sp, 200]
	add	x0, x0, 1
	str	x0, [sp, 200]
	b	.L476
.L474:
	adrp	x0, .LC49
	add	x3, x0, :lo12:.LC49
	mov	w2, 1843
	adrp	x0, .LC22
	add	x1, x0, :lo12:.LC22
	adrp	x0, .LC12
	add	x0, x0, :lo12:.LC12
	bl	__assert_fail
.L476:
	ldrh	w0, [sp, 68]
	and	w0, w0, 8
	cmp	w0, 0
	beq	.L477
	ldr	x0, [sp, 200]
	bl	_ZL7ttSHORTPh
	sxth	w0, w0
	scvtf	s0, w0
	mov	w0, 1182793728
	fmov	s1, w0
	fdiv	s0, s0, s1
	str	s0, [sp, 252]
	ldr	s0, [sp, 252]
	str	s0, [sp, 240]
	ldr	x0, [sp, 200]
	add	x0, x0, 2
	str	x0, [sp, 200]
	str	wzr, [sp, 248]
	ldr	s0, [sp, 248]
	str	s0, [sp, 244]
	b	.L478
.L477:
	ldrh	w0, [sp, 68]
	and	w0, w0, 64
	cmp	w0, 0
	beq	.L479
	ldr	x0, [sp, 200]
	bl	_ZL7ttSHORTPh
	sxth	w0, w0
	scvtf	s0, w0
	mov	w0, 1182793728
	fmov	s1, w0
	fdiv	s0, s0, s1
	str	s0, [sp, 240]
	ldr	x0, [sp, 200]
	add	x0, x0, 2
	str	x0, [sp, 200]
	str	wzr, [sp, 248]
	ldr	s0, [sp, 248]
	str	s0, [sp, 244]
	ldr	x0, [sp, 200]
	bl	_ZL7ttSHORTPh
	sxth	w0, w0
	scvtf	s0, w0
	mov	w0, 1182793728
	fmov	s1, w0
	fdiv	s0, s0, s1
	str	s0, [sp, 252]
	ldr	x0, [sp, 200]
	add	x0, x0, 2
	str	x0, [sp, 200]
	b	.L478
.L479:
	ldrh	w0, [sp, 68]
	and	w0, w0, 128
	cmp	w0, 0
	beq	.L478
	ldr	x0, [sp, 200]
	bl	_ZL7ttSHORTPh
	sxth	w0, w0
	scvtf	s0, w0
	mov	w0, 1182793728
	fmov	s1, w0
	fdiv	s0, s0, s1
	str	s0, [sp, 240]
	ldr	x0, [sp, 200]
	add	x0, x0, 2
	str	x0, [sp, 200]
	ldr	x0, [sp, 200]
	bl	_ZL7ttSHORTPh
	sxth	w0, w0
	scvtf	s0, w0
	mov	w0, 1182793728
	fmov	s1, w0
	fdiv	s0, s0, s1
	str	s0, [sp, 244]
	ldr	x0, [sp, 200]
	add	x0, x0, 2
	str	x0, [sp, 200]
	ldr	x0, [sp, 200]
	bl	_ZL7ttSHORTPh
	sxth	w0, w0
	scvtf	s0, w0
	mov	w0, 1182793728
	fmov	s1, w0
	fdiv	s0, s0, s1
	str	s0, [sp, 248]
	ldr	x0, [sp, 200]
	add	x0, x0, 2
	str	x0, [sp, 200]
	ldr	x0, [sp, 200]
	bl	_ZL7ttSHORTPh
	sxth	w0, w0
	scvtf	s0, w0
	mov	w0, 1182793728
	fmov	s1, w0
	fdiv	s0, s0, s1
	str	s0, [sp, 252]
	ldr	x0, [sp, 200]
	add	x0, x0, 2
	str	x0, [sp, 200]
.L478:
	ldr	s1, [sp, 240]
	ldr	s0, [sp, 240]
	fmul	s1, s1, s0
	ldr	s2, [sp, 244]
	ldr	s0, [sp, 244]
	fmul	s0, s2, s0
	fadd	s0, s1, s0
	bl	sqrtf
	str	s0, [sp, 152]
	ldr	s1, [sp, 248]
	ldr	s0, [sp, 248]
	fmul	s1, s1, s0
	ldr	s2, [sp, 252]
	ldr	s0, [sp, 252]
	fmul	s0, s2, s0
	fadd	s0, s1, s0
	bl	sqrtf
	str	s0, [sp, 156]
	ldrh	w0, [sp, 70]
	add	x1, sp, 176
	mov	x2, x1
	mov	w1, w0
	ldr	x0, [sp, 56]
	bl	stbtt_GetGlyphShape
	str	w0, [sp, 148]
	ldr	w0, [sp, 148]
	cmp	w0, 0
	ble	.L480
	str	wzr, [sp, 140]
	b	.L481
.L482:
	ldr	x2, [sp, 176]
	ldrsw	x1, [sp, 140]
	mov	x0, x1
	lsl	x0, x0, 3
	sub	x0, x0, x1
	lsl	x0, x0, 1
	add	x0, x2, x0
	str	x0, [sp, 224]
	ldr	x0, [sp, 224]
	ldrh	w0, [x0]
	strh	w0, [sp, 72]
	ldr	x0, [sp, 224]
	ldrh	w0, [x0, 2]
	strh	w0, [sp, 74]
	ldr	s1, [sp, 240]
	ldrsh	w0, [sp, 72]
	scvtf	s0, w0
	fmul	s1, s1, s0
	ldr	s2, [sp, 248]
	ldrsh	w0, [sp, 74]
	scvtf	s0, w0
	fmul	s0, s2, s0
	fadd	s1, s1, s0
	ldr	s0, [sp, 256]
	fadd	s1, s1, s0
	ldr	s0, [sp, 152]
	fmul	s0, s1, s0
	fcvtzs	s0, s0
	umov	w0, v0.h[0]
	sxth	w1, w0
	ldr	x0, [sp, 224]
	strh	w1, [x0]
	ldr	s1, [sp, 244]
	ldrsh	w0, [sp, 72]
	scvtf	s0, w0
	fmul	s1, s1, s0
	ldr	s2, [sp, 252]
	ldrsh	w0, [sp, 74]
	scvtf	s0, w0
	fmul	s0, s2, s0
	fadd	s1, s1, s0
	ldr	s0, [sp, 260]
	fadd	s1, s1, s0
	ldr	s0, [sp, 156]
	fmul	s0, s1, s0
	fcvtzs	s0, s0
	umov	w0, v0.h[0]
	sxth	w1, w0
	ldr	x0, [sp, 224]
	strh	w1, [x0, 2]
	ldr	x0, [sp, 224]
	ldrh	w0, [x0, 4]
	strh	w0, [sp, 72]
	ldr	x0, [sp, 224]
	ldrh	w0, [x0, 6]
	strh	w0, [sp, 74]
	ldr	s1, [sp, 240]
	ldrsh	w0, [sp, 72]
	scvtf	s0, w0
	fmul	s1, s1, s0
	ldr	s2, [sp, 248]
	ldrsh	w0, [sp, 74]
	scvtf	s0, w0
	fmul	s0, s2, s0
	fadd	s1, s1, s0
	ldr	s0, [sp, 256]
	fadd	s1, s1, s0
	ldr	s0, [sp, 152]
	fmul	s0, s1, s0
	fcvtzs	s0, s0
	umov	w0, v0.h[0]
	sxth	w1, w0
	ldr	x0, [sp, 224]
	strh	w1, [x0, 4]
	ldr	s1, [sp, 244]
	ldrsh	w0, [sp, 72]
	scvtf	s0, w0
	fmul	s1, s1, s0
	ldr	s2, [sp, 252]
	ldrsh	w0, [sp, 74]
	scvtf	s0, w0
	fmul	s0, s2, s0
	fadd	s1, s1, s0
	ldr	s0, [sp, 260]
	fadd	s1, s1, s0
	ldr	s0, [sp, 156]
	fmul	s0, s1, s0
	fcvtzs	s0, s0
	umov	w0, v0.h[0]
	sxth	w1, w0
	ldr	x0, [sp, 224]
	strh	w1, [x0, 6]
	ldr	w0, [sp, 140]
	add	w0, w0, 1
	str	w0, [sp, 140]
.L481:
	ldr	w1, [sp, 140]
	ldr	w0, [sp, 148]
	cmp	w1, w0
	blt	.L482
	ldr	w1, [sp, 80]
	ldr	w0, [sp, 148]
	add	w0, w1, w0
	sxtw	x1, w0
	mov	x0, x1
	lsl	x0, x0, 3
	sub	x0, x0, x1
	lsl	x0, x0, 1
	bl	_ZN5ImGui8MemAllocEm
	str	x0, [sp, 216]
	ldr	x0, [sp, 216]
	cmp	x0, 0
	bne	.L483
	ldr	x0, [sp, 184]
	cmp	x0, 0
	beq	.L484
	ldr	x0, [sp, 184]
	bl	_ZN5ImGui7MemFreeEPv
.L484:
	ldr	x0, [sp, 176]
	cmp	x0, 0
	beq	.L485
	ldr	x0, [sp, 176]
	bl	_ZN5ImGui7MemFreeEPv
.L485:
	mov	w0, 0
	b	.L441
.L483:
	ldr	w0, [sp, 80]
	cmp	w0, 0
	ble	.L486
	ldr	x0, [sp, 184]
	cmp	x0, 0
	beq	.L486
	ldrsw	x1, [sp, 80]
	mov	x0, x1
	lsl	x0, x0, 3
	sub	x0, x0, x1
	lsl	x0, x0, 1
	mov	x2, x0
	ldr	x1, [sp, 184]
	ldr	x0, [sp, 216]
	bl	memcpy
.L486:
	ldrsw	x1, [sp, 80]
	mov	x0, x1
	lsl	x0, x0, 3
	sub	x0, x0, x1
	lsl	x0, x0, 1
	mov	x1, x0
	ldr	x0, [sp, 216]
	add	x3, x0, x1
	ldr	x4, [sp, 176]
	ldrsw	x1, [sp, 148]
	mov	x0, x1
	lsl	x0, x0, 3
	sub	x0, x0, x1
	lsl	x0, x0, 1
	mov	x2, x0
	mov	x1, x4
	mov	x0, x3
	bl	memcpy
	ldr	x0, [sp, 184]
	cmp	x0, 0
	beq	.L487
	ldr	x0, [sp, 184]
	bl	_ZN5ImGui7MemFreeEPv
.L487:
	ldr	x0, [sp, 216]
	str	x0, [sp, 184]
	ldr	x0, [sp, 176]
	bl	_ZN5ImGui7MemFreeEPv
	ldr	w1, [sp, 80]
	ldr	w0, [sp, 148]
	add	w0, w1, w0
	str	w0, [sp, 80]
.L480:
	ldrh	w0, [sp, 68]
	and	w0, w0, 32
	str	w0, [sp, 136]
.L473:
	ldr	w0, [sp, 136]
	cmp	w0, 0
	bne	.L488
.L472:
	ldr	x0, [sp, 40]
	ldr	x1, [sp, 184]
	str	x1, [x0]
	ldr	w0, [sp, 80]
.L441:
	mov	w1, w0
	adrp	x0, :got:__stack_chk_guard
	ldr	x0, [x0, #:got_lo12:__stack_chk_guard]
	ldr	x3, [sp, 264]
	ldr	x2, [x0]
	subs	x3, x3, x2
	mov	x2, 0
	beq	.L489
	bl	__stack_chk_fail
.L489:
	mov	w0, w1
	ldp	x29, x30, [sp, 16]
	add	sp, sp, 272
	.cfi_restore 29
	.cfi_restore 30
	.cfi_def_cfa_offset 0
	ret
	.cfi_endproc
.LFE1610:
	.size	_ZL22stbtt__GetGlyphShapeTTPK14stbtt_fontinfoiPP12stbtt_vertex, .-_ZL22stbtt__GetGlyphShapeTTPK14stbtt_fontinfoiPP12stbtt_vertex
	.section	.rodata
	.align	3
.LC0:
	.word	1065353216
	.word	0
	.word	0
	.word	1065353216
	.word	0
	.word	0
	.text
	.align	2
	.type	_ZL19stbtt__track_vertexP12stbtt__csctxii, %function
_ZL19stbtt__track_vertexP12stbtt__csctxii:
.LFB1611:
	.cfi_startproc
	sub	sp, sp, #16
	.cfi_def_cfa_offset 16
	str	x0, [sp, 8]
	str	w1, [sp, 4]
	str	w2, [sp]
	ldr	x0, [sp, 8]
	ldr	w0, [x0, 28]
	ldr	w1, [sp, 4]
	cmp	w1, w0
	bgt	.L491
	ldr	x0, [sp, 8]
	ldr	w0, [x0, 4]
	cmp	w0, 0
	bne	.L492
.L491:
	ldr	x0, [sp, 8]
	ldr	w1, [sp, 4]
	str	w1, [x0, 28]
.L492:
	ldr	x0, [sp, 8]
	ldr	w0, [x0, 36]
	ldr	w1, [sp]
	cmp	w1, w0
	bgt	.L493
	ldr	x0, [sp, 8]
	ldr	w0, [x0, 4]
	cmp	w0, 0
	bne	.L494
.L493:
	ldr	x0, [sp, 8]
	ldr	w1, [sp]
	str	w1, [x0, 36]
.L494:
	ldr	x0, [sp, 8]
	ldr	w0, [x0, 24]
	ldr	w1, [sp, 4]
	cmp	w1, w0
	blt	.L495
	ldr	x0, [sp, 8]
	ldr	w0, [x0, 4]
	cmp	w0, 0
	bne	.L496
.L495:
	ldr	x0, [sp, 8]
	ldr	w1, [sp, 4]
	str	w1, [x0, 24]
.L496:
	ldr	x0, [sp, 8]
	ldr	w0, [x0, 32]
	ldr	w1, [sp]
	cmp	w1, w0
	blt	.L497
	ldr	x0, [sp, 8]
	ldr	w0, [x0, 4]
	cmp	w0, 0
	bne	.L498
.L497:
	ldr	x0, [sp, 8]
	ldr	w1, [sp]
	str	w1, [x0, 32]
.L498:
	ldr	x0, [sp, 8]
	mov	w1, 1
	str	w1, [x0, 4]
	nop
	add	sp, sp, 16
	.cfi_def_cfa_offset 0
	ret
	.cfi_endproc
.LFE1611:
	.size	_ZL19stbtt__track_vertexP12stbtt__csctxii, .-_ZL19stbtt__track_vertexP12stbtt__csctxii
	.align	2
	.type	_ZL14stbtt__csctx_vP12stbtt__csctxhiiiiii, %function
_ZL14stbtt__csctx_vP12stbtt__csctxhiiiiii:
.LFB1612:
	.cfi_startproc
	stp	x29, x30, [sp, -64]!
	.cfi_def_cfa_offset 64
	.cfi_offset 29, -64
	.cfi_offset 30, -56
	mov	x29, sp
	str	x0, [sp, 56]
	strb	w1, [sp, 55]
	str	w2, [sp, 48]
	str	w3, [sp, 44]
	str	w4, [sp, 40]
	str	w5, [sp, 36]
	str	w6, [sp, 32]
	str	w7, [sp, 28]
	ldr	x0, [sp, 56]
	ldr	w0, [x0]
	cmp	w0, 0
	beq	.L500
	ldr	w2, [sp, 44]
	ldr	w1, [sp, 48]
	ldr	x0, [sp, 56]
	bl	_ZL19stbtt__track_vertexP12stbtt__csctxii
	ldrb	w0, [sp, 55]
	cmp	w0, 4
	bne	.L501
	ldr	w2, [sp, 36]
	ldr	w1, [sp, 40]
	ldr	x0, [sp, 56]
	bl	_ZL19stbtt__track_vertexP12stbtt__csctxii
	ldr	w2, [sp, 28]
	ldr	w1, [sp, 32]
	ldr	x0, [sp, 56]
	bl	_ZL19stbtt__track_vertexP12stbtt__csctxii
	b	.L501
.L500:
	ldr	x0, [sp, 56]
	ldr	x2, [x0, 40]
	ldr	x0, [sp, 56]
	ldr	w0, [x0, 48]
	sxtw	x1, w0
	mov	x0, x1
	lsl	x0, x0, 3
	sub	x0, x0, x1
	lsl	x0, x0, 1
	add	x0, x2, x0
	ldr	w5, [sp, 36]
	ldr	w4, [sp, 40]
	ldr	w3, [sp, 44]
	ldr	w2, [sp, 48]
	ldrb	w1, [sp, 55]
	bl	_ZL15stbtt_setvertexP12stbtt_vertexhiiii
	ldr	x0, [sp, 56]
	ldr	x2, [x0, 40]
	ldr	x0, [sp, 56]
	ldr	w0, [x0, 48]
	sxtw	x1, w0
	mov	x0, x1
	lsl	x0, x0, 3
	sub	x0, x0, x1
	lsl	x0, x0, 1
	add	x0, x2, x0
	ldr	w1, [sp, 32]
	sxth	w1, w1
	strh	w1, [x0, 8]
	ldr	x0, [sp, 56]
	ldr	x2, [x0, 40]
	ldr	x0, [sp, 56]
	ldr	w0, [x0, 48]
	sxtw	x1, w0
	mov	x0, x1
	lsl	x0, x0, 3
	sub	x0, x0, x1
	lsl	x0, x0, 1
	add	x0, x2, x0
	ldr	w1, [sp, 28]
	sxth	w1, w1
	strh	w1, [x0, 10]
.L501:
	ldr	x0, [sp, 56]
	ldr	w0, [x0, 48]
	add	w1, w0, 1
	ldr	x0, [sp, 56]
	str	w1, [x0, 48]
	nop
	ldp	x29, x30, [sp], 64
	.cfi_restore 30
	.cfi_restore 29
	.cfi_def_cfa_offset 0
	ret
	.cfi_endproc
.LFE1612:
	.size	_ZL14stbtt__csctx_vP12stbtt__csctxhiiiiii, .-_ZL14stbtt__csctx_vP12stbtt__csctxhiiiiii
	.align	2
	.type	_ZL24stbtt__csctx_close_shapeP12stbtt__csctx, %function
_ZL24stbtt__csctx_close_shapeP12stbtt__csctx:
.LFB1613:
	.cfi_startproc
	stp	x29, x30, [sp, -32]!
	.cfi_def_cfa_offset 32
	.cfi_offset 29, -32
	.cfi_offset 30, -24
	mov	x29, sp
	str	x0, [sp, 24]
	ldr	x0, [sp, 24]
	ldr	s1, [x0, 8]
	ldr	x0, [sp, 24]
	ldr	s0, [x0, 16]
	fcmp	s1, s0
	bne	.L503
	ldr	x0, [sp, 24]
	ldr	s1, [x0, 12]
	ldr	x0, [sp, 24]
	ldr	s0, [x0, 20]
	fcmp	s1, s0
	beq	.L505
.L503:
	ldr	x0, [sp, 24]
	ldr	s0, [x0, 8]
	fcvtzs	w1, s0
	ldr	x0, [sp, 24]
	ldr	s0, [x0, 12]
	fcvtzs	w0, s0
	mov	w7, 0
	mov	w6, 0
	mov	w5, 0
	mov	w4, 0
	mov	w3, w0
	mov	w2, w1
	mov	w1, 2
	ldr	x0, [sp, 24]
	bl	_ZL14stbtt__csctx_vP12stbtt__csctxhiiiiii
.L505:
	nop
	ldp	x29, x30, [sp], 32
	.cfi_restore 30
	.cfi_restore 29
	.cfi_def_cfa_offset 0
	ret
	.cfi_endproc
.LFE1613:
	.size	_ZL24stbtt__csctx_close_shapeP12stbtt__csctx, .-_ZL24stbtt__csctx_close_shapeP12stbtt__csctx
	.align	2
	.type	_ZL21stbtt__csctx_rmove_toP12stbtt__csctxff, %function
_ZL21stbtt__csctx_rmove_toP12stbtt__csctxff:
.LFB1614:
	.cfi_startproc
	stp	x29, x30, [sp, -32]!
	.cfi_def_cfa_offset 32
	.cfi_offset 29, -32
	.cfi_offset 30, -24
	mov	x29, sp
	str	x0, [sp, 24]
	str	s0, [sp, 20]
	str	s1, [sp, 16]
	ldr	x0, [sp, 24]
	bl	_ZL24stbtt__csctx_close_shapeP12stbtt__csctx
	ldr	x0, [sp, 24]
	ldr	s1, [x0, 16]
	ldr	s0, [sp, 20]
	fadd	s0, s1, s0
	ldr	x0, [sp, 24]
	str	s0, [x0, 16]
	ldr	x0, [sp, 24]
	ldr	s0, [x0, 16]
	ldr	x0, [sp, 24]
	str	s0, [x0, 8]
	ldr	x0, [sp, 24]
	ldr	s1, [x0, 20]
	ldr	s0, [sp, 16]
	fadd	s0, s1, s0
	ldr	x0, [sp, 24]
	str	s0, [x0, 20]
	ldr	x0, [sp, 24]
	ldr	s0, [x0, 20]
	ldr	x0, [sp, 24]
	str	s0, [x0, 12]
	ldr	x0, [sp, 24]
	ldr	s0, [x0, 16]
	fcvtzs	w1, s0
	ldr	x0, [sp, 24]
	ldr	s0, [x0, 20]
	fcvtzs	w0, s0
	mov	w7, 0
	mov	w6, 0
	mov	w5, 0
	mov	w4, 0
	mov	w3, w0
	mov	w2, w1
	mov	w1, 1
	ldr	x0, [sp, 24]
	bl	_ZL14stbtt__csctx_vP12stbtt__csctxhiiiiii
	nop
	ldp	x29, x30, [sp], 32
	.cfi_restore 30
	.cfi_restore 29
	.cfi_def_cfa_offset 0
	ret
	.cfi_endproc
.LFE1614:
	.size	_ZL21stbtt__csctx_rmove_toP12stbtt__csctxff, .-_ZL21stbtt__csctx_rmove_toP12stbtt__csctxff
	.align	2
	.type	_ZL21stbtt__csctx_rline_toP12stbtt__csctxff, %function
_ZL21stbtt__csctx_rline_toP12stbtt__csctxff:
.LFB1615:
	.cfi_startproc
	stp	x29, x30, [sp, -32]!
	.cfi_def_cfa_offset 32
	.cfi_offset 29, -32
	.cfi_offset 30, -24
	mov	x29, sp
	str	x0, [sp, 24]
	str	s0, [sp, 20]
	str	s1, [sp, 16]
	ldr	x0, [sp, 24]
	ldr	s1, [x0, 16]
	ldr	s0, [sp, 20]
	fadd	s0, s1, s0
	ldr	x0, [sp, 24]
	str	s0, [x0, 16]
	ldr	x0, [sp, 24]
	ldr	s1, [x0, 20]
	ldr	s0, [sp, 16]
	fadd	s0, s1, s0
	ldr	x0, [sp, 24]
	str	s0, [x0, 20]
	ldr	x0, [sp, 24]
	ldr	s0, [x0, 16]
	fcvtzs	w1, s0
	ldr	x0, [sp, 24]
	ldr	s0, [x0, 20]
	fcvtzs	w0, s0
	mov	w7, 0
	mov	w6, 0
	mov	w5, 0
	mov	w4, 0
	mov	w3, w0
	mov	w2, w1
	mov	w1, 2
	ldr	x0, [sp, 24]
	bl	_ZL14stbtt__csctx_vP12stbtt__csctxhiiiiii
	nop
	ldp	x29, x30, [sp], 32
	.cfi_restore 30
	.cfi_restore 29
	.cfi_def_cfa_offset 0
	ret
	.cfi_endproc
.LFE1615:
	.size	_ZL21stbtt__csctx_rline_toP12stbtt__csctxff, .-_ZL21stbtt__csctx_rline_toP12stbtt__csctxff
	.align	2
	.type	_ZL23stbtt__csctx_rccurve_toP12stbtt__csctxffffff, %function
_ZL23stbtt__csctx_rccurve_toP12stbtt__csctxffffff:
.LFB1616:
	.cfi_startproc
	stp	x29, x30, [sp, -64]!
	.cfi_def_cfa_offset 64
	.cfi_offset 29, -64
	.cfi_offset 30, -56
	mov	x29, sp
	str	x0, [sp, 40]
	str	s0, [sp, 36]
	str	s1, [sp, 32]
	str	s2, [sp, 28]
	str	s3, [sp, 24]
	str	s4, [sp, 20]
	str	s5, [sp, 16]
	ldr	x0, [sp, 40]
	ldr	s0, [x0, 16]
	ldr	s1, [sp, 36]
	fadd	s0, s1, s0
	str	s0, [sp, 48]
	ldr	x0, [sp, 40]
	ldr	s0, [x0, 20]
	ldr	s1, [sp, 32]
	fadd	s0, s1, s0
	str	s0, [sp, 52]
	ldr	s1, [sp, 48]
	ldr	s0, [sp, 28]
	fadd	s0, s1, s0
	str	s0, [sp, 56]
	ldr	s1, [sp, 52]
	ldr	s0, [sp, 24]
	fadd	s0, s1, s0
	str	s0, [sp, 60]
	ldr	s1, [sp, 56]
	ldr	s0, [sp, 20]
	fadd	s0, s1, s0
	ldr	x0, [sp, 40]
	str	s0, [x0, 16]
	ldr	s1, [sp, 60]
	ldr	s0, [sp, 16]
	fadd	s0, s1, s0
	ldr	x0, [sp, 40]
	str	s0, [x0, 20]
	ldr	x0, [sp, 40]
	ldr	s0, [x0, 16]
	fcvtzs	w1, s0
	ldr	x0, [sp, 40]
	ldr	s0, [x0, 20]
	fcvtzs	w0, s0
	ldr	s0, [sp, 48]
	fcvtzs	w2, s0
	ldr	s0, [sp, 52]
	fcvtzs	w3, s0
	ldr	s0, [sp, 56]
	fcvtzs	w4, s0
	ldr	s0, [sp, 60]
	fcvtzs	w5, s0
	mov	w7, w5
	mov	w6, w4
	mov	w5, w3
	mov	w4, w2
	mov	w3, w0
	mov	w2, w1
	mov	w1, 4
	ldr	x0, [sp, 40]
	bl	_ZL14stbtt__csctx_vP12stbtt__csctxhiiiiii
	nop
	ldp	x29, x30, [sp], 64
	.cfi_restore 30
	.cfi_restore 29
	.cfi_def_cfa_offset 0
	ret
	.cfi_endproc
.LFE1616:
	.size	_ZL23stbtt__csctx_rccurve_toP12stbtt__csctxffffff, .-_ZL23stbtt__csctx_rccurve_toP12stbtt__csctxffffff
	.align	2
	.type	_ZL15stbtt__get_subr10stbtt__bufi, %function
_ZL15stbtt__get_subr10stbtt__bufi:
.LFB1617:
	.cfi_startproc
	stp	x29, x30, [sp, -64]!
	.cfi_def_cfa_offset 64
	.cfi_offset 29, -64
	.cfi_offset 30, -56
	mov	x29, sp
	stp	x0, x1, [sp, 32]
	str	w2, [sp, 28]
	add	x0, sp, 32
	bl	_ZL22stbtt__cff_index_countP10stbtt__buf
	str	w0, [sp, 60]
	mov	w0, 107
	str	w0, [sp, 56]
	ldr	w1, [sp, 60]
	mov	w0, 33899
	cmp	w1, w0
	ble	.L510
	mov	w0, 32768
	str	w0, [sp, 56]
	b	.L511
.L510:
	ldr	w0, [sp, 60]
	cmp	w0, 1239
	ble	.L511
	mov	w0, 1131
	str	w0, [sp, 56]
.L511:
	ldr	w1, [sp, 28]
	ldr	w0, [sp, 56]
	add	w0, w1, w0
	str	w0, [sp, 28]
	ldr	w0, [sp, 28]
	cmp	w0, 0
	blt	.L512
	ldr	w1, [sp, 28]
	ldr	w0, [sp, 60]
	cmp	w1, w0
	blt	.L513
.L512:
	mov	x1, 0
	mov	x0, 0
	bl	_ZL14stbtt__new_bufPKvm
	b	.L514
.L513:
	ldr	w2, [sp, 28]
	ldp	x0, x1, [sp, 32]
	bl	_ZL20stbtt__cff_index_get10stbtt__bufi
	nop
.L514:
	ldp	x29, x30, [sp], 64
	.cfi_restore 30
	.cfi_restore 29
	.cfi_def_cfa_offset 0
	ret
	.cfi_endproc
.LFE1617:
	.size	_ZL15stbtt__get_subr10stbtt__bufi, .-_ZL15stbtt__get_subr10stbtt__bufi
	.align	2
	.type	_ZL26stbtt__cid_get_glyph_subrsPK14stbtt_fontinfoi, %function
_ZL26stbtt__cid_get_glyph_subrsPK14stbtt_fontinfoi:
.LFB1618:
	.cfi_startproc
	stp	x29, x30, [sp, -96]!
	.cfi_def_cfa_offset 96
	.cfi_offset 29, -96
	.cfi_offset 30, -88
	mov	x29, sp
	str	x0, [sp, 24]
	str	w1, [sp, 20]
	adrp	x0, :got:__stack_chk_guard
	ldr	x0, [x0, #:got_lo12:__stack_chk_guard]
	ldr	x1, [x0]
	str	x1, [sp, 88]
	mov	x1, 0
	ldr	x0, [sp, 24]
	ldp	x0, x1, [x0, 144]
	stp	x0, x1, [sp, 72]
	mov	w0, -1
	str	w0, [sp, 48]
	add	x0, sp, 72
	mov	w1, 0
	bl	_ZL15stbtt__buf_seekP10stbtt__bufi
	add	x0, sp, 72
	bl	_ZL15stbtt__buf_get8P10stbtt__buf
	and	w0, w0, 255
	str	w0, [sp, 56]
	ldr	w0, [sp, 56]
	cmp	w0, 0
	bne	.L516
	add	x0, sp, 72
	ldr	w1, [sp, 20]
	bl	_ZL15stbtt__buf_skipP10stbtt__bufi
	add	x0, sp, 72
	bl	_ZL15stbtt__buf_get8P10stbtt__buf
	and	w0, w0, 255
	str	w0, [sp, 48]
	b	.L517
.L516:
	ldr	w0, [sp, 56]
	cmp	w0, 3
	bne	.L517
	add	x0, sp, 72
	mov	w1, 2
	bl	_ZL14stbtt__buf_getP10stbtt__bufi
	str	w0, [sp, 60]
	add	x0, sp, 72
	mov	w1, 2
	bl	_ZL14stbtt__buf_getP10stbtt__bufi
	str	w0, [sp, 44]
	str	wzr, [sp, 52]
	b	.L518
.L521:
	add	x0, sp, 72
	bl	_ZL15stbtt__buf_get8P10stbtt__buf
	and	w0, w0, 255
	str	w0, [sp, 64]
	add	x0, sp, 72
	mov	w1, 2
	bl	_ZL14stbtt__buf_getP10stbtt__bufi
	str	w0, [sp, 68]
	ldr	w1, [sp, 20]
	ldr	w0, [sp, 44]
	cmp	w1, w0
	blt	.L519
	ldr	w1, [sp, 20]
	ldr	w0, [sp, 68]
	cmp	w1, w0
	bge	.L519
	ldr	w0, [sp, 64]
	str	w0, [sp, 48]
	b	.L517
.L519:
	ldr	w0, [sp, 68]
	str	w0, [sp, 44]
	ldr	w0, [sp, 52]
	add	w0, w0, 1
	str	w0, [sp, 52]
.L518:
	ldr	w1, [sp, 52]
	ldr	w0, [sp, 60]
	cmp	w1, w0
	blt	.L521
.L517:
	ldr	w0, [sp, 48]
	cmn	w0, #1
	bne	.L522
	mov	x1, 0
	mov	x0, 0
	bl	_ZL14stbtt__new_bufPKvm
.L522:
	ldr	x0, [sp, 24]
	ldr	w2, [sp, 48]
	ldp	x0, x1, [x0, 128]
	bl	_ZL20stbtt__cff_index_get10stbtt__bufi
	mov	x2, x0
	mov	x3, x1
	ldr	x0, [sp, 24]
	ldp	x0, x1, [x0, 64]
	bl	_ZL16stbtt__get_subrs10stbtt__bufS_
	mov	x2, x0
	mov	x3, x1
	adrp	x0, :got:__stack_chk_guard
	ldr	x0, [x0, #:got_lo12:__stack_chk_guard]
	ldr	x4, [sp, 88]
	ldr	x1, [x0]
	subs	x4, x4, x1
	mov	x1, 0
	beq	.L524
	bl	__stack_chk_fail
.L524:
	mov	x0, x2
	mov	x1, x3
	ldp	x29, x30, [sp], 96
	.cfi_restore 30
	.cfi_restore 29
	.cfi_def_cfa_offset 0
	ret
	.cfi_endproc
.LFE1618:
	.size	_ZL26stbtt__cid_get_glyph_subrsPK14stbtt_fontinfoi, .-_ZL26stbtt__cid_get_glyph_subrsPK14stbtt_fontinfoi
	.align	2
	.type	_ZL21stbtt__run_charstringPK14stbtt_fontinfoiP12stbtt__csctx, %function
_ZL21stbtt__run_charstringPK14stbtt_fontinfoiP12stbtt__csctx:
.LFB1619:
	.cfi_startproc
	sub	sp, sp, #544
	.cfi_def_cfa_offset 544
	stp	x29, x30, [sp]
	.cfi_offset 29, -544
	.cfi_offset 30, -536
	mov	x29, sp
	str	x0, [sp, 40]
	str	w1, [sp, 36]
	str	x2, [sp, 24]
	adrp	x0, :got:__stack_chk_guard
	ldr	x0, [x0, #:got_lo12:__stack_chk_guard]
	ldr	x1, [x0]
	str	x1, [sp, 536]
	mov	x1, 0
	mov	w0, 1
	str	w0, [sp, 52]
	str	wzr, [sp, 56]
	str	wzr, [sp, 60]
	str	wzr, [sp, 64]
	str	wzr, [sp, 72]
	ldr	x0, [sp, 40]
	ldp	x0, x1, [x0, 112]
	stp	x0, x1, [sp, 152]
	ldr	x0, [sp, 40]
	ldr	w2, [sp, 36]
	ldp	x0, x1, [x0, 80]
	bl	_ZL20stbtt__cff_index_get10stbtt__bufi
	stp	x0, x1, [sp, 168]
	b	.L526
.L614:
	str	wzr, [sp, 68]
	mov	w0, 1
	str	w0, [sp, 76]
	add	x0, sp, 168
	bl	_ZL15stbtt__buf_get8P10stbtt__buf
	and	w0, w0, 255
	str	w0, [sp, 92]
	ldr	w0, [sp, 92]
	sub	w0, w0, #1
	cmp	w0, 30
	bhi	.L527
	adrp	x1, .L529
	add	x1, x1, :lo12:.L529
	ldr	w0, [x1,w0,uxtw #2]
	adr	x1, .Lrtx529
	add	x0, x1, w0, sxtw #2
	br	x0
.Lrtx529:
	.section	.rodata
	.align	0
	.align	2
.L529:
	.word	(.L535 - .Lrtx529) / 4
	.word	(.L527 - .Lrtx529) / 4
	.word	(.L535 - .Lrtx529) / 4
	.word	(.L547 - .Lrtx529) / 4
	.word	(.L546 - .Lrtx529) / 4
	.word	(.L545 - .Lrtx529) / 4
	.word	(.L544 - .Lrtx529) / 4
	.word	(.L543 - .Lrtx529) / 4
	.word	(.L527 - .Lrtx529) / 4
	.word	(.L542 - .Lrtx529) / 4
	.word	(.L541 - .Lrtx529) / 4
	.word	(.L540 - .Lrtx529) / 4
	.word	(.L527 - .Lrtx529) / 4
	.word	(.L539 - .Lrtx529) / 4
	.word	(.L527 - .Lrtx529) / 4
	.word	(.L527 - .Lrtx529) / 4
	.word	(.L527 - .Lrtx529) / 4
	.word	(.L535 - .Lrtx529) / 4
	.word	(.L538 - .Lrtx529) / 4
	.word	(.L538 - .Lrtx529) / 4
	.word	(.L537 - .Lrtx529) / 4
	.word	(.L536 - .Lrtx529) / 4
	.word	(.L535 - .Lrtx529) / 4
	.word	(.L534 - .Lrtx529) / 4
	.word	(.L533 - .Lrtx529) / 4
	.word	(.L532 - .Lrtx529) / 4
	.word	(.L532 - .Lrtx529) / 4
	.word	(.L527 - .Lrtx529) / 4
	.word	(.L531 - .Lrtx529) / 4
	.word	(.L530 - .Lrtx529) / 4
	.word	(.L528 - .Lrtx529) / 4
	.text
.L538:
	ldr	w0, [sp, 52]
	cmp	w0, 0
	beq	.L548
	ldr	w0, [sp, 64]
	lsr	w1, w0, 31
	add	w0, w1, w0
	asr	w0, w0, 1
	mov	w1, w0
	ldr	w0, [sp, 56]
	add	w0, w0, w1
	str	w0, [sp, 56]
.L548:
	str	wzr, [sp, 52]
	ldr	w0, [sp, 56]
	add	w0, w0, 7
	add	w1, w0, 7
	cmp	w0, 0
	csel	w0, w1, w0, lt
	asr	w0, w0, 3
	mov	w1, w0
	add	x0, sp, 168
	bl	_ZL15stbtt__buf_skipP10stbtt__bufi
	b	.L549
.L535:
	ldr	w0, [sp, 64]
	lsr	w1, w0, 31
	add	w0, w1, w0
	asr	w0, w0, 1
	mov	w1, w0
	ldr	w0, [sp, 56]
	add	w0, w0, w1
	str	w0, [sp, 56]
	b	.L549
.L537:
	str	wzr, [sp, 52]
	ldr	w0, [sp, 64]
	cmp	w0, 1
	bgt	.L550
	mov	w0, 0
	b	.L615
.L550:
	ldr	w0, [sp, 64]
	sub	w0, w0, #2
	sxtw	x0, w0
	lsl	x0, x0, 2
	add	x1, sp, 344
	ldr	s0, [x1, x0]
	ldr	w0, [sp, 64]
	sub	w0, w0, #1
	sxtw	x0, w0
	lsl	x0, x0, 2
	add	x1, sp, 344
	ldr	s1, [x1, x0]
	ldr	x0, [sp, 24]
	bl	_ZL21stbtt__csctx_rmove_toP12stbtt__csctxff
	b	.L549
.L547:
	str	wzr, [sp, 52]
	ldr	w0, [sp, 64]
	cmp	w0, 0
	bgt	.L552
	mov	w0, 0
	b	.L615
.L552:
	ldr	w0, [sp, 64]
	sub	w0, w0, #1
	sxtw	x0, w0
	lsl	x0, x0, 2
	add	x1, sp, 344
	ldr	s0, [x1, x0]
	fmov	s1, s0
	movi	v0.2s, #0
	ldr	x0, [sp, 24]
	bl	_ZL21stbtt__csctx_rmove_toP12stbtt__csctxff
	b	.L549
.L536:
	str	wzr, [sp, 52]
	ldr	w0, [sp, 64]
	cmp	w0, 0
	bgt	.L553
	mov	w0, 0
	b	.L615
.L553:
	ldr	w0, [sp, 64]
	sub	w0, w0, #1
	sxtw	x0, w0
	lsl	x0, x0, 2
	add	x1, sp, 344
	ldr	s0, [x1, x0]
	movi	v1.2s, #0
	ldr	x0, [sp, 24]
	bl	_ZL21stbtt__csctx_rmove_toP12stbtt__csctxff
	b	.L549
.L546:
	ldr	w0, [sp, 64]
	cmp	w0, 1
	bgt	.L555
	mov	w0, 0
	b	.L615
.L556:
	ldrsw	x0, [sp, 68]
	lsl	x0, x0, 2
	add	x1, sp, 344
	ldr	s0, [x1, x0]
	ldr	w0, [sp, 68]
	add	w0, w0, 1
	sxtw	x0, w0
	lsl	x0, x0, 2
	add	x1, sp, 344
	ldr	s1, [x1, x0]
	ldr	x0, [sp, 24]
	bl	_ZL21stbtt__csctx_rline_toP12stbtt__csctxff
	ldr	w0, [sp, 68]
	add	w0, w0, 2
	str	w0, [sp, 68]
.L555:
	ldr	w0, [sp, 68]
	add	w0, w0, 1
	ldr	w1, [sp, 64]
	cmp	w1, w0
	bgt	.L556
	b	.L549
.L544:
	ldr	w0, [sp, 64]
	cmp	w0, 0
	bgt	.L619
	mov	w0, 0
	b	.L615
.L545:
	ldr	w0, [sp, 64]
	cmp	w0, 0
	bgt	.L559
	mov	w0, 0
	b	.L615
.L559:
	ldr	w1, [sp, 68]
	ldr	w0, [sp, 64]
	cmp	w1, w0
	bge	.L620
	ldrsw	x0, [sp, 68]
	lsl	x0, x0, 2
	add	x1, sp, 344
	ldr	s0, [x1, x0]
	movi	v1.2s, #0
	ldr	x0, [sp, 24]
	bl	_ZL21stbtt__csctx_rline_toP12stbtt__csctxff
	ldr	w0, [sp, 68]
	add	w0, w0, 1
	str	w0, [sp, 68]
	b	.L558
.L619:
	nop
.L558:
	ldr	w1, [sp, 68]
	ldr	w0, [sp, 64]
	cmp	w1, w0
	bge	.L621
	ldrsw	x0, [sp, 68]
	lsl	x0, x0, 2
	add	x1, sp, 344
	ldr	s0, [x1, x0]
	fmov	s1, s0
	movi	v0.2s, #0
	ldr	x0, [sp, 24]
	bl	_ZL21stbtt__csctx_rline_toP12stbtt__csctxff
	ldr	w0, [sp, 68]
	add	w0, w0, 1
	str	w0, [sp, 68]
	b	.L559
.L620:
	nop
	b	.L549
.L621:
	nop
	b	.L549
.L528:
	ldr	w0, [sp, 64]
	cmp	w0, 3
	bgt	.L622
	mov	w0, 0
	b	.L615
.L530:
	ldr	w0, [sp, 64]
	cmp	w0, 3
	bgt	.L565
	mov	w0, 0
	b	.L615
.L565:
	ldr	w0, [sp, 68]
	add	w0, w0, 3
	ldr	w1, [sp, 64]
	cmp	w1, w0
	ble	.L623
	ldrsw	x0, [sp, 68]
	lsl	x0, x0, 2
	add	x1, sp, 344
	ldr	s1, [x1, x0]
	ldr	w0, [sp, 68]
	add	w0, w0, 1
	sxtw	x0, w0
	lsl	x0, x0, 2
	add	x1, sp, 344
	ldr	s2, [x1, x0]
	ldr	w0, [sp, 68]
	add	w0, w0, 2
	sxtw	x0, w0
	lsl	x0, x0, 2
	add	x1, sp, 344
	ldr	s3, [x1, x0]
	ldr	w0, [sp, 68]
	add	w0, w0, 3
	sxtw	x0, w0
	lsl	x0, x0, 2
	add	x1, sp, 344
	ldr	s4, [x1, x0]
	ldr	w1, [sp, 64]
	ldr	w0, [sp, 68]
	sub	w0, w1, w0
	cmp	w0, 5
	bne	.L568
	ldr	w0, [sp, 68]
	add	w0, w0, 4
	sxtw	x0, w0
	lsl	x0, x0, 2
	add	x1, sp, 344
	ldr	s0, [x1, x0]
	b	.L569
.L568:
	movi	v0.2s, #0
.L569:
	fmov	s5, s0
	movi	v0.2s, #0
	ldr	x0, [sp, 24]
	bl	_ZL23stbtt__csctx_rccurve_toP12stbtt__csctxffffff
	ldr	w0, [sp, 68]
	add	w0, w0, 4
	str	w0, [sp, 68]
	b	.L564
.L622:
	nop
.L564:
	ldr	w0, [sp, 68]
	add	w0, w0, 3
	ldr	w1, [sp, 64]
	cmp	w1, w0
	ble	.L624
	ldrsw	x0, [sp, 68]
	lsl	x0, x0, 2
	add	x1, sp, 344
	ldr	s6, [x1, x0]
	ldr	w0, [sp, 68]
	add	w0, w0, 1
	sxtw	x0, w0
	lsl	x0, x0, 2
	add	x1, sp, 344
	ldr	s1, [x1, x0]
	ldr	w0, [sp, 68]
	add	w0, w0, 2
	sxtw	x0, w0
	lsl	x0, x0, 2
	add	x1, sp, 344
	ldr	s2, [x1, x0]
	ldr	w1, [sp, 64]
	ldr	w0, [sp, 68]
	sub	w0, w1, w0
	cmp	w0, 5
	bne	.L571
	ldr	w0, [sp, 68]
	add	w0, w0, 4
	sxtw	x0, w0
	lsl	x0, x0, 2
	add	x1, sp, 344
	ldr	s0, [x1, x0]
	b	.L572
.L571:
	movi	v0.2s, #0
.L572:
	ldr	w0, [sp, 68]
	add	w0, w0, 3
	sxtw	x0, w0
	lsl	x0, x0, 2
	add	x1, sp, 344
	ldr	s3, [x1, x0]
	fmov	s5, s3
	fmov	s4, s0
	fmov	s3, s2
	fmov	s2, s1
	movi	v1.2s, #0
	fmov	s0, s6
	ldr	x0, [sp, 24]
	bl	_ZL23stbtt__csctx_rccurve_toP12stbtt__csctxffffff
	ldr	w0, [sp, 68]
	add	w0, w0, 4
	str	w0, [sp, 68]
	b	.L565
.L623:
	nop
	b	.L549
.L624:
	nop
	b	.L549
.L543:
	ldr	w0, [sp, 64]
	cmp	w0, 5
	bgt	.L574
	mov	w0, 0
	b	.L615
.L575:
	ldrsw	x0, [sp, 68]
	lsl	x0, x0, 2
	add	x1, sp, 344
	ldr	s0, [x1, x0]
	ldr	w0, [sp, 68]
	add	w0, w0, 1
	sxtw	x0, w0
	lsl	x0, x0, 2
	add	x1, sp, 344
	ldr	s1, [x1, x0]
	ldr	w0, [sp, 68]
	add	w0, w0, 2
	sxtw	x0, w0
	lsl	x0, x0, 2
	add	x1, sp, 344
	ldr	s2, [x1, x0]
	ldr	w0, [sp, 68]
	add	w0, w0, 3
	sxtw	x0, w0
	lsl	x0, x0, 2
	add	x1, sp, 344
	ldr	s3, [x1, x0]
	ldr	w0, [sp, 68]
	add	w0, w0, 4
	sxtw	x0, w0
	lsl	x0, x0, 2
	add	x1, sp, 344
	ldr	s4, [x1, x0]
	ldr	w0, [sp, 68]
	add	w0, w0, 5
	sxtw	x0, w0
	lsl	x0, x0, 2
	add	x1, sp, 344
	ldr	s5, [x1, x0]
	ldr	x0, [sp, 24]
	bl	_ZL23stbtt__csctx_rccurve_toP12stbtt__csctxffffff
	ldr	w0, [sp, 68]
	add	w0, w0, 6
	str	w0, [sp, 68]
.L574:
	ldr	w0, [sp, 68]
	add	w0, w0, 5
	ldr	w1, [sp, 64]
	cmp	w1, w0
	bgt	.L575
	b	.L549
.L534:
	ldr	w0, [sp, 64]
	cmp	w0, 7
	bgt	.L577
	mov	w0, 0
	b	.L615
.L578:
	ldrsw	x0, [sp, 68]
	lsl	x0, x0, 2
	add	x1, sp, 344
	ldr	s0, [x1, x0]
	ldr	w0, [sp, 68]
	add	w0, w0, 1
	sxtw	x0, w0
	lsl	x0, x0, 2
	add	x1, sp, 344
	ldr	s1, [x1, x0]
	ldr	w0, [sp, 68]
	add	w0, w0, 2
	sxtw	x0, w0
	lsl	x0, x0, 2
	add	x1, sp, 344
	ldr	s2, [x1, x0]
	ldr	w0, [sp, 68]
	add	w0, w0, 3
	sxtw	x0, w0
	lsl	x0, x0, 2
	add	x1, sp, 344
	ldr	s3, [x1, x0]
	ldr	w0, [sp, 68]
	add	w0, w0, 4
	sxtw	x0, w0
	lsl	x0, x0, 2
	add	x1, sp, 344
	ldr	s4, [x1, x0]
	ldr	w0, [sp, 68]
	add	w0, w0, 5
	sxtw	x0, w0
	lsl	x0, x0, 2
	add	x1, sp, 344
	ldr	s5, [x1, x0]
	ldr	x0, [sp, 24]
	bl	_ZL23stbtt__csctx_rccurve_toP12stbtt__csctxffffff
	ldr	w0, [sp, 68]
	add	w0, w0, 6
	str	w0, [sp, 68]
.L577:
	ldr	w0, [sp, 68]
	add	w1, w0, 5
	ldr	w0, [sp, 64]
	sub	w0, w0, #2
	cmp	w1, w0
	blt	.L578
	ldr	w0, [sp, 68]
	add	w0, w0, 1
	ldr	w1, [sp, 64]
	cmp	w1, w0
	bgt	.L579
	mov	w0, 0
	b	.L615
.L579:
	ldrsw	x0, [sp, 68]
	lsl	x0, x0, 2
	add	x1, sp, 344
	ldr	s0, [x1, x0]
	ldr	w0, [sp, 68]
	add	w0, w0, 1
	sxtw	x0, w0
	lsl	x0, x0, 2
	add	x1, sp, 344
	ldr	s1, [x1, x0]
	ldr	x0, [sp, 24]
	bl	_ZL21stbtt__csctx_rline_toP12stbtt__csctxff
	b	.L549
.L533:
	ldr	w0, [sp, 64]
	cmp	w0, 7
	bgt	.L581
	mov	w0, 0
	b	.L615
.L582:
	ldrsw	x0, [sp, 68]
	lsl	x0, x0, 2
	add	x1, sp, 344
	ldr	s0, [x1, x0]
	ldr	w0, [sp, 68]
	add	w0, w0, 1
	sxtw	x0, w0
	lsl	x0, x0, 2
	add	x1, sp, 344
	ldr	s1, [x1, x0]
	ldr	x0, [sp, 24]
	bl	_ZL21stbtt__csctx_rline_toP12stbtt__csctxff
	ldr	w0, [sp, 68]
	add	w0, w0, 2
	str	w0, [sp, 68]
.L581:
	ldr	w0, [sp, 68]
	add	w1, w0, 1
	ldr	w0, [sp, 64]
	sub	w0, w0, #6
	cmp	w1, w0
	blt	.L582
	ldr	w0, [sp, 68]
	add	w0, w0, 5
	ldr	w1, [sp, 64]
	cmp	w1, w0
	bgt	.L583
	mov	w0, 0
	b	.L615
.L583:
	ldrsw	x0, [sp, 68]
	lsl	x0, x0, 2
	add	x1, sp, 344
	ldr	s0, [x1, x0]
	ldr	w0, [sp, 68]
	add	w0, w0, 1
	sxtw	x0, w0
	lsl	x0, x0, 2
	add	x1, sp, 344
	ldr	s1, [x1, x0]
	ldr	w0, [sp, 68]
	add	w0, w0, 2
	sxtw	x0, w0
	lsl	x0, x0, 2
	add	x1, sp, 344
	ldr	s2, [x1, x0]
	ldr	w0, [sp, 68]
	add	w0, w0, 3
	sxtw	x0, w0
	lsl	x0, x0, 2
	add	x1, sp, 344
	ldr	s3, [x1, x0]
	ldr	w0, [sp, 68]
	add	w0, w0, 4
	sxtw	x0, w0
	lsl	x0, x0, 2
	add	x1, sp, 344
	ldr	s4, [x1, x0]
	ldr	w0, [sp, 68]
	add	w0, w0, 5
	sxtw	x0, w0
	lsl	x0, x0, 2
	add	x1, sp, 344
	ldr	s5, [x1, x0]
	ldr	x0, [sp, 24]
	bl	_ZL23stbtt__csctx_rccurve_toP12stbtt__csctxffffff
	b	.L549
.L532:
	ldr	w0, [sp, 64]
	cmp	w0, 3
	bgt	.L584
	mov	w0, 0
	b	.L615
.L584:
	str	wzr, [sp, 80]
	ldr	w0, [sp, 64]
	and	w0, w0, 1
	cmp	w0, 0
	beq	.L586
	ldrsw	x0, [sp, 68]
	lsl	x0, x0, 2
	add	x1, sp, 344
	ldr	s0, [x1, x0]
	str	s0, [sp, 80]
	ldr	w0, [sp, 68]
	add	w0, w0, 1
	str	w0, [sp, 68]
	b	.L586
.L589:
	ldr	w0, [sp, 92]
	cmp	w0, 27
	bne	.L587
	ldrsw	x0, [sp, 68]
	lsl	x0, x0, 2
	add	x1, sp, 344
	ldr	s0, [x1, x0]
	ldr	w0, [sp, 68]
	add	w0, w0, 1
	sxtw	x0, w0
	lsl	x0, x0, 2
	add	x1, sp, 344
	ldr	s1, [x1, x0]
	ldr	w0, [sp, 68]
	add	w0, w0, 2
	sxtw	x0, w0
	lsl	x0, x0, 2
	add	x1, sp, 344
	ldr	s2, [x1, x0]
	ldr	w0, [sp, 68]
	add	w0, w0, 3
	sxtw	x0, w0
	lsl	x0, x0, 2
	add	x1, sp, 344
	ldr	s3, [x1, x0]
	movi	v5.2s, #0
	fmov	s4, s3
	fmov	s3, s2
	fmov	s2, s1
	ldr	s1, [sp, 80]
	ldr	x0, [sp, 24]
	bl	_ZL23stbtt__csctx_rccurve_toP12stbtt__csctxffffff
	b	.L588
.L587:
	ldrsw	x0, [sp, 68]
	lsl	x0, x0, 2
	add	x1, sp, 344
	ldr	s0, [x1, x0]
	ldr	w0, [sp, 68]
	add	w0, w0, 1
	sxtw	x0, w0
	lsl	x0, x0, 2
	add	x1, sp, 344
	ldr	s1, [x1, x0]
	ldr	w0, [sp, 68]
	add	w0, w0, 2
	sxtw	x0, w0
	lsl	x0, x0, 2
	add	x1, sp, 344
	ldr	s2, [x1, x0]
	ldr	w0, [sp, 68]
	add	w0, w0, 3
	sxtw	x0, w0
	lsl	x0, x0, 2
	add	x1, sp, 344
	ldr	s3, [x1, x0]
	fmov	s5, s3
	movi	v4.2s, #0
	fmov	s3, s2
	fmov	s2, s1
	fmov	s1, s0
	ldr	s0, [sp, 80]
	ldr	x0, [sp, 24]
	bl	_ZL23stbtt__csctx_rccurve_toP12stbtt__csctxffffff
.L588:
	str	wzr, [sp, 80]
	ldr	w0, [sp, 68]
	add	w0, w0, 4
	str	w0, [sp, 68]
.L586:
	ldr	w0, [sp, 68]
	add	w0, w0, 3
	ldr	w1, [sp, 64]
	cmp	w1, w0
	bgt	.L589
	b	.L549
.L542:
	ldr	w0, [sp, 72]
	cmp	w0, 0
	bne	.L531
	ldr	x0, [sp, 40]
	ldr	w0, [x0, 156]
	cmp	w0, 0
	beq	.L590
	ldr	w1, [sp, 36]
	ldr	x0, [sp, 40]
	bl	_ZL26stbtt__cid_get_glyph_subrsPK14stbtt_fontinfoi
	stp	x0, x1, [sp, 152]
.L590:
	mov	w0, 1
	str	w0, [sp, 72]
.L531:
	ldr	w0, [sp, 64]
	cmp	w0, 0
	bgt	.L591
	mov	w0, 0
	b	.L615
.L591:
	ldr	w0, [sp, 64]
	sub	w0, w0, #1
	str	w0, [sp, 64]
	ldrsw	x0, [sp, 64]
	lsl	x0, x0, 2
	add	x1, sp, 344
	ldr	s0, [x1, x0]
	fcvtzs	s0, s0
	str	s0, [sp, 148]
	ldr	w0, [sp, 60]
	cmp	w0, 9
	ble	.L592
	mov	w0, 0
	b	.L615
.L592:
	ldr	w0, [sp, 60]
	add	w1, w0, 1
	str	w1, [sp, 60]
	sxtw	x0, w0
	lsl	x0, x0, 4
	add	x1, sp, 184
	add	x2, x1, x0
	ldp	x0, x1, [sp, 168]
	stp	x0, x1, [x2]
	ldr	w0, [sp, 92]
	cmp	w0, 10
	bne	.L593
	add	x0, sp, 152
	b	.L594
.L593:
	ldr	x0, [sp, 40]
	add	x0, x0, 96
.L594:
	ldr	w2, [sp, 148]
	ldp	x0, x1, [x0]
	bl	_ZL15stbtt__get_subr10stbtt__bufi
	stp	x0, x1, [sp, 168]
	ldr	w0, [sp, 180]
	cmp	w0, 0
	bne	.L595
	mov	w0, 0
	b	.L615
.L595:
	str	wzr, [sp, 176]
	str	wzr, [sp, 76]
	b	.L549
.L541:
	ldr	w0, [sp, 60]
	cmp	w0, 0
	bgt	.L596
	mov	w0, 0
	b	.L615
.L596:
	ldr	w0, [sp, 60]
	sub	w0, w0, #1
	str	w0, [sp, 60]
	ldrsw	x0, [sp, 60]
	lsl	x0, x0, 4
	add	x1, sp, 184
	add	x0, x1, x0
	ldp	x0, x1, [x0]
	stp	x0, x1, [sp, 168]
	str	wzr, [sp, 76]
	b	.L549
.L539:
	ldr	x0, [sp, 24]
	bl	_ZL24stbtt__csctx_close_shapeP12stbtt__csctx
	mov	w0, 1
	b	.L615
.L540:
	add	x0, sp, 168
	bl	_ZL15stbtt__buf_get8P10stbtt__buf
	and	w0, w0, 255
	str	w0, [sp, 96]
	ldr	w0, [sp, 96]
	cmp	w0, 37
	beq	.L597
	ldr	w0, [sp, 96]
	cmp	w0, 37
	bgt	.L598
	ldr	w0, [sp, 96]
	cmp	w0, 36
	beq	.L599
	ldr	w0, [sp, 96]
	cmp	w0, 36
	bgt	.L598
	ldr	w0, [sp, 96]
	cmp	w0, 34
	beq	.L600
	ldr	w0, [sp, 96]
	cmp	w0, 35
	beq	.L601
	b	.L598
.L600:
	ldr	w0, [sp, 64]
	cmp	w0, 6
	bgt	.L602
	mov	w0, 0
	b	.L615
.L602:
	ldr	s0, [sp, 344]
	str	s0, [sp, 100]
	ldr	s0, [sp, 348]
	str	s0, [sp, 108]
	ldr	s0, [sp, 352]
	str	s0, [sp, 112]
	ldr	s0, [sp, 356]
	str	s0, [sp, 116]
	ldr	s0, [sp, 360]
	str	s0, [sp, 124]
	ldr	s0, [sp, 364]
	str	s0, [sp, 132]
	ldr	s0, [sp, 368]
	str	s0, [sp, 84]
	movi	v5.2s, #0
	ldr	s4, [sp, 116]
	ldr	s3, [sp, 112]
	ldr	s2, [sp, 108]
	movi	v1.2s, #0
	ldr	s0, [sp, 100]
	ldr	x0, [sp, 24]
	bl	_ZL23stbtt__csctx_rccurve_toP12stbtt__csctxffffff
	ldr	s0, [sp, 112]
	fneg	s0, s0
	movi	v5.2s, #0
	ldr	s4, [sp, 84]
	fmov	s3, s0
	ldr	s2, [sp, 132]
	movi	v1.2s, #0
	ldr	s0, [sp, 124]
	ldr	x0, [sp, 24]
	bl	_ZL23stbtt__csctx_rccurve_toP12stbtt__csctxffffff
	b	.L603
.L601:
	ldr	w0, [sp, 64]
	cmp	w0, 12
	bgt	.L604
	mov	w0, 0
	b	.L615
.L604:
	ldr	s0, [sp, 344]
	str	s0, [sp, 100]
	ldr	s0, [sp, 348]
	str	s0, [sp, 104]
	ldr	s0, [sp, 352]
	str	s0, [sp, 108]
	ldr	s0, [sp, 356]
	str	s0, [sp, 112]
	ldr	s0, [sp, 360]
	str	s0, [sp, 116]
	ldr	s0, [sp, 364]
	str	s0, [sp, 120]
	ldr	s0, [sp, 368]
	str	s0, [sp, 124]
	ldr	s0, [sp, 372]
	str	s0, [sp, 128]
	ldr	s0, [sp, 376]
	str	s0, [sp, 132]
	ldr	s0, [sp, 380]
	str	s0, [sp, 136]
	ldr	s0, [sp, 384]
	str	s0, [sp, 84]
	ldr	s0, [sp, 388]
	str	s0, [sp, 88]
	ldr	s5, [sp, 120]
	ldr	s4, [sp, 116]
	ldr	s3, [sp, 112]
	ldr	s2, [sp, 108]
	ldr	s1, [sp, 104]
	ldr	s0, [sp, 100]
	ldr	x0, [sp, 24]
	bl	_ZL23stbtt__csctx_rccurve_toP12stbtt__csctxffffff
	ldr	s5, [sp, 88]
	ldr	s4, [sp, 84]
	ldr	s3, [sp, 136]
	ldr	s2, [sp, 132]
	ldr	s1, [sp, 128]
	ldr	s0, [sp, 124]
	ldr	x0, [sp, 24]
	bl	_ZL23stbtt__csctx_rccurve_toP12stbtt__csctxffffff
	b	.L603
.L599:
	ldr	w0, [sp, 64]
	cmp	w0, 8
	bgt	.L605
	mov	w0, 0
	b	.L615
.L605:
	ldr	s0, [sp, 344]
	str	s0, [sp, 100]
	ldr	s0, [sp, 348]
	str	s0, [sp, 104]
	ldr	s0, [sp, 352]
	str	s0, [sp, 108]
	ldr	s0, [sp, 356]
	str	s0, [sp, 112]
	ldr	s0, [sp, 360]
	str	s0, [sp, 116]
	ldr	s0, [sp, 364]
	str	s0, [sp, 124]
	ldr	s0, [sp, 368]
	str	s0, [sp, 132]
	ldr	s0, [sp, 372]
	str	s0, [sp, 136]
	ldr	s0, [sp, 376]
	str	s0, [sp, 84]
	movi	v5.2s, #0
	ldr	s4, [sp, 116]
	ldr	s3, [sp, 112]
	ldr	s2, [sp, 108]
	ldr	s1, [sp, 104]
	ldr	s0, [sp, 100]
	ldr	x0, [sp, 24]
	bl	_ZL23stbtt__csctx_rccurve_toP12stbtt__csctxffffff
	ldr	s1, [sp, 104]
	ldr	s0, [sp, 112]
	fadd	s1, s1, s0
	ldr	s0, [sp, 136]
	fadd	s0, s1, s0
	fneg	s0, s0
	fmov	s5, s0
	ldr	s4, [sp, 84]
	ldr	s3, [sp, 136]
	ldr	s2, [sp, 132]
	movi	v1.2s, #0
	ldr	s0, [sp, 124]
	ldr	x0, [sp, 24]
	bl	_ZL23stbtt__csctx_rccurve_toP12stbtt__csctxffffff
	b	.L603
.L597:
	ldr	w0, [sp, 64]
	cmp	w0, 10
	bgt	.L606
	mov	w0, 0
	b	.L615
.L606:
	ldr	s0, [sp, 344]
	str	s0, [sp, 100]
	ldr	s0, [sp, 348]
	str	s0, [sp, 104]
	ldr	s0, [sp, 352]
	str	s0, [sp, 108]
	ldr	s0, [sp, 356]
	str	s0, [sp, 112]
	ldr	s0, [sp, 360]
	str	s0, [sp, 116]
	ldr	s0, [sp, 364]
	str	s0, [sp, 120]
	ldr	s0, [sp, 368]
	str	s0, [sp, 124]
	ldr	s0, [sp, 372]
	str	s0, [sp, 128]
	ldr	s0, [sp, 376]
	str	s0, [sp, 132]
	ldr	s0, [sp, 380]
	str	s0, [sp, 136]
	ldr	s0, [sp, 384]
	str	s0, [sp, 88]
	ldr	s0, [sp, 88]
	str	s0, [sp, 84]
	ldr	s1, [sp, 100]
	ldr	s0, [sp, 108]
	fadd	s1, s1, s0
	ldr	s0, [sp, 116]
	fadd	s1, s1, s0
	ldr	s0, [sp, 124]
	fadd	s0, s1, s0
	ldr	s1, [sp, 132]
	fadd	s0, s1, s0
	str	s0, [sp, 140]
	ldr	s1, [sp, 104]
	ldr	s0, [sp, 112]
	fadd	s1, s1, s0
	ldr	s0, [sp, 120]
	fadd	s1, s1, s0
	ldr	s0, [sp, 128]
	fadd	s0, s1, s0
	ldr	s1, [sp, 136]
	fadd	s0, s1, s0
	str	s0, [sp, 144]
	ldr	s0, [sp, 140]
	fabs	s1, s0
	ldr	s0, [sp, 144]
	fabs	s0, s0
	fcmpe	s1, s0
	bgt	.L617
	b	.L618
.L617:
	ldr	s0, [sp, 144]
	fneg	s0, s0
	str	s0, [sp, 88]
	b	.L609
.L618:
	ldr	s0, [sp, 140]
	fneg	s0, s0
	str	s0, [sp, 84]
.L609:
	ldr	s5, [sp, 120]
	ldr	s4, [sp, 116]
	ldr	s3, [sp, 112]
	ldr	s2, [sp, 108]
	ldr	s1, [sp, 104]
	ldr	s0, [sp, 100]
	ldr	x0, [sp, 24]
	bl	_ZL23stbtt__csctx_rccurve_toP12stbtt__csctxffffff
	ldr	s5, [sp, 88]
	ldr	s4, [sp, 84]
	ldr	s3, [sp, 136]
	ldr	s2, [sp, 132]
	ldr	s1, [sp, 128]
	ldr	s0, [sp, 124]
	ldr	x0, [sp, 24]
	bl	_ZL23stbtt__csctx_rccurve_toP12stbtt__csctxffffff
	b	.L603
.L598:
	mov	w0, 0
	b	.L615
.L603:
	b	.L549
.L527:
	ldr	w0, [sp, 92]
	cmp	w0, 255
	beq	.L610
	ldr	w0, [sp, 92]
	cmp	w0, 28
	beq	.L610
	ldr	w0, [sp, 92]
	cmp	w0, 31
	bgt	.L610
	mov	w0, 0
	b	.L615
.L610:
	ldr	w0, [sp, 92]
	cmp	w0, 255
	bne	.L611
	add	x0, sp, 168
	mov	w1, 4
	bl	_ZL14stbtt__buf_getP10stbtt__bufi
	fmov	s0, w0
	scvtf	s0, s0
	mov	w0, 1199570944
	fmov	s1, w0
	fdiv	s0, s0, s1
	str	s0, [sp, 80]
	b	.L612
.L611:
	add	x0, sp, 168
	mov	w1, -1
	bl	_ZL15stbtt__buf_skipP10stbtt__bufi
	add	x0, sp, 168
	bl	_ZL14stbtt__cff_intP10stbtt__buf
	sxth	w0, w0
	scvtf	s0, w0
	str	s0, [sp, 80]
.L612:
	ldr	w0, [sp, 64]
	cmp	w0, 47
	ble	.L613
	mov	w0, 0
	b	.L615
.L613:
	ldr	s0, [sp, 80]
	ldr	w0, [sp, 64]
	add	w1, w0, 1
	str	w1, [sp, 64]
	sxtw	x0, w0
	lsl	x0, x0, 2
	add	x1, sp, 344
	str	s0, [x1, x0]
	str	wzr, [sp, 76]
	nop
.L549:
	ldr	w0, [sp, 76]
	cmp	w0, 0
	beq	.L526
	str	wzr, [sp, 64]
.L526:
	ldr	w1, [sp, 176]
	ldr	w0, [sp, 180]
	cmp	w1, w0
	blt	.L614
	mov	w0, 0
.L615:
	mov	w1, w0
	adrp	x0, :got:__stack_chk_guard
	ldr	x0, [x0, #:got_lo12:__stack_chk_guard]
	ldr	x3, [sp, 536]
	ldr	x2, [x0]
	subs	x3, x3, x2
	mov	x2, 0
	beq	.L616
	bl	__stack_chk_fail
.L616:
	mov	w0, w1
	ldp	x29, x30, [sp]
	add	sp, sp, 544
	.cfi_restore 29
	.cfi_restore 30
	.cfi_def_cfa_offset 0
	ret
	.cfi_endproc
.LFE1619:
	.size	_ZL21stbtt__run_charstringPK14stbtt_fontinfoiP12stbtt__csctx, .-_ZL21stbtt__run_charstringPK14stbtt_fontinfoiP12stbtt__csctx
	.section	.rodata
	.align	3
.LC50:
	.string	"int stbtt__GetGlyphShapeT2(const stbtt_fontinfo*, int, stbtt_vertex**)"
	.align	3
.LC51:
	.string	"output_ctx.num_vertices == count_ctx.num_vertices"
	.text
	.align	2
	.type	_ZL22stbtt__GetGlyphShapeT2PK14stbtt_fontinfoiPP12stbtt_vertex, %function
_ZL22stbtt__GetGlyphShapeT2PK14stbtt_fontinfoiPP12stbtt_vertex:
.LFB1620:
	.cfi_startproc
	stp	x29, x30, [sp, -176]!
	.cfi_def_cfa_offset 176
	.cfi_offset 29, -176
	.cfi_offset 30, -168
	mov	x29, sp
	str	x0, [sp, 40]
	str	w1, [sp, 36]
	str	x2, [sp, 24]
	adrp	x0, :got:__stack_chk_guard
	ldr	x0, [x0, #:got_lo12:__stack_chk_guard]
	ldr	x1, [x0]
	str	x1, [sp, 168]
	mov	x1, 0
	add	x0, sp, 56
	movi	v0.4s, 0
	stp	q0, q0, [x0]
	str	q0, [x0, 32]
	fmov	x1, d0
	str	x1, [x0, 48]
	mov	w0, 1
	str	w0, [sp, 56]
	add	x0, sp, 112
	movi	v0.4s, 0
	stp	q0, q0, [x0]
	str	q0, [x0, 32]
	fmov	x1, d0
	str	x1, [x0, 48]
	add	x0, sp, 56
	mov	x2, x0
	ldr	w1, [sp, 36]
	ldr	x0, [sp, 40]
	bl	_ZL21stbtt__run_charstringPK14stbtt_fontinfoiP12stbtt__csctx
	cmp	w0, 0
	cset	w0, ne
	and	w0, w0, 255
	cmp	w0, 0
	beq	.L628
	ldr	w0, [sp, 104]
	sxtw	x1, w0
	mov	x0, x1
	lsl	x0, x0, 3
	sub	x0, x0, x1
	lsl	x0, x0, 1
	bl	_ZN5ImGui8MemAllocEm
	mov	x1, x0
	ldr	x0, [sp, 24]
	str	x1, [x0]
	ldr	x0, [sp, 24]
	ldr	x0, [x0]
	str	x0, [sp, 152]
	add	x0, sp, 112
	mov	x2, x0
	ldr	w1, [sp, 36]
	ldr	x0, [sp, 40]
	bl	_ZL21stbtt__run_charstringPK14stbtt_fontinfoiP12stbtt__csctx
	cmp	w0, 0
	cset	w0, ne
	and	w0, w0, 255
	cmp	w0, 0
	beq	.L628
	ldr	w1, [sp, 160]
	ldr	w0, [sp, 104]
	cmp	w1, w0
	beq	.L629
	adrp	x0, .LC50
	add	x3, x0, :lo12:.LC50
	mov	w2, 2283
	adrp	x0, .LC22
	add	x1, x0, :lo12:.LC22
	adrp	x0, .LC51
	add	x0, x0, :lo12:.LC51
	bl	__assert_fail
.L629:
	ldr	w0, [sp, 160]
	b	.L631
.L628:
	ldr	x0, [sp, 24]
	str	xzr, [x0]
	mov	w0, 0
.L631:
	mov	w1, w0
	adrp	x0, :got:__stack_chk_guard
	ldr	x0, [x0, #:got_lo12:__stack_chk_guard]
	ldr	x3, [sp, 168]
	ldr	x2, [x0]
	subs	x3, x3, x2
	mov	x2, 0
	beq	.L632
	bl	__stack_chk_fail
.L632:
	mov	w0, w1
	ldp	x29, x30, [sp], 176
	.cfi_restore 30
	.cfi_restore 29
	.cfi_def_cfa_offset 0
	ret
	.cfi_endproc
.LFE1620:
	.size	_ZL22stbtt__GetGlyphShapeT2PK14stbtt_fontinfoiPP12stbtt_vertex, .-_ZL22stbtt__GetGlyphShapeT2PK14stbtt_fontinfoiPP12stbtt_vertex
	.align	2
	.type	_ZL21stbtt__GetGlyphInfoT2PK14stbtt_fontinfoiPiS2_S2_S2_, %function
_ZL21stbtt__GetGlyphInfoT2PK14stbtt_fontinfoiPiS2_S2_S2_:
.LFB1621:
	.cfi_startproc
	stp	x29, x30, [sp, -144]!
	.cfi_def_cfa_offset 144
	.cfi_offset 29, -144
	.cfi_offset 30, -136
	mov	x29, sp
	str	x0, [sp, 56]
	str	w1, [sp, 52]
	str	x2, [sp, 40]
	str	x3, [sp, 32]
	str	x4, [sp, 24]
	str	x5, [sp, 16]
	adrp	x0, :got:__stack_chk_guard
	ldr	x0, [x0, #:got_lo12:__stack_chk_guard]
	ldr	x1, [x0]
	str	x1, [sp, 136]
	mov	x1, 0
	add	x0, sp, 80
	movi	v0.4s, 0
	stp	q0, q0, [x0]
	str	q0, [x0, 32]
	fmov	x1, d0
	str	x1, [x0, 48]
	mov	w0, 1
	str	w0, [sp, 80]
	add	x0, sp, 80
	mov	x2, x0
	ldr	w1, [sp, 52]
	ldr	x0, [sp, 56]
	bl	_ZL21stbtt__run_charstringPK14stbtt_fontinfoiP12stbtt__csctx
	str	w0, [sp, 76]
	ldr	x0, [sp, 40]
	cmp	x0, 0
	beq	.L634
	ldr	w0, [sp, 76]
	cmp	w0, 0
	beq	.L635
	ldr	w0, [sp, 104]
	b	.L636
.L635:
	mov	w0, 0
.L636:
	ldr	x1, [sp, 40]
	str	w0, [x1]
.L634:
	ldr	x0, [sp, 32]
	cmp	x0, 0
	beq	.L637
	ldr	w0, [sp, 76]
	cmp	w0, 0
	beq	.L638
	ldr	w0, [sp, 112]
	b	.L639
.L638:
	mov	w0, 0
.L639:
	ldr	x1, [sp, 32]
	str	w0, [x1]
.L637:
	ldr	x0, [sp, 24]
	cmp	x0, 0
	beq	.L640
	ldr	w0, [sp, 76]
	cmp	w0, 0
	beq	.L641
	ldr	w0, [sp, 108]
	b	.L642
.L641:
	mov	w0, 0
.L642:
	ldr	x1, [sp, 24]
	str	w0, [x1]
.L640:
	ldr	x0, [sp, 16]
	cmp	x0, 0
	beq	.L643
	ldr	w0, [sp, 76]
	cmp	w0, 0
	beq	.L644
	ldr	w0, [sp, 116]
	b	.L645
.L644:
	mov	w0, 0
.L645:
	ldr	x1, [sp, 16]
	str	w0, [x1]
.L643:
	ldr	w0, [sp, 76]
	cmp	w0, 0
	beq	.L646
	ldr	w0, [sp, 128]
	b	.L648
.L646:
	mov	w0, 0
.L648:
	mov	w1, w0
	adrp	x0, :got:__stack_chk_guard
	ldr	x0, [x0, #:got_lo12:__stack_chk_guard]
	ldr	x3, [sp, 136]
	ldr	x2, [x0]
	subs	x3, x3, x2
	mov	x2, 0
	beq	.L649
	bl	__stack_chk_fail
.L649:
	mov	w0, w1
	ldp	x29, x30, [sp], 144
	.cfi_restore 30
	.cfi_restore 29
	.cfi_def_cfa_offset 0
	ret
	.cfi_endproc
.LFE1621:
	.size	_ZL21stbtt__GetGlyphInfoT2PK14stbtt_fontinfoiPiS2_S2_S2_, .-_ZL21stbtt__GetGlyphInfoT2PK14stbtt_fontinfoiPiS2_S2_S2_
	.align	2
	.type	stbtt_GetGlyphShape, %function
stbtt_GetGlyphShape:
.LFB1622:
	.cfi_startproc
	stp	x29, x30, [sp, -48]!
	.cfi_def_cfa_offset 48
	.cfi_offset 29, -48
	.cfi_offset 30, -40
	mov	x29, sp
	str	x0, [sp, 40]
	str	w1, [sp, 36]
	str	x2, [sp, 24]
	ldr	x0, [sp, 40]
	ldr	w0, [x0, 76]
	cmp	w0, 0
	bne	.L651
	ldr	x2, [sp, 24]
	ldr	w1, [sp, 36]
	ldr	x0, [sp, 40]
	bl	_ZL22stbtt__GetGlyphShapeTTPK14stbtt_fontinfoiPP12stbtt_vertex
	b	.L652
.L651:
	ldr	x2, [sp, 24]
	ldr	w1, [sp, 36]
	ldr	x0, [sp, 40]
	bl	_ZL22stbtt__GetGlyphShapeT2PK14stbtt_fontinfoiPP12stbtt_vertex
	nop
.L652:
	ldp	x29, x30, [sp], 48
	.cfi_restore 30
	.cfi_restore 29
	.cfi_def_cfa_offset 0
	ret
	.cfi_endproc
.LFE1622:
	.size	stbtt_GetGlyphShape, .-stbtt_GetGlyphShape
	.align	2
	.type	stbtt_GetGlyphHMetrics, %function
stbtt_GetGlyphHMetrics:
.LFB1623:
	.cfi_startproc
	stp	x29, x30, [sp, -64]!
	.cfi_def_cfa_offset 64
	.cfi_offset 29, -64
	.cfi_offset 30, -56
	mov	x29, sp
	str	x0, [sp, 40]
	str	w1, [sp, 36]
	str	x2, [sp, 24]
	str	x3, [sp, 16]
	ldr	x0, [sp, 40]
	ldr	x1, [x0, 8]
	ldr	x0, [sp, 40]
	ldr	w0, [x0, 36]
	sxtw	x0, w0
	add	x0, x0, 34
	add	x0, x1, x0
	bl	_ZL8ttUSHORTPh
	strh	w0, [sp, 62]
	ldrh	w0, [sp, 62]
	ldr	w1, [sp, 36]
	cmp	w1, w0
	bge	.L654
	ldr	x0, [sp, 24]
	cmp	x0, 0
	beq	.L655
	ldr	x0, [sp, 40]
	ldr	x1, [x0, 8]
	ldr	x0, [sp, 40]
	ldr	w0, [x0, 40]
	sxtw	x2, w0
	ldr	w0, [sp, 36]
	lsl	w0, w0, 2
	sxtw	x0, w0
	add	x0, x2, x0
	add	x0, x1, x0
	bl	_ZL7ttSHORTPh
	sxth	w0, w0
	mov	w1, w0
	ldr	x0, [sp, 24]
	str	w1, [x0]
.L655:
	ldr	x0, [sp, 16]
	cmp	x0, 0
	beq	.L658
	ldr	x0, [sp, 40]
	ldr	x1, [x0, 8]
	ldr	x0, [sp, 40]
	ldr	w0, [x0, 40]
	sxtw	x2, w0
	ldr	w0, [sp, 36]
	lsl	w0, w0, 2
	sxtw	x0, w0
	add	x0, x2, x0
	add	x0, x0, 2
	add	x0, x1, x0
	bl	_ZL7ttSHORTPh
	sxth	w0, w0
	mov	w1, w0
	ldr	x0, [sp, 16]
	str	w1, [x0]
	b	.L658
.L654:
	ldr	x0, [sp, 24]
	cmp	x0, 0
	beq	.L657
	ldr	x0, [sp, 40]
	ldr	x1, [x0, 8]
	ldr	x0, [sp, 40]
	ldr	w0, [x0, 40]
	sxtw	x2, w0
	ldrh	w0, [sp, 62]
	sub	w0, w0, #1
	lsl	w0, w0, 2
	sxtw	x0, w0
	add	x0, x2, x0
	add	x0, x1, x0
	bl	_ZL7ttSHORTPh
	sxth	w0, w0
	mov	w1, w0
	ldr	x0, [sp, 24]
	str	w1, [x0]
.L657:
	ldr	x0, [sp, 16]
	cmp	x0, 0
	beq	.L658
	ldr	x0, [sp, 40]
	ldr	x1, [x0, 8]
	ldr	x0, [sp, 40]
	ldr	w0, [x0, 40]
	sxtw	x2, w0
	ldrh	w0, [sp, 62]
	lsl	w0, w0, 2
	sxtw	x0, w0
	add	x2, x2, x0
	ldrh	w0, [sp, 62]
	ldr	w3, [sp, 36]
	sub	w0, w3, w0
	lsl	w0, w0, 1
	sxtw	x0, w0
	add	x0, x2, x0
	add	x0, x1, x0
	bl	_ZL7ttSHORTPh
	sxth	w0, w0
	mov	w1, w0
	ldr	x0, [sp, 16]
	str	w1, [x0]
.L658:
	nop
	ldp	x29, x30, [sp], 64
	.cfi_restore 30
	.cfi_restore 29
	.cfi_def_cfa_offset 0
	ret
	.cfi_endproc
.LFE1623:
	.size	stbtt_GetGlyphHMetrics, .-stbtt_GetGlyphHMetrics
	.align	2
	.type	stbtt_GetKerningTableLength, %function
stbtt_GetKerningTableLength:
.LFB1624:
	.cfi_startproc
	stp	x29, x30, [sp, -48]!
	.cfi_def_cfa_offset 48
	.cfi_offset 29, -48
	.cfi_offset 30, -40
	mov	x29, sp
	str	x0, [sp, 24]
	ldr	x0, [sp, 24]
	ldr	x1, [x0, 8]
	ldr	x0, [sp, 24]
	ldr	w0, [x0, 44]
	sxtw	x0, w0
	add	x0, x1, x0
	str	x0, [sp, 40]
	ldr	x0, [sp, 24]
	ldr	w0, [x0, 44]
	cmp	w0, 0
	bne	.L660
	mov	w0, 0
	b	.L661
.L660:
	ldr	x0, [sp, 40]
	add	x0, x0, 2
	bl	_ZL8ttUSHORTPh
	and	w0, w0, 65535
	cmp	w0, 0
	cset	w0, eq
	and	w0, w0, 255
	cmp	w0, 0
	beq	.L662
	mov	w0, 0
	b	.L661
.L662:
	ldr	x0, [sp, 40]
	add	x0, x0, 8
	bl	_ZL8ttUSHORTPh
	and	w0, w0, 65535
	cmp	w0, 1
	cset	w0, ne
	and	w0, w0, 255
	cmp	w0, 0
	beq	.L663
	mov	w0, 0
	b	.L661
.L663:
	ldr	x0, [sp, 40]
	add	x0, x0, 10
	bl	_ZL8ttUSHORTPh
	and	w0, w0, 65535
.L661:
	ldp	x29, x30, [sp], 48
	.cfi_restore 30
	.cfi_restore 29
	.cfi_def_cfa_offset 0
	ret
	.cfi_endproc
.LFE1624:
	.size	stbtt_GetKerningTableLength, .-stbtt_GetKerningTableLength
	.align	2
	.type	stbtt_GetKerningTable, %function
stbtt_GetKerningTable:
.LFB1625:
	.cfi_startproc
	stp	x29, x30, [sp, -64]!
	.cfi_def_cfa_offset 64
	.cfi_offset 29, -64
	.cfi_offset 30, -56
	mov	x29, sp
	str	x0, [sp, 40]
	str	x1, [sp, 32]
	str	w2, [sp, 28]
	ldr	x0, [sp, 40]
	ldr	x1, [x0, 8]
	ldr	x0, [sp, 40]
	ldr	w0, [x0, 44]
	sxtw	x0, w0
	add	x0, x1, x0
	str	x0, [sp, 56]
	ldr	x0, [sp, 40]
	ldr	w0, [x0, 44]
	cmp	w0, 0
	bne	.L665
	mov	w0, 0
	b	.L666
.L665:
	ldr	x0, [sp, 56]
	add	x0, x0, 2
	bl	_ZL8ttUSHORTPh
	and	w0, w0, 65535
	cmp	w0, 0
	cset	w0, eq
	and	w0, w0, 255
	cmp	w0, 0
	beq	.L667
	mov	w0, 0
	b	.L666
.L667:
	ldr	x0, [sp, 56]
	add	x0, x0, 8
	bl	_ZL8ttUSHORTPh
	and	w0, w0, 65535
	cmp	w0, 1
	cset	w0, ne
	and	w0, w0, 255
	cmp	w0, 0
	beq	.L668
	mov	w0, 0
	b	.L666
.L668:
	ldr	x0, [sp, 56]
	add	x0, x0, 10
	bl	_ZL8ttUSHORTPh
	and	w0, w0, 65535
	str	w0, [sp, 52]
	ldr	w1, [sp, 28]
	ldr	w0, [sp, 52]
	cmp	w1, w0
	bge	.L669
	ldr	w0, [sp, 28]
	str	w0, [sp, 52]
.L669:
	str	wzr, [sp, 48]
	b	.L670
.L671:
	ldr	w1, [sp, 48]
	mov	w0, w1
	lsl	w0, w0, 1
	add	w0, w0, w1
	lsl	w0, w0, 1
	sxtw	x0, w0
	add	x0, x0, 18
	ldr	x1, [sp, 56]
	add	x0, x1, x0
	bl	_ZL8ttUSHORTPh
	and	w2, w0, 65535
	ldrsw	x1, [sp, 48]
	mov	x0, x1
	lsl	x0, x0, 1
	add	x0, x0, x1
	lsl	x0, x0, 2
	mov	x1, x0
	ldr	x0, [sp, 32]
	add	x0, x0, x1
	mov	w1, w2
	str	w1, [x0]
	ldr	w1, [sp, 48]
	mov	w0, w1
	lsl	w0, w0, 1
	add	w0, w0, w1
	lsl	w0, w0, 1
	sxtw	x0, w0
	add	x0, x0, 20
	ldr	x1, [sp, 56]
	add	x0, x1, x0
	bl	_ZL8ttUSHORTPh
	and	w2, w0, 65535
	ldrsw	x1, [sp, 48]
	mov	x0, x1
	lsl	x0, x0, 1
	add	x0, x0, x1
	lsl	x0, x0, 2
	mov	x1, x0
	ldr	x0, [sp, 32]
	add	x0, x0, x1
	mov	w1, w2
	str	w1, [x0, 4]
	ldr	w1, [sp, 48]
	mov	w0, w1
	lsl	w0, w0, 1
	add	w0, w0, w1
	lsl	w0, w0, 1
	sxtw	x0, w0
	add	x0, x0, 22
	ldr	x1, [sp, 56]
	add	x0, x1, x0
	bl	_ZL7ttSHORTPh
	sxth	w2, w0
	ldrsw	x1, [sp, 48]
	mov	x0, x1
	lsl	x0, x0, 1
	add	x0, x0, x1
	lsl	x0, x0, 2
	mov	x1, x0
	ldr	x0, [sp, 32]
	add	x0, x0, x1
	mov	w1, w2
	str	w1, [x0, 8]
	ldr	w0, [sp, 48]
	add	w0, w0, 1
	str	w0, [sp, 48]
.L670:
	ldr	w1, [sp, 48]
	ldr	w0, [sp, 52]
	cmp	w1, w0
	blt	.L671
	ldr	w0, [sp, 52]
.L666:
	ldp	x29, x30, [sp], 64
	.cfi_restore 30
	.cfi_restore 29
	.cfi_def_cfa_offset 0
	ret
	.cfi_endproc
.LFE1625:
	.size	stbtt_GetKerningTable, .-stbtt_GetKerningTable
	.align	2
	.type	_ZL30stbtt__GetGlyphKernInfoAdvancePK14stbtt_fontinfoii, %function
_ZL30stbtt__GetGlyphKernInfoAdvancePK14stbtt_fontinfoii:
.LFB1626:
	.cfi_startproc
	stp	x29, x30, [sp, -64]!
	.cfi_def_cfa_offset 64
	.cfi_offset 29, -64
	.cfi_offset 30, -56
	mov	x29, sp
	str	x0, [sp, 24]
	str	w1, [sp, 20]
	str	w2, [sp, 16]
	ldr	x0, [sp, 24]
	ldr	x1, [x0, 8]
	ldr	x0, [sp, 24]
	ldr	w0, [x0, 44]
	sxtw	x0, w0
	add	x0, x1, x0
	str	x0, [sp, 56]
	ldr	x0, [sp, 24]
	ldr	w0, [x0, 44]
	cmp	w0, 0
	bne	.L673
	mov	w0, 0
	b	.L674
.L673:
	ldr	x0, [sp, 56]
	add	x0, x0, 2
	bl	_ZL8ttUSHORTPh
	and	w0, w0, 65535
	cmp	w0, 0
	cset	w0, eq
	and	w0, w0, 255
	cmp	w0, 0
	beq	.L675
	mov	w0, 0
	b	.L674
.L675:
	ldr	x0, [sp, 56]
	add	x0, x0, 8
	bl	_ZL8ttUSHORTPh
	and	w0, w0, 65535
	cmp	w0, 1
	cset	w0, ne
	and	w0, w0, 255
	cmp	w0, 0
	beq	.L676
	mov	w0, 0
	b	.L674
.L676:
	str	wzr, [sp, 36]
	ldr	x0, [sp, 56]
	add	x0, x0, 10
	bl	_ZL8ttUSHORTPh
	and	w0, w0, 65535
	sub	w0, w0, #1
	str	w0, [sp, 40]
	ldr	w0, [sp, 20]
	lsl	w1, w0, 16
	ldr	w0, [sp, 16]
	orr	w0, w1, w0
	str	w0, [sp, 44]
	b	.L677
.L680:
	ldr	w1, [sp, 36]
	ldr	w0, [sp, 40]
	add	w0, w1, w0
	asr	w0, w0, 1
	str	w0, [sp, 48]
	ldr	w1, [sp, 48]
	mov	w0, w1
	lsl	w0, w0, 1
	add	w0, w0, w1
	lsl	w0, w0, 1
	sxtw	x0, w0
	add	x0, x0, 18
	ldr	x1, [sp, 56]
	add	x0, x1, x0
	bl	_ZL7ttULONGPh
	str	w0, [sp, 52]
	ldr	w1, [sp, 44]
	ldr	w0, [sp, 52]
	cmp	w1, w0
	bcs	.L678
	ldr	w0, [sp, 48]
	sub	w0, w0, #1
	str	w0, [sp, 40]
	b	.L677
.L678:
	ldr	w1, [sp, 44]
	ldr	w0, [sp, 52]
	cmp	w1, w0
	bls	.L679
	ldr	w0, [sp, 48]
	add	w0, w0, 1
	str	w0, [sp, 36]
	b	.L677
.L679:
	ldr	w1, [sp, 48]
	mov	w0, w1
	lsl	w0, w0, 1
	add	w0, w0, w1
	lsl	w0, w0, 1
	sxtw	x0, w0
	add	x0, x0, 22
	ldr	x1, [sp, 56]
	add	x0, x1, x0
	bl	_ZL7ttSHORTPh
	sxth	w0, w0
	b	.L674
.L677:
	ldr	w1, [sp, 36]
	ldr	w0, [sp, 40]
	cmp	w1, w0
	ble	.L680
	mov	w0, 0
.L674:
	ldp	x29, x30, [sp], 64
	.cfi_restore 30
	.cfi_restore 29
	.cfi_def_cfa_offset 0
	ret
	.cfi_endproc
.LFE1626:
	.size	_ZL30stbtt__GetGlyphKernInfoAdvancePK14stbtt_fontinfoii, .-_ZL30stbtt__GetGlyphKernInfoAdvancePK14stbtt_fontinfoii
	.align	2
	.type	_ZL23stbtt__GetCoverageIndexPhi, %function
_ZL23stbtt__GetCoverageIndexPhi:
.LFB1627:
	.cfi_startproc
	stp	x29, x30, [sp, -112]!
	.cfi_def_cfa_offset 112
	.cfi_offset 29, -112
	.cfi_offset 30, -104
	mov	x29, sp
	str	x0, [sp, 24]
	str	w1, [sp, 20]
	ldr	x0, [sp, 24]
	bl	_ZL8ttUSHORTPh
	strh	w0, [sp, 34]
	ldrh	w0, [sp, 34]
	cmp	w0, 1
	beq	.L682
	cmp	w0, 2
	beq	.L683
	b	.L695
.L682:
	ldr	x0, [sp, 24]
	add	x0, x0, 2
	bl	_ZL8ttUSHORTPh
	strh	w0, [sp, 40]
	str	wzr, [sp, 44]
	ldrh	w0, [sp, 40]
	sub	w0, w0, #1
	str	w0, [sp, 48]
	ldr	w0, [sp, 20]
	str	w0, [sp, 76]
	b	.L685
.L689:
	ldr	x0, [sp, 24]
	add	x0, x0, 4
	str	x0, [sp, 104]
	ldr	w1, [sp, 44]
	ldr	w0, [sp, 48]
	add	w0, w1, w0
	asr	w0, w0, 1
	str	w0, [sp, 80]
	ldr	w0, [sp, 80]
	lsl	w0, w0, 1
	sxtw	x0, w0
	ldr	x1, [sp, 104]
	add	x0, x1, x0
	bl	_ZL8ttUSHORTPh
	strh	w0, [sp, 42]
	ldrh	w0, [sp, 42]
	str	w0, [sp, 84]
	ldr	w1, [sp, 76]
	ldr	w0, [sp, 84]
	cmp	w1, w0
	bge	.L686
	ldr	w0, [sp, 80]
	sub	w0, w0, #1
	str	w0, [sp, 48]
	b	.L685
.L686:
	ldr	w1, [sp, 76]
	ldr	w0, [sp, 84]
	cmp	w1, w0
	ble	.L687
	ldr	w0, [sp, 80]
	add	w0, w0, 1
	str	w0, [sp, 44]
	b	.L685
.L687:
	ldr	w0, [sp, 80]
	b	.L688
.L685:
	ldr	w1, [sp, 44]
	ldr	w0, [sp, 48]
	cmp	w1, w0
	ble	.L689
	b	.L690
.L683:
	ldr	x0, [sp, 24]
	add	x0, x0, 2
	bl	_ZL8ttUSHORTPh
	strh	w0, [sp, 36]
	ldr	x0, [sp, 24]
	add	x0, x0, 4
	str	x0, [sp, 88]
	str	wzr, [sp, 52]
	ldrh	w0, [sp, 36]
	sub	w0, w0, #1
	str	w0, [sp, 56]
	ldr	w0, [sp, 20]
	str	w0, [sp, 60]
	b	.L691
.L694:
	ldr	w1, [sp, 52]
	ldr	w0, [sp, 56]
	add	w0, w1, w0
	asr	w0, w0, 1
	str	w0, [sp, 64]
	ldr	w1, [sp, 64]
	mov	w0, w1
	lsl	w0, w0, 1
	add	w0, w0, w1
	lsl	w0, w0, 1
	sxtw	x0, w0
	ldr	x1, [sp, 88]
	add	x0, x1, x0
	str	x0, [sp, 96]
	ldr	x0, [sp, 96]
	bl	_ZL8ttUSHORTPh
	and	w0, w0, 65535
	str	w0, [sp, 68]
	ldr	x0, [sp, 96]
	add	x0, x0, 2
	bl	_ZL8ttUSHORTPh
	and	w0, w0, 65535
	str	w0, [sp, 72]
	ldr	w1, [sp, 60]
	ldr	w0, [sp, 68]
	cmp	w1, w0
	bge	.L692
	ldr	w0, [sp, 64]
	sub	w0, w0, #1
	str	w0, [sp, 56]
	b	.L691
.L692:
	ldr	w1, [sp, 60]
	ldr	w0, [sp, 72]
	cmp	w1, w0
	ble	.L693
	ldr	w0, [sp, 64]
	add	w0, w0, 1
	str	w0, [sp, 52]
	b	.L691
.L693:
	ldr	x0, [sp, 96]
	add	x0, x0, 4
	bl	_ZL8ttUSHORTPh
	strh	w0, [sp, 38]
	ldrh	w1, [sp, 38]
	ldr	w0, [sp, 20]
	add	w1, w1, w0
	ldr	w0, [sp, 68]
	sub	w0, w1, w0
	b	.L688
.L691:
	ldr	w1, [sp, 52]
	ldr	w0, [sp, 56]
	cmp	w1, w0
	ble	.L694
	b	.L690
.L695:
	mov	w0, -1
	b	.L688
.L690:
	mov	w0, -1
.L688:
	ldp	x29, x30, [sp], 112
	.cfi_restore 30
	.cfi_restore 29
	.cfi_def_cfa_offset 0
	ret
	.cfi_endproc
.LFE1627:
	.size	_ZL23stbtt__GetCoverageIndexPhi, .-_ZL23stbtt__GetCoverageIndexPhi
	.align	2
	.type	_ZL20stbtt__GetGlyphClassPhi, %function
_ZL20stbtt__GetGlyphClassPhi:
.LFB1628:
	.cfi_startproc
	stp	x29, x30, [sp, -96]!
	.cfi_def_cfa_offset 96
	.cfi_offset 29, -96
	.cfi_offset 30, -88
	mov	x29, sp
	str	x0, [sp, 24]
	str	w1, [sp, 20]
	ldr	x0, [sp, 24]
	bl	_ZL8ttUSHORTPh
	strh	w0, [sp, 40]
	ldrh	w0, [sp, 40]
	cmp	w0, 1
	beq	.L697
	cmp	w0, 2
	beq	.L698
	b	.L707
.L697:
	ldr	x0, [sp, 24]
	add	x0, x0, 2
	bl	_ZL8ttUSHORTPh
	strh	w0, [sp, 44]
	ldr	x0, [sp, 24]
	add	x0, x0, 4
	bl	_ZL8ttUSHORTPh
	strh	w0, [sp, 46]
	ldr	x0, [sp, 24]
	add	x0, x0, 6
	str	x0, [sp, 88]
	ldrh	w0, [sp, 44]
	ldr	w1, [sp, 20]
	cmp	w1, w0
	blt	.L708
	ldrh	w1, [sp, 44]
	ldrh	w0, [sp, 46]
	add	w0, w1, w0
	ldr	w1, [sp, 20]
	cmp	w1, w0
	bge	.L708
	ldrh	w0, [sp, 44]
	ldr	w1, [sp, 20]
	sub	w0, w1, w0
	lsl	w0, w0, 1
	sxtw	x0, w0
	ldr	x1, [sp, 88]
	add	x0, x1, x0
	bl	_ZL8ttUSHORTPh
	and	w0, w0, 65535
	b	.L701
.L698:
	ldr	x0, [sp, 24]
	add	x0, x0, 2
	bl	_ZL8ttUSHORTPh
	strh	w0, [sp, 42]
	ldr	x0, [sp, 24]
	add	x0, x0, 4
	str	x0, [sp, 72]
	str	wzr, [sp, 48]
	ldrh	w0, [sp, 42]
	sub	w0, w0, #1
	str	w0, [sp, 52]
	ldr	w0, [sp, 20]
	str	w0, [sp, 56]
	b	.L703
.L706:
	ldr	w1, [sp, 48]
	ldr	w0, [sp, 52]
	add	w0, w1, w0
	asr	w0, w0, 1
	str	w0, [sp, 60]
	ldr	w1, [sp, 60]
	mov	w0, w1
	lsl	w0, w0, 1
	add	w0, w0, w1
	lsl	w0, w0, 1
	sxtw	x0, w0
	ldr	x1, [sp, 72]
	add	x0, x1, x0
	str	x0, [sp, 80]
	ldr	x0, [sp, 80]
	bl	_ZL8ttUSHORTPh
	and	w0, w0, 65535
	str	w0, [sp, 64]
	ldr	x0, [sp, 80]
	add	x0, x0, 2
	bl	_ZL8ttUSHORTPh
	and	w0, w0, 65535
	str	w0, [sp, 68]
	ldr	w1, [sp, 56]
	ldr	w0, [sp, 64]
	cmp	w1, w0
	bge	.L704
	ldr	w0, [sp, 60]
	sub	w0, w0, #1
	str	w0, [sp, 52]
	b	.L703
.L704:
	ldr	w1, [sp, 56]
	ldr	w0, [sp, 68]
	cmp	w1, w0
	ble	.L705
	ldr	w0, [sp, 60]
	add	w0, w0, 1
	str	w0, [sp, 48]
	b	.L703
.L705:
	ldr	x0, [sp, 80]
	add	x0, x0, 4
	bl	_ZL8ttUSHORTPh
	and	w0, w0, 65535
	b	.L701
.L703:
	ldr	w1, [sp, 48]
	ldr	w0, [sp, 52]
	cmp	w1, w0
	ble	.L706
	b	.L702
.L707:
	mov	w0, -1
	b	.L701
.L708:
	nop
.L702:
	mov	w0, 0
.L701:
	ldp	x29, x30, [sp], 96
	.cfi_restore 30
	.cfi_restore 29
	.cfi_def_cfa_offset 0
	ret
	.cfi_endproc
.LFE1628:
	.size	_ZL20stbtt__GetGlyphClassPhi, .-_ZL20stbtt__GetGlyphClassPhi
	.align	2
	.type	_ZL30stbtt__GetGlyphGPOSInfoAdvancePK14stbtt_fontinfoii, %function
_ZL30stbtt__GetGlyphGPOSInfoAdvancePK14stbtt_fontinfoii:
.LFB1629:
	.cfi_startproc
	stp	x29, x30, [sp, -208]!
	.cfi_def_cfa_offset 208
	.cfi_offset 29, -208
	.cfi_offset 30, -200
	mov	x29, sp
	str	x0, [sp, 24]
	str	w1, [sp, 20]
	str	w2, [sp, 16]
	ldr	x0, [sp, 24]
	ldr	w0, [x0, 48]
	cmp	w0, 0
	bne	.L710
	mov	w0, 0
	b	.L711
.L710:
	ldr	x0, [sp, 24]
	ldr	x1, [x0, 8]
	ldr	x0, [sp, 24]
	ldr	w0, [x0, 48]
	sxtw	x0, w0
	add	x0, x1, x0
	str	x0, [sp, 128]
	ldr	x0, [sp, 128]
	bl	_ZL8ttUSHORTPh
	and	w0, w0, 65535
	cmp	w0, 1
	cset	w0, ne
	and	w0, w0, 255
	cmp	w0, 0
	beq	.L712
	mov	w0, 0
	b	.L711
.L712:
	ldr	x0, [sp, 128]
	add	x0, x0, 2
	bl	_ZL8ttUSHORTPh
	and	w0, w0, 65535
	cmp	w0, 0
	cset	w0, ne
	and	w0, w0, 255
	cmp	w0, 0
	beq	.L713
	mov	w0, 0
	b	.L711
.L713:
	ldr	x0, [sp, 128]
	add	x0, x0, 8
	bl	_ZL8ttUSHORTPh
	strh	w0, [sp, 40]
	ldrh	w0, [sp, 40]
	ldr	x1, [sp, 128]
	add	x0, x1, x0
	str	x0, [sp, 136]
	ldr	x0, [sp, 136]
	bl	_ZL8ttUSHORTPh
	strh	w0, [sp, 42]
	str	wzr, [sp, 84]
	b	.L714
.L736:
	ldr	w0, [sp, 84]
	lsl	w0, w0, 1
	sxtw	x0, w0
	add	x0, x0, 2
	ldr	x1, [sp, 136]
	add	x0, x1, x0
	bl	_ZL8ttUSHORTPh
	strh	w0, [sp, 44]
	ldrh	w0, [sp, 44]
	ldr	x1, [sp, 136]
	add	x0, x1, x0
	str	x0, [sp, 144]
	ldr	x0, [sp, 144]
	bl	_ZL8ttUSHORTPh
	strh	w0, [sp, 46]
	ldr	x0, [sp, 144]
	add	x0, x0, 4
	bl	_ZL8ttUSHORTPh
	strh	w0, [sp, 48]
	ldr	x0, [sp, 144]
	add	x0, x0, 6
	str	x0, [sp, 152]
	ldrh	w0, [sp, 46]
	cmp	w0, 2
	bne	.L739
	str	wzr, [sp, 88]
	b	.L717
.L735:
	ldr	w0, [sp, 88]
	lsl	w0, w0, 1
	sxtw	x0, w0
	ldr	x1, [sp, 152]
	add	x0, x1, x0
	bl	_ZL8ttUSHORTPh
	strh	w0, [sp, 50]
	ldrh	w0, [sp, 50]
	ldr	x1, [sp, 144]
	add	x0, x1, x0
	str	x0, [sp, 160]
	ldr	x0, [sp, 160]
	bl	_ZL8ttUSHORTPh
	strh	w0, [sp, 52]
	ldr	x0, [sp, 160]
	add	x0, x0, 2
	bl	_ZL8ttUSHORTPh
	strh	w0, [sp, 54]
	ldrh	w0, [sp, 54]
	ldr	x1, [sp, 160]
	add	x0, x1, x0
	ldr	w1, [sp, 20]
	bl	_ZL23stbtt__GetCoverageIndexPhi
	str	w0, [sp, 100]
	ldr	w0, [sp, 100]
	cmn	w0, #1
	beq	.L740
	ldrh	w0, [sp, 52]
	cmp	w0, 1
	beq	.L720
	cmp	w0, 2
	beq	.L721
	b	.L737
.L720:
	ldr	x0, [sp, 160]
	add	x0, x0, 4
	bl	_ZL8ttUSHORTPh
	strh	w0, [sp, 70]
	ldr	x0, [sp, 160]
	add	x0, x0, 6
	bl	_ZL8ttUSHORTPh
	strh	w0, [sp, 72]
	ldrh	w0, [sp, 70]
	cmp	w0, 4
	bne	.L723
	ldrh	w0, [sp, 72]
	cmp	w0, 0
	bne	.L723
	mov	w0, 2
	str	w0, [sp, 112]
	ldr	x0, [sp, 160]
	add	x0, x0, 8
	bl	_ZL8ttUSHORTPh
	strh	w0, [sp, 74]
	ldr	w0, [sp, 100]
	lsl	w0, w0, 1
	sxtw	x0, w0
	add	x0, x0, 10
	ldr	x1, [sp, 160]
	add	x0, x1, x0
	bl	_ZL8ttUSHORTPh
	strh	w0, [sp, 76]
	ldrh	w0, [sp, 76]
	ldr	x1, [sp, 160]
	add	x0, x1, x0
	str	x0, [sp, 184]
	ldr	x0, [sp, 184]
	bl	_ZL8ttUSHORTPh
	strh	w0, [sp, 78]
	ldr	x0, [sp, 184]
	add	x0, x0, 2
	str	x0, [sp, 192]
	ldrh	w0, [sp, 74]
	ldr	w1, [sp, 100]
	cmp	w1, w0
	blt	.L724
	mov	w0, 0
	b	.L711
.L724:
	ldr	w0, [sp, 16]
	str	w0, [sp, 116]
	ldrh	w0, [sp, 78]
	sub	w0, w0, #1
	str	w0, [sp, 96]
	str	wzr, [sp, 92]
	b	.L725
.L728:
	ldr	w1, [sp, 92]
	ldr	w0, [sp, 96]
	add	w0, w1, w0
	asr	w0, w0, 1
	str	w0, [sp, 120]
	ldr	w0, [sp, 112]
	add	w1, w0, 2
	ldr	w0, [sp, 120]
	mul	w0, w1, w0
	sxtw	x0, w0
	ldr	x1, [sp, 192]
	add	x0, x1, x0
	str	x0, [sp, 200]
	ldr	x0, [sp, 200]
	bl	_ZL8ttUSHORTPh
	strh	w0, [sp, 80]
	ldrh	w0, [sp, 80]
	str	w0, [sp, 124]
	ldr	w1, [sp, 116]
	ldr	w0, [sp, 124]
	cmp	w1, w0
	bge	.L726
	ldr	w0, [sp, 120]
	sub	w0, w0, #1
	str	w0, [sp, 96]
	b	.L725
.L726:
	ldr	w1, [sp, 116]
	ldr	w0, [sp, 124]
	cmp	w1, w0
	ble	.L727
	ldr	w0, [sp, 120]
	add	w0, w0, 1
	str	w0, [sp, 92]
	b	.L725
.L727:
	ldr	x0, [sp, 200]
	add	x0, x0, 2
	bl	_ZL7ttSHORTPh
	strh	w0, [sp, 82]
	ldrsh	w0, [sp, 82]
	b	.L711
.L725:
	ldr	w1, [sp, 92]
	ldr	w0, [sp, 96]
	cmp	w1, w0
	ble	.L728
	b	.L738
.L723:
	mov	w0, 0
	b	.L711
.L738:
	b	.L719
.L721:
	ldr	x0, [sp, 160]
	add	x0, x0, 4
	bl	_ZL8ttUSHORTPh
	strh	w0, [sp, 56]
	ldr	x0, [sp, 160]
	add	x0, x0, 6
	bl	_ZL8ttUSHORTPh
	strh	w0, [sp, 58]
	ldrh	w0, [sp, 56]
	cmp	w0, 4
	bne	.L730
	ldrh	w0, [sp, 58]
	cmp	w0, 0
	bne	.L730
	ldr	x0, [sp, 160]
	add	x0, x0, 8
	bl	_ZL8ttUSHORTPh
	strh	w0, [sp, 60]
	ldr	x0, [sp, 160]
	add	x0, x0, 10
	bl	_ZL8ttUSHORTPh
	strh	w0, [sp, 62]
	ldrh	w0, [sp, 60]
	ldr	x1, [sp, 160]
	add	x0, x1, x0
	ldr	w1, [sp, 20]
	bl	_ZL20stbtt__GetGlyphClassPhi
	str	w0, [sp, 104]
	ldrh	w0, [sp, 62]
	ldr	x1, [sp, 160]
	add	x0, x1, x0
	ldr	w1, [sp, 16]
	bl	_ZL20stbtt__GetGlyphClassPhi
	str	w0, [sp, 108]
	ldr	x0, [sp, 160]
	add	x0, x0, 12
	bl	_ZL8ttUSHORTPh
	strh	w0, [sp, 64]
	ldr	x0, [sp, 160]
	add	x0, x0, 14
	bl	_ZL8ttUSHORTPh
	strh	w0, [sp, 66]
	ldr	w0, [sp, 104]
	cmp	w0, 0
	blt	.L731
	ldrh	w0, [sp, 64]
	ldr	w1, [sp, 104]
	cmp	w1, w0
	blt	.L732
.L731:
	mov	w0, 0
	b	.L711
.L732:
	ldr	w0, [sp, 108]
	cmp	w0, 0
	blt	.L733
	ldrh	w0, [sp, 66]
	ldr	w1, [sp, 108]
	cmp	w1, w0
	blt	.L734
.L733:
	mov	w0, 0
	b	.L711
.L734:
	ldr	x0, [sp, 160]
	add	x0, x0, 16
	str	x0, [sp, 168]
	ldrh	w1, [sp, 66]
	ldr	w0, [sp, 104]
	mul	w0, w1, w0
	lsl	w0, w0, 1
	sxtw	x0, w0
	ldr	x1, [sp, 168]
	add	x0, x1, x0
	str	x0, [sp, 176]
	ldr	w0, [sp, 108]
	lsl	w0, w0, 1
	sxtw	x0, w0
	ldr	x1, [sp, 176]
	add	x0, x1, x0
	bl	_ZL7ttSHORTPh
	strh	w0, [sp, 68]
	ldrsh	w0, [sp, 68]
	b	.L711
.L730:
	mov	w0, 0
	b	.L711
.L737:
	mov	w0, 0
	b	.L711
.L740:
	nop
.L719:
	ldr	w0, [sp, 88]
	add	w0, w0, 1
	str	w0, [sp, 88]
.L717:
	ldrh	w0, [sp, 48]
	ldr	w1, [sp, 88]
	cmp	w1, w0
	blt	.L735
	b	.L716
.L739:
	nop
.L716:
	ldr	w0, [sp, 84]
	add	w0, w0, 1
	str	w0, [sp, 84]
.L714:
	ldrh	w0, [sp, 42]
	ldr	w1, [sp, 84]
	cmp	w1, w0
	blt	.L736
	mov	w0, 0
.L711:
	ldp	x29, x30, [sp], 208
	.cfi_restore 30
	.cfi_restore 29
	.cfi_def_cfa_offset 0
	ret
	.cfi_endproc
.LFE1629:
	.size	_ZL30stbtt__GetGlyphGPOSInfoAdvancePK14stbtt_fontinfoii, .-_ZL30stbtt__GetGlyphGPOSInfoAdvancePK14stbtt_fontinfoii
	.align	2
	.type	stbtt_GetGlyphKernAdvance, %function
stbtt_GetGlyphKernAdvance:
.LFB1630:
	.cfi_startproc
	stp	x29, x30, [sp, -48]!
	.cfi_def_cfa_offset 48
	.cfi_offset 29, -48
	.cfi_offset 30, -40
	mov	x29, sp
	str	x0, [sp, 24]
	str	w1, [sp, 20]
	str	w2, [sp, 16]
	str	wzr, [sp, 44]
	ldr	x0, [sp, 24]
	ldr	w0, [x0, 48]
	cmp	w0, 0
	beq	.L742
	ldr	w2, [sp, 16]
	ldr	w1, [sp, 20]
	ldr	x0, [sp, 24]
	bl	_ZL30stbtt__GetGlyphGPOSInfoAdvancePK14stbtt_fontinfoii
	mov	w1, w0
	ldr	w0, [sp, 44]
	add	w0, w0, w1
	str	w0, [sp, 44]
	b	.L743
.L742:
	ldr	x0, [sp, 24]
	ldr	w0, [x0, 44]
	cmp	w0, 0
	beq	.L743
	ldr	w2, [sp, 16]
	ldr	w1, [sp, 20]
	ldr	x0, [sp, 24]
	bl	_ZL30stbtt__GetGlyphKernInfoAdvancePK14stbtt_fontinfoii
	mov	w1, w0
	ldr	w0, [sp, 44]
	add	w0, w0, w1
	str	w0, [sp, 44]
.L743:
	ldr	w0, [sp, 44]
	ldp	x29, x30, [sp], 48
	.cfi_restore 30
	.cfi_restore 29
	.cfi_def_cfa_offset 0
	ret
	.cfi_endproc
.LFE1630:
	.size	stbtt_GetGlyphKernAdvance, .-stbtt_GetGlyphKernAdvance
	.align	2
	.type	stbtt_GetCodepointKernAdvance, %function
stbtt_GetCodepointKernAdvance:
.LFB1631:
	.cfi_startproc
	stp	x29, x30, [sp, -48]!
	.cfi_def_cfa_offset 48
	.cfi_offset 29, -48
	.cfi_offset 30, -40
	mov	x29, sp
	str	x19, [sp, 16]
	.cfi_offset 19, -32
	str	x0, [sp, 40]
	str	w1, [sp, 36]
	str	w2, [sp, 32]
	ldr	x0, [sp, 40]
	ldr	w0, [x0, 44]
	cmp	w0, 0
	bne	.L746
	ldr	x0, [sp, 40]
	ldr	w0, [x0, 48]
	cmp	w0, 0
	bne	.L746
	mov	w0, 0
	b	.L747
.L746:
	ldr	w1, [sp, 36]
	ldr	x0, [sp, 40]
	bl	stbtt_FindGlyphIndex
	mov	w19, w0
	ldr	w1, [sp, 32]
	ldr	x0, [sp, 40]
	bl	stbtt_FindGlyphIndex
	mov	w2, w0
	mov	w1, w19
	ldr	x0, [sp, 40]
	bl	stbtt_GetGlyphKernAdvance
	nop
.L747:
	ldr	x19, [sp, 16]
	ldp	x29, x30, [sp], 48
	.cfi_restore 30
	.cfi_restore 29
	.cfi_restore 19
	.cfi_def_cfa_offset 0
	ret
	.cfi_endproc
.LFE1631:
	.size	stbtt_GetCodepointKernAdvance, .-stbtt_GetCodepointKernAdvance
	.align	2
	.type	stbtt_GetCodepointHMetrics, %function
stbtt_GetCodepointHMetrics:
.LFB1632:
	.cfi_startproc
	stp	x29, x30, [sp, -48]!
	.cfi_def_cfa_offset 48
	.cfi_offset 29, -48
	.cfi_offset 30, -40
	mov	x29, sp
	str	x0, [sp, 40]
	str	w1, [sp, 36]
	str	x2, [sp, 24]
	str	x3, [sp, 16]
	ldr	w1, [sp, 36]
	ldr	x0, [sp, 40]
	bl	stbtt_FindGlyphIndex
	ldr	x3, [sp, 16]
	ldr	x2, [sp, 24]
	mov	w1, w0
	ldr	x0, [sp, 40]
	bl	stbtt_GetGlyphHMetrics
	nop
	ldp	x29, x30, [sp], 48
	.cfi_restore 30
	.cfi_restore 29
	.cfi_def_cfa_offset 0
	ret
	.cfi_endproc
.LFE1632:
	.size	stbtt_GetCodepointHMetrics, .-stbtt_GetCodepointHMetrics
	.align	2
	.type	stbtt_GetFontVMetrics, %function
stbtt_GetFontVMetrics:
.LFB1633:
	.cfi_startproc
	stp	x29, x30, [sp, -48]!
	.cfi_def_cfa_offset 48
	.cfi_offset 29, -48
	.cfi_offset 30, -40
	mov	x29, sp
	str	x0, [sp, 40]
	str	x1, [sp, 32]
	str	x2, [sp, 24]
	str	x3, [sp, 16]
	ldr	x0, [sp, 32]
	cmp	x0, 0
	beq	.L750
	ldr	x0, [sp, 40]
	ldr	x1, [x0, 8]
	ldr	x0, [sp, 40]
	ldr	w0, [x0, 36]
	sxtw	x0, w0
	add	x0, x0, 4
	add	x0, x1, x0
	bl	_ZL7ttSHORTPh
	sxth	w0, w0
	mov	w1, w0
	ldr	x0, [sp, 32]
	str	w1, [x0]
.L750:
	ldr	x0, [sp, 24]
	cmp	x0, 0
	beq	.L751
	ldr	x0, [sp, 40]
	ldr	x1, [x0, 8]
	ldr	x0, [sp, 40]
	ldr	w0, [x0, 36]
	sxtw	x0, w0
	add	x0, x0, 6
	add	x0, x1, x0
	bl	_ZL7ttSHORTPh
	sxth	w0, w0
	mov	w1, w0
	ldr	x0, [sp, 24]
	str	w1, [x0]
.L751:
	ldr	x0, [sp, 16]
	cmp	x0, 0
	beq	.L753
	ldr	x0, [sp, 40]
	ldr	x1, [x0, 8]
	ldr	x0, [sp, 40]
	ldr	w0, [x0, 36]
	sxtw	x0, w0
	add	x0, x0, 8
	add	x0, x1, x0
	bl	_ZL7ttSHORTPh
	sxth	w0, w0
	mov	w1, w0
	ldr	x0, [sp, 16]
	str	w1, [x0]
.L753:
	nop
	ldp	x29, x30, [sp], 48
	.cfi_restore 30
	.cfi_restore 29
	.cfi_def_cfa_offset 0
	ret
	.cfi_endproc
.LFE1633:
	.size	stbtt_GetFontVMetrics, .-stbtt_GetFontVMetrics
	.section	.rodata
	.align	3
.LC52:
	.string	"OS/2"
	.text
	.align	2
	.type	stbtt_GetFontVMetricsOS2, %function
stbtt_GetFontVMetricsOS2:
.LFB1634:
	.cfi_startproc
	stp	x29, x30, [sp, -64]!
	.cfi_def_cfa_offset 64
	.cfi_offset 29, -64
	.cfi_offset 30, -56
	mov	x29, sp
	str	x0, [sp, 40]
	str	x1, [sp, 32]
	str	x2, [sp, 24]
	str	x3, [sp, 16]
	ldr	x0, [sp, 40]
	ldr	x3, [x0, 8]
	ldr	x0, [sp, 40]
	ldr	w0, [x0, 16]
	mov	w1, w0
	adrp	x0, .LC52
	add	x2, x0, :lo12:.LC52
	mov	x0, x3
	bl	_ZL17stbtt__find_tablePhjPKc
	str	w0, [sp, 60]
	ldr	w0, [sp, 60]
	cmp	w0, 0
	bne	.L755
	mov	w0, 0
	b	.L756
.L755:
	ldr	x0, [sp, 32]
	cmp	x0, 0
	beq	.L757
	ldr	x0, [sp, 40]
	ldr	x1, [x0, 8]
	ldrsw	x0, [sp, 60]
	add	x0, x0, 68
	add	x0, x1, x0
	bl	_ZL7ttSHORTPh
	sxth	w0, w0
	mov	w1, w0
	ldr	x0, [sp, 32]
	str	w1, [x0]
.L757:
	ldr	x0, [sp, 24]
	cmp	x0, 0
	beq	.L758
	ldr	x0, [sp, 40]
	ldr	x1, [x0, 8]
	ldrsw	x0, [sp, 60]
	add	x0, x0, 70
	add	x0, x1, x0
	bl	_ZL7ttSHORTPh
	sxth	w0, w0
	mov	w1, w0
	ldr	x0, [sp, 24]
	str	w1, [x0]
.L758:
	ldr	x0, [sp, 16]
	cmp	x0, 0
	beq	.L759
	ldr	x0, [sp, 40]
	ldr	x1, [x0, 8]
	ldrsw	x0, [sp, 60]
	add	x0, x0, 72
	add	x0, x1, x0
	bl	_ZL7ttSHORTPh
	sxth	w0, w0
	mov	w1, w0
	ldr	x0, [sp, 16]
	str	w1, [x0]
.L759:
	mov	w0, 1
.L756:
	ldp	x29, x30, [sp], 64
	.cfi_restore 30
	.cfi_restore 29
	.cfi_def_cfa_offset 0
	ret
	.cfi_endproc
.LFE1634:
	.size	stbtt_GetFontVMetricsOS2, .-stbtt_GetFontVMetricsOS2
	.align	2
	.type	stbtt_GetFontBoundingBox, %function
stbtt_GetFontBoundingBox:
.LFB1635:
	.cfi_startproc
	stp	x29, x30, [sp, -64]!
	.cfi_def_cfa_offset 64
	.cfi_offset 29, -64
	.cfi_offset 30, -56
	mov	x29, sp
	str	x0, [sp, 56]
	str	x1, [sp, 48]
	str	x2, [sp, 40]
	str	x3, [sp, 32]
	str	x4, [sp, 24]
	ldr	x0, [sp, 56]
	ldr	x1, [x0, 8]
	ldr	x0, [sp, 56]
	ldr	w0, [x0, 28]
	sxtw	x0, w0
	add	x0, x0, 36
	add	x0, x1, x0
	bl	_ZL7ttSHORTPh
	sxth	w0, w0
	mov	w1, w0
	ldr	x0, [sp, 48]
	str	w1, [x0]
	ldr	x0, [sp, 56]
	ldr	x1, [x0, 8]
	ldr	x0, [sp, 56]
	ldr	w0, [x0, 28]
	sxtw	x0, w0
	add	x0, x0, 38
	add	x0, x1, x0
	bl	_ZL7ttSHORTPh
	sxth	w0, w0
	mov	w1, w0
	ldr	x0, [sp, 40]
	str	w1, [x0]
	ldr	x0, [sp, 56]
	ldr	x1, [x0, 8]
	ldr	x0, [sp, 56]
	ldr	w0, [x0, 28]
	sxtw	x0, w0
	add	x0, x0, 40
	add	x0, x1, x0
	bl	_ZL7ttSHORTPh
	sxth	w0, w0
	mov	w1, w0
	ldr	x0, [sp, 32]
	str	w1, [x0]
	ldr	x0, [sp, 56]
	ldr	x1, [x0, 8]
	ldr	x0, [sp, 56]
	ldr	w0, [x0, 28]
	sxtw	x0, w0
	add	x0, x0, 42
	add	x0, x1, x0
	bl	_ZL7ttSHORTPh
	sxth	w0, w0
	mov	w1, w0
	ldr	x0, [sp, 24]
	str	w1, [x0]
	nop
	ldp	x29, x30, [sp], 64
	.cfi_restore 30
	.cfi_restore 29
	.cfi_def_cfa_offset 0
	ret
	.cfi_endproc
.LFE1635:
	.size	stbtt_GetFontBoundingBox, .-stbtt_GetFontBoundingBox
	.align	2
	.type	stbtt_ScaleForPixelHeight, %function
stbtt_ScaleForPixelHeight:
.LFB1636:
	.cfi_startproc
	stp	x29, x30, [sp, -64]!
	.cfi_def_cfa_offset 64
	.cfi_offset 29, -64
	.cfi_offset 30, -56
	mov	x29, sp
	str	x19, [sp, 16]
	.cfi_offset 19, -48
	str	x0, [sp, 40]
	str	s0, [sp, 36]
	ldr	x0, [sp, 40]
	ldr	x1, [x0, 8]
	ldr	x0, [sp, 40]
	ldr	w0, [x0, 36]
	sxtw	x0, w0
	add	x0, x0, 4
	add	x0, x1, x0
	bl	_ZL7ttSHORTPh
	sxth	w0, w0
	mov	w19, w0
	ldr	x0, [sp, 40]
	ldr	x1, [x0, 8]
	ldr	x0, [sp, 40]
	ldr	w0, [x0, 36]
	sxtw	x0, w0
	add	x0, x0, 6
	add	x0, x1, x0
	bl	_ZL7ttSHORTPh
	sxth	w0, w0
	sub	w0, w19, w0
	str	w0, [sp, 60]
	ldr	s0, [sp, 60]
	scvtf	s0, s0
	ldr	s1, [sp, 36]
	fdiv	s0, s1, s0
	ldr	x19, [sp, 16]
	ldp	x29, x30, [sp], 64
	.cfi_restore 30
	.cfi_restore 29
	.cfi_restore 19
	.cfi_def_cfa_offset 0
	ret
	.cfi_endproc
.LFE1636:
	.size	stbtt_ScaleForPixelHeight, .-stbtt_ScaleForPixelHeight
	.align	2
	.type	stbtt_ScaleForMappingEmToPixels, %function
stbtt_ScaleForMappingEmToPixels:
.LFB1637:
	.cfi_startproc
	stp	x29, x30, [sp, -48]!
	.cfi_def_cfa_offset 48
	.cfi_offset 29, -48
	.cfi_offset 30, -40
	mov	x29, sp
	str	x0, [sp, 24]
	str	s0, [sp, 20]
	ldr	x0, [sp, 24]
	ldr	x1, [x0, 8]
	ldr	x0, [sp, 24]
	ldr	w0, [x0, 28]
	sxtw	x0, w0
	add	x0, x0, 18
	add	x0, x1, x0
	bl	_ZL8ttUSHORTPh
	and	w0, w0, 65535
	str	w0, [sp, 44]
	ldr	s0, [sp, 44]
	scvtf	s0, s0
	ldr	s1, [sp, 20]
	fdiv	s0, s1, s0
	ldp	x29, x30, [sp], 48
	.cfi_restore 30
	.cfi_restore 29
	.cfi_def_cfa_offset 0
	ret
	.cfi_endproc
.LFE1637:
	.size	stbtt_ScaleForMappingEmToPixels, .-stbtt_ScaleForMappingEmToPixels
	.align	2
	.type	stbtt_FreeShape, %function
stbtt_FreeShape:
.LFB1638:
	.cfi_startproc
	stp	x29, x30, [sp, -32]!
	.cfi_def_cfa_offset 32
	.cfi_offset 29, -32
	.cfi_offset 30, -24
	mov	x29, sp
	str	x0, [sp, 24]
	str	x1, [sp, 16]
	ldr	x0, [sp, 16]
	bl	_ZN5ImGui7MemFreeEPv
	nop
	ldp	x29, x30, [sp], 32
	.cfi_restore 30
	.cfi_restore 29
	.cfi_def_cfa_offset 0
	ret
	.cfi_endproc
.LFE1638:
	.size	stbtt_FreeShape, .-stbtt_FreeShape
	.align	2
	.type	stbtt_FindSVGDoc, %function
stbtt_FindSVGDoc:
.LFB1639:
	.cfi_startproc
	stp	x29, x30, [sp, -80]!
	.cfi_def_cfa_offset 80
	.cfi_offset 29, -80
	.cfi_offset 30, -72
	mov	x29, sp
	str	x0, [sp, 24]
	str	w1, [sp, 20]
	ldr	x0, [sp, 24]
	ldr	x0, [x0, 8]
	str	x0, [sp, 48]
	ldr	x0, [sp, 24]
	bl	_ZL14stbtt__get_svgP14stbtt_fontinfo
	sxtw	x0, w0
	ldr	x1, [sp, 48]
	add	x0, x1, x0
	str	x0, [sp, 56]
	ldr	x0, [sp, 56]
	bl	_ZL8ttUSHORTPh
	and	w0, w0, 65535
	str	w0, [sp, 44]
	ldr	x0, [sp, 56]
	add	x0, x0, 2
	str	x0, [sp, 64]
	str	wzr, [sp, 40]
	b	.L767
.L772:
	ldr	w1, [sp, 40]
	mov	w0, w1
	lsl	w0, w0, 1
	add	w0, w0, w1
	lsl	w0, w0, 2
	sxtw	x0, w0
	ldr	x1, [sp, 64]
	add	x0, x1, x0
	str	x0, [sp, 72]
	ldr	x0, [sp, 72]
	bl	_ZL8ttUSHORTPh
	and	w0, w0, 65535
	mov	w1, w0
	ldr	w0, [sp, 20]
	cmp	w0, w1
	blt	.L768
	ldr	x0, [sp, 72]
	add	x0, x0, 2
	bl	_ZL8ttUSHORTPh
	and	w0, w0, 65535
	mov	w1, w0
	ldr	w0, [sp, 20]
	cmp	w0, w1
	bgt	.L768
	mov	w0, 1
	b	.L769
.L768:
	mov	w0, 0
.L769:
	cmp	w0, 0
	beq	.L770
	ldr	x0, [sp, 72]
	b	.L771
.L770:
	ldr	w0, [sp, 40]
	add	w0, w0, 1
	str	w0, [sp, 40]
.L767:
	ldr	w1, [sp, 40]
	ldr	w0, [sp, 44]
	cmp	w1, w0
	blt	.L772
	mov	x0, 0
.L771:
	ldp	x29, x30, [sp], 80
	.cfi_restore 30
	.cfi_restore 29
	.cfi_def_cfa_offset 0
	ret
	.cfi_endproc
.LFE1639:
	.size	stbtt_FindSVGDoc, .-stbtt_FindSVGDoc
	.align	2
	.type	stbtt_GetGlyphSVG, %function
stbtt_GetGlyphSVG:
.LFB1640:
	.cfi_startproc
	stp	x29, x30, [sp, -80]!
	.cfi_def_cfa_offset 80
	.cfi_offset 29, -80
	.cfi_offset 30, -72
	mov	x29, sp
	str	x19, [sp, 16]
	.cfi_offset 19, -64
	str	x0, [sp, 56]
	str	w1, [sp, 52]
	str	x2, [sp, 40]
	ldr	x0, [sp, 56]
	ldr	x0, [x0, 8]
	str	x0, [sp, 64]
	ldr	x0, [sp, 56]
	ldr	w0, [x0, 52]
	cmp	w0, 0
	bne	.L774
	mov	w0, 0
	b	.L775
.L774:
	ldr	w1, [sp, 52]
	ldr	x0, [sp, 56]
	bl	stbtt_FindSVGDoc
	str	x0, [sp, 72]
	ldr	x0, [sp, 72]
	cmp	x0, 0
	beq	.L776
	ldr	x0, [sp, 56]
	ldr	w0, [x0, 52]
	sxtw	x19, w0
	ldr	x0, [sp, 72]
	add	x0, x0, 4
	bl	_ZL7ttULONGPh
	uxtw	x0, w0
	add	x0, x19, x0
	ldr	x1, [sp, 64]
	add	x1, x1, x0
	ldr	x0, [sp, 40]
	str	x1, [x0]
	ldr	x0, [sp, 72]
	add	x0, x0, 8
	bl	_ZL7ttULONGPh
	b	.L775
.L776:
	mov	w0, 0
.L775:
	ldr	x19, [sp, 16]
	ldp	x29, x30, [sp], 80
	.cfi_restore 30
	.cfi_restore 29
	.cfi_restore 19
	.cfi_def_cfa_offset 0
	ret
	.cfi_endproc
.LFE1640:
	.size	stbtt_GetGlyphSVG, .-stbtt_GetGlyphSVG
	.align	2
	.type	stbtt_GetCodepointSVG, %function
stbtt_GetCodepointSVG:
.LFB1641:
	.cfi_startproc
	stp	x29, x30, [sp, -48]!
	.cfi_def_cfa_offset 48
	.cfi_offset 29, -48
	.cfi_offset 30, -40
	mov	x29, sp
	str	x0, [sp, 40]
	str	w1, [sp, 36]
	str	x2, [sp, 24]
	ldr	w1, [sp, 36]
	ldr	x0, [sp, 40]
	bl	stbtt_FindGlyphIndex
	ldr	x2, [sp, 24]
	mov	w1, w0
	ldr	x0, [sp, 40]
	bl	stbtt_GetGlyphSVG
	ldp	x29, x30, [sp], 48
	.cfi_restore 30
	.cfi_restore 29
	.cfi_def_cfa_offset 0
	ret
	.cfi_endproc
.LFE1641:
	.size	stbtt_GetCodepointSVG, .-stbtt_GetCodepointSVG
	.align	2
	.type	stbtt_GetGlyphBitmapBoxSubpixel, %function
stbtt_GetGlyphBitmapBoxSubpixel:
.LFB1642:
	.cfi_startproc
	stp	x29, x30, [sp, -112]!
	.cfi_def_cfa_offset 112
	.cfi_offset 29, -112
	.cfi_offset 30, -104
	mov	x29, sp
	str	x0, [sp, 72]
	str	w1, [sp, 68]
	str	s0, [sp, 64]
	str	s1, [sp, 60]
	str	s2, [sp, 56]
	str	s3, [sp, 52]
	str	x2, [sp, 40]
	str	x3, [sp, 32]
	str	x4, [sp, 24]
	str	x5, [sp, 16]
	adrp	x0, :got:__stack_chk_guard
	ldr	x0, [x0, #:got_lo12:__stack_chk_guard]
	ldr	x1, [x0]
	str	x1, [sp, 104]
	mov	x1, 0
	str	wzr, [sp, 88]
	str	wzr, [sp, 92]
	add	x3, sp, 100
	add	x2, sp, 96
	add	x1, sp, 92
	add	x0, sp, 88
	mov	x5, x3
	mov	x4, x2
	mov	x3, x1
	mov	x2, x0
	ldr	w1, [sp, 68]
	ldr	x0, [sp, 72]
	bl	stbtt_GetGlyphBox
	cmp	w0, 0
	cset	w0, eq
	and	w0, w0, 255
	cmp	w0, 0
	beq	.L780
	ldr	x0, [sp, 40]
	cmp	x0, 0
	beq	.L781
	ldr	x0, [sp, 40]
	str	wzr, [x0]
.L781:
	ldr	x0, [sp, 32]
	cmp	x0, 0
	beq	.L782
	ldr	x0, [sp, 32]
	str	wzr, [x0]
.L782:
	ldr	x0, [sp, 24]
	cmp	x0, 0
	beq	.L783
	ldr	x0, [sp, 24]
	str	wzr, [x0]
.L783:
	ldr	x0, [sp, 16]
	cmp	x0, 0
	beq	.L789
	ldr	x0, [sp, 16]
	str	wzr, [x0]
	b	.L789
.L780:
	ldr	x0, [sp, 40]
	cmp	x0, 0
	beq	.L785
	ldr	s0, [sp, 88]
	scvtf	s1, s0
	ldr	s0, [sp, 64]
	fmul	s1, s1, s0
	ldr	s0, [sp, 56]
	fadd	s0, s1, s0
	bl	_ZL13ImFloorSignedf
	fcvtzs	s0, s0
	ldr	x0, [sp, 40]
	str	s0, [x0]
.L785:
	ldr	x0, [sp, 32]
	cmp	x0, 0
	beq	.L786
	ldr	w0, [sp, 100]
	fmov	s0, w0
	neg	v0.2s, v0.2s
	scvtf	s1, s0
	ldr	s0, [sp, 60]
	fmul	s1, s1, s0
	ldr	s0, [sp, 52]
	fadd	s0, s1, s0
	bl	_ZL13ImFloorSignedf
	fcvtzs	s0, s0
	ldr	x0, [sp, 32]
	str	s0, [x0]
.L786:
	ldr	x0, [sp, 24]
	cmp	x0, 0
	beq	.L787
	ldr	s0, [sp, 96]
	scvtf	s1, s0
	ldr	s0, [sp, 64]
	fmul	s1, s1, s0
	ldr	s0, [sp, 56]
	fadd	s0, s1, s0
	bl	ceilf
	fcvtzs	s0, s0
	ldr	x0, [sp, 24]
	str	s0, [x0]
.L787:
	ldr	x0, [sp, 16]
	cmp	x0, 0
	beq	.L789
	ldr	w0, [sp, 92]
	fmov	s0, w0
	neg	v0.2s, v0.2s
	scvtf	s1, s0
	ldr	s0, [sp, 60]
	fmul	s1, s1, s0
	ldr	s0, [sp, 52]
	fadd	s0, s1, s0
	bl	ceilf
	fcvtzs	s0, s0
	ldr	x0, [sp, 16]
	str	s0, [x0]
.L789:
	nop
	adrp	x0, :got:__stack_chk_guard
	ldr	x0, [x0, #:got_lo12:__stack_chk_guard]
	ldr	x2, [sp, 104]
	ldr	x1, [x0]
	subs	x2, x2, x1
	mov	x1, 0
	beq	.L788
	bl	__stack_chk_fail
.L788:
	ldp	x29, x30, [sp], 112
	.cfi_restore 30
	.cfi_restore 29
	.cfi_def_cfa_offset 0
	ret
	.cfi_endproc
.LFE1642:
	.size	stbtt_GetGlyphBitmapBoxSubpixel, .-stbtt_GetGlyphBitmapBoxSubpixel
	.align	2
	.type	stbtt_GetGlyphBitmapBox, %function
stbtt_GetGlyphBitmapBox:
.LFB1643:
	.cfi_startproc
	stp	x29, x30, [sp, -80]!
	.cfi_def_cfa_offset 80
	.cfi_offset 29, -80
	.cfi_offset 30, -72
	mov	x29, sp
	str	x0, [sp, 72]
	str	w1, [sp, 68]
	str	s0, [sp, 64]
	str	s1, [sp, 60]
	str	x2, [sp, 48]
	str	x3, [sp, 40]
	str	x4, [sp, 32]
	str	x5, [sp, 24]
	ldr	x5, [sp, 24]
	ldr	x4, [sp, 32]
	ldr	x3, [sp, 40]
	ldr	x2, [sp, 48]
	movi	v3.2s, #0
	movi	v2.2s, #0
	ldr	s1, [sp, 60]
	ldr	s0, [sp, 64]
	ldr	w1, [sp, 68]
	ldr	x0, [sp, 72]
	bl	stbtt_GetGlyphBitmapBoxSubpixel
	nop
	ldp	x29, x30, [sp], 80
	.cfi_restore 30
	.cfi_restore 29
	.cfi_def_cfa_offset 0
	ret
	.cfi_endproc
.LFE1643:
	.size	stbtt_GetGlyphBitmapBox, .-stbtt_GetGlyphBitmapBox
	.align	2
	.type	stbtt_GetCodepointBitmapBoxSubpixel, %function
stbtt_GetCodepointBitmapBoxSubpixel:
.LFB1644:
	.cfi_startproc
	stp	x29, x30, [sp, -80]!
	.cfi_def_cfa_offset 80
	.cfi_offset 29, -80
	.cfi_offset 30, -72
	mov	x29, sp
	str	x0, [sp, 72]
	str	w1, [sp, 68]
	str	s0, [sp, 64]
	str	s1, [sp, 60]
	str	s2, [sp, 56]
	str	s3, [sp, 52]
	str	x2, [sp, 40]
	str	x3, [sp, 32]
	str	x4, [sp, 24]
	str	x5, [sp, 16]
	ldr	w1, [sp, 68]
	ldr	x0, [sp, 72]
	bl	stbtt_FindGlyphIndex
	ldr	x5, [sp, 16]
	ldr	x4, [sp, 24]
	ldr	x3, [sp, 32]
	ldr	x2, [sp, 40]
	ldr	s3, [sp, 52]
	ldr	s2, [sp, 56]
	ldr	s1, [sp, 60]
	ldr	s0, [sp, 64]
	mov	w1, w0
	ldr	x0, [sp, 72]
	bl	stbtt_GetGlyphBitmapBoxSubpixel
	nop
	ldp	x29, x30, [sp], 80
	.cfi_restore 30
	.cfi_restore 29
	.cfi_def_cfa_offset 0
	ret
	.cfi_endproc
.LFE1644:
	.size	stbtt_GetCodepointBitmapBoxSubpixel, .-stbtt_GetCodepointBitmapBoxSubpixel
	.align	2
	.type	stbtt_GetCodepointBitmapBox, %function
stbtt_GetCodepointBitmapBox:
.LFB1645:
	.cfi_startproc
	stp	x29, x30, [sp, -80]!
	.cfi_def_cfa_offset 80
	.cfi_offset 29, -80
	.cfi_offset 30, -72
	mov	x29, sp
	str	x0, [sp, 72]
	str	w1, [sp, 68]
	str	s0, [sp, 64]
	str	s1, [sp, 60]
	str	x2, [sp, 48]
	str	x3, [sp, 40]
	str	x4, [sp, 32]
	str	x5, [sp, 24]
	ldr	x5, [sp, 24]
	ldr	x4, [sp, 32]
	ldr	x3, [sp, 40]
	ldr	x2, [sp, 48]
	movi	v3.2s, #0
	movi	v2.2s, #0
	ldr	s1, [sp, 60]
	ldr	s0, [sp, 64]
	ldr	w1, [sp, 68]
	ldr	x0, [sp, 72]
	bl	stbtt_GetCodepointBitmapBoxSubpixel
	nop
	ldp	x29, x30, [sp], 80
	.cfi_restore 30
	.cfi_restore 29
	.cfi_def_cfa_offset 0
	ret
	.cfi_endproc
.LFE1645:
	.size	stbtt_GetCodepointBitmapBox, .-stbtt_GetCodepointBitmapBox
	.align	2
	.type	_ZL18stbtt__hheap_allocP12stbtt__hheapmPv, %function
_ZL18stbtt__hheap_allocP12stbtt__hheapmPv:
.LFB1646:
	.cfi_startproc
	stp	x29, x30, [sp, -80]!
	.cfi_def_cfa_offset 80
	.cfi_offset 29, -80
	.cfi_offset 30, -72
	mov	x29, sp
	str	x0, [sp, 40]
	str	x1, [sp, 32]
	str	x2, [sp, 24]
	ldr	x0, [sp, 40]
	ldr	x0, [x0, 8]
	cmp	x0, 0
	beq	.L794
	ldr	x0, [sp, 40]
	ldr	x0, [x0, 8]
	str	x0, [sp, 72]
	ldr	x0, [sp, 72]
	ldr	x1, [x0]
	ldr	x0, [sp, 40]
	str	x1, [x0, 8]
	ldr	x0, [sp, 72]
	b	.L795
.L794:
	ldr	x0, [sp, 40]
	ldr	w0, [x0, 16]
	cmp	w0, 0
	bne	.L796
	ldr	x0, [sp, 32]
	cmp	x0, 31
	bls	.L797
	ldr	x0, [sp, 32]
	cmp	x0, 127
	bhi	.L798
	mov	w0, 800
	b	.L800
.L798:
	mov	w0, 100
	b	.L800
.L797:
	mov	w0, 2000
.L800:
	str	w0, [sp, 60]
	ldrsw	x1, [sp, 60]
	ldr	x0, [sp, 32]
	mul	x0, x1, x0
	add	x0, x0, 8
	bl	_ZN5ImGui8MemAllocEm
	str	x0, [sp, 64]
	ldr	x0, [sp, 64]
	cmp	x0, 0
	bne	.L801
	mov	x0, 0
	b	.L795
.L801:
	ldr	x0, [sp, 40]
	ldr	x1, [x0]
	ldr	x0, [sp, 64]
	str	x1, [x0]
	ldr	x0, [sp, 40]
	ldr	x1, [sp, 64]
	str	x1, [x0]
	ldr	x0, [sp, 40]
	ldr	w1, [sp, 60]
	str	w1, [x0, 16]
.L796:
	ldr	x0, [sp, 40]
	ldr	w0, [x0, 16]
	sub	w1, w0, #1
	ldr	x0, [sp, 40]
	str	w1, [x0, 16]
	ldr	x0, [sp, 40]
	ldr	x1, [x0]
	ldr	x0, [sp, 40]
	ldr	w0, [x0, 16]
	sxtw	x2, w0
	ldr	x0, [sp, 32]
	mul	x0, x2, x0
	add	x0, x0, 8
	add	x0, x1, x0
.L795:
	ldp	x29, x30, [sp], 80
	.cfi_restore 30
	.cfi_restore 29
	.cfi_def_cfa_offset 0
	ret
	.cfi_endproc
.LFE1646:
	.size	_ZL18stbtt__hheap_allocP12stbtt__hheapmPv, .-_ZL18stbtt__hheap_allocP12stbtt__hheapmPv
	.align	2
	.type	_ZL17stbtt__hheap_freeP12stbtt__hheapPv, %function
_ZL17stbtt__hheap_freeP12stbtt__hheapPv:
.LFB1647:
	.cfi_startproc
	sub	sp, sp, #16
	.cfi_def_cfa_offset 16
	str	x0, [sp, 8]
	str	x1, [sp]
	ldr	x0, [sp, 8]
	ldr	x1, [x0, 8]
	ldr	x0, [sp]
	str	x1, [x0]
	ldr	x0, [sp, 8]
	ldr	x1, [sp]
	str	x1, [x0, 8]
	nop
	add	sp, sp, 16
	.cfi_def_cfa_offset 0
	ret
	.cfi_endproc
.LFE1647:
	.size	_ZL17stbtt__hheap_freeP12stbtt__hheapPv, .-_ZL17stbtt__hheap_freeP12stbtt__hheapPv
	.align	2
	.type	_ZL20stbtt__hheap_cleanupP12stbtt__hheapPv, %function
_ZL20stbtt__hheap_cleanupP12stbtt__hheapPv:
.LFB1648:
	.cfi_startproc
	stp	x29, x30, [sp, -48]!
	.cfi_def_cfa_offset 48
	.cfi_offset 29, -48
	.cfi_offset 30, -40
	mov	x29, sp
	str	x0, [sp, 24]
	str	x1, [sp, 16]
	ldr	x0, [sp, 24]
	ldr	x0, [x0]
	str	x0, [sp, 32]
	b	.L804
.L805:
	ldr	x0, [sp, 32]
	ldr	x0, [x0]
	str	x0, [sp, 40]
	ldr	x0, [sp, 32]
	bl	_ZN5ImGui7MemFreeEPv
	ldr	x0, [sp, 40]
	str	x0, [sp, 32]
.L804:
	ldr	x0, [sp, 32]
	cmp	x0, 0
	bne	.L805
	nop
	nop
	ldp	x29, x30, [sp], 48
	.cfi_restore 30
	.cfi_restore 29
	.cfi_def_cfa_offset 0
	ret
	.cfi_endproc
.LFE1648:
	.size	_ZL20stbtt__hheap_cleanupP12stbtt__hheapPv, .-_ZL20stbtt__hheap_cleanupP12stbtt__hheapPv
	.section	.rodata
	.align	3
.LC53:
	.string	"stbtt__active_edge* stbtt__new_active(stbtt__hheap*, stbtt__edge*, int, float, void*)"
	.align	3
.LC54:
	.string	"z != __null"
	.text
	.align	2
	.type	_ZL17stbtt__new_activeP12stbtt__hheapP11stbtt__edgeifPv, %function
_ZL17stbtt__new_activeP12stbtt__hheapP11stbtt__edgeifPv:
.LFB1649:
	.cfi_startproc
	stp	x29, x30, [sp, -64]!
	.cfi_def_cfa_offset 64
	.cfi_offset 29, -64
	.cfi_offset 30, -56
	mov	x29, sp
	str	x0, [sp, 40]
	str	x1, [sp, 32]
	str	w2, [sp, 28]
	str	s0, [sp, 24]
	str	x3, [sp, 16]
	ldr	x2, [sp, 16]
	mov	x1, 32
	ldr	x0, [sp, 40]
	bl	_ZL18stbtt__hheap_allocP12stbtt__hheapmPv
	str	x0, [sp, 56]
	ldr	x0, [sp, 32]
	ldr	s1, [x0, 8]
	ldr	x0, [sp, 32]
	ldr	s0, [x0]
	fsub	s1, s1, s0
	ldr	x0, [sp, 32]
	ldr	s2, [x0, 12]
	ldr	x0, [sp, 32]
	ldr	s0, [x0, 4]
	fsub	s0, s2, s0
	fdiv	s0, s1, s0
	str	s0, [sp, 52]
	ldr	x0, [sp, 56]
	cmp	x0, 0
	bne	.L807
	adrp	x0, .LC53
	add	x3, x0, :lo12:.LC53
	mov	w2, 2866
	adrp	x0, .LC22
	add	x1, x0, :lo12:.LC22
	adrp	x0, .LC54
	add	x0, x0, :lo12:.LC54
	bl	__assert_fail
.L807:
	ldr	x0, [sp, 56]
	cmp	x0, 0
	bne	.L808
	ldr	x0, [sp, 56]
	b	.L809
.L808:
	ldr	x0, [sp, 56]
	ldr	s0, [sp, 52]
	str	s0, [x0, 12]
	ldr	s0, [sp, 52]
	fcmp	s0, #0.0
	beq	.L810
	ldr	s0, [sp, 52]
	fmov	s1, 1.0e+0
	fdiv	s0, s1, s0
	b	.L811
.L810:
	movi	v0.2s, #0
.L811:
	ldr	x0, [sp, 56]
	str	s0, [x0, 16]
	ldr	x0, [sp, 32]
	ldr	s1, [x0]
	ldr	x0, [sp, 32]
	ldr	s0, [x0, 4]
	ldr	s2, [sp, 24]
	fsub	s2, s2, s0
	ldr	s0, [sp, 52]
	fmul	s0, s2, s0
	fadd	s0, s1, s0
	ldr	x0, [sp, 56]
	str	s0, [x0, 8]
	ldr	x0, [sp, 56]
	ldr	s1, [x0, 8]
	ldr	s0, [sp, 28]
	scvtf	s0, s0
	fsub	s0, s1, s0
	ldr	x0, [sp, 56]
	str	s0, [x0, 8]
	ldr	x0, [sp, 32]
	ldr	w0, [x0, 16]
	cmp	w0, 0
	beq	.L812
	fmov	s0, 1.0e+0
	b	.L813
.L812:
	fmov	s0, -1.0e+0
.L813:
	ldr	x0, [sp, 56]
	str	s0, [x0, 20]
	ldr	x0, [sp, 32]
	ldr	s0, [x0, 4]
	ldr	x0, [sp, 56]
	str	s0, [x0, 24]
	ldr	x0, [sp, 32]
	ldr	s0, [x0, 12]
	ldr	x0, [sp, 56]
	str	s0, [x0, 28]
	ldr	x0, [sp, 56]
	str	xzr, [x0]
	ldr	x0, [sp, 56]
.L809:
	ldp	x29, x30, [sp], 64
	.cfi_restore 30
	.cfi_restore 29
	.cfi_def_cfa_offset 0
	ret
	.cfi_endproc
.LFE1649:
	.size	_ZL17stbtt__new_activeP12stbtt__hheapP11stbtt__edgeifPv, .-_ZL17stbtt__new_activeP12stbtt__hheapP11stbtt__edgeifPv
	.section	.rodata
	.align	3
.LC55:
	.string	"void stbtt__handle_clipped_edge(float*, int, stbtt__active_edge*, float, float, float, float)"
	.align	3
.LC56:
	.string	"y0 < y1"
	.align	3
.LC57:
	.string	"e->sy <= e->ey"
	.align	3
.LC58:
	.string	"x1 <= x+1"
	.align	3
.LC59:
	.string	"x1 >= x"
	.align	3
.LC60:
	.string	"x1 <= x"
	.align	3
.LC61:
	.string	"x1 >= x+1"
	.align	3
.LC62:
	.string	"x1 >= x && x1 <= x+1"
	.align	3
.LC63:
	.string	"x0 >= x && x0 <= x+1 && x1 >= x && x1 <= x+1"
	.text
	.align	2
	.type	_ZL26stbtt__handle_clipped_edgePfiP18stbtt__active_edgeffff, %function
_ZL26stbtt__handle_clipped_edgePfiP18stbtt__active_edgeffff:
.LFB1650:
	.cfi_startproc
	stp	x29, x30, [sp, -64]!
	.cfi_def_cfa_offset 64
	.cfi_offset 29, -64
	.cfi_offset 30, -56
	mov	x29, sp
	str	x0, [sp, 56]
	str	w1, [sp, 52]
	str	x2, [sp, 40]
	str	s0, [sp, 48]
	str	s1, [sp, 36]
	str	s2, [sp, 32]
	str	s3, [sp, 28]
	ldr	s1, [sp, 36]
	ldr	s0, [sp, 28]
	fcmp	s1, s0
	beq	.L862
	ldr	s1, [sp, 36]
	ldr	s0, [sp, 28]
	fcmpe	s1, s0
	bmi	.L817
	adrp	x0, .LC55
	add	x3, x0, :lo12:.LC55
	mov	w2, 3036
	adrp	x0, .LC22
	add	x1, x0, :lo12:.LC22
	adrp	x0, .LC56
	add	x0, x0, :lo12:.LC56
	bl	__assert_fail
.L817:
	ldr	x0, [sp, 40]
	ldr	s1, [x0, 24]
	ldr	x0, [sp, 40]
	ldr	s0, [x0, 28]
	fcmpe	s1, s0
	bls	.L818
	adrp	x0, .LC55
	add	x3, x0, :lo12:.LC55
	mov	w2, 3037
	adrp	x0, .LC22
	add	x1, x0, :lo12:.LC22
	adrp	x0, .LC57
	add	x0, x0, :lo12:.LC57
	bl	__assert_fail
.L818:
	ldr	x0, [sp, 40]
	ldr	s0, [x0, 28]
	ldr	s1, [sp, 36]
	fcmpe	s1, s0
	bgt	.L863
	ldr	x0, [sp, 40]
	ldr	s0, [x0, 24]
	ldr	s1, [sp, 28]
	fcmpe	s1, s0
	bmi	.L864
	ldr	x0, [sp, 40]
	ldr	s0, [x0, 24]
	ldr	s1, [sp, 36]
	fcmpe	s1, s0
	bmi	.L849
	b	.L823
.L849:
	ldr	s1, [sp, 32]
	ldr	s0, [sp, 48]
	fsub	s1, s1, s0
	ldr	x0, [sp, 40]
	ldr	s2, [x0, 24]
	ldr	s0, [sp, 36]
	fsub	s0, s2, s0
	fmul	s1, s1, s0
	ldr	s2, [sp, 28]
	ldr	s0, [sp, 36]
	fsub	s0, s2, s0
	fdiv	s0, s1, s0
	ldr	s1, [sp, 48]
	fadd	s0, s1, s0
	str	s0, [sp, 48]
	ldr	x0, [sp, 40]
	ldr	s0, [x0, 24]
	str	s0, [sp, 36]
.L823:
	ldr	x0, [sp, 40]
	ldr	s0, [x0, 28]
	ldr	s1, [sp, 28]
	fcmpe	s1, s0
	bgt	.L850
	b	.L825
.L850:
	ldr	s1, [sp, 32]
	ldr	s0, [sp, 48]
	fsub	s1, s1, s0
	ldr	x0, [sp, 40]
	ldr	s2, [x0, 28]
	ldr	s0, [sp, 28]
	fsub	s0, s2, s0
	fmul	s1, s1, s0
	ldr	s2, [sp, 28]
	ldr	s0, [sp, 36]
	fsub	s0, s2, s0
	fdiv	s0, s1, s0
	ldr	s1, [sp, 32]
	fadd	s0, s1, s0
	str	s0, [sp, 32]
	ldr	x0, [sp, 40]
	ldr	s0, [x0, 28]
	str	s0, [sp, 28]
.L825:
	ldr	s0, [sp, 52]
	scvtf	s0, s0
	ldr	s1, [sp, 48]
	fcmp	s1, s0
	bne	.L827
	ldr	w0, [sp, 52]
	add	w0, w0, 1
	scvtf	s0, w0
	ldr	s1, [sp, 32]
	fcmpe	s1, s0
	bls	.L828
	adrp	x0, .LC55
	add	x3, x0, :lo12:.LC55
	mov	w2, 3050
	adrp	x0, .LC22
	add	x1, x0, :lo12:.LC22
	adrp	x0, .LC58
	add	x0, x0, :lo12:.LC58
	bl	__assert_fail
.L827:
	ldr	w0, [sp, 52]
	add	w0, w0, 1
	scvtf	s0, w0
	ldr	s1, [sp, 48]
	fcmp	s1, s0
	bne	.L829
	ldr	s0, [sp, 52]
	scvtf	s0, s0
	ldr	s1, [sp, 32]
	fcmpe	s1, s0
	bge	.L828
	adrp	x0, .LC55
	add	x3, x0, :lo12:.LC55
	mov	w2, 3052
	adrp	x0, .LC22
	add	x1, x0, :lo12:.LC22
	adrp	x0, .LC59
	add	x0, x0, :lo12:.LC59
	bl	__assert_fail
.L829:
	ldr	s0, [sp, 52]
	scvtf	s0, s0
	ldr	s1, [sp, 48]
	fcmpe	s1, s0
	bls	.L851
	b	.L860
.L851:
	ldr	s0, [sp, 52]
	scvtf	s0, s0
	ldr	s1, [sp, 32]
	fcmpe	s1, s0
	bls	.L828
	adrp	x0, .LC55
	add	x3, x0, :lo12:.LC55
	mov	w2, 3054
	adrp	x0, .LC22
	add	x1, x0, :lo12:.LC22
	adrp	x0, .LC60
	add	x0, x0, :lo12:.LC60
	bl	__assert_fail
.L860:
	ldr	w0, [sp, 52]
	add	w0, w0, 1
	scvtf	s0, w0
	ldr	s1, [sp, 48]
	fcmpe	s1, s0
	bge	.L852
	b	.L861
.L852:
	ldr	w0, [sp, 52]
	add	w0, w0, 1
	scvtf	s0, w0
	ldr	s1, [sp, 32]
	fcmpe	s1, s0
	bge	.L828
	adrp	x0, .LC55
	add	x3, x0, :lo12:.LC55
	mov	w2, 3056
	adrp	x0, .LC22
	add	x1, x0, :lo12:.LC22
	adrp	x0, .LC61
	add	x0, x0, :lo12:.LC61
	bl	__assert_fail
.L861:
	ldr	s0, [sp, 52]
	scvtf	s0, s0
	ldr	s1, [sp, 32]
	fcmpe	s1, s0
	bge	.L853
	b	.L834
.L853:
	ldr	w0, [sp, 52]
	add	w0, w0, 1
	scvtf	s0, w0
	ldr	s1, [sp, 32]
	fcmpe	s1, s0
	bls	.L828
.L834:
	adrp	x0, .LC55
	add	x3, x0, :lo12:.LC55
	mov	w2, 3058
	adrp	x0, .LC22
	add	x1, x0, :lo12:.LC22
	adrp	x0, .LC62
	add	x0, x0, :lo12:.LC62
	bl	__assert_fail
.L828:
	ldr	s0, [sp, 52]
	scvtf	s0, s0
	ldr	s1, [sp, 48]
	fcmpe	s1, s0
	bls	.L854
	b	.L837
.L854:
	ldr	s0, [sp, 52]
	scvtf	s0, s0
	ldr	s1, [sp, 32]
	fcmpe	s1, s0
	bls	.L855
	b	.L837
.L855:
	ldrsw	x0, [sp, 52]
	lsl	x0, x0, 2
	ldr	x1, [sp, 56]
	add	x0, x1, x0
	ldr	s1, [x0]
	ldr	x0, [sp, 40]
	ldr	s2, [x0, 20]
	ldr	s3, [sp, 28]
	ldr	s0, [sp, 36]
	fsub	s0, s3, s0
	fmul	s0, s2, s0
	ldrsw	x0, [sp, 52]
	lsl	x0, x0, 2
	ldr	x1, [sp, 56]
	add	x0, x1, x0
	fadd	s0, s1, s0
	str	s0, [x0]
	b	.L814
.L837:
	ldr	w0, [sp, 52]
	add	w0, w0, 1
	scvtf	s0, w0
	ldr	s1, [sp, 48]
	fcmpe	s1, s0
	bge	.L856
	b	.L840
.L856:
	ldr	w0, [sp, 52]
	add	w0, w0, 1
	scvtf	s0, w0
	ldr	s1, [sp, 32]
	fcmpe	s1, s0
	bge	.L814
.L840:
	ldr	s0, [sp, 52]
	scvtf	s0, s0
	ldr	s1, [sp, 48]
	fcmpe	s1, s0
	bge	.L857
	b	.L843
.L857:
	ldr	w0, [sp, 52]
	add	w0, w0, 1
	scvtf	s0, w0
	ldr	s1, [sp, 48]
	fcmpe	s1, s0
	bls	.L858
	b	.L843
.L858:
	ldr	s0, [sp, 52]
	scvtf	s0, s0
	ldr	s1, [sp, 32]
	fcmpe	s1, s0
	bge	.L859
	b	.L843
.L859:
	ldr	w0, [sp, 52]
	add	w0, w0, 1
	scvtf	s0, w0
	ldr	s1, [sp, 32]
	fcmpe	s1, s0
	bls	.L848
.L843:
	adrp	x0, .LC55
	add	x3, x0, :lo12:.LC55
	mov	w2, 3065
	adrp	x0, .LC22
	add	x1, x0, :lo12:.LC22
	adrp	x0, .LC63
	add	x0, x0, :lo12:.LC63
	bl	__assert_fail
.L848:
	ldrsw	x0, [sp, 52]
	lsl	x0, x0, 2
	ldr	x1, [sp, 56]
	add	x0, x1, x0
	ldr	s1, [x0]
	ldr	x0, [sp, 40]
	ldr	s2, [x0, 20]
	ldr	s3, [sp, 28]
	ldr	s0, [sp, 36]
	fsub	s0, s3, s0
	fmul	s2, s2, s0
	ldr	s0, [sp, 52]
	scvtf	s0, s0
	ldr	s3, [sp, 48]
	fsub	s3, s3, s0
	ldr	s0, [sp, 52]
	scvtf	s0, s0
	ldr	s4, [sp, 32]
	fsub	s0, s4, s0
	fadd	s3, s3, s0
	fmov	s0, 2.0e+0
	fdiv	s0, s3, s0
	fmov	s3, 1.0e+0
	fsub	s0, s3, s0
	fmul	s0, s2, s0
	ldrsw	x0, [sp, 52]
	lsl	x0, x0, 2
	ldr	x1, [sp, 56]
	add	x0, x1, x0
	fadd	s0, s1, s0
	str	s0, [x0]
	b	.L814
.L862:
	nop
	b	.L814
.L863:
	nop
	b	.L814
.L864:
	nop
.L814:
	ldp	x29, x30, [sp], 64
	.cfi_restore 30
	.cfi_restore 29
	.cfi_def_cfa_offset 0
	ret
	.cfi_endproc
.LFE1650:
	.size	_ZL26stbtt__handle_clipped_edgePfiP18stbtt__active_edgeffff, .-_ZL26stbtt__handle_clipped_edgePfiP18stbtt__active_edgeffff
	.section	.rodata
	.align	3
.LC64:
	.string	"float stbtt__sized_trapezoid_area(float, float, float)"
	.align	3
.LC65:
	.string	"top_width >= 0"
	.align	3
.LC66:
	.string	"bottom_width >= 0"
	.text
	.align	2
	.type	_ZL27stbtt__sized_trapezoid_areafff, %function
_ZL27stbtt__sized_trapezoid_areafff:
.LFB1651:
	.cfi_startproc
	stp	x29, x30, [sp, -32]!
	.cfi_def_cfa_offset 32
	.cfi_offset 29, -32
	.cfi_offset 30, -24
	mov	x29, sp
	str	s0, [sp, 28]
	str	s1, [sp, 24]
	str	s2, [sp, 20]
	ldr	s0, [sp, 24]
	fcmpe	s0, #0.0
	bge	.L866
	adrp	x0, .LC64
	add	x3, x0, :lo12:.LC64
	mov	w2, 3072
	adrp	x0, .LC22
	add	x1, x0, :lo12:.LC22
	adrp	x0, .LC65
	add	x0, x0, :lo12:.LC65
	bl	__assert_fail
.L866:
	ldr	s0, [sp, 20]
	fcmpe	s0, #0.0
	bge	.L867
	adrp	x0, .LC64
	add	x3, x0, :lo12:.LC64
	mov	w2, 3073
	adrp	x0, .LC22
	add	x1, x0, :lo12:.LC22
	adrp	x0, .LC66
	add	x0, x0, :lo12:.LC66
	bl	__assert_fail
.L867:
	ldr	s1, [sp, 24]
	ldr	s0, [sp, 20]
	fadd	s1, s1, s0
	fmov	s0, 2.0e+0
	fdiv	s1, s1, s0
	ldr	s0, [sp, 28]
	fmul	s0, s1, s0
	ldp	x29, x30, [sp], 32
	.cfi_restore 30
	.cfi_restore 29
	.cfi_def_cfa_offset 0
	ret
	.cfi_endproc
.LFE1651:
	.size	_ZL27stbtt__sized_trapezoid_areafff, .-_ZL27stbtt__sized_trapezoid_areafff
	.align	2
	.type	_ZL30stbtt__position_trapezoid_areafffff, %function
_ZL30stbtt__position_trapezoid_areafffff:
.LFB1652:
	.cfi_startproc
	stp	x29, x30, [sp, -48]!
	.cfi_def_cfa_offset 48
	.cfi_offset 29, -48
	.cfi_offset 30, -40
	mov	x29, sp
	str	s0, [sp, 44]
	str	s1, [sp, 40]
	str	s2, [sp, 36]
	str	s3, [sp, 32]
	str	s4, [sp, 28]
	ldr	s1, [sp, 36]
	ldr	s0, [sp, 40]
	fsub	s3, s1, s0
	ldr	s1, [sp, 28]
	ldr	s0, [sp, 32]
	fsub	s0, s1, s0
	fmov	s2, s0
	fmov	s1, s3
	ldr	s0, [sp, 44]
	bl	_ZL27stbtt__sized_trapezoid_areafff
	ldp	x29, x30, [sp], 48
	.cfi_restore 30
	.cfi_restore 29
	.cfi_def_cfa_offset 0
	ret
	.cfi_endproc
.LFE1652:
	.size	_ZL30stbtt__position_trapezoid_areafffff, .-_ZL30stbtt__position_trapezoid_areafffff
	.align	2
	.type	_ZL26stbtt__sized_triangle_areaff, %function
_ZL26stbtt__sized_triangle_areaff:
.LFB1653:
	.cfi_startproc
	sub	sp, sp, #16
	.cfi_def_cfa_offset 16
	str	s0, [sp, 12]
	str	s1, [sp, 8]
	ldr	s1, [sp, 12]
	ldr	s0, [sp, 8]
	fmul	s1, s1, s0
	fmov	s0, 2.0e+0
	fdiv	s0, s1, s0
	add	sp, sp, 16
	.cfi_def_cfa_offset 0
	ret
	.cfi_endproc
.LFE1653:
	.size	_ZL26stbtt__sized_triangle_areaff, .-_ZL26stbtt__sized_triangle_areaff
	.section	.rodata
	.align	3
.LC67:
	.string	"void stbtt__fill_active_edges_new(float*, float*, int, stbtt__active_edge*, float)"
	.align	3
.LC68:
	.string	"e->ey >= y_top"
	.align	3
.LC69:
	.string	"e->sy <= y_bottom && e->ey >= y_top"
	.align	3
.LC70:
	.string	"x >= 0 && x < len"
	.align	3
.LC71:
	.string	"dy >= 0"
	.align	3
.LC72:
	.string	"dx >= 0"
	.align	3
.LC73:
	.string	"fabsf(area) <= 1.01f"
	.align	3
.LC74:
	.string	"sy1 > y_final-0.01f"
	.text
	.align	2
	.type	_ZL28stbtt__fill_active_edges_newPfS_iP18stbtt__active_edgef, %function
_ZL28stbtt__fill_active_edges_newPfS_iP18stbtt__active_edgef:
.LFB1654:
	.cfi_startproc
	stp	x29, x30, [sp, -176]!
	.cfi_def_cfa_offset 176
	.cfi_offset 29, -176
	.cfi_offset 30, -168
	mov	x29, sp
	str	x0, [sp, 40]
	str	x1, [sp, 32]
	str	w2, [sp, 28]
	str	x3, [sp, 16]
	str	s0, [sp, 24]
	ldr	s1, [sp, 24]
	fmov	s0, 1.0e+0
	fadd	s0, s1, s0
	str	s0, [sp, 104]
	b	.L874
.L933:
	ldr	x0, [sp, 16]
	ldr	s0, [x0, 28]
	ldr	s1, [sp, 24]
	fcmpe	s1, s0
	bls	.L875
	adrp	x0, .LC67
	add	x3, x0, :lo12:.LC67
	mov	w2, 3095
	adrp	x0, .LC22
	add	x1, x0, :lo12:.LC22
	adrp	x0, .LC68
	add	x0, x0, :lo12:.LC68
	bl	__assert_fail
.L875:
	ldr	x0, [sp, 16]
	ldr	s0, [x0, 12]
	fcmp	s0, #0.0
	bne	.L876
	ldr	x0, [sp, 16]
	ldr	s0, [x0, 8]
	str	s0, [sp, 172]
	ldr	s0, [sp, 28]
	scvtf	s0, s0
	ldr	s1, [sp, 172]
	fcmpe	s1, s0
	bmi	.L934
	b	.L877
.L934:
	ldr	s0, [sp, 172]
	fcmpe	s0, #0.0
	bge	.L935
	b	.L958
.L935:
	ldr	s0, [sp, 172]
	fcvtzs	w0, s0
	ldr	s3, [sp, 104]
	ldr	s2, [sp, 172]
	ldr	s1, [sp, 24]
	ldr	s0, [sp, 172]
	ldr	x2, [sp, 16]
	mov	w1, w0
	ldr	x0, [sp, 40]
	bl	_ZL26stbtt__handle_clipped_edgePfiP18stbtt__active_edgeffff
	ldr	x0, [sp, 32]
	sub	x0, x0, #4
	ldr	s0, [sp, 172]
	fcvtzs	w1, s0
	add	w1, w1, 1
	ldr	s3, [sp, 104]
	ldr	s2, [sp, 172]
	ldr	s1, [sp, 24]
	ldr	s0, [sp, 172]
	ldr	x2, [sp, 16]
	bl	_ZL26stbtt__handle_clipped_edgePfiP18stbtt__active_edgeffff
	b	.L877
.L958:
	ldr	x0, [sp, 32]
	sub	x0, x0, #4
	ldr	s3, [sp, 104]
	ldr	s2, [sp, 172]
	ldr	s1, [sp, 24]
	ldr	s0, [sp, 172]
	ldr	x2, [sp, 16]
	mov	w1, 0
	bl	_ZL26stbtt__handle_clipped_edgePfiP18stbtt__active_edgeffff
	b	.L877
.L876:
	ldr	x0, [sp, 16]
	ldr	s0, [x0, 8]
	str	s0, [sp, 56]
	ldr	x0, [sp, 16]
	ldr	s0, [x0, 12]
	str	s0, [sp, 60]
	ldr	s1, [sp, 56]
	ldr	s0, [sp, 60]
	fadd	s0, s1, s0
	str	s0, [sp, 108]
	ldr	x0, [sp, 16]
	ldr	s0, [x0, 16]
	str	s0, [sp, 80]
	ldr	x0, [sp, 16]
	ldr	s0, [x0, 24]
	ldr	s1, [sp, 104]
	fcmpe	s1, s0
	bge	.L936
	b	.L881
.L936:
	ldr	x0, [sp, 16]
	ldr	s0, [x0, 28]
	ldr	s1, [sp, 24]
	fcmpe	s1, s0
	bls	.L884
.L881:
	adrp	x0, .LC67
	add	x3, x0, :lo12:.LC67
	mov	w2, 3114
	adrp	x0, .LC22
	add	x1, x0, :lo12:.LC22
	adrp	x0, .LC69
	add	x0, x0, :lo12:.LC69
	bl	__assert_fail
.L884:
	ldr	x0, [sp, 16]
	ldr	s0, [x0, 24]
	ldr	s1, [sp, 24]
	fcmpe	s1, s0
	bmi	.L937
	b	.L959
.L937:
	ldr	x0, [sp, 16]
	ldr	s1, [x0, 24]
	ldr	s0, [sp, 24]
	fsub	s1, s1, s0
	ldr	s0, [sp, 60]
	fmul	s0, s1, s0
	ldr	s1, [sp, 56]
	fadd	s0, s1, s0
	str	s0, [sp, 64]
	ldr	x0, [sp, 16]
	ldr	s0, [x0, 24]
	str	s0, [sp, 72]
	b	.L887
.L959:
	ldr	s0, [sp, 56]
	str	s0, [sp, 64]
	ldr	s0, [sp, 24]
	str	s0, [sp, 72]
.L887:
	ldr	x0, [sp, 16]
	ldr	s0, [x0, 28]
	ldr	s1, [sp, 104]
	fcmpe	s1, s0
	bgt	.L938
	b	.L960
.L938:
	ldr	x0, [sp, 16]
	ldr	s1, [x0, 28]
	ldr	s0, [sp, 24]
	fsub	s1, s1, s0
	ldr	s0, [sp, 60]
	fmul	s0, s1, s0
	ldr	s1, [sp, 56]
	fadd	s0, s1, s0
	str	s0, [sp, 68]
	ldr	x0, [sp, 16]
	ldr	s0, [x0, 28]
	str	s0, [sp, 76]
	b	.L890
.L960:
	ldr	s0, [sp, 108]
	str	s0, [sp, 68]
	ldr	s0, [sp, 104]
	str	s0, [sp, 76]
.L890:
	ldr	s0, [sp, 64]
	fcmpe	s0, #0.0
	bge	.L939
	b	.L891
.L939:
	ldr	s0, [sp, 68]
	fcmpe	s0, #0.0
	bge	.L940
	b	.L891
.L940:
	ldr	s0, [sp, 28]
	scvtf	s0, s0
	ldr	s1, [sp, 64]
	fcmpe	s1, s0
	bmi	.L941
	b	.L891
.L941:
	ldr	s0, [sp, 28]
	scvtf	s0, s0
	ldr	s1, [sp, 68]
	fcmpe	s1, s0
	bmi	.L942
	b	.L891
.L942:
	ldr	s0, [sp, 64]
	fcvtzs	w1, s0
	ldr	s0, [sp, 68]
	fcvtzs	w0, s0
	cmp	w1, w0
	bne	.L896
	ldr	s0, [sp, 64]
	fcvtzs	s0, s0
	str	s0, [sp, 136]
	ldr	s1, [sp, 76]
	ldr	s0, [sp, 72]
	fsub	s1, s1, s0
	ldr	x0, [sp, 16]
	ldr	s0, [x0, 20]
	fmul	s0, s1, s0
	str	s0, [sp, 140]
	ldr	w0, [sp, 136]
	cmp	w0, 0
	blt	.L897
	ldr	w1, [sp, 136]
	ldr	w0, [sp, 28]
	cmp	w1, w0
	blt	.L961
.L897:
	adrp	x0, .LC67
	add	x3, x0, :lo12:.LC67
	mov	w2, 3142
	adrp	x0, .LC22
	add	x1, x0, :lo12:.LC22
	adrp	x0, .LC70
	add	x0, x0, :lo12:.LC70
	bl	__assert_fail
.L961:
	ldr	s0, [sp, 136]
	scvtf	s1, s0
	fmov	s0, 1.0e+0
	fadd	s2, s1, s0
	ldr	s0, [sp, 136]
	scvtf	s1, s0
	fmov	s0, 1.0e+0
	fadd	s0, s1, s0
	fmov	s4, s0
	ldr	s3, [sp, 68]
	ldr	s1, [sp, 64]
	ldr	s0, [sp, 140]
	bl	_ZL30stbtt__position_trapezoid_areafffff
	fmov	s1, s0
	ldrsw	x0, [sp, 136]
	lsl	x0, x0, 2
	ldr	x1, [sp, 40]
	add	x0, x1, x0
	ldr	s0, [x0]
	ldrsw	x0, [sp, 136]
	lsl	x0, x0, 2
	ldr	x1, [sp, 40]
	add	x0, x1, x0
	fadd	s0, s1, s0
	str	s0, [x0]
	ldrsw	x0, [sp, 136]
	lsl	x0, x0, 2
	ldr	x1, [sp, 32]
	add	x0, x1, x0
	ldr	s1, [x0]
	ldrsw	x0, [sp, 136]
	lsl	x0, x0, 2
	ldr	x1, [sp, 32]
	add	x0, x1, x0
	ldr	s0, [sp, 140]
	fadd	s0, s1, s0
	str	s0, [x0]
	b	.L877
.L896:
	ldr	s1, [sp, 64]
	ldr	s0, [sp, 68]
	fcmpe	s1, s0
	bgt	.L943
	b	.L900
.L943:
	ldr	s1, [sp, 72]
	ldr	s0, [sp, 24]
	fsub	s0, s1, s0
	ldr	s1, [sp, 104]
	fsub	s0, s1, s0
	str	s0, [sp, 72]
	ldr	s1, [sp, 76]
	ldr	s0, [sp, 24]
	fsub	s0, s1, s0
	ldr	s1, [sp, 104]
	fsub	s0, s1, s0
	str	s0, [sp, 76]
	ldr	s0, [sp, 72]
	str	s0, [sp, 112]
	ldr	s0, [sp, 76]
	str	s0, [sp, 72]
	ldr	s0, [sp, 112]
	str	s0, [sp, 76]
	ldr	s0, [sp, 68]
	str	s0, [sp, 112]
	ldr	s0, [sp, 64]
	str	s0, [sp, 68]
	ldr	s0, [sp, 112]
	str	s0, [sp, 64]
	ldr	s0, [sp, 60]
	fneg	s0, s0
	str	s0, [sp, 60]
	ldr	s0, [sp, 80]
	fneg	s0, s0
	str	s0, [sp, 80]
	ldr	s0, [sp, 56]
	str	s0, [sp, 112]
	ldr	s0, [sp, 108]
	str	s0, [sp, 56]
	ldr	s0, [sp, 112]
	str	s0, [sp, 108]
.L900:
	ldr	s0, [sp, 80]
	fcmpe	s0, #0.0
	bge	.L902
	adrp	x0, .LC67
	add	x3, x0, :lo12:.LC67
	mov	w2, 3160
	adrp	x0, .LC22
	add	x1, x0, :lo12:.LC22
	adrp	x0, .LC71
	add	x0, x0, :lo12:.LC71
	bl	__assert_fail
.L902:
	ldr	s0, [sp, 60]
	fcmpe	s0, #0.0
	bge	.L903
	adrp	x0, .LC67
	add	x3, x0, :lo12:.LC67
	mov	w2, 3161
	adrp	x0, .LC22
	add	x1, x0, :lo12:.LC22
	adrp	x0, .LC72
	add	x0, x0, :lo12:.LC72
	bl	__assert_fail
.L903:
	ldr	s0, [sp, 64]
	fcvtzs	s0, s0
	str	s0, [sp, 116]
	ldr	s0, [sp, 68]
	fcvtzs	s0, s0
	str	s0, [sp, 120]
	ldr	w0, [sp, 116]
	add	w0, w0, 1
	scvtf	s1, w0
	ldr	s0, [sp, 56]
	fsub	s1, s1, s0
	ldr	s0, [sp, 80]
	fmul	s0, s1, s0
	ldr	s1, [sp, 24]
	fadd	s0, s1, s0
	str	s0, [sp, 88]
	ldr	s0, [sp, 120]
	scvtf	s1, s0
	ldr	s0, [sp, 56]
	fsub	s1, s1, s0
	ldr	s0, [sp, 80]
	fmul	s0, s1, s0
	ldr	s1, [sp, 24]
	fadd	s0, s1, s0
	str	s0, [sp, 92]
	ldr	s1, [sp, 88]
	ldr	s0, [sp, 104]
	fcmpe	s1, s0
	bgt	.L944
	b	.L904
.L944:
	ldr	s0, [sp, 104]
	str	s0, [sp, 88]
.L904:
	ldr	x0, [sp, 16]
	ldr	s0, [x0, 20]
	str	s0, [sp, 124]
	ldr	s1, [sp, 88]
	ldr	s0, [sp, 72]
	fsub	s0, s1, s0
	ldr	s1, [sp, 124]
	fmul	s0, s1, s0
	str	s0, [sp, 96]
	ldr	w0, [sp, 116]
	add	w0, w0, 1
	scvtf	s1, w0
	ldr	s0, [sp, 64]
	fsub	s0, s1, s0
	fmov	s1, s0
	ldr	s0, [sp, 96]
	bl	_ZL26stbtt__sized_triangle_areaff
	fmov	s1, s0
	ldrsw	x0, [sp, 116]
	lsl	x0, x0, 2
	ldr	x1, [sp, 40]
	add	x0, x1, x0
	ldr	s0, [x0]
	ldrsw	x0, [sp, 116]
	lsl	x0, x0, 2
	ldr	x1, [sp, 40]
	add	x0, x1, x0
	fadd	s0, s1, s0
	str	s0, [x0]
	ldr	s1, [sp, 92]
	ldr	s0, [sp, 104]
	fcmpe	s1, s0
	bgt	.L945
	b	.L906
.L945:
	ldr	w0, [sp, 116]
	add	w0, w0, 1
	ldr	w1, [sp, 120]
	sub	w0, w1, w0
	str	w0, [sp, 128]
	ldr	s0, [sp, 104]
	str	s0, [sp, 92]
	ldr	w0, [sp, 128]
	cmp	w0, 0
	beq	.L906
	ldr	s1, [sp, 92]
	ldr	s0, [sp, 88]
	fsub	s1, s1, s0
	ldr	s0, [sp, 128]
	scvtf	s0, s0
	fdiv	s0, s1, s0
	str	s0, [sp, 80]
.L906:
	ldr	s1, [sp, 124]
	ldr	s0, [sp, 80]
	fmul	s0, s1, s0
	str	s0, [sp, 132]
	ldr	w0, [sp, 116]
	add	w0, w0, 1
	str	w0, [sp, 84]
	b	.L908
.L909:
	ldrsw	x0, [sp, 84]
	lsl	x0, x0, 2
	ldr	x1, [sp, 40]
	add	x0, x1, x0
	ldr	s1, [x0]
	fmov	s0, 2.0e+0
	ldr	s2, [sp, 132]
	fdiv	s2, s2, s0
	ldr	s0, [sp, 96]
	fadd	s0, s2, s0
	ldrsw	x0, [sp, 84]
	lsl	x0, x0, 2
	ldr	x1, [sp, 40]
	add	x0, x1, x0
	fadd	s0, s1, s0
	str	s0, [x0]
	ldr	s1, [sp, 96]
	ldr	s0, [sp, 132]
	fadd	s0, s1, s0
	str	s0, [sp, 96]
	ldr	w0, [sp, 84]
	add	w0, w0, 1
	str	w0, [sp, 84]
.L908:
	ldr	w1, [sp, 84]
	ldr	w0, [sp, 120]
	cmp	w1, w0
	blt	.L909
	ldr	s0, [sp, 96]
	fabs	s0, s0
	mov	w0, 18350
	movk	w0, 0x3f81, lsl 16
	fmov	s1, w0
	fcmpe	s0, s1
	bls	.L910
	adrp	x0, .LC67
	add	x3, x0, :lo12:.LC67
	mov	w2, 3228
	adrp	x0, .LC22
	add	x1, x0, :lo12:.LC22
	adrp	x0, .LC73
	add	x0, x0, :lo12:.LC73
	bl	__assert_fail
.L910:
	ldr	s0, [sp, 92]
	mov	w0, 55050
	movk	w0, 0x3c23, lsl 16
	fmov	s1, w0
	fsub	s0, s0, s1
	ldr	s1, [sp, 76]
	fcmpe	s1, s0
	bgt	.L911
	adrp	x0, .LC67
	add	x3, x0, :lo12:.LC67
	mov	w2, 3229
	adrp	x0, .LC22
	add	x1, x0, :lo12:.LC22
	adrp	x0, .LC74
	add	x0, x0, :lo12:.LC74
	bl	__assert_fail
.L911:
	ldr	s1, [sp, 76]
	ldr	s0, [sp, 92]
	fsub	s5, s1, s0
	ldr	s0, [sp, 120]
	scvtf	s6, s0
	ldr	s0, [sp, 120]
	scvtf	s1, s0
	fmov	s0, 1.0e+0
	fadd	s2, s1, s0
	ldr	s0, [sp, 120]
	scvtf	s1, s0
	fmov	s0, 1.0e+0
	fadd	s0, s1, s0
	fmov	s4, s0
	ldr	s3, [sp, 68]
	fmov	s1, s6
	fmov	s0, s5
	bl	_ZL30stbtt__position_trapezoid_areafffff
	fmov	s1, s0
	ldr	s0, [sp, 124]
	fmul	s1, s1, s0
	ldr	s0, [sp, 96]
	fadd	s1, s1, s0
	ldrsw	x0, [sp, 120]
	lsl	x0, x0, 2
	ldr	x1, [sp, 40]
	add	x0, x1, x0
	ldr	s0, [x0]
	ldrsw	x0, [sp, 120]
	lsl	x0, x0, 2
	ldr	x1, [sp, 40]
	add	x0, x1, x0
	fadd	s0, s1, s0
	str	s0, [x0]
	ldrsw	x0, [sp, 120]
	lsl	x0, x0, 2
	ldr	x1, [sp, 32]
	add	x0, x1, x0
	ldr	s1, [x0]
	ldr	s2, [sp, 76]
	ldr	s0, [sp, 72]
	fsub	s2, s2, s0
	ldr	s0, [sp, 124]
	fmul	s0, s2, s0
	ldrsw	x0, [sp, 120]
	lsl	x0, x0, 2
	ldr	x1, [sp, 32]
	add	x0, x1, x0
	fadd	s0, s1, s0
	str	s0, [x0]
	b	.L877
.L891:
	str	wzr, [sp, 100]
	b	.L912
.L932:
	ldr	s0, [sp, 24]
	str	s0, [sp, 144]
	ldr	s0, [sp, 100]
	scvtf	s0, s0
	str	s0, [sp, 148]
	ldr	w0, [sp, 100]
	add	w0, w0, 1
	scvtf	s0, w0
	str	s0, [sp, 152]
	ldr	s0, [sp, 108]
	str	s0, [sp, 156]
	ldr	s0, [sp, 104]
	str	s0, [sp, 160]
	ldr	s0, [sp, 100]
	scvtf	s1, s0
	ldr	s0, [sp, 56]
	fsub	s1, s1, s0
	ldr	s0, [sp, 60]
	fdiv	s0, s1, s0
	ldr	s1, [sp, 24]
	fadd	s0, s1, s0
	str	s0, [sp, 164]
	ldr	w0, [sp, 100]
	add	w0, w0, 1
	scvtf	s1, w0
	ldr	s0, [sp, 56]
	fsub	s1, s1, s0
	ldr	s0, [sp, 60]
	fdiv	s0, s1, s0
	ldr	s1, [sp, 24]
	fadd	s0, s1, s0
	str	s0, [sp, 168]
	ldr	s1, [sp, 56]
	ldr	s0, [sp, 148]
	fcmpe	s1, s0
	bmi	.L946
	b	.L913
.L946:
	ldr	s1, [sp, 156]
	ldr	s0, [sp, 152]
	fcmpe	s1, s0
	bgt	.L947
	b	.L913
.L947:
	ldr	s3, [sp, 164]
	ldr	s2, [sp, 148]
	ldr	s1, [sp, 144]
	ldr	s0, [sp, 56]
	ldr	x2, [sp, 16]
	ldr	w1, [sp, 100]
	ldr	x0, [sp, 40]
	bl	_ZL26stbtt__handle_clipped_edgePfiP18stbtt__active_edgeffff
	ldr	s3, [sp, 168]
	ldr	s2, [sp, 152]
	ldr	s1, [sp, 164]
	ldr	s0, [sp, 148]
	ldr	x2, [sp, 16]
	ldr	w1, [sp, 100]
	ldr	x0, [sp, 40]
	bl	_ZL26stbtt__handle_clipped_edgePfiP18stbtt__active_edgeffff
	ldr	s3, [sp, 160]
	ldr	s2, [sp, 156]
	ldr	s1, [sp, 168]
	ldr	s0, [sp, 152]
	ldr	x2, [sp, 16]
	ldr	w1, [sp, 100]
	ldr	x0, [sp, 40]
	bl	_ZL26stbtt__handle_clipped_edgePfiP18stbtt__active_edgeffff
	b	.L916
.L913:
	ldr	s1, [sp, 156]
	ldr	s0, [sp, 148]
	fcmpe	s1, s0
	bmi	.L948
	b	.L917
.L948:
	ldr	s1, [sp, 56]
	ldr	s0, [sp, 152]
	fcmpe	s1, s0
	bgt	.L949
	b	.L917
.L949:
	ldr	s3, [sp, 168]
	ldr	s2, [sp, 152]
	ldr	s1, [sp, 144]
	ldr	s0, [sp, 56]
	ldr	x2, [sp, 16]
	ldr	w1, [sp, 100]
	ldr	x0, [sp, 40]
	bl	_ZL26stbtt__handle_clipped_edgePfiP18stbtt__active_edgeffff
	ldr	s3, [sp, 164]
	ldr	s2, [sp, 148]
	ldr	s1, [sp, 168]
	ldr	s0, [sp, 152]
	ldr	x2, [sp, 16]
	ldr	w1, [sp, 100]
	ldr	x0, [sp, 40]
	bl	_ZL26stbtt__handle_clipped_edgePfiP18stbtt__active_edgeffff
	ldr	s3, [sp, 160]
	ldr	s2, [sp, 156]
	ldr	s1, [sp, 164]
	ldr	s0, [sp, 148]
	ldr	x2, [sp, 16]
	ldr	w1, [sp, 100]
	ldr	x0, [sp, 40]
	bl	_ZL26stbtt__handle_clipped_edgePfiP18stbtt__active_edgeffff
	b	.L916
.L917:
	ldr	s1, [sp, 56]
	ldr	s0, [sp, 148]
	fcmpe	s1, s0
	bmi	.L950
	b	.L920
.L950:
	ldr	s1, [sp, 156]
	ldr	s0, [sp, 148]
	fcmpe	s1, s0
	bgt	.L951
	b	.L920
.L951:
	ldr	s3, [sp, 164]
	ldr	s2, [sp, 148]
	ldr	s1, [sp, 144]
	ldr	s0, [sp, 56]
	ldr	x2, [sp, 16]
	ldr	w1, [sp, 100]
	ldr	x0, [sp, 40]
	bl	_ZL26stbtt__handle_clipped_edgePfiP18stbtt__active_edgeffff
	ldr	s3, [sp, 160]
	ldr	s2, [sp, 156]
	ldr	s1, [sp, 164]
	ldr	s0, [sp, 148]
	ldr	x2, [sp, 16]
	ldr	w1, [sp, 100]
	ldr	x0, [sp, 40]
	bl	_ZL26stbtt__handle_clipped_edgePfiP18stbtt__active_edgeffff
	b	.L916
.L920:
	ldr	s1, [sp, 156]
	ldr	s0, [sp, 148]
	fcmpe	s1, s0
	bmi	.L952
	b	.L923
.L952:
	ldr	s1, [sp, 56]
	ldr	s0, [sp, 148]
	fcmpe	s1, s0
	bgt	.L953
	b	.L923
.L953:
	ldr	s3, [sp, 164]
	ldr	s2, [sp, 148]
	ldr	s1, [sp, 144]
	ldr	s0, [sp, 56]
	ldr	x2, [sp, 16]
	ldr	w1, [sp, 100]
	ldr	x0, [sp, 40]
	bl	_ZL26stbtt__handle_clipped_edgePfiP18stbtt__active_edgeffff
	ldr	s3, [sp, 160]
	ldr	s2, [sp, 156]
	ldr	s1, [sp, 164]
	ldr	s0, [sp, 148]
	ldr	x2, [sp, 16]
	ldr	w1, [sp, 100]
	ldr	x0, [sp, 40]
	bl	_ZL26stbtt__handle_clipped_edgePfiP18stbtt__active_edgeffff
	b	.L916
.L923:
	ldr	s1, [sp, 56]
	ldr	s0, [sp, 152]
	fcmpe	s1, s0
	bmi	.L954
	b	.L926
.L954:
	ldr	s1, [sp, 156]
	ldr	s0, [sp, 152]
	fcmpe	s1, s0
	bgt	.L955
	b	.L926
.L955:
	ldr	s3, [sp, 168]
	ldr	s2, [sp, 152]
	ldr	s1, [sp, 144]
	ldr	s0, [sp, 56]
	ldr	x2, [sp, 16]
	ldr	w1, [sp, 100]
	ldr	x0, [sp, 40]
	bl	_ZL26stbtt__handle_clipped_edgePfiP18stbtt__active_edgeffff
	ldr	s3, [sp, 160]
	ldr	s2, [sp, 156]
	ldr	s1, [sp, 168]
	ldr	s0, [sp, 152]
	ldr	x2, [sp, 16]
	ldr	w1, [sp, 100]
	ldr	x0, [sp, 40]
	bl	_ZL26stbtt__handle_clipped_edgePfiP18stbtt__active_edgeffff
	b	.L916
.L926:
	ldr	s1, [sp, 156]
	ldr	s0, [sp, 152]
	fcmpe	s1, s0
	bmi	.L956
	b	.L929
.L956:
	ldr	s1, [sp, 56]
	ldr	s0, [sp, 152]
	fcmpe	s1, s0
	bgt	.L957
	b	.L929
.L957:
	ldr	s3, [sp, 168]
	ldr	s2, [sp, 152]
	ldr	s1, [sp, 144]
	ldr	s0, [sp, 56]
	ldr	x2, [sp, 16]
	ldr	w1, [sp, 100]
	ldr	x0, [sp, 40]
	bl	_ZL26stbtt__handle_clipped_edgePfiP18stbtt__active_edgeffff
	ldr	s3, [sp, 160]
	ldr	s2, [sp, 156]
	ldr	s1, [sp, 168]
	ldr	s0, [sp, 152]
	ldr	x2, [sp, 16]
	ldr	w1, [sp, 100]
	ldr	x0, [sp, 40]
	bl	_ZL26stbtt__handle_clipped_edgePfiP18stbtt__active_edgeffff
	b	.L916
.L929:
	ldr	s3, [sp, 160]
	ldr	s2, [sp, 156]
	ldr	s1, [sp, 144]
	ldr	s0, [sp, 56]
	ldr	x2, [sp, 16]
	ldr	w1, [sp, 100]
	ldr	x0, [sp, 40]
	bl	_ZL26stbtt__handle_clipped_edgePfiP18stbtt__active_edgeffff
.L916:
	ldr	w0, [sp, 100]
	add	w0, w0, 1
	str	w0, [sp, 100]
.L912:
	ldr	w1, [sp, 100]
	ldr	w0, [sp, 28]
	cmp	w1, w0
	blt	.L932
.L877:
	ldr	x0, [sp, 16]
	ldr	x0, [x0]
	str	x0, [sp, 16]
.L874:
	ldr	x0, [sp, 16]
	cmp	x0, 0
	bne	.L933
	nop
	nop
	ldp	x29, x30, [sp], 176
	.cfi_restore 30
	.cfi_restore 29
	.cfi_def_cfa_offset 0
	ret
	.cfi_endproc
.LFE1654:
	.size	_ZL28stbtt__fill_active_edges_newPfS_iP18stbtt__active_edgef, .-_ZL28stbtt__fill_active_edges_newPfS_iP18stbtt__active_edgef
	.section	.rodata
	.align	3
.LC75:
	.string	"void stbtt__rasterize_sorted_edges(stbtt__bitmap*, stbtt__edge*, int, int, int, int, void*)"
	.align	3
.LC76:
	.string	"z->direction"
	.align	3
.LC77:
	.string	"z->ey >= scan_y_top"
	.text
	.align	2
	.type	_ZL29stbtt__rasterize_sorted_edgesP13stbtt__bitmapP11stbtt__edgeiiiiPv, %function
_ZL29stbtt__rasterize_sorted_edgesP13stbtt__bitmapP11stbtt__edgeiiiiPv:
.LFB1655:
	.cfi_startproc
	sub	sp, sp, #704
	.cfi_def_cfa_offset 704
	stp	x29, x30, [sp]
	.cfi_offset 29, -704
	.cfi_offset 30, -696
	mov	x29, sp
	str	x0, [sp, 56]
	str	x1, [sp, 48]
	str	w2, [sp, 44]
	str	w3, [sp, 40]
	str	w4, [sp, 36]
	str	w5, [sp, 32]
	str	x6, [sp, 24]
	adrp	x0, :got:__stack_chk_guard
	ldr	x0, [x0, #:got_lo12:__stack_chk_guard]
	ldr	x1, [x0]
	str	x1, [sp, 696]
	mov	x1, 0
	str	xzr, [sp, 152]
	str	xzr, [sp, 160]
	str	wzr, [sp, 168]
	str	xzr, [sp, 96]
	str	wzr, [sp, 68]
	ldr	x0, [sp, 56]
	ldr	w0, [x0]
	cmp	w0, 64
	ble	.L963
	ldr	x0, [sp, 56]
	ldr	w0, [x0]
	lsl	w0, w0, 1
	add	w0, w0, 1
	sxtw	x0, w0
	lsl	x0, x0, 2
	bl	_ZN5ImGui8MemAllocEm
	str	x0, [sp, 104]
	b	.L964
.L963:
	add	x0, sp, 176
	str	x0, [sp, 104]
.L964:
	ldr	x0, [sp, 56]
	ldr	w0, [x0]
	sxtw	x0, w0
	lsl	x0, x0, 2
	ldr	x1, [sp, 104]
	add	x0, x1, x0
	str	x0, [sp, 120]
	ldr	w0, [sp, 32]
	str	w0, [sp, 64]
	ldr	x0, [sp, 56]
	ldr	w1, [x0, 4]
	ldr	w0, [sp, 32]
	add	w0, w1, w0
	fmov	s0, w0
	scvtf	s1, s0
	ldrsw	x1, [sp, 44]
	mov	x0, x1
	lsl	x0, x0, 2
	add	x0, x0, x1
	lsl	x0, x0, 2
	mov	x1, x0
	ldr	x0, [sp, 48]
	add	x0, x0, x1
	fmov	s0, 1.0e+0
	fadd	s0, s1, s0
	str	s0, [x0, 4]
	b	.L965
.L983:
	ldr	s0, [sp, 64]
	scvtf	s0, s0
	movi	v1.2s, #0
	fadd	s0, s0, s1
	str	s0, [sp, 84]
	ldr	s0, [sp, 64]
	scvtf	s1, s0
	fmov	s0, 1.0e+0
	fadd	s0, s1, s0
	str	s0, [sp, 88]
	add	x0, sp, 96
	str	x0, [sp, 112]
	ldr	x0, [sp, 56]
	ldr	w0, [x0]
	sxtw	x0, w0
	lsl	x0, x0, 2
	mov	x2, x0
	mov	w1, 0
	ldr	x0, [sp, 104]
	bl	memset
	ldr	x0, [sp, 56]
	ldr	w0, [x0]
	add	w0, w0, 1
	sxtw	x0, w0
	lsl	x0, x0, 2
	mov	x2, x0
	mov	w1, 0
	ldr	x0, [sp, 120]
	bl	memset
	b	.L966
.L970:
	ldr	x0, [sp, 112]
	ldr	x0, [x0]
	str	x0, [sp, 144]
	ldr	x0, [sp, 144]
	ldr	s0, [x0, 28]
	ldr	s1, [sp, 84]
	fcmpe	s1, s0
	bge	.L986
	b	.L988
.L986:
	ldr	x0, [sp, 144]
	ldr	x1, [x0]
	ldr	x0, [sp, 112]
	str	x1, [x0]
	ldr	x0, [sp, 144]
	ldr	s0, [x0, 20]
	fcmp	s0, #0.0
	bne	.L969
	adrp	x0, .LC75
	add	x3, x0, :lo12:.LC75
	mov	w2, 3339
	adrp	x0, .LC22
	add	x1, x0, :lo12:.LC22
	adrp	x0, .LC76
	add	x0, x0, :lo12:.LC76
	bl	__assert_fail
.L969:
	ldr	x0, [sp, 144]
	str	wzr, [x0, 20]
	add	x0, sp, 152
	ldr	x1, [sp, 144]
	bl	_ZL17stbtt__hheap_freeP12stbtt__hheapPv
	b	.L966
.L988:
	ldr	x0, [sp, 112]
	ldr	x0, [x0]
	str	x0, [sp, 112]
.L966:
	ldr	x0, [sp, 112]
	ldr	x0, [x0]
	cmp	x0, 0
	bne	.L970
	b	.L971
.L976:
	ldr	x0, [sp, 48]
	ldr	s1, [x0, 4]
	ldr	x0, [sp, 48]
	ldr	s0, [x0, 12]
	fcmp	s1, s0
	beq	.L972
	add	x0, sp, 152
	ldr	x3, [sp, 24]
	ldr	s0, [sp, 84]
	ldr	w2, [sp, 36]
	ldr	x1, [sp, 48]
	bl	_ZL17stbtt__new_activeP12stbtt__hheapP11stbtt__edgeifPv
	str	x0, [sp, 136]
	ldr	x0, [sp, 136]
	cmp	x0, 0
	beq	.L972
	ldr	w0, [sp, 68]
	cmp	w0, 0
	bne	.L973
	ldr	w0, [sp, 32]
	cmp	w0, 0
	beq	.L973
	ldr	x0, [sp, 136]
	ldr	s0, [x0, 28]
	ldr	s1, [sp, 84]
	fcmpe	s1, s0
	bgt	.L987
	b	.L973
.L987:
	ldr	x0, [sp, 136]
	ldr	s0, [sp, 84]
	str	s0, [x0, 28]
.L973:
	ldr	x0, [sp, 136]
	ldr	s0, [x0, 28]
	ldr	s1, [sp, 84]
	fcmpe	s1, s0
	bls	.L975
	adrp	x0, .LC75
	add	x3, x0, :lo12:.LC75
	mov	w2, 3358
	adrp	x0, .LC22
	add	x1, x0, :lo12:.LC22
	adrp	x0, .LC77
	add	x0, x0, :lo12:.LC77
	bl	__assert_fail
.L975:
	ldr	x1, [sp, 96]
	ldr	x0, [sp, 136]
	str	x1, [x0]
	ldr	x0, [sp, 136]
	str	x0, [sp, 96]
.L972:
	ldr	x0, [sp, 48]
	add	x0, x0, 20
	str	x0, [sp, 48]
.L971:
	ldr	x0, [sp, 48]
	ldr	s0, [x0, 4]
	ldr	s1, [sp, 88]
	fcmpe	s1, s0
	bge	.L976
	ldr	x0, [sp, 96]
	cmp	x0, 0
	beq	.L977
	ldr	x0, [sp, 120]
	add	x1, x0, 4
	ldr	x0, [sp, 56]
	ldr	w0, [x0]
	ldr	x2, [sp, 96]
	ldr	s0, [sp, 84]
	mov	x3, x2
	mov	w2, w0
	ldr	x0, [sp, 104]
	bl	_ZL28stbtt__fill_active_edges_newPfS_iP18stbtt__active_edgef
.L977:
	str	wzr, [sp, 76]
	str	wzr, [sp, 72]
	b	.L978
.L980:
	ldrsw	x0, [sp, 72]
	lsl	x0, x0, 2
	ldr	x1, [sp, 120]
	add	x0, x1, x0
	ldr	s0, [x0]
	ldr	s1, [sp, 76]
	fadd	s0, s1, s0
	str	s0, [sp, 76]
	ldrsw	x0, [sp, 72]
	lsl	x0, x0, 2
	ldr	x1, [sp, 104]
	add	x0, x1, x0
	ldr	s0, [x0]
	ldr	s1, [sp, 76]
	fadd	s0, s1, s0
	str	s0, [sp, 92]
	ldr	s0, [sp, 92]
	fabs	s0, s0
	mov	w0, 1132396544
	fmov	s1, w0
	fmul	s1, s0, s1
	fmov	s0, 5.0e-1
	fadd	s0, s1, s0
	str	s0, [sp, 92]
	ldr	s0, [sp, 92]
	fcvtzs	s0, s0
	str	s0, [sp, 80]
	ldr	w0, [sp, 80]
	cmp	w0, 255
	ble	.L979
	mov	w0, 255
	str	w0, [sp, 80]
.L979:
	ldr	x0, [sp, 56]
	ldr	x1, [x0, 16]
	ldr	x0, [sp, 56]
	ldr	w2, [x0, 8]
	ldr	w0, [sp, 68]
	mul	w2, w2, w0
	ldr	w0, [sp, 72]
	add	w0, w2, w0
	sxtw	x0, w0
	add	x0, x1, x0
	ldr	w1, [sp, 80]
	and	w1, w1, 255
	strb	w1, [x0]
	ldr	w0, [sp, 72]
	add	w0, w0, 1
	str	w0, [sp, 72]
.L978:
	ldr	x0, [sp, 56]
	ldr	w0, [x0]
	ldr	w1, [sp, 72]
	cmp	w1, w0
	blt	.L980
	add	x0, sp, 96
	str	x0, [sp, 112]
	b	.L981
.L982:
	ldr	x0, [sp, 112]
	ldr	x0, [x0]
	str	x0, [sp, 128]
	ldr	x0, [sp, 128]
	ldr	s1, [x0, 8]
	ldr	x0, [sp, 128]
	ldr	s0, [x0, 12]
	fadd	s0, s1, s0
	ldr	x0, [sp, 128]
	str	s0, [x0, 8]
	ldr	x0, [sp, 112]
	ldr	x0, [x0]
	str	x0, [sp, 112]
.L981:
	ldr	x0, [sp, 112]
	ldr	x0, [x0]
	cmp	x0, 0
	bne	.L982
	ldr	w0, [sp, 64]
	add	w0, w0, 1
	str	w0, [sp, 64]
	ldr	w0, [sp, 68]
	add	w0, w0, 1
	str	w0, [sp, 68]
.L965:
	ldr	x0, [sp, 56]
	ldr	w0, [x0, 4]
	ldr	w1, [sp, 68]
	cmp	w1, w0
	blt	.L983
	add	x0, sp, 152
	ldr	x1, [sp, 24]
	bl	_ZL20stbtt__hheap_cleanupP12stbtt__hheapPv
	add	x0, sp, 176
	ldr	x1, [sp, 104]
	cmp	x1, x0
	beq	.L989
	ldr	x0, [sp, 104]
	bl	_ZN5ImGui7MemFreeEPv
.L989:
	nop
	adrp	x0, :got:__stack_chk_guard
	ldr	x0, [x0, #:got_lo12:__stack_chk_guard]
	ldr	x2, [sp, 696]
	ldr	x1, [x0]
	subs	x2, x2, x1
	mov	x1, 0
	beq	.L985
	bl	__stack_chk_fail
.L985:
	ldp	x29, x30, [sp]
	add	sp, sp, 704
	.cfi_restore 29
	.cfi_restore 30
	.cfi_def_cfa_offset 0
	ret
	.cfi_endproc
.LFE1655:
	.size	_ZL29stbtt__rasterize_sorted_edgesP13stbtt__bitmapP11stbtt__edgeiiiiPv, .-_ZL29stbtt__rasterize_sorted_edgesP13stbtt__bitmapP11stbtt__edgeiiiiPv
	.align	2
	.type	_ZL26stbtt__sort_edges_ins_sortP11stbtt__edgei, %function
_ZL26stbtt__sort_edges_ins_sortP11stbtt__edgei:
.LFB1656:
	.cfi_startproc
	stp	x29, x30, [sp, -96]!
	.cfi_def_cfa_offset 96
	.cfi_offset 29, -96
	.cfi_offset 30, -88
	mov	x29, sp
	str	x0, [sp, 24]
	str	w1, [sp, 20]
	adrp	x0, :got:__stack_chk_guard
	ldr	x0, [x0, #:got_lo12:__stack_chk_guard]
	ldr	x1, [x0]
	str	x1, [sp, 88]
	mov	x1, 0
	mov	w0, 1
	str	w0, [sp, 36]
	b	.L991
.L997:
	ldrsw	x1, [sp, 36]
	mov	x0, x1
	lsl	x0, x0, 2
	add	x0, x0, x1
	lsl	x0, x0, 2
	mov	x1, x0
	ldr	x0, [sp, 24]
	add	x0, x0, x1
	add	x2, sp, 64
	mov	x3, x0
	ldp	x0, x1, [x3]
	stp	x0, x1, [x2]
	ldr	w0, [x3, 16]
	str	w0, [x2, 16]
	add	x0, sp, 64
	str	x0, [sp, 48]
	ldr	w0, [sp, 36]
	str	w0, [sp, 40]
	b	.L992
.L995:
	ldrsw	x1, [sp, 40]
	mov	x0, x1
	lsl	x0, x0, 2
	add	x0, x0, x1
	lsl	x0, x0, 2
	sub	x0, x0, #20
	ldr	x1, [sp, 24]
	add	x0, x1, x0
	str	x0, [sp, 56]
	ldr	x0, [sp, 48]
	ldr	s1, [x0, 4]
	ldr	x0, [sp, 56]
	ldr	s0, [x0, 4]
	fcmpe	s1, s0
	cset	w0, mi
	and	w0, w0, 255
	str	w0, [sp, 44]
	ldr	w0, [sp, 44]
	cmp	w0, 0
	beq	.L999
	ldrsw	x1, [sp, 40]
	mov	x0, x1
	lsl	x0, x0, 2
	add	x0, x0, x1
	lsl	x0, x0, 2
	sub	x0, x0, #20
	ldr	x1, [sp, 24]
	add	x3, x1, x0
	ldrsw	x1, [sp, 40]
	mov	x0, x1
	lsl	x0, x0, 2
	add	x0, x0, x1
	lsl	x0, x0, 2
	mov	x1, x0
	ldr	x0, [sp, 24]
	add	x0, x0, x1
	mov	x2, x0
	ldp	x0, x1, [x3]
	stp	x0, x1, [x2]
	ldr	w0, [x3, 16]
	str	w0, [x2, 16]
	ldr	w0, [sp, 40]
	sub	w0, w0, #1
	str	w0, [sp, 40]
.L992:
	ldr	w0, [sp, 40]
	cmp	w0, 0
	bgt	.L995
	b	.L994
.L999:
	nop
.L994:
	ldr	w1, [sp, 36]
	ldr	w0, [sp, 40]
	cmp	w1, w0
	beq	.L996
	ldrsw	x1, [sp, 40]
	mov	x0, x1
	lsl	x0, x0, 2
	add	x0, x0, x1
	lsl	x0, x0, 2
	mov	x1, x0
	ldr	x0, [sp, 24]
	add	x0, x0, x1
	mov	x3, x0
	add	x2, sp, 64
	ldp	x0, x1, [x2]
	stp	x0, x1, [x3]
	ldr	w0, [x2, 16]
	str	w0, [x3, 16]
.L996:
	ldr	w0, [sp, 36]
	add	w0, w0, 1
	str	w0, [sp, 36]
.L991:
	ldr	w1, [sp, 36]
	ldr	w0, [sp, 20]
	cmp	w1, w0
	blt	.L997
	nop
	adrp	x0, :got:__stack_chk_guard
	ldr	x0, [x0, #:got_lo12:__stack_chk_guard]
	ldr	x2, [sp, 88]
	ldr	x1, [x0]
	subs	x2, x2, x1
	mov	x1, 0
	beq	.L998
	bl	__stack_chk_fail
.L998:
	ldp	x29, x30, [sp], 96
	.cfi_restore 30
	.cfi_restore 29
	.cfi_def_cfa_offset 0
	ret
	.cfi_endproc
.LFE1656:
	.size	_ZL26stbtt__sort_edges_ins_sortP11stbtt__edgei, .-_ZL26stbtt__sort_edges_ins_sortP11stbtt__edgei
	.align	2
	.type	_ZL27stbtt__sort_edges_quicksortP11stbtt__edgei, %function
_ZL27stbtt__sort_edges_quicksortP11stbtt__edgei:
.LFB1657:
	.cfi_startproc
	stp	x29, x30, [sp, -96]!
	.cfi_def_cfa_offset 96
	.cfi_offset 29, -96
	.cfi_offset 30, -88
	mov	x29, sp
	str	x0, [sp, 24]
	str	w1, [sp, 20]
	adrp	x0, :got:__stack_chk_guard
	ldr	x0, [x0, #:got_lo12:__stack_chk_guard]
	ldr	x1, [x0]
	str	x1, [sp, 88]
	mov	x1, 0
	b	.L1001
.L1014:
	ldr	w0, [sp, 20]
	asr	w0, w0, 1
	str	w0, [sp, 44]
	ldr	x0, [sp, 24]
	ldr	s1, [x0, 4]
	ldrsw	x1, [sp, 44]
	mov	x0, x1
	lsl	x0, x0, 2
	add	x0, x0, x1
	lsl	x0, x0, 2
	mov	x1, x0
	ldr	x0, [sp, 24]
	add	x0, x0, x1
	ldr	s0, [x0, 4]
	fcmpe	s1, s0
	cset	w0, mi
	and	w0, w0, 255
	str	w0, [sp, 48]
	ldrsw	x1, [sp, 44]
	mov	x0, x1
	lsl	x0, x0, 2
	add	x0, x0, x1
	lsl	x0, x0, 2
	mov	x1, x0
	ldr	x0, [sp, 24]
	add	x0, x0, x1
	ldr	s1, [x0, 4]
	ldrsw	x1, [sp, 20]
	mov	x0, x1
	lsl	x0, x0, 2
	add	x0, x0, x1
	lsl	x0, x0, 2
	sub	x0, x0, #20
	ldr	x1, [sp, 24]
	add	x0, x1, x0
	ldr	s0, [x0, 4]
	fcmpe	s1, s0
	cset	w0, mi
	and	w0, w0, 255
	str	w0, [sp, 52]
	ldr	w1, [sp, 48]
	ldr	w0, [sp, 52]
	cmp	w1, w0
	beq	.L1002
	ldr	x0, [sp, 24]
	ldr	s1, [x0, 4]
	ldrsw	x1, [sp, 20]
	mov	x0, x1
	lsl	x0, x0, 2
	add	x0, x0, x1
	lsl	x0, x0, 2
	sub	x0, x0, #20
	ldr	x1, [sp, 24]
	add	x0, x1, x0
	ldr	s0, [x0, 4]
	fcmpe	s1, s0
	cset	w0, mi
	and	w0, w0, 255
	str	w0, [sp, 56]
	ldr	w1, [sp, 56]
	ldr	w0, [sp, 52]
	cmp	w1, w0
	beq	.L1003
	ldr	w0, [sp, 20]
	sub	w0, w0, #1
	b	.L1004
.L1003:
	mov	w0, 0
.L1004:
	str	w0, [sp, 60]
	ldrsw	x1, [sp, 60]
	mov	x0, x1
	lsl	x0, x0, 2
	add	x0, x0, x1
	lsl	x0, x0, 2
	mov	x1, x0
	ldr	x0, [sp, 24]
	add	x0, x0, x1
	add	x2, sp, 64
	mov	x3, x0
	ldp	x0, x1, [x3]
	stp	x0, x1, [x2]
	ldr	w0, [x3, 16]
	str	w0, [x2, 16]
	ldrsw	x1, [sp, 44]
	mov	x0, x1
	lsl	x0, x0, 2
	add	x0, x0, x1
	lsl	x0, x0, 2
	mov	x1, x0
	ldr	x0, [sp, 24]
	add	x3, x0, x1
	ldrsw	x1, [sp, 60]
	mov	x0, x1
	lsl	x0, x0, 2
	add	x0, x0, x1
	lsl	x0, x0, 2
	mov	x1, x0
	ldr	x0, [sp, 24]
	add	x0, x0, x1
	mov	x2, x0
	ldp	x0, x1, [x3]
	stp	x0, x1, [x2]
	ldr	w0, [x3, 16]
	str	w0, [x2, 16]
	ldrsw	x1, [sp, 44]
	mov	x0, x1
	lsl	x0, x0, 2
	add	x0, x0, x1
	lsl	x0, x0, 2
	mov	x1, x0
	ldr	x0, [sp, 24]
	add	x0, x0, x1
	mov	x3, x0
	add	x2, sp, 64
	ldp	x0, x1, [x2]
	stp	x0, x1, [x3]
	ldr	w0, [x2, 16]
	str	w0, [x3, 16]
.L1002:
	ldr	x0, [sp, 24]
	add	x2, sp, 64
	mov	x3, x0
	ldp	x0, x1, [x3]
	stp	x0, x1, [x2]
	ldr	w0, [x3, 16]
	str	w0, [x2, 16]
	ldrsw	x1, [sp, 44]
	mov	x0, x1
	lsl	x0, x0, 2
	add	x0, x0, x1
	lsl	x0, x0, 2
	mov	x1, x0
	ldr	x0, [sp, 24]
	add	x0, x0, x1
	ldr	x1, [sp, 24]
	mov	x2, x1
	mov	x3, x0
	ldp	x0, x1, [x3]
	stp	x0, x1, [x2]
	ldr	w0, [x3, 16]
	str	w0, [x2, 16]
	ldrsw	x1, [sp, 44]
	mov	x0, x1
	lsl	x0, x0, 2
	add	x0, x0, x1
	lsl	x0, x0, 2
	mov	x1, x0
	ldr	x0, [sp, 24]
	add	x0, x0, x1
	mov	x3, x0
	add	x2, sp, 64
	ldp	x0, x1, [x2]
	stp	x0, x1, [x3]
	ldr	w0, [x2, 16]
	str	w0, [x3, 16]
	mov	w0, 1
	str	w0, [sp, 36]
	ldr	w0, [sp, 20]
	sub	w0, w0, #1
	str	w0, [sp, 40]
.L1007:
	ldrsw	x1, [sp, 36]
	mov	x0, x1
	lsl	x0, x0, 2
	add	x0, x0, x1
	lsl	x0, x0, 2
	mov	x1, x0
	ldr	x0, [sp, 24]
	add	x0, x0, x1
	ldr	s1, [x0, 4]
	ldr	x0, [sp, 24]
	ldr	s0, [x0, 4]
	fcmpe	s1, s0
	cset	w0, mi
	and	w0, w0, 255
	eor	w0, w0, 1
	and	w0, w0, 255
	cmp	w0, 0
	beq	.L1005
	b	.L1006
.L1005:
	ldr	w0, [sp, 36]
	add	w0, w0, 1
	str	w0, [sp, 36]
	b	.L1007
.L1006:
	ldr	x0, [sp, 24]
	ldr	s1, [x0, 4]
	ldrsw	x1, [sp, 40]
	mov	x0, x1
	lsl	x0, x0, 2
	add	x0, x0, x1
	lsl	x0, x0, 2
	mov	x1, x0
	ldr	x0, [sp, 24]
	add	x0, x0, x1
	ldr	s0, [x0, 4]
	fcmpe	s1, s0
	cset	w0, mi
	and	w0, w0, 255
	eor	w0, w0, 1
	and	w0, w0, 255
	cmp	w0, 0
	bne	.L1018
	ldr	w0, [sp, 40]
	sub	w0, w0, #1
	str	w0, [sp, 40]
	b	.L1006
.L1018:
	nop
	ldr	w1, [sp, 36]
	ldr	w0, [sp, 40]
	cmp	w1, w0
	bge	.L1019
	ldrsw	x1, [sp, 36]
	mov	x0, x1
	lsl	x0, x0, 2
	add	x0, x0, x1
	lsl	x0, x0, 2
	mov	x1, x0
	ldr	x0, [sp, 24]
	add	x0, x0, x1
	add	x2, sp, 64
	mov	x3, x0
	ldp	x0, x1, [x3]
	stp	x0, x1, [x2]
	ldr	w0, [x3, 16]
	str	w0, [x2, 16]
	ldrsw	x1, [sp, 40]
	mov	x0, x1
	lsl	x0, x0, 2
	add	x0, x0, x1
	lsl	x0, x0, 2
	mov	x1, x0
	ldr	x0, [sp, 24]
	add	x3, x0, x1
	ldrsw	x1, [sp, 36]
	mov	x0, x1
	lsl	x0, x0, 2
	add	x0, x0, x1
	lsl	x0, x0, 2
	mov	x1, x0
	ldr	x0, [sp, 24]
	add	x0, x0, x1
	mov	x2, x0
	ldp	x0, x1, [x3]
	stp	x0, x1, [x2]
	ldr	w0, [x3, 16]
	str	w0, [x2, 16]
	ldrsw	x1, [sp, 40]
	mov	x0, x1
	lsl	x0, x0, 2
	add	x0, x0, x1
	lsl	x0, x0, 2
	mov	x1, x0
	ldr	x0, [sp, 24]
	add	x0, x0, x1
	mov	x3, x0
	add	x2, sp, 64
	ldp	x0, x1, [x2]
	stp	x0, x1, [x3]
	ldr	w0, [x2, 16]
	str	w0, [x3, 16]
	ldr	w0, [sp, 36]
	add	w0, w0, 1
	str	w0, [sp, 36]
	ldr	w0, [sp, 40]
	sub	w0, w0, #1
	str	w0, [sp, 40]
	b	.L1007
.L1019:
	nop
	ldr	w1, [sp, 20]
	ldr	w0, [sp, 36]
	sub	w0, w1, w0
	ldr	w1, [sp, 40]
	cmp	w1, w0
	bge	.L1012
	ldr	w1, [sp, 40]
	ldr	x0, [sp, 24]
	bl	_ZL27stbtt__sort_edges_quicksortP11stbtt__edgei
	ldrsw	x1, [sp, 36]
	mov	x0, x1
	lsl	x0, x0, 2
	add	x0, x0, x1
	lsl	x0, x0, 2
	mov	x1, x0
	ldr	x0, [sp, 24]
	add	x0, x0, x1
	str	x0, [sp, 24]
	ldr	w1, [sp, 20]
	ldr	w0, [sp, 36]
	sub	w0, w1, w0
	str	w0, [sp, 20]
	b	.L1001
.L1012:
	ldrsw	x1, [sp, 36]
	mov	x0, x1
	lsl	x0, x0, 2
	add	x0, x0, x1
	lsl	x0, x0, 2
	mov	x1, x0
	ldr	x0, [sp, 24]
	add	x2, x0, x1
	ldr	w1, [sp, 20]
	ldr	w0, [sp, 36]
	sub	w0, w1, w0
	mov	w1, w0
	mov	x0, x2
	bl	_ZL27stbtt__sort_edges_quicksortP11stbtt__edgei
	ldr	w0, [sp, 40]
	str	w0, [sp, 20]
.L1001:
	ldr	w0, [sp, 20]
	cmp	w0, 12
	bgt	.L1014
	nop
	adrp	x0, :got:__stack_chk_guard
	ldr	x0, [x0, #:got_lo12:__stack_chk_guard]
	ldr	x2, [sp, 88]
	ldr	x1, [x0]
	subs	x2, x2, x1
	mov	x1, 0
	beq	.L1015
	bl	__stack_chk_fail
.L1015:
	ldp	x29, x30, [sp], 96
	.cfi_restore 30
	.cfi_restore 29
	.cfi_def_cfa_offset 0
	ret
	.cfi_endproc
.LFE1657:
	.size	_ZL27stbtt__sort_edges_quicksortP11stbtt__edgei, .-_ZL27stbtt__sort_edges_quicksortP11stbtt__edgei
	.align	2
	.type	_ZL17stbtt__sort_edgesP11stbtt__edgei, %function
_ZL17stbtt__sort_edgesP11stbtt__edgei:
.LFB1658:
	.cfi_startproc
	stp	x29, x30, [sp, -32]!
	.cfi_def_cfa_offset 32
	.cfi_offset 29, -32
	.cfi_offset 30, -24
	mov	x29, sp
	str	x0, [sp, 24]
	str	w1, [sp, 20]
	ldr	w1, [sp, 20]
	ldr	x0, [sp, 24]
	bl	_ZL27stbtt__sort_edges_quicksortP11stbtt__edgei
	ldr	w1, [sp, 20]
	ldr	x0, [sp, 24]
	bl	_ZL26stbtt__sort_edges_ins_sortP11stbtt__edgei
	nop
	ldp	x29, x30, [sp], 32
	.cfi_restore 30
	.cfi_restore 29
	.cfi_def_cfa_offset 0
	ret
	.cfi_endproc
.LFE1658:
	.size	_ZL17stbtt__sort_edgesP11stbtt__edgei, .-_ZL17stbtt__sort_edgesP11stbtt__edgei
	.align	2
	.type	_ZL16stbtt__rasterizeP13stbtt__bitmapP12stbtt__pointPiiffffiiiPv, %function
_ZL16stbtt__rasterizeP13stbtt__bitmapP12stbtt__pointPiiffffiiiPv:
.LFB1659:
	.cfi_startproc
	stp	x29, x30, [sp, -144]!
	.cfi_def_cfa_offset 144
	.cfi_offset 29, -144
	.cfi_offset 30, -136
	mov	x29, sp
	str	x0, [sp, 72]
	str	x1, [sp, 64]
	str	x2, [sp, 56]
	str	w3, [sp, 52]
	str	s0, [sp, 48]
	str	s1, [sp, 44]
	str	s2, [sp, 40]
	str	s3, [sp, 36]
	str	w4, [sp, 32]
	str	w5, [sp, 28]
	str	w6, [sp, 24]
	str	x7, [sp, 16]
	ldr	w0, [sp, 24]
	cmp	w0, 0
	beq	.L1022
	ldr	s0, [sp, 44]
	fneg	s0, s0
	b	.L1023
.L1022:
	ldr	s0, [sp, 44]
.L1023:
	str	s0, [sp, 120]
	mov	w0, 1
	str	w0, [sp, 124]
	str	wzr, [sp, 92]
	str	wzr, [sp, 96]
	b	.L1024
.L1025:
	ldrsw	x0, [sp, 96]
	lsl	x0, x0, 2
	ldr	x1, [sp, 56]
	add	x0, x1, x0
	ldr	w0, [x0]
	ldr	w1, [sp, 92]
	add	w0, w1, w0
	str	w0, [sp, 92]
	ldr	w0, [sp, 96]
	add	w0, w0, 1
	str	w0, [sp, 96]
.L1024:
	ldr	w1, [sp, 96]
	ldr	w0, [sp, 52]
	cmp	w1, w0
	blt	.L1025
	ldr	w0, [sp, 92]
	add	w0, w0, 1
	sxtw	x1, w0
	mov	x0, x1
	lsl	x0, x0, 2
	add	x0, x0, x1
	lsl	x0, x0, 2
	bl	_ZN5ImGui8MemAllocEm
	str	x0, [sp, 128]
	ldr	x0, [sp, 128]
	cmp	x0, 0
	beq	.L1037
	str	wzr, [sp, 92]
	str	wzr, [sp, 108]
	str	wzr, [sp, 96]
	b	.L1028
.L1036:
	ldrsw	x0, [sp, 108]
	lsl	x0, x0, 3
	ldr	x1, [sp, 64]
	add	x0, x1, x0
	str	x0, [sp, 136]
	ldrsw	x0, [sp, 96]
	lsl	x0, x0, 2
	ldr	x1, [sp, 56]
	add	x0, x1, x0
	ldr	w0, [x0]
	ldr	w1, [sp, 108]
	add	w0, w1, w0
	str	w0, [sp, 108]
	ldrsw	x0, [sp, 96]
	lsl	x0, x0, 2
	ldr	x1, [sp, 56]
	add	x0, x1, x0
	ldr	w0, [x0]
	sub	w0, w0, #1
	str	w0, [sp, 100]
	str	wzr, [sp, 104]
	b	.L1029
.L1035:
	ldr	w0, [sp, 104]
	str	w0, [sp, 112]
	ldr	w0, [sp, 100]
	str	w0, [sp, 116]
	ldrsw	x0, [sp, 100]
	lsl	x0, x0, 3
	ldr	x1, [sp, 136]
	add	x0, x1, x0
	ldr	s1, [x0, 4]
	ldrsw	x0, [sp, 104]
	lsl	x0, x0, 3
	ldr	x1, [sp, 136]
	add	x0, x1, x0
	ldr	s0, [x0, 4]
	fcmp	s1, s0
	beq	.L1038
	ldrsw	x1, [sp, 92]
	mov	x0, x1
	lsl	x0, x0, 2
	add	x0, x0, x1
	lsl	x0, x0, 2
	mov	x1, x0
	ldr	x0, [sp, 128]
	add	x0, x0, x1
	str	wzr, [x0, 16]
	ldr	w0, [sp, 24]
	cmp	w0, 0
	beq	.L1032
	ldrsw	x0, [sp, 100]
	lsl	x0, x0, 3
	ldr	x1, [sp, 136]
	add	x0, x1, x0
	ldr	s1, [x0, 4]
	ldrsw	x0, [sp, 104]
	lsl	x0, x0, 3
	ldr	x1, [sp, 136]
	add	x0, x1, x0
	ldr	s0, [x0, 4]
	fcmpe	s1, s0
	cset	w0, gt
	and	w0, w0, 255
	b	.L1033
.L1032:
	ldrsw	x0, [sp, 100]
	lsl	x0, x0, 3
	ldr	x1, [sp, 136]
	add	x0, x1, x0
	ldr	s1, [x0, 4]
	ldrsw	x0, [sp, 104]
	lsl	x0, x0, 3
	ldr	x1, [sp, 136]
	add	x0, x1, x0
	ldr	s0, [x0, 4]
	fcmpe	s1, s0
	cset	w0, mi
	and	w0, w0, 255
.L1033:
	cmp	w0, 0
	beq	.L1034
	ldrsw	x1, [sp, 92]
	mov	x0, x1
	lsl	x0, x0, 2
	add	x0, x0, x1
	lsl	x0, x0, 2
	mov	x1, x0
	ldr	x0, [sp, 128]
	add	x0, x0, x1
	mov	w1, 1
	str	w1, [x0, 16]
	ldr	w0, [sp, 100]
	str	w0, [sp, 112]
	ldr	w0, [sp, 104]
	str	w0, [sp, 116]
.L1034:
	ldrsw	x0, [sp, 112]
	lsl	x0, x0, 3
	ldr	x1, [sp, 136]
	add	x0, x1, x0
	ldr	s1, [x0]
	ldr	s0, [sp, 48]
	fmul	s1, s1, s0
	ldrsw	x1, [sp, 92]
	mov	x0, x1
	lsl	x0, x0, 2
	add	x0, x0, x1
	lsl	x0, x0, 2
	mov	x1, x0
	ldr	x0, [sp, 128]
	add	x0, x0, x1
	ldr	s0, [sp, 40]
	fadd	s0, s1, s0
	str	s0, [x0]
	ldrsw	x0, [sp, 112]
	lsl	x0, x0, 3
	ldr	x1, [sp, 136]
	add	x0, x1, x0
	ldr	s1, [x0, 4]
	ldr	s0, [sp, 120]
	fmul	s1, s1, s0
	ldr	s0, [sp, 36]
	fadd	s1, s1, s0
	ldr	s0, [sp, 124]
	scvtf	s0, s0
	ldrsw	x1, [sp, 92]
	mov	x0, x1
	lsl	x0, x0, 2
	add	x0, x0, x1
	lsl	x0, x0, 2
	mov	x1, x0
	ldr	x0, [sp, 128]
	add	x0, x0, x1
	fmul	s0, s1, s0
	str	s0, [x0, 4]
	ldrsw	x0, [sp, 116]
	lsl	x0, x0, 3
	ldr	x1, [sp, 136]
	add	x0, x1, x0
	ldr	s1, [x0]
	ldr	s0, [sp, 48]
	fmul	s1, s1, s0
	ldrsw	x1, [sp, 92]
	mov	x0, x1
	lsl	x0, x0, 2
	add	x0, x0, x1
	lsl	x0, x0, 2
	mov	x1, x0
	ldr	x0, [sp, 128]
	add	x0, x0, x1
	ldr	s0, [sp, 40]
	fadd	s0, s1, s0
	str	s0, [x0, 8]
	ldrsw	x0, [sp, 116]
	lsl	x0, x0, 3
	ldr	x1, [sp, 136]
	add	x0, x1, x0
	ldr	s1, [x0, 4]
	ldr	s0, [sp, 120]
	fmul	s1, s1, s0
	ldr	s0, [sp, 36]
	fadd	s1, s1, s0
	ldr	s0, [sp, 124]
	scvtf	s0, s0
	ldrsw	x1, [sp, 92]
	mov	x0, x1
	lsl	x0, x0, 2
	add	x0, x0, x1
	lsl	x0, x0, 2
	mov	x1, x0
	ldr	x0, [sp, 128]
	add	x0, x0, x1
	fmul	s0, s1, s0
	str	s0, [x0, 12]
	ldr	w0, [sp, 92]
	add	w0, w0, 1
	str	w0, [sp, 92]
	b	.L1031
.L1038:
	nop
.L1031:
	ldr	w0, [sp, 104]
	add	w1, w0, 1
	str	w1, [sp, 104]
	str	w0, [sp, 100]
.L1029:
	ldrsw	x0, [sp, 96]
	lsl	x0, x0, 2
	ldr	x1, [sp, 56]
	add	x0, x1, x0
	ldr	w0, [x0]
	ldr	w1, [sp, 104]
	cmp	w1, w0
	blt	.L1035
	ldr	w0, [sp, 96]
	add	w0, w0, 1
	str	w0, [sp, 96]
.L1028:
	ldr	w1, [sp, 96]
	ldr	w0, [sp, 52]
	cmp	w1, w0
	blt	.L1036
	ldr	w1, [sp, 92]
	ldr	x0, [sp, 128]
	bl	_ZL17stbtt__sort_edgesP11stbtt__edgei
	ldr	x6, [sp, 16]
	ldr	w5, [sp, 28]
	ldr	w4, [sp, 32]
	ldr	w3, [sp, 124]
	ldr	w2, [sp, 92]
	ldr	x1, [sp, 128]
	ldr	x0, [sp, 72]
	bl	_ZL29stbtt__rasterize_sorted_edgesP13stbtt__bitmapP11stbtt__edgeiiiiPv
	ldr	x0, [sp, 128]
	bl	_ZN5ImGui7MemFreeEPv
	b	.L1021
.L1037:
	nop
.L1021:
	ldp	x29, x30, [sp], 144
	.cfi_restore 30
	.cfi_restore 29
	.cfi_def_cfa_offset 0
	ret
	.cfi_endproc
.LFE1659:
	.size	_ZL16stbtt__rasterizeP13stbtt__bitmapP12stbtt__pointPiiffffiiiPv, .-_ZL16stbtt__rasterizeP13stbtt__bitmapP12stbtt__pointPiiffffiiiPv
	.align	2
	.type	_ZL16stbtt__add_pointP12stbtt__pointiff, %function
_ZL16stbtt__add_pointP12stbtt__pointiff:
.LFB1660:
	.cfi_startproc
	sub	sp, sp, #32
	.cfi_def_cfa_offset 32
	str	x0, [sp, 24]
	str	w1, [sp, 20]
	str	s0, [sp, 16]
	str	s1, [sp, 12]
	ldr	x0, [sp, 24]
	cmp	x0, 0
	beq	.L1042
	ldrsw	x0, [sp, 20]
	lsl	x0, x0, 3
	ldr	x1, [sp, 24]
	add	x0, x1, x0
	ldr	s0, [sp, 16]
	str	s0, [x0]
	ldrsw	x0, [sp, 20]
	lsl	x0, x0, 3
	ldr	x1, [sp, 24]
	add	x0, x1, x0
	ldr	s0, [sp, 12]
	str	s0, [x0, 4]
	b	.L1039
.L1042:
	nop
.L1039:
	add	sp, sp, 32
	.cfi_def_cfa_offset 0
	ret
	.cfi_endproc
.LFE1660:
	.size	_ZL16stbtt__add_pointP12stbtt__pointiff, .-_ZL16stbtt__add_pointP12stbtt__pointiff
	.align	2
	.type	_ZL22stbtt__tesselate_curveP12stbtt__pointPifffffffi, %function
_ZL22stbtt__tesselate_curveP12stbtt__pointPifffffffi:
.LFB1661:
	.cfi_startproc
	stp	x29, x30, [sp, -80]!
	.cfi_def_cfa_offset 80
	.cfi_offset 29, -80
	.cfi_offset 30, -72
	mov	x29, sp
	str	x0, [sp, 56]
	str	x1, [sp, 48]
	str	s0, [sp, 44]
	str	s1, [sp, 40]
	str	s2, [sp, 36]
	str	s3, [sp, 32]
	str	s4, [sp, 28]
	str	s5, [sp, 24]
	str	s6, [sp, 20]
	str	w2, [sp, 16]
	ldr	s0, [sp, 36]
	fadd	s1, s0, s0
	ldr	s0, [sp, 44]
	fadd	s1, s1, s0
	ldr	s0, [sp, 28]
	fadd	s1, s1, s0
	fmov	s0, 4.0e+0
	fdiv	s0, s1, s0
	str	s0, [sp, 64]
	ldr	s0, [sp, 32]
	fadd	s1, s0, s0
	ldr	s0, [sp, 40]
	fadd	s1, s1, s0
	ldr	s0, [sp, 24]
	fadd	s1, s1, s0
	fmov	s0, 4.0e+0
	fdiv	s0, s1, s0
	str	s0, [sp, 68]
	ldr	s1, [sp, 44]
	ldr	s0, [sp, 28]
	fadd	s1, s1, s0
	fmov	s0, 2.0e+0
	fdiv	s1, s1, s0
	ldr	s0, [sp, 64]
	fsub	s0, s1, s0
	str	s0, [sp, 72]
	ldr	s1, [sp, 40]
	ldr	s0, [sp, 24]
	fadd	s1, s1, s0
	fmov	s0, 2.0e+0
	fdiv	s1, s1, s0
	ldr	s0, [sp, 68]
	fsub	s0, s1, s0
	str	s0, [sp, 76]
	ldr	w0, [sp, 16]
	cmp	w0, 16
	ble	.L1044
	mov	w0, 1
	b	.L1045
.L1044:
	ldr	s0, [sp, 72]
	fmul	s1, s0, s0
	ldr	s0, [sp, 76]
	fmul	s0, s0, s0
	fadd	s0, s1, s0
	ldr	s1, [sp, 20]
	fcmpe	s1, s0
	bmi	.L1049
	b	.L1050
.L1049:
	ldr	s1, [sp, 44]
	ldr	s0, [sp, 36]
	fadd	s1, s1, s0
	fmov	s0, 2.0e+0
	fdiv	s2, s1, s0
	ldr	s1, [sp, 40]
	ldr	s0, [sp, 32]
	fadd	s1, s1, s0
	fmov	s0, 2.0e+0
	fdiv	s0, s1, s0
	ldr	w0, [sp, 16]
	add	w0, w0, 1
	mov	w2, w0
	ldr	s6, [sp, 20]
	ldr	s5, [sp, 68]
	ldr	s4, [sp, 64]
	fmov	s3, s0
	ldr	s1, [sp, 40]
	ldr	s0, [sp, 44]
	ldr	x1, [sp, 48]
	ldr	x0, [sp, 56]
	bl	_ZL22stbtt__tesselate_curveP12stbtt__pointPifffffffi
	ldr	s1, [sp, 36]
	ldr	s0, [sp, 28]
	fadd	s1, s1, s0
	fmov	s0, 2.0e+0
	fdiv	s2, s1, s0
	ldr	s1, [sp, 32]
	ldr	s0, [sp, 24]
	fadd	s1, s1, s0
	fmov	s0, 2.0e+0
	fdiv	s0, s1, s0
	ldr	w0, [sp, 16]
	add	w0, w0, 1
	mov	w2, w0
	ldr	s6, [sp, 20]
	ldr	s5, [sp, 24]
	ldr	s4, [sp, 28]
	fmov	s3, s0
	ldr	s1, [sp, 68]
	ldr	s0, [sp, 64]
	ldr	x1, [sp, 48]
	ldr	x0, [sp, 56]
	bl	_ZL22stbtt__tesselate_curveP12stbtt__pointPifffffffi
	b	.L1048
.L1050:
	ldr	x0, [sp, 48]
	ldr	w0, [x0]
	ldr	s1, [sp, 24]
	ldr	s0, [sp, 28]
	mov	w1, w0
	ldr	x0, [sp, 56]
	bl	_ZL16stbtt__add_pointP12stbtt__pointiff
