	.arch armv8-a
	.file	"main.cpp"
	.text
	.section	.text._ZN5boost6tuples6detail5cnullEv,"axG",@progbits,_ZN5boost6tuples6detail5cnullEv,comdat
	.align	2
	.weak	_ZN5boost6tuples6detail5cnullEv
	.type	_ZN5boost6tuples6detail5cnullEv, %function
_ZN5boost6tuples6detail5cnullEv:
.LFB132:
	.cfi_startproc
	nop
	ret
	.cfi_endproc
.LFE132:
	.size	_ZN5boost6tuples6detail5cnullEv, .-_ZN5boost6tuples6detail5cnullEv
	.section	.rodata
	.align	3
	.type	_ZN5boost6lambda6detail12_GLOBAL__N_1L18constant_null_typeE, %object
	.size	_ZN5boost6lambda6detail12_GLOBAL__N_1L18constant_null_typeE, 1
_ZN5boost6lambda6detail12_GLOBAL__N_1L18constant_null_typeE:
	.zero	1
	.local	_ZN5boost6lambda12_GLOBAL__N_1L5free1E
	.comm	_ZN5boost6lambda12_GLOBAL__N_1L5free1E,1,8
	.local	_ZN5boost6lambda12_GLOBAL__N_1L5free2E
	.comm	_ZN5boost6lambda12_GLOBAL__N_1L5free2E,1,8
	.local	_ZN5boost6lambda12_GLOBAL__N_1L5free3E
	.comm	_ZN5boost6lambda12_GLOBAL__N_1L5free3E,1,8
	.section	.data.rel.ro.local,"aw"
	.align	3
	.type	_ZN5boost6lambda12_GLOBAL__N_12_1E, %object
	.size	_ZN5boost6lambda12_GLOBAL__N_12_1E, 8
_ZN5boost6lambda12_GLOBAL__N_12_1E:
	.xword	_ZN5boost6lambda12_GLOBAL__N_1L5free1E
	.align	3
	.type	_ZN5boost6lambda12_GLOBAL__N_12_2E, %object
	.size	_ZN5boost6lambda12_GLOBAL__N_12_2E, 8
_ZN5boost6lambda12_GLOBAL__N_12_2E:
	.xword	_ZN5boost6lambda12_GLOBAL__N_1L5free2E
	.align	3
	.type	_ZN5boost6lambda12_GLOBAL__N_12_3E, %object
	.size	_ZN5boost6lambda12_GLOBAL__N_12_3E, 8
_ZN5boost6lambda12_GLOBAL__N_12_3E:
	.xword	_ZN5boost6lambda12_GLOBAL__N_1L5free3E
	.local	_ZStL8__ioinit
	.comm	_ZStL8__ioinit,1,8
	.section	.text._ZSt3minImERKT_S2_S2_,"axG",@progbits,_ZSt3minImERKT_S2_S2_,comdat
	.align	2
	.weak	_ZSt3minImERKT_S2_S2_
	.type	_ZSt3minImERKT_S2_S2_, %function
_ZSt3minImERKT_S2_S2_:
.LFB5144:
	.cfi_startproc
	sub	sp, sp, #16
	.cfi_def_cfa_offset 16
	str	x0, [sp, 8]
	str	x1, [sp]
	ldr	x0, [sp]
	ldr	x1, [x0]
	ldr	x0, [sp, 8]
	ldr	x0, [x0]
	cmp	x1, x0
	bcs	.L4
	ldr	x0, [sp]
	b	.L5
.L4:
	ldr	x0, [sp, 8]
.L5:
	add	sp, sp, 16
	.cfi_def_cfa_offset 0
	ret
	.cfi_endproc
.LFE5144:
	.size	_ZSt3minImERKT_S2_S2_, .-_ZSt3minImERKT_S2_S2_
	.section	.rodata
	.align	3
	.type	_ZN6__pstl9execution2v1L3seqE, %object
	.size	_ZN6__pstl9execution2v1L3seqE, 1
_ZN6__pstl9execution2v1L3seqE:
	.zero	1
	.align	3
	.type	_ZN6__pstl9execution2v1L3parE, %object
	.size	_ZN6__pstl9execution2v1L3parE, 1
_ZN6__pstl9execution2v1L3parE:
	.zero	1
	.align	3
	.type	_ZN6__pstl9execution2v1L9par_unseqE, %object
	.size	_ZN6__pstl9execution2v1L9par_unseqE, 1
_ZN6__pstl9execution2v1L9par_unseqE:
	.zero	1
	.align	3
	.type	_ZN6__pstl9execution2v1L5unseqE, %object
	.size	_ZN6__pstl9execution2v1L5unseqE, 1
_ZN6__pstl9execution2v1L5unseqE:
	.zero	1
	.align	3
.LC1:
	.string	" "
	.text
	.align	2
	.global	main
	.type	main, %function
main:
.LFB5595:
	.cfi_startproc
	.cfi_personality 0x9b,DW.ref.__gxx_personality_v0
	.cfi_lsda 0x1b,.LLSDA5595
	stp	x29, x30, [sp, -192]!
	.cfi_def_cfa_offset 192
	.cfi_offset 29, -192
	.cfi_offset 30, -184
	mov	x29, sp
	stp	x19, x20, [sp, 16]
	str	x21, [sp, 32]
	.cfi_offset 19, -176
	.cfi_offset 20, -168
	.cfi_offset 21, -160
	adrp	x0, :got:__stack_chk_guard
	ldr	x0, [x0, #:got_lo12:__stack_chk_guard]
	ldr	x1, [x0]
	str	x1, [sp, 184]
	mov	x1, 0
	adrp	x0, .LC0
	add	x1, x0, :lo12:.LC0
	add	x0, sp, 152
	ldr	q0, [x1]
	str	q0, [x0]
	ldr	q0, [x1, 12]
	str	q0, [x0, 12]
	add	x0, sp, 152
	mov	x20, x0
	mov	x21, 7
	add	x0, sp, 128
	bl	_ZNSaIiEC1Ev
	add	x1, sp, 128
	add	x0, sp, 80
	mov	x3, x1
	mov	x1, x20
	mov	x2, x21
.LEHB0:
	bl	_ZNSt6vectorIiSaIiEEC1ESt16initializer_listIiERKS0_
.LEHE0:
	add	x0, sp, 128
	bl	_ZNSaIiED1Ev
	add	x0, sp, 80
	bl	_ZNSt6vectorIiSaIiEE5beginEv
	mov	x19, x0
	add	x0, sp, 80
	bl	_ZNSt6vectorIiSaIiEE3endEv
	mov	x20, x0
	adrp	x0, _ZN5boost6lambda12_GLOBAL__N_1L5free1E
	add	x2, x0, :lo12:_ZN5boost6lambda12_GLOBAL__N_1L5free1E
	mov	w0, 3
	str	w0, [sp, 52]
	add	x0, sp, 52
	add	x1, sp, 56
	mov	x8, x1
	mov	x1, x0
	mov	x0, x2
.LEHB1:
	bl	_ZN5boost6lambdamlINS0_11placeholderILi1EEEiEEKNS0_14lambda_functorINS0_19lambda_functor_baseINS0_17arithmetic_actionINS0_15multiply_actionEEENS_6tuples5tupleINS4_IT_EENS0_19const_copy_argumentIKT0_E4typeENS9_9null_typeESI_SI_SI_SI_SI_SI_SI_EEEEEERKSC_RSF_
	add	x0, sp, 56
	add	x1, sp, 64
	mov	x8, x1
	mov	x1, x0
	adrp	x0, :got:_ZSt4cout
	ldr	x0, [x0, #:got_lo12:_ZSt4cout]
	bl	_ZN5boost6lambdalsISoNS0_19lambda_functor_baseINS0_17arithmetic_actionINS0_15multiply_actionEEENS_6tuples5tupleINS0_14lambda_functorINS0_11placeholderILi1EEEEEKiNS6_9null_typeESD_SD_SD_SD_SD_SD_SD_EEEEEEKNS8_INS2_INS0_14bitwise_actionINS0_16leftshift_actionEEENS7_INS0_6detail51convert_ostream_to_ref_others_to_c_plain_by_defaultIT_E4typeENS8_IT0_EESD_SD_SD_SD_SD_SD_SD_SD_EEEEEERSL_RKSP_
	add	x2, sp, 64
	add	x0, sp, 104
	mov	x8, x0
	adrp	x0, .LC1
	add	x1, x0, :lo12:.LC1
	mov	x0, x2
	bl	_ZN5boost6lambdalsINS0_19lambda_functor_baseINS0_14bitwise_actionINS0_16leftshift_actionEEENS_6tuples5tupleIRSoNS0_14lambda_functorINS2_INS0_17arithmetic_actionINS0_15multiply_actionEEENS7_INS9_INS0_11placeholderILi1EEEEEKiNS6_9null_typeESH_SH_SH_SH_SH_SH_SH_EEEEEESH_SH_SH_SH_SH_SH_SH_SH_EEEEA2_cEEKNS9_INS2_IS5_NS7_INS9_IT_EENS0_19const_copy_argumentIKT0_E4typeESH_SH_SH_SH_SH_SH_SH_SH_EEEEEERKSP_RSS_
	add	x0, sp, 104
	add	x1, sp, 128
	mov	x8, x1
	mov	x2, x0
	mov	x1, x20
	mov	x0, x19
	bl	_ZSt8for_eachIN9__gnu_cxx17__normal_iteratorIPiSt6vectorIiSaIiEEEEN5boost6lambda14lambda_functorINS8_19lambda_functor_baseINS8_14bitwise_actionINS8_16leftshift_actionEEENS7_6tuples5tupleINS9_INSA_ISD_NSF_IRSoNS9_INSA_INS8_17arithmetic_actionINS8_15multiply_actionEEENSF_INS9_INS8_11placeholderILi1EEEEEKiNSE_9null_typeESO_SO_SO_SO_SO_SO_SO_EEEEEESO_SO_SO_SO_SO_SO_SO_SO_EEEEEERA2_KcSO_SO_SO_SO_SO_SO_SO_SO_EEEEEEET0_T_S12_S11_
.LEHE1:
	add	x0, sp, 80
	bl	_ZNSt6vectorIiSaIiEED1Ev
	mov	w0, 0
	mov	w1, w0
	adrp	x0, :got:__stack_chk_guard
	ldr	x0, [x0, #:got_lo12:__stack_chk_guard]
	ldr	x3, [sp, 184]
	ldr	x2, [x0]
	subs	x3, x3, x2
	mov	x2, 0
	beq	.L10
	b	.L13
.L11:
	mov	x19, x0
	add	x0, sp, 128
	bl	_ZNSaIiED1Ev
	mov	x0, x19
.LEHB2:
	bl	_Unwind_Resume
.L12:
	mov	x19, x0
	add	x0, sp, 80
	bl	_ZNSt6vectorIiSaIiEED1Ev
	mov	x0, x19
	bl	_Unwind_Resume
.LEHE2:
.L13:
	bl	__stack_chk_fail
.L10:
	mov	w0, w1
	ldp	x19, x20, [sp, 16]
	ldr	x21, [sp, 32]
	ldp	x29, x30, [sp], 192
	.cfi_restore 30
	.cfi_restore 29
	.cfi_restore 21
	.cfi_restore 19
	.cfi_restore 20
	.cfi_def_cfa_offset 0
	ret
	.cfi_endproc
.LFE5595:
	.global	__gxx_personality_v0
	.section	.gcc_except_table,"a",@progbits
.LLSDA5595:
	.byte	0xff
	.byte	0xff
	.byte	0x1
	.uleb128 .LLSDACSE5595-.LLSDACSB5595
.LLSDACSB5595:
	.uleb128 .LEHB0-.LFB5595
	.uleb128 .LEHE0-.LEHB0
	.uleb128 .L11-.LFB5595
	.uleb128 0
	.uleb128 .LEHB1-.LFB5595
	.uleb128 .LEHE1-.LEHB1
	.uleb128 .L12-.LFB5595
	.uleb128 0
	.uleb128 .LEHB2-.LFB5595
	.uleb128 .LEHE2-.LEHB2
	.uleb128 0
	.uleb128 0
.LLSDACSE5595:
	.text
	.size	main, .-main
	.section	.rodata
	.align	3
.LC0:
	.word	0
	.word	1
	.word	2
	.word	3
	.word	4
	.word	5
	.word	6
	.text
	.section	.text._ZN5boost6lambda14lambda_functorINS0_11placeholderILi1EEEEC2Ev,"axG",@progbits,_ZN5boost6lambda14lambda_functorINS0_11placeholderILi1EEEEC5Ev,comdat
	.align	2
	.weak	_ZN5boost6lambda14lambda_functorINS0_11placeholderILi1EEEEC2Ev
	.type	_ZN5boost6lambda14lambda_functorINS0_11placeholderILi1EEEEC2Ev, %function
_ZN5boost6lambda14lambda_functorINS0_11placeholderILi1EEEEC2Ev:
.LFB5597:
	.cfi_startproc
	sub	sp, sp, #16
	.cfi_def_cfa_offset 16
	str	x0, [sp, 8]
	nop
	add	sp, sp, 16
	.cfi_def_cfa_offset 0
	ret
	.cfi_endproc
.LFE5597:
	.size	_ZN5boost6lambda14lambda_functorINS0_11placeholderILi1EEEEC2Ev, .-_ZN5boost6lambda14lambda_functorINS0_11placeholderILi1EEEEC2Ev
	.weak	_ZN5boost6lambda14lambda_functorINS0_11placeholderILi1EEEEC1Ev
	.set	_ZN5boost6lambda14lambda_functorINS0_11placeholderILi1EEEEC1Ev,_ZN5boost6lambda14lambda_functorINS0_11placeholderILi1EEEEC2Ev
	.section	.text._ZN5boost6lambda14lambda_functorINS0_11placeholderILi2EEEEC2Ev,"axG",@progbits,_ZN5boost6lambda14lambda_functorINS0_11placeholderILi2EEEEC5Ev,comdat
	.align	2
	.weak	_ZN5boost6lambda14lambda_functorINS0_11placeholderILi2EEEEC2Ev
	.type	_ZN5boost6lambda14lambda_functorINS0_11placeholderILi2EEEEC2Ev, %function
_ZN5boost6lambda14lambda_functorINS0_11placeholderILi2EEEEC2Ev:
.LFB5600:
	.cfi_startproc
	sub	sp, sp, #16
	.cfi_def_cfa_offset 16
	str	x0, [sp, 8]
	nop
	add	sp, sp, 16
	.cfi_def_cfa_offset 0
	ret
	.cfi_endproc
.LFE5600:
	.size	_ZN5boost6lambda14lambda_functorINS0_11placeholderILi2EEEEC2Ev, .-_ZN5boost6lambda14lambda_functorINS0_11placeholderILi2EEEEC2Ev
	.weak	_ZN5boost6lambda14lambda_functorINS0_11placeholderILi2EEEEC1Ev
	.set	_ZN5boost6lambda14lambda_functorINS0_11placeholderILi2EEEEC1Ev,_ZN5boost6lambda14lambda_functorINS0_11placeholderILi2EEEEC2Ev
	.section	.text._ZN5boost6lambda14lambda_functorINS0_11placeholderILi4EEEEC2Ev,"axG",@progbits,_ZN5boost6lambda14lambda_functorINS0_11placeholderILi4EEEEC5Ev,comdat
	.align	2
	.weak	_ZN5boost6lambda14lambda_functorINS0_11placeholderILi4EEEEC2Ev
	.type	_ZN5boost6lambda14lambda_functorINS0_11placeholderILi4EEEEC2Ev, %function
_ZN5boost6lambda14lambda_functorINS0_11placeholderILi4EEEEC2Ev:
.LFB5603:
	.cfi_startproc
	sub	sp, sp, #16
	.cfi_def_cfa_offset 16
	str	x0, [sp, 8]
	nop
	add	sp, sp, 16
	.cfi_def_cfa_offset 0
	ret
	.cfi_endproc
.LFE5603:
	.size	_ZN5boost6lambda14lambda_functorINS0_11placeholderILi4EEEEC2Ev, .-_ZN5boost6lambda14lambda_functorINS0_11placeholderILi4EEEEC2Ev
	.weak	_ZN5boost6lambda14lambda_functorINS0_11placeholderILi4EEEEC1Ev
	.set	_ZN5boost6lambda14lambda_functorINS0_11placeholderILi4EEEEC1Ev,_ZN5boost6lambda14lambda_functorINS0_11placeholderILi4EEEEC2Ev
	.section	.text._ZNSaIiEC2Ev,"axG",@progbits,_ZNSaIiEC5Ev,comdat
	.align	2
	.weak	_ZNSaIiEC2Ev
	.type	_ZNSaIiEC2Ev, %function
_ZNSaIiEC2Ev:
.LFB5925:
	.cfi_startproc
	stp	x29, x30, [sp, -32]!
	.cfi_def_cfa_offset 32
	.cfi_offset 29, -32
	.cfi_offset 30, -24
	mov	x29, sp
	str	x0, [sp, 24]
	ldr	x0, [sp, 24]
	bl	_ZN9__gnu_cxx13new_allocatorIiEC2Ev
	nop
	ldp	x29, x30, [sp], 32
	.cfi_restore 30
	.cfi_restore 29
	.cfi_def_cfa_offset 0
	ret
	.cfi_endproc
.LFE5925:
	.size	_ZNSaIiEC2Ev, .-_ZNSaIiEC2Ev
	.weak	_ZNSaIiEC1Ev
	.set	_ZNSaIiEC1Ev,_ZNSaIiEC2Ev
	.section	.text._ZNSaIiED2Ev,"axG",@progbits,_ZNSaIiED5Ev,comdat
	.align	2
	.weak	_ZNSaIiED2Ev
	.type	_ZNSaIiED2Ev, %function
_ZNSaIiED2Ev:
.LFB5928:
	.cfi_startproc
	stp	x29, x30, [sp, -32]!
	.cfi_def_cfa_offset 32
	.cfi_offset 29, -32
	.cfi_offset 30, -24
	mov	x29, sp
	str	x0, [sp, 24]
	ldr	x0, [sp, 24]
	bl	_ZN9__gnu_cxx13new_allocatorIiED2Ev
	nop
	ldp	x29, x30, [sp], 32
	.cfi_restore 30
	.cfi_restore 29
	.cfi_def_cfa_offset 0
	ret
	.cfi_endproc
.LFE5928:
	.size	_ZNSaIiED2Ev, .-_ZNSaIiED2Ev
	.weak	_ZNSaIiED1Ev
	.set	_ZNSaIiED1Ev,_ZNSaIiED2Ev
	.section	.text._ZNSt6vectorIiSaIiEEC2ESt16initializer_listIiERKS0_,"axG",@progbits,_ZNSt6vectorIiSaIiEEC5ESt16initializer_listIiERKS0_,comdat
	.align	2
	.weak	_ZNSt6vectorIiSaIiEEC2ESt16initializer_listIiERKS0_
	.type	_ZNSt6vectorIiSaIiEEC2ESt16initializer_listIiERKS0_, %function
_ZNSt6vectorIiSaIiEEC2ESt16initializer_listIiERKS0_:
.LFB5931:
	.cfi_startproc
	.cfi_personality 0x9b,DW.ref.__gxx_personality_v0
	.cfi_lsda 0x1b,.LLSDA5931
	stp	x29, x30, [sp, -80]!
	.cfi_def_cfa_offset 80
	.cfi_offset 29, -80
	.cfi_offset 30, -72
	mov	x29, sp
	stp	x19, x20, [sp, 16]
	.cfi_offset 19, -64
	.cfi_offset 20, -56
	str	x0, [sp, 56]
	stp	x1, x2, [sp, 40]
	str	x3, [sp, 32]
	adrp	x0, :got:__stack_chk_guard
	ldr	x0, [x0, #:got_lo12:__stack_chk_guard]
	ldr	x1, [x0]
	str	x1, [sp, 72]
	mov	x1, 0
	ldr	x0, [sp, 56]
	ldr	x1, [sp, 32]
	bl	_ZNSt12_Vector_baseIiSaIiEEC2ERKS0_
	add	x0, sp, 40
	bl	_ZNKSt16initializer_listIiE5beginEv
	mov	x19, x0
	add	x0, sp, 40
	bl	_ZNKSt16initializer_listIiE3endEv
	mov	w3, w20
	mov	x2, x0
	mov	x1, x19
	ldr	x0, [sp, 56]
.LEHB3:
	bl	_ZNSt6vectorIiSaIiEE19_M_range_initializeIPKiEEvT_S5_St20forward_iterator_tag
.LEHE3:
	b	.L23
.L22:
	mov	x19, x0
	ldr	x0, [sp, 56]
	bl	_ZNSt12_Vector_baseIiSaIiEED2Ev
	mov	x0, x19
.LEHB4:
	bl	_Unwind_Resume
.LEHE4:
.L23:
	adrp	x0, :got:__stack_chk_guard
	ldr	x0, [x0, #:got_lo12:__stack_chk_guard]
	ldr	x2, [sp, 72]
	ldr	x1, [x0]
	subs	x2, x2, x1
	mov	x1, 0
	beq	.L21
	bl	__stack_chk_fail
.L21:
	ldp	x19, x20, [sp, 16]
	ldp	x29, x30, [sp], 80
	.cfi_restore 30
	.cfi_restore 29
	.cfi_restore 19
	.cfi_restore 20
	.cfi_def_cfa_offset 0
	ret
	.cfi_endproc
.LFE5931:
	.section	.gcc_except_table
.LLSDA5931:
	.byte	0xff
	.byte	0xff
	.byte	0x1
	.uleb128 .LLSDACSE5931-.LLSDACSB5931
.LLSDACSB5931:
	.uleb128 .LEHB3-.LFB5931
	.uleb128 .LEHE3-.LEHB3
	.uleb128 .L22-.LFB5931
	.uleb128 0
	.uleb128 .LEHB4-.LFB5931
	.uleb128 .LEHE4-.LEHB4
	.uleb128 0
	.uleb128 0
.LLSDACSE5931:
	.section	.text._ZNSt6vectorIiSaIiEEC2ESt16initializer_listIiERKS0_,"axG",@progbits,_ZNSt6vectorIiSaIiEEC5ESt16initializer_listIiERKS0_,comdat
	.size	_ZNSt6vectorIiSaIiEEC2ESt16initializer_listIiERKS0_, .-_ZNSt6vectorIiSaIiEEC2ESt16initializer_listIiERKS0_
	.weak	_ZNSt6vectorIiSaIiEEC1ESt16initializer_listIiERKS0_
	.set	_ZNSt6vectorIiSaIiEEC1ESt16initializer_listIiERKS0_,_ZNSt6vectorIiSaIiEEC2ESt16initializer_listIiERKS0_
	.section	.text._ZNSt6vectorIiSaIiEED2Ev,"axG",@progbits,_ZNSt6vectorIiSaIiEED5Ev,comdat
	.align	2
	.weak	_ZNSt6vectorIiSaIiEED2Ev
	.type	_ZNSt6vectorIiSaIiEED2Ev, %function
_ZNSt6vectorIiSaIiEED2Ev:
.LFB5934:
	.cfi_startproc
	.cfi_personality 0x9b,DW.ref.__gxx_personality_v0
	.cfi_lsda 0x1b,.LLSDA5934
	stp	x29, x30, [sp, -48]!
	.cfi_def_cfa_offset 48
	.cfi_offset 29, -48
	.cfi_offset 30, -40
	mov	x29, sp
	stp	x19, x20, [sp, 16]
	.cfi_offset 19, -32
	.cfi_offset 20, -24
	str	x0, [sp, 40]
	ldr	x0, [sp, 40]
	ldr	x19, [x0]
	ldr	x0, [sp, 40]
	ldr	x20, [x0, 8]
	ldr	x0, [sp, 40]
	bl	_ZNSt12_Vector_baseIiSaIiEE19_M_get_Tp_allocatorEv
	mov	x2, x0
	mov	x1, x20
	mov	x0, x19
	bl	_ZSt8_DestroyIPiiEvT_S1_RSaIT0_E
	ldr	x0, [sp, 40]
	bl	_ZNSt12_Vector_baseIiSaIiEED2Ev
	nop
	ldp	x19, x20, [sp, 16]
	ldp	x29, x30, [sp], 48
	.cfi_restore 30
	.cfi_restore 29
	.cfi_restore 19
	.cfi_restore 20
	.cfi_def_cfa_offset 0
	ret
	.cfi_endproc
.LFE5934:
	.section	.gcc_except_table
.LLSDA5934:
	.byte	0xff
	.byte	0xff
	.byte	0x1
	.uleb128 .LLSDACSE5934-.LLSDACSB5934
.LLSDACSB5934:
.LLSDACSE5934:
	.section	.text._ZNSt6vectorIiSaIiEED2Ev,"axG",@progbits,_ZNSt6vectorIiSaIiEED5Ev,comdat
	.size	_ZNSt6vectorIiSaIiEED2Ev, .-_ZNSt6vectorIiSaIiEED2Ev
	.weak	_ZNSt6vectorIiSaIiEED1Ev
	.set	_ZNSt6vectorIiSaIiEED1Ev,_ZNSt6vectorIiSaIiEED2Ev
	.section	.text._ZNSt6vectorIiSaIiEE5beginEv,"axG",@progbits,_ZNSt6vectorIiSaIiEE5beginEv,comdat
	.align	2
	.weak	_ZNSt6vectorIiSaIiEE5beginEv
	.type	_ZNSt6vectorIiSaIiEE5beginEv, %function
_ZNSt6vectorIiSaIiEE5beginEv:
.LFB5936:
	.cfi_startproc
	stp	x29, x30, [sp, -48]!
	.cfi_def_cfa_offset 48
	.cfi_offset 29, -48
	.cfi_offset 30, -40
	mov	x29, sp
	str	x0, [sp, 24]
	adrp	x0, :got:__stack_chk_guard
	ldr	x0, [x0, #:got_lo12:__stack_chk_guard]
	ldr	x1, [x0]
	str	x1, [sp, 40]
	mov	x1, 0
	ldr	x1, [sp, 24]
	add	x0, sp, 32
	bl	_ZN9__gnu_cxx17__normal_iteratorIPiSt6vectorIiSaIiEEEC1ERKS1_
	ldr	x0, [sp, 32]
	mov	x1, x0
	adrp	x0, :got:__stack_chk_guard
	ldr	x0, [x0, #:got_lo12:__stack_chk_guard]
	ldr	x3, [sp, 40]
	ldr	x2, [x0]
	subs	x3, x3, x2
	mov	x2, 0
	beq	.L27
	bl	__stack_chk_fail
.L27:
	mov	x0, x1
	ldp	x29, x30, [sp], 48
	.cfi_restore 30
	.cfi_restore 29
	.cfi_def_cfa_offset 0
	ret
	.cfi_endproc
.LFE5936:
	.size	_ZNSt6vectorIiSaIiEE5beginEv, .-_ZNSt6vectorIiSaIiEE5beginEv
	.section	.text._ZNSt6vectorIiSaIiEE3endEv,"axG",@progbits,_ZNSt6vectorIiSaIiEE3endEv,comdat
	.align	2
	.weak	_ZNSt6vectorIiSaIiEE3endEv
	.type	_ZNSt6vectorIiSaIiEE3endEv, %function
_ZNSt6vectorIiSaIiEE3endEv:
.LFB5937:
	.cfi_startproc
	stp	x29, x30, [sp, -48]!
	.cfi_def_cfa_offset 48
	.cfi_offset 29, -48
	.cfi_offset 30, -40
	mov	x29, sp
	str	x0, [sp, 24]
	adrp	x0, :got:__stack_chk_guard
	ldr	x0, [x0, #:got_lo12:__stack_chk_guard]
	ldr	x1, [x0]
	str	x1, [sp, 40]
	mov	x1, 0
	ldr	x0, [sp, 24]
	add	x1, x0, 8
	add	x0, sp, 32
	bl	_ZN9__gnu_cxx17__normal_iteratorIPiSt6vectorIiSaIiEEEC1ERKS1_
	ldr	x0, [sp, 32]
	mov	x1, x0
	adrp	x0, :got:__stack_chk_guard
	ldr	x0, [x0, #:got_lo12:__stack_chk_guard]
	ldr	x3, [sp, 40]
	ldr	x2, [x0]
	subs	x3, x3, x2
	mov	x2, 0
	beq	.L30
	bl	__stack_chk_fail
.L30:
	mov	x0, x1
	ldp	x29, x30, [sp], 48
	.cfi_restore 30
	.cfi_restore 29
	.cfi_def_cfa_offset 0
	ret
	.cfi_endproc
.LFE5937:
	.size	_ZNSt6vectorIiSaIiEE3endEv, .-_ZNSt6vectorIiSaIiEE3endEv
	.section	.text._ZN5boost6lambdamlINS0_11placeholderILi1EEEiEEKNS0_14lambda_functorINS0_19lambda_functor_baseINS0_17arithmetic_actionINS0_15multiply_actionEEENS_6tuples5tupleINS4_IT_EENS0_19const_copy_argumentIKT0_E4typeENS9_9null_typeESI_SI_SI_SI_SI_SI_SI_EEEEEERKSC_RSF_,"axG",@progbits,_ZN5boost6lambdamlINS0_11placeholderILi1EEEiEEKNS0_14lambda_functorINS0_19lambda_functor_baseINS0_17arithmetic_actionINS0_15multiply_actionEEENS_6tuples5tupleINS4_IT_EENS0_19const_copy_argumentIKT0_E4typeENS9_9null_typeESI_SI_SI_SI_SI_SI_SI_EEEEEERKSC_RSF_,comdat
	.align	2
	.weak	_ZN5boost6lambdamlINS0_11placeholderILi1EEEiEEKNS0_14lambda_functorINS0_19lambda_functor_baseINS0_17arithmetic_actionINS0_15multiply_actionEEENS_6tuples5tupleINS4_IT_EENS0_19const_copy_argumentIKT0_E4typeENS9_9null_typeESI_SI_SI_SI_SI_SI_SI_EEEEEERKSC_RSF_
	.type	_ZN5boost6lambdamlINS0_11placeholderILi1EEEiEEKNS0_14lambda_functorINS0_19lambda_functor_baseINS0_17arithmetic_actionINS0_15multiply_actionEEENS_6tuples5tupleINS4_IT_EENS0_19const_copy_argumentIKT0_E4typeENS9_9null_typeESI_SI_SI_SI_SI_SI_SI_EEEEEERKSC_RSF_, %function
_ZN5boost6lambdamlINS0_11placeholderILi1EEEiEEKNS0_14lambda_functorINS0_19lambda_functor_baseINS0_17arithmetic_actionINS0_15multiply_actionEEENS_6tuples5tupleINS4_IT_EENS0_19const_copy_argumentIKT0_E4typeENS9_9null_typeESI_SI_SI_SI_SI_SI_SI_EEEEEERKSC_RSF_:
.LFB5938:
	.cfi_startproc
	stp	x29, x30, [sp, -80]!
	.cfi_def_cfa_offset 80
	.cfi_offset 29, -80
	.cfi_offset 30, -72
	mov	x29, sp
	str	x19, [sp, 16]
	.cfi_offset 19, -64
	mov	x19, x8
	str	x0, [sp, 40]
	str	x1, [sp, 32]
	adrp	x0, :got:__stack_chk_guard
	ldr	x0, [x0, #:got_lo12:__stack_chk_guard]
	ldr	x1, [x0]
	str	x1, [sp, 72]
	mov	x1, 0
	add	x0, sp, 56
	ldr	x2, [sp, 32]
	ldr	x1, [sp, 40]
	bl	_ZN5boost6tuples5tupleINS_6lambda14lambda_functorINS2_11placeholderILi1EEEEEKiNS0_9null_typeES8_S8_S8_S8_S8_S8_S8_EC1ERKS6_RS7_
	add	x1, sp, 56
	add	x0, sp, 64
	bl	_ZN5boost6lambda19lambda_functor_baseINS0_17arithmetic_actionINS0_15multiply_actionEEENS_6tuples5tupleINS0_14lambda_functorINS0_11placeholderILi1EEEEEKiNS5_9null_typeESC_SC_SC_SC_SC_SC_SC_EEEC1ERKSD_
	add	x0, sp, 64
	mov	x1, x0
	mov	x0, x19
	bl	_ZN5boost6lambda14lambda_functorINS0_19lambda_functor_baseINS0_17arithmetic_actionINS0_15multiply_actionEEENS_6tuples5tupleINS1_INS0_11placeholderILi1EEEEEKiNS6_9null_typeESC_SC_SC_SC_SC_SC_SC_EEEEEC1ERKSE_
	adrp	x0, :got:__stack_chk_guard
	ldr	x0, [x0, #:got_lo12:__stack_chk_guard]
	ldr	x2, [sp, 72]
	ldr	x1, [x0]
	subs	x2, x2, x1
	mov	x1, 0
	beq	.L33
	bl	__stack_chk_fail
.L33:
	mov	x0, x19
	ldr	x19, [sp, 16]
	ldp	x29, x30, [sp], 80
	.cfi_restore 30
	.cfi_restore 29
	.cfi_restore 19
	.cfi_def_cfa_offset 0
	ret
	.cfi_endproc
.LFE5938:
	.size	_ZN5boost6lambdamlINS0_11placeholderILi1EEEiEEKNS0_14lambda_functorINS0_19lambda_functor_baseINS0_17arithmetic_actionINS0_15multiply_actionEEENS_6tuples5tupleINS4_IT_EENS0_19const_copy_argumentIKT0_E4typeENS9_9null_typeESI_SI_SI_SI_SI_SI_SI_EEEEEERKSC_RSF_, .-_ZN5boost6lambdamlINS0_11placeholderILi1EEEiEEKNS0_14lambda_functorINS0_19lambda_functor_baseINS0_17arithmetic_actionINS0_15multiply_actionEEENS_6tuples5tupleINS4_IT_EENS0_19const_copy_argumentIKT0_E4typeENS9_9null_typeESI_SI_SI_SI_SI_SI_SI_EEEEEERKSC_RSF_
	.section	.text._ZN5boost6lambdalsISoNS0_19lambda_functor_baseINS0_17arithmetic_actionINS0_15multiply_actionEEENS_6tuples5tupleINS0_14lambda_functorINS0_11placeholderILi1EEEEEKiNS6_9null_typeESD_SD_SD_SD_SD_SD_SD_EEEEEEKNS8_INS2_INS0_14bitwise_actionINS0_16leftshift_actionEEENS7_INS0_6detail51convert_ostream_to_ref_others_to_c_plain_by_defaultIT_E4typeENS8_IT0_EESD_SD_SD_SD_SD_SD_SD_SD_EEEEEERSL_RKSP_,"axG",@progbits,_ZN5boost6lambdalsISoNS0_19lambda_functor_baseINS0_17arithmetic_actionINS0_15multiply_actionEEENS_6tuples5tupleINS0_14lambda_functorINS0_11placeholderILi1EEEEEKiNS6_9null_typeESD_SD_SD_SD_SD_SD_SD_EEEEEEKNS8_INS2_INS0_14bitwise_actionINS0_16leftshift_actionEEENS7_INS0_6detail51convert_ostream_to_ref_others_to_c_plain_by_defaultIT_E4typeENS8_IT0_EESD_SD_SD_SD_SD_SD_SD_SD_EEEEEERSL_RKSP_,comdat
	.align	2
	.weak	_ZN5boost6lambdalsISoNS0_19lambda_functor_baseINS0_17arithmetic_actionINS0_15multiply_actionEEENS_6tuples5tupleINS0_14lambda_functorINS0_11placeholderILi1EEEEEKiNS6_9null_typeESD_SD_SD_SD_SD_SD_SD_EEEEEEKNS8_INS2_INS0_14bitwise_actionINS0_16leftshift_actionEEENS7_INS0_6detail51convert_ostream_to_ref_others_to_c_plain_by_defaultIT_E4typeENS8_IT0_EESD_SD_SD_SD_SD_SD_SD_SD_EEEEEERSL_RKSP_
	.type	_ZN5boost6lambdalsISoNS0_19lambda_functor_baseINS0_17arithmetic_actionINS0_15multiply_actionEEENS_6tuples5tupleINS0_14lambda_functorINS0_11placeholderILi1EEEEEKiNS6_9null_typeESD_SD_SD_SD_SD_SD_SD_EEEEEEKNS8_INS2_INS0_14bitwise_actionINS0_16leftshift_actionEEENS7_INS0_6detail51convert_ostream_to_ref_others_to_c_plain_by_defaultIT_E4typeENS8_IT0_EESD_SD_SD_SD_SD_SD_SD_SD_EEEEEERSL_RKSP_, %function
_ZN5boost6lambdalsISoNS0_19lambda_functor_baseINS0_17arithmetic_actionINS0_15multiply_actionEEENS_6tuples5tupleINS0_14lambda_functorINS0_11placeholderILi1EEEEEKiNS6_9null_typeESD_SD_SD_SD_SD_SD_SD_EEEEEEKNS8_INS2_INS0_14bitwise_actionINS0_16leftshift_actionEEENS7_INS0_6detail51convert_ostream_to_ref_others_to_c_plain_by_defaultIT_E4typeENS8_IT0_EESD_SD_SD_SD_SD_SD_SD_SD_EEEEEERSL_RKSP_:
.LFB5939:
	.cfi_startproc
	stp	x29, x30, [sp, -96]!
	.cfi_def_cfa_offset 96
	.cfi_offset 29, -96
	.cfi_offset 30, -88
	mov	x29, sp
	str	x19, [sp, 16]
	.cfi_offset 19, -80
	mov	x19, x8
	str	x0, [sp, 40]
	str	x1, [sp, 32]
	adrp	x0, :got:__stack_chk_guard
	ldr	x0, [x0, #:got_lo12:__stack_chk_guard]
	ldr	x1, [x0]
	str	x1, [sp, 88]
	mov	x1, 0
	add	x0, sp, 56
	ldr	x2, [sp, 32]
	ldr	x1, [sp, 40]
	bl	_ZN5boost6tuples5tupleIRSoNS_6lambda14lambda_functorINS3_19lambda_functor_baseINS3_17arithmetic_actionINS3_15multiply_actionEEENS1_INS4_INS3_11placeholderILi1EEEEEKiNS0_9null_typeESD_SD_SD_SD_SD_SD_SD_EEEEEESD_SD_SD_SD_SD_SD_SD_SD_EC1ES2_RKSG_
	add	x1, sp, 56
	add	x0, sp, 72
	bl	_ZN5boost6lambda19lambda_functor_baseINS0_14bitwise_actionINS0_16leftshift_actionEEENS_6tuples5tupleIRSoNS0_14lambda_functorINS1_INS0_17arithmetic_actionINS0_15multiply_actionEEENS6_INS8_INS0_11placeholderILi1EEEEEKiNS5_9null_typeESG_SG_SG_SG_SG_SG_SG_EEEEEESG_SG_SG_SG_SG_SG_SG_SG_EEEC1ERKSK_
	add	x0, sp, 72
	mov	x1, x0
	mov	x0, x19
	bl	_ZN5boost6lambda14lambda_functorINS0_19lambda_functor_baseINS0_14bitwise_actionINS0_16leftshift_actionEEENS_6tuples5tupleIRSoNS1_INS2_INS0_17arithmetic_actionINS0_15multiply_actionEEENS7_INS1_INS0_11placeholderILi1EEEEEKiNS6_9null_typeESG_SG_SG_SG_SG_SG_SG_EEEEEESG_SG_SG_SG_SG_SG_SG_SG_EEEEEC1ERKSL_
	adrp	x0, :got:__stack_chk_guard
	ldr	x0, [x0, #:got_lo12:__stack_chk_guard]
	ldr	x2, [sp, 88]
	ldr	x1, [x0]
	subs	x2, x2, x1
	mov	x1, 0
	beq	.L36
	bl	__stack_chk_fail
.L36:
	mov	x0, x19
	ldr	x19, [sp, 16]
	ldp	x29, x30, [sp], 96
	.cfi_restore 30
	.cfi_restore 29
	.cfi_restore 19
	.cfi_def_cfa_offset 0
	ret
	.cfi_endproc
.LFE5939:
	.size	_ZN5boost6lambdalsISoNS0_19lambda_functor_baseINS0_17arithmetic_actionINS0_15multiply_actionEEENS_6tuples5tupleINS0_14lambda_functorINS0_11placeholderILi1EEEEEKiNS6_9null_typeESD_SD_SD_SD_SD_SD_SD_EEEEEEKNS8_INS2_INS0_14bitwise_actionINS0_16leftshift_actionEEENS7_INS0_6detail51convert_ostream_to_ref_others_to_c_plain_by_defaultIT_E4typeENS8_IT0_EESD_SD_SD_SD_SD_SD_SD_SD_EEEEEERSL_RKSP_, .-_ZN5boost6lambdalsISoNS0_19lambda_functor_baseINS0_17arithmetic_actionINS0_15multiply_actionEEENS_6tuples5tupleINS0_14lambda_functorINS0_11placeholderILi1EEEEEKiNS6_9null_typeESD_SD_SD_SD_SD_SD_SD_EEEEEEKNS8_INS2_INS0_14bitwise_actionINS0_16leftshift_actionEEENS7_INS0_6detail51convert_ostream_to_ref_others_to_c_plain_by_defaultIT_E4typeENS8_IT0_EESD_SD_SD_SD_SD_SD_SD_SD_EEEEEERSL_RKSP_
	.section	.text._ZN5boost6lambdalsINS0_19lambda_functor_baseINS0_14bitwise_actionINS0_16leftshift_actionEEENS_6tuples5tupleIRSoNS0_14lambda_functorINS2_INS0_17arithmetic_actionINS0_15multiply_actionEEENS7_INS9_INS0_11placeholderILi1EEEEEKiNS6_9null_typeESH_SH_SH_SH_SH_SH_SH_EEEEEESH_SH_SH_SH_SH_SH_SH_SH_EEEEA2_cEEKNS9_INS2_IS5_NS7_INS9_IT_EENS0_19const_copy_argumentIKT0_E4typeESH_SH_SH_SH_SH_SH_SH_SH_EEEEEERKSP_RSS_,"axG",@progbits,_ZN5boost6lambdalsINS0_19lambda_functor_baseINS0_14bitwise_actionINS0_16leftshift_actionEEENS_6tuples5tupleIRSoNS0_14lambda_functorINS2_INS0_17arithmetic_actionINS0_15multiply_actionEEENS7_INS9_INS0_11placeholderILi1EEEEEKiNS6_9null_typeESH_SH_SH_SH_SH_SH_SH_EEEEEESH_SH_SH_SH_SH_SH_SH_SH_EEEEA2_cEEKNS9_INS2_IS5_NS7_INS9_IT_EENS0_19const_copy_argumentIKT0_E4typeESH_SH_SH_SH_SH_SH_SH_SH_EEEEEERKSP_RSS_,comdat
	.align	2
	.weak	_ZN5boost6lambdalsINS0_19lambda_functor_baseINS0_14bitwise_actionINS0_16leftshift_actionEEENS_6tuples5tupleIRSoNS0_14lambda_functorINS2_INS0_17arithmetic_actionINS0_15multiply_actionEEENS7_INS9_INS0_11placeholderILi1EEEEEKiNS6_9null_typeESH_SH_SH_SH_SH_SH_SH_EEEEEESH_SH_SH_SH_SH_SH_SH_SH_EEEEA2_cEEKNS9_INS2_IS5_NS7_INS9_IT_EENS0_19const_copy_argumentIKT0_E4typeESH_SH_SH_SH_SH_SH_SH_SH_EEEEEERKSP_RSS_
	.type	_ZN5boost6lambdalsINS0_19lambda_functor_baseINS0_14bitwise_actionINS0_16leftshift_actionEEENS_6tuples5tupleIRSoNS0_14lambda_functorINS2_INS0_17arithmetic_actionINS0_15multiply_actionEEENS7_INS9_INS0_11placeholderILi1EEEEEKiNS6_9null_typeESH_SH_SH_SH_SH_SH_SH_EEEEEESH_SH_SH_SH_SH_SH_SH_SH_EEEEA2_cEEKNS9_INS2_IS5_NS7_INS9_IT_EENS0_19const_copy_argumentIKT0_E4typeESH_SH_SH_SH_SH_SH_SH_SH_EEEEEERKSP_RSS_, %function
_ZN5boost6lambdalsINS0_19lambda_functor_baseINS0_14bitwise_actionINS0_16leftshift_actionEEENS_6tuples5tupleIRSoNS0_14lambda_functorINS2_INS0_17arithmetic_actionINS0_15multiply_actionEEENS7_INS9_INS0_11placeholderILi1EEEEEKiNS6_9null_typeESH_SH_SH_SH_SH_SH_SH_EEEEEESH_SH_SH_SH_SH_SH_SH_SH_EEEEA2_cEEKNS9_INS2_IS5_NS7_INS9_IT_EENS0_19const_copy_argumentIKT0_E4typeESH_SH_SH_SH_SH_SH_SH_SH_EEEEEERKSP_RSS_:
.LFB5940:
	.cfi_startproc
	stp	x29, x30, [sp, -112]!
	.cfi_def_cfa_offset 112
	.cfi_offset 29, -112
	.cfi_offset 30, -104
	mov	x29, sp
	str	x19, [sp, 16]
	.cfi_offset 19, -96
	mov	x19, x8
	str	x0, [sp, 40]
	str	x1, [sp, 32]
	adrp	x0, :got:__stack_chk_guard
	ldr	x0, [x0, #:got_lo12:__stack_chk_guard]
	ldr	x1, [x0]
	str	x1, [sp, 104]
	mov	x1, 0
	add	x0, sp, 56
	ldr	x2, [sp, 32]
	ldr	x1, [sp, 40]
	bl	_ZN5boost6tuples5tupleINS_6lambda14lambda_functorINS2_19lambda_functor_baseINS2_14bitwise_actionINS2_16leftshift_actionEEENS1_IRSoNS3_INS4_INS2_17arithmetic_actionINS2_15multiply_actionEEENS1_INS3_INS2_11placeholderILi1EEEEEKiNS0_9null_typeESG_SG_SG_SG_SG_SG_SG_EEEEEESG_SG_SG_SG_SG_SG_SG_SG_EEEEEERA2_KcSG_SG_SG_SG_SG_SG_SG_SG_EC1ERKSM_SP_
	add	x1, sp, 56
	add	x0, sp, 80
	bl	_ZN5boost6lambda19lambda_functor_baseINS0_14bitwise_actionINS0_16leftshift_actionEEENS_6tuples5tupleINS0_14lambda_functorINS1_IS4_NS6_IRSoNS7_INS1_INS0_17arithmetic_actionINS0_15multiply_actionEEENS6_INS7_INS0_11placeholderILi1EEEEEKiNS5_9null_typeESG_SG_SG_SG_SG_SG_SG_EEEEEESG_SG_SG_SG_SG_SG_SG_SG_EEEEEERA2_KcSG_SG_SG_SG_SG_SG_SG_SG_EEEC1ERKSQ_
	add	x0, sp, 80
	mov	x1, x0
	mov	x0, x19
	bl	_ZN5boost6lambda14lambda_functorINS0_19lambda_functor_baseINS0_14bitwise_actionINS0_16leftshift_actionEEENS_6tuples5tupleINS1_INS2_IS5_NS7_IRSoNS1_INS2_INS0_17arithmetic_actionINS0_15multiply_actionEEENS7_INS1_INS0_11placeholderILi1EEEEEKiNS6_9null_typeESG_SG_SG_SG_SG_SG_SG_EEEEEESG_SG_SG_SG_SG_SG_SG_SG_EEEEEERA2_KcSG_SG_SG_SG_SG_SG_SG_SG_EEEEEC1ERKSR_
	adrp	x0, :got:__stack_chk_guard
	ldr	x0, [x0, #:got_lo12:__stack_chk_guard]
	ldr	x2, [sp, 104]
	ldr	x1, [x0]
	subs	x2, x2, x1
	mov	x1, 0
	beq	.L39
	bl	__stack_chk_fail
.L39:
	mov	x0, x19
	ldr	x19, [sp, 16]
	ldp	x29, x30, [sp], 112
	.cfi_restore 30
	.cfi_restore 29
	.cfi_restore 19
	.cfi_def_cfa_offset 0
	ret
	.cfi_endproc
.LFE5940:
	.size	_ZN5boost6lambdalsINS0_19lambda_functor_baseINS0_14bitwise_actionINS0_16leftshift_actionEEENS_6tuples5tupleIRSoNS0_14lambda_functorINS2_INS0_17arithmetic_actionINS0_15multiply_actionEEENS7_INS9_INS0_11placeholderILi1EEEEEKiNS6_9null_typeESH_SH_SH_SH_SH_SH_SH_EEEEEESH_SH_SH_SH_SH_SH_SH_SH_EEEEA2_cEEKNS9_INS2_IS5_NS7_INS9_IT_EENS0_19const_copy_argumentIKT0_E4typeESH_SH_SH_SH_SH_SH_SH_SH_EEEEEERKSP_RSS_, .-_ZN5boost6lambdalsINS0_19lambda_functor_baseINS0_14bitwise_actionINS0_16leftshift_actionEEENS_6tuples5tupleIRSoNS0_14lambda_functorINS2_INS0_17arithmetic_actionINS0_15multiply_actionEEENS7_INS9_INS0_11placeholderILi1EEEEEKiNS6_9null_typeESH_SH_SH_SH_SH_SH_SH_EEEEEESH_SH_SH_SH_SH_SH_SH_SH_EEEEA2_cEEKNS9_INS2_IS5_NS7_INS9_IT_EENS0_19const_copy_argumentIKT0_E4typeESH_SH_SH_SH_SH_SH_SH_SH_EEEEEERKSP_RSS_
	.section	.text._ZSt8for_eachIN9__gnu_cxx17__normal_iteratorIPiSt6vectorIiSaIiEEEEN5boost6lambda14lambda_functorINS8_19lambda_functor_baseINS8_14bitwise_actionINS8_16leftshift_actionEEENS7_6tuples5tupleINS9_INSA_ISD_NSF_IRSoNS9_INSA_INS8_17arithmetic_actionINS8_15multiply_actionEEENSF_INS9_INS8_11placeholderILi1EEEEEKiNSE_9null_typeESO_SO_SO_SO_SO_SO_SO_EEEEEESO_SO_SO_SO_SO_SO_SO_SO_EEEEEERA2_KcSO_SO_SO_SO_SO_SO_SO_SO_EEEEEEET0_T_S12_S11_,"axG",@progbits,_ZSt8for_eachIN9__gnu_cxx17__normal_iteratorIPiSt6vectorIiSaIiEEEEN5boost6lambda14lambda_functorINS8_19lambda_functor_baseINS8_14bitwise_actionINS8_16leftshift_actionEEENS7_6tuples5tupleINS9_INSA_ISD_NSF_IRSoNS9_INSA_INS8_17arithmetic_actionINS8_15multiply_actionEEENSF_INS9_INS8_11placeholderILi1EEEEEKiNSE_9null_typeESO_SO_SO_SO_SO_SO_SO_EEEEEESO_SO_SO_SO_SO_SO_SO_SO_EEEEEERA2_KcSO_SO_SO_SO_SO_SO_SO_SO_EEEEEEET0_T_S12_S11_,comdat
	.align	2
	.weak	_ZSt8for_eachIN9__gnu_cxx17__normal_iteratorIPiSt6vectorIiSaIiEEEEN5boost6lambda14lambda_functorINS8_19lambda_functor_baseINS8_14bitwise_actionINS8_16leftshift_actionEEENS7_6tuples5tupleINS9_INSA_ISD_NSF_IRSoNS9_INSA_INS8_17arithmetic_actionINS8_15multiply_actionEEENSF_INS9_INS8_11placeholderILi1EEEEEKiNSE_9null_typeESO_SO_SO_SO_SO_SO_SO_EEEEEESO_SO_SO_SO_SO_SO_SO_SO_EEEEEERA2_KcSO_SO_SO_SO_SO_SO_SO_SO_EEEEEEET0_T_S12_S11_
	.type	_ZSt8for_eachIN9__gnu_cxx17__normal_iteratorIPiSt6vectorIiSaIiEEEEN5boost6lambda14lambda_functorINS8_19lambda_functor_baseINS8_14bitwise_actionINS8_16leftshift_actionEEENS7_6tuples5tupleINS9_INSA_ISD_NSF_IRSoNS9_INSA_INS8_17arithmetic_actionINS8_15multiply_actionEEENSF_INS9_INS8_11placeholderILi1EEEEEKiNSE_9null_typeESO_SO_SO_SO_SO_SO_SO_EEEEEESO_SO_SO_SO_SO_SO_SO_SO_EEEEEERA2_KcSO_SO_SO_SO_SO_SO_SO_SO_EEEEEEET0_T_S12_S11_, %function
_ZSt8for_eachIN9__gnu_cxx17__normal_iteratorIPiSt6vectorIiSaIiEEEEN5boost6lambda14lambda_functorINS8_19lambda_functor_baseINS8_14bitwise_actionINS8_16leftshift_actionEEENS7_6tuples5tupleINS9_INSA_ISD_NSF_IRSoNS9_INSA_INS8_17arithmetic_actionINS8_15multiply_actionEEENSF_INS9_INS8_11placeholderILi1EEEEEKiNSE_9null_typeESO_SO_SO_SO_SO_SO_SO_EEEEEESO_SO_SO_SO_SO_SO_SO_SO_EEEEEERA2_KcSO_SO_SO_SO_SO_SO_SO_SO_EEEEEEET0_T_S12_S11_:
.LFB5941:
	.cfi_startproc
	stp	x29, x30, [sp, -64]!
	.cfi_def_cfa_offset 64
	.cfi_offset 29, -64
	.cfi_offset 30, -56
	mov	x29, sp
	str	x19, [sp, 16]
	.cfi_offset 19, -48
	mov	x19, x8
	str	x0, [sp, 56]
	str	x1, [sp, 48]
	str	x2, [sp, 40]
	b	.L41
.L42:
	add	x0, sp, 56
	bl	_ZNK9__gnu_cxx17__normal_iteratorIPiSt6vectorIiSaIiEEEdeEv
	mov	x1, x0
	ldr	x0, [sp, 40]
	bl	_ZNK5boost6lambda14lambda_functorINS0_19lambda_functor_baseINS0_14bitwise_actionINS0_16leftshift_actionEEENS_6tuples5tupleINS1_INS2_IS5_NS7_IRSoNS1_INS2_INS0_17arithmetic_actionINS0_15multiply_actionEEENS7_INS1_INS0_11placeholderILi1EEEEEKiNS6_9null_typeESG_SG_SG_SG_SG_SG_SG_EEEEEESG_SG_SG_SG_SG_SG_SG_SG_EEEEEERA2_KcSG_SG_SG_SG_SG_SG_SG_SG_EEEEEclIiEENSR_3sigINS7_IRT_SG_SG_SG_SG_SG_SG_SG_SG_SG_EEE4typeESW_
	add	x0, sp, 56
	bl	_ZN9__gnu_cxx17__normal_iteratorIPiSt6vectorIiSaIiEEEppEv
.L41:
	add	x1, sp, 48
	add	x0, sp, 56
	bl	_ZN9__gnu_cxxneIPiSt6vectorIiSaIiEEEEbRKNS_17__normal_iteratorIT_T0_EESA_
	and	w0, w0, 255
	cmp	w0, 0
	bne	.L42
	ldr	x1, [sp, 40]
	mov	x0, x19
	bl	_ZN5boost6lambda14lambda_functorINS0_19lambda_functor_baseINS0_14bitwise_actionINS0_16leftshift_actionEEENS_6tuples5tupleINS1_INS2_IS5_NS7_IRSoNS1_INS2_INS0_17arithmetic_actionINS0_15multiply_actionEEENS7_INS1_INS0_11placeholderILi1EEEEEKiNS6_9null_typeESG_SG_SG_SG_SG_SG_SG_EEEEEESG_SG_SG_SG_SG_SG_SG_SG_EEEEEERA2_KcSG_SG_SG_SG_SG_SG_SG_SG_EEEEEC1ERKSS_
	mov	x0, x19
	ldr	x19, [sp, 16]
	ldp	x29, x30, [sp], 64
	.cfi_restore 30
	.cfi_restore 29
	.cfi_restore 19
	.cfi_def_cfa_offset 0
	ret
	.cfi_endproc
.LFE5941:
	.size	_ZSt8for_eachIN9__gnu_cxx17__normal_iteratorIPiSt6vectorIiSaIiEEEEN5boost6lambda14lambda_functorINS8_19lambda_functor_baseINS8_14bitwise_actionINS8_16leftshift_actionEEENS7_6tuples5tupleINS9_INSA_ISD_NSF_IRSoNS9_INSA_INS8_17arithmetic_actionINS8_15multiply_actionEEENSF_INS9_INS8_11placeholderILi1EEEEEKiNSE_9null_typeESO_SO_SO_SO_SO_SO_SO_EEEEEESO_SO_SO_SO_SO_SO_SO_SO_EEEEEERA2_KcSO_SO_SO_SO_SO_SO_SO_SO_EEEEEEET0_T_S12_S11_, .-_ZSt8for_eachIN9__gnu_cxx17__normal_iteratorIPiSt6vectorIiSaIiEEEEN5boost6lambda14lambda_functorINS8_19lambda_functor_baseINS8_14bitwise_actionINS8_16leftshift_actionEEENS7_6tuples5tupleINS9_INSA_ISD_NSF_IRSoNS9_INSA_INS8_17arithmetic_actionINS8_15multiply_actionEEENSF_INS9_INS8_11placeholderILi1EEEEEKiNSE_9null_typeESO_SO_SO_SO_SO_SO_SO_EEEEEESO_SO_SO_SO_SO_SO_SO_SO_EEEEEERA2_KcSO_SO_SO_SO_SO_SO_SO_SO_EEEEEEET0_T_S12_S11_
	.section	.text._ZN9__gnu_cxx13new_allocatorIiEC2Ev,"axG",@progbits,_ZN9__gnu_cxx13new_allocatorIiEC5Ev,comdat
	.align	2
	.weak	_ZN9__gnu_cxx13new_allocatorIiEC2Ev
	.type	_ZN9__gnu_cxx13new_allocatorIiEC2Ev, %function
_ZN9__gnu_cxx13new_allocatorIiEC2Ev:
.LFB6072:
	.cfi_startproc
	sub	sp, sp, #16
	.cfi_def_cfa_offset 16
	str	x0, [sp, 8]
	nop
	add	sp, sp, 16
	.cfi_def_cfa_offset 0
	ret
	.cfi_endproc
.LFE6072:
	.size	_ZN9__gnu_cxx13new_allocatorIiEC2Ev, .-_ZN9__gnu_cxx13new_allocatorIiEC2Ev
	.weak	_ZN9__gnu_cxx13new_allocatorIiEC1Ev
	.set	_ZN9__gnu_cxx13new_allocatorIiEC1Ev,_ZN9__gnu_cxx13new_allocatorIiEC2Ev
	.section	.text._ZN9__gnu_cxx13new_allocatorIiED2Ev,"axG",@progbits,_ZN9__gnu_cxx13new_allocatorIiED5Ev,comdat
	.align	2
	.weak	_ZN9__gnu_cxx13new_allocatorIiED2Ev
	.type	_ZN9__gnu_cxx13new_allocatorIiED2Ev, %function
_ZN9__gnu_cxx13new_allocatorIiED2Ev:
.LFB6075:
	.cfi_startproc
	sub	sp, sp, #16
	.cfi_def_cfa_offset 16
	str	x0, [sp, 8]
	nop
	add	sp, sp, 16
	.cfi_def_cfa_offset 0
	ret
	.cfi_endproc
.LFE6075:
	.size	_ZN9__gnu_cxx13new_allocatorIiED2Ev, .-_ZN9__gnu_cxx13new_allocatorIiED2Ev
	.weak	_ZN9__gnu_cxx13new_allocatorIiED1Ev
	.set	_ZN9__gnu_cxx13new_allocatorIiED1Ev,_ZN9__gnu_cxx13new_allocatorIiED2Ev
	.section	.text._ZNSt12_Vector_baseIiSaIiEE12_Vector_implD2Ev,"axG",@progbits,_ZNSt12_Vector_baseIiSaIiEE12_Vector_implD5Ev,comdat
	.align	2
	.weak	_ZNSt12_Vector_baseIiSaIiEE12_Vector_implD2Ev
	.type	_ZNSt12_Vector_baseIiSaIiEE12_Vector_implD2Ev, %function
_ZNSt12_Vector_baseIiSaIiEE12_Vector_implD2Ev:
.LFB6079:
	.cfi_startproc
	stp	x29, x30, [sp, -32]!
	.cfi_def_cfa_offset 32
	.cfi_offset 29, -32
	.cfi_offset 30, -24
	mov	x29, sp
	str	x0, [sp, 24]
	ldr	x0, [sp, 24]
	bl	_ZNSaIiED2Ev
	nop
	ldp	x29, x30, [sp], 32
	.cfi_restore 30
	.cfi_restore 29
	.cfi_def_cfa_offset 0
	ret
	.cfi_endproc
.LFE6079:
	.size	_ZNSt12_Vector_baseIiSaIiEE12_Vector_implD2Ev, .-_ZNSt12_Vector_baseIiSaIiEE12_Vector_implD2Ev
	.weak	_ZNSt12_Vector_baseIiSaIiEE12_Vector_implD1Ev
	.set	_ZNSt12_Vector_baseIiSaIiEE12_Vector_implD1Ev,_ZNSt12_Vector_baseIiSaIiEE12_Vector_implD2Ev
	.section	.text._ZNSt12_Vector_baseIiSaIiEEC2ERKS0_,"axG",@progbits,_ZNSt12_Vector_baseIiSaIiEEC5ERKS0_,comdat
	.align	2
	.weak	_ZNSt12_Vector_baseIiSaIiEEC2ERKS0_
	.type	_ZNSt12_Vector_baseIiSaIiEEC2ERKS0_, %function
_ZNSt12_Vector_baseIiSaIiEEC2ERKS0_:
.LFB6081:
	.cfi_startproc
	stp	x29, x30, [sp, -32]!
	.cfi_def_cfa_offset 32
	.cfi_offset 29, -32
	.cfi_offset 30, -24
	mov	x29, sp
	str	x0, [sp, 24]
	str	x1, [sp, 16]
	ldr	x0, [sp, 24]
	ldr	x1, [sp, 16]
	bl	_ZNSt12_Vector_baseIiSaIiEE12_Vector_implC1ERKS0_
	nop
	ldp	x29, x30, [sp], 32
	.cfi_restore 30
	.cfi_restore 29
	.cfi_def_cfa_offset 0
	ret
	.cfi_endproc
.LFE6081:
	.size	_ZNSt12_Vector_baseIiSaIiEEC2ERKS0_, .-_ZNSt12_Vector_baseIiSaIiEEC2ERKS0_
	.weak	_ZNSt12_Vector_baseIiSaIiEEC1ERKS0_
	.set	_ZNSt12_Vector_baseIiSaIiEEC1ERKS0_,_ZNSt12_Vector_baseIiSaIiEEC2ERKS0_
	.section	.text._ZNSt12_Vector_baseIiSaIiEED2Ev,"axG",@progbits,_ZNSt12_Vector_baseIiSaIiEED5Ev,comdat
	.align	2
	.weak	_ZNSt12_Vector_baseIiSaIiEED2Ev
	.type	_ZNSt12_Vector_baseIiSaIiEED2Ev, %function
_ZNSt12_Vector_baseIiSaIiEED2Ev:
.LFB6084:
	.cfi_startproc
	.cfi_personality 0x9b,DW.ref.__gxx_personality_v0
	.cfi_lsda 0x1b,.LLSDA6084
	stp	x29, x30, [sp, -32]!
	.cfi_def_cfa_offset 32
	.cfi_offset 29, -32
	.cfi_offset 30, -24
	mov	x29, sp
	str	x0, [sp, 24]
	ldr	x0, [sp, 24]
	ldr	x3, [x0]
	ldr	x0, [sp, 24]
	ldr	x1, [x0, 16]
	ldr	x0, [sp, 24]
	ldr	x0, [x0]
	sub	x0, x1, x0
	asr	x0, x0, 2
	mov	x2, x0
	mov	x1, x3
	ldr	x0, [sp, 24]
	bl	_ZNSt12_Vector_baseIiSaIiEE13_M_deallocateEPim
	ldr	x0, [sp, 24]
	bl	_ZNSt12_Vector_baseIiSaIiEE12_Vector_implD1Ev
	nop
	ldp	x29, x30, [sp], 32
	.cfi_restore 30
	.cfi_restore 29
	.cfi_def_cfa_offset 0
	ret
	.cfi_endproc
.LFE6084:
	.section	.gcc_except_table
.LLSDA6084:
	.byte	0xff
	.byte	0xff
	.byte	0x1
	.uleb128 .LLSDACSE6084-.LLSDACSB6084
.LLSDACSB6084:
.LLSDACSE6084:
	.section	.text._ZNSt12_Vector_baseIiSaIiEED2Ev,"axG",@progbits,_ZNSt12_Vector_baseIiSaIiEED5Ev,comdat
	.size	_ZNSt12_Vector_baseIiSaIiEED2Ev, .-_ZNSt12_Vector_baseIiSaIiEED2Ev
	.weak	_ZNSt12_Vector_baseIiSaIiEED1Ev
	.set	_ZNSt12_Vector_baseIiSaIiEED1Ev,_ZNSt12_Vector_baseIiSaIiEED2Ev
	.section	.text._ZNKSt16initializer_listIiE5beginEv,"axG",@progbits,_ZNKSt16initializer_listIiE5beginEv,comdat
	.align	2
	.weak	_ZNKSt16initializer_listIiE5beginEv
	.type	_ZNKSt16initializer_listIiE5beginEv, %function
_ZNKSt16initializer_listIiE5beginEv:
.LFB6086:
	.cfi_startproc
	sub	sp, sp, #16
	.cfi_def_cfa_offset 16
	str	x0, [sp, 8]
	ldr	x0, [sp, 8]
	ldr	x0, [x0]
	add	sp, sp, 16
	.cfi_def_cfa_offset 0
	ret
	.cfi_endproc
.LFE6086:
	.size	_ZNKSt16initializer_listIiE5beginEv, .-_ZNKSt16initializer_listIiE5beginEv
	.section	.text._ZNKSt16initializer_listIiE3endEv,"axG",@progbits,_ZNKSt16initializer_listIiE3endEv,comdat
	.align	2
	.weak	_ZNKSt16initializer_listIiE3endEv
	.type	_ZNKSt16initializer_listIiE3endEv, %function
_ZNKSt16initializer_listIiE3endEv:
.LFB6087:
	.cfi_startproc
	stp	x29, x30, [sp, -48]!
	.cfi_def_cfa_offset 48
	.cfi_offset 29, -48
	.cfi_offset 30, -40
	mov	x29, sp
	str	x19, [sp, 16]
	.cfi_offset 19, -32
	str	x0, [sp, 40]
	ldr	x0, [sp, 40]
	bl	_ZNKSt16initializer_listIiE5beginEv
	mov	x19, x0
	ldr	x0, [sp, 40]
	bl	_ZNKSt16initializer_listIiE4sizeEv
	lsl	x0, x0, 2
	add	x0, x19, x0
	ldr	x19, [sp, 16]
	ldp	x29, x30, [sp], 48
	.cfi_restore 30
	.cfi_restore 29
	.cfi_restore 19
	.cfi_def_cfa_offset 0
	ret
	.cfi_endproc
.LFE6087:
	.size	_ZNKSt16initializer_listIiE3endEv, .-_ZNKSt16initializer_listIiE3endEv
	.section	.text._ZSt8distanceIPKiENSt15iterator_traitsIT_E15difference_typeES3_S3_,"axG",@progbits,_ZSt8distanceIPKiENSt15iterator_traitsIT_E15difference_typeES3_S3_,comdat
	.align	2
	.weak	_ZSt8distanceIPKiENSt15iterator_traitsIT_E15difference_typeES3_S3_
	.type	_ZSt8distanceIPKiENSt15iterator_traitsIT_E15difference_typeES3_S3_, %function
_ZSt8distanceIPKiENSt15iterator_traitsIT_E15difference_typeES3_S3_:
.LFB6089:
	.cfi_startproc
	stp	x29, x30, [sp, -48]!
	.cfi_def_cfa_offset 48
	.cfi_offset 29, -48
	.cfi_offset 30, -40
	mov	x29, sp
	stp	x19, x20, [sp, 16]
	.cfi_offset 19, -32
	.cfi_offset 20, -24
	str	x0, [sp, 40]
	str	x1, [sp, 32]
	ldr	x19, [sp, 40]
	add	x0, sp, 40
	bl	_ZSt19__iterator_categoryIPKiENSt15iterator_traitsIT_E17iterator_categoryERKS3_
	mov	w2, w20
	ldr	x1, [sp, 32]
	mov	x0, x19
	bl	_ZSt10__distanceIPKiENSt15iterator_traitsIT_E15difference_typeES3_S3_St26random_access_iterator_tag
	ldp	x19, x20, [sp, 16]
	ldp	x29, x30, [sp], 48
	.cfi_restore 30
	.cfi_restore 29
	.cfi_restore 19
	.cfi_restore 20
	.cfi_def_cfa_offset 0
	ret
	.cfi_endproc
.LFE6089:
	.size	_ZSt8distanceIPKiENSt15iterator_traitsIT_E15difference_typeES3_S3_, .-_ZSt8distanceIPKiENSt15iterator_traitsIT_E15difference_typeES3_S3_
	.section	.text._ZNSt6vectorIiSaIiEE19_M_range_initializeIPKiEEvT_S5_St20forward_iterator_tag,"axG",@progbits,_ZNSt6vectorIiSaIiEE19_M_range_initializeIPKiEEvT_S5_St20forward_iterator_tag,comdat
	.align	2
	.weak	_ZNSt6vectorIiSaIiEE19_M_range_initializeIPKiEEvT_S5_St20forward_iterator_tag
	.type	_ZNSt6vectorIiSaIiEE19_M_range_initializeIPKiEEvT_S5_St20forward_iterator_tag, %function
_ZNSt6vectorIiSaIiEE19_M_range_initializeIPKiEEvT_S5_St20forward_iterator_tag:
.LFB6088:
	.cfi_startproc
	stp	x29, x30, [sp, -80]!
	.cfi_def_cfa_offset 80
	.cfi_offset 29, -80
	.cfi_offset 30, -72
	mov	x29, sp
	str	x19, [sp, 16]
	.cfi_offset 19, -64
	str	x0, [sp, 56]
	str	x1, [sp, 48]
	str	x2, [sp, 40]
	strb	w3, [sp, 32]
	ldr	x1, [sp, 40]
	ldr	x0, [sp, 48]
	bl	_ZSt8distanceIPKiENSt15iterator_traitsIT_E15difference_typeES3_S3_
	str	x0, [sp, 72]
	ldr	x19, [sp, 56]
	ldr	x0, [sp, 56]
	bl	_ZNSt12_Vector_baseIiSaIiEE19_M_get_Tp_allocatorEv
	mov	x1, x0
	ldr	x0, [sp, 72]
	bl	_ZNSt6vectorIiSaIiEE17_S_check_init_lenEmRKS0_
	mov	x1, x0
	mov	x0, x19
	bl	_ZNSt12_Vector_baseIiSaIiEE11_M_allocateEm
	mov	x1, x0
	ldr	x0, [sp, 56]
	str	x1, [x0]
	ldr	x0, [sp, 56]
	ldr	x1, [x0]
	ldr	x0, [sp, 72]
	lsl	x0, x0, 2
	add	x1, x1, x0
	ldr	x0, [sp, 56]
	str	x1, [x0, 16]
	ldr	x0, [sp, 56]
	ldr	x19, [x0]
	ldr	x0, [sp, 56]
	bl	_ZNSt12_Vector_baseIiSaIiEE19_M_get_Tp_allocatorEv
	mov	x3, x0
	mov	x2, x19
	ldr	x1, [sp, 40]
	ldr	x0, [sp, 48]
	bl	_ZSt22__uninitialized_copy_aIPKiPiiET0_T_S4_S3_RSaIT1_E
	mov	x1, x0
	ldr	x0, [sp, 56]
	str	x1, [x0, 8]
	nop
	ldr	x19, [sp, 16]
	ldp	x29, x30, [sp], 80
	.cfi_restore 30
	.cfi_restore 29
	.cfi_restore 19
	.cfi_def_cfa_offset 0
	ret
	.cfi_endproc
.LFE6088:
	.size	_ZNSt6vectorIiSaIiEE19_M_range_initializeIPKiEEvT_S5_St20forward_iterator_tag, .-_ZNSt6vectorIiSaIiEE19_M_range_initializeIPKiEEvT_S5_St20forward_iterator_tag
	.section	.text._ZNSt12_Vector_baseIiSaIiEE19_M_get_Tp_allocatorEv,"axG",@progbits,_ZNSt12_Vector_baseIiSaIiEE19_M_get_Tp_allocatorEv,comdat
	.align	2
	.weak	_ZNSt12_Vector_baseIiSaIiEE19_M_get_Tp_allocatorEv
	.type	_ZNSt12_Vector_baseIiSaIiEE19_M_get_Tp_allocatorEv, %function
_ZNSt12_Vector_baseIiSaIiEE19_M_get_Tp_allocatorEv:
.LFB6090:
	.cfi_startproc
	sub	sp, sp, #16
	.cfi_def_cfa_offset 16
	str	x0, [sp, 8]
	ldr	x0, [sp, 8]
	add	sp, sp, 16
	.cfi_def_cfa_offset 0
	ret
	.cfi_endproc
.LFE6090:
	.size	_ZNSt12_Vector_baseIiSaIiEE19_M_get_Tp_allocatorEv, .-_ZNSt12_Vector_baseIiSaIiEE19_M_get_Tp_allocatorEv
	.section	.text._ZSt8_DestroyIPiiEvT_S1_RSaIT0_E,"axG",@progbits,_ZSt8_DestroyIPiiEvT_S1_RSaIT0_E,comdat
	.align	2
	.weak	_ZSt8_DestroyIPiiEvT_S1_RSaIT0_E
	.type	_ZSt8_DestroyIPiiEvT_S1_RSaIT0_E, %function
_ZSt8_DestroyIPiiEvT_S1_RSaIT0_E:
.LFB6091:
	.cfi_startproc
	stp	x29, x30, [sp, -48]!
	.cfi_def_cfa_offset 48
	.cfi_offset 29, -48
	.cfi_offset 30, -40
	mov	x29, sp
	str	x0, [sp, 40]
	str	x1, [sp, 32]
	str	x2, [sp, 24]
	ldr	x1, [sp, 32]
	ldr	x0, [sp, 40]
	bl	_ZSt8_DestroyIPiEvT_S1_
	nop
	ldp	x29, x30, [sp], 48
	.cfi_restore 30
	.cfi_restore 29
	.cfi_def_cfa_offset 0
	ret
	.cfi_endproc
.LFE6091:
	.size	_ZSt8_DestroyIPiiEvT_S1_RSaIT0_E, .-_ZSt8_DestroyIPiiEvT_S1_RSaIT0_E
	.section	.text._ZN9__gnu_cxx17__normal_iteratorIPiSt6vectorIiSaIiEEEC2ERKS1_,"axG",@progbits,_ZN9__gnu_cxx17__normal_iteratorIPiSt6vectorIiSaIiEEEC5ERKS1_,comdat
	.align	2
	.weak	_ZN9__gnu_cxx17__normal_iteratorIPiSt6vectorIiSaIiEEEC2ERKS1_
	.type	_ZN9__gnu_cxx17__normal_iteratorIPiSt6vectorIiSaIiEEEC2ERKS1_, %function
_ZN9__gnu_cxx17__normal_iteratorIPiSt6vectorIiSaIiEEEC2ERKS1_:
.LFB6093:
	.cfi_startproc
	sub	sp, sp, #16
	.cfi_def_cfa_offset 16
	str	x0, [sp, 8]
	str	x1, [sp]
	ldr	x0, [sp]
	ldr	x1, [x0]
	ldr	x0, [sp, 8]
	str	x1, [x0]
	nop
	add	sp, sp, 16
	.cfi_def_cfa_offset 0
	ret
	.cfi_endproc
.LFE6093:
	.size	_ZN9__gnu_cxx17__normal_iteratorIPiSt6vectorIiSaIiEEEC2ERKS1_, .-_ZN9__gnu_cxx17__normal_iteratorIPiSt6vectorIiSaIiEEEC2ERKS1_
	.weak	_ZN9__gnu_cxx17__normal_iteratorIPiSt6vectorIiSaIiEEEC1ERKS1_
	.set	_ZN9__gnu_cxx17__normal_iteratorIPiSt6vectorIiSaIiEEEC1ERKS1_,_ZN9__gnu_cxx17__normal_iteratorIPiSt6vectorIiSaIiEEEC2ERKS1_
	.section	.text._ZN5boost6tuples5tupleINS_6lambda14lambda_functorINS2_11placeholderILi1EEEEEKiNS0_9null_typeES8_S8_S8_S8_S8_S8_S8_EC2ERKS6_RS7_,"axG",@progbits,_ZN5boost6tuples5tupleINS_6lambda14lambda_functorINS2_11placeholderILi1EEEEEKiNS0_9null_typeES8_S8_S8_S8_S8_S8_S8_EC5ERKS6_RS7_,comdat
	.align	2
	.weak	_ZN5boost6tuples5tupleINS_6lambda14lambda_functorINS2_11placeholderILi1EEEEEKiNS0_9null_typeES8_S8_S8_S8_S8_S8_S8_EC2ERKS6_RS7_
	.type	_ZN5boost6tuples5tupleINS_6lambda14lambda_functorINS2_11placeholderILi1EEEEEKiNS0_9null_typeES8_S8_S8_S8_S8_S8_S8_EC2ERKS6_RS7_, %function
_ZN5boost6tuples5tupleINS_6lambda14lambda_functorINS2_11placeholderILi1EEEEEKiNS0_9null_typeES8_S8_S8_S8_S8_S8_S8_EC2ERKS6_RS7_:
.LFB6096:
	.cfi_startproc
	sub	sp, sp, #176
	.cfi_def_cfa_offset 176
	stp	x29, x30, [sp, 32]
	.cfi_offset 29, -144
	.cfi_offset 30, -136
	add	x29, sp, 32
	str	x19, [sp, 48]
	.cfi_offset 19, -128
	str	x0, [sp, 88]
	str	x1, [sp, 80]
	str	x2, [sp, 72]
	adrp	x0, :got:__stack_chk_guard
	ldr	x0, [x0, #:got_lo12:__stack_chk_guard]
	ldr	x1, [x0]
	str	x1, [sp, 168]
	mov	x1, 0
	ldr	x19, [sp, 88]
	bl	_ZN5boost6tuples6detail5cnullEv
	bl	_ZN5boost6tuples6detail5cnullEv
	bl	_ZN5boost6tuples6detail5cnullEv
	bl	_ZN5boost6tuples6detail5cnullEv
	bl	_ZN5boost6tuples6detail5cnullEv
	bl	_ZN5boost6tuples6detail5cnullEv
	bl	_ZN5boost6tuples6detail5cnullEv
	bl	_ZN5boost6tuples6detail5cnullEv
	add	x5, sp, 136
	add	x4, sp, 128
	add	x3, sp, 120
	add	x2, sp, 112
	add	x1, sp, 104
	add	x0, sp, 160
	str	x0, [sp, 16]
	add	x0, sp, 152
	str	x0, [sp, 8]
	add	x0, sp, 144
	str	x0, [sp]
	mov	x7, x5
	mov	x6, x4
	mov	x5, x3
	mov	x4, x2
	mov	x3, x1
	ldr	x2, [sp, 72]
	ldr	x1, [sp, 80]
	mov	x0, x19
	bl	_ZN5boost6tuples4consINS_6lambda14lambda_functorINS2_11placeholderILi1EEEEENS1_IKiNS0_9null_typeEEEEC2IKS6_S7_KS8_SD_SD_SD_SD_SD_SD_SD_EERT_RT0_RT1_RT2_RT3_RT4_RT5_RT6_RT7_RT8_
	nop
	adrp	x0, :got:__stack_chk_guard
	ldr	x0, [x0, #:got_lo12:__stack_chk_guard]
	ldr	x2, [sp, 168]
	ldr	x1, [x0]
	subs	x2, x2, x1
	mov	x1, 0
	beq	.L61
	bl	__stack_chk_fail
.L61:
	ldr	x19, [sp, 48]
	ldp	x29, x30, [sp, 32]
	add	sp, sp, 176
	.cfi_restore 29
	.cfi_restore 30
	.cfi_restore 19
	.cfi_def_cfa_offset 0
	ret
	.cfi_endproc
.LFE6096:
	.size	_ZN5boost6tuples5tupleINS_6lambda14lambda_functorINS2_11placeholderILi1EEEEEKiNS0_9null_typeES8_S8_S8_S8_S8_S8_S8_EC2ERKS6_RS7_, .-_ZN5boost6tuples5tupleINS_6lambda14lambda_functorINS2_11placeholderILi1EEEEEKiNS0_9null_typeES8_S8_S8_S8_S8_S8_S8_EC2ERKS6_RS7_
	.weak	_ZN5boost6tuples5tupleINS_6lambda14lambda_functorINS2_11placeholderILi1EEEEEKiNS0_9null_typeES8_S8_S8_S8_S8_S8_S8_EC1ERKS6_RS7_
	.set	_ZN5boost6tuples5tupleINS_6lambda14lambda_functorINS2_11placeholderILi1EEEEEKiNS0_9null_typeES8_S8_S8_S8_S8_S8_S8_EC1ERKS6_RS7_,_ZN5boost6tuples5tupleINS_6lambda14lambda_functorINS2_11placeholderILi1EEEEEKiNS0_9null_typeES8_S8_S8_S8_S8_S8_S8_EC2ERKS6_RS7_
	.section	.text._ZN5boost6tuples5tupleINS_6lambda14lambda_functorINS2_11placeholderILi1EEEEEKiNS0_9null_typeES8_S8_S8_S8_S8_S8_S8_EC2ERKS9_,"axG",@progbits,_ZN5boost6tuples5tupleINS_6lambda14lambda_functorINS2_11placeholderILi1EEEEEKiNS0_9null_typeES8_S8_S8_S8_S8_S8_S8_EC5ERKS9_,comdat
	.align	2
	.weak	_ZN5boost6tuples5tupleINS_6lambda14lambda_functorINS2_11placeholderILi1EEEEEKiNS0_9null_typeES8_S8_S8_S8_S8_S8_S8_EC2ERKS9_
	.type	_ZN5boost6tuples5tupleINS_6lambda14lambda_functorINS2_11placeholderILi1EEEEEKiNS0_9null_typeES8_S8_S8_S8_S8_S8_S8_EC2ERKS9_, %function
_ZN5boost6tuples5tupleINS_6lambda14lambda_functorINS2_11placeholderILi1EEEEEKiNS0_9null_typeES8_S8_S8_S8_S8_S8_S8_EC2ERKS9_:
.LFB6100:
	.cfi_startproc
	stp	x29, x30, [sp, -32]!
	.cfi_def_cfa_offset 32
	.cfi_offset 29, -32
	.cfi_offset 30, -24
	mov	x29, sp
	str	x0, [sp, 24]
	str	x1, [sp, 16]
	ldr	x0, [sp, 24]
	ldr	x1, [sp, 16]
	bl	_ZN5boost6tuples4consINS_6lambda14lambda_functorINS2_11placeholderILi1EEEEENS1_IKiNS0_9null_typeEEEEC2ERKSA_
	nop
	ldp	x29, x30, [sp], 32
	.cfi_restore 30
	.cfi_restore 29
	.cfi_def_cfa_offset 0
	ret
	.cfi_endproc
.LFE6100:
	.size	_ZN5boost6tuples5tupleINS_6lambda14lambda_functorINS2_11placeholderILi1EEEEEKiNS0_9null_typeES8_S8_S8_S8_S8_S8_S8_EC2ERKS9_, .-_ZN5boost6tuples5tupleINS_6lambda14lambda_functorINS2_11placeholderILi1EEEEEKiNS0_9null_typeES8_S8_S8_S8_S8_S8_S8_EC2ERKS9_
	.weak	_ZN5boost6tuples5tupleINS_6lambda14lambda_functorINS2_11placeholderILi1EEEEEKiNS0_9null_typeES8_S8_S8_S8_S8_S8_S8_EC1ERKS9_
	.set	_ZN5boost6tuples5tupleINS_6lambda14lambda_functorINS2_11placeholderILi1EEEEEKiNS0_9null_typeES8_S8_S8_S8_S8_S8_S8_EC1ERKS9_,_ZN5boost6tuples5tupleINS_6lambda14lambda_functorINS2_11placeholderILi1EEEEEKiNS0_9null_typeES8_S8_S8_S8_S8_S8_S8_EC2ERKS9_
	.section	.text._ZN5boost6lambda19lambda_functor_baseINS0_17arithmetic_actionINS0_15multiply_actionEEENS_6tuples5tupleINS0_14lambda_functorINS0_11placeholderILi1EEEEEKiNS5_9null_typeESC_SC_SC_SC_SC_SC_SC_EEEC2ERKSD_,"axG",@progbits,_ZN5boost6lambda19lambda_functor_baseINS0_17arithmetic_actionINS0_15multiply_actionEEENS_6tuples5tupleINS0_14lambda_functorINS0_11placeholderILi1EEEEEKiNS5_9null_typeESC_SC_SC_SC_SC_SC_SC_EEEC5ERKSD_,comdat
	.align	2
	.weak	_ZN5boost6lambda19lambda_functor_baseINS0_17arithmetic_actionINS0_15multiply_actionEEENS_6tuples5tupleINS0_14lambda_functorINS0_11placeholderILi1EEEEEKiNS5_9null_typeESC_SC_SC_SC_SC_SC_SC_EEEC2ERKSD_
	.type	_ZN5boost6lambda19lambda_functor_baseINS0_17arithmetic_actionINS0_15multiply_actionEEENS_6tuples5tupleINS0_14lambda_functorINS0_11placeholderILi1EEEEEKiNS5_9null_typeESC_SC_SC_SC_SC_SC_SC_EEEC2ERKSD_, %function
_ZN5boost6lambda19lambda_functor_baseINS0_17arithmetic_actionINS0_15multiply_actionEEENS_6tuples5tupleINS0_14lambda_functorINS0_11placeholderILi1EEEEEKiNS5_9null_typeESC_SC_SC_SC_SC_SC_SC_EEEC2ERKSD_:
.LFB6102:
	.cfi_startproc
	stp	x29, x30, [sp, -32]!
	.cfi_def_cfa_offset 32
	.cfi_offset 29, -32
	.cfi_offset 30, -24
	mov	x29, sp
	str	x0, [sp, 24]
	str	x1, [sp, 16]
	ldr	x0, [sp, 24]
	ldr	x1, [sp, 16]
	bl	_ZN5boost6tuples5tupleINS_6lambda14lambda_functorINS2_11placeholderILi1EEEEEKiNS0_9null_typeES8_S8_S8_S8_S8_S8_S8_EC1ERKS9_
	nop
	ldp	x29, x30, [sp], 32
	.cfi_restore 30
	.cfi_restore 29
	.cfi_def_cfa_offset 0
	ret
	.cfi_endproc
.LFE6102:
	.size	_ZN5boost6lambda19lambda_functor_baseINS0_17arithmetic_actionINS0_15multiply_actionEEENS_6tuples5tupleINS0_14lambda_functorINS0_11placeholderILi1EEEEEKiNS5_9null_typeESC_SC_SC_SC_SC_SC_SC_EEEC2ERKSD_, .-_ZN5boost6lambda19lambda_functor_baseINS0_17arithmetic_actionINS0_15multiply_actionEEENS_6tuples5tupleINS0_14lambda_functorINS0_11placeholderILi1EEEEEKiNS5_9null_typeESC_SC_SC_SC_SC_SC_SC_EEEC2ERKSD_
	.weak	_ZN5boost6lambda19lambda_functor_baseINS0_17arithmetic_actionINS0_15multiply_actionEEENS_6tuples5tupleINS0_14lambda_functorINS0_11placeholderILi1EEEEEKiNS5_9null_typeESC_SC_SC_SC_SC_SC_SC_EEEC1ERKSD_
	.set	_ZN5boost6lambda19lambda_functor_baseINS0_17arithmetic_actionINS0_15multiply_actionEEENS_6tuples5tupleINS0_14lambda_functorINS0_11placeholderILi1EEEEEKiNS5_9null_typeESC_SC_SC_SC_SC_SC_SC_EEEC1ERKSD_,_ZN5boost6lambda19lambda_functor_baseINS0_17arithmetic_actionINS0_15multiply_actionEEENS_6tuples5tupleINS0_14lambda_functorINS0_11placeholderILi1EEEEEKiNS5_9null_typeESC_SC_SC_SC_SC_SC_SC_EEEC2ERKSD_
	.section	.text._ZN5boost6lambda19lambda_functor_baseINS0_17arithmetic_actionINS0_15multiply_actionEEENS_6tuples5tupleINS0_14lambda_functorINS0_11placeholderILi1EEEEEKiNS5_9null_typeESC_SC_SC_SC_SC_SC_SC_EEEC2ERKSE_,"axG",@progbits,_ZN5boost6lambda19lambda_functor_baseINS0_17arithmetic_actionINS0_15multiply_actionEEENS_6tuples5tupleINS0_14lambda_functorINS0_11placeholderILi1EEEEEKiNS5_9null_typeESC_SC_SC_SC_SC_SC_SC_EEEC5ERKSE_,comdat
	.align	2
	.weak	_ZN5boost6lambda19lambda_functor_baseINS0_17arithmetic_actionINS0_15multiply_actionEEENS_6tuples5tupleINS0_14lambda_functorINS0_11placeholderILi1EEEEEKiNS5_9null_typeESC_SC_SC_SC_SC_SC_SC_EEEC2ERKSE_
	.type	_ZN5boost6lambda19lambda_functor_baseINS0_17arithmetic_actionINS0_15multiply_actionEEENS_6tuples5tupleINS0_14lambda_functorINS0_11placeholderILi1EEEEEKiNS5_9null_typeESC_SC_SC_SC_SC_SC_SC_EEEC2ERKSE_, %function
_ZN5boost6lambda19lambda_functor_baseINS0_17arithmetic_actionINS0_15multiply_actionEEENS_6tuples5tupleINS0_14lambda_functorINS0_11placeholderILi1EEEEEKiNS5_9null_typeESC_SC_SC_SC_SC_SC_SC_EEEC2ERKSE_:
.LFB6106:
	.cfi_startproc
	stp	x29, x30, [sp, -32]!
	.cfi_def_cfa_offset 32
	.cfi_offset 29, -32
	.cfi_offset 30, -24
	mov	x29, sp
	str	x0, [sp, 24]
	str	x1, [sp, 16]
	ldr	x0, [sp, 24]
	ldr	x1, [sp, 16]
	bl	_ZN5boost6tuples5tupleINS_6lambda14lambda_functorINS2_11placeholderILi1EEEEEKiNS0_9null_typeES8_S8_S8_S8_S8_S8_S8_EC1ERKS9_
	nop
	ldp	x29, x30, [sp], 32
	.cfi_restore 30
	.cfi_restore 29
	.cfi_def_cfa_offset 0
	ret
	.cfi_endproc
.LFE6106:
	.size	_ZN5boost6lambda19lambda_functor_baseINS0_17arithmetic_actionINS0_15multiply_actionEEENS_6tuples5tupleINS0_14lambda_functorINS0_11placeholderILi1EEEEEKiNS5_9null_typeESC_SC_SC_SC_SC_SC_SC_EEEC2ERKSE_, .-_ZN5boost6lambda19lambda_functor_baseINS0_17arithmetic_actionINS0_15multiply_actionEEENS_6tuples5tupleINS0_14lambda_functorINS0_11placeholderILi1EEEEEKiNS5_9null_typeESC_SC_SC_SC_SC_SC_SC_EEEC2ERKSE_
	.weak	_ZN5boost6lambda19lambda_functor_baseINS0_17arithmetic_actionINS0_15multiply_actionEEENS_6tuples5tupleINS0_14lambda_functorINS0_11placeholderILi1EEEEEKiNS5_9null_typeESC_SC_SC_SC_SC_SC_SC_EEEC1ERKSE_
	.set	_ZN5boost6lambda19lambda_functor_baseINS0_17arithmetic_actionINS0_15multiply_actionEEENS_6tuples5tupleINS0_14lambda_functorINS0_11placeholderILi1EEEEEKiNS5_9null_typeESC_SC_SC_SC_SC_SC_SC_EEEC1ERKSE_,_ZN5boost6lambda19lambda_functor_baseINS0_17arithmetic_actionINS0_15multiply_actionEEENS_6tuples5tupleINS0_14lambda_functorINS0_11placeholderILi1EEEEEKiNS5_9null_typeESC_SC_SC_SC_SC_SC_SC_EEEC2ERKSE_
	.section	.text._ZN5boost6lambda14lambda_functorINS0_19lambda_functor_baseINS0_17arithmetic_actionINS0_15multiply_actionEEENS_6tuples5tupleINS1_INS0_11placeholderILi1EEEEEKiNS6_9null_typeESC_SC_SC_SC_SC_SC_SC_EEEEEC2ERKSE_,"axG",@progbits,_ZN5boost6lambda14lambda_functorINS0_19lambda_functor_baseINS0_17arithmetic_actionINS0_15multiply_actionEEENS_6tuples5tupleINS1_INS0_11placeholderILi1EEEEEKiNS6_9null_typeESC_SC_SC_SC_SC_SC_SC_EEEEEC5ERKSE_,comdat
	.align	2
	.weak	_ZN5boost6lambda14lambda_functorINS0_19lambda_functor_baseINS0_17arithmetic_actionINS0_15multiply_actionEEENS_6tuples5tupleINS1_INS0_11placeholderILi1EEEEEKiNS6_9null_typeESC_SC_SC_SC_SC_SC_SC_EEEEEC2ERKSE_
	.type	_ZN5boost6lambda14lambda_functorINS0_19lambda_functor_baseINS0_17arithmetic_actionINS0_15multiply_actionEEENS_6tuples5tupleINS1_INS0_11placeholderILi1EEEEEKiNS6_9null_typeESC_SC_SC_SC_SC_SC_SC_EEEEEC2ERKSE_, %function
_ZN5boost6lambda14lambda_functorINS0_19lambda_functor_baseINS0_17arithmetic_actionINS0_15multiply_actionEEENS_6tuples5tupleINS1_INS0_11placeholderILi1EEEEEKiNS6_9null_typeESC_SC_SC_SC_SC_SC_SC_EEEEEC2ERKSE_:
.LFB6108:
	.cfi_startproc
	stp	x29, x30, [sp, -32]!
	.cfi_def_cfa_offset 32
	.cfi_offset 29, -32
	.cfi_offset 30, -24
	mov	x29, sp
	str	x0, [sp, 24]
	str	x1, [sp, 16]
	ldr	x0, [sp, 24]
	ldr	x1, [sp, 16]
	bl	_ZN5boost6lambda19lambda_functor_baseINS0_17arithmetic_actionINS0_15multiply_actionEEENS_6tuples5tupleINS0_14lambda_functorINS0_11placeholderILi1EEEEEKiNS5_9null_typeESC_SC_SC_SC_SC_SC_SC_EEEC2ERKSE_
	nop
	ldp	x29, x30, [sp], 32
	.cfi_restore 30
	.cfi_restore 29
	.cfi_def_cfa_offset 0
	ret
	.cfi_endproc
.LFE6108:
	.size	_ZN5boost6lambda14lambda_functorINS0_19lambda_functor_baseINS0_17arithmetic_actionINS0_15multiply_actionEEENS_6tuples5tupleINS1_INS0_11placeholderILi1EEEEEKiNS6_9null_typeESC_SC_SC_SC_SC_SC_SC_EEEEEC2ERKSE_, .-_ZN5boost6lambda14lambda_functorINS0_19lambda_functor_baseINS0_17arithmetic_actionINS0_15multiply_actionEEENS_6tuples5tupleINS1_INS0_11placeholderILi1EEEEEKiNS6_9null_typeESC_SC_SC_SC_SC_SC_SC_EEEEEC2ERKSE_
	.weak	_ZN5boost6lambda14lambda_functorINS0_19lambda_functor_baseINS0_17arithmetic_actionINS0_15multiply_actionEEENS_6tuples5tupleINS1_INS0_11placeholderILi1EEEEEKiNS6_9null_typeESC_SC_SC_SC_SC_SC_SC_EEEEEC1ERKSE_
	.set	_ZN5boost6lambda14lambda_functorINS0_19lambda_functor_baseINS0_17arithmetic_actionINS0_15multiply_actionEEENS_6tuples5tupleINS1_INS0_11placeholderILi1EEEEEKiNS6_9null_typeESC_SC_SC_SC_SC_SC_SC_EEEEEC1ERKSE_,_ZN5boost6lambda14lambda_functorINS0_19lambda_functor_baseINS0_17arithmetic_actionINS0_15multiply_actionEEENS_6tuples5tupleINS1_INS0_11placeholderILi1EEEEEKiNS6_9null_typeESC_SC_SC_SC_SC_SC_SC_EEEEEC2ERKSE_
	.section	.text._ZN5boost6tuples5tupleIRSoNS_6lambda14lambda_functorINS3_19lambda_functor_baseINS3_17arithmetic_actionINS3_15multiply_actionEEENS1_INS4_INS3_11placeholderILi1EEEEEKiNS0_9null_typeESD_SD_SD_SD_SD_SD_SD_EEEEEESD_SD_SD_SD_SD_SD_SD_SD_EC2ES2_RKSG_,"axG",@progbits,_ZN5boost6tuples5tupleIRSoNS_6lambda14lambda_functorINS3_19lambda_functor_baseINS3_17arithmetic_actionINS3_15multiply_actionEEENS1_INS4_INS3_11placeholderILi1EEEEEKiNS0_9null_typeESD_SD_SD_SD_SD_SD_SD_EEEEEESD_SD_SD_SD_SD_SD_SD_SD_EC5ES2_RKSG_,comdat
	.align	2
	.weak	_ZN5boost6tuples5tupleIRSoNS_6lambda14lambda_functorINS3_19lambda_functor_baseINS3_17arithmetic_actionINS3_15multiply_actionEEENS1_INS4_INS3_11placeholderILi1EEEEEKiNS0_9null_typeESD_SD_SD_SD_SD_SD_SD_EEEEEESD_SD_SD_SD_SD_SD_SD_SD_EC2ES2_RKSG_
	.type	_ZN5boost6tuples5tupleIRSoNS_6lambda14lambda_functorINS3_19lambda_functor_baseINS3_17arithmetic_actionINS3_15multiply_actionEEENS1_INS4_INS3_11placeholderILi1EEEEEKiNS0_9null_typeESD_SD_SD_SD_SD_SD_SD_EEEEEESD_SD_SD_SD_SD_SD_SD_SD_EC2ES2_RKSG_, %function
_ZN5boost6tuples5tupleIRSoNS_6lambda14lambda_functorINS3_19lambda_functor_baseINS3_17arithmetic_actionINS3_15multiply_actionEEENS1_INS4_INS3_11placeholderILi1EEEEEKiNS0_9null_typeESD_SD_SD_SD_SD_SD_SD_EEEEEESD_SD_SD_SD_SD_SD_SD_SD_EC2ES2_RKSG_:
.LFB6111:
	.cfi_startproc
	sub	sp, sp, #176
	.cfi_def_cfa_offset 176
	stp	x29, x30, [sp, 32]
	.cfi_offset 29, -144
	.cfi_offset 30, -136
	add	x29, sp, 32
	str	x19, [sp, 48]
	.cfi_offset 19, -128
	str	x0, [sp, 88]
	str	x1, [sp, 80]
	str	x2, [sp, 72]
	adrp	x0, :got:__stack_chk_guard
	ldr	x0, [x0, #:got_lo12:__stack_chk_guard]
	ldr	x1, [x0]
	str	x1, [sp, 168]
	mov	x1, 0
	ldr	x19, [sp, 88]
	bl	_ZN5boost6tuples6detail5cnullEv
	bl	_ZN5boost6tuples6detail5cnullEv
	bl	_ZN5boost6tuples6detail5cnullEv
	bl	_ZN5boost6tuples6detail5cnullEv
	bl	_ZN5boost6tuples6detail5cnullEv
	bl	_ZN5boost6tuples6detail5cnullEv
	bl	_ZN5boost6tuples6detail5cnullEv
	bl	_ZN5boost6tuples6detail5cnullEv
	add	x5, sp, 136
	add	x4, sp, 128
	add	x3, sp, 120
	add	x2, sp, 112
	add	x1, sp, 104
	add	x0, sp, 160
	str	x0, [sp, 16]
	add	x0, sp, 152
	str	x0, [sp, 8]
	add	x0, sp, 144
	str	x0, [sp]
	mov	x7, x5
	mov	x6, x4
	mov	x5, x3
	mov	x4, x2
	mov	x3, x1
	ldr	x2, [sp, 72]
	ldr	x1, [sp, 80]
	mov	x0, x19
	bl	_ZN5boost6tuples4consIRSoNS1_INS_6lambda14lambda_functorINS3_19lambda_functor_baseINS3_17arithmetic_actionINS3_15multiply_actionEEENS0_5tupleINS4_INS3_11placeholderILi1EEEEEKiNS0_9null_typeESE_SE_SE_SE_SE_SE_SE_EEEEEESE_EEEC2ISoKSH_KSE_SM_SM_SM_SM_SM_SM_SM_EERT_RT0_RT1_RT2_RT3_RT4_RT5_RT6_RT7_RT8_
	nop
	adrp	x0, :got:__stack_chk_guard
	ldr	x0, [x0, #:got_lo12:__stack_chk_guard]
	ldr	x2, [sp, 168]
	ldr	x1, [x0]
	subs	x2, x2, x1
	mov	x1, 0
	beq	.L67
	bl	__stack_chk_fail
.L67:
	ldr	x19, [sp, 48]
	ldp	x29, x30, [sp, 32]
	add	sp, sp, 176
	.cfi_restore 29
	.cfi_restore 30
	.cfi_restore 19
	.cfi_def_cfa_offset 0
	ret
	.cfi_endproc
.LFE6111:
	.size	_ZN5boost6tuples5tupleIRSoNS_6lambda14lambda_functorINS3_19lambda_functor_baseINS3_17arithmetic_actionINS3_15multiply_actionEEENS1_INS4_INS3_11placeholderILi1EEEEEKiNS0_9null_typeESD_SD_SD_SD_SD_SD_SD_EEEEEESD_SD_SD_SD_SD_SD_SD_SD_EC2ES2_RKSG_, .-_ZN5boost6tuples5tupleIRSoNS_6lambda14lambda_functorINS3_19lambda_functor_baseINS3_17arithmetic_actionINS3_15multiply_actionEEENS1_INS4_INS3_11placeholderILi1EEEEEKiNS0_9null_typeESD_SD_SD_SD_SD_SD_SD_EEEEEESD_SD_SD_SD_SD_SD_SD_SD_EC2ES2_RKSG_
	.weak	_ZN5boost6tuples5tupleIRSoNS_6lambda14lambda_functorINS3_19lambda_functor_baseINS3_17arithmetic_actionINS3_15multiply_actionEEENS1_INS4_INS3_11placeholderILi1EEEEEKiNS0_9null_typeESD_SD_SD_SD_SD_SD_SD_EEEEEESD_SD_SD_SD_SD_SD_SD_SD_EC1ES2_RKSG_
	.set	_ZN5boost6tuples5tupleIRSoNS_6lambda14lambda_functorINS3_19lambda_functor_baseINS3_17arithmetic_actionINS3_15multiply_actionEEENS1_INS4_INS3_11placeholderILi1EEEEEKiNS0_9null_typeESD_SD_SD_SD_SD_SD_SD_EEEEEESD_SD_SD_SD_SD_SD_SD_SD_EC1ES2_RKSG_,_ZN5boost6tuples5tupleIRSoNS_6lambda14lambda_functorINS3_19lambda_functor_baseINS3_17arithmetic_actionINS3_15multiply_actionEEENS1_INS4_INS3_11placeholderILi1EEEEEKiNS0_9null_typeESD_SD_SD_SD_SD_SD_SD_EEEEEESD_SD_SD_SD_SD_SD_SD_SD_EC2ES2_RKSG_
	.section	.text._ZN5boost6tuples5tupleIRSoNS_6lambda14lambda_functorINS3_19lambda_functor_baseINS3_17arithmetic_actionINS3_15multiply_actionEEENS1_INS4_INS3_11placeholderILi1EEEEEKiNS0_9null_typeESD_SD_SD_SD_SD_SD_SD_EEEEEESD_SD_SD_SD_SD_SD_SD_SD_EC2ERKSH_,"axG",@progbits,_ZN5boost6tuples5tupleIRSoNS_6lambda14lambda_functorINS3_19lambda_functor_baseINS3_17arithmetic_actionINS3_15multiply_actionEEENS1_INS4_INS3_11placeholderILi1EEEEEKiNS0_9null_typeESD_SD_SD_SD_SD_SD_SD_EEEEEESD_SD_SD_SD_SD_SD_SD_SD_EC5ERKSH_,comdat
	.align	2
	.weak	_ZN5boost6tuples5tupleIRSoNS_6lambda14lambda_functorINS3_19lambda_functor_baseINS3_17arithmetic_actionINS3_15multiply_actionEEENS1_INS4_INS3_11placeholderILi1EEEEEKiNS0_9null_typeESD_SD_SD_SD_SD_SD_SD_EEEEEESD_SD_SD_SD_SD_SD_SD_SD_EC2ERKSH_
	.type	_ZN5boost6tuples5tupleIRSoNS_6lambda14lambda_functorINS3_19lambda_functor_baseINS3_17arithmetic_actionINS3_15multiply_actionEEENS1_INS4_INS3_11placeholderILi1EEEEEKiNS0_9null_typeESD_SD_SD_SD_SD_SD_SD_EEEEEESD_SD_SD_SD_SD_SD_SD_SD_EC2ERKSH_, %function
_ZN5boost6tuples5tupleIRSoNS_6lambda14lambda_functorINS3_19lambda_functor_baseINS3_17arithmetic_actionINS3_15multiply_actionEEENS1_INS4_INS3_11placeholderILi1EEEEEKiNS0_9null_typeESD_SD_SD_SD_SD_SD_SD_EEEEEESD_SD_SD_SD_SD_SD_SD_SD_EC2ERKSH_:
.LFB6115:
	.cfi_startproc
	stp	x29, x30, [sp, -32]!
	.cfi_def_cfa_offset 32
	.cfi_offset 29, -32
	.cfi_offset 30, -24
	mov	x29, sp
	str	x0, [sp, 24]
	str	x1, [sp, 16]
	ldr	x0, [sp, 24]
	ldr	x1, [sp, 16]
	bl	_ZN5boost6tuples4consIRSoNS1_INS_6lambda14lambda_functorINS3_19lambda_functor_baseINS3_17arithmetic_actionINS3_15multiply_actionEEENS0_5tupleINS4_INS3_11placeholderILi1EEEEEKiNS0_9null_typeESE_SE_SE_SE_SE_SE_SE_EEEEEESE_EEEC2ERKSJ_
	nop
	ldp	x29, x30, [sp], 32
	.cfi_restore 30
	.cfi_restore 29
	.cfi_def_cfa_offset 0
	ret
	.cfi_endproc
.LFE6115:
	.size	_ZN5boost6tuples5tupleIRSoNS_6lambda14lambda_functorINS3_19lambda_functor_baseINS3_17arithmetic_actionINS3_15multiply_actionEEENS1_INS4_INS3_11placeholderILi1EEEEEKiNS0_9null_typeESD_SD_SD_SD_SD_SD_SD_EEEEEESD_SD_SD_SD_SD_SD_SD_SD_EC2ERKSH_, .-_ZN5boost6tuples5tupleIRSoNS_6lambda14lambda_functorINS3_19lambda_functor_baseINS3_17arithmetic_actionINS3_15multiply_actionEEENS1_INS4_INS3_11placeholderILi1EEEEEKiNS0_9null_typeESD_SD_SD_SD_SD_SD_SD_EEEEEESD_SD_SD_SD_SD_SD_SD_SD_EC2ERKSH_
	.weak	_ZN5boost6tuples5tupleIRSoNS_6lambda14lambda_functorINS3_19lambda_functor_baseINS3_17arithmetic_actionINS3_15multiply_actionEEENS1_INS4_INS3_11placeholderILi1EEEEEKiNS0_9null_typeESD_SD_SD_SD_SD_SD_SD_EEEEEESD_SD_SD_SD_SD_SD_SD_SD_EC1ERKSH_
	.set	_ZN5boost6tuples5tupleIRSoNS_6lambda14lambda_functorINS3_19lambda_functor_baseINS3_17arithmetic_actionINS3_15multiply_actionEEENS1_INS4_INS3_11placeholderILi1EEEEEKiNS0_9null_typeESD_SD_SD_SD_SD_SD_SD_EEEEEESD_SD_SD_SD_SD_SD_SD_SD_EC1ERKSH_,_ZN5boost6tuples5tupleIRSoNS_6lambda14lambda_functorINS3_19lambda_functor_baseINS3_17arithmetic_actionINS3_15multiply_actionEEENS1_INS4_INS3_11placeholderILi1EEEEEKiNS0_9null_typeESD_SD_SD_SD_SD_SD_SD_EEEEEESD_SD_SD_SD_SD_SD_SD_SD_EC2ERKSH_
	.section	.text._ZN5boost6lambda19lambda_functor_baseINS0_14bitwise_actionINS0_16leftshift_actionEEENS_6tuples5tupleIRSoNS0_14lambda_functorINS1_INS0_17arithmetic_actionINS0_15multiply_actionEEENS6_INS8_INS0_11placeholderILi1EEEEEKiNS5_9null_typeESG_SG_SG_SG_SG_SG_SG_EEEEEESG_SG_SG_SG_SG_SG_SG_SG_EEEC2ERKSK_,"axG",@progbits,_ZN5boost6lambda19lambda_functor_baseINS0_14bitwise_actionINS0_16leftshift_actionEEENS_6tuples5tupleIRSoNS0_14lambda_functorINS1_INS0_17arithmetic_actionINS0_15multiply_actionEEENS6_INS8_INS0_11placeholderILi1EEEEEKiNS5_9null_typeESG_SG_SG_SG_SG_SG_SG_EEEEEESG_SG_SG_SG_SG_SG_SG_SG_EEEC5ERKSK_,comdat
	.align	2
	.weak	_ZN5boost6lambda19lambda_functor_baseINS0_14bitwise_actionINS0_16leftshift_actionEEENS_6tuples5tupleIRSoNS0_14lambda_functorINS1_INS0_17arithmetic_actionINS0_15multiply_actionEEENS6_INS8_INS0_11placeholderILi1EEEEEKiNS5_9null_typeESG_SG_SG_SG_SG_SG_SG_EEEEEESG_SG_SG_SG_SG_SG_SG_SG_EEEC2ERKSK_
	.type	_ZN5boost6lambda19lambda_functor_baseINS0_14bitwise_actionINS0_16leftshift_actionEEENS_6tuples5tupleIRSoNS0_14lambda_functorINS1_INS0_17arithmetic_actionINS0_15multiply_actionEEENS6_INS8_INS0_11placeholderILi1EEEEEKiNS5_9null_typeESG_SG_SG_SG_SG_SG_SG_EEEEEESG_SG_SG_SG_SG_SG_SG_SG_EEEC2ERKSK_, %function
_ZN5boost6lambda19lambda_functor_baseINS0_14bitwise_actionINS0_16leftshift_actionEEENS_6tuples5tupleIRSoNS0_14lambda_functorINS1_INS0_17arithmetic_actionINS0_15multiply_actionEEENS6_INS8_INS0_11placeholderILi1EEEEEKiNS5_9null_typeESG_SG_SG_SG_SG_SG_SG_EEEEEESG_SG_SG_SG_SG_SG_SG_SG_EEEC2ERKSK_:
.LFB6117:
	.cfi_startproc
	stp	x29, x30, [sp, -32]!
	.cfi_def_cfa_offset 32
	.cfi_offset 29, -32
	.cfi_offset 30, -24
	mov	x29, sp
	str	x0, [sp, 24]
	str	x1, [sp, 16]
	ldr	x0, [sp, 24]
	ldr	x1, [sp, 16]
	bl	_ZN5boost6tuples5tupleIRSoNS_6lambda14lambda_functorINS3_19lambda_functor_baseINS3_17arithmetic_actionINS3_15multiply_actionEEENS1_INS4_INS3_11placeholderILi1EEEEEKiNS0_9null_typeESD_SD_SD_SD_SD_SD_SD_EEEEEESD_SD_SD_SD_SD_SD_SD_SD_EC1ERKSH_
	nop
	ldp	x29, x30, [sp], 32
	.cfi_restore 30
	.cfi_restore 29
	.cfi_def_cfa_offset 0
	ret
	.cfi_endproc
.LFE6117:
	.size	_ZN5boost6lambda19lambda_functor_baseINS0_14bitwise_actionINS0_16leftshift_actionEEENS_6tuples5tupleIRSoNS0_14lambda_functorINS1_INS0_17arithmetic_actionINS0_15multiply_actionEEENS6_INS8_INS0_11placeholderILi1EEEEEKiNS5_9null_typeESG_SG_SG_SG_SG_SG_SG_EEEEEESG_SG_SG_SG_SG_SG_SG_SG_EEEC2ERKSK_, .-_ZN5boost6lambda19lambda_functor_baseINS0_14bitwise_actionINS0_16leftshift_actionEEENS_6tuples5tupleIRSoNS0_14lambda_functorINS1_INS0_17arithmetic_actionINS0_15multiply_actionEEENS6_INS8_INS0_11placeholderILi1EEEEEKiNS5_9null_typeESG_SG_SG_SG_SG_SG_SG_EEEEEESG_SG_SG_SG_SG_SG_SG_SG_EEEC2ERKSK_
	.weak	_ZN5boost6lambda19lambda_functor_baseINS0_14bitwise_actionINS0_16leftshift_actionEEENS_6tuples5tupleIRSoNS0_14lambda_functorINS1_INS0_17arithmetic_actionINS0_15multiply_actionEEENS6_INS8_INS0_11placeholderILi1EEEEEKiNS5_9null_typeESG_SG_SG_SG_SG_SG_SG_EEEEEESG_SG_SG_SG_SG_SG_SG_SG_EEEC1ERKSK_
	.set	_ZN5boost6lambda19lambda_functor_baseINS0_14bitwise_actionINS0_16leftshift_actionEEENS_6tuples5tupleIRSoNS0_14lambda_functorINS1_INS0_17arithmetic_actionINS0_15multiply_actionEEENS6_INS8_INS0_11placeholderILi1EEEEEKiNS5_9null_typeESG_SG_SG_SG_SG_SG_SG_EEEEEESG_SG_SG_SG_SG_SG_SG_SG_EEEC1ERKSK_,_ZN5boost6lambda19lambda_functor_baseINS0_14bitwise_actionINS0_16leftshift_actionEEENS_6tuples5tupleIRSoNS0_14lambda_functorINS1_INS0_17arithmetic_actionINS0_15multiply_actionEEENS6_INS8_INS0_11placeholderILi1EEEEEKiNS5_9null_typeESG_SG_SG_SG_SG_SG_SG_EEEEEESG_SG_SG_SG_SG_SG_SG_SG_EEEC2ERKSK_
	.section	.text._ZN5boost6lambda19lambda_functor_baseINS0_14bitwise_actionINS0_16leftshift_actionEEENS_6tuples5tupleIRSoNS0_14lambda_functorINS1_INS0_17arithmetic_actionINS0_15multiply_actionEEENS6_INS8_INS0_11placeholderILi1EEEEEKiNS5_9null_typeESG_SG_SG_SG_SG_SG_SG_EEEEEESG_SG_SG_SG_SG_SG_SG_SG_EEEC2ERKSL_,"axG",@progbits,_ZN5boost6lambda19lambda_functor_baseINS0_14bitwise_actionINS0_16leftshift_actionEEENS_6tuples5tupleIRSoNS0_14lambda_functorINS1_INS0_17arithmetic_actionINS0_15multiply_actionEEENS6_INS8_INS0_11placeholderILi1EEEEEKiNS5_9null_typeESG_SG_SG_SG_SG_SG_SG_EEEEEESG_SG_SG_SG_SG_SG_SG_SG_EEEC5ERKSL_,comdat
	.align	2
	.weak	_ZN5boost6lambda19lambda_functor_baseINS0_14bitwise_actionINS0_16leftshift_actionEEENS_6tuples5tupleIRSoNS0_14lambda_functorINS1_INS0_17arithmetic_actionINS0_15multiply_actionEEENS6_INS8_INS0_11placeholderILi1EEEEEKiNS5_9null_typeESG_SG_SG_SG_SG_SG_SG_EEEEEESG_SG_SG_SG_SG_SG_SG_SG_EEEC2ERKSL_
	.type	_ZN5boost6lambda19lambda_functor_baseINS0_14bitwise_actionINS0_16leftshift_actionEEENS_6tuples5tupleIRSoNS0_14lambda_functorINS1_INS0_17arithmetic_actionINS0_15multiply_actionEEENS6_INS8_INS0_11placeholderILi1EEEEEKiNS5_9null_typeESG_SG_SG_SG_SG_SG_SG_EEEEEESG_SG_SG_SG_SG_SG_SG_SG_EEEC2ERKSL_, %function
_ZN5boost6lambda19lambda_functor_baseINS0_14bitwise_actionINS0_16leftshift_actionEEENS_6tuples5tupleIRSoNS0_14lambda_functorINS1_INS0_17arithmetic_actionINS0_15multiply_actionEEENS6_INS8_INS0_11placeholderILi1EEEEEKiNS5_9null_typeESG_SG_SG_SG_SG_SG_SG_EEEEEESG_SG_SG_SG_SG_SG_SG_SG_EEEC2ERKSL_:
.LFB6121:
	.cfi_startproc
	stp	x29, x30, [sp, -32]!
	.cfi_def_cfa_offset 32
	.cfi_offset 29, -32
	.cfi_offset 30, -24
	mov	x29, sp
	str	x0, [sp, 24]
	str	x1, [sp, 16]
	ldr	x0, [sp, 24]
	ldr	x1, [sp, 16]
	bl	_ZN5boost6tuples5tupleIRSoNS_6lambda14lambda_functorINS3_19lambda_functor_baseINS3_17arithmetic_actionINS3_15multiply_actionEEENS1_INS4_INS3_11placeholderILi1EEEEEKiNS0_9null_typeESD_SD_SD_SD_SD_SD_SD_EEEEEESD_SD_SD_SD_SD_SD_SD_SD_EC1ERKSH_
	nop
	ldp	x29, x30, [sp], 32
	.cfi_restore 30
	.cfi_restore 29
	.cfi_def_cfa_offset 0
	ret
	.cfi_endproc
.LFE6121:
	.size	_ZN5boost6lambda19lambda_functor_baseINS0_14bitwise_actionINS0_16leftshift_actionEEENS_6tuples5tupleIRSoNS0_14lambda_functorINS1_INS0_17arithmetic_actionINS0_15multiply_actionEEENS6_INS8_INS0_11placeholderILi1EEEEEKiNS5_9null_typeESG_SG_SG_SG_SG_SG_SG_EEEEEESG_SG_SG_SG_SG_SG_SG_SG_EEEC2ERKSL_, .-_ZN5boost6lambda19lambda_functor_baseINS0_14bitwise_actionINS0_16leftshift_actionEEENS_6tuples5tupleIRSoNS0_14lambda_functorINS1_INS0_17arithmetic_actionINS0_15multiply_actionEEENS6_INS8_INS0_11placeholderILi1EEEEEKiNS5_9null_typeESG_SG_SG_SG_SG_SG_SG_EEEEEESG_SG_SG_SG_SG_SG_SG_SG_EEEC2ERKSL_
	.weak	_ZN5boost6lambda19lambda_functor_baseINS0_14bitwise_actionINS0_16leftshift_actionEEENS_6tuples5tupleIRSoNS0_14lambda_functorINS1_INS0_17arithmetic_actionINS0_15multiply_actionEEENS6_INS8_INS0_11placeholderILi1EEEEEKiNS5_9null_typeESG_SG_SG_SG_SG_SG_SG_EEEEEESG_SG_SG_SG_SG_SG_SG_SG_EEEC1ERKSL_
	.set	_ZN5boost6lambda19lambda_functor_baseINS0_14bitwise_actionINS0_16leftshift_actionEEENS_6tuples5tupleIRSoNS0_14lambda_functorINS1_INS0_17arithmetic_actionINS0_15multiply_actionEEENS6_INS8_INS0_11placeholderILi1EEEEEKiNS5_9null_typeESG_SG_SG_SG_SG_SG_SG_EEEEEESG_SG_SG_SG_SG_SG_SG_SG_EEEC1ERKSL_,_ZN5boost6lambda19lambda_functor_baseINS0_14bitwise_actionINS0_16leftshift_actionEEENS_6tuples5tupleIRSoNS0_14lambda_functorINS1_INS0_17arithmetic_actionINS0_15multiply_actionEEENS6_INS8_INS0_11placeholderILi1EEEEEKiNS5_9null_typeESG_SG_SG_SG_SG_SG_SG_EEEEEESG_SG_SG_SG_SG_SG_SG_SG_EEEC2ERKSL_
	.section	.text._ZN5boost6lambda14lambda_functorINS0_19lambda_functor_baseINS0_14bitwise_actionINS0_16leftshift_actionEEENS_6tuples5tupleIRSoNS1_INS2_INS0_17arithmetic_actionINS0_15multiply_actionEEENS7_INS1_INS0_11placeholderILi1EEEEEKiNS6_9null_typeESG_SG_SG_SG_SG_SG_SG_EEEEEESG_SG_SG_SG_SG_SG_SG_SG_EEEEEC2ERKSL_,"axG",@progbits,_ZN5boost6lambda14lambda_functorINS0_19lambda_functor_baseINS0_14bitwise_actionINS0_16leftshift_actionEEENS_6tuples5tupleIRSoNS1_INS2_INS0_17arithmetic_actionINS0_15multiply_actionEEENS7_INS1_INS0_11placeholderILi1EEEEEKiNS6_9null_typeESG_SG_SG_SG_SG_SG_SG_EEEEEESG_SG_SG_SG_SG_SG_SG_SG_EEEEEC5ERKSL_,comdat
	.align	2
	.weak	_ZN5boost6lambda14lambda_functorINS0_19lambda_functor_baseINS0_14bitwise_actionINS0_16leftshift_actionEEENS_6tuples5tupleIRSoNS1_INS2_INS0_17arithmetic_actionINS0_15multiply_actionEEENS7_INS1_INS0_11placeholderILi1EEEEEKiNS6_9null_typeESG_SG_SG_SG_SG_SG_SG_EEEEEESG_SG_SG_SG_SG_SG_SG_SG_EEEEEC2ERKSL_
	.type	_ZN5boost6lambda14lambda_functorINS0_19lambda_functor_baseINS0_14bitwise_actionINS0_16leftshift_actionEEENS_6tuples5tupleIRSoNS1_INS2_INS0_17arithmetic_actionINS0_15multiply_actionEEENS7_INS1_INS0_11placeholderILi1EEEEEKiNS6_9null_typeESG_SG_SG_SG_SG_SG_SG_EEEEEESG_SG_SG_SG_SG_SG_SG_SG_EEEEEC2ERKSL_, %function
_ZN5boost6lambda14lambda_functorINS0_19lambda_functor_baseINS0_14bitwise_actionINS0_16leftshift_actionEEENS_6tuples5tupleIRSoNS1_INS2_INS0_17arithmetic_actionINS0_15multiply_actionEEENS7_INS1_INS0_11placeholderILi1EEEEEKiNS6_9null_typeESG_SG_SG_SG_SG_SG_SG_EEEEEESG_SG_SG_SG_SG_SG_SG_SG_EEEEEC2ERKSL_:
.LFB6123:
	.cfi_startproc
	stp	x29, x30, [sp, -32]!
	.cfi_def_cfa_offset 32
	.cfi_offset 29, -32
	.cfi_offset 30, -24
	mov	x29, sp
	str	x0, [sp, 24]
	str	x1, [sp, 16]
	ldr	x0, [sp, 24]
	ldr	x1, [sp, 16]
	bl	_ZN5boost6lambda19lambda_functor_baseINS0_14bitwise_actionINS0_16leftshift_actionEEENS_6tuples5tupleIRSoNS0_14lambda_functorINS1_INS0_17arithmetic_actionINS0_15multiply_actionEEENS6_INS8_INS0_11placeholderILi1EEEEEKiNS5_9null_typeESG_SG_SG_SG_SG_SG_SG_EEEEEESG_SG_SG_SG_SG_SG_SG_SG_EEEC2ERKSL_
	nop
	ldp	x29, x30, [sp], 32
	.cfi_restore 30
	.cfi_restore 29
	.cfi_def_cfa_offset 0
	ret
	.cfi_endproc
.LFE6123:
	.size	_ZN5boost6lambda14lambda_functorINS0_19lambda_functor_baseINS0_14bitwise_actionINS0_16leftshift_actionEEENS_6tuples5tupleIRSoNS1_INS2_INS0_17arithmetic_actionINS0_15multiply_actionEEENS7_INS1_INS0_11placeholderILi1EEEEEKiNS6_9null_typeESG_SG_SG_SG_SG_SG_SG_EEEEEESG_SG_SG_SG_SG_SG_SG_SG_EEEEEC2ERKSL_, .-_ZN5boost6lambda14lambda_functorINS0_19lambda_functor_baseINS0_14bitwise_actionINS0_16leftshift_actionEEENS_6tuples5tupleIRSoNS1_INS2_INS0_17arithmetic_actionINS0_15multiply_actionEEENS7_INS1_INS0_11placeholderILi1EEEEEKiNS6_9null_typeESG_SG_SG_SG_SG_SG_SG_EEEEEESG_SG_SG_SG_SG_SG_SG_SG_EEEEEC2ERKSL_
	.weak	_ZN5boost6lambda14lambda_functorINS0_19lambda_functor_baseINS0_14bitwise_actionINS0_16leftshift_actionEEENS_6tuples5tupleIRSoNS1_INS2_INS0_17arithmetic_actionINS0_15multiply_actionEEENS7_INS1_INS0_11placeholderILi1EEEEEKiNS6_9null_typeESG_SG_SG_SG_SG_SG_SG_EEEEEESG_SG_SG_SG_SG_SG_SG_SG_EEEEEC1ERKSL_
	.set	_ZN5boost6lambda14lambda_functorINS0_19lambda_functor_baseINS0_14bitwise_actionINS0_16leftshift_actionEEENS_6tuples5tupleIRSoNS1_INS2_INS0_17arithmetic_actionINS0_15multiply_actionEEENS7_INS1_INS0_11placeholderILi1EEEEEKiNS6_9null_typeESG_SG_SG_SG_SG_SG_SG_EEEEEESG_SG_SG_SG_SG_SG_SG_SG_EEEEEC1ERKSL_,_ZN5boost6lambda14lambda_functorINS0_19lambda_functor_baseINS0_14bitwise_actionINS0_16leftshift_actionEEENS_6tuples5tupleIRSoNS1_INS2_INS0_17arithmetic_actionINS0_15multiply_actionEEENS7_INS1_INS0_11placeholderILi1EEEEEKiNS6_9null_typeESG_SG_SG_SG_SG_SG_SG_EEEEEESG_SG_SG_SG_SG_SG_SG_SG_EEEEEC2ERKSL_
	.section	.text._ZN5boost6tuples5tupleINS_6lambda14lambda_functorINS2_19lambda_functor_baseINS2_14bitwise_actionINS2_16leftshift_actionEEENS1_IRSoNS3_INS4_INS2_17arithmetic_actionINS2_15multiply_actionEEENS1_INS3_INS2_11placeholderILi1EEEEEKiNS0_9null_typeESG_SG_SG_SG_SG_SG_SG_EEEEEESG_SG_SG_SG_SG_SG_SG_SG_EEEEEERA2_KcSG_SG_SG_SG_SG_SG_SG_SG_EC2ERKSM_SP_,"axG",@progbits,_ZN5boost6tuples5tupleINS_6lambda14lambda_functorINS2_19lambda_functor_baseINS2_14bitwise_actionINS2_16leftshift_actionEEENS1_IRSoNS3_INS4_INS2_17arithmetic_actionINS2_15multiply_actionEEENS1_INS3_INS2_11placeholderILi1EEEEEKiNS0_9null_typeESG_SG_SG_SG_SG_SG_SG_EEEEEESG_SG_SG_SG_SG_SG_SG_SG_EEEEEERA2_KcSG_SG_SG_SG_SG_SG_SG_SG_EC5ERKSM_SP_,comdat
	.align	2
	.weak	_ZN5boost6tuples5tupleINS_6lambda14lambda_functorINS2_19lambda_functor_baseINS2_14bitwise_actionINS2_16leftshift_actionEEENS1_IRSoNS3_INS4_INS2_17arithmetic_actionINS2_15multiply_actionEEENS1_INS3_INS2_11placeholderILi1EEEEEKiNS0_9null_typeESG_SG_SG_SG_SG_SG_SG_EEEEEESG_SG_SG_SG_SG_SG_SG_SG_EEEEEERA2_KcSG_SG_SG_SG_SG_SG_SG_SG_EC2ERKSM_SP_
	.type	_ZN5boost6tuples5tupleINS_6lambda14lambda_functorINS2_19lambda_functor_baseINS2_14bitwise_actionINS2_16leftshift_actionEEENS1_IRSoNS3_INS4_INS2_17arithmetic_actionINS2_15multiply_actionEEENS1_INS3_INS2_11placeholderILi1EEEEEKiNS0_9null_typeESG_SG_SG_SG_SG_SG_SG_EEEEEESG_SG_SG_SG_SG_SG_SG_SG_EEEEEERA2_KcSG_SG_SG_SG_SG_SG_SG_SG_EC2ERKSM_SP_, %function
_ZN5boost6tuples5tupleINS_6lambda14lambda_functorINS2_19lambda_functor_baseINS2_14bitwise_actionINS2_16leftshift_actionEEENS1_IRSoNS3_INS4_INS2_17arithmetic_actionINS2_15multiply_actionEEENS1_INS3_INS2_11placeholderILi1EEEEEKiNS0_9null_typeESG_SG_SG_SG_SG_SG_SG_EEEEEESG_SG_SG_SG_SG_SG_SG_SG_EEEEEERA2_KcSG_SG_SG_SG_SG_SG_SG_SG_EC2ERKSM_SP_:
.LFB6126:
	.cfi_startproc
	sub	sp, sp, #176
	.cfi_def_cfa_offset 176
	stp	x29, x30, [sp, 32]
	.cfi_offset 29, -144
	.cfi_offset 30, -136
	add	x29, sp, 32
	str	x19, [sp, 48]
	.cfi_offset 19, -128
	str	x0, [sp, 88]
	str	x1, [sp, 80]
	str	x2, [sp, 72]
	adrp	x0, :got:__stack_chk_guard
	ldr	x0, [x0, #:got_lo12:__stack_chk_guard]
	ldr	x1, [x0]
	str	x1, [sp, 168]
	mov	x1, 0
	ldr	x19, [sp, 88]
	bl	_ZN5boost6tuples6detail5cnullEv
	bl	_ZN5boost6tuples6detail5cnullEv
	bl	_ZN5boost6tuples6detail5cnullEv
	bl	_ZN5boost6tuples6detail5cnullEv
	bl	_ZN5boost6tuples6detail5cnullEv
	bl	_ZN5boost6tuples6detail5cnullEv
	bl	_ZN5boost6tuples6detail5cnullEv
	bl	_ZN5boost6tuples6detail5cnullEv
	add	x5, sp, 136
	add	x4, sp, 128
	add	x3, sp, 120
	add	x2, sp, 112
	add	x1, sp, 104
	add	x0, sp, 160
	str	x0, [sp, 16]
	add	x0, sp, 152
	str	x0, [sp, 8]
	add	x0, sp, 144
	str	x0, [sp]
	mov	x7, x5
	mov	x6, x4
	mov	x5, x3
	mov	x4, x2
	mov	x3, x1
	ldr	x2, [sp, 72]
	ldr	x1, [sp, 80]
	mov	x0, x19
	bl	_ZN5boost6tuples4consINS_6lambda14lambda_functorINS2_19lambda_functor_baseINS2_14bitwise_actionINS2_16leftshift_actionEEENS0_5tupleIRSoNS3_INS4_INS2_17arithmetic_actionINS2_15multiply_actionEEENS8_INS3_INS2_11placeholderILi1EEEEEKiNS0_9null_typeESH_SH_SH_SH_SH_SH_SH_EEEEEESH_SH_SH_SH_SH_SH_SH_SH_EEEEEENS1_IRA2_KcSH_EEEC2IKSN_SP_KSH_SV_SV_SV_SV_SV_SV_SV_EERT_RT0_RT1_RT2_RT3_RT4_RT5_RT6_RT7_RT8_
	nop
	adrp	x0, :got:__stack_chk_guard
	ldr	x0, [x0, #:got_lo12:__stack_chk_guard]
	ldr	x2, [sp, 168]
	ldr	x1, [x0]
	subs	x2, x2, x1
	mov	x1, 0
	beq	.L73
	bl	__stack_chk_fail
.L73:
	ldr	x19, [sp, 48]
	ldp	x29, x30, [sp, 32]
	add	sp, sp, 176
	.cfi_restore 29
	.cfi_restore 30
	.cfi_restore 19
	.cfi_def_cfa_offset 0
	ret
	.cfi_endproc
.LFE6126:
	.size	_ZN5boost6tuples5tupleINS_6lambda14lambda_functorINS2_19lambda_functor_baseINS2_14bitwise_actionINS2_16leftshift_actionEEENS1_IRSoNS3_INS4_INS2_17arithmetic_actionINS2_15multiply_actionEEENS1_INS3_INS2_11placeholderILi1EEEEEKiNS0_9null_typeESG_SG_SG_SG_SG_SG_SG_EEEEEESG_SG_SG_SG_SG_SG_SG_SG_EEEEEERA2_KcSG_SG_SG_SG_SG_SG_SG_SG_EC2ERKSM_SP_, .-_ZN5boost6tuples5tupleINS_6lambda14lambda_functorINS2_19lambda_functor_baseINS2_14bitwise_actionINS2_16leftshift_actionEEENS1_IRSoNS3_INS4_INS2_17arithmetic_actionINS2_15multiply_actionEEENS1_INS3_INS2_11placeholderILi1EEEEEKiNS0_9null_typeESG_SG_SG_SG_SG_SG_SG_EEEEEESG_SG_SG_SG_SG_SG_SG_SG_EEEEEERA2_KcSG_SG_SG_SG_SG_SG_SG_SG_EC2ERKSM_SP_
	.weak	_ZN5boost6tuples5tupleINS_6lambda14lambda_functorINS2_19lambda_functor_baseINS2_14bitwise_actionINS2_16leftshift_actionEEENS1_IRSoNS3_INS4_INS2_17arithmetic_actionINS2_15multiply_actionEEENS1_INS3_INS2_11placeholderILi1EEEEEKiNS0_9null_typeESG_SG_SG_SG_SG_SG_SG_EEEEEESG_SG_SG_SG_SG_SG_SG_SG_EEEEEERA2_KcSG_SG_SG_SG_SG_SG_SG_SG_EC1ERKSM_SP_
	.set	_ZN5boost6tuples5tupleINS_6lambda14lambda_functorINS2_19lambda_functor_baseINS2_14bitwise_actionINS2_16leftshift_actionEEENS1_IRSoNS3_INS4_INS2_17arithmetic_actionINS2_15multiply_actionEEENS1_INS3_INS2_11placeholderILi1EEEEEKiNS0_9null_typeESG_SG_SG_SG_SG_SG_SG_EEEEEESG_SG_SG_SG_SG_SG_SG_SG_EEEEEERA2_KcSG_SG_SG_SG_SG_SG_SG_SG_EC1ERKSM_SP_,_ZN5boost6tuples5tupleINS_6lambda14lambda_functorINS2_19lambda_functor_baseINS2_14bitwise_actionINS2_16leftshift_actionEEENS1_IRSoNS3_INS4_INS2_17arithmetic_actionINS2_15multiply_actionEEENS1_INS3_INS2_11placeholderILi1EEEEEKiNS0_9null_typeESG_SG_SG_SG_SG_SG_SG_EEEEEESG_SG_SG_SG_SG_SG_SG_SG_EEEEEERA2_KcSG_SG_SG_SG_SG_SG_SG_SG_EC2ERKSM_SP_
	.section	.text._ZN5boost6tuples5tupleINS_6lambda14lambda_functorINS2_19lambda_functor_baseINS2_14bitwise_actionINS2_16leftshift_actionEEENS1_IRSoNS3_INS4_INS2_17arithmetic_actionINS2_15multiply_actionEEENS1_INS3_INS2_11placeholderILi1EEEEEKiNS0_9null_typeESG_SG_SG_SG_SG_SG_SG_EEEEEESG_SG_SG_SG_SG_SG_SG_SG_EEEEEERA2_KcSG_SG_SG_SG_SG_SG_SG_SG_EC2ERKSQ_,"axG",@progbits,_ZN5boost6tuples5tupleINS_6lambda14lambda_functorINS2_19lambda_functor_baseINS2_14bitwise_actionINS2_16leftshift_actionEEENS1_IRSoNS3_INS4_INS2_17arithmetic_actionINS2_15multiply_actionEEENS1_INS3_INS2_11placeholderILi1EEEEEKiNS0_9null_typeESG_SG_SG_SG_SG_SG_SG_EEEEEESG_SG_SG_SG_SG_SG_SG_SG_EEEEEERA2_KcSG_SG_SG_SG_SG_SG_SG_SG_EC5ERKSQ_,comdat
	.align	2
	.weak	_ZN5boost6tuples5tupleINS_6lambda14lambda_functorINS2_19lambda_functor_baseINS2_14bitwise_actionINS2_16leftshift_actionEEENS1_IRSoNS3_INS4_INS2_17arithmetic_actionINS2_15multiply_actionEEENS1_INS3_INS2_11placeholderILi1EEEEEKiNS0_9null_typeESG_SG_SG_SG_SG_SG_SG_EEEEEESG_SG_SG_SG_SG_SG_SG_SG_EEEEEERA2_KcSG_SG_SG_SG_SG_SG_SG_SG_EC2ERKSQ_
	.type	_ZN5boost6tuples5tupleINS_6lambda14lambda_functorINS2_19lambda_functor_baseINS2_14bitwise_actionINS2_16leftshift_actionEEENS1_IRSoNS3_INS4_INS2_17arithmetic_actionINS2_15multiply_actionEEENS1_INS3_INS2_11placeholderILi1EEEEEKiNS0_9null_typeESG_SG_SG_SG_SG_SG_SG_EEEEEESG_SG_SG_SG_SG_SG_SG_SG_EEEEEERA2_KcSG_SG_SG_SG_SG_SG_SG_SG_EC2ERKSQ_, %function
_ZN5boost6tuples5tupleINS_6lambda14lambda_functorINS2_19lambda_functor_baseINS2_14bitwise_actionINS2_16leftshift_actionEEENS1_IRSoNS3_INS4_INS2_17arithmetic_actionINS2_15multiply_actionEEENS1_INS3_INS2_11placeholderILi1EEEEEKiNS0_9null_typeESG_SG_SG_SG_SG_SG_SG_EEEEEESG_SG_SG_SG_SG_SG_SG_SG_EEEEEERA2_KcSG_SG_SG_SG_SG_SG_SG_SG_EC2ERKSQ_:
.LFB6130:
	.cfi_startproc
	stp	x29, x30, [sp, -32]!
	.cfi_def_cfa_offset 32
	.cfi_offset 29, -32
	.cfi_offset 30, -24
	mov	x29, sp
	str	x0, [sp, 24]
	str	x1, [sp, 16]
	ldr	x0, [sp, 24]
	ldr	x1, [sp, 16]
	bl	_ZN5boost6tuples4consINS_6lambda14lambda_functorINS2_19lambda_functor_baseINS2_14bitwise_actionINS2_16leftshift_actionEEENS0_5tupleIRSoNS3_INS4_INS2_17arithmetic_actionINS2_15multiply_actionEEENS8_INS3_INS2_11placeholderILi1EEEEEKiNS0_9null_typeESH_SH_SH_SH_SH_SH_SH_EEEEEESH_SH_SH_SH_SH_SH_SH_SH_EEEEEENS1_IRA2_KcSH_EEEC2ERKSS_
	nop
	ldp	x29, x30, [sp], 32
	.cfi_restore 30
	.cfi_restore 29
	.cfi_def_cfa_offset 0
	ret
	.cfi_endproc
.LFE6130:
	.size	_ZN5boost6tuples5tupleINS_6lambda14lambda_functorINS2_19lambda_functor_baseINS2_14bitwise_actionINS2_16leftshift_actionEEENS1_IRSoNS3_INS4_INS2_17arithmetic_actionINS2_15multiply_actionEEENS1_INS3_INS2_11placeholderILi1EEEEEKiNS0_9null_typeESG_SG_SG_SG_SG_SG_SG_EEEEEESG_SG_SG_SG_SG_SG_SG_SG_EEEEEERA2_KcSG_SG_SG_SG_SG_SG_SG_SG_EC2ERKSQ_, .-_ZN5boost6tuples5tupleINS_6lambda14lambda_functorINS2_19lambda_functor_baseINS2_14bitwise_actionINS2_16leftshift_actionEEENS1_IRSoNS3_INS4_INS2_17arithmetic_actionINS2_15multiply_actionEEENS1_INS3_INS2_11placeholderILi1EEEEEKiNS0_9null_typeESG_SG_SG_SG_SG_SG_SG_EEEEEESG_SG_SG_SG_SG_SG_SG_SG_EEEEEERA2_KcSG_SG_SG_SG_SG_SG_SG_SG_EC2ERKSQ_
	.weak	_ZN5boost6tuples5tupleINS_6lambda14lambda_functorINS2_19lambda_functor_baseINS2_14bitwise_actionINS2_16leftshift_actionEEENS1_IRSoNS3_INS4_INS2_17arithmetic_actionINS2_15multiply_actionEEENS1_INS3_INS2_11placeholderILi1EEEEEKiNS0_9null_typeESG_SG_SG_SG_SG_SG_SG_EEEEEESG_SG_SG_SG_SG_SG_SG_SG_EEEEEERA2_KcSG_SG_SG_SG_SG_SG_SG_SG_EC1ERKSQ_
	.set	_ZN5boost6tuples5tupleINS_6lambda14lambda_functorINS2_19lambda_functor_baseINS2_14bitwise_actionINS2_16leftshift_actionEEENS1_IRSoNS3_INS4_INS2_17arithmetic_actionINS2_15multiply_actionEEENS1_INS3_INS2_11placeholderILi1EEEEEKiNS0_9null_typeESG_SG_SG_SG_SG_SG_SG_EEEEEESG_SG_SG_SG_SG_SG_SG_SG_EEEEEERA2_KcSG_SG_SG_SG_SG_SG_SG_SG_EC1ERKSQ_,_ZN5boost6tuples5tupleINS_6lambda14lambda_functorINS2_19lambda_functor_baseINS2_14bitwise_actionINS2_16leftshift_actionEEENS1_IRSoNS3_INS4_INS2_17arithmetic_actionINS2_15multiply_actionEEENS1_INS3_INS2_11placeholderILi1EEEEEKiNS0_9null_typeESG_SG_SG_SG_SG_SG_SG_EEEEEESG_SG_SG_SG_SG_SG_SG_SG_EEEEEERA2_KcSG_SG_SG_SG_SG_SG_SG_SG_EC2ERKSQ_
	.section	.text._ZN5boost6lambda19lambda_functor_baseINS0_14bitwise_actionINS0_16leftshift_actionEEENS_6tuples5tupleINS0_14lambda_functorINS1_IS4_NS6_IRSoNS7_INS1_INS0_17arithmetic_actionINS0_15multiply_actionEEENS6_INS7_INS0_11placeholderILi1EEEEEKiNS5_9null_typeESG_SG_SG_SG_SG_SG_SG_EEEEEESG_SG_SG_SG_SG_SG_SG_SG_EEEEEERA2_KcSG_SG_SG_SG_SG_SG_SG_SG_EEEC2ERKSQ_,"axG",@progbits,_ZN5boost6lambda19lambda_functor_baseINS0_14bitwise_actionINS0_16leftshift_actionEEENS_6tuples5tupleINS0_14lambda_functorINS1_IS4_NS6_IRSoNS7_INS1_INS0_17arithmetic_actionINS0_15multiply_actionEEENS6_INS7_INS0_11placeholderILi1EEEEEKiNS5_9null_typeESG_SG_SG_SG_SG_SG_SG_EEEEEESG_SG_SG_SG_SG_SG_SG_SG_EEEEEERA2_KcSG_SG_SG_SG_SG_SG_SG_SG_EEEC5ERKSQ_,comdat
	.align	2
	.weak	_ZN5boost6lambda19lambda_functor_baseINS0_14bitwise_actionINS0_16leftshift_actionEEENS_6tuples5tupleINS0_14lambda_functorINS1_IS4_NS6_IRSoNS7_INS1_INS0_17arithmetic_actionINS0_15multiply_actionEEENS6_INS7_INS0_11placeholderILi1EEEEEKiNS5_9null_typeESG_SG_SG_SG_SG_SG_SG_EEEEEESG_SG_SG_SG_SG_SG_SG_SG_EEEEEERA2_KcSG_SG_SG_SG_SG_SG_SG_SG_EEEC2ERKSQ_
	.type	_ZN5boost6lambda19lambda_functor_baseINS0_14bitwise_actionINS0_16leftshift_actionEEENS_6tuples5tupleINS0_14lambda_functorINS1_IS4_NS6_IRSoNS7_INS1_INS0_17arithmetic_actionINS0_15multiply_actionEEENS6_INS7_INS0_11placeholderILi1EEEEEKiNS5_9null_typeESG_SG_SG_SG_SG_SG_SG_EEEEEESG_SG_SG_SG_SG_SG_SG_SG_EEEEEERA2_KcSG_SG_SG_SG_SG_SG_SG_SG_EEEC2ERKSQ_, %function
_ZN5boost6lambda19lambda_functor_baseINS0_14bitwise_actionINS0_16leftshift_actionEEENS_6tuples5tupleINS0_14lambda_functorINS1_IS4_NS6_IRSoNS7_INS1_INS0_17arithmetic_actionINS0_15multiply_actionEEENS6_INS7_INS0_11placeholderILi1EEEEEKiNS5_9null_typeESG_SG_SG_SG_SG_SG_SG_EEEEEESG_SG_SG_SG_SG_SG_SG_SG_EEEEEERA2_KcSG_SG_SG_SG_SG_SG_SG_SG_EEEC2ERKSQ_:
.LFB6132:
	.cfi_startproc
	stp	x29, x30, [sp, -32]!
	.cfi_def_cfa_offset 32
	.cfi_offset 29, -32
	.cfi_offset 30, -24
	mov	x29, sp
	str	x0, [sp, 24]
	str	x1, [sp, 16]
	ldr	x0, [sp, 24]
	ldr	x1, [sp, 16]
	bl	_ZN5boost6tuples5tupleINS_6lambda14lambda_functorINS2_19lambda_functor_baseINS2_14bitwise_actionINS2_16leftshift_actionEEENS1_IRSoNS3_INS4_INS2_17arithmetic_actionINS2_15multiply_actionEEENS1_INS3_INS2_11placeholderILi1EEEEEKiNS0_9null_typeESG_SG_SG_SG_SG_SG_SG_EEEEEESG_SG_SG_SG_SG_SG_SG_SG_EEEEEERA2_KcSG_SG_SG_SG_SG_SG_SG_SG_EC1ERKSQ_
	nop
	ldp	x29, x30, [sp], 32
	.cfi_restore 30
	.cfi_restore 29
	.cfi_def_cfa_offset 0
	ret
	.cfi_endproc
.LFE6132:
	.size	_ZN5boost6lambda19lambda_functor_baseINS0_14bitwise_actionINS0_16leftshift_actionEEENS_6tuples5tupleINS0_14lambda_functorINS1_IS4_NS6_IRSoNS7_INS1_INS0_17arithmetic_actionINS0_15multiply_actionEEENS6_INS7_INS0_11placeholderILi1EEEEEKiNS5_9null_typeESG_SG_SG_SG_SG_SG_SG_EEEEEESG_SG_SG_SG_SG_SG_SG_SG_EEEEEERA2_KcSG_SG_SG_SG_SG_SG_SG_SG_EEEC2ERKSQ_, .-_ZN5boost6lambda19lambda_functor_baseINS0_14bitwise_actionINS0_16leftshift_actionEEENS_6tuples5tupleINS0_14lambda_functorINS1_IS4_NS6_IRSoNS7_INS1_INS0_17arithmetic_actionINS0_15multiply_actionEEENS6_INS7_INS0_11placeholderILi1EEEEEKiNS5_9null_typeESG_SG_SG_SG_SG_SG_SG_EEEEEESG_SG_SG_SG_SG_SG_SG_SG_EEEEEERA2_KcSG_SG_SG_SG_SG_SG_SG_SG_EEEC2ERKSQ_
	.weak	_ZN5boost6lambda19lambda_functor_baseINS0_14bitwise_actionINS0_16leftshift_actionEEENS_6tuples5tupleINS0_14lambda_functorINS1_IS4_NS6_IRSoNS7_INS1_INS0_17arithmetic_actionINS0_15multiply_actionEEENS6_INS7_INS0_11placeholderILi1EEEEEKiNS5_9null_typeESG_SG_SG_SG_SG_SG_SG_EEEEEESG_SG_SG_SG_SG_SG_SG_SG_EEEEEERA2_KcSG_SG_SG_SG_SG_SG_SG_SG_EEEC1ERKSQ_
	.set	_ZN5boost6lambda19lambda_functor_baseINS0_14bitwise_actionINS0_16leftshift_actionEEENS_6tuples5tupleINS0_14lambda_functorINS1_IS4_NS6_IRSoNS7_INS1_INS0_17arithmetic_actionINS0_15multiply_actionEEENS6_INS7_INS0_11placeholderILi1EEEEEKiNS5_9null_typeESG_SG_SG_SG_SG_SG_SG_EEEEEESG_SG_SG_SG_SG_SG_SG_SG_EEEEEERA2_KcSG_SG_SG_SG_SG_SG_SG_SG_EEEC1ERKSQ_,_ZN5boost6lambda19lambda_functor_baseINS0_14bitwise_actionINS0_16leftshift_actionEEENS_6tuples5tupleINS0_14lambda_functorINS1_IS4_NS6_IRSoNS7_INS1_INS0_17arithmetic_actionINS0_15multiply_actionEEENS6_INS7_INS0_11placeholderILi1EEEEEKiNS5_9null_typeESG_SG_SG_SG_SG_SG_SG_EEEEEESG_SG_SG_SG_SG_SG_SG_SG_EEEEEERA2_KcSG_SG_SG_SG_SG_SG_SG_SG_EEEC2ERKSQ_
	.section	.text._ZN5boost6lambda19lambda_functor_baseINS0_14bitwise_actionINS0_16leftshift_actionEEENS_6tuples5tupleINS0_14lambda_functorINS1_IS4_NS6_IRSoNS7_INS1_INS0_17arithmetic_actionINS0_15multiply_actionEEENS6_INS7_INS0_11placeholderILi1EEEEEKiNS5_9null_typeESG_SG_SG_SG_SG_SG_SG_EEEEEESG_SG_SG_SG_SG_SG_SG_SG_EEEEEERA2_KcSG_SG_SG_SG_SG_SG_SG_SG_EEEC2ERKSR_,"axG",@progbits,_ZN5boost6lambda19lambda_functor_baseINS0_14bitwise_actionINS0_16leftshift_actionEEENS_6tuples5tupleINS0_14lambda_functorINS1_IS4_NS6_IRSoNS7_INS1_INS0_17arithmetic_actionINS0_15multiply_actionEEENS6_INS7_INS0_11placeholderILi1EEEEEKiNS5_9null_typeESG_SG_SG_SG_SG_SG_SG_EEEEEESG_SG_SG_SG_SG_SG_SG_SG_EEEEEERA2_KcSG_SG_SG_SG_SG_SG_SG_SG_EEEC5ERKSR_,comdat
	.align	2
	.weak	_ZN5boost6lambda19lambda_functor_baseINS0_14bitwise_actionINS0_16leftshift_actionEEENS_6tuples5tupleINS0_14lambda_functorINS1_IS4_NS6_IRSoNS7_INS1_INS0_17arithmetic_actionINS0_15multiply_actionEEENS6_INS7_INS0_11placeholderILi1EEEEEKiNS5_9null_typeESG_SG_SG_SG_SG_SG_SG_EEEEEESG_SG_SG_SG_SG_SG_SG_SG_EEEEEERA2_KcSG_SG_SG_SG_SG_SG_SG_SG_EEEC2ERKSR_
	.type	_ZN5boost6lambda19lambda_functor_baseINS0_14bitwise_actionINS0_16leftshift_actionEEENS_6tuples5tupleINS0_14lambda_functorINS1_IS4_NS6_IRSoNS7_INS1_INS0_17arithmetic_actionINS0_15multiply_actionEEENS6_INS7_INS0_11placeholderILi1EEEEEKiNS5_9null_typeESG_SG_SG_SG_SG_SG_SG_EEEEEESG_SG_SG_SG_SG_SG_SG_SG_EEEEEERA2_KcSG_SG_SG_SG_SG_SG_SG_SG_EEEC2ERKSR_, %function
_ZN5boost6lambda19lambda_functor_baseINS0_14bitwise_actionINS0_16leftshift_actionEEENS_6tuples5tupleINS0_14lambda_functorINS1_IS4_NS6_IRSoNS7_INS1_INS0_17arithmetic_actionINS0_15multiply_actionEEENS6_INS7_INS0_11placeholderILi1EEEEEKiNS5_9null_typeESG_SG_SG_SG_SG_SG_SG_EEEEEESG_SG_SG_SG_SG_SG_SG_SG_EEEEEERA2_KcSG_SG_SG_SG_SG_SG_SG_SG_EEEC2ERKSR_:
.LFB6136:
	.cfi_startproc
	stp	x29, x30, [sp, -32]!
	.cfi_def_cfa_offset 32
	.cfi_offset 29, -32
	.cfi_offset 30, -24
	mov	x29, sp
	str	x0, [sp, 24]
	str	x1, [sp, 16]
	ldr	x0, [sp, 24]
	ldr	x1, [sp, 16]
	bl	_ZN5boost6tuples5tupleINS_6lambda14lambda_functorINS2_19lambda_functor_baseINS2_14bitwise_actionINS2_16leftshift_actionEEENS1_IRSoNS3_INS4_INS2_17arithmetic_actionINS2_15multiply_actionEEENS1_INS3_INS2_11placeholderILi1EEEEEKiNS0_9null_typeESG_SG_SG_SG_SG_SG_SG_EEEEEESG_SG_SG_SG_SG_SG_SG_SG_EEEEEERA2_KcSG_SG_SG_SG_SG_SG_SG_SG_EC1ERKSQ_
	nop
	ldp	x29, x30, [sp], 32
	.cfi_restore 30
	.cfi_restore 29
	.cfi_def_cfa_offset 0
	ret
	.cfi_endproc
.LFE6136:
	.size	_ZN5boost6lambda19lambda_functor_baseINS0_14bitwise_actionINS0_16leftshift_actionEEENS_6tuples5tupleINS0_14lambda_functorINS1_IS4_NS6_IRSoNS7_INS1_INS0_17arithmetic_actionINS0_15multiply_actionEEENS6_INS7_INS0_11placeholderILi1EEEEEKiNS5_9null_typeESG_SG_SG_SG_SG_SG_SG_EEEEEESG_SG_SG_SG_SG_SG_SG_SG_EEEEEERA2_KcSG_SG_SG_SG_SG_SG_SG_SG_EEEC2ERKSR_, .-_ZN5boost6lambda19lambda_functor_baseINS0_14bitwise_actionINS0_16leftshift_actionEEENS_6tuples5tupleINS0_14lambda_functorINS1_IS4_NS6_IRSoNS7_INS1_INS0_17arithmetic_actionINS0_15multiply_actionEEENS6_INS7_INS0_11placeholderILi1EEEEEKiNS5_9null_typeESG_SG_SG_SG_SG_SG_SG_EEEEEESG_SG_SG_SG_SG_SG_SG_SG_EEEEEERA2_KcSG_SG_SG_SG_SG_SG_SG_SG_EEEC2ERKSR_
	.weak	_ZN5boost6lambda19lambda_functor_baseINS0_14bitwise_actionINS0_16leftshift_actionEEENS_6tuples5tupleINS0_14lambda_functorINS1_IS4_NS6_IRSoNS7_INS1_INS0_17arithmetic_actionINS0_15multiply_actionEEENS6_INS7_INS0_11placeholderILi1EEEEEKiNS5_9null_typeESG_SG_SG_SG_SG_SG_SG_EEEEEESG_SG_SG_SG_SG_SG_SG_SG_EEEEEERA2_KcSG_SG_SG_SG_SG_SG_SG_SG_EEEC1ERKSR_
	.set	_ZN5boost6lambda19lambda_functor_baseINS0_14bitwise_actionINS0_16leftshift_actionEEENS_6tuples5tupleINS0_14lambda_functorINS1_IS4_NS6_IRSoNS7_INS1_INS0_17arithmetic_actionINS0_15multiply_actionEEENS6_INS7_INS0_11placeholderILi1EEEEEKiNS5_9null_typeESG_SG_SG_SG_SG_SG_SG_EEEEEESG_SG_SG_SG_SG_SG_SG_SG_EEEEEERA2_KcSG_SG_SG_SG_SG_SG_SG_SG_EEEC1ERKSR_,_ZN5boost6lambda19lambda_functor_baseINS0_14bitwise_actionINS0_16leftshift_actionEEENS_6tuples5tupleINS0_14lambda_functorINS1_IS4_NS6_IRSoNS7_INS1_INS0_17arithmetic_actionINS0_15multiply_actionEEENS6_INS7_INS0_11placeholderILi1EEEEEKiNS5_9null_typeESG_SG_SG_SG_SG_SG_SG_EEEEEESG_SG_SG_SG_SG_SG_SG_SG_EEEEEERA2_KcSG_SG_SG_SG_SG_SG_SG_SG_EEEC2ERKSR_
	.section	.text._ZN5boost6lambda14lambda_functorINS0_19lambda_functor_baseINS0_14bitwise_actionINS0_16leftshift_actionEEENS_6tuples5tupleINS1_INS2_IS5_NS7_IRSoNS1_INS2_INS0_17arithmetic_actionINS0_15multiply_actionEEENS7_INS1_INS0_11placeholderILi1EEEEEKiNS6_9null_typeESG_SG_SG_SG_SG_SG_SG_EEEEEESG_SG_SG_SG_SG_SG_SG_SG_EEEEEERA2_KcSG_SG_SG_SG_SG_SG_SG_SG_EEEEEC2ERKSR_,"axG",@progbits,_ZN5boost6lambda14lambda_functorINS0_19lambda_functor_baseINS0_14bitwise_actionINS0_16leftshift_actionEEENS_6tuples5tupleINS1_INS2_IS5_NS7_IRSoNS1_INS2_INS0_17arithmetic_actionINS0_15multiply_actionEEENS7_INS1_INS0_11placeholderILi1EEEEEKiNS6_9null_typeESG_SG_SG_SG_SG_SG_SG_EEEEEESG_SG_SG_SG_SG_SG_SG_SG_EEEEEERA2_KcSG_SG_SG_SG_SG_SG_SG_SG_EEEEEC5ERKSR_,comdat
	.align	2
	.weak	_ZN5boost6lambda14lambda_functorINS0_19lambda_functor_baseINS0_14bitwise_actionINS0_16leftshift_actionEEENS_6tuples5tupleINS1_INS2_IS5_NS7_IRSoNS1_INS2_INS0_17arithmetic_actionINS0_15multiply_actionEEENS7_INS1_INS0_11placeholderILi1EEEEEKiNS6_9null_typeESG_SG_SG_SG_SG_SG_SG_EEEEEESG_SG_SG_SG_SG_SG_SG_SG_EEEEEERA2_KcSG_SG_SG_SG_SG_SG_SG_SG_EEEEEC2ERKSR_
	.type	_ZN5boost6lambda14lambda_functorINS0_19lambda_functor_baseINS0_14bitwise_actionINS0_16leftshift_actionEEENS_6tuples5tupleINS1_INS2_IS5_NS7_IRSoNS1_INS2_INS0_17arithmetic_actionINS0_15multiply_actionEEENS7_INS1_INS0_11placeholderILi1EEEEEKiNS6_9null_typeESG_SG_SG_SG_SG_SG_SG_EEEEEESG_SG_SG_SG_SG_SG_SG_SG_EEEEEERA2_KcSG_SG_SG_SG_SG_SG_SG_SG_EEEEEC2ERKSR_, %function
_ZN5boost6lambda14lambda_functorINS0_19lambda_functor_baseINS0_14bitwise_actionINS0_16leftshift_actionEEENS_6tuples5tupleINS1_INS2_IS5_NS7_IRSoNS1_INS2_INS0_17arithmetic_actionINS0_15multiply_actionEEENS7_INS1_INS0_11placeholderILi1EEEEEKiNS6_9null_typeESG_SG_SG_SG_SG_SG_SG_EEEEEESG_SG_SG_SG_SG_SG_SG_SG_EEEEEERA2_KcSG_SG_SG_SG_SG_SG_SG_SG_EEEEEC2ERKSR_:
.LFB6138:
	.cfi_startproc
	stp	x29, x30, [sp, -32]!
	.cfi_def_cfa_offset 32
	.cfi_offset 29, -32
	.cfi_offset 30, -24
	mov	x29, sp
	str	x0, [sp, 24]
	str	x1, [sp, 16]
	ldr	x0, [sp, 24]
	ldr	x1, [sp, 16]
	bl	_ZN5boost6lambda19lambda_functor_baseINS0_14bitwise_actionINS0_16leftshift_actionEEENS_6tuples5tupleINS0_14lambda_functorINS1_IS4_NS6_IRSoNS7_INS1_INS0_17arithmetic_actionINS0_15multiply_actionEEENS6_INS7_INS0_11placeholderILi1EEEEEKiNS5_9null_typeESG_SG_SG_SG_SG_SG_SG_EEEEEESG_SG_SG_SG_SG_SG_SG_SG_EEEEEERA2_KcSG_SG_SG_SG_SG_SG_SG_SG_EEEC2ERKSR_
	nop
	ldp	x29, x30, [sp], 32
	.cfi_restore 30
	.cfi_restore 29
	.cfi_def_cfa_offset 0
	ret
	.cfi_endproc
.LFE6138:
	.size	_ZN5boost6lambda14lambda_functorINS0_19lambda_functor_baseINS0_14bitwise_actionINS0_16leftshift_actionEEENS_6tuples5tupleINS1_INS2_IS5_NS7_IRSoNS1_INS2_INS0_17arithmetic_actionINS0_15multiply_actionEEENS7_INS1_INS0_11placeholderILi1EEEEEKiNS6_9null_typeESG_SG_SG_SG_SG_SG_SG_EEEEEESG_SG_SG_SG_SG_SG_SG_SG_EEEEEERA2_KcSG_SG_SG_SG_SG_SG_SG_SG_EEEEEC2ERKSR_, .-_ZN5boost6lambda14lambda_functorINS0_19lambda_functor_baseINS0_14bitwise_actionINS0_16leftshift_actionEEENS_6tuples5tupleINS1_INS2_IS5_NS7_IRSoNS1_INS2_INS0_17arithmetic_actionINS0_15multiply_actionEEENS7_INS1_INS0_11placeholderILi1EEEEEKiNS6_9null_typeESG_SG_SG_SG_SG_SG_SG_EEEEEESG_SG_SG_SG_SG_SG_SG_SG_EEEEEERA2_KcSG_SG_SG_SG_SG_SG_SG_SG_EEEEEC2ERKSR_
	.weak	_ZN5boost6lambda14lambda_functorINS0_19lambda_functor_baseINS0_14bitwise_actionINS0_16leftshift_actionEEENS_6tuples5tupleINS1_INS2_IS5_NS7_IRSoNS1_INS2_INS0_17arithmetic_actionINS0_15multiply_actionEEENS7_INS1_INS0_11placeholderILi1EEEEEKiNS6_9null_typeESG_SG_SG_SG_SG_SG_SG_EEEEEESG_SG_SG_SG_SG_SG_SG_SG_EEEEEERA2_KcSG_SG_SG_SG_SG_SG_SG_SG_EEEEEC1ERKSR_
	.set	_ZN5boost6lambda14lambda_functorINS0_19lambda_functor_baseINS0_14bitwise_actionINS0_16leftshift_actionEEENS_6tuples5tupleINS1_INS2_IS5_NS7_IRSoNS1_INS2_INS0_17arithmetic_actionINS0_15multiply_actionEEENS7_INS1_INS0_11placeholderILi1EEEEEKiNS6_9null_typeESG_SG_SG_SG_SG_SG_SG_EEEEEESG_SG_SG_SG_SG_SG_SG_SG_EEEEEERA2_KcSG_SG_SG_SG_SG_SG_SG_SG_EEEEEC1ERKSR_,_ZN5boost6lambda14lambda_functorINS0_19lambda_functor_baseINS0_14bitwise_actionINS0_16leftshift_actionEEENS_6tuples5tupleINS1_INS2_IS5_NS7_IRSoNS1_INS2_INS0_17arithmetic_actionINS0_15multiply_actionEEENS7_INS1_INS0_11placeholderILi1EEEEEKiNS6_9null_typeESG_SG_SG_SG_SG_SG_SG_EEEEEESG_SG_SG_SG_SG_SG_SG_SG_EEEEEERA2_KcSG_SG_SG_SG_SG_SG_SG_SG_EEEEEC2ERKSR_
	.section	.text._ZN9__gnu_cxxneIPiSt6vectorIiSaIiEEEEbRKNS_17__normal_iteratorIT_T0_EESA_,"axG",@progbits,_ZN9__gnu_cxxneIPiSt6vectorIiSaIiEEEEbRKNS_17__normal_iteratorIT_T0_EESA_,comdat
	.align	2
	.weak	_ZN9__gnu_cxxneIPiSt6vectorIiSaIiEEEEbRKNS_17__normal_iteratorIT_T0_EESA_
	.type	_ZN9__gnu_cxxneIPiSt6vectorIiSaIiEEEEbRKNS_17__normal_iteratorIT_T0_EESA_, %function
_ZN9__gnu_cxxneIPiSt6vectorIiSaIiEEEEbRKNS_17__normal_iteratorIT_T0_EESA_:
.LFB6140:
	.cfi_startproc
	stp	x29, x30, [sp, -48]!
	.cfi_def_cfa_offset 48
	.cfi_offset 29, -48
	.cfi_offset 30, -40
	mov	x29, sp
	str	x19, [sp, 16]
	.cfi_offset 19, -32
	str	x0, [sp, 40]
	str	x1, [sp, 32]
	ldr	x0, [sp, 40]
	bl	_ZNK9__gnu_cxx17__normal_iteratorIPiSt6vectorIiSaIiEEE4baseEv
	ldr	x19, [x0]
	ldr	x0, [sp, 32]
	bl	_ZNK9__gnu_cxx17__normal_iteratorIPiSt6vectorIiSaIiEEE4baseEv
	ldr	x0, [x0]
	cmp	x19, x0
	cset	w0, ne
	and	w0, w0, 255
	ldr	x19, [sp, 16]
	ldp	x29, x30, [sp], 48
	.cfi_restore 30
	.cfi_restore 29
	.cfi_restore 19
	.cfi_def_cfa_offset 0
	ret
	.cfi_endproc
.LFE6140:
	.size	_ZN9__gnu_cxxneIPiSt6vectorIiSaIiEEEEbRKNS_17__normal_iteratorIT_T0_EESA_, .-_ZN9__gnu_cxxneIPiSt6vectorIiSaIiEEEEbRKNS_17__normal_iteratorIT_T0_EESA_
	.section	.text._ZN9__gnu_cxx17__normal_iteratorIPiSt6vectorIiSaIiEEEppEv,"axG",@progbits,_ZN9__gnu_cxx17__normal_iteratorIPiSt6vectorIiSaIiEEEppEv,comdat
	.align	2
	.weak	_ZN9__gnu_cxx17__normal_iteratorIPiSt6vectorIiSaIiEEEppEv
	.type	_ZN9__gnu_cxx17__normal_iteratorIPiSt6vectorIiSaIiEEEppEv, %function
_ZN9__gnu_cxx17__normal_iteratorIPiSt6vectorIiSaIiEEEppEv:
.LFB6141:
	.cfi_startproc
	sub	sp, sp, #16
	.cfi_def_cfa_offset 16
	str	x0, [sp, 8]
	ldr	x0, [sp, 8]
	ldr	x0, [x0]
	add	x1, x0, 4
	ldr	x0, [sp, 8]
	str	x1, [x0]
	ldr	x0, [sp, 8]
	add	sp, sp, 16
	.cfi_def_cfa_offset 0
	ret
	.cfi_endproc
.LFE6141:
	.size	_ZN9__gnu_cxx17__normal_iteratorIPiSt6vectorIiSaIiEEEppEv, .-_ZN9__gnu_cxx17__normal_iteratorIPiSt6vectorIiSaIiEEEppEv
	.section	.text._ZNK9__gnu_cxx17__normal_iteratorIPiSt6vectorIiSaIiEEEdeEv,"axG",@progbits,_ZNK9__gnu_cxx17__normal_iteratorIPiSt6vectorIiSaIiEEEdeEv,comdat
	.align	2
	.weak	_ZNK9__gnu_cxx17__normal_iteratorIPiSt6vectorIiSaIiEEEdeEv
	.type	_ZNK9__gnu_cxx17__normal_iteratorIPiSt6vectorIiSaIiEEEdeEv, %function
_ZNK9__gnu_cxx17__normal_iteratorIPiSt6vectorIiSaIiEEEdeEv:
.LFB6142:
	.cfi_startproc
	sub	sp, sp, #16
	.cfi_def_cfa_offset 16
	str	x0, [sp, 8]
	ldr	x0, [sp, 8]
	ldr	x0, [x0]
	add	sp, sp, 16
	.cfi_def_cfa_offset 0
	ret
	.cfi_endproc
.LFE6142:
	.size	_ZNK9__gnu_cxx17__normal_iteratorIPiSt6vectorIiSaIiEEEdeEv, .-_ZNK9__gnu_cxx17__normal_iteratorIPiSt6vectorIiSaIiEEEdeEv
	.section	.text._ZNK5boost6lambda14lambda_functorINS0_19lambda_functor_baseINS0_14bitwise_actionINS0_16leftshift_actionEEENS_6tuples5tupleINS1_INS2_IS5_NS7_IRSoNS1_INS2_INS0_17arithmetic_actionINS0_15multiply_actionEEENS7_INS1_INS0_11placeholderILi1EEEEEKiNS6_9null_typeESG_SG_SG_SG_SG_SG_SG_EEEEEESG_SG_SG_SG_SG_SG_SG_SG_EEEEEERA2_KcSG_SG_SG_SG_SG_SG_SG_SG_EEEEEclIiEENSR_3sigINS7_IRT_SG_SG_SG_SG_SG_SG_SG_SG_SG_EEE4typeESW_,"axG",@progbits,_ZNK5boost6lambda14lambda_functorINS0_19lambda_functor_baseINS0_14bitwise_actionINS0_16leftshift_actionEEENS_6tuples5tupleINS1_INS2_IS5_NS7_IRSoNS1_INS2_INS0_17arithmetic_actionINS0_15multiply_actionEEENS7_INS1_INS0_11placeholderILi1EEEEEKiNS6_9null_typeESG_SG_SG_SG_SG_SG_SG_EEEEEESG_SG_SG_SG_SG_SG_SG_SG_EEEEEERA2_KcSG_SG_SG_SG_SG_SG_SG_SG_EEEEEclIiEENSR_3sigINS7_IRT_SG_SG_SG_SG_SG_SG_SG_SG_SG_EEE4typeESW_,comdat
	.align	2
	.weak	_ZNK5boost6lambda14lambda_functorINS0_19lambda_functor_baseINS0_14bitwise_actionINS0_16leftshift_actionEEENS_6tuples5tupleINS1_INS2_IS5_NS7_IRSoNS1_INS2_INS0_17arithmetic_actionINS0_15multiply_actionEEENS7_INS1_INS0_11placeholderILi1EEEEEKiNS6_9null_typeESG_SG_SG_SG_SG_SG_SG_EEEEEESG_SG_SG_SG_SG_SG_SG_SG_EEEEEERA2_KcSG_SG_SG_SG_SG_SG_SG_SG_EEEEEclIiEENSR_3sigINS7_IRT_SG_SG_SG_SG_SG_SG_SG_SG_SG_EEE4typeESW_
	.type	_ZNK5boost6lambda14lambda_functorINS0_19lambda_functor_baseINS0_14bitwise_actionINS0_16leftshift_actionEEENS_6tuples5tupleINS1_INS2_IS5_NS7_IRSoNS1_INS2_INS0_17arithmetic_actionINS0_15multiply_actionEEENS7_INS1_INS0_11placeholderILi1EEEEEKiNS6_9null_typeESG_SG_SG_SG_SG_SG_SG_EEEEEESG_SG_SG_SG_SG_SG_SG_SG_EEEEEERA2_KcSG_SG_SG_SG_SG_SG_SG_SG_EEEEEclIiEENSR_3sigINS7_IRT_SG_SG_SG_SG_SG_SG_SG_SG_SG_EEE4typeESW_, %function
_ZNK5boost6lambda14lambda_functorINS0_19lambda_functor_baseINS0_14bitwise_actionINS0_16leftshift_actionEEENS_6tuples5tupleINS1_INS2_IS5_NS7_IRSoNS1_INS2_INS0_17arithmetic_actionINS0_15multiply_actionEEENS7_INS1_INS0_11placeholderILi1EEEEEKiNS6_9null_typeESG_SG_SG_SG_SG_SG_SG_EEEEEESG_SG_SG_SG_SG_SG_SG_SG_EEEEEERA2_KcSG_SG_SG_SG_SG_SG_SG_SG_EEEEEclIiEENSR_3sigINS7_IRT_SG_SG_SG_SG_SG_SG_SG_SG_SG_EEE4typeESW_:
.LFB6143:
	.cfi_startproc
	stp	x29, x30, [sp, -32]!
	.cfi_def_cfa_offset 32
	.cfi_offset 29, -32
	.cfi_offset 30, -24
	mov	x29, sp
	str	x0, [sp, 24]
	str	x1, [sp, 16]
	ldr	x5, [sp, 24]
	adrp	x0, _ZN5boost6lambda6detail12_GLOBAL__N_1L18constant_null_typeE
	add	x4, x0, :lo12:_ZN5boost6lambda6detail12_GLOBAL__N_1L18constant_null_typeE
	adrp	x0, _ZN5boost6lambda6detail12_GLOBAL__N_1L18constant_null_typeE
	add	x3, x0, :lo12:_ZN5boost6lambda6detail12_GLOBAL__N_1L18constant_null_typeE
	adrp	x0, _ZN5boost6lambda6detail12_GLOBAL__N_1L18constant_null_typeE
	add	x2, x0, :lo12:_ZN5boost6lambda6detail12_GLOBAL__N_1L18constant_null_typeE
	ldr	x1, [sp, 16]
	mov	x0, x5
	bl	_ZNK5boost6lambda19lambda_functor_baseINS0_14bitwise_actionINS0_16leftshift_actionEEENS_6tuples5tupleINS0_14lambda_functorINS1_IS4_NS6_IRSoNS7_INS1_INS0_17arithmetic_actionINS0_15multiply_actionEEENS6_INS7_INS0_11placeholderILi1EEEEEKiNS5_9null_typeESG_SG_SG_SG_SG_SG_SG_EEEEEESG_SG_SG_SG_SG_SG_SG_SG_EEEEEERA2_KcSG_SG_SG_SG_SG_SG_SG_SG_EEE4callIS8_iKSG_ST_ST_EET_RT0_RT1_RT2_RT3_
	ldp	x29, x30, [sp], 32
	.cfi_restore 30
	.cfi_restore 29
	.cfi_def_cfa_offset 0
	ret
	.cfi_endproc
.LFE6143:
	.size	_ZNK5boost6lambda14lambda_functorINS0_19lambda_functor_baseINS0_14bitwise_actionINS0_16leftshift_actionEEENS_6tuples5tupleINS1_INS2_IS5_NS7_IRSoNS1_INS2_INS0_17arithmetic_actionINS0_15multiply_actionEEENS7_INS1_INS0_11placeholderILi1EEEEEKiNS6_9null_typeESG_SG_SG_SG_SG_SG_SG_EEEEEESG_SG_SG_SG_SG_SG_SG_SG_EEEEEERA2_KcSG_SG_SG_SG_SG_SG_SG_SG_EEEEEclIiEENSR_3sigINS7_IRT_SG_SG_SG_SG_SG_SG_SG_SG_SG_EEE4typeESW_, .-_ZNK5boost6lambda14lambda_functorINS0_19lambda_functor_baseINS0_14bitwise_actionINS0_16leftshift_actionEEENS_6tuples5tupleINS1_INS2_IS5_NS7_IRSoNS1_INS2_INS0_17arithmetic_actionINS0_15multiply_actionEEENS7_INS1_INS0_11placeholderILi1EEEEEKiNS6_9null_typeESG_SG_SG_SG_SG_SG_SG_EEEEEESG_SG_SG_SG_SG_SG_SG_SG_EEEEEERA2_KcSG_SG_SG_SG_SG_SG_SG_SG_EEEEEclIiEENSR_3sigINS7_IRT_SG_SG_SG_SG_SG_SG_SG_SG_SG_EEE4typeESW_
	.section	.text._ZN5boost6lambda14lambda_functorINS0_19lambda_functor_baseINS0_14bitwise_actionINS0_16leftshift_actionEEENS_6tuples5tupleINS1_INS2_IS5_NS7_IRSoNS1_INS2_INS0_17arithmetic_actionINS0_15multiply_actionEEENS7_INS1_INS0_11placeholderILi1EEEEEKiNS6_9null_typeESG_SG_SG_SG_SG_SG_SG_EEEEEESG_SG_SG_SG_SG_SG_SG_SG_EEEEEERA2_KcSG_SG_SG_SG_SG_SG_SG_SG_EEEEEC2ERKSS_,"axG",@progbits,_ZN5boost6lambda14lambda_functorINS0_19lambda_functor_baseINS0_14bitwise_actionINS0_16leftshift_actionEEENS_6tuples5tupleINS1_INS2_IS5_NS7_IRSoNS1_INS2_INS0_17arithmetic_actionINS0_15multiply_actionEEENS7_INS1_INS0_11placeholderILi1EEEEEKiNS6_9null_typeESG_SG_SG_SG_SG_SG_SG_EEEEEESG_SG_SG_SG_SG_SG_SG_SG_EEEEEERA2_KcSG_SG_SG_SG_SG_SG_SG_SG_EEEEEC5ERKSS_,comdat
	.align	2
	.weak	_ZN5boost6lambda14lambda_functorINS0_19lambda_functor_baseINS0_14bitwise_actionINS0_16leftshift_actionEEENS_6tuples5tupleINS1_INS2_IS5_NS7_IRSoNS1_INS2_INS0_17arithmetic_actionINS0_15multiply_actionEEENS7_INS1_INS0_11placeholderILi1EEEEEKiNS6_9null_typeESG_SG_SG_SG_SG_SG_SG_EEEEEESG_SG_SG_SG_SG_SG_SG_SG_EEEEEERA2_KcSG_SG_SG_SG_SG_SG_SG_SG_EEEEEC2ERKSS_
	.type	_ZN5boost6lambda14lambda_functorINS0_19lambda_functor_baseINS0_14bitwise_actionINS0_16leftshift_actionEEENS_6tuples5tupleINS1_INS2_IS5_NS7_IRSoNS1_INS2_INS0_17arithmetic_actionINS0_15multiply_actionEEENS7_INS1_INS0_11placeholderILi1EEEEEKiNS6_9null_typeESG_SG_SG_SG_SG_SG_SG_EEEEEESG_SG_SG_SG_SG_SG_SG_SG_EEEEEERA2_KcSG_SG_SG_SG_SG_SG_SG_SG_EEEEEC2ERKSS_, %function
_ZN5boost6lambda14lambda_functorINS0_19lambda_functor_baseINS0_14bitwise_actionINS0_16leftshift_actionEEENS_6tuples5tupleINS1_INS2_IS5_NS7_IRSoNS1_INS2_INS0_17arithmetic_actionINS0_15multiply_actionEEENS7_INS1_INS0_11placeholderILi1EEEEEKiNS6_9null_typeESG_SG_SG_SG_SG_SG_SG_EEEEEESG_SG_SG_SG_SG_SG_SG_SG_EEEEEERA2_KcSG_SG_SG_SG_SG_SG_SG_SG_EEEEEC2ERKSS_:
.LFB6145:
	.cfi_startproc
	stp	x29, x30, [sp, -32]!
	.cfi_def_cfa_offset 32
	.cfi_offset 29, -32
	.cfi_offset 30, -24
	mov	x29, sp
	str	x0, [sp, 24]
	str	x1, [sp, 16]
	ldr	x0, [sp, 24]
	ldr	x1, [sp, 16]
	bl	_ZN5boost6lambda19lambda_functor_baseINS0_14bitwise_actionINS0_16leftshift_actionEEENS_6tuples5tupleINS0_14lambda_functorINS1_IS4_NS6_IRSoNS7_INS1_INS0_17arithmetic_actionINS0_15multiply_actionEEENS6_INS7_INS0_11placeholderILi1EEEEEKiNS5_9null_typeESG_SG_SG_SG_SG_SG_SG_EEEEEESG_SG_SG_SG_SG_SG_SG_SG_EEEEEERA2_KcSG_SG_SG_SG_SG_SG_SG_SG_EEEC2ERKSR_
	nop
	ldp	x29, x30, [sp], 32
	.cfi_restore 30
	.cfi_restore 29
	.cfi_def_cfa_offset 0
	ret
	.cfi_endproc
.LFE6145:
	.size	_ZN5boost6lambda14lambda_functorINS0_19lambda_functor_baseINS0_14bitwise_actionINS0_16leftshift_actionEEENS_6tuples5tupleINS1_INS2_IS5_NS7_IRSoNS1_INS2_INS0_17arithmetic_actionINS0_15multiply_actionEEENS7_INS1_INS0_11placeholderILi1EEEEEKiNS6_9null_typeESG_SG_SG_SG_SG_SG_SG_EEEEEESG_SG_SG_SG_SG_SG_SG_SG_EEEEEERA2_KcSG_SG_SG_SG_SG_SG_SG_SG_EEEEEC2ERKSS_, .-_ZN5boost6lambda14lambda_functorINS0_19lambda_functor_baseINS0_14bitwise_actionINS0_16leftshift_actionEEENS_6tuples5tupleINS1_INS2_IS5_NS7_IRSoNS1_INS2_INS0_17arithmetic_actionINS0_15multiply_actionEEENS7_INS1_INS0_11placeholderILi1EEEEEKiNS6_9null_typeESG_SG_SG_SG_SG_SG_SG_EEEEEESG_SG_SG_SG_SG_SG_SG_SG_EEEEEERA2_KcSG_SG_SG_SG_SG_SG_SG_SG_EEEEEC2ERKSS_
	.weak	_ZN5boost6lambda14lambda_functorINS0_19lambda_functor_baseINS0_14bitwise_actionINS0_16leftshift_actionEEENS_6tuples5tupleINS1_INS2_IS5_NS7_IRSoNS1_INS2_INS0_17arithmetic_actionINS0_15multiply_actionEEENS7_INS1_INS0_11placeholderILi1EEEEEKiNS6_9null_typeESG_SG_SG_SG_SG_SG_SG_EEEEEESG_SG_SG_SG_SG_SG_SG_SG_EEEEEERA2_KcSG_SG_SG_SG_SG_SG_SG_SG_EEEEEC1ERKSS_
	.set	_ZN5boost6lambda14lambda_functorINS0_19lambda_functor_baseINS0_14bitwise_actionINS0_16leftshift_actionEEENS_6tuples5tupleINS1_INS2_IS5_NS7_IRSoNS1_INS2_INS0_17arithmetic_actionINS0_15multiply_actionEEENS7_INS1_INS0_11placeholderILi1EEEEEKiNS6_9null_typeESG_SG_SG_SG_SG_SG_SG_EEEEEESG_SG_SG_SG_SG_SG_SG_SG_EEEEEERA2_KcSG_SG_SG_SG_SG_SG_SG_SG_EEEEEC1ERKSS_,_ZN5boost6lambda14lambda_functorINS0_19lambda_functor_baseINS0_14bitwise_actionINS0_16leftshift_actionEEENS_6tuples5tupleINS1_INS2_IS5_NS7_IRSoNS1_INS2_INS0_17arithmetic_actionINS0_15multiply_actionEEENS7_INS1_INS0_11placeholderILi1EEEEEKiNS6_9null_typeESG_SG_SG_SG_SG_SG_SG_EEEEEESG_SG_SG_SG_SG_SG_SG_SG_EEEEEERA2_KcSG_SG_SG_SG_SG_SG_SG_SG_EEEEEC2ERKSS_
	.section	.text._ZNSt12_Vector_baseIiSaIiEE12_Vector_implC2ERKS0_,"axG",@progbits,_ZNSt12_Vector_baseIiSaIiEE12_Vector_implC5ERKS0_,comdat
	.align	2
	.weak	_ZNSt12_Vector_baseIiSaIiEE12_Vector_implC2ERKS0_
	.type	_ZNSt12_Vector_baseIiSaIiEE12_Vector_implC2ERKS0_, %function
_ZNSt12_Vector_baseIiSaIiEE12_Vector_implC2ERKS0_:
.LFB6211:
	.cfi_startproc
	stp	x29, x30, [sp, -32]!
	.cfi_def_cfa_offset 32
	.cfi_offset 29, -32
	.cfi_offset 30, -24
	mov	x29, sp
	str	x0, [sp, 24]
	str	x1, [sp, 16]
	ldr	x1, [sp, 16]
	ldr	x0, [sp, 24]
	bl	_ZNSaIiEC2ERKS_
	ldr	x0, [sp, 24]
	bl	_ZNSt12_Vector_baseIiSaIiEE17_Vector_impl_dataC2Ev
	nop
	ldp	x29, x30, [sp], 32
	.cfi_restore 30
	.cfi_restore 29
	.cfi_def_cfa_offset 0
	ret
	.cfi_endproc
.LFE6211:
	.size	_ZNSt12_Vector_baseIiSaIiEE12_Vector_implC2ERKS0_, .-_ZNSt12_Vector_baseIiSaIiEE12_Vector_implC2ERKS0_
	.weak	_ZNSt12_Vector_baseIiSaIiEE12_Vector_implC1ERKS0_
	.set	_ZNSt12_Vector_baseIiSaIiEE12_Vector_implC1ERKS0_,_ZNSt12_Vector_baseIiSaIiEE12_Vector_implC2ERKS0_
	.section	.text._ZNSt12_Vector_baseIiSaIiEE13_M_deallocateEPim,"axG",@progbits,_ZNSt12_Vector_baseIiSaIiEE13_M_deallocateEPim,comdat
	.align	2
	.weak	_ZNSt12_Vector_baseIiSaIiEE13_M_deallocateEPim
	.type	_ZNSt12_Vector_baseIiSaIiEE13_M_deallocateEPim, %function
_ZNSt12_Vector_baseIiSaIiEE13_M_deallocateEPim:
.LFB6213:
	.cfi_startproc
	stp	x29, x30, [sp, -48]!
	.cfi_def_cfa_offset 48
	.cfi_offset 29, -48
	.cfi_offset 30, -40
	mov	x29, sp
	str	x0, [sp, 40]
	str	x1, [sp, 32]
	str	x2, [sp, 24]
	ldr	x0, [sp, 32]
	cmp	x0, 0
	beq	.L90
	ldr	x0, [sp, 40]
	ldr	x2, [sp, 24]
	ldr	x1, [sp, 32]
	bl	_ZNSt16allocator_traitsISaIiEE10deallocateERS0_Pim
.L90:
	nop
	ldp	x29, x30, [sp], 48
	.cfi_restore 30
	.cfi_restore 29
	.cfi_def_cfa_offset 0
	ret
	.cfi_endproc
.LFE6213:
	.size	_ZNSt12_Vector_baseIiSaIiEE13_M_deallocateEPim, .-_ZNSt12_Vector_baseIiSaIiEE13_M_deallocateEPim
	.section	.text._ZNKSt16initializer_listIiE4sizeEv,"axG",@progbits,_ZNKSt16initializer_listIiE4sizeEv,comdat
	.align	2
	.weak	_ZNKSt16initializer_listIiE4sizeEv
	.type	_ZNKSt16initializer_listIiE4sizeEv, %function
_ZNKSt16initializer_listIiE4sizeEv:
.LFB6214:
	.cfi_startproc
	sub	sp, sp, #16
	.cfi_def_cfa_offset 16
	str	x0, [sp, 8]
	ldr	x0, [sp, 8]
	ldr	x0, [x0, 8]
	add	sp, sp, 16
	.cfi_def_cfa_offset 0
	ret
	.cfi_endproc
.LFE6214:
	.size	_ZNKSt16initializer_listIiE4sizeEv, .-_ZNKSt16initializer_listIiE4sizeEv
	.section	.text._ZSt19__iterator_categoryIPKiENSt15iterator_traitsIT_E17iterator_categoryERKS3_,"axG",@progbits,_ZSt19__iterator_categoryIPKiENSt15iterator_traitsIT_E17iterator_categoryERKS3_,comdat
	.align	2
	.weak	_ZSt19__iterator_categoryIPKiENSt15iterator_traitsIT_E17iterator_categoryERKS3_
	.type	_ZSt19__iterator_categoryIPKiENSt15iterator_traitsIT_E17iterator_categoryERKS3_, %function
_ZSt19__iterator_categoryIPKiENSt15iterator_traitsIT_E17iterator_categoryERKS3_:
.LFB6215:
	.cfi_startproc
	sub	sp, sp, #16
	.cfi_def_cfa_offset 16
	str	x0, [sp, 8]
	mov	w0, w1
	add	sp, sp, 16
	.cfi_def_cfa_offset 0
	ret
	.cfi_endproc
.LFE6215:
	.size	_ZSt19__iterator_categoryIPKiENSt15iterator_traitsIT_E17iterator_categoryERKS3_, .-_ZSt19__iterator_categoryIPKiENSt15iterator_traitsIT_E17iterator_categoryERKS3_
	.section	.text._ZSt10__distanceIPKiENSt15iterator_traitsIT_E15difference_typeES3_S3_St26random_access_iterator_tag,"axG",@progbits,_ZSt10__distanceIPKiENSt15iterator_traitsIT_E15difference_typeES3_S3_St26random_access_iterator_tag,comdat
	.align	2
	.weak	_ZSt10__distanceIPKiENSt15iterator_traitsIT_E15difference_typeES3_S3_St26random_access_iterator_tag
	.type	_ZSt10__distanceIPKiENSt15iterator_traitsIT_E15difference_typeES3_S3_St26random_access_iterator_tag, %function
_ZSt10__distanceIPKiENSt15iterator_traitsIT_E15difference_typeES3_S3_St26random_access_iterator_tag:
.LFB6216:
	.cfi_startproc
	sub	sp, sp, #32
	.cfi_def_cfa_offset 32
	str	x0, [sp, 24]
	str	x1, [sp, 16]
	strb	w2, [sp, 8]
	ldr	x1, [sp, 16]
	ldr	x0, [sp, 24]
	sub	x0, x1, x0
	asr	x0, x0, 2
	add	sp, sp, 32
	.cfi_def_cfa_offset 0
	ret
	.cfi_endproc
.LFE6216:
	.size	_ZSt10__distanceIPKiENSt15iterator_traitsIT_E15difference_typeES3_S3_St26random_access_iterator_tag, .-_ZSt10__distanceIPKiENSt15iterator_traitsIT_E15difference_typeES3_S3_St26random_access_iterator_tag
	.section	.rodata
	.align	3
.LC2:
	.string	"cannot create std::vector larger than max_size()"
	.section	.text._ZNSt6vectorIiSaIiEE17_S_check_init_lenEmRKS0_,"axG",@progbits,_ZNSt6vectorIiSaIiEE17_S_check_init_lenEmRKS0_,comdat
	.align	2
	.weak	_ZNSt6vectorIiSaIiEE17_S_check_init_lenEmRKS0_
	.type	_ZNSt6vectorIiSaIiEE17_S_check_init_lenEmRKS0_, %function
_ZNSt6vectorIiSaIiEE17_S_check_init_lenEmRKS0_:
.LFB6217:
	.cfi_startproc
	stp	x29, x30, [sp, -64]!
	.cfi_def_cfa_offset 64
	.cfi_offset 29, -64
	.cfi_offset 30, -56
	mov	x29, sp
	str	x19, [sp, 16]
	.cfi_offset 19, -48
	str	x0, [sp, 40]
	str	x1, [sp, 32]
	adrp	x0, :got:__stack_chk_guard
	ldr	x0, [x0, #:got_lo12:__stack_chk_guard]
	ldr	x1, [x0]
	str	x1, [sp, 56]
	mov	x1, 0
	add	x0, sp, 48
	ldr	x1, [sp, 32]
	bl	_ZNSaIiEC1ERKS_
	add	x0, sp, 48
	bl	_ZNSt6vectorIiSaIiEE11_S_max_sizeERKS0_
	mov	x1, x0
	ldr	x0, [sp, 40]
	cmp	x0, x1
	cset	w0, hi
	and	w19, w0, 255
	add	x0, sp, 48
	bl	_ZNSaIiED1Ev
	cmp	w19, 0
	beq	.L98
	adrp	x0, .LC2
	add	x0, x0, :lo12:.LC2
	bl	_ZSt20__throw_length_errorPKc
.L98:
	ldr	x0, [sp, 40]
	mov	x1, x0
	adrp	x0, :got:__stack_chk_guard
	ldr	x0, [x0, #:got_lo12:__stack_chk_guard]
	ldr	x3, [sp, 56]
	ldr	x2, [x0]
	subs	x3, x3, x2
	mov	x2, 0
	beq	.L100
	bl	__stack_chk_fail
.L100:
	mov	x0, x1
	ldr	x19, [sp, 16]
	ldp	x29, x30, [sp], 64
	.cfi_restore 30
	.cfi_restore 29
	.cfi_restore 19
	.cfi_def_cfa_offset 0
	ret
	.cfi_endproc
.LFE6217:
	.size	_ZNSt6vectorIiSaIiEE17_S_check_init_lenEmRKS0_, .-_ZNSt6vectorIiSaIiEE17_S_check_init_lenEmRKS0_
	.section	.text._ZNSt12_Vector_baseIiSaIiEE11_M_allocateEm,"axG",@progbits,_ZNSt12_Vector_baseIiSaIiEE11_M_allocateEm,comdat
	.align	2
	.weak	_ZNSt12_Vector_baseIiSaIiEE11_M_allocateEm
	.type	_ZNSt12_Vector_baseIiSaIiEE11_M_allocateEm, %function
_ZNSt12_Vector_baseIiSaIiEE11_M_allocateEm:
.LFB6218:
	.cfi_startproc
	stp	x29, x30, [sp, -32]!
	.cfi_def_cfa_offset 32
	.cfi_offset 29, -32
	.cfi_offset 30, -24
	mov	x29, sp
	str	x0, [sp, 24]
	str	x1, [sp, 16]
	ldr	x0, [sp, 16]
	cmp	x0, 0
	beq	.L102
	ldr	x0, [sp, 24]
	ldr	x1, [sp, 16]
	bl	_ZNSt16allocator_traitsISaIiEE8allocateERS0_m
	b	.L104
.L102:
	mov	x0, 0
.L104:
	ldp	x29, x30, [sp], 32
	.cfi_restore 30
	.cfi_restore 29
	.cfi_def_cfa_offset 0
	ret
	.cfi_endproc
.LFE6218:
	.size	_ZNSt12_Vector_baseIiSaIiEE11_M_allocateEm, .-_ZNSt12_Vector_baseIiSaIiEE11_M_allocateEm
	.section	.text._ZSt22__uninitialized_copy_aIPKiPiiET0_T_S4_S3_RSaIT1_E,"axG",@progbits,_ZSt22__uninitialized_copy_aIPKiPiiET0_T_S4_S3_RSaIT1_E,comdat
	.align	2
	.weak	_ZSt22__uninitialized_copy_aIPKiPiiET0_T_S4_S3_RSaIT1_E
	.type	_ZSt22__uninitialized_copy_aIPKiPiiET0_T_S4_S3_RSaIT1_E, %function
_ZSt22__uninitialized_copy_aIPKiPiiET0_T_S4_S3_RSaIT1_E:
.LFB6219:
	.cfi_startproc
	stp	x29, x30, [sp, -48]!
	.cfi_def_cfa_offset 48
	.cfi_offset 29, -48
	.cfi_offset 30, -40
	mov	x29, sp
	str	x0, [sp, 40]
	str	x1, [sp, 32]
	str	x2, [sp, 24]
	str	x3, [sp, 16]
	ldr	x2, [sp, 24]
	ldr	x1, [sp, 32]
	ldr	x0, [sp, 40]
	bl	_ZSt18uninitialized_copyIPKiPiET0_T_S4_S3_
	ldp	x29, x30, [sp], 48
	.cfi_restore 30
	.cfi_restore 29
	.cfi_def_cfa_offset 0
	ret
	.cfi_endproc
.LFE6219:
	.size	_ZSt22__uninitialized_copy_aIPKiPiiET0_T_S4_S3_RSaIT1_E, .-_ZSt22__uninitialized_copy_aIPKiPiiET0_T_S4_S3_RSaIT1_E
	.section	.text._ZSt8_DestroyIPiEvT_S1_,"axG",@progbits,_ZSt8_DestroyIPiEvT_S1_,comdat
	.align	2
	.weak	_ZSt8_DestroyIPiEvT_S1_
	.type	_ZSt8_DestroyIPiEvT_S1_, %function
_ZSt8_DestroyIPiEvT_S1_:
.LFB6220:
	.cfi_startproc
	stp	x29, x30, [sp, -32]!
	.cfi_def_cfa_offset 32
	.cfi_offset 29, -32
	.cfi_offset 30, -24
	mov	x29, sp
	str	x0, [sp, 24]
	str	x1, [sp, 16]
	ldr	x1, [sp, 16]
	ldr	x0, [sp, 24]
	bl	_ZNSt12_Destroy_auxILb1EE9__destroyIPiEEvT_S3_
	nop
	ldp	x29, x30, [sp], 32
	.cfi_restore 30
	.cfi_restore 29
	.cfi_def_cfa_offset 0
	ret
	.cfi_endproc
.LFE6220:
	.size	_ZSt8_DestroyIPiEvT_S1_, .-_ZSt8_DestroyIPiEvT_S1_
	.section	.text._ZN5boost6tuples4consINS_6lambda14lambda_functorINS2_11placeholderILi1EEEEENS1_IKiNS0_9null_typeEEEEC2IKS6_S7_KS8_SD_SD_SD_SD_SD_SD_SD_EERT_RT0_RT1_RT2_RT3_RT4_RT5_RT6_RT7_RT8_,"axG",@progbits,_ZN5boost6tuples4consINS_6lambda14lambda_functorINS2_11placeholderILi1EEEEENS1_IKiNS0_9null_typeEEEEC5IKS6_S7_KS8_SD_SD_SD_SD_SD_SD_SD_EERT_RT0_RT1_RT2_RT3_RT4_RT5_RT6_RT7_RT8_,comdat
	.align	2
	.weak	_ZN5boost6tuples4consINS_6lambda14lambda_functorINS2_11placeholderILi1EEEEENS1_IKiNS0_9null_typeEEEEC2IKS6_S7_KS8_SD_SD_SD_SD_SD_SD_SD_EERT_RT0_RT1_RT2_RT3_RT4_RT5_RT6_RT7_RT8_
	.type	_ZN5boost6tuples4consINS_6lambda14lambda_functorINS2_11placeholderILi1EEEEENS1_IKiNS0_9null_typeEEEEC2IKS6_S7_KS8_SD_SD_SD_SD_SD_SD_SD_EERT_RT0_RT1_RT2_RT3_RT4_RT5_RT6_RT7_RT8_, %function
_ZN5boost6tuples4consINS_6lambda14lambda_functorINS2_11placeholderILi1EEEEENS1_IKiNS0_9null_typeEEEEC2IKS6_S7_KS8_SD_SD_SD_SD_SD_SD_SD_EERT_RT0_RT1_RT2_RT3_RT4_RT5_RT6_RT7_RT8_:
.LFB6223:
	.cfi_startproc
	sub	sp, sp, #176
	.cfi_def_cfa_offset 176
	stp	x29, x30, [sp, 32]
	.cfi_offset 29, -144
	.cfi_offset 30, -136
	add	x29, sp, 32
	str	x19, [sp, 48]
	.cfi_offset 19, -128
	str	x0, [sp, 152]
	str	x1, [sp, 144]
	str	x2, [sp, 136]
	str	x3, [sp, 128]
	str	x4, [sp, 120]
	str	x5, [sp, 112]
	str	x6, [sp, 104]
	str	x7, [sp, 96]
	ldr	x0, [sp, 176]
	str	x0, [sp, 88]
	ldr	x0, [sp, 184]
	str	x0, [sp, 80]
	ldr	x0, [sp, 192]
	str	x0, [sp, 72]
	adrp	x0, :got:__stack_chk_guard
	ldr	x0, [x0, #:got_lo12:__stack_chk_guard]
	ldr	x1, [x0]
	str	x1, [sp, 168]
	mov	x1, 0
	ldr	x0, [sp, 152]
	ldr	x1, [sp, 144]
	bl	_ZN5boost6lambda14lambda_functorINS0_11placeholderILi1EEEEC1ERKS4_
	ldr	x0, [sp, 152]
	add	x19, x0, 4
	bl	_ZN5boost6tuples6detail5cnullEv
	add	x0, sp, 160
	str	x0, [sp, 16]
	ldr	x0, [sp, 72]
	str	x0, [sp, 8]
	ldr	x0, [sp, 80]
	str	x0, [sp]
	ldr	x7, [sp, 88]
	ldr	x6, [sp, 96]
	ldr	x5, [sp, 104]
	ldr	x4, [sp, 112]
	ldr	x3, [sp, 120]
	ldr	x2, [sp, 128]
	ldr	x1, [sp, 136]
	mov	x0, x19
	bl	_ZN5boost6tuples4consIKiNS0_9null_typeEEC1IS2_EERT_RKS3_S9_S9_S9_S9_S9_S9_S9_S9_
	nop
	adrp	x0, :got:__stack_chk_guard
	ldr	x0, [x0, #:got_lo12:__stack_chk_guard]
	ldr	x2, [sp, 168]
	ldr	x1, [x0]
	subs	x2, x2, x1
	mov	x1, 0
	beq	.L109
	bl	__stack_chk_fail
.L109:
	ldr	x19, [sp, 48]
	ldp	x29, x30, [sp, 32]
	add	sp, sp, 176
	.cfi_restore 29
	.cfi_restore 30
	.cfi_restore 19
	.cfi_def_cfa_offset 0
	ret
	.cfi_endproc
.LFE6223:
	.size	_ZN5boost6tuples4consINS_6lambda14lambda_functorINS2_11placeholderILi1EEEEENS1_IKiNS0_9null_typeEEEEC2IKS6_S7_KS8_SD_SD_SD_SD_SD_SD_SD_EERT_RT0_RT1_RT2_RT3_RT4_RT5_RT6_RT7_RT8_, .-_ZN5boost6tuples4consINS_6lambda14lambda_functorINS2_11placeholderILi1EEEEENS1_IKiNS0_9null_typeEEEEC2IKS6_S7_KS8_SD_SD_SD_SD_SD_SD_SD_EERT_RT0_RT1_RT2_RT3_RT4_RT5_RT6_RT7_RT8_
	.weak	_ZN5boost6tuples4consINS_6lambda14lambda_functorINS2_11placeholderILi1EEEEENS1_IKiNS0_9null_typeEEEEC1IKS6_S7_KS8_SD_SD_SD_SD_SD_SD_SD_EERT_RT0_RT1_RT2_RT3_RT4_RT5_RT6_RT7_RT8_
	.set	_ZN5boost6tuples4consINS_6lambda14lambda_functorINS2_11placeholderILi1EEEEENS1_IKiNS0_9null_typeEEEEC1IKS6_S7_KS8_SD_SD_SD_SD_SD_SD_SD_EERT_RT0_RT1_RT2_RT3_RT4_RT5_RT6_RT7_RT8_,_ZN5boost6tuples4consINS_6lambda14lambda_functorINS2_11placeholderILi1EEEEENS1_IKiNS0_9null_typeEEEEC2IKS6_S7_KS8_SD_SD_SD_SD_SD_SD_SD_EERT_RT0_RT1_RT2_RT3_RT4_RT5_RT6_RT7_RT8_
	.section	.text._ZN5boost6tuples4consINS_6lambda14lambda_functorINS2_11placeholderILi1EEEEENS1_IKiNS0_9null_typeEEEEC2ERKSA_,"axG",@progbits,_ZN5boost6tuples4consINS_6lambda14lambda_functorINS2_11placeholderILi1EEEEENS1_IKiNS0_9null_typeEEEEC5ERKSA_,comdat
	.align	2
	.weak	_ZN5boost6tuples4consINS_6lambda14lambda_functorINS2_11placeholderILi1EEEEENS1_IKiNS0_9null_typeEEEEC2ERKSA_
	.type	_ZN5boost6tuples4consINS_6lambda14lambda_functorINS2_11placeholderILi1EEEEENS1_IKiNS0_9null_typeEEEEC2ERKSA_, %function
_ZN5boost6tuples4consINS_6lambda14lambda_functorINS2_11placeholderILi1EEEEENS1_IKiNS0_9null_typeEEEEC2ERKSA_:
.LFB6226:
	.cfi_startproc
	stp	x29, x30, [sp, -32]!
	.cfi_def_cfa_offset 32
	.cfi_offset 29, -32
	.cfi_offset 30, -24
	mov	x29, sp
	str	x0, [sp, 24]
	str	x1, [sp, 16]
	ldr	x0, [sp, 24]
	ldr	x1, [sp, 16]
	bl	_ZN5boost6lambda14lambda_functorINS0_11placeholderILi1EEEEC1ERKS4_
	ldr	x0, [sp, 24]
	add	x2, x0, 4
	ldr	x0, [sp, 16]
	add	x0, x0, 4
	mov	x1, x0
	mov	x0, x2
	bl	_ZN5boost6tuples4consIKiNS0_9null_typeEEC1ERKS4_
	nop
	ldp	x29, x30, [sp], 32
	.cfi_restore 30
	.cfi_restore 29
	.cfi_def_cfa_offset 0
	ret
	.cfi_endproc
.LFE6226:
	.size	_ZN5boost6tuples4consINS_6lambda14lambda_functorINS2_11placeholderILi1EEEEENS1_IKiNS0_9null_typeEEEEC2ERKSA_, .-_ZN5boost6tuples4consINS_6lambda14lambda_functorINS2_11placeholderILi1EEEEENS1_IKiNS0_9null_typeEEEEC2ERKSA_
	.weak	_ZN5boost6tuples4consINS_6lambda14lambda_functorINS2_11placeholderILi1EEEEENS1_IKiNS0_9null_typeEEEEC1ERKSA_
	.set	_ZN5boost6tuples4consINS_6lambda14lambda_functorINS2_11placeholderILi1EEEEENS1_IKiNS0_9null_typeEEEEC1ERKSA_,_ZN5boost6tuples4consINS_6lambda14lambda_functorINS2_11placeholderILi1EEEEENS1_IKiNS0_9null_typeEEEEC2ERKSA_
	.section	.text._ZN5boost6tuples4consIRSoNS1_INS_6lambda14lambda_functorINS3_19lambda_functor_baseINS3_17arithmetic_actionINS3_15multiply_actionEEENS0_5tupleINS4_INS3_11placeholderILi1EEEEEKiNS0_9null_typeESE_SE_SE_SE_SE_SE_SE_EEEEEESE_EEEC2ISoKSH_KSE_SM_SM_SM_SM_SM_SM_SM_EERT_RT0_RT1_RT2_RT3_RT4_RT5_RT6_RT7_RT8_,"axG",@progbits,_ZN5boost6tuples4consIRSoNS1_INS_6lambda14lambda_functorINS3_19lambda_functor_baseINS3_17arithmetic_actionINS3_15multiply_actionEEENS0_5tupleINS4_INS3_11placeholderILi1EEEEEKiNS0_9null_typeESE_SE_SE_SE_SE_SE_SE_EEEEEESE_EEEC5ISoKSH_KSE_SM_SM_SM_SM_SM_SM_SM_EERT_RT0_RT1_RT2_RT3_RT4_RT5_RT6_RT7_RT8_,comdat
	.align	2
	.weak	_ZN5boost6tuples4consIRSoNS1_INS_6lambda14lambda_functorINS3_19lambda_functor_baseINS3_17arithmetic_actionINS3_15multiply_actionEEENS0_5tupleINS4_INS3_11placeholderILi1EEEEEKiNS0_9null_typeESE_SE_SE_SE_SE_SE_SE_EEEEEESE_EEEC2ISoKSH_KSE_SM_SM_SM_SM_SM_SM_SM_EERT_RT0_RT1_RT2_RT3_RT4_RT5_RT6_RT7_RT8_
	.type	_ZN5boost6tuples4consIRSoNS1_INS_6lambda14lambda_functorINS3_19lambda_functor_baseINS3_17arithmetic_actionINS3_15multiply_actionEEENS0_5tupleINS4_INS3_11placeholderILi1EEEEEKiNS0_9null_typeESE_SE_SE_SE_SE_SE_SE_EEEEEESE_EEEC2ISoKSH_KSE_SM_SM_SM_SM_SM_SM_SM_EERT_RT0_RT1_RT2_RT3_RT4_RT5_RT6_RT7_RT8_, %function
_ZN5boost6tuples4consIRSoNS1_INS_6lambda14lambda_functorINS3_19lambda_functor_baseINS3_17arithmetic_actionINS3_15multiply_actionEEENS0_5tupleINS4_INS3_11placeholderILi1EEEEEKiNS0_9null_typeESE_SE_SE_SE_SE_SE_SE_EEEEEESE_EEEC2ISoKSH_KSE_SM_SM_SM_SM_SM_SM_SM_EERT_RT0_RT1_RT2_RT3_RT4_RT5_RT6_RT7_RT8_:
.LFB6229:
	.cfi_startproc
	sub	sp, sp, #176
	.cfi_def_cfa_offset 176
	stp	x29, x30, [sp, 32]
	.cfi_offset 29, -144
	.cfi_offset 30, -136
	add	x29, sp, 32
	str	x19, [sp, 48]
	.cfi_offset 19, -128
	str	x0, [sp, 152]
	str	x1, [sp, 144]
	str	x2, [sp, 136]
	str	x3, [sp, 128]
	str	x4, [sp, 120]
	str	x5, [sp, 112]
	str	x6, [sp, 104]
	str	x7, [sp, 96]
	ldr	x0, [sp, 176]
	str	x0, [sp, 88]
	ldr	x0, [sp, 184]
	str	x0, [sp, 80]
	ldr	x0, [sp, 192]
	str	x0, [sp, 72]
	adrp	x0, :got:__stack_chk_guard
	ldr	x0, [x0, #:got_lo12:__stack_chk_guard]
	ldr	x1, [x0]
	str	x1, [sp, 168]
	mov	x1, 0
	ldr	x0, [sp, 152]
	ldr	x1, [sp, 144]
	str	x1, [x0]
	ldr	x0, [sp, 152]
	add	x19, x0, 8
	bl	_ZN5boost6tuples6detail5cnullEv
	add	x0, sp, 160
	str	x0, [sp, 16]
	ldr	x0, [sp, 72]
	str	x0, [sp, 8]
	ldr	x0, [sp, 80]
	str	x0, [sp]
	ldr	x7, [sp, 88]
	ldr	x6, [sp, 96]
	ldr	x5, [sp, 104]
	ldr	x4, [sp, 112]
	ldr	x3, [sp, 120]
	ldr	x2, [sp, 128]
	ldr	x1, [sp, 136]
	mov	x0, x19
	bl	_ZN5boost6tuples4consINS_6lambda14lambda_functorINS2_19lambda_functor_baseINS2_17arithmetic_actionINS2_15multiply_actionEEENS0_5tupleINS3_INS2_11placeholderILi1EEEEEKiNS0_9null_typeESD_SD_SD_SD_SD_SD_SD_EEEEEESD_EC1IKSG_EERT_RKSD_SN_SN_SN_SN_SN_SN_SN_SN_
	nop
	adrp	x0, :got:__stack_chk_guard
	ldr	x0, [x0, #:got_lo12:__stack_chk_guard]
	ldr	x2, [sp, 168]
	ldr	x1, [x0]
	subs	x2, x2, x1
	mov	x1, 0
	beq	.L112
	bl	__stack_chk_fail
.L112:
	ldr	x19, [sp, 48]
	ldp	x29, x30, [sp, 32]
	add	sp, sp, 176
	.cfi_restore 29
	.cfi_restore 30
	.cfi_restore 19
	.cfi_def_cfa_offset 0
	ret
	.cfi_endproc
.LFE6229:
	.size	_ZN5boost6tuples4consIRSoNS1_INS_6lambda14lambda_functorINS3_19lambda_functor_baseINS3_17arithmetic_actionINS3_15multiply_actionEEENS0_5tupleINS4_INS3_11placeholderILi1EEEEEKiNS0_9null_typeESE_SE_SE_SE_SE_SE_SE_EEEEEESE_EEEC2ISoKSH_KSE_SM_SM_SM_SM_SM_SM_SM_EERT_RT0_RT1_RT2_RT3_RT4_RT5_RT6_RT7_RT8_, .-_ZN5boost6tuples4consIRSoNS1_INS_6lambda14lambda_functorINS3_19lambda_functor_baseINS3_17arithmetic_actionINS3_15multiply_actionEEENS0_5tupleINS4_INS3_11placeholderILi1EEEEEKiNS0_9null_typeESE_SE_SE_SE_SE_SE_SE_EEEEEESE_EEEC2ISoKSH_KSE_SM_SM_SM_SM_SM_SM_SM_EERT_RT0_RT1_RT2_RT3_RT4_RT5_RT6_RT7_RT8_
	.weak	_ZN5boost6tuples4consIRSoNS1_INS_6lambda14lambda_functorINS3_19lambda_functor_baseINS3_17arithmetic_actionINS3_15multiply_actionEEENS0_5tupleINS4_INS3_11placeholderILi1EEEEEKiNS0_9null_typeESE_SE_SE_SE_SE_SE_SE_EEEEEESE_EEEC1ISoKSH_KSE_SM_SM_SM_SM_SM_SM_SM_EERT_RT0_RT1_RT2_RT3_RT4_RT5_RT6_RT7_RT8_
	.set	_ZN5boost6tuples4consIRSoNS1_INS_6lambda14lambda_functorINS3_19lambda_functor_baseINS3_17arithmetic_actionINS3_15multiply_actionEEENS0_5tupleINS4_INS3_11placeholderILi1EEEEEKiNS0_9null_typeESE_SE_SE_SE_SE_SE_SE_EEEEEESE_EEEC1ISoKSH_KSE_SM_SM_SM_SM_SM_SM_SM_EERT_RT0_RT1_RT2_RT3_RT4_RT5_RT6_RT7_RT8_,_ZN5boost6tuples4consIRSoNS1_INS_6lambda14lambda_functorINS3_19lambda_functor_baseINS3_17arithmetic_actionINS3_15multiply_actionEEENS0_5tupleINS4_INS3_11placeholderILi1EEEEEKiNS0_9null_typeESE_SE_SE_SE_SE_SE_SE_EEEEEESE_EEEC2ISoKSH_KSE_SM_SM_SM_SM_SM_SM_SM_EERT_RT0_RT1_RT2_RT3_RT4_RT5_RT6_RT7_RT8_
	.section	.text._ZN5boost6tuples4consIRSoNS1_INS_6lambda14lambda_functorINS3_19lambda_functor_baseINS3_17arithmetic_actionINS3_15multiply_actionEEENS0_5tupleINS4_INS3_11placeholderILi1EEEEEKiNS0_9null_typeESE_SE_SE_SE_SE_SE_SE_EEEEEESE_EEEC2ERKSJ_,"axG",@progbits,_ZN5boost6tuples4consIRSoNS1_INS_6lambda14lambda_functorINS3_19lambda_functor_baseINS3_17arithmetic_actionINS3_15multiply_actionEEENS0_5tupleINS4_INS3_11placeholderILi1EEEEEKiNS0_9null_typeESE_SE_SE_SE_SE_SE_SE_EEEEEESE_EEEC5ERKSJ_,comdat
	.align	2
	.weak	_ZN5boost6tuples4consIRSoNS1_INS_6lambda14lambda_functorINS3_19lambda_functor_baseINS3_17arithmetic_actionINS3_15multiply_actionEEENS0_5tupleINS4_INS3_11placeholderILi1EEEEEKiNS0_9null_typeESE_SE_SE_SE_SE_SE_SE_EEEEEESE_EEEC2ERKSJ_
	.type	_ZN5boost6tuples4consIRSoNS1_INS_6lambda14lambda_functorINS3_19lambda_functor_baseINS3_17arithmetic_actionINS3_15multiply_actionEEENS0_5tupleINS4_INS3_11placeholderILi1EEEEEKiNS0_9null_typeESE_SE_SE_SE_SE_SE_SE_EEEEEESE_EEEC2ERKSJ_, %function
_ZN5boost6tuples4consIRSoNS1_INS_6lambda14lambda_functorINS3_19lambda_functor_baseINS3_17arithmetic_actionINS3_15multiply_actionEEENS0_5tupleINS4_INS3_11placeholderILi1EEEEEKiNS0_9null_typeESE_SE_SE_SE_SE_SE_SE_EEEEEESE_EEEC2ERKSJ_:
.LFB6232:
	.cfi_startproc
	stp	x29, x30, [sp, -32]!
	.cfi_def_cfa_offset 32
	.cfi_offset 29, -32
	.cfi_offset 30, -24
	mov	x29, sp
	str	x0, [sp, 24]
	str	x1, [sp, 16]
	ldr	x0, [sp, 16]
	ldr	x1, [x0]
	ldr	x0, [sp, 24]
	str	x1, [x0]
	ldr	x0, [sp, 24]
	add	x2, x0, 8
	ldr	x0, [sp, 16]
	add	x0, x0, 8
	mov	x1, x0
	mov	x0, x2
	bl	_ZN5boost6tuples4consINS_6lambda14lambda_functorINS2_19lambda_functor_baseINS2_17arithmetic_actionINS2_15multiply_actionEEENS0_5tupleINS3_INS2_11placeholderILi1EEEEEKiNS0_9null_typeESD_SD_SD_SD_SD_SD_SD_EEEEEESD_EC1ERKSH_
	nop
	ldp	x29, x30, [sp], 32
	.cfi_restore 30
	.cfi_restore 29
	.cfi_def_cfa_offset 0
	ret
	.cfi_endproc
.LFE6232:
	.size	_ZN5boost6tuples4consIRSoNS1_INS_6lambda14lambda_functorINS3_19lambda_functor_baseINS3_17arithmetic_actionINS3_15multiply_actionEEENS0_5tupleINS4_INS3_11placeholderILi1EEEEEKiNS0_9null_typeESE_SE_SE_SE_SE_SE_SE_EEEEEESE_EEEC2ERKSJ_, .-_ZN5boost6tuples4consIRSoNS1_INS_6lambda14lambda_functorINS3_19lambda_functor_baseINS3_17arithmetic_actionINS3_15multiply_actionEEENS0_5tupleINS4_INS3_11placeholderILi1EEEEEKiNS0_9null_typeESE_SE_SE_SE_SE_SE_SE_EEEEEESE_EEEC2ERKSJ_
	.weak	_ZN5boost6tuples4consIRSoNS1_INS_6lambda14lambda_functorINS3_19lambda_functor_baseINS3_17arithmetic_actionINS3_15multiply_actionEEENS0_5tupleINS4_INS3_11placeholderILi1EEEEEKiNS0_9null_typeESE_SE_SE_SE_SE_SE_SE_EEEEEESE_EEEC1ERKSJ_
	.set	_ZN5boost6tuples4consIRSoNS1_INS_6lambda14lambda_functorINS3_19lambda_functor_baseINS3_17arithmetic_actionINS3_15multiply_actionEEENS0_5tupleINS4_INS3_11placeholderILi1EEEEEKiNS0_9null_typeESE_SE_SE_SE_SE_SE_SE_EEEEEESE_EEEC1ERKSJ_,_ZN5boost6tuples4consIRSoNS1_INS_6lambda14lambda_functorINS3_19lambda_functor_baseINS3_17arithmetic_actionINS3_15multiply_actionEEENS0_5tupleINS4_INS3_11placeholderILi1EEEEEKiNS0_9null_typeESE_SE_SE_SE_SE_SE_SE_EEEEEESE_EEEC2ERKSJ_
	.section	.text._ZN5boost6tuples4consINS_6lambda14lambda_functorINS2_19lambda_functor_baseINS2_14bitwise_actionINS2_16leftshift_actionEEENS0_5tupleIRSoNS3_INS4_INS2_17arithmetic_actionINS2_15multiply_actionEEENS8_INS3_INS2_11placeholderILi1EEEEEKiNS0_9null_typeESH_SH_SH_SH_SH_SH_SH_EEEEEESH_SH_SH_SH_SH_SH_SH_SH_EEEEEENS1_IRA2_KcSH_EEEC2IKSN_SP_KSH_SV_SV_SV_SV_SV_SV_SV_EERT_RT0_RT1_RT2_RT3_RT4_RT5_RT6_RT7_RT8_,"axG",@progbits,_ZN5boost6tuples4consINS_6lambda14lambda_functorINS2_19lambda_functor_baseINS2_14bitwise_actionINS2_16leftshift_actionEEENS0_5tupleIRSoNS3_INS4_INS2_17arithmetic_actionINS2_15multiply_actionEEENS8_INS3_INS2_11placeholderILi1EEEEEKiNS0_9null_typeESH_SH_SH_SH_SH_SH_SH_EEEEEESH_SH_SH_SH_SH_SH_SH_SH_EEEEEENS1_IRA2_KcSH_EEEC5IKSN_SP_KSH_SV_SV_SV_SV_SV_SV_SV_EERT_RT0_RT1_RT2_RT3_RT4_RT5_RT6_RT7_RT8_,comdat
	.align	2
	.weak	_ZN5boost6tuples4consINS_6lambda14lambda_functorINS2_19lambda_functor_baseINS2_14bitwise_actionINS2_16leftshift_actionEEENS0_5tupleIRSoNS3_INS4_INS2_17arithmetic_actionINS2_15multiply_actionEEENS8_INS3_INS2_11placeholderILi1EEEEEKiNS0_9null_typeESH_SH_SH_SH_SH_SH_SH_EEEEEESH_SH_SH_SH_SH_SH_SH_SH_EEEEEENS1_IRA2_KcSH_EEEC2IKSN_SP_KSH_SV_SV_SV_SV_SV_SV_SV_EERT_RT0_RT1_RT2_RT3_RT4_RT5_RT6_RT7_RT8_
	.type	_ZN5boost6tuples4consINS_6lambda14lambda_functorINS2_19lambda_functor_baseINS2_14bitwise_actionINS2_16leftshift_actionEEENS0_5tupleIRSoNS3_INS4_INS2_17arithmetic_actionINS2_15multiply_actionEEENS8_INS3_INS2_11placeholderILi1EEEEEKiNS0_9null_typeESH_SH_SH_SH_SH_SH_SH_EEEEEESH_SH_SH_SH_SH_SH_SH_SH_EEEEEENS1_IRA2_KcSH_EEEC2IKSN_SP_KSH_SV_SV_SV_SV_SV_SV_SV_EERT_RT0_RT1_RT2_RT3_RT4_RT5_RT6_RT7_RT8_, %function
_ZN5boost6tuples4consINS_6lambda14lambda_functorINS2_19lambda_functor_baseINS2_14bitwise_actionINS2_16leftshift_actionEEENS0_5tupleIRSoNS3_INS4_INS2_17arithmetic_actionINS2_15multiply_actionEEENS8_INS3_INS2_11placeholderILi1EEEEEKiNS0_9null_typeESH_SH_SH_SH_SH_SH_SH_EEEEEESH_SH_SH_SH_SH_SH_SH_SH_EEEEEENS1_IRA2_KcSH_EEEC2IKSN_SP_KSH_SV_SV_SV_SV_SV_SV_SV_EERT_RT0_RT1_RT2_RT3_RT4_RT5_RT6_RT7_RT8_:
.LFB6235:
	.cfi_startproc
	sub	sp, sp, #176
	.cfi_def_cfa_offset 176
	stp	x29, x30, [sp, 32]
	.cfi_offset 29, -144
	.cfi_offset 30, -136
	add	x29, sp, 32
	str	x19, [sp, 48]
	.cfi_offset 19, -128
	str	x0, [sp, 152]
	str	x1, [sp, 144]
	str	x2, [sp, 136]
	str	x3, [sp, 128]
	str	x4, [sp, 120]
	str	x5, [sp, 112]
	str	x6, [sp, 104]
	str	x7, [sp, 96]
	ldr	x0, [sp, 176]
	str	x0, [sp, 88]
	ldr	x0, [sp, 184]
	str	x0, [sp, 80]
	ldr	x0, [sp, 192]
	str	x0, [sp, 72]
	adrp	x0, :got:__stack_chk_guard
	ldr	x0, [x0, #:got_lo12:__stack_chk_guard]
	ldr	x1, [x0]
	str	x1, [sp, 168]
	mov	x1, 0
	ldr	x0, [sp, 152]
	ldr	x1, [sp, 144]
	bl	_ZN5boost6lambda14lambda_functorINS0_19lambda_functor_baseINS0_14bitwise_actionINS0_16leftshift_actionEEENS_6tuples5tupleIRSoNS1_INS2_INS0_17arithmetic_actionINS0_15multiply_actionEEENS7_INS1_INS0_11placeholderILi1EEEEEKiNS6_9null_typeESG_SG_SG_SG_SG_SG_SG_EEEEEESG_SG_SG_SG_SG_SG_SG_SG_EEEEEC1ERKSM_
	ldr	x0, [sp, 152]
	add	x19, x0, 16
	bl	_ZN5boost6tuples6detail5cnullEv
	add	x0, sp, 160
	str	x0, [sp, 16]
	ldr	x0, [sp, 72]
	str	x0, [sp, 8]
	ldr	x0, [sp, 80]
	str	x0, [sp]
	ldr	x7, [sp, 88]
	ldr	x6, [sp, 96]
	ldr	x5, [sp, 104]
	ldr	x4, [sp, 112]
	ldr	x3, [sp, 120]
	ldr	x2, [sp, 128]
	ldr	x1, [sp, 136]
	mov	x0, x19
	bl	_ZN5boost6tuples4consIRA2_KcNS0_9null_typeEEC1IS3_EERT_RKS5_SB_SB_SB_SB_SB_SB_SB_SB_
	nop
	adrp	x0, :got:__stack_chk_guard
	ldr	x0, [x0, #:got_lo12:__stack_chk_guard]
	ldr	x2, [sp, 168]
	ldr	x1, [x0]
	subs	x2, x2, x1
	mov	x1, 0
	beq	.L115
	bl	__stack_chk_fail
.L115:
	ldr	x19, [sp, 48]
	ldp	x29, x30, [sp, 32]
	add	sp, sp, 176
	.cfi_restore 29
	.cfi_restore 30
	.cfi_restore 19
	.cfi_def_cfa_offset 0
	ret
	.cfi_endproc
.LFE6235:
	.size	_ZN5boost6tuples4consINS_6lambda14lambda_functorINS2_19lambda_functor_baseINS2_14bitwise_actionINS2_16leftshift_actionEEENS0_5tupleIRSoNS3_INS4_INS2_17arithmetic_actionINS2_15multiply_actionEEENS8_INS3_INS2_11placeholderILi1EEEEEKiNS0_9null_typeESH_SH_SH_SH_SH_SH_SH_EEEEEESH_SH_SH_SH_SH_SH_SH_SH_EEEEEENS1_IRA2_KcSH_EEEC2IKSN_SP_KSH_SV_SV_SV_SV_SV_SV_SV_EERT_RT0_RT1_RT2_RT3_RT4_RT5_RT6_RT7_RT8_, .-_ZN5boost6tuples4consINS_6lambda14lambda_functorINS2_19lambda_functor_baseINS2_14bitwise_actionINS2_16leftshift_actionEEENS0_5tupleIRSoNS3_INS4_INS2_17arithmetic_actionINS2_15multiply_actionEEENS8_INS3_INS2_11placeholderILi1EEEEEKiNS0_9null_typeESH_SH_SH_SH_SH_SH_SH_EEEEEESH_SH_SH_SH_SH_SH_SH_SH_EEEEEENS1_IRA2_KcSH_EEEC2IKSN_SP_KSH_SV_SV_SV_SV_SV_SV_SV_EERT_RT0_RT1_RT2_RT3_RT4_RT5_RT6_RT7_RT8_
	.weak	_ZN5boost6tuples4consINS_6lambda14lambda_functorINS2_19lambda_functor_baseINS2_14bitwise_actionINS2_16leftshift_actionEEENS0_5tupleIRSoNS3_INS4_INS2_17arithmetic_actionINS2_15multiply_actionEEENS8_INS3_INS2_11placeholderILi1EEEEEKiNS0_9null_typeESH_SH_SH_SH_SH_SH_SH_EEEEEESH_SH_SH_SH_SH_SH_SH_SH_EEEEEENS1_IRA2_KcSH_EEEC1IKSN_SP_KSH_SV_SV_SV_SV_SV_SV_SV_EERT_RT0_RT1_RT2_RT3_RT4_RT5_RT6_RT7_RT8_
	.set	_ZN5boost6tuples4consINS_6lambda14lambda_functorINS2_19lambda_functor_baseINS2_14bitwise_actionINS2_16leftshift_actionEEENS0_5tupleIRSoNS3_INS4_INS2_17arithmetic_actionINS2_15multiply_actionEEENS8_INS3_INS2_11placeholderILi1EEEEEKiNS0_9null_typeESH_SH_SH_SH_SH_SH_SH_EEEEEESH_SH_SH_SH_SH_SH_SH_SH_EEEEEENS1_IRA2_KcSH_EEEC1IKSN_SP_KSH_SV_SV_SV_SV_SV_SV_SV_EERT_RT0_RT1_RT2_RT3_RT4_RT5_RT6_RT7_RT8_,_ZN5boost6tuples4consINS_6lambda14lambda_functorINS2_19lambda_functor_baseINS2_14bitwise_actionINS2_16leftshift_actionEEENS0_5tupleIRSoNS3_INS4_INS2_17arithmetic_actionINS2_15multiply_actionEEENS8_INS3_INS2_11placeholderILi1EEEEEKiNS0_9null_typeESH_SH_SH_SH_SH_SH_SH_EEEEEESH_SH_SH_SH_SH_SH_SH_SH_EEEEEENS1_IRA2_KcSH_EEEC2IKSN_SP_KSH_SV_SV_SV_SV_SV_SV_SV_EERT_RT0_RT1_RT2_RT3_RT4_RT5_RT6_RT7_RT8_
	.section	.text._ZN5boost6tuples4consINS_6lambda14lambda_functorINS2_19lambda_functor_baseINS2_14bitwise_actionINS2_16leftshift_actionEEENS0_5tupleIRSoNS3_INS4_INS2_17arithmetic_actionINS2_15multiply_actionEEENS8_INS3_INS2_11placeholderILi1EEEEEKiNS0_9null_typeESH_SH_SH_SH_SH_SH_SH_EEEEEESH_SH_SH_SH_SH_SH_SH_SH_EEEEEENS1_IRA2_KcSH_EEEC2ERKSS_,"axG",@progbits,_ZN5boost6tuples4consINS_6lambda14lambda_functorINS2_19lambda_functor_baseINS2_14bitwise_actionINS2_16leftshift_actionEEENS0_5tupleIRSoNS3_INS4_INS2_17arithmetic_actionINS2_15multiply_actionEEENS8_INS3_INS2_11placeholderILi1EEEEEKiNS0_9null_typeESH_SH_SH_SH_SH_SH_SH_EEEEEESH_SH_SH_SH_SH_SH_SH_SH_EEEEEENS1_IRA2_KcSH_EEEC5ERKSS_,comdat
	.align	2
	.weak	_ZN5boost6tuples4consINS_6lambda14lambda_functorINS2_19lambda_functor_baseINS2_14bitwise_actionINS2_16leftshift_actionEEENS0_5tupleIRSoNS3_INS4_INS2_17arithmetic_actionINS2_15multiply_actionEEENS8_INS3_INS2_11placeholderILi1EEEEEKiNS0_9null_typeESH_SH_SH_SH_SH_SH_SH_EEEEEESH_SH_SH_SH_SH_SH_SH_SH_EEEEEENS1_IRA2_KcSH_EEEC2ERKSS_
	.type	_ZN5boost6tuples4consINS_6lambda14lambda_functorINS2_19lambda_functor_baseINS2_14bitwise_actionINS2_16leftshift_actionEEENS0_5tupleIRSoNS3_INS4_INS2_17arithmetic_actionINS2_15multiply_actionEEENS8_INS3_INS2_11placeholderILi1EEEEEKiNS0_9null_typeESH_SH_SH_SH_SH_SH_SH_EEEEEESH_SH_SH_SH_SH_SH_SH_SH_EEEEEENS1_IRA2_KcSH_EEEC2ERKSS_, %function
_ZN5boost6tuples4consINS_6lambda14lambda_functorINS2_19lambda_functor_baseINS2_14bitwise_actionINS2_16leftshift_actionEEENS0_5tupleIRSoNS3_INS4_INS2_17arithmetic_actionINS2_15multiply_actionEEENS8_INS3_INS2_11placeholderILi1EEEEEKiNS0_9null_typeESH_SH_SH_SH_SH_SH_SH_EEEEEESH_SH_SH_SH_SH_SH_SH_SH_EEEEEENS1_IRA2_KcSH_EEEC2ERKSS_:
.LFB6238:
	.cfi_startproc
	stp	x29, x30, [sp, -32]!
	.cfi_def_cfa_offset 32
	.cfi_offset 29, -32
	.cfi_offset 30, -24
	mov	x29, sp
	str	x0, [sp, 24]
	str	x1, [sp, 16]
	ldr	x0, [sp, 24]
	ldr	x1, [sp, 16]
	bl	_ZN5boost6lambda14lambda_functorINS0_19lambda_functor_baseINS0_14bitwise_actionINS0_16leftshift_actionEEENS_6tuples5tupleIRSoNS1_INS2_INS0_17arithmetic_actionINS0_15multiply_actionEEENS7_INS1_INS0_11placeholderILi1EEEEEKiNS6_9null_typeESG_SG_SG_SG_SG_SG_SG_EEEEEESG_SG_SG_SG_SG_SG_SG_SG_EEEEEC1ERKSM_
	ldr	x0, [sp, 24]
	add	x2, x0, 16
	ldr	x0, [sp, 16]
	add	x0, x0, 16
	mov	x1, x0
	mov	x0, x2
	bl	_ZN5boost6tuples4consIRA2_KcNS0_9null_typeEEC1ERKS6_
	nop
	ldp	x29, x30, [sp], 32
	.cfi_restore 30
	.cfi_restore 29
	.cfi_def_cfa_offset 0
	ret
	.cfi_endproc
.LFE6238:
	.size	_ZN5boost6tuples4consINS_6lambda14lambda_functorINS2_19lambda_functor_baseINS2_14bitwise_actionINS2_16leftshift_actionEEENS0_5tupleIRSoNS3_INS4_INS2_17arithmetic_actionINS2_15multiply_actionEEENS8_INS3_INS2_11placeholderILi1EEEEEKiNS0_9null_typeESH_SH_SH_SH_SH_SH_SH_EEEEEESH_SH_SH_SH_SH_SH_SH_SH_EEEEEENS1_IRA2_KcSH_EEEC2ERKSS_, .-_ZN5boost6tuples4consINS_6lambda14lambda_functorINS2_19lambda_functor_baseINS2_14bitwise_actionINS2_16leftshift_actionEEENS0_5tupleIRSoNS3_INS4_INS2_17arithmetic_actionINS2_15multiply_actionEEENS8_INS3_INS2_11placeholderILi1EEEEEKiNS0_9null_typeESH_SH_SH_SH_SH_SH_SH_EEEEEESH_SH_SH_SH_SH_SH_SH_SH_EEEEEENS1_IRA2_KcSH_EEEC2ERKSS_
	.weak	_ZN5boost6tuples4consINS_6lambda14lambda_functorINS2_19lambda_functor_baseINS2_14bitwise_actionINS2_16leftshift_actionEEENS0_5tupleIRSoNS3_INS4_INS2_17arithmetic_actionINS2_15multiply_actionEEENS8_INS3_INS2_11placeholderILi1EEEEEKiNS0_9null_typeESH_SH_SH_SH_SH_SH_SH_EEEEEESH_SH_SH_SH_SH_SH_SH_SH_EEEEEENS1_IRA2_KcSH_EEEC1ERKSS_
	.set	_ZN5boost6tuples4consINS_6lambda14lambda_functorINS2_19lambda_functor_baseINS2_14bitwise_actionINS2_16leftshift_actionEEENS0_5tupleIRSoNS3_INS4_INS2_17arithmetic_actionINS2_15multiply_actionEEENS8_INS3_INS2_11placeholderILi1EEEEEKiNS0_9null_typeESH_SH_SH_SH_SH_SH_SH_EEEEEESH_SH_SH_SH_SH_SH_SH_SH_EEEEEENS1_IRA2_KcSH_EEEC1ERKSS_,_ZN5boost6tuples4consINS_6lambda14lambda_functorINS2_19lambda_functor_baseINS2_14bitwise_actionINS2_16leftshift_actionEEENS0_5tupleIRSoNS3_INS4_INS2_17arithmetic_actionINS2_15multiply_actionEEENS8_INS3_INS2_11placeholderILi1EEEEEKiNS0_9null_typeESH_SH_SH_SH_SH_SH_SH_EEEEEESH_SH_SH_SH_SH_SH_SH_SH_EEEEEENS1_IRA2_KcSH_EEEC2ERKSS_
	.section	.text._ZNK9__gnu_cxx17__normal_iteratorIPiSt6vectorIiSaIiEEE4baseEv,"axG",@progbits,_ZNK9__gnu_cxx17__normal_iteratorIPiSt6vectorIiSaIiEEE4baseEv,comdat
	.align	2
	.weak	_ZNK9__gnu_cxx17__normal_iteratorIPiSt6vectorIiSaIiEEE4baseEv
	.type	_ZNK9__gnu_cxx17__normal_iteratorIPiSt6vectorIiSaIiEEE4baseEv, %function
_ZNK9__gnu_cxx17__normal_iteratorIPiSt6vectorIiSaIiEEE4baseEv:
.LFB6240:
	.cfi_startproc
	sub	sp, sp, #16
	.cfi_def_cfa_offset 16
	str	x0, [sp, 8]
	ldr	x0, [sp, 8]
	add	sp, sp, 16
	.cfi_def_cfa_offset 0
	ret
	.cfi_endproc
.LFE6240:
	.size	_ZNK9__gnu_cxx17__normal_iteratorIPiSt6vectorIiSaIiEEE4baseEv, .-_ZNK9__gnu_cxx17__normal_iteratorIPiSt6vectorIiSaIiEEE4baseEv
	.section	.text._ZNK5boost6lambda19lambda_functor_baseINS0_14bitwise_actionINS0_16leftshift_actionEEENS_6tuples5tupleINS0_14lambda_functorINS1_IS4_NS6_IRSoNS7_INS1_INS0_17arithmetic_actionINS0_15multiply_actionEEENS6_INS7_INS0_11placeholderILi1EEEEEKiNS5_9null_typeESG_SG_SG_SG_SG_SG_SG_EEEEEESG_SG_SG_SG_SG_SG_SG_SG_EEEEEERA2_KcSG_SG_SG_SG_SG_SG_SG_SG_EEE4callIS8_iKSG_ST_ST_EET_RT0_RT1_RT2_RT3_,"axG",@progbits,_ZNK5boost6lambda19lambda_functor_baseINS0_14bitwise_actionINS0_16leftshift_actionEEENS_6tuples5tupleINS0_14lambda_functorINS1_IS4_NS6_IRSoNS7_INS1_INS0_17arithmetic_actionINS0_15multiply_actionEEENS6_INS7_INS0_11placeholderILi1EEEEEKiNS5_9null_typeESG_SG_SG_SG_SG_SG_SG_EEEEEESG_SG_SG_SG_SG_SG_SG_SG_EEEEEERA2_KcSG_SG_SG_SG_SG_SG_SG_SG_EEE4callIS8_iKSG_ST_ST_EET_RT0_RT1_RT2_RT3_,comdat
	.align	2
	.weak	_ZNK5boost6lambda19lambda_functor_baseINS0_14bitwise_actionINS0_16leftshift_actionEEENS_6tuples5tupleINS0_14lambda_functorINS1_IS4_NS6_IRSoNS7_INS1_INS0_17arithmetic_actionINS0_15multiply_actionEEENS6_INS7_INS0_11placeholderILi1EEEEEKiNS5_9null_typeESG_SG_SG_SG_SG_SG_SG_EEEEEESG_SG_SG_SG_SG_SG_SG_SG_EEEEEERA2_KcSG_SG_SG_SG_SG_SG_SG_SG_EEE4callIS8_iKSG_ST_ST_EET_RT0_RT1_RT2_RT3_
	.type	_ZNK5boost6lambda19lambda_functor_baseINS0_14bitwise_actionINS0_16leftshift_actionEEENS_6tuples5tupleINS0_14lambda_functorINS1_IS4_NS6_IRSoNS7_INS1_INS0_17arithmetic_actionINS0_15multiply_actionEEENS6_INS7_INS0_11placeholderILi1EEEEEKiNS5_9null_typeESG_SG_SG_SG_SG_SG_SG_EEEEEESG_SG_SG_SG_SG_SG_SG_SG_EEEEEERA2_KcSG_SG_SG_SG_SG_SG_SG_SG_EEE4callIS8_iKSG_ST_ST_EET_RT0_RT1_RT2_RT3_, %function
_ZNK5boost6lambda19lambda_functor_baseINS0_14bitwise_actionINS0_16leftshift_actionEEENS_6tuples5tupleINS0_14lambda_functorINS1_IS4_NS6_IRSoNS7_INS1_INS0_17arithmetic_actionINS0_15multiply_actionEEENS6_INS7_INS0_11placeholderILi1EEEEEKiNS5_9null_typeESG_SG_SG_SG_SG_SG_SG_EEEEEESG_SG_SG_SG_SG_SG_SG_SG_EEEEEERA2_KcSG_SG_SG_SG_SG_SG_SG_SG_EEE4callIS8_iKSG_ST_ST_EET_RT0_RT1_RT2_RT3_:
.LFB6241:
	.cfi_startproc
	stp	x29, x30, [sp, -80]!
	.cfi_def_cfa_offset 80
	.cfi_offset 29, -80
	.cfi_offset 30, -72
	mov	x29, sp
	str	x19, [sp, 16]
	.cfi_offset 19, -64
	str	x0, [sp, 72]
	str	x1, [sp, 64]
	str	x2, [sp, 56]
	str	x3, [sp, 48]
	str	x4, [sp, 40]
	ldr	x0, [sp, 72]
	bl	_ZN5boost6tuples3getILi0ENS_6lambda14lambda_functorINS2_19lambda_functor_baseINS2_14bitwise_actionINS2_16leftshift_actionEEENS0_5tupleIRSoNS3_INS4_INS2_17arithmetic_actionINS2_15multiply_actionEEENS8_INS3_INS2_11placeholderILi1EEEEEKiNS0_9null_typeESH_SH_SH_SH_SH_SH_SH_EEEEEESH_SH_SH_SH_SH_SH_SH_SH_EEEEEENS0_4consIRA2_KcSH_EEEENS0_13access_traitsINS0_7elementIXT_ENSO_IT0_T1_EEE4typeEE10const_typeERKSX_
	ldr	x4, [sp, 40]
	ldr	x3, [sp, 48]
	ldr	x2, [sp, 56]
	ldr	x1, [sp, 64]
	bl	_ZN5boost6lambda6detail6selectINS0_19lambda_functor_baseINS0_14bitwise_actionINS0_16leftshift_actionEEENS_6tuples5tupleIRSoNS0_14lambda_functorINS3_INS0_17arithmetic_actionINS0_15multiply_actionEEENS8_INSA_INS0_11placeholderILi1EEEEEKiNS7_9null_typeESI_SI_SI_SI_SI_SI_SI_EEEEEESI_SI_SI_SI_SI_SI_SI_SI_EEEEiKSI_SO_SO_EENT_3sigINS8_IRT0_RT1_RT2_RT3_SI_SI_SI_SI_SI_SI_EEE4typeERKNSA_ISP_EESS_SU_SW_SY_
	mov	x19, x0
	ldr	x0, [sp, 72]
	bl	_ZN5boost6tuples3getILi1ENS_6lambda14lambda_functorINS2_19lambda_functor_baseINS2_14bitwise_actionINS2_16leftshift_actionEEENS0_5tupleIRSoNS3_INS4_INS2_17arithmetic_actionINS2_15multiply_actionEEENS8_INS3_INS2_11placeholderILi1EEEEEKiNS0_9null_typeESH_SH_SH_SH_SH_SH_SH_EEEEEESH_SH_SH_SH_SH_SH_SH_SH_EEEEEENS0_4consIRA2_KcSH_EEEENS0_13access_traitsINS0_7elementIXT_ENSO_IT0_T1_EEE4typeEE10const_typeERKSX_
	ldr	x4, [sp, 40]
	ldr	x3, [sp, 48]
	ldr	x2, [sp, 56]
	ldr	x1, [sp, 64]
	bl	_ZN5boost6lambda6detail6selectIA2_KciKNS_6tuples9null_typeES7_S7_EERT_S9_RT0_RT1_RT2_RT3_
	mov	x1, x0
	mov	x0, x19
	bl	_ZStlsISt11char_traitsIcEERSt13basic_ostreamIcT_ES5_PKc
	ldr	x19, [sp, 16]
	ldp	x29, x30, [sp], 80
	.cfi_restore 30
	.cfi_restore 29
	.cfi_restore 19
	.cfi_def_cfa_offset 0
	ret
	.cfi_endproc
.LFE6241:
	.size	_ZNK5boost6lambda19lambda_functor_baseINS0_14bitwise_actionINS0_16leftshift_actionEEENS_6tuples5tupleINS0_14lambda_functorINS1_IS4_NS6_IRSoNS7_INS1_INS0_17arithmetic_actionINS0_15multiply_actionEEENS6_INS7_INS0_11placeholderILi1EEEEEKiNS5_9null_typeESG_SG_SG_SG_SG_SG_SG_EEEEEESG_SG_SG_SG_SG_SG_SG_SG_EEEEEERA2_KcSG_SG_SG_SG_SG_SG_SG_SG_EEE4callIS8_iKSG_ST_ST_EET_RT0_RT1_RT2_RT3_, .-_ZNK5boost6lambda19lambda_functor_baseINS0_14bitwise_actionINS0_16leftshift_actionEEENS_6tuples5tupleINS0_14lambda_functorINS1_IS4_NS6_IRSoNS7_INS1_INS0_17arithmetic_actionINS0_15multiply_actionEEENS6_INS7_INS0_11placeholderILi1EEEEEKiNS5_9null_typeESG_SG_SG_SG_SG_SG_SG_EEEEEESG_SG_SG_SG_SG_SG_SG_SG_EEEEEERA2_KcSG_SG_SG_SG_SG_SG_SG_SG_EEE4callIS8_iKSG_ST_ST_EET_RT0_RT1_RT2_RT3_
	.section	.text._ZNSaIiEC2ERKS_,"axG",@progbits,_ZNSaIiEC5ERKS_,comdat
	.align	2
	.weak	_ZNSaIiEC2ERKS_
	.type	_ZNSaIiEC2ERKS_, %function
_ZNSaIiEC2ERKS_:
.LFB6298:
	.cfi_startproc
	stp	x29, x30, [sp, -32]!
	.cfi_def_cfa_offset 32
	.cfi_offset 29, -32
	.cfi_offset 30, -24
	mov	x29, sp
	str	x0, [sp, 24]
	str	x1, [sp, 16]
	ldr	x1, [sp, 16]
	ldr	x0, [sp, 24]
	bl	_ZN9__gnu_cxx13new_allocatorIiEC2ERKS1_
	nop
	ldp	x29, x30, [sp], 32
	.cfi_restore 30
	.cfi_restore 29
	.cfi_def_cfa_offset 0
	ret
	.cfi_endproc
.LFE6298:
	.size	_ZNSaIiEC2ERKS_, .-_ZNSaIiEC2ERKS_
	.weak	_ZNSaIiEC1ERKS_
	.set	_ZNSaIiEC1ERKS_,_ZNSaIiEC2ERKS_
	.section	.text._ZNSt12_Vector_baseIiSaIiEE17_Vector_impl_dataC2Ev,"axG",@progbits,_ZNSt12_Vector_baseIiSaIiEE17_Vector_impl_dataC5Ev,comdat
	.align	2
	.weak	_ZNSt12_Vector_baseIiSaIiEE17_Vector_impl_dataC2Ev
	.type	_ZNSt12_Vector_baseIiSaIiEE17_Vector_impl_dataC2Ev, %function
_ZNSt12_Vector_baseIiSaIiEE17_Vector_impl_dataC2Ev:
.LFB6301:
	.cfi_startproc
	sub	sp, sp, #16
	.cfi_def_cfa_offset 16
	str	x0, [sp, 8]
	ldr	x0, [sp, 8]
	str	xzr, [x0]
	ldr	x0, [sp, 8]
	str	xzr, [x0, 8]
	ldr	x0, [sp, 8]
	str	xzr, [x0, 16]
	nop
	add	sp, sp, 16
	.cfi_def_cfa_offset 0
	ret
	.cfi_endproc
.LFE6301:
	.size	_ZNSt12_Vector_baseIiSaIiEE17_Vector_impl_dataC2Ev, .-_ZNSt12_Vector_baseIiSaIiEE17_Vector_impl_dataC2Ev
	.weak	_ZNSt12_Vector_baseIiSaIiEE17_Vector_impl_dataC1Ev
	.set	_ZNSt12_Vector_baseIiSaIiEE17_Vector_impl_dataC1Ev,_ZNSt12_Vector_baseIiSaIiEE17_Vector_impl_dataC2Ev
	.section	.text._ZNSt16allocator_traitsISaIiEE10deallocateERS0_Pim,"axG",@progbits,_ZNSt16allocator_traitsISaIiEE10deallocateERS0_Pim,comdat
	.align	2
	.weak	_ZNSt16allocator_traitsISaIiEE10deallocateERS0_Pim
	.type	_ZNSt16allocator_traitsISaIiEE10deallocateERS0_Pim, %function
_ZNSt16allocator_traitsISaIiEE10deallocateERS0_Pim:
.LFB6303:
	.cfi_startproc
	stp	x29, x30, [sp, -48]!
	.cfi_def_cfa_offset 48
	.cfi_offset 29, -48
	.cfi_offset 30, -40
	mov	x29, sp
	str	x0, [sp, 40]
	str	x1, [sp, 32]
	str	x2, [sp, 24]
	ldr	x2, [sp, 24]
	ldr	x1, [sp, 32]
	ldr	x0, [sp, 40]
	bl	_ZN9__gnu_cxx13new_allocatorIiE10deallocateEPim
	nop
	ldp	x29, x30, [sp], 48
	.cfi_restore 30
	.cfi_restore 29
	.cfi_def_cfa_offset 0
	ret
	.cfi_endproc
.LFE6303:
	.size	_ZNSt16allocator_traitsISaIiEE10deallocateERS0_Pim, .-_ZNSt16allocator_traitsISaIiEE10deallocateERS0_Pim
	.section	.text._ZNSt6vectorIiSaIiEE11_S_max_sizeERKS0_,"axG",@progbits,_ZNSt6vectorIiSaIiEE11_S_max_sizeERKS0_,comdat
	.align	2
	.weak	_ZNSt6vectorIiSaIiEE11_S_max_sizeERKS0_
	.type	_ZNSt6vectorIiSaIiEE11_S_max_sizeERKS0_, %function
_ZNSt6vectorIiSaIiEE11_S_max_sizeERKS0_:
.LFB6304:
	.cfi_startproc
	stp	x29, x30, [sp, -64]!
	.cfi_def_cfa_offset 64
	.cfi_offset 29, -64
	.cfi_offset 30, -56
	mov	x29, sp
	str	x0, [sp, 24]
	adrp	x0, :got:__stack_chk_guard
	ldr	x0, [x0, #:got_lo12:__stack_chk_guard]
	ldr	x1, [x0]
	str	x1, [sp, 56]
	mov	x1, 0
	mov	x0, 2305843009213693951
	str	x0, [sp, 40]
	ldr	x0, [sp, 24]
	bl	_ZNSt16allocator_traitsISaIiEE8max_sizeERKS0_
	str	x0, [sp, 48]
	add	x1, sp, 48
	add	x0, sp, 40
	bl	_ZSt3minImERKT_S2_S2_
	ldr	x0, [x0]
	mov	x1, x0
	adrp	x0, :got:__stack_chk_guard
	ldr	x0, [x0, #:got_lo12:__stack_chk_guard]
	ldr	x3, [sp, 56]
	ldr	x2, [x0]
	subs	x3, x3, x2
	mov	x2, 0
	beq	.L126
	bl	__stack_chk_fail
.L126:
	mov	x0, x1
	ldp	x29, x30, [sp], 64
	.cfi_restore 30
	.cfi_restore 29
	.cfi_def_cfa_offset 0
	ret
	.cfi_endproc
.LFE6304:
	.size	_ZNSt6vectorIiSaIiEE11_S_max_sizeERKS0_, .-_ZNSt6vectorIiSaIiEE11_S_max_sizeERKS0_
	.section	.text._ZNSt16allocator_traitsISaIiEE8allocateERS0_m,"axG",@progbits,_ZNSt16allocator_traitsISaIiEE8allocateERS0_m,comdat
	.align	2
	.weak	_ZNSt16allocator_traitsISaIiEE8allocateERS0_m
	.type	_ZNSt16allocator_traitsISaIiEE8allocateERS0_m, %function
_ZNSt16allocator_traitsISaIiEE8allocateERS0_m:
.LFB6305:
	.cfi_startproc
	stp	x29, x30, [sp, -32]!
	.cfi_def_cfa_offset 32
	.cfi_offset 29, -32
	.cfi_offset 30, -24
	mov	x29, sp
	str	x0, [sp, 24]
	str	x1, [sp, 16]
	mov	x2, 0
	ldr	x1, [sp, 16]
	ldr	x0, [sp, 24]
	bl	_ZN9__gnu_cxx13new_allocatorIiE8allocateEmPKv
	ldp	x29, x30, [sp], 32
	.cfi_restore 30
	.cfi_restore 29
	.cfi_def_cfa_offset 0
	ret
	.cfi_endproc
.LFE6305:
	.size	_ZNSt16allocator_traitsISaIiEE8allocateERS0_m, .-_ZNSt16allocator_traitsISaIiEE8allocateERS0_m
	.section	.text._ZSt18uninitialized_copyIPKiPiET0_T_S4_S3_,"axG",@progbits,_ZSt18uninitialized_copyIPKiPiET0_T_S4_S3_,comdat
	.align	2
	.weak	_ZSt18uninitialized_copyIPKiPiET0_T_S4_S3_
	.type	_ZSt18uninitialized_copyIPKiPiET0_T_S4_S3_, %function
_ZSt18uninitialized_copyIPKiPiET0_T_S4_S3_:
.LFB6306:
	.cfi_startproc
	stp	x29, x30, [sp, -64]!
	.cfi_def_cfa_offset 64
	.cfi_offset 29, -64
	.cfi_offset 30, -56
	mov	x29, sp
	str	x0, [sp, 40]
	str	x1, [sp, 32]
	str	x2, [sp, 24]
	mov	w0, 1
	strb	w0, [sp, 63]
	ldr	x2, [sp, 24]
	ldr	x1, [sp, 32]
	ldr	x0, [sp, 40]
	bl	_ZNSt20__uninitialized_copyILb1EE13__uninit_copyIPKiPiEET0_T_S6_S5_
	ldp	x29, x30, [sp], 64
	.cfi_restore 30
	.cfi_restore 29
	.cfi_def_cfa_offset 0
	ret
	.cfi_endproc
.LFE6306:
	.size	_ZSt18uninitialized_copyIPKiPiET0_T_S4_S3_, .-_ZSt18uninitialized_copyIPKiPiET0_T_S4_S3_
	.section	.text._ZNSt12_Destroy_auxILb1EE9__destroyIPiEEvT_S3_,"axG",@progbits,_ZNSt12_Destroy_auxILb1EE9__destroyIPiEEvT_S3_,comdat
	.align	2
	.weak	_ZNSt12_Destroy_auxILb1EE9__destroyIPiEEvT_S3_
	.type	_ZNSt12_Destroy_auxILb1EE9__destroyIPiEEvT_S3_, %function
_ZNSt12_Destroy_auxILb1EE9__destroyIPiEEvT_S3_:
.LFB6308:
	.cfi_startproc
	sub	sp, sp, #16
	.cfi_def_cfa_offset 16
	str	x0, [sp, 8]
	str	x1, [sp]
	nop
	add	sp, sp, 16
	.cfi_def_cfa_offset 0
	ret
	.cfi_endproc
.LFE6308:
	.size	_ZNSt12_Destroy_auxILb1EE9__destroyIPiEEvT_S3_, .-_ZNSt12_Destroy_auxILb1EE9__destroyIPiEEvT_S3_
	.section	.text._ZN5boost6lambda14lambda_functorINS0_11placeholderILi1EEEEC2ERKS4_,"axG",@progbits,_ZN5boost6lambda14lambda_functorINS0_11placeholderILi1EEEEC5ERKS4_,comdat
	.align	2
	.weak	_ZN5boost6lambda14lambda_functorINS0_11placeholderILi1EEEEC2ERKS4_
	.type	_ZN5boost6lambda14lambda_functorINS0_11placeholderILi1EEEEC2ERKS4_, %function
_ZN5boost6lambda14lambda_functorINS0_11placeholderILi1EEEEC2ERKS4_:
.LFB6310:
	.cfi_startproc
	sub	sp, sp, #16
	.cfi_def_cfa_offset 16
	str	x0, [sp, 8]
	str	x1, [sp]
	nop
	add	sp, sp, 16
	.cfi_def_cfa_offset 0
	ret
	.cfi_endproc
.LFE6310:
	.size	_ZN5boost6lambda14lambda_functorINS0_11placeholderILi1EEEEC2ERKS4_, .-_ZN5boost6lambda14lambda_functorINS0_11placeholderILi1EEEEC2ERKS4_
	.weak	_ZN5boost6lambda14lambda_functorINS0_11placeholderILi1EEEEC1ERKS4_
	.set	_ZN5boost6lambda14lambda_functorINS0_11placeholderILi1EEEEC1ERKS4_,_ZN5boost6lambda14lambda_functorINS0_11placeholderILi1EEEEC2ERKS4_
	.section	.text._ZN5boost6tuples4consIKiNS0_9null_typeEEC2IS2_EERT_RKS3_S9_S9_S9_S9_S9_S9_S9_S9_,"axG",@progbits,_ZN5boost6tuples4consIKiNS0_9null_typeEEC5IS2_EERT_RKS3_S9_S9_S9_S9_S9_S9_S9_S9_,comdat
	.align	2
	.weak	_ZN5boost6tuples4consIKiNS0_9null_typeEEC2IS2_EERT_RKS3_S9_S9_S9_S9_S9_S9_S9_S9_
	.type	_ZN5boost6tuples4consIKiNS0_9null_typeEEC2IS2_EERT_RKS3_S9_S9_S9_S9_S9_S9_S9_S9_, %function
_ZN5boost6tuples4consIKiNS0_9null_typeEEC2IS2_EERT_RKS3_S9_S9_S9_S9_S9_S9_S9_S9_:
.LFB6313:
	.cfi_startproc
	sub	sp, sp, #64
	.cfi_def_cfa_offset 64
	str	x0, [sp, 56]
	str	x1, [sp, 48]
	str	x2, [sp, 40]
	str	x3, [sp, 32]
	str	x4, [sp, 24]
	str	x5, [sp, 16]
	str	x6, [sp, 8]
	str	x7, [sp]
	ldr	x0, [sp, 48]
	ldr	w1, [x0]
	ldr	x0, [sp, 56]
	str	w1, [x0]
	nop
	add	sp, sp, 64
	.cfi_def_cfa_offset 0
	ret
	.cfi_endproc
.LFE6313:
	.size	_ZN5boost6tuples4consIKiNS0_9null_typeEEC2IS2_EERT_RKS3_S9_S9_S9_S9_S9_S9_S9_S9_, .-_ZN5boost6tuples4consIKiNS0_9null_typeEEC2IS2_EERT_RKS3_S9_S9_S9_S9_S9_S9_S9_S9_
	.weak	_ZN5boost6tuples4consIKiNS0_9null_typeEEC1IS2_EERT_RKS3_S9_S9_S9_S9_S9_S9_S9_S9_
	.set	_ZN5boost6tuples4consIKiNS0_9null_typeEEC1IS2_EERT_RKS3_S9_S9_S9_S9_S9_S9_S9_S9_,_ZN5boost6tuples4consIKiNS0_9null_typeEEC2IS2_EERT_RKS3_S9_S9_S9_S9_S9_S9_S9_S9_
	.section	.text._ZN5boost6tuples4consIKiNS0_9null_typeEEC2ERKS4_,"axG",@progbits,_ZN5boost6tuples4consIKiNS0_9null_typeEEC5ERKS4_,comdat
	.align	2
	.weak	_ZN5boost6tuples4consIKiNS0_9null_typeEEC2ERKS4_
	.type	_ZN5boost6tuples4consIKiNS0_9null_typeEEC2ERKS4_, %function
_ZN5boost6tuples4consIKiNS0_9null_typeEEC2ERKS4_:
.LFB6316:
	.cfi_startproc
	sub	sp, sp, #16
	.cfi_def_cfa_offset 16
	str	x0, [sp, 8]
	str	x1, [sp]
	ldr	x0, [sp]
	ldr	w1, [x0]
	ldr	x0, [sp, 8]
	str	w1, [x0]
	nop
	add	sp, sp, 16
	.cfi_def_cfa_offset 0
	ret
	.cfi_endproc
.LFE6316:
	.size	_ZN5boost6tuples4consIKiNS0_9null_typeEEC2ERKS4_, .-_ZN5boost6tuples4consIKiNS0_9null_typeEEC2ERKS4_
	.weak	_ZN5boost6tuples4consIKiNS0_9null_typeEEC1ERKS4_
	.set	_ZN5boost6tuples4consIKiNS0_9null_typeEEC1ERKS4_,_ZN5boost6tuples4consIKiNS0_9null_typeEEC2ERKS4_
	.section	.text._ZN5boost6tuples4consINS_6lambda14lambda_functorINS2_19lambda_functor_baseINS2_17arithmetic_actionINS2_15multiply_actionEEENS0_5tupleINS3_INS2_11placeholderILi1EEEEEKiNS0_9null_typeESD_SD_SD_SD_SD_SD_SD_EEEEEESD_EC2IKSG_EERT_RKSD_SN_SN_SN_SN_SN_SN_SN_SN_,"axG",@progbits,_ZN5boost6tuples4consINS_6lambda14lambda_functorINS2_19lambda_functor_baseINS2_17arithmetic_actionINS2_15multiply_actionEEENS0_5tupleINS3_INS2_11placeholderILi1EEEEEKiNS0_9null_typeESD_SD_SD_SD_SD_SD_SD_EEEEEESD_EC5IKSG_EERT_RKSD_SN_SN_SN_SN_SN_SN_SN_SN_,comdat
	.align	2
	.weak	_ZN5boost6tuples4consINS_6lambda14lambda_functorINS2_19lambda_functor_baseINS2_17arithmetic_actionINS2_15multiply_actionEEENS0_5tupleINS3_INS2_11placeholderILi1EEEEEKiNS0_9null_typeESD_SD_SD_SD_SD_SD_SD_EEEEEESD_EC2IKSG_EERT_RKSD_SN_SN_SN_SN_SN_SN_SN_SN_
	.type	_ZN5boost6tuples4consINS_6lambda14lambda_functorINS2_19lambda_functor_baseINS2_17arithmetic_actionINS2_15multiply_actionEEENS0_5tupleINS3_INS2_11placeholderILi1EEEEEKiNS0_9null_typeESD_SD_SD_SD_SD_SD_SD_EEEEEESD_EC2IKSG_EERT_RKSD_SN_SN_SN_SN_SN_SN_SN_SN_, %function
_ZN5boost6tuples4consINS_6lambda14lambda_functorINS2_19lambda_functor_baseINS2_17arithmetic_actionINS2_15multiply_actionEEENS0_5tupleINS3_INS2_11placeholderILi1EEEEEKiNS0_9null_typeESD_SD_SD_SD_SD_SD_SD_EEEEEESD_EC2IKSG_EERT_RKSD_SN_SN_SN_SN_SN_SN_SN_SN_:
.LFB6319:
	.cfi_startproc
	stp	x29, x30, [sp, -80]!
	.cfi_def_cfa_offset 80
	.cfi_offset 29, -80
	.cfi_offset 30, -72
	mov	x29, sp
	str	x0, [sp, 72]
	str	x1, [sp, 64]
	str	x2, [sp, 56]
	str	x3, [sp, 48]
	str	x4, [sp, 40]
	str	x5, [sp, 32]
	str	x6, [sp, 24]
	str	x7, [sp, 16]
	ldr	x0, [sp, 72]
	ldr	x1, [sp, 64]
	bl	_ZN5boost6lambda14lambda_functorINS0_19lambda_functor_baseINS0_17arithmetic_actionINS0_15multiply_actionEEENS_6tuples5tupleINS1_INS0_11placeholderILi1EEEEEKiNS6_9null_typeESC_SC_SC_SC_SC_SC_SC_EEEEEC1ERKSF_
	nop
	ldp	x29, x30, [sp], 80
	.cfi_restore 30
	.cfi_restore 29
	.cfi_def_cfa_offset 0
	ret
	.cfi_endproc
.LFE6319:
	.size	_ZN5boost6tuples4consINS_6lambda14lambda_functorINS2_19lambda_functor_baseINS2_17arithmetic_actionINS2_15multiply_actionEEENS0_5tupleINS3_INS2_11placeholderILi1EEEEEKiNS0_9null_typeESD_SD_SD_SD_SD_SD_SD_EEEEEESD_EC2IKSG_EERT_RKSD_SN_SN_SN_SN_SN_SN_SN_SN_, .-_ZN5boost6tuples4consINS_6lambda14lambda_functorINS2_19lambda_functor_baseINS2_17arithmetic_actionINS2_15multiply_actionEEENS0_5tupleINS3_INS2_11placeholderILi1EEEEEKiNS0_9null_typeESD_SD_SD_SD_SD_SD_SD_EEEEEESD_EC2IKSG_EERT_RKSD_SN_SN_SN_SN_SN_SN_SN_SN_
	.weak	_ZN5boost6tuples4consINS_6lambda14lambda_functorINS2_19lambda_functor_baseINS2_17arithmetic_actionINS2_15multiply_actionEEENS0_5tupleINS3_INS2_11placeholderILi1EEEEEKiNS0_9null_typeESD_SD_SD_SD_SD_SD_SD_EEEEEESD_EC1IKSG_EERT_RKSD_SN_SN_SN_SN_SN_SN_SN_SN_
	.set	_ZN5boost6tuples4consINS_6lambda14lambda_functorINS2_19lambda_functor_baseINS2_17arithmetic_actionINS2_15multiply_actionEEENS0_5tupleINS3_INS2_11placeholderILi1EEEEEKiNS0_9null_typeESD_SD_SD_SD_SD_SD_SD_EEEEEESD_EC1IKSG_EERT_RKSD_SN_SN_SN_SN_SN_SN_SN_SN_,_ZN5boost6tuples4consINS_6lambda14lambda_functorINS2_19lambda_functor_baseINS2_17arithmetic_actionINS2_15multiply_actionEEENS0_5tupleINS3_INS2_11placeholderILi1EEEEEKiNS0_9null_typeESD_SD_SD_SD_SD_SD_SD_EEEEEESD_EC2IKSG_EERT_RKSD_SN_SN_SN_SN_SN_SN_SN_SN_
	.section	.text._ZN5boost6tuples4consINS_6lambda14lambda_functorINS2_19lambda_functor_baseINS2_17arithmetic_actionINS2_15multiply_actionEEENS0_5tupleINS3_INS2_11placeholderILi1EEEEEKiNS0_9null_typeESD_SD_SD_SD_SD_SD_SD_EEEEEESD_EC2ERKSH_,"axG",@progbits,_ZN5boost6tuples4consINS_6lambda14lambda_functorINS2_19lambda_functor_baseINS2_17arithmetic_actionINS2_15multiply_actionEEENS0_5tupleINS3_INS2_11placeholderILi1EEEEEKiNS0_9null_typeESD_SD_SD_SD_SD_SD_SD_EEEEEESD_EC5ERKSH_,comdat
	.align	2
	.weak	_ZN5boost6tuples4consINS_6lambda14lambda_functorINS2_19lambda_functor_baseINS2_17arithmetic_actionINS2_15multiply_actionEEENS0_5tupleINS3_INS2_11placeholderILi1EEEEEKiNS0_9null_typeESD_SD_SD_SD_SD_SD_SD_EEEEEESD_EC2ERKSH_
	.type	_ZN5boost6tuples4consINS_6lambda14lambda_functorINS2_19lambda_functor_baseINS2_17arithmetic_actionINS2_15multiply_actionEEENS0_5tupleINS3_INS2_11placeholderILi1EEEEEKiNS0_9null_typeESD_SD_SD_SD_SD_SD_SD_EEEEEESD_EC2ERKSH_, %function
_ZN5boost6tuples4consINS_6lambda14lambda_functorINS2_19lambda_functor_baseINS2_17arithmetic_actionINS2_15multiply_actionEEENS0_5tupleINS3_INS2_11placeholderILi1EEEEEKiNS0_9null_typeESD_SD_SD_SD_SD_SD_SD_EEEEEESD_EC2ERKSH_:
.LFB6322:
	.cfi_startproc
	stp	x29, x30, [sp, -32]!
	.cfi_def_cfa_offset 32
	.cfi_offset 29, -32
	.cfi_offset 30, -24
	mov	x29, sp
	str	x0, [sp, 24]
	str	x1, [sp, 16]
	ldr	x0, [sp, 24]
	ldr	x1, [sp, 16]
	bl	_ZN5boost6lambda14lambda_functorINS0_19lambda_functor_baseINS0_17arithmetic_actionINS0_15multiply_actionEEENS_6tuples5tupleINS1_INS0_11placeholderILi1EEEEEKiNS6_9null_typeESC_SC_SC_SC_SC_SC_SC_EEEEEC1ERKSF_
	nop
	ldp	x29, x30, [sp], 32
	.cfi_restore 30
	.cfi_restore 29
	.cfi_def_cfa_offset 0
	ret
	.cfi_endproc
.LFE6322:
	.size	_ZN5boost6tuples4consINS_6lambda14lambda_functorINS2_19lambda_functor_baseINS2_17arithmetic_actionINS2_15multiply_actionEEENS0_5tupleINS3_INS2_11placeholderILi1EEEEEKiNS0_9null_typeESD_SD_SD_SD_SD_SD_SD_EEEEEESD_EC2ERKSH_, .-_ZN5boost6tuples4consINS_6lambda14lambda_functorINS2_19lambda_functor_baseINS2_17arithmetic_actionINS2_15multiply_actionEEENS0_5tupleINS3_INS2_11placeholderILi1EEEEEKiNS0_9null_typeESD_SD_SD_SD_SD_SD_SD_EEEEEESD_EC2ERKSH_
	.weak	_ZN5boost6tuples4consINS_6lambda14lambda_functorINS2_19lambda_functor_baseINS2_17arithmetic_actionINS2_15multiply_actionEEENS0_5tupleINS3_INS2_11placeholderILi1EEEEEKiNS0_9null_typeESD_SD_SD_SD_SD_SD_SD_EEEEEESD_EC1ERKSH_
	.set	_ZN5boost6tuples4consINS_6lambda14lambda_functorINS2_19lambda_functor_baseINS2_17arithmetic_actionINS2_15multiply_actionEEENS0_5tupleINS3_INS2_11placeholderILi1EEEEEKiNS0_9null_typeESD_SD_SD_SD_SD_SD_SD_EEEEEESD_EC1ERKSH_,_ZN5boost6tuples4consINS_6lambda14lambda_functorINS2_19lambda_functor_baseINS2_17arithmetic_actionINS2_15multiply_actionEEENS0_5tupleINS3_INS2_11placeholderILi1EEEEEKiNS0_9null_typeESD_SD_SD_SD_SD_SD_SD_EEEEEESD_EC2ERKSH_
	.section	.text._ZN5boost6lambda14lambda_functorINS0_19lambda_functor_baseINS0_14bitwise_actionINS0_16leftshift_actionEEENS_6tuples5tupleIRSoNS1_INS2_INS0_17arithmetic_actionINS0_15multiply_actionEEENS7_INS1_INS0_11placeholderILi1EEEEEKiNS6_9null_typeESG_SG_SG_SG_SG_SG_SG_EEEEEESG_SG_SG_SG_SG_SG_SG_SG_EEEEEC2ERKSM_,"axG",@progbits,_ZN5boost6lambda14lambda_functorINS0_19lambda_functor_baseINS0_14bitwise_actionINS0_16leftshift_actionEEENS_6tuples5tupleIRSoNS1_INS2_INS0_17arithmetic_actionINS0_15multiply_actionEEENS7_INS1_INS0_11placeholderILi1EEEEEKiNS6_9null_typeESG_SG_SG_SG_SG_SG_SG_EEEEEESG_SG_SG_SG_SG_SG_SG_SG_EEEEEC5ERKSM_,comdat
	.align	2
	.weak	_ZN5boost6lambda14lambda_functorINS0_19lambda_functor_baseINS0_14bitwise_actionINS0_16leftshift_actionEEENS_6tuples5tupleIRSoNS1_INS2_INS0_17arithmetic_actionINS0_15multiply_actionEEENS7_INS1_INS0_11placeholderILi1EEEEEKiNS6_9null_typeESG_SG_SG_SG_SG_SG_SG_EEEEEESG_SG_SG_SG_SG_SG_SG_SG_EEEEEC2ERKSM_
	.type	_ZN5boost6lambda14lambda_functorINS0_19lambda_functor_baseINS0_14bitwise_actionINS0_16leftshift_actionEEENS_6tuples5tupleIRSoNS1_INS2_INS0_17arithmetic_actionINS0_15multiply_actionEEENS7_INS1_INS0_11placeholderILi1EEEEEKiNS6_9null_typeESG_SG_SG_SG_SG_SG_SG_EEEEEESG_SG_SG_SG_SG_SG_SG_SG_EEEEEC2ERKSM_, %function
_ZN5boost6lambda14lambda_functorINS0_19lambda_functor_baseINS0_14bitwise_actionINS0_16leftshift_actionEEENS_6tuples5tupleIRSoNS1_INS2_INS0_17arithmetic_actionINS0_15multiply_actionEEENS7_INS1_INS0_11placeholderILi1EEEEEKiNS6_9null_typeESG_SG_SG_SG_SG_SG_SG_EEEEEESG_SG_SG_SG_SG_SG_SG_SG_EEEEEC2ERKSM_:
.LFB6325:
	.cfi_startproc
	stp	x29, x30, [sp, -32]!
	.cfi_def_cfa_offset 32
	.cfi_offset 29, -32
	.cfi_offset 30, -24
	mov	x29, sp
	str	x0, [sp, 24]
	str	x1, [sp, 16]
	ldr	x0, [sp, 24]
	ldr	x1, [sp, 16]
	bl	_ZN5boost6lambda19lambda_functor_baseINS0_14bitwise_actionINS0_16leftshift_actionEEENS_6tuples5tupleIRSoNS0_14lambda_functorINS1_INS0_17arithmetic_actionINS0_15multiply_actionEEENS6_INS8_INS0_11placeholderILi1EEEEEKiNS5_9null_typeESG_SG_SG_SG_SG_SG_SG_EEEEEESG_SG_SG_SG_SG_SG_SG_SG_EEEC2ERKSL_
	nop
	ldp	x29, x30, [sp], 32
	.cfi_restore 30
	.cfi_restore 29
	.cfi_def_cfa_offset 0
	ret
	.cfi_endproc
.LFE6325:
	.size	_ZN5boost6lambda14lambda_functorINS0_19lambda_functor_baseINS0_14bitwise_actionINS0_16leftshift_actionEEENS_6tuples5tupleIRSoNS1_INS2_INS0_17arithmetic_actionINS0_15multiply_actionEEENS7_INS1_INS0_11placeholderILi1EEEEEKiNS6_9null_typeESG_SG_SG_SG_SG_SG_SG_EEEEEESG_SG_SG_SG_SG_SG_SG_SG_EEEEEC2ERKSM_, .-_ZN5boost6lambda14lambda_functorINS0_19lambda_functor_baseINS0_14bitwise_actionINS0_16leftshift_actionEEENS_6tuples5tupleIRSoNS1_INS2_INS0_17arithmetic_actionINS0_15multiply_actionEEENS7_INS1_INS0_11placeholderILi1EEEEEKiNS6_9null_typeESG_SG_SG_SG_SG_SG_SG_EEEEEESG_SG_SG_SG_SG_SG_SG_SG_EEEEEC2ERKSM_
	.weak	_ZN5boost6lambda14lambda_functorINS0_19lambda_functor_baseINS0_14bitwise_actionINS0_16leftshift_actionEEENS_6tuples5tupleIRSoNS1_INS2_INS0_17arithmetic_actionINS0_15multiply_actionEEENS7_INS1_INS0_11placeholderILi1EEEEEKiNS6_9null_typeESG_SG_SG_SG_SG_SG_SG_EEEEEESG_SG_SG_SG_SG_SG_SG_SG_EEEEEC1ERKSM_
	.set	_ZN5boost6lambda14lambda_functorINS0_19lambda_functor_baseINS0_14bitwise_actionINS0_16leftshift_actionEEENS_6tuples5tupleIRSoNS1_INS2_INS0_17arithmetic_actionINS0_15multiply_actionEEENS7_INS1_INS0_11placeholderILi1EEEEEKiNS6_9null_typeESG_SG_SG_SG_SG_SG_SG_EEEEEESG_SG_SG_SG_SG_SG_SG_SG_EEEEEC1ERKSM_,_ZN5boost6lambda14lambda_functorINS0_19lambda_functor_baseINS0_14bitwise_actionINS0_16leftshift_actionEEENS_6tuples5tupleIRSoNS1_INS2_INS0_17arithmetic_actionINS0_15multiply_actionEEENS7_INS1_INS0_11placeholderILi1EEEEEKiNS6_9null_typeESG_SG_SG_SG_SG_SG_SG_EEEEEESG_SG_SG_SG_SG_SG_SG_SG_EEEEEC2ERKSM_
	.section	.text._ZN5boost6tuples4consIRA2_KcNS0_9null_typeEEC2IS3_EERT_RKS5_SB_SB_SB_SB_SB_SB_SB_SB_,"axG",@progbits,_ZN5boost6tuples4consIRA2_KcNS0_9null_typeEEC5IS3_EERT_RKS5_SB_SB_SB_SB_SB_SB_SB_SB_,comdat
	.align	2
	.weak	_ZN5boost6tuples4consIRA2_KcNS0_9null_typeEEC2IS3_EERT_RKS5_SB_SB_SB_SB_SB_SB_SB_SB_
	.type	_ZN5boost6tuples4consIRA2_KcNS0_9null_typeEEC2IS3_EERT_RKS5_SB_SB_SB_SB_SB_SB_SB_SB_, %function
_ZN5boost6tuples4consIRA2_KcNS0_9null_typeEEC2IS3_EERT_RKS5_SB_SB_SB_SB_SB_SB_SB_SB_:
.LFB6328:
	.cfi_startproc
	sub	sp, sp, #64
	.cfi_def_cfa_offset 64
	str	x0, [sp, 56]
	str	x1, [sp, 48]
	str	x2, [sp, 40]
	str	x3, [sp, 32]
	str	x4, [sp, 24]
	str	x5, [sp, 16]
	str	x6, [sp, 8]
	str	x7, [sp]
	ldr	x0, [sp, 56]
	ldr	x1, [sp, 48]
	str	x1, [x0]
	nop
	add	sp, sp, 64
	.cfi_def_cfa_offset 0
	ret
	.cfi_endproc
.LFE6328:
	.size	_ZN5boost6tuples4consIRA2_KcNS0_9null_typeEEC2IS3_EERT_RKS5_SB_SB_SB_SB_SB_SB_SB_SB_, .-_ZN5boost6tuples4consIRA2_KcNS0_9null_typeEEC2IS3_EERT_RKS5_SB_SB_SB_SB_SB_SB_SB_SB_
	.weak	_ZN5boost6tuples4consIRA2_KcNS0_9null_typeEEC1IS3_EERT_RKS5_SB_SB_SB_SB_SB_SB_SB_SB_
	.set	_ZN5boost6tuples4consIRA2_KcNS0_9null_typeEEC1IS3_EERT_RKS5_SB_SB_SB_SB_SB_SB_SB_SB_,_ZN5boost6tuples4consIRA2_KcNS0_9null_typeEEC2IS3_EERT_RKS5_SB_SB_SB_SB_SB_SB_SB_SB_
	.section	.text._ZN5boost6tuples4consIRA2_KcNS0_9null_typeEEC2ERKS6_,"axG",@progbits,_ZN5boost6tuples4consIRA2_KcNS0_9null_typeEEC5ERKS6_,comdat
	.align	2
	.weak	_ZN5boost6tuples4consIRA2_KcNS0_9null_typeEEC2ERKS6_
	.type	_ZN5boost6tuples4consIRA2_KcNS0_9null_typeEEC2ERKS6_, %function
_ZN5boost6tuples4consIRA2_KcNS0_9null_typeEEC2ERKS6_:
.LFB6331:
	.cfi_startproc
	sub	sp, sp, #16
	.cfi_def_cfa_offset 16
	str	x0, [sp, 8]
	str	x1, [sp]
	ldr	x0, [sp]
	ldr	x1, [x0]
	ldr	x0, [sp, 8]
	str	x1, [x0]
	nop
	add	sp, sp, 16
	.cfi_def_cfa_offset 0
	ret
	.cfi_endproc
.LFE6331:
	.size	_ZN5boost6tuples4consIRA2_KcNS0_9null_typeEEC2ERKS6_, .-_ZN5boost6tuples4consIRA2_KcNS0_9null_typeEEC2ERKS6_
	.weak	_ZN5boost6tuples4consIRA2_KcNS0_9null_typeEEC1ERKS6_
	.set	_ZN5boost6tuples4consIRA2_KcNS0_9null_typeEEC1ERKS6_,_ZN5boost6tuples4consIRA2_KcNS0_9null_typeEEC2ERKS6_
	.section	.text._ZN5boost6tuples3getILi0ENS_6lambda14lambda_functorINS2_19lambda_functor_baseINS2_14bitwise_actionINS2_16leftshift_actionEEENS0_5tupleIRSoNS3_INS4_INS2_17arithmetic_actionINS2_15multiply_actionEEENS8_INS3_INS2_11placeholderILi1EEEEEKiNS0_9null_typeESH_SH_SH_SH_SH_SH_SH_EEEEEESH_SH_SH_SH_SH_SH_SH_SH_EEEEEENS0_4consIRA2_KcSH_EEEENS0_13access_traitsINS0_7elementIXT_ENSO_IT0_T1_EEE4typeEE10const_typeERKSX_,"axG",@progbits,_ZN5boost6tuples3getILi0ENS_6lambda14lambda_functorINS2_19lambda_functor_baseINS2_14bitwise_actionINS2_16leftshift_actionEEENS0_5tupleIRSoNS3_INS4_INS2_17arithmetic_actionINS2_15multiply_actionEEENS8_INS3_INS2_11placeholderILi1EEEEEKiNS0_9null_typeESH_SH_SH_SH_SH_SH_SH_EEEEEESH_SH_SH_SH_SH_SH_SH_SH_EEEEEENS0_4consIRA2_KcSH_EEEENS0_13access_traitsINS0_7elementIXT_ENSO_IT0_T1_EEE4typeEE10const_typeERKSX_,comdat
	.align	2
	.weak	_ZN5boost6tuples3getILi0ENS_6lambda14lambda_functorINS2_19lambda_functor_baseINS2_14bitwise_actionINS2_16leftshift_actionEEENS0_5tupleIRSoNS3_INS4_INS2_17arithmetic_actionINS2_15multiply_actionEEENS8_INS3_INS2_11placeholderILi1EEEEEKiNS0_9null_typeESH_SH_SH_SH_SH_SH_SH_EEEEEESH_SH_SH_SH_SH_SH_SH_SH_EEEEEENS0_4consIRA2_KcSH_EEEENS0_13access_traitsINS0_7elementIXT_ENSO_IT0_T1_EEE4typeEE10const_typeERKSX_
	.type	_ZN5boost6tuples3getILi0ENS_6lambda14lambda_functorINS2_19lambda_functor_baseINS2_14bitwise_actionINS2_16leftshift_actionEEENS0_5tupleIRSoNS3_INS4_INS2_17arithmetic_actionINS2_15multiply_actionEEENS8_INS3_INS2_11placeholderILi1EEEEEKiNS0_9null_typeESH_SH_SH_SH_SH_SH_SH_EEEEEESH_SH_SH_SH_SH_SH_SH_SH_EEEEEENS0_4consIRA2_KcSH_EEEENS0_13access_traitsINS0_7elementIXT_ENSO_IT0_T1_EEE4typeEE10const_typeERKSX_, %function
_ZN5boost6tuples3getILi0ENS_6lambda14lambda_functorINS2_19lambda_functor_baseINS2_14bitwise_actionINS2_16leftshift_actionEEENS0_5tupleIRSoNS3_INS4_INS2_17arithmetic_actionINS2_15multiply_actionEEENS8_INS3_INS2_11placeholderILi1EEEEEKiNS0_9null_typeESH_SH_SH_SH_SH_SH_SH_EEEEEESH_SH_SH_SH_SH_SH_SH_SH_EEEEEENS0_4consIRA2_KcSH_EEEENS0_13access_traitsINS0_7elementIXT_ENSO_IT0_T1_EEE4typeEE10const_typeERKSX_:
.LFB6333:
	.cfi_startproc
	stp	x29, x30, [sp, -32]!
	.cfi_def_cfa_offset 32
	.cfi_offset 29, -32
	.cfi_offset 30, -24
	mov	x29, sp
	str	x0, [sp, 24]
	ldr	x0, [sp, 24]
	bl	_ZN5boost6tuples6detail10drop_frontILi0EE5applyINS0_4consINS_6lambda14lambda_functorINS6_19lambda_functor_baseINS6_14bitwise_actionINS6_16leftshift_actionEEENS0_5tupleIRSoNS7_INS8_INS6_17arithmetic_actionINS6_15multiply_actionEEENSC_INS7_INS6_11placeholderILi1EEEEEKiNS0_9null_typeESL_SL_SL_SL_SL_SL_SL_EEEEEESL_SL_SL_SL_SL_SL_SL_SL_EEEEEENS5_IRA2_KcSL_EEEEE4callERKSW_
	ldp	x29, x30, [sp], 32
	.cfi_restore 30
	.cfi_restore 29
	.cfi_def_cfa_offset 0
	ret
	.cfi_endproc
.LFE6333:
	.size	_ZN5boost6tuples3getILi0ENS_6lambda14lambda_functorINS2_19lambda_functor_baseINS2_14bitwise_actionINS2_16leftshift_actionEEENS0_5tupleIRSoNS3_INS4_INS2_17arithmetic_actionINS2_15multiply_actionEEENS8_INS3_INS2_11placeholderILi1EEEEEKiNS0_9null_typeESH_SH_SH_SH_SH_SH_SH_EEEEEESH_SH_SH_SH_SH_SH_SH_SH_EEEEEENS0_4consIRA2_KcSH_EEEENS0_13access_traitsINS0_7elementIXT_ENSO_IT0_T1_EEE4typeEE10const_typeERKSX_, .-_ZN5boost6tuples3getILi0ENS_6lambda14lambda_functorINS2_19lambda_functor_baseINS2_14bitwise_actionINS2_16leftshift_actionEEENS0_5tupleIRSoNS3_INS4_INS2_17arithmetic_actionINS2_15multiply_actionEEENS8_INS3_INS2_11placeholderILi1EEEEEKiNS0_9null_typeESH_SH_SH_SH_SH_SH_SH_EEEEEESH_SH_SH_SH_SH_SH_SH_SH_EEEEEENS0_4consIRA2_KcSH_EEEENS0_13access_traitsINS0_7elementIXT_ENSO_IT0_T1_EEE4typeEE10const_typeERKSX_
	.section	.text._ZN5boost6lambda6detail6selectINS0_19lambda_functor_baseINS0_14bitwise_actionINS0_16leftshift_actionEEENS_6tuples5tupleIRSoNS0_14lambda_functorINS3_INS0_17arithmetic_actionINS0_15multiply_actionEEENS8_INSA_INS0_11placeholderILi1EEEEEKiNS7_9null_typeESI_SI_SI_SI_SI_SI_SI_EEEEEESI_SI_SI_SI_SI_SI_SI_SI_EEEEiKSI_SO_SO_EENT_3sigINS8_IRT0_RT1_RT2_RT3_SI_SI_SI_SI_SI_SI_EEE4typeERKNSA_ISP_EESS_SU_SW_SY_,"axG",@progbits,_ZN5boost6lambda6detail6selectINS0_19lambda_functor_baseINS0_14bitwise_actionINS0_16leftshift_actionEEENS_6tuples5tupleIRSoNS0_14lambda_functorINS3_INS0_17arithmetic_actionINS0_15multiply_actionEEENS8_INSA_INS0_11placeholderILi1EEEEEKiNS7_9null_typeESI_SI_SI_SI_SI_SI_SI_EEEEEESI_SI_SI_SI_SI_SI_SI_SI_EEEEiKSI_SO_SO_EENT_3sigINS8_IRT0_RT1_RT2_RT3_SI_SI_SI_SI_SI_SI_EEE4typeERKNSA_ISP_EESS_SU_SW_SY_,comdat
	.align	2
	.weak	_ZN5boost6lambda6detail6selectINS0_19lambda_functor_baseINS0_14bitwise_actionINS0_16leftshift_actionEEENS_6tuples5tupleIRSoNS0_14lambda_functorINS3_INS0_17arithmetic_actionINS0_15multiply_actionEEENS8_INSA_INS0_11placeholderILi1EEEEEKiNS7_9null_typeESI_SI_SI_SI_SI_SI_SI_EEEEEESI_SI_SI_SI_SI_SI_SI_SI_EEEEiKSI_SO_SO_EENT_3sigINS8_IRT0_RT1_RT2_RT3_SI_SI_SI_SI_SI_SI_EEE4typeERKNSA_ISP_EESS_SU_SW_SY_
	.type	_ZN5boost6lambda6detail6selectINS0_19lambda_functor_baseINS0_14bitwise_actionINS0_16leftshift_actionEEENS_6tuples5tupleIRSoNS0_14lambda_functorINS3_INS0_17arithmetic_actionINS0_15multiply_actionEEENS8_INSA_INS0_11placeholderILi1EEEEEKiNS7_9null_typeESI_SI_SI_SI_SI_SI_SI_EEEEEESI_SI_SI_SI_SI_SI_SI_SI_EEEEiKSI_SO_SO_EENT_3sigINS8_IRT0_RT1_RT2_RT3_SI_SI_SI_SI_SI_SI_EEE4typeERKNSA_ISP_EESS_SU_SW_SY_, %function
_ZN5boost6lambda6detail6selectINS0_19lambda_functor_baseINS0_14bitwise_actionINS0_16leftshift_actionEEENS_6tuples5tupleIRSoNS0_14lambda_functorINS3_INS0_17arithmetic_actionINS0_15multiply_actionEEENS8_INSA_INS0_11placeholderILi1EEEEEKiNS7_9null_typeESI_SI_SI_SI_SI_SI_SI_EEEEEESI_SI_SI_SI_SI_SI_SI_SI_EEEEiKSI_SO_SO_EENT_3sigINS8_IRT0_RT1_RT2_RT3_SI_SI_SI_SI_SI_SI_EEE4typeERKNSA_ISP_EESS_SU_SW_SY_:
.LFB6334:
	.cfi_startproc
	stp	x29, x30, [sp, -64]!
	.cfi_def_cfa_offset 64
	.cfi_offset 29, -64
	.cfi_offset 30, -56
	mov	x29, sp
	str	x0, [sp, 56]
	str	x1, [sp, 48]
	str	x2, [sp, 40]
	str	x3, [sp, 32]
	str	x4, [sp, 24]
	ldr	x0, [sp, 56]
	ldr	x4, [sp, 24]
	ldr	x3, [sp, 32]
	ldr	x2, [sp, 40]
	ldr	x1, [sp, 48]
	bl	_ZNK5boost6lambda19lambda_functor_baseINS0_14bitwise_actionINS0_16leftshift_actionEEENS_6tuples5tupleIRSoNS0_14lambda_functorINS1_INS0_17arithmetic_actionINS0_15multiply_actionEEENS6_INS8_INS0_11placeholderILi1EEEEEKiNS5_9null_typeESG_SG_SG_SG_SG_SG_SG_EEEEEESG_SG_SG_SG_SG_SG_SG_SG_EEE4callIS7_iKSG_SN_SN_EET_RT0_RT1_RT2_RT3_
	ldp	x29, x30, [sp], 64
	.cfi_restore 30
	.cfi_restore 29
	.cfi_def_cfa_offset 0
	ret
	.cfi_endproc
.LFE6334:
	.size	_ZN5boost6lambda6detail6selectINS0_19lambda_functor_baseINS0_14bitwise_actionINS0_16leftshift_actionEEENS_6tuples5tupleIRSoNS0_14lambda_functorINS3_INS0_17arithmetic_actionINS0_15multiply_actionEEENS8_INSA_INS0_11placeholderILi1EEEEEKiNS7_9null_typeESI_SI_SI_SI_SI_SI_SI_EEEEEESI_SI_SI_SI_SI_SI_SI_SI_EEEEiKSI_SO_SO_EENT_3sigINS8_IRT0_RT1_RT2_RT3_SI_SI_SI_SI_SI_SI_EEE4typeERKNSA_ISP_EESS_SU_SW_SY_, .-_ZN5boost6lambda6detail6selectINS0_19lambda_functor_baseINS0_14bitwise_actionINS0_16leftshift_actionEEENS_6tuples5tupleIRSoNS0_14lambda_functorINS3_INS0_17arithmetic_actionINS0_15multiply_actionEEENS8_INSA_INS0_11placeholderILi1EEEEEKiNS7_9null_typeESI_SI_SI_SI_SI_SI_SI_EEEEEESI_SI_SI_SI_SI_SI_SI_SI_EEEEiKSI_SO_SO_EENT_3sigINS8_IRT0_RT1_RT2_RT3_SI_SI_SI_SI_SI_SI_EEE4typeERKNSA_ISP_EESS_SU_SW_SY_
	.section	.text._ZN5boost6tuples3getILi1ENS_6lambda14lambda_functorINS2_19lambda_functor_baseINS2_14bitwise_actionINS2_16leftshift_actionEEENS0_5tupleIRSoNS3_INS4_INS2_17arithmetic_actionINS2_15multiply_actionEEENS8_INS3_INS2_11placeholderILi1EEEEEKiNS0_9null_typeESH_SH_SH_SH_SH_SH_SH_EEEEEESH_SH_SH_SH_SH_SH_SH_SH_EEEEEENS0_4consIRA2_KcSH_EEEENS0_13access_traitsINS0_7elementIXT_ENSO_IT0_T1_EEE4typeEE10const_typeERKSX_,"axG",@progbits,_ZN5boost6tuples3getILi1ENS_6lambda14lambda_functorINS2_19lambda_functor_baseINS2_14bitwise_actionINS2_16leftshift_actionEEENS0_5tupleIRSoNS3_INS4_INS2_17arithmetic_actionINS2_15multiply_actionEEENS8_INS3_INS2_11placeholderILi1EEEEEKiNS0_9null_typeESH_SH_SH_SH_SH_SH_SH_EEEEEESH_SH_SH_SH_SH_SH_SH_SH_EEEEEENS0_4consIRA2_KcSH_EEEENS0_13access_traitsINS0_7elementIXT_ENSO_IT0_T1_EEE4typeEE10const_typeERKSX_,comdat
	.align	2
	.weak	_ZN5boost6tuples3getILi1ENS_6lambda14lambda_functorINS2_19lambda_functor_baseINS2_14bitwise_actionINS2_16leftshift_actionEEENS0_5tupleIRSoNS3_INS4_INS2_17arithmetic_actionINS2_15multiply_actionEEENS8_INS3_INS2_11placeholderILi1EEEEEKiNS0_9null_typeESH_SH_SH_SH_SH_SH_SH_EEEEEESH_SH_SH_SH_SH_SH_SH_SH_EEEEEENS0_4consIRA2_KcSH_EEEENS0_13access_traitsINS0_7elementIXT_ENSO_IT0_T1_EEE4typeEE10const_typeERKSX_
	.type	_ZN5boost6tuples3getILi1ENS_6lambda14lambda_functorINS2_19lambda_functor_baseINS2_14bitwise_actionINS2_16leftshift_actionEEENS0_5tupleIRSoNS3_INS4_INS2_17arithmetic_actionINS2_15multiply_actionEEENS8_INS3_INS2_11placeholderILi1EEEEEKiNS0_9null_typeESH_SH_SH_SH_SH_SH_SH_EEEEEESH_SH_SH_SH_SH_SH_SH_SH_EEEEEENS0_4consIRA2_KcSH_EEEENS0_13access_traitsINS0_7elementIXT_ENSO_IT0_T1_EEE4typeEE10const_typeERKSX_, %function
_ZN5boost6tuples3getILi1ENS_6lambda14lambda_functorINS2_19lambda_functor_baseINS2_14bitwise_actionINS2_16leftshift_actionEEENS0_5tupleIRSoNS3_INS4_INS2_17arithmetic_actionINS2_15multiply_actionEEENS8_INS3_INS2_11placeholderILi1EEEEEKiNS0_9null_typeESH_SH_SH_SH_SH_SH_SH_EEEEEESH_SH_SH_SH_SH_SH_SH_SH_EEEEEENS0_4consIRA2_KcSH_EEEENS0_13access_traitsINS0_7elementIXT_ENSO_IT0_T1_EEE4typeEE10const_typeERKSX_:
.LFB6335:
	.cfi_startproc
	stp	x29, x30, [sp, -32]!
	.cfi_def_cfa_offset 32
	.cfi_offset 29, -32
	.cfi_offset 30, -24
	mov	x29, sp
	str	x0, [sp, 24]
	ldr	x0, [sp, 24]
	bl	_ZN5boost6tuples6detail10drop_frontILi1EE5applyINS0_4consINS_6lambda14lambda_functorINS6_19lambda_functor_baseINS6_14bitwise_actionINS6_16leftshift_actionEEENS0_5tupleIRSoNS7_INS8_INS6_17arithmetic_actionINS6_15multiply_actionEEENSC_INS7_INS6_11placeholderILi1EEEEEKiNS0_9null_typeESL_SL_SL_SL_SL_SL_SL_EEEEEESL_SL_SL_SL_SL_SL_SL_SL_EEEEEENS5_IRA2_KcSL_EEEEE4callERKSW_
	ldr	x0, [x0]
	ldp	x29, x30, [sp], 32
	.cfi_restore 30
	.cfi_restore 29
	.cfi_def_cfa_offset 0
	ret
	.cfi_endproc
.LFE6335:
	.size	_ZN5boost6tuples3getILi1ENS_6lambda14lambda_functorINS2_19lambda_functor_baseINS2_14bitwise_actionINS2_16leftshift_actionEEENS0_5tupleIRSoNS3_INS4_INS2_17arithmetic_actionINS2_15multiply_actionEEENS8_INS3_INS2_11placeholderILi1EEEEEKiNS0_9null_typeESH_SH_SH_SH_SH_SH_SH_EEEEEESH_SH_SH_SH_SH_SH_SH_SH_EEEEEENS0_4consIRA2_KcSH_EEEENS0_13access_traitsINS0_7elementIXT_ENSO_IT0_T1_EEE4typeEE10const_typeERKSX_, .-_ZN5boost6tuples3getILi1ENS_6lambda14lambda_functorINS2_19lambda_functor_baseINS2_14bitwise_actionINS2_16leftshift_actionEEENS0_5tupleIRSoNS3_INS4_INS2_17arithmetic_actionINS2_15multiply_actionEEENS8_INS3_INS2_11placeholderILi1EEEEEKiNS0_9null_typeESH_SH_SH_SH_SH_SH_SH_EEEEEESH_SH_SH_SH_SH_SH_SH_SH_EEEEEENS0_4consIRA2_KcSH_EEEENS0_13access_traitsINS0_7elementIXT_ENSO_IT0_T1_EEE4typeEE10const_typeERKSX_
	.section	.text._ZN5boost6lambda6detail6selectIA2_KciKNS_6tuples9null_typeES7_S7_EERT_S9_RT0_RT1_RT2_RT3_,"axG",@progbits,_ZN5boost6lambda6detail6selectIA2_KciKNS_6tuples9null_typeES7_S7_EERT_S9_RT0_RT1_RT2_RT3_,comdat
	.align	2
	.weak	_ZN5boost6lambda6detail6selectIA2_KciKNS_6tuples9null_typeES7_S7_EERT_S9_RT0_RT1_RT2_RT3_
	.type	_ZN5boost6lambda6detail6selectIA2_KciKNS_6tuples9null_typeES7_S7_EERT_S9_RT0_RT1_RT2_RT3_, %function
_ZN5boost6lambda6detail6selectIA2_KciKNS_6tuples9null_typeES7_S7_EERT_S9_RT0_RT1_RT2_RT3_:
.LFB6336:
	.cfi_startproc
	stp	x29, x30, [sp, -64]!
	.cfi_def_cfa_offset 64
	.cfi_offset 29, -64
	.cfi_offset 30, -56
	mov	x29, sp
	str	x0, [sp, 56]
	str	x1, [sp, 48]
	str	x2, [sp, 40]
	str	x3, [sp, 32]
	str	x4, [sp, 24]
	ldr	x3, [sp, 24]
	ldr	x2, [sp, 32]
	ldr	x1, [sp, 40]
	ldr	x0, [sp, 48]
	bl	_ZN5boost6lambda6detail10do_nothingIiKNS_6tuples9null_typeES5_S5_EEvRT_RT0_RT1_RT2_
	ldr	x0, [sp, 56]
	ldp	x29, x30, [sp], 64
	.cfi_restore 30
	.cfi_restore 29
	.cfi_def_cfa_offset 0
	ret
	.cfi_endproc
.LFE6336:
	.size	_ZN5boost6lambda6detail6selectIA2_KciKNS_6tuples9null_typeES7_S7_EERT_S9_RT0_RT1_RT2_RT3_, .-_ZN5boost6lambda6detail6selectIA2_KciKNS_6tuples9null_typeES7_S7_EERT_S9_RT0_RT1_RT2_RT3_
	.section	.text._ZN9__gnu_cxx13new_allocatorIiEC2ERKS1_,"axG",@progbits,_ZN9__gnu_cxx13new_allocatorIiEC5ERKS1_,comdat
	.align	2
	.weak	_ZN9__gnu_cxx13new_allocatorIiEC2ERKS1_
	.type	_ZN9__gnu_cxx13new_allocatorIiEC2ERKS1_, %function
_ZN9__gnu_cxx13new_allocatorIiEC2ERKS1_:
.LFB6387:
	.cfi_startproc
	sub	sp, sp, #16
	.cfi_def_cfa_offset 16
	str	x0, [sp, 8]
	str	x1, [sp]
	nop
	add	sp, sp, 16
	.cfi_def_cfa_offset 0
	ret
	.cfi_endproc
.LFE6387:
	.size	_ZN9__gnu_cxx13new_allocatorIiEC2ERKS1_, .-_ZN9__gnu_cxx13new_allocatorIiEC2ERKS1_
	.weak	_ZN9__gnu_cxx13new_allocatorIiEC1ERKS1_
	.set	_ZN9__gnu_cxx13new_allocatorIiEC1ERKS1_,_ZN9__gnu_cxx13new_allocatorIiEC2ERKS1_
	.section	.text._ZN9__gnu_cxx13new_allocatorIiE10deallocateEPim,"axG",@progbits,_ZN9__gnu_cxx13new_allocatorIiE10deallocateEPim,comdat
	.align	2
	.weak	_ZN9__gnu_cxx13new_allocatorIiE10deallocateEPim
	.type	_ZN9__gnu_cxx13new_allocatorIiE10deallocateEPim, %function
_ZN9__gnu_cxx13new_allocatorIiE10deallocateEPim:
.LFB6389:
	.cfi_startproc
	stp	x29, x30, [sp, -48]!
	.cfi_def_cfa_offset 48
	.cfi_offset 29, -48
	.cfi_offset 30, -40
	mov	x29, sp
	str	x0, [sp, 40]
	str	x1, [sp, 32]
	str	x2, [sp, 24]
	ldr	x0, [sp, 24]
	lsl	x0, x0, 2
	mov	x1, x0
	ldr	x0, [sp, 32]
	bl	_ZdlPvm
	ldp	x29, x30, [sp], 48
	.cfi_restore 30
	.cfi_restore 29
	.cfi_def_cfa_offset 0
	ret
	.cfi_endproc
.LFE6389:
	.size	_ZN9__gnu_cxx13new_allocatorIiE10deallocateEPim, .-_ZN9__gnu_cxx13new_allocatorIiE10deallocateEPim
	.section	.text._ZNSt16allocator_traitsISaIiEE8max_sizeERKS0_,"axG",@progbits,_ZNSt16allocator_traitsISaIiEE8max_sizeERKS0_,comdat
	.align	2
	.weak	_ZNSt16allocator_traitsISaIiEE8max_sizeERKS0_
	.type	_ZNSt16allocator_traitsISaIiEE8max_sizeERKS0_, %function
_ZNSt16allocator_traitsISaIiEE8max_sizeERKS0_:
.LFB6390:
	.cfi_startproc
	stp	x29, x30, [sp, -32]!
	.cfi_def_cfa_offset 32
	.cfi_offset 29, -32
	.cfi_offset 30, -24
	mov	x29, sp
	str	x0, [sp, 24]
	ldr	x0, [sp, 24]
	bl	_ZNK9__gnu_cxx13new_allocatorIiE8max_sizeEv
	ldp	x29, x30, [sp], 32
	.cfi_restore 30
	.cfi_restore 29
	.cfi_def_cfa_offset 0
	ret
	.cfi_endproc
.LFE6390:
	.size	_ZNSt16allocator_traitsISaIiEE8max_sizeERKS0_, .-_ZNSt16allocator_traitsISaIiEE8max_sizeERKS0_
	.section	.text._ZNK9__gnu_cxx13new_allocatorIiE11_M_max_sizeEv,"axG",@progbits,_ZNK9__gnu_cxx13new_allocatorIiE11_M_max_sizeEv,comdat
	.align	2
	.weak	_ZNK9__gnu_cxx13new_allocatorIiE11_M_max_sizeEv
	.type	_ZNK9__gnu_cxx13new_allocatorIiE11_M_max_sizeEv, %function
_ZNK9__gnu_cxx13new_allocatorIiE11_M_max_sizeEv:
.LFB6392:
	.cfi_startproc
	sub	sp, sp, #16
	.cfi_def_cfa_offset 16
	str	x0, [sp, 8]
	mov	x0, 2305843009213693951
	add	sp, sp, 16
	.cfi_def_cfa_offset 0
	ret
	.cfi_endproc
.LFE6392:
	.size	_ZNK9__gnu_cxx13new_allocatorIiE11_M_max_sizeEv, .-_ZNK9__gnu_cxx13new_allocatorIiE11_M_max_sizeEv
	.section	.text._ZN9__gnu_cxx13new_allocatorIiE8allocateEmPKv,"axG",@progbits,_ZN9__gnu_cxx13new_allocatorIiE8allocateEmPKv,comdat
	.align	2
	.weak	_ZN9__gnu_cxx13new_allocatorIiE8allocateEmPKv
	.type	_ZN9__gnu_cxx13new_allocatorIiE8allocateEmPKv, %function
_ZN9__gnu_cxx13new_allocatorIiE8allocateEmPKv:
.LFB6391:
	.cfi_startproc
	stp	x29, x30, [sp, -48]!
	.cfi_def_cfa_offset 48
	.cfi_offset 29, -48
	.cfi_offset 30, -40
	mov	x29, sp
	str	x0, [sp, 40]
	str	x1, [sp, 32]
	str	x2, [sp, 24]
	ldr	x0, [sp, 40]
	bl	_ZNK9__gnu_cxx13new_allocatorIiE11_M_max_sizeEv
	mov	x1, x0
	ldr	x0, [sp, 32]
	cmp	x0, x1
	cset	w0, hi
	and	w0, w0, 255
	and	x0, x0, 255
	cmp	x0, 0
	cset	w0, ne
	and	w0, w0, 255
	cmp	w0, 0
	beq	.L156
	ldr	x1, [sp, 32]
	mov	x0, 4611686018427387903
	cmp	x1, x0
	bls	.L157
	bl	_ZSt28__throw_bad_array_new_lengthv
.L157:
	bl	_ZSt17__throw_bad_allocv
.L156:
	ldr	x0, [sp, 32]
	lsl	x0, x0, 2
	bl	_Znwm
	nop
	ldp	x29, x30, [sp], 48
	.cfi_restore 30
	.cfi_restore 29
	.cfi_def_cfa_offset 0
	ret
	.cfi_endproc
.LFE6391:
	.size	_ZN9__gnu_cxx13new_allocatorIiE8allocateEmPKv, .-_ZN9__gnu_cxx13new_allocatorIiE8allocateEmPKv
	.section	.text._ZNSt20__uninitialized_copyILb1EE13__uninit_copyIPKiPiEET0_T_S6_S5_,"axG",@progbits,_ZNSt20__uninitialized_copyILb1EE13__uninit_copyIPKiPiEET0_T_S6_S5_,comdat
	.align	2
	.weak	_ZNSt20__uninitialized_copyILb1EE13__uninit_copyIPKiPiEET0_T_S6_S5_
	.type	_ZNSt20__uninitialized_copyILb1EE13__uninit_copyIPKiPiEET0_T_S6_S5_, %function
_ZNSt20__uninitialized_copyILb1EE13__uninit_copyIPKiPiEET0_T_S6_S5_:
.LFB6393:
	.cfi_startproc
	stp	x29, x30, [sp, -48]!
	.cfi_def_cfa_offset 48
	.cfi_offset 29, -48
	.cfi_offset 30, -40
	mov	x29, sp
	str	x0, [sp, 40]
	str	x1, [sp, 32]
	str	x2, [sp, 24]
	ldr	x2, [sp, 24]
	ldr	x1, [sp, 32]
	ldr	x0, [sp, 40]
	bl	_ZSt4copyIPKiPiET0_T_S4_S3_
	ldp	x29, x30, [sp], 48
	.cfi_restore 30
	.cfi_restore 29
	.cfi_def_cfa_offset 0
	ret
	.cfi_endproc
.LFE6393:
	.size	_ZNSt20__uninitialized_copyILb1EE13__uninit_copyIPKiPiEET0_T_S6_S5_, .-_ZNSt20__uninitialized_copyILb1EE13__uninit_copyIPKiPiEET0_T_S6_S5_
	.section	.text._ZN5boost6lambda14lambda_functorINS0_19lambda_functor_baseINS0_17arithmetic_actionINS0_15multiply_actionEEENS_6tuples5tupleINS1_INS0_11placeholderILi1EEEEEKiNS6_9null_typeESC_SC_SC_SC_SC_SC_SC_EEEEEC2ERKSF_,"axG",@progbits,_ZN5boost6lambda14lambda_functorINS0_19lambda_functor_baseINS0_17arithmetic_actionINS0_15multiply_actionEEENS_6tuples5tupleINS1_INS0_11placeholderILi1EEEEEKiNS6_9null_typeESC_SC_SC_SC_SC_SC_SC_EEEEEC5ERKSF_,comdat
	.align	2
	.weak	_ZN5boost6lambda14lambda_functorINS0_19lambda_functor_baseINS0_17arithmetic_actionINS0_15multiply_actionEEENS_6tuples5tupleINS1_INS0_11placeholderILi1EEEEEKiNS6_9null_typeESC_SC_SC_SC_SC_SC_SC_EEEEEC2ERKSF_
	.type	_ZN5boost6lambda14lambda_functorINS0_19lambda_functor_baseINS0_17arithmetic_actionINS0_15multiply_actionEEENS_6tuples5tupleINS1_INS0_11placeholderILi1EEEEEKiNS6_9null_typeESC_SC_SC_SC_SC_SC_SC_EEEEEC2ERKSF_, %function
_ZN5boost6lambda14lambda_functorINS0_19lambda_functor_baseINS0_17arithmetic_actionINS0_15multiply_actionEEENS_6tuples5tupleINS1_INS0_11placeholderILi1EEEEEKiNS6_9null_typeESC_SC_SC_SC_SC_SC_SC_EEEEEC2ERKSF_:
.LFB6395:
	.cfi_startproc
	stp	x29, x30, [sp, -32]!
	.cfi_def_cfa_offset 32
	.cfi_offset 29, -32
	.cfi_offset 30, -24
	mov	x29, sp
	str	x0, [sp, 24]
	str	x1, [sp, 16]
	ldr	x0, [sp, 24]
	ldr	x1, [sp, 16]
	bl	_ZN5boost6lambda19lambda_functor_baseINS0_17arithmetic_actionINS0_15multiply_actionEEENS_6tuples5tupleINS0_14lambda_functorINS0_11placeholderILi1EEEEEKiNS5_9null_typeESC_SC_SC_SC_SC_SC_SC_EEEC2ERKSE_
	nop
	ldp	x29, x30, [sp], 32
	.cfi_restore 30
	.cfi_restore 29
	.cfi_def_cfa_offset 0
	ret
	.cfi_endproc
.LFE6395:
	.size	_ZN5boost6lambda14lambda_functorINS0_19lambda_functor_baseINS0_17arithmetic_actionINS0_15multiply_actionEEENS_6tuples5tupleINS1_INS0_11placeholderILi1EEEEEKiNS6_9null_typeESC_SC_SC_SC_SC_SC_SC_EEEEEC2ERKSF_, .-_ZN5boost6lambda14lambda_functorINS0_19lambda_functor_baseINS0_17arithmetic_actionINS0_15multiply_actionEEENS_6tuples5tupleINS1_INS0_11placeholderILi1EEEEEKiNS6_9null_typeESC_SC_SC_SC_SC_SC_SC_EEEEEC2ERKSF_
	.weak	_ZN5boost6lambda14lambda_functorINS0_19lambda_functor_baseINS0_17arithmetic_actionINS0_15multiply_actionEEENS_6tuples5tupleINS1_INS0_11placeholderILi1EEEEEKiNS6_9null_typeESC_SC_SC_SC_SC_SC_SC_EEEEEC1ERKSF_
	.set	_ZN5boost6lambda14lambda_functorINS0_19lambda_functor_baseINS0_17arithmetic_actionINS0_15multiply_actionEEENS_6tuples5tupleINS1_INS0_11placeholderILi1EEEEEKiNS6_9null_typeESC_SC_SC_SC_SC_SC_SC_EEEEEC1ERKSF_,_ZN5boost6lambda14lambda_functorINS0_19lambda_functor_baseINS0_17arithmetic_actionINS0_15multiply_actionEEENS_6tuples5tupleINS1_INS0_11placeholderILi1EEEEEKiNS6_9null_typeESC_SC_SC_SC_SC_SC_SC_EEEEEC2ERKSF_
	.section	.text._ZN5boost6tuples6detail10drop_frontILi0EE5applyINS0_4consINS_6lambda14lambda_functorINS6_19lambda_functor_baseINS6_14bitwise_actionINS6_16leftshift_actionEEENS0_5tupleIRSoNS7_INS8_INS6_17arithmetic_actionINS6_15multiply_actionEEENSC_INS7_INS6_11placeholderILi1EEEEEKiNS0_9null_typeESL_SL_SL_SL_SL_SL_SL_EEEEEESL_SL_SL_SL_SL_SL_SL_SL_EEEEEENS5_IRA2_KcSL_EEEEE4callERKSW_,"axG",@progbits,_ZN5boost6tuples6detail10drop_frontILi0EE5applyINS0_4consINS_6lambda14lambda_functorINS6_19lambda_functor_baseINS6_14bitwise_actionINS6_16leftshift_actionEEENS0_5tupleIRSoNS7_INS8_INS6_17arithmetic_actionINS6_15multiply_actionEEENSC_INS7_INS6_11placeholderILi1EEEEEKiNS0_9null_typeESL_SL_SL_SL_SL_SL_SL_EEEEEESL_SL_SL_SL_SL_SL_SL_SL_EEEEEENS5_IRA2_KcSL_EEEEE4callERKSW_,comdat
	.align	2
	.weak	_ZN5boost6tuples6detail10drop_frontILi0EE5applyINS0_4consINS_6lambda14lambda_functorINS6_19lambda_functor_baseINS6_14bitwise_actionINS6_16leftshift_actionEEENS0_5tupleIRSoNS7_INS8_INS6_17arithmetic_actionINS6_15multiply_actionEEENSC_INS7_INS6_11placeholderILi1EEEEEKiNS0_9null_typeESL_SL_SL_SL_SL_SL_SL_EEEEEESL_SL_SL_SL_SL_SL_SL_SL_EEEEEENS5_IRA2_KcSL_EEEEE4callERKSW_
	.type	_ZN5boost6tuples6detail10drop_frontILi0EE5applyINS0_4consINS_6lambda14lambda_functorINS6_19lambda_functor_baseINS6_14bitwise_actionINS6_16leftshift_actionEEENS0_5tupleIRSoNS7_INS8_INS6_17arithmetic_actionINS6_15multiply_actionEEENSC_INS7_INS6_11placeholderILi1EEEEEKiNS0_9null_typeESL_SL_SL_SL_SL_SL_SL_EEEEEESL_SL_SL_SL_SL_SL_SL_SL_EEEEEENS5_IRA2_KcSL_EEEEE4callERKSW_, %function
_ZN5boost6tuples6detail10drop_frontILi0EE5applyINS0_4consINS_6lambda14lambda_functorINS6_19lambda_functor_baseINS6_14bitwise_actionINS6_16leftshift_actionEEENS0_5tupleIRSoNS7_INS8_INS6_17arithmetic_actionINS6_15multiply_actionEEENSC_INS7_INS6_11placeholderILi1EEEEEKiNS0_9null_typeESL_SL_SL_SL_SL_SL_SL_EEEEEESL_SL_SL_SL_SL_SL_SL_SL_EEEEEENS5_IRA2_KcSL_EEEEE4callERKSW_:
.LFB6397:
	.cfi_startproc
	sub	sp, sp, #16
	.cfi_def_cfa_offset 16
	str	x0, [sp, 8]
	ldr	x0, [sp, 8]
	add	sp, sp, 16
	.cfi_def_cfa_offset 0
	ret
	.cfi_endproc
.LFE6397:
	.size	_ZN5boost6tuples6detail10drop_frontILi0EE5applyINS0_4consINS_6lambda14lambda_functorINS6_19lambda_functor_baseINS6_14bitwise_actionINS6_16leftshift_actionEEENS0_5tupleIRSoNS7_INS8_INS6_17arithmetic_actionINS6_15multiply_actionEEENSC_INS7_INS6_11placeholderILi1EEEEEKiNS0_9null_typeESL_SL_SL_SL_SL_SL_SL_EEEEEESL_SL_SL_SL_SL_SL_SL_SL_EEEEEENS5_IRA2_KcSL_EEEEE4callERKSW_, .-_ZN5boost6tuples6detail10drop_frontILi0EE5applyINS0_4consINS_6lambda14lambda_functorINS6_19lambda_functor_baseINS6_14bitwise_actionINS6_16leftshift_actionEEENS0_5tupleIRSoNS7_INS8_INS6_17arithmetic_actionINS6_15multiply_actionEEENSC_INS7_INS6_11placeholderILi1EEEEEKiNS0_9null_typeESL_SL_SL_SL_SL_SL_SL_EEEEEESL_SL_SL_SL_SL_SL_SL_SL_EEEEEENS5_IRA2_KcSL_EEEEE4callERKSW_
	.section	.text._ZNK5boost6lambda19lambda_functor_baseINS0_14bitwise_actionINS0_16leftshift_actionEEENS_6tuples5tupleIRSoNS0_14lambda_functorINS1_INS0_17arithmetic_actionINS0_15multiply_actionEEENS6_INS8_INS0_11placeholderILi1EEEEEKiNS5_9null_typeESG_SG_SG_SG_SG_SG_SG_EEEEEESG_SG_SG_SG_SG_SG_SG_SG_EEE4callIS7_iKSG_SN_SN_EET_RT0_RT1_RT2_RT3_,"axG",@progbits,_ZNK5boost6lambda19lambda_functor_baseINS0_14bitwise_actionINS0_16leftshift_actionEEENS_6tuples5tupleIRSoNS0_14lambda_functorINS1_INS0_17arithmetic_actionINS0_15multiply_actionEEENS6_INS8_INS0_11placeholderILi1EEEEEKiNS5_9null_typeESG_SG_SG_SG_SG_SG_SG_EEEEEESG_SG_SG_SG_SG_SG_SG_SG_EEE4callIS7_iKSG_SN_SN_EET_RT0_RT1_RT2_RT3_,comdat
	.align	2
	.weak	_ZNK5boost6lambda19lambda_functor_baseINS0_14bitwise_actionINS0_16leftshift_actionEEENS_6tuples5tupleIRSoNS0_14lambda_functorINS1_INS0_17arithmetic_actionINS0_15multiply_actionEEENS6_INS8_INS0_11placeholderILi1EEEEEKiNS5_9null_typeESG_SG_SG_SG_SG_SG_SG_EEEEEESG_SG_SG_SG_SG_SG_SG_SG_EEE4callIS7_iKSG_SN_SN_EET_RT0_RT1_RT2_RT3_
	.type	_ZNK5boost6lambda19lambda_functor_baseINS0_14bitwise_actionINS0_16leftshift_actionEEENS_6tuples5tupleIRSoNS0_14lambda_functorINS1_INS0_17arithmetic_actionINS0_15multiply_actionEEENS6_INS8_INS0_11placeholderILi1EEEEEKiNS5_9null_typeESG_SG_SG_SG_SG_SG_SG_EEEEEESG_SG_SG_SG_SG_SG_SG_SG_EEE4callIS7_iKSG_SN_SN_EET_RT0_RT1_RT2_RT3_, %function
_ZNK5boost6lambda19lambda_functor_baseINS0_14bitwise_actionINS0_16leftshift_actionEEENS_6tuples5tupleIRSoNS0_14lambda_functorINS1_INS0_17arithmetic_actionINS0_15multiply_actionEEENS6_INS8_INS0_11placeholderILi1EEEEEKiNS5_9null_typeESG_SG_SG_SG_SG_SG_SG_EEEEEESG_SG_SG_SG_SG_SG_SG_SG_EEE4callIS7_iKSG_SN_SN_EET_RT0_RT1_RT2_RT3_:
.LFB6398:
	.cfi_startproc
	stp	x29, x30, [sp, -80]!
	.cfi_def_cfa_offset 80
	.cfi_offset 29, -80
	.cfi_offset 30, -72
	mov	x29, sp
	str	x19, [sp, 16]
	.cfi_offset 19, -64
	str	x0, [sp, 72]
	str	x1, [sp, 64]
	str	x2, [sp, 56]
	str	x3, [sp, 48]
	str	x4, [sp, 40]
	ldr	x0, [sp, 72]
	bl	_ZN5boost6tuples3getILi0ERSoNS0_4consINS_6lambda14lambda_functorINS4_19lambda_functor_baseINS4_17arithmetic_actionINS4_15multiply_actionEEENS0_5tupleINS5_INS4_11placeholderILi1EEEEEKiNS0_9null_typeESF_SF_SF_SF_SF_SF_SF_EEEEEESF_EEEENS0_13access_traitsINS0_7elementIXT_ENS3_IT0_T1_EEE4typeEE10const_typeERKSO_
	ldr	x4, [sp, 40]
	ldr	x3, [sp, 48]
	ldr	x2, [sp, 56]
	ldr	x1, [sp, 64]
	bl	_ZN5boost6lambda6detail6selectISoiKNS_6tuples9null_typeES5_S5_EERT_S7_RT0_RT1_RT2_RT3_
	mov	x19, x0
	ldr	x0, [sp, 72]
	bl	_ZN5boost6tuples3getILi1ERSoNS0_4consINS_6lambda14lambda_functorINS4_19lambda_functor_baseINS4_17arithmetic_actionINS4_15multiply_actionEEENS0_5tupleINS5_INS4_11placeholderILi1EEEEEKiNS0_9null_typeESF_SF_SF_SF_SF_SF_SF_EEEEEESF_EEEENS0_13access_traitsINS0_7elementIXT_ENS3_IT0_T1_EEE4typeEE10const_typeERKSO_
	ldr	x4, [sp, 40]
	ldr	x3, [sp, 48]
	ldr	x2, [sp, 56]
	ldr	x1, [sp, 64]
	bl	_ZN5boost6lambda6detail6selectINS0_19lambda_functor_baseINS0_17arithmetic_actionINS0_15multiply_actionEEENS_6tuples5tupleINS0_14lambda_functorINS0_11placeholderILi1EEEEEKiNS7_9null_typeESE_SE_SE_SE_SE_SE_SE_EEEEiKSE_SH_SH_EENT_3sigINS8_IRT0_RT1_RT2_RT3_SE_SE_SE_SE_SE_SE_EEE4typeERKNS9_ISI_EESL_SN_SP_SR_
	mov	w1, w0
	mov	x0, x19
	bl	_ZNSolsEi
	ldr	x19, [sp, 16]
	ldp	x29, x30, [sp], 80
	.cfi_restore 30
	.cfi_restore 29
	.cfi_restore 19
	.cfi_def_cfa_offset 0
	ret
	.cfi_endproc
.LFE6398:
	.size	_ZNK5boost6lambda19lambda_functor_baseINS0_14bitwise_actionINS0_16leftshift_actionEEENS_6tuples5tupleIRSoNS0_14lambda_functorINS1_INS0_17arithmetic_actionINS0_15multiply_actionEEENS6_INS8_INS0_11placeholderILi1EEEEEKiNS5_9null_typeESG_SG_SG_SG_SG_SG_SG_EEEEEESG_SG_SG_SG_SG_SG_SG_SG_EEE4callIS7_iKSG_SN_SN_EET_RT0_RT1_RT2_RT3_, .-_ZNK5boost6lambda19lambda_functor_baseINS0_14bitwise_actionINS0_16leftshift_actionEEENS_6tuples5tupleIRSoNS0_14lambda_functorINS1_INS0_17arithmetic_actionINS0_15multiply_actionEEENS6_INS8_INS0_11placeholderILi1EEEEEKiNS5_9null_typeESG_SG_SG_SG_SG_SG_SG_EEEEEESG_SG_SG_SG_SG_SG_SG_SG_EEE4callIS7_iKSG_SN_SN_EET_RT0_RT1_RT2_RT3_
	.section	.text._ZN5boost6tuples6detail10drop_frontILi1EE5applyINS0_4consINS_6lambda14lambda_functorINS6_19lambda_functor_baseINS6_14bitwise_actionINS6_16leftshift_actionEEENS0_5tupleIRSoNS7_INS8_INS6_17arithmetic_actionINS6_15multiply_actionEEENSC_INS7_INS6_11placeholderILi1EEEEEKiNS0_9null_typeESL_SL_SL_SL_SL_SL_SL_EEEEEESL_SL_SL_SL_SL_SL_SL_SL_EEEEEENS5_IRA2_KcSL_EEEEE4callERKSW_,"axG",@progbits,_ZN5boost6tuples6detail10drop_frontILi1EE5applyINS0_4consINS_6lambda14lambda_functorINS6_19lambda_functor_baseINS6_14bitwise_actionINS6_16leftshift_actionEEENS0_5tupleIRSoNS7_INS8_INS6_17arithmetic_actionINS6_15multiply_actionEEENSC_INS7_INS6_11placeholderILi1EEEEEKiNS0_9null_typeESL_SL_SL_SL_SL_SL_SL_EEEEEESL_SL_SL_SL_SL_SL_SL_SL_EEEEEENS5_IRA2_KcSL_EEEEE4callERKSW_,comdat
	.align	2
	.weak	_ZN5boost6tuples6detail10drop_frontILi1EE5applyINS0_4consINS_6lambda14lambda_functorINS6_19lambda_functor_baseINS6_14bitwise_actionINS6_16leftshift_actionEEENS0_5tupleIRSoNS7_INS8_INS6_17arithmetic_actionINS6_15multiply_actionEEENSC_INS7_INS6_11placeholderILi1EEEEEKiNS0_9null_typeESL_SL_SL_SL_SL_SL_SL_EEEEEESL_SL_SL_SL_SL_SL_SL_SL_EEEEEENS5_IRA2_KcSL_EEEEE4callERKSW_
	.type	_ZN5boost6tuples6detail10drop_frontILi1EE5applyINS0_4consINS_6lambda14lambda_functorINS6_19lambda_functor_baseINS6_14bitwise_actionINS6_16leftshift_actionEEENS0_5tupleIRSoNS7_INS8_INS6_17arithmetic_actionINS6_15multiply_actionEEENSC_INS7_INS6_11placeholderILi1EEEEEKiNS0_9null_typeESL_SL_SL_SL_SL_SL_SL_EEEEEESL_SL_SL_SL_SL_SL_SL_SL_EEEEEENS5_IRA2_KcSL_EEEEE4callERKSW_, %function
_ZN5boost6tuples6detail10drop_frontILi1EE5applyINS0_4consINS_6lambda14lambda_functorINS6_19lambda_functor_baseINS6_14bitwise_actionINS6_16leftshift_actionEEENS0_5tupleIRSoNS7_INS8_INS6_17arithmetic_actionINS6_15multiply_actionEEENSC_INS7_INS6_11placeholderILi1EEEEEKiNS0_9null_typeESL_SL_SL_SL_SL_SL_SL_EEEEEESL_SL_SL_SL_SL_SL_SL_SL_EEEEEENS5_IRA2_KcSL_EEEEE4callERKSW_:
.LFB6399:
	.cfi_startproc
	stp	x29, x30, [sp, -32]!
	.cfi_def_cfa_offset 32
	.cfi_offset 29, -32
	.cfi_offset 30, -24
	mov	x29, sp
	str	x0, [sp, 24]
	ldr	x0, [sp, 24]
	bl	_ZN5boost6tuples6detail10drop_frontILi0EE5applyINS0_4consINS_6lambda14lambda_functorINS6_19lambda_functor_baseINS6_14bitwise_actionINS6_16leftshift_actionEEENS0_5tupleIRSoNS7_INS8_INS6_17arithmetic_actionINS6_15multiply_actionEEENSC_INS7_INS6_11placeholderILi1EEEEEKiNS0_9null_typeESL_SL_SL_SL_SL_SL_SL_EEEEEESL_SL_SL_SL_SL_SL_SL_SL_EEEEEENS5_IRA2_KcSL_EEEEE4callERKSW_
	add	x0, x0, 16
	ldp	x29, x30, [sp], 32
	.cfi_restore 30
	.cfi_restore 29
	.cfi_def_cfa_offset 0
	ret
	.cfi_endproc
.LFE6399:
	.size	_ZN5boost6tuples6detail10drop_frontILi1EE5applyINS0_4consINS_6lambda14lambda_functorINS6_19lambda_functor_baseINS6_14bitwise_actionINS6_16leftshift_actionEEENS0_5tupleIRSoNS7_INS8_INS6_17arithmetic_actionINS6_15multiply_actionEEENSC_INS7_INS6_11placeholderILi1EEEEEKiNS0_9null_typeESL_SL_SL_SL_SL_SL_SL_EEEEEESL_SL_SL_SL_SL_SL_SL_SL_EEEEEENS5_IRA2_KcSL_EEEEE4callERKSW_, .-_ZN5boost6tuples6detail10drop_frontILi1EE5applyINS0_4consINS_6lambda14lambda_functorINS6_19lambda_functor_baseINS6_14bitwise_actionINS6_16leftshift_actionEEENS0_5tupleIRSoNS7_INS8_INS6_17arithmetic_actionINS6_15multiply_actionEEENSC_INS7_INS6_11placeholderILi1EEEEEKiNS0_9null_typeESL_SL_SL_SL_SL_SL_SL_EEEEEESL_SL_SL_SL_SL_SL_SL_SL_EEEEEENS5_IRA2_KcSL_EEEEE4callERKSW_
	.section	.text._ZN5boost6lambda6detail10do_nothingIiKNS_6tuples9null_typeES5_S5_EEvRT_RT0_RT1_RT2_,"axG",@progbits,_ZN5boost6lambda6detail10do_nothingIiKNS_6tuples9null_typeES5_S5_EEvRT_RT0_RT1_RT2_,comdat
	.align	2
	.weak	_ZN5boost6lambda6detail10do_nothingIiKNS_6tuples9null_typeES5_S5_EEvRT_RT0_RT1_RT2_
	.type	_ZN5boost6lambda6detail10do_nothingIiKNS_6tuples9null_typeES5_S5_EEvRT_RT0_RT1_RT2_, %function
_ZN5boost6lambda6detail10do_nothingIiKNS_6tuples9null_typeES5_S5_EEvRT_RT0_RT1_RT2_:
.LFB6400:
	.cfi_startproc
	sub	sp, sp, #32
	.cfi_def_cfa_offset 32
	str	x0, [sp, 24]
	str	x1, [sp, 16]
	str	x2, [sp, 8]
	str	x3, [sp]
	nop
	add	sp, sp, 32
	.cfi_def_cfa_offset 0
	ret
	.cfi_endproc
.LFE6400:
	.size	_ZN5boost6lambda6detail10do_nothingIiKNS_6tuples9null_typeES5_S5_EEvRT_RT0_RT1_RT2_, .-_ZN5boost6lambda6detail10do_nothingIiKNS_6tuples9null_typeES5_S5_EEvRT_RT0_RT1_RT2_
	.section	.text._ZNK9__gnu_cxx13new_allocatorIiE8max_sizeEv,"axG",@progbits,_ZNK9__gnu_cxx13new_allocatorIiE8max_sizeEv,comdat
	.align	2
	.weak	_ZNK9__gnu_cxx13new_allocatorIiE8max_sizeEv
	.type	_ZNK9__gnu_cxx13new_allocatorIiE8max_sizeEv, %function
_ZNK9__gnu_cxx13new_allocatorIiE8max_sizeEv:
.LFB6428:
	.cfi_startproc
	stp	x29, x30, [sp, -32]!
	.cfi_def_cfa_offset 32
	.cfi_offset 29, -32
	.cfi_offset 30, -24
	mov	x29, sp
	str	x0, [sp, 24]
	ldr	x0, [sp, 24]
	bl	_ZNK9__gnu_cxx13new_allocatorIiE11_M_max_sizeEv
	ldp	x29, x30, [sp], 32
	.cfi_restore 30
	.cfi_restore 29
	.cfi_def_cfa_offset 0
	ret
	.cfi_endproc
.LFE6428:
	.size	_ZNK9__gnu_cxx13new_allocatorIiE8max_sizeEv, .-_ZNK9__gnu_cxx13new_allocatorIiE8max_sizeEv
	.section	.text._ZSt4copyIPKiPiET0_T_S4_S3_,"axG",@progbits,_ZSt4copyIPKiPiET0_T_S4_S3_,comdat
	.align	2
	.weak	_ZSt4copyIPKiPiET0_T_S4_S3_
	.type	_ZSt4copyIPKiPiET0_T_S4_S3_, %function
_ZSt4copyIPKiPiET0_T_S4_S3_:
.LFB6429:
	.cfi_startproc
	stp	x29, x30, [sp, -64]!
	.cfi_def_cfa_offset 64
	.cfi_offset 29, -64
	.cfi_offset 30, -56
	mov	x29, sp
	str	x19, [sp, 16]
	.cfi_offset 19, -48
	str	x0, [sp, 56]
	str	x1, [sp, 48]
	str	x2, [sp, 40]
	ldr	x0, [sp, 56]
	bl	_ZSt12__miter_baseIPKiET_S2_
	mov	x19, x0
	ldr	x0, [sp, 48]
	bl	_ZSt12__miter_baseIPKiET_S2_
	ldr	x2, [sp, 40]
	mov	x1, x0
	mov	x0, x19
	bl	_ZSt13__copy_move_aILb0EPKiPiET1_T0_S4_S3_
	ldr	x19, [sp, 16]
	ldp	x29, x30, [sp], 64
	.cfi_restore 30
	.cfi_restore 29
	.cfi_restore 19
	.cfi_def_cfa_offset 0
	ret
	.cfi_endproc
.LFE6429:
	.size	_ZSt4copyIPKiPiET0_T_S4_S3_, .-_ZSt4copyIPKiPiET0_T_S4_S3_
	.section	.text._ZN5boost6tuples3getILi0ERSoNS0_4consINS_6lambda14lambda_functorINS4_19lambda_functor_baseINS4_17arithmetic_actionINS4_15multiply_actionEEENS0_5tupleINS5_INS4_11placeholderILi1EEEEEKiNS0_9null_typeESF_SF_SF_SF_SF_SF_SF_EEEEEESF_EEEENS0_13access_traitsINS0_7elementIXT_ENS3_IT0_T1_EEE4typeEE10const_typeERKSO_,"axG",@progbits,_ZN5boost6tuples3getILi0ERSoNS0_4consINS_6lambda14lambda_functorINS4_19lambda_functor_baseINS4_17arithmetic_actionINS4_15multiply_actionEEENS0_5tupleINS5_INS4_11placeholderILi1EEEEEKiNS0_9null_typeESF_SF_SF_SF_SF_SF_SF_EEEEEESF_EEEENS0_13access_traitsINS0_7elementIXT_ENS3_IT0_T1_EEE4typeEE10const_typeERKSO_,comdat
	.align	2
	.weak	_ZN5boost6tuples3getILi0ERSoNS0_4consINS_6lambda14lambda_functorINS4_19lambda_functor_baseINS4_17arithmetic_actionINS4_15multiply_actionEEENS0_5tupleINS5_INS4_11placeholderILi1EEEEEKiNS0_9null_typeESF_SF_SF_SF_SF_SF_SF_EEEEEESF_EEEENS0_13access_traitsINS0_7elementIXT_ENS3_IT0_T1_EEE4typeEE10const_typeERKSO_
	.type	_ZN5boost6tuples3getILi0ERSoNS0_4consINS_6lambda14lambda_functorINS4_19lambda_functor_baseINS4_17arithmetic_actionINS4_15multiply_actionEEENS0_5tupleINS5_INS4_11placeholderILi1EEEEEKiNS0_9null_typeESF_SF_SF_SF_SF_SF_SF_EEEEEESF_EEEENS0_13access_traitsINS0_7elementIXT_ENS3_IT0_T1_EEE4typeEE10const_typeERKSO_, %function
_ZN5boost6tuples3getILi0ERSoNS0_4consINS_6lambda14lambda_functorINS4_19lambda_functor_baseINS4_17arithmetic_actionINS4_15multiply_actionEEENS0_5tupleINS5_INS4_11placeholderILi1EEEEEKiNS0_9null_typeESF_SF_SF_SF_SF_SF_SF_EEEEEESF_EEEENS0_13access_traitsINS0_7elementIXT_ENS3_IT0_T1_EEE4typeEE10const_typeERKSO_:
.LFB6430:
	.cfi_startproc
	stp	x29, x30, [sp, -32]!
	.cfi_def_cfa_offset 32
	.cfi_offset 29, -32
	.cfi_offset 30, -24
	mov	x29, sp
	str	x0, [sp, 24]
	ldr	x0, [sp, 24]
	bl	_ZN5boost6tuples6detail10drop_frontILi0EE5applyINS0_4consIRSoNS5_INS_6lambda14lambda_functorINS7_19lambda_functor_baseINS7_17arithmetic_actionINS7_15multiply_actionEEENS0_5tupleINS8_INS7_11placeholderILi1EEEEEKiNS0_9null_typeESI_SI_SI_SI_SI_SI_SI_EEEEEESI_EEEEE4callERKSN_
	ldr	x0, [x0]
	ldp	x29, x30, [sp], 32
	.cfi_restore 30
	.cfi_restore 29
	.cfi_def_cfa_offset 0
	ret
	.cfi_endproc
.LFE6430:
	.size	_ZN5boost6tuples3getILi0ERSoNS0_4consINS_6lambda14lambda_functorINS4_19lambda_functor_baseINS4_17arithmetic_actionINS4_15multiply_actionEEENS0_5tupleINS5_INS4_11placeholderILi1EEEEEKiNS0_9null_typeESF_SF_SF_SF_SF_SF_SF_EEEEEESF_EEEENS0_13access_traitsINS0_7elementIXT_ENS3_IT0_T1_EEE4typeEE10const_typeERKSO_, .-_ZN5boost6tuples3getILi0ERSoNS0_4consINS_6lambda14lambda_functorINS4_19lambda_functor_baseINS4_17arithmetic_actionINS4_15multiply_actionEEENS0_5tupleINS5_INS4_11placeholderILi1EEEEEKiNS0_9null_typeESF_SF_SF_SF_SF_SF_SF_EEEEEESF_EEEENS0_13access_traitsINS0_7elementIXT_ENS3_IT0_T1_EEE4typeEE10const_typeERKSO_
	.section	.text._ZN5boost6lambda6detail6selectISoiKNS_6tuples9null_typeES5_S5_EERT_S7_RT0_RT1_RT2_RT3_,"axG",@progbits,_ZN5boost6lambda6detail6selectISoiKNS_6tuples9null_typeES5_S5_EERT_S7_RT0_RT1_RT2_RT3_,comdat
	.align	2
	.weak	_ZN5boost6lambda6detail6selectISoiKNS_6tuples9null_typeES5_S5_EERT_S7_RT0_RT1_RT2_RT3_
	.type	_ZN5boost6lambda6detail6selectISoiKNS_6tuples9null_typeES5_S5_EERT_S7_RT0_RT1_RT2_RT3_, %function
_ZN5boost6lambda6detail6selectISoiKNS_6tuples9null_typeES5_S5_EERT_S7_RT0_RT1_RT2_RT3_:
.LFB6431:
	.cfi_startproc
	stp	x29, x30, [sp, -64]!
	.cfi_def_cfa_offset 64
	.cfi_offset 29, -64
	.cfi_offset 30, -56
	mov	x29, sp
	str	x0, [sp, 56]
	str	x1, [sp, 48]
	str	x2, [sp, 40]
	str	x3, [sp, 32]
	str	x4, [sp, 24]
	ldr	x3, [sp, 24]
	ldr	x2, [sp, 32]
	ldr	x1, [sp, 40]
	ldr	x0, [sp, 48]
	bl	_ZN5boost6lambda6detail10do_nothingIiKNS_6tuples9null_typeES5_S5_EEvRT_RT0_RT1_RT2_
	ldr	x0, [sp, 56]
	ldp	x29, x30, [sp], 64
	.cfi_restore 30
	.cfi_restore 29
	.cfi_def_cfa_offset 0
	ret
	.cfi_endproc
.LFE6431:
	.size	_ZN5boost6lambda6detail6selectISoiKNS_6tuples9null_typeES5_S5_EERT_S7_RT0_RT1_RT2_RT3_, .-_ZN5boost6lambda6detail6selectISoiKNS_6tuples9null_typeES5_S5_EERT_S7_RT0_RT1_RT2_RT3_
	.section	.text._ZN5boost6tuples3getILi1ERSoNS0_4consINS_6lambda14lambda_functorINS4_19lambda_functor_baseINS4_17arithmetic_actionINS4_15multiply_actionEEENS0_5tupleINS5_INS4_11placeholderILi1EEEEEKiNS0_9null_typeESF_SF_SF_SF_SF_SF_SF_EEEEEESF_EEEENS0_13access_traitsINS0_7elementIXT_ENS3_IT0_T1_EEE4typeEE10const_typeERKSO_,"axG",@progbits,_ZN5boost6tuples3getILi1ERSoNS0_4consINS_6lambda14lambda_functorINS4_19lambda_functor_baseINS4_17arithmetic_actionINS4_15multiply_actionEEENS0_5tupleINS5_INS4_11placeholderILi1EEEEEKiNS0_9null_typeESF_SF_SF_SF_SF_SF_SF_EEEEEESF_EEEENS0_13access_traitsINS0_7elementIXT_ENS3_IT0_T1_EEE4typeEE10const_typeERKSO_,comdat
	.align	2
	.weak	_ZN5boost6tuples3getILi1ERSoNS0_4consINS_6lambda14lambda_functorINS4_19lambda_functor_baseINS4_17arithmetic_actionINS4_15multiply_actionEEENS0_5tupleINS5_INS4_11placeholderILi1EEEEEKiNS0_9null_typeESF_SF_SF_SF_SF_SF_SF_EEEEEESF_EEEENS0_13access_traitsINS0_7elementIXT_ENS3_IT0_T1_EEE4typeEE10const_typeERKSO_
	.type	_ZN5boost6tuples3getILi1ERSoNS0_4consINS_6lambda14lambda_functorINS4_19lambda_functor_baseINS4_17arithmetic_actionINS4_15multiply_actionEEENS0_5tupleINS5_INS4_11placeholderILi1EEEEEKiNS0_9null_typeESF_SF_SF_SF_SF_SF_SF_EEEEEESF_EEEENS0_13access_traitsINS0_7elementIXT_ENS3_IT0_T1_EEE4typeEE10const_typeERKSO_, %function
_ZN5boost6tuples3getILi1ERSoNS0_4consINS_6lambda14lambda_functorINS4_19lambda_functor_baseINS4_17arithmetic_actionINS4_15multiply_actionEEENS0_5tupleINS5_INS4_11placeholderILi1EEEEEKiNS0_9null_typeESF_SF_SF_SF_SF_SF_SF_EEEEEESF_EEEENS0_13access_traitsINS0_7elementIXT_ENS3_IT0_T1_EEE4typeEE10const_typeERKSO_:
.LFB6432:
	.cfi_startproc
	stp	x29, x30, [sp, -32]!
	.cfi_def_cfa_offset 32
	.cfi_offset 29, -32
	.cfi_offset 30, -24
	mov	x29, sp
	str	x0, [sp, 24]
	ldr	x0, [sp, 24]
	bl	_ZN5boost6tuples6detail10drop_frontILi1EE5applyINS0_4consIRSoNS5_INS_6lambda14lambda_functorINS7_19lambda_functor_baseINS7_17arithmetic_actionINS7_15multiply_actionEEENS0_5tupleINS8_INS7_11placeholderILi1EEEEEKiNS0_9null_typeESI_SI_SI_SI_SI_SI_SI_EEEEEESI_EEEEE4callERKSN_
	ldp	x29, x30, [sp], 32
	.cfi_restore 30
	.cfi_restore 29
	.cfi_def_cfa_offset 0
	ret
	.cfi_endproc
.LFE6432:
	.size	_ZN5boost6tuples3getILi1ERSoNS0_4consINS_6lambda14lambda_functorINS4_19lambda_functor_baseINS4_17arithmetic_actionINS4_15multiply_actionEEENS0_5tupleINS5_INS4_11placeholderILi1EEEEEKiNS0_9null_typeESF_SF_SF_SF_SF_SF_SF_EEEEEESF_EEEENS0_13access_traitsINS0_7elementIXT_ENS3_IT0_T1_EEE4typeEE10const_typeERKSO_, .-_ZN5boost6tuples3getILi1ERSoNS0_4consINS_6lambda14lambda_functorINS4_19lambda_functor_baseINS4_17arithmetic_actionINS4_15multiply_actionEEENS0_5tupleINS5_INS4_11placeholderILi1EEEEEKiNS0_9null_typeESF_SF_SF_SF_SF_SF_SF_EEEEEESF_EEEENS0_13access_traitsINS0_7elementIXT_ENS3_IT0_T1_EEE4typeEE10const_typeERKSO_
	.section	.text._ZN5boost6lambda6detail6selectINS0_19lambda_functor_baseINS0_17arithmetic_actionINS0_15multiply_actionEEENS_6tuples5tupleINS0_14lambda_functorINS0_11placeholderILi1EEEEEKiNS7_9null_typeESE_SE_SE_SE_SE_SE_SE_EEEEiKSE_SH_SH_EENT_3sigINS8_IRT0_RT1_RT2_RT3_SE_SE_SE_SE_SE_SE_EEE4typeERKNS9_ISI_EESL_SN_SP_SR_,"axG",@progbits,_ZN5boost6lambda6detail6selectINS0_19lambda_functor_baseINS0_17arithmetic_actionINS0_15multiply_actionEEENS_6tuples5tupleINS0_14lambda_functorINS0_11placeholderILi1EEEEEKiNS7_9null_typeESE_SE_SE_SE_SE_SE_SE_EEEEiKSE_SH_SH_EENT_3sigINS8_IRT0_RT1_RT2_RT3_SE_SE_SE_SE_SE_SE_EEE4typeERKNS9_ISI_EESL_SN_SP_SR_,comdat
	.align	2
	.weak	_ZN5boost6lambda6detail6selectINS0_19lambda_functor_baseINS0_17arithmetic_actionINS0_15multiply_actionEEENS_6tuples5tupleINS0_14lambda_functorINS0_11placeholderILi1EEEEEKiNS7_9null_typeESE_SE_SE_SE_SE_SE_SE_EEEEiKSE_SH_SH_EENT_3sigINS8_IRT0_RT1_RT2_RT3_SE_SE_SE_SE_SE_SE_EEE4typeERKNS9_ISI_EESL_SN_SP_SR_
	.type	_ZN5boost6lambda6detail6selectINS0_19lambda_functor_baseINS0_17arithmetic_actionINS0_15multiply_actionEEENS_6tuples5tupleINS0_14lambda_functorINS0_11placeholderILi1EEEEEKiNS7_9null_typeESE_SE_SE_SE_SE_SE_SE_EEEEiKSE_SH_SH_EENT_3sigINS8_IRT0_RT1_RT2_RT3_SE_SE_SE_SE_SE_SE_EEE4typeERKNS9_ISI_EESL_SN_SP_SR_, %function
_ZN5boost6lambda6detail6selectINS0_19lambda_functor_baseINS0_17arithmetic_actionINS0_15multiply_actionEEENS_6tuples5tupleINS0_14lambda_functorINS0_11placeholderILi1EEEEEKiNS7_9null_typeESE_SE_SE_SE_SE_SE_SE_EEEEiKSE_SH_SH_EENT_3sigINS8_IRT0_RT1_RT2_RT3_SE_SE_SE_SE_SE_SE_EEE4typeERKNS9_ISI_EESL_SN_SP_SR_:
.LFB6433:
	.cfi_startproc
	stp	x29, x30, [sp, -64]!
	.cfi_def_cfa_offset 64
	.cfi_offset 29, -64
	.cfi_offset 30, -56
	mov	x29, sp
	str	x0, [sp, 56]
	str	x1, [sp, 48]
	str	x2, [sp, 40]
	str	x3, [sp, 32]
	str	x4, [sp, 24]
	ldr	x0, [sp, 56]
	ldr	x4, [sp, 24]
	ldr	x3, [sp, 32]
	ldr	x2, [sp, 40]
	ldr	x1, [sp, 48]
	bl	_ZNK5boost6lambda19lambda_functor_baseINS0_17arithmetic_actionINS0_15multiply_actionEEENS_6tuples5tupleINS0_14lambda_functorINS0_11placeholderILi1EEEEEKiNS5_9null_typeESC_SC_SC_SC_SC_SC_SC_EEE4callIiiKSC_SG_SG_EET_RT0_RT1_RT2_RT3_
	ldp	x29, x30, [sp], 64
	.cfi_restore 30
	.cfi_restore 29
	.cfi_def_cfa_offset 0
	ret
	.cfi_endproc
.LFE6433:
	.size	_ZN5boost6lambda6detail6selectINS0_19lambda_functor_baseINS0_17arithmetic_actionINS0_15multiply_actionEEENS_6tuples5tupleINS0_14lambda_functorINS0_11placeholderILi1EEEEEKiNS7_9null_typeESE_SE_SE_SE_SE_SE_SE_EEEEiKSE_SH_SH_EENT_3sigINS8_IRT0_RT1_RT2_RT3_SE_SE_SE_SE_SE_SE_EEE4typeERKNS9_ISI_EESL_SN_SP_SR_, .-_ZN5boost6lambda6detail6selectINS0_19lambda_functor_baseINS0_17arithmetic_actionINS0_15multiply_actionEEENS_6tuples5tupleINS0_14lambda_functorINS0_11placeholderILi1EEEEEKiNS7_9null_typeESE_SE_SE_SE_SE_SE_SE_EEEEiKSE_SH_SH_EENT_3sigINS8_IRT0_RT1_RT2_RT3_SE_SE_SE_SE_SE_SE_EEE4typeERKNS9_ISI_EESL_SN_SP_SR_
	.section	.text._ZSt12__miter_baseIPKiET_S2_,"axG",@progbits,_ZSt12__miter_baseIPKiET_S2_,comdat
	.align	2
	.weak	_ZSt12__miter_baseIPKiET_S2_
	.type	_ZSt12__miter_baseIPKiET_S2_, %function
_ZSt12__miter_baseIPKiET_S2_:
.LFB6447:
	.cfi_startproc
	sub	sp, sp, #16
	.cfi_def_cfa_offset 16
	str	x0, [sp, 8]
	ldr	x0, [sp, 8]
	add	sp, sp, 16
	.cfi_def_cfa_offset 0
	ret
	.cfi_endproc
.LFE6447:
	.size	_ZSt12__miter_baseIPKiET_S2_, .-_ZSt12__miter_baseIPKiET_S2_
	.section	.text._ZSt13__copy_move_aILb0EPKiPiET1_T0_S4_S3_,"axG",@progbits,_ZSt13__copy_move_aILb0EPKiPiET1_T0_S4_S3_,comdat
	.align	2
	.weak	_ZSt13__copy_move_aILb0EPKiPiET1_T0_S4_S3_
	.type	_ZSt13__copy_move_aILb0EPKiPiET1_T0_S4_S3_, %function
_ZSt13__copy_move_aILb0EPKiPiET1_T0_S4_S3_:
.LFB6448:
	.cfi_startproc
	stp	x29, x30, [sp, -64]!
	.cfi_def_cfa_offset 64
	.cfi_offset 29, -64
	.cfi_offset 30, -56
	mov	x29, sp
	stp	x19, x20, [sp, 16]
	.cfi_offset 19, -48
	.cfi_offset 20, -40
	str	x0, [sp, 56]
	str	x1, [sp, 48]
	str	x2, [sp, 40]
	ldr	x0, [sp, 56]
	bl	_ZSt12__niter_baseIPKiET_S2_
	mov	x19, x0
	ldr	x0, [sp, 48]
	bl	_ZSt12__niter_baseIPKiET_S2_
	mov	x20, x0
	ldr	x0, [sp, 40]
	bl	_ZSt12__niter_baseIPiET_S1_
	mov	x2, x0
	mov	x1, x20
	mov	x0, x19
	bl	_ZSt14__copy_move_a1ILb0EPKiPiET1_T0_S4_S3_
	mov	x1, x0
	add	x0, sp, 40
	bl	_ZSt12__niter_wrapIPiET_RKS1_S1_
	ldp	x19, x20, [sp, 16]
	ldp	x29, x30, [sp], 64
	.cfi_restore 30
	.cfi_restore 29
	.cfi_restore 19
	.cfi_restore 20
	.cfi_def_cfa_offset 0
	ret
	.cfi_endproc
.LFE6448:
	.size	_ZSt13__copy_move_aILb0EPKiPiET1_T0_S4_S3_, .-_ZSt13__copy_move_aILb0EPKiPiET1_T0_S4_S3_
	.section	.text._ZN5boost6tuples6detail10drop_frontILi0EE5applyINS0_4consIRSoNS5_INS_6lambda14lambda_functorINS7_19lambda_functor_baseINS7_17arithmetic_actionINS7_15multiply_actionEEENS0_5tupleINS8_INS7_11placeholderILi1EEEEEKiNS0_9null_typeESI_SI_SI_SI_SI_SI_SI_EEEEEESI_EEEEE4callERKSN_,"axG",@progbits,_ZN5boost6tuples6detail10drop_frontILi0EE5applyINS0_4consIRSoNS5_INS_6lambda14lambda_functorINS7_19lambda_functor_baseINS7_17arithmetic_actionINS7_15multiply_actionEEENS0_5tupleINS8_INS7_11placeholderILi1EEEEEKiNS0_9null_typeESI_SI_SI_SI_SI_SI_SI_EEEEEESI_EEEEE4callERKSN_,comdat
	.align	2
	.weak	_ZN5boost6tuples6detail10drop_frontILi0EE5applyINS0_4consIRSoNS5_INS_6lambda14lambda_functorINS7_19lambda_functor_baseINS7_17arithmetic_actionINS7_15multiply_actionEEENS0_5tupleINS8_INS7_11placeholderILi1EEEEEKiNS0_9null_typeESI_SI_SI_SI_SI_SI_SI_EEEEEESI_EEEEE4callERKSN_
	.type	_ZN5boost6tuples6detail10drop_frontILi0EE5applyINS0_4consIRSoNS5_INS_6lambda14lambda_functorINS7_19lambda_functor_baseINS7_17arithmetic_actionINS7_15multiply_actionEEENS0_5tupleINS8_INS7_11placeholderILi1EEEEEKiNS0_9null_typeESI_SI_SI_SI_SI_SI_SI_EEEEEESI_EEEEE4callERKSN_, %function
_ZN5boost6tuples6detail10drop_frontILi0EE5applyINS0_4consIRSoNS5_INS_6lambda14lambda_functorINS7_19lambda_functor_baseINS7_17arithmetic_actionINS7_15multiply_actionEEENS0_5tupleINS8_INS7_11placeholderILi1EEEEEKiNS0_9null_typeESI_SI_SI_SI_SI_SI_SI_EEEEEESI_EEEEE4callERKSN_:
.LFB6451:
	.cfi_startproc
	sub	sp, sp, #16
	.cfi_def_cfa_offset 16
	str	x0, [sp, 8]
	ldr	x0, [sp, 8]
	add	sp, sp, 16
	.cfi_def_cfa_offset 0
	ret
	.cfi_endproc
.LFE6451:
	.size	_ZN5boost6tuples6detail10drop_frontILi0EE5applyINS0_4consIRSoNS5_INS_6lambda14lambda_functorINS7_19lambda_functor_baseINS7_17arithmetic_actionINS7_15multiply_actionEEENS0_5tupleINS8_INS7_11placeholderILi1EEEEEKiNS0_9null_typeESI_SI_SI_SI_SI_SI_SI_EEEEEESI_EEEEE4callERKSN_, .-_ZN5boost6tuples6detail10drop_frontILi0EE5applyINS0_4consIRSoNS5_INS_6lambda14lambda_functorINS7_19lambda_functor_baseINS7_17arithmetic_actionINS7_15multiply_actionEEENS0_5tupleINS8_INS7_11placeholderILi1EEEEEKiNS0_9null_typeESI_SI_SI_SI_SI_SI_SI_EEEEEESI_EEEEE4callERKSN_
	.section	.text._ZN5boost6tuples6detail10drop_frontILi1EE5applyINS0_4consIRSoNS5_INS_6lambda14lambda_functorINS7_19lambda_functor_baseINS7_17arithmetic_actionINS7_15multiply_actionEEENS0_5tupleINS8_INS7_11placeholderILi1EEEEEKiNS0_9null_typeESI_SI_SI_SI_SI_SI_SI_EEEEEESI_EEEEE4callERKSN_,"axG",@progbits,_ZN5boost6tuples6detail10drop_frontILi1EE5applyINS0_4consIRSoNS5_INS_6lambda14lambda_functorINS7_19lambda_functor_baseINS7_17arithmetic_actionINS7_15multiply_actionEEENS0_5tupleINS8_INS7_11placeholderILi1EEEEEKiNS0_9null_typeESI_SI_SI_SI_SI_SI_SI_EEEEEESI_EEEEE4callERKSN_,comdat
	.align	2
	.weak	_ZN5boost6tuples6detail10drop_frontILi1EE5applyINS0_4consIRSoNS5_INS_6lambda14lambda_functorINS7_19lambda_functor_baseINS7_17arithmetic_actionINS7_15multiply_actionEEENS0_5tupleINS8_INS7_11placeholderILi1EEEEEKiNS0_9null_typeESI_SI_SI_SI_SI_SI_SI_EEEEEESI_EEEEE4callERKSN_
	.type	_ZN5boost6tuples6detail10drop_frontILi1EE5applyINS0_4consIRSoNS5_INS_6lambda14lambda_functorINS7_19lambda_functor_baseINS7_17arithmetic_actionINS7_15multiply_actionEEENS0_5tupleINS8_INS7_11placeholderILi1EEEEEKiNS0_9null_typeESI_SI_SI_SI_SI_SI_SI_EEEEEESI_EEEEE4callERKSN_, %function
_ZN5boost6tuples6detail10drop_frontILi1EE5applyINS0_4consIRSoNS5_INS_6lambda14lambda_functorINS7_19lambda_functor_baseINS7_17arithmetic_actionINS7_15multiply_actionEEENS0_5tupleINS8_INS7_11placeholderILi1EEEEEKiNS0_9null_typeESI_SI_SI_SI_SI_SI_SI_EEEEEESI_EEEEE4callERKSN_:
.LFB6452:
	.cfi_startproc
	stp	x29, x30, [sp, -32]!
	.cfi_def_cfa_offset 32
	.cfi_offset 29, -32
	.cfi_offset 30, -24
	mov	x29, sp
	str	x0, [sp, 24]
	ldr	x0, [sp, 24]
	bl	_ZN5boost6tuples6detail10drop_frontILi0EE5applyINS0_4consIRSoNS5_INS_6lambda14lambda_functorINS7_19lambda_functor_baseINS7_17arithmetic_actionINS7_15multiply_actionEEENS0_5tupleINS8_INS7_11placeholderILi1EEEEEKiNS0_9null_typeESI_SI_SI_SI_SI_SI_SI_EEEEEESI_EEEEE4callERKSN_
	add	x0, x0, 8
	ldp	x29, x30, [sp], 32
	.cfi_restore 30
	.cfi_restore 29
	.cfi_def_cfa_offset 0
	ret
	.cfi_endproc
.LFE6452:
	.size	_ZN5boost6tuples6detail10drop_frontILi1EE5applyINS0_4consIRSoNS5_INS_6lambda14lambda_functorINS7_19lambda_functor_baseINS7_17arithmetic_actionINS7_15multiply_actionEEENS0_5tupleINS8_INS7_11placeholderILi1EEEEEKiNS0_9null_typeESI_SI_SI_SI_SI_SI_SI_EEEEEESI_EEEEE4callERKSN_, .-_ZN5boost6tuples6detail10drop_frontILi1EE5applyINS0_4consIRSoNS5_INS_6lambda14lambda_functorINS7_19lambda_functor_baseINS7_17arithmetic_actionINS7_15multiply_actionEEENS0_5tupleINS8_INS7_11placeholderILi1EEEEEKiNS0_9null_typeESI_SI_SI_SI_SI_SI_SI_EEEEEESI_EEEEE4callERKSN_
	.section	.text._ZNK5boost6lambda19lambda_functor_baseINS0_17arithmetic_actionINS0_15multiply_actionEEENS_6tuples5tupleINS0_14lambda_functorINS0_11placeholderILi1EEEEEKiNS5_9null_typeESC_SC_SC_SC_SC_SC_SC_EEE4callIiiKSC_SG_SG_EET_RT0_RT1_RT2_RT3_,"axG",@progbits,_ZNK5boost6lambda19lambda_functor_baseINS0_17arithmetic_actionINS0_15multiply_actionEEENS_6tuples5tupleINS0_14lambda_functorINS0_11placeholderILi1EEEEEKiNS5_9null_typeESC_SC_SC_SC_SC_SC_SC_EEE4callIiiKSC_SG_SG_EET_RT0_RT1_RT2_RT3_,comdat
	.align	2
	.weak	_ZNK5boost6lambda19lambda_functor_baseINS0_17arithmetic_actionINS0_15multiply_actionEEENS_6tuples5tupleINS0_14lambda_functorINS0_11placeholderILi1EEEEEKiNS5_9null_typeESC_SC_SC_SC_SC_SC_SC_EEE4callIiiKSC_SG_SG_EET_RT0_RT1_RT2_RT3_
	.type	_ZNK5boost6lambda19lambda_functor_baseINS0_17arithmetic_actionINS0_15multiply_actionEEENS_6tuples5tupleINS0_14lambda_functorINS0_11placeholderILi1EEEEEKiNS5_9null_typeESC_SC_SC_SC_SC_SC_SC_EEE4callIiiKSC_SG_SG_EET_RT0_RT1_RT2_RT3_, %function
_ZNK5boost6lambda19lambda_functor_baseINS0_17arithmetic_actionINS0_15multiply_actionEEENS_6tuples5tupleINS0_14lambda_functorINS0_11placeholderILi1EEEEEKiNS5_9null_typeESC_SC_SC_SC_SC_SC_SC_EEE4callIiiKSC_SG_SG_EET_RT0_RT1_RT2_RT3_:
.LFB6453:
	.cfi_startproc
	stp	x29, x30, [sp, -80]!
	.cfi_def_cfa_offset 80
	.cfi_offset 29, -80
	.cfi_offset 30, -72
	mov	x29, sp
	str	x19, [sp, 16]
	.cfi_offset 19, -64
	str	x0, [sp, 72]
	str	x1, [sp, 64]
	str	x2, [sp, 56]
	str	x3, [sp, 48]
	str	x4, [sp, 40]
	ldr	x0, [sp, 72]
	bl	_ZN5boost6tuples3getILi0ENS_6lambda14lambda_functorINS2_11placeholderILi1EEEEENS0_4consIKiNS0_9null_typeEEEEENS0_13access_traitsINS0_7elementIXT_ENS7_IT0_T1_EEE4typeEE10const_typeERKSF_
	ldr	x4, [sp, 40]
	ldr	x3, [sp, 48]
	ldr	x2, [sp, 56]
	ldr	x1, [sp, 64]
	bl	_ZN5boost6lambda6detail6selectINS0_11placeholderILi1EEEiKNS_6tuples9null_typeES7_S7_EENT_3sigINS5_5tupleIRT0_RT1_RT2_RT3_S6_S6_S6_S6_S6_S6_EEE4typeERKNS0_14lambda_functorIS8_EESC_SE_SG_SI_
	ldr	w19, [x0]
	ldr	x0, [sp, 72]
	bl	_ZN5boost6tuples3getILi1ENS_6lambda14lambda_functorINS2_11placeholderILi1EEEEENS0_4consIKiNS0_9null_typeEEEEENS0_13access_traitsINS0_7elementIXT_ENS7_IT0_T1_EEE4typeEE10const_typeERKSF_
	ldr	x4, [sp, 40]
	ldr	x3, [sp, 48]
	ldr	x2, [sp, 56]
	ldr	x1, [sp, 64]
	bl	_ZN5boost6lambda6detail6selectIKiiKNS_6tuples9null_typeES6_S6_EERT_S8_RT0_RT1_RT2_RT3_
	ldr	w0, [x0]
	mul	w0, w19, w0
	ldr	x19, [sp, 16]
	ldp	x29, x30, [sp], 80
	.cfi_restore 30
	.cfi_restore 29
	.cfi_restore 19
	.cfi_def_cfa_offset 0
	ret
	.cfi_endproc
.LFE6453:
	.size	_ZNK5boost6lambda19lambda_functor_baseINS0_17arithmetic_actionINS0_15multiply_actionEEENS_6tuples5tupleINS0_14lambda_functorINS0_11placeholderILi1EEEEEKiNS5_9null_typeESC_SC_SC_SC_SC_SC_SC_EEE4callIiiKSC_SG_SG_EET_RT0_RT1_RT2_RT3_, .-_ZNK5boost6lambda19lambda_functor_baseINS0_17arithmetic_actionINS0_15multiply_actionEEENS_6tuples5tupleINS0_14lambda_functorINS0_11placeholderILi1EEEEEKiNS5_9null_typeESC_SC_SC_SC_SC_SC_SC_EEE4callIiiKSC_SG_SG_EET_RT0_RT1_RT2_RT3_
	.section	.text._ZSt12__niter_baseIPKiET_S2_,"axG",@progbits,_ZSt12__niter_baseIPKiET_S2_,comdat
	.align	2
	.weak	_ZSt12__niter_baseIPKiET_S2_
	.type	_ZSt12__niter_baseIPKiET_S2_, %function
_ZSt12__niter_baseIPKiET_S2_:
.LFB6456:
	.cfi_startproc
	sub	sp, sp, #16
	.cfi_def_cfa_offset 16
	str	x0, [sp, 8]
	ldr	x0, [sp, 8]
	add	sp, sp, 16
	.cfi_def_cfa_offset 0
	ret
	.cfi_endproc
.LFE6456:
	.size	_ZSt12__niter_baseIPKiET_S2_, .-_ZSt12__niter_baseIPKiET_S2_
	.section	.text._ZSt12__niter_baseIPiET_S1_,"axG",@progbits,_ZSt12__niter_baseIPiET_S1_,comdat
	.align	2
	.weak	_ZSt12__niter_baseIPiET_S1_
	.type	_ZSt12__niter_baseIPiET_S1_, %function
_ZSt12__niter_baseIPiET_S1_:
.LFB6457:
	.cfi_startproc
	sub	sp, sp, #16
	.cfi_def_cfa_offset 16
	str	x0, [sp, 8]
	ldr	x0, [sp, 8]
	add	sp, sp, 16
	.cfi_def_cfa_offset 0
	ret
	.cfi_endproc
.LFE6457:
	.size	_ZSt12__niter_baseIPiET_S1_, .-_ZSt12__niter_baseIPiET_S1_
	.section	.text._ZSt14__copy_move_a1ILb0EPKiPiET1_T0_S4_S3_,"axG",@progbits,_ZSt14__copy_move_a1ILb0EPKiPiET1_T0_S4_S3_,comdat
	.align	2
	.weak	_ZSt14__copy_move_a1ILb0EPKiPiET1_T0_S4_S3_
	.type	_ZSt14__copy_move_a1ILb0EPKiPiET1_T0_S4_S3_, %function
_ZSt14__copy_move_a1ILb0EPKiPiET1_T0_S4_S3_:
.LFB6458:
	.cfi_startproc
	stp	x29, x30, [sp, -48]!
	.cfi_def_cfa_offset 48
	.cfi_offset 29, -48
	.cfi_offset 30, -40
	mov	x29, sp
	str	x0, [sp, 40]
	str	x1, [sp, 32]
	str	x2, [sp, 24]
	ldr	x2, [sp, 24]
	ldr	x1, [sp, 32]
	ldr	x0, [sp, 40]
	bl	_ZSt14__copy_move_a2ILb0EPKiPiET1_T0_S4_S3_
	ldp	x29, x30, [sp], 48
	.cfi_restore 30
	.cfi_restore 29
	.cfi_def_cfa_offset 0
	ret
	.cfi_endproc
.LFE6458:
	.size	_ZSt14__copy_move_a1ILb0EPKiPiET1_T0_S4_S3_, .-_ZSt14__copy_move_a1ILb0EPKiPiET1_T0_S4_S3_
	.section	.text._ZSt12__niter_wrapIPiET_RKS1_S1_,"axG",@progbits,_ZSt12__niter_wrapIPiET_RKS1_S1_,comdat
	.align	2
	.weak	_ZSt12__niter_wrapIPiET_RKS1_S1_
	.type	_ZSt12__niter_wrapIPiET_RKS1_S1_, %function
_ZSt12__niter_wrapIPiET_RKS1_S1_:
.LFB6459:
	.cfi_startproc
	sub	sp, sp, #16
	.cfi_def_cfa_offset 16
	str	x0, [sp, 8]
	str	x1, [sp]
	ldr	x0, [sp]
	add	sp, sp, 16
	.cfi_def_cfa_offset 0
	ret
	.cfi_endproc
.LFE6459:
	.size	_ZSt12__niter_wrapIPiET_RKS1_S1_, .-_ZSt12__niter_wrapIPiET_RKS1_S1_
	.section	.text._ZN5boost6tuples3getILi0ENS_6lambda14lambda_functorINS2_11placeholderILi1EEEEENS0_4consIKiNS0_9null_typeEEEEENS0_13access_traitsINS0_7elementIXT_ENS7_IT0_T1_EEE4typeEE10const_typeERKSF_,"axG",@progbits,_ZN5boost6tuples3getILi0ENS_6lambda14lambda_functorINS2_11placeholderILi1EEEEENS0_4consIKiNS0_9null_typeEEEEENS0_13access_traitsINS0_7elementIXT_ENS7_IT0_T1_EEE4typeEE10const_typeERKSF_,comdat
	.align	2
	.weak	_ZN5boost6tuples3getILi0ENS_6lambda14lambda_functorINS2_11placeholderILi1EEEEENS0_4consIKiNS0_9null_typeEEEEENS0_13access_traitsINS0_7elementIXT_ENS7_IT0_T1_EEE4typeEE10const_typeERKSF_
	.type	_ZN5boost6tuples3getILi0ENS_6lambda14lambda_functorINS2_11placeholderILi1EEEEENS0_4consIKiNS0_9null_typeEEEEENS0_13access_traitsINS0_7elementIXT_ENS7_IT0_T1_EEE4typeEE10const_typeERKSF_, %function
_ZN5boost6tuples3getILi0ENS_6lambda14lambda_functorINS2_11placeholderILi1EEEEENS0_4consIKiNS0_9null_typeEEEEENS0_13access_traitsINS0_7elementIXT_ENS7_IT0_T1_EEE4typeEE10const_typeERKSF_:
.LFB6460:
	.cfi_startproc
	stp	x29, x30, [sp, -32]!
	.cfi_def_cfa_offset 32
	.cfi_offset 29, -32
	.cfi_offset 30, -24
	mov	x29, sp
	str	x0, [sp, 24]
	ldr	x0, [sp, 24]
	bl	_ZN5boost6tuples6detail10drop_frontILi0EE5applyINS0_4consINS_6lambda14lambda_functorINS6_11placeholderILi1EEEEENS5_IKiNS0_9null_typeEEEEEE4callERKSE_
	ldp	x29, x30, [sp], 32
	.cfi_restore 30
	.cfi_restore 29
	.cfi_def_cfa_offset 0
	ret
	.cfi_endproc
.LFE6460:
	.size	_ZN5boost6tuples3getILi0ENS_6lambda14lambda_functorINS2_11placeholderILi1EEEEENS0_4consIKiNS0_9null_typeEEEEENS0_13access_traitsINS0_7elementIXT_ENS7_IT0_T1_EEE4typeEE10const_typeERKSF_, .-_ZN5boost6tuples3getILi0ENS_6lambda14lambda_functorINS2_11placeholderILi1EEEEENS0_4consIKiNS0_9null_typeEEEEENS0_13access_traitsINS0_7elementIXT_ENS7_IT0_T1_EEE4typeEE10const_typeERKSF_
	.section	.text._ZN5boost6lambda6detail6selectINS0_11placeholderILi1EEEiKNS_6tuples9null_typeES7_S7_EENT_3sigINS5_5tupleIRT0_RT1_RT2_RT3_S6_S6_S6_S6_S6_S6_EEE4typeERKNS0_14lambda_functorIS8_EESC_SE_SG_SI_,"axG",@progbits,_ZN5boost6lambda6detail6selectINS0_11placeholderILi1EEEiKNS_6tuples9null_typeES7_S7_EENT_3sigINS5_5tupleIRT0_RT1_RT2_RT3_S6_S6_S6_S6_S6_S6_EEE4typeERKNS0_14lambda_functorIS8_EESC_SE_SG_SI_,comdat
	.align	2
	.weak	_ZN5boost6lambda6detail6selectINS0_11placeholderILi1EEEiKNS_6tuples9null_typeES7_S7_EENT_3sigINS5_5tupleIRT0_RT1_RT2_RT3_S6_S6_S6_S6_S6_S6_EEE4typeERKNS0_14lambda_functorIS8_EESC_SE_SG_SI_
	.type	_ZN5boost6lambda6detail6selectINS0_11placeholderILi1EEEiKNS_6tuples9null_typeES7_S7_EENT_3sigINS5_5tupleIRT0_RT1_RT2_RT3_S6_S6_S6_S6_S6_S6_EEE4typeERKNS0_14lambda_functorIS8_EESC_SE_SG_SI_, %function
_ZN5boost6lambda6detail6selectINS0_11placeholderILi1EEEiKNS_6tuples9null_typeES7_S7_EENT_3sigINS5_5tupleIRT0_RT1_RT2_RT3_S6_S6_S6_S6_S6_S6_EEE4typeERKNS0_14lambda_functorIS8_EESC_SE_SG_SI_:
.LFB6461:
	.cfi_startproc
	stp	x29, x30, [sp, -64]!
	.cfi_def_cfa_offset 64
	.cfi_offset 29, -64
	.cfi_offset 30, -56
	mov	x29, sp
	str	x0, [sp, 56]
	str	x1, [sp, 48]
	str	x2, [sp, 40]
	str	x3, [sp, 32]
	str	x4, [sp, 24]
	ldr	x4, [sp, 24]
	ldr	x3, [sp, 32]
	ldr	x2, [sp, 40]
	ldr	x1, [sp, 48]
	ldr	x0, [sp, 56]
	bl	_ZNK5boost6lambda11placeholderILi1EE4callIRiiKNS_6tuples9null_typeES7_S7_EET_RT0_RT1_RT2_RT3_
	ldp	x29, x30, [sp], 64
	.cfi_restore 30
	.cfi_restore 29
	.cfi_def_cfa_offset 0
	ret
	.cfi_endproc
.LFE6461:
	.size	_ZN5boost6lambda6detail6selectINS0_11placeholderILi1EEEiKNS_6tuples9null_typeES7_S7_EENT_3sigINS5_5tupleIRT0_RT1_RT2_RT3_S6_S6_S6_S6_S6_S6_EEE4typeERKNS0_14lambda_functorIS8_EESC_SE_SG_SI_, .-_ZN5boost6lambda6detail6selectINS0_11placeholderILi1EEEiKNS_6tuples9null_typeES7_S7_EENT_3sigINS5_5tupleIRT0_RT1_RT2_RT3_S6_S6_S6_S6_S6_S6_EEE4typeERKNS0_14lambda_functorIS8_EESC_SE_SG_SI_
	.section	.text._ZN5boost6tuples3getILi1ENS_6lambda14lambda_functorINS2_11placeholderILi1EEEEENS0_4consIKiNS0_9null_typeEEEEENS0_13access_traitsINS0_7elementIXT_ENS7_IT0_T1_EEE4typeEE10const_typeERKSF_,"axG",@progbits,_ZN5boost6tuples3getILi1ENS_6lambda14lambda_functorINS2_11placeholderILi1EEEEENS0_4consIKiNS0_9null_typeEEEEENS0_13access_traitsINS0_7elementIXT_ENS7_IT0_T1_EEE4typeEE10const_typeERKSF_,comdat
	.align	2
	.weak	_ZN5boost6tuples3getILi1ENS_6lambda14lambda_functorINS2_11placeholderILi1EEEEENS0_4consIKiNS0_9null_typeEEEEENS0_13access_traitsINS0_7elementIXT_ENS7_IT0_T1_EEE4typeEE10const_typeERKSF_
	.type	_ZN5boost6tuples3getILi1ENS_6lambda14lambda_functorINS2_11placeholderILi1EEEEENS0_4consIKiNS0_9null_typeEEEEENS0_13access_traitsINS0_7elementIXT_ENS7_IT0_T1_EEE4typeEE10const_typeERKSF_, %function
_ZN5boost6tuples3getILi1ENS_6lambda14lambda_functorINS2_11placeholderILi1EEEEENS0_4consIKiNS0_9null_typeEEEEENS0_13access_traitsINS0_7elementIXT_ENS7_IT0_T1_EEE4typeEE10const_typeERKSF_:
.LFB6462:
	.cfi_startproc
	stp	x29, x30, [sp, -32]!
	.cfi_def_cfa_offset 32
	.cfi_offset 29, -32
	.cfi_offset 30, -24
	mov	x29, sp
	str	x0, [sp, 24]
	ldr	x0, [sp, 24]
	bl	_ZN5boost6tuples6detail10drop_frontILi1EE5applyINS0_4consINS_6lambda14lambda_functorINS6_11placeholderILi1EEEEENS5_IKiNS0_9null_typeEEEEEE4callERKSE_
	ldp	x29, x30, [sp], 32
	.cfi_restore 30
	.cfi_restore 29
	.cfi_def_cfa_offset 0
	ret
	.cfi_endproc
.LFE6462:
	.size	_ZN5boost6tuples3getILi1ENS_6lambda14lambda_functorINS2_11placeholderILi1EEEEENS0_4consIKiNS0_9null_typeEEEEENS0_13access_traitsINS0_7elementIXT_ENS7_IT0_T1_EEE4typeEE10const_typeERKSF_, .-_ZN5boost6tuples3getILi1ENS_6lambda14lambda_functorINS2_11placeholderILi1EEEEENS0_4consIKiNS0_9null_typeEEEEENS0_13access_traitsINS0_7elementIXT_ENS7_IT0_T1_EEE4typeEE10const_typeERKSF_
	.section	.text._ZN5boost6lambda6detail6selectIKiiKNS_6tuples9null_typeES6_S6_EERT_S8_RT0_RT1_RT2_RT3_,"axG",@progbits,_ZN5boost6lambda6detail6selectIKiiKNS_6tuples9null_typeES6_S6_EERT_S8_RT0_RT1_RT2_RT3_,comdat
	.align	2
	.weak	_ZN5boost6lambda6detail6selectIKiiKNS_6tuples9null_typeES6_S6_EERT_S8_RT0_RT1_RT2_RT3_
	.type	_ZN5boost6lambda6detail6selectIKiiKNS_6tuples9null_typeES6_S6_EERT_S8_RT0_RT1_RT2_RT3_, %function
_ZN5boost6lambda6detail6selectIKiiKNS_6tuples9null_typeES6_S6_EERT_S8_RT0_RT1_RT2_RT3_:
.LFB6463:
	.cfi_startproc
	stp	x29, x30, [sp, -64]!
	.cfi_def_cfa_offset 64
	.cfi_offset 29, -64
	.cfi_offset 30, -56
	mov	x29, sp
	str	x0, [sp, 56]
	str	x1, [sp, 48]
	str	x2, [sp, 40]
	str	x3, [sp, 32]
	str	x4, [sp, 24]
	ldr	x3, [sp, 24]
	ldr	x2, [sp, 32]
	ldr	x1, [sp, 40]
	ldr	x0, [sp, 48]
	bl	_ZN5boost6lambda6detail10do_nothingIiKNS_6tuples9null_typeES5_S5_EEvRT_RT0_RT1_RT2_
	ldr	x0, [sp, 56]
	ldp	x29, x30, [sp], 64
	.cfi_restore 30
	.cfi_restore 29
	.cfi_def_cfa_offset 0
	ret
	.cfi_endproc
.LFE6463:
	.size	_ZN5boost6lambda6detail6selectIKiiKNS_6tuples9null_typeES6_S6_EERT_S8_RT0_RT1_RT2_RT3_, .-_ZN5boost6lambda6detail6selectIKiiKNS_6tuples9null_typeES6_S6_EERT_S8_RT0_RT1_RT2_RT3_
	.section	.text._ZSt14__copy_move_a2ILb0EPKiPiET1_T0_S4_S3_,"axG",@progbits,_ZSt14__copy_move_a2ILb0EPKiPiET1_T0_S4_S3_,comdat
	.align	2
	.weak	_ZSt14__copy_move_a2ILb0EPKiPiET1_T0_S4_S3_
	.type	_ZSt14__copy_move_a2ILb0EPKiPiET1_T0_S4_S3_, %function
_ZSt14__copy_move_a2ILb0EPKiPiET1_T0_S4_S3_:
.LFB6464:
	.cfi_startproc
	stp	x29, x30, [sp, -48]!
	.cfi_def_cfa_offset 48
	.cfi_offset 29, -48
	.cfi_offset 30, -40
	mov	x29, sp
	str	x0, [sp, 40]
	str	x1, [sp, 32]
	str	x2, [sp, 24]
	ldr	x2, [sp, 24]
	ldr	x1, [sp, 32]
	ldr	x0, [sp, 40]
	bl	_ZNSt11__copy_moveILb0ELb1ESt26random_access_iterator_tagE8__copy_mIiEEPT_PKS3_S6_S4_
	ldp	x29, x30, [sp], 48
	.cfi_restore 30
	.cfi_restore 29
	.cfi_def_cfa_offset 0
	ret
	.cfi_endproc
.LFE6464:
	.size	_ZSt14__copy_move_a2ILb0EPKiPiET1_T0_S4_S3_, .-_ZSt14__copy_move_a2ILb0EPKiPiET1_T0_S4_S3_
	.section	.text._ZN5boost6tuples6detail10drop_frontILi0EE5applyINS0_4consINS_6lambda14lambda_functorINS6_11placeholderILi1EEEEENS5_IKiNS0_9null_typeEEEEEE4callERKSE_,"axG",@progbits,_ZN5boost6tuples6detail10drop_frontILi0EE5applyINS0_4consINS_6lambda14lambda_functorINS6_11placeholderILi1EEEEENS5_IKiNS0_9null_typeEEEEEE4callERKSE_,comdat
	.align	2
	.weak	_ZN5boost6tuples6detail10drop_frontILi0EE5applyINS0_4consINS_6lambda14lambda_functorINS6_11placeholderILi1EEEEENS5_IKiNS0_9null_typeEEEEEE4callERKSE_
	.type	_ZN5boost6tuples6detail10drop_frontILi0EE5applyINS0_4consINS_6lambda14lambda_functorINS6_11placeholderILi1EEEEENS5_IKiNS0_9null_typeEEEEEE4callERKSE_, %function
_ZN5boost6tuples6detail10drop_frontILi0EE5applyINS0_4consINS_6lambda14lambda_functorINS6_11placeholderILi1EEEEENS5_IKiNS0_9null_typeEEEEEE4callERKSE_:
.LFB6465:
	.cfi_startproc
	sub	sp, sp, #16
	.cfi_def_cfa_offset 16
	str	x0, [sp, 8]
	ldr	x0, [sp, 8]
	add	sp, sp, 16
	.cfi_def_cfa_offset 0
	ret
	.cfi_endproc
.LFE6465:
	.size	_ZN5boost6tuples6detail10drop_frontILi0EE5applyINS0_4consINS_6lambda14lambda_functorINS6_11placeholderILi1EEEEENS5_IKiNS0_9null_typeEEEEEE4callERKSE_, .-_ZN5boost6tuples6detail10drop_frontILi0EE5applyINS0_4consINS_6lambda14lambda_functorINS6_11placeholderILi1EEEEENS5_IKiNS0_9null_typeEEEEEE4callERKSE_
	.section	.text._ZNK5boost6lambda11placeholderILi1EE4callIRiiKNS_6tuples9null_typeES7_S7_EET_RT0_RT1_RT2_RT3_,"axG",@progbits,_ZNK5boost6lambda11placeholderILi1EE4callIRiiKNS_6tuples9null_typeES7_S7_EET_RT0_RT1_RT2_RT3_,comdat
	.align	2
	.weak	_ZNK5boost6lambda11placeholderILi1EE4callIRiiKNS_6tuples9null_typeES7_S7_EET_RT0_RT1_RT2_RT3_
	.type	_ZNK5boost6lambda11placeholderILi1EE4callIRiiKNS_6tuples9null_typeES7_S7_EET_RT0_RT1_RT2_RT3_, %function
_ZNK5boost6lambda11placeholderILi1EE4callIRiiKNS_6tuples9null_typeES7_S7_EET_RT0_RT1_RT2_RT3_:
.LFB6466:
	.cfi_startproc
	stp	x29, x30, [sp, -64]!
	.cfi_def_cfa_offset 64
	.cfi_offset 29, -64
	.cfi_offset 30, -56
	mov	x29, sp
	str	x0, [sp, 56]
	str	x1, [sp, 48]
	str	x2, [sp, 40]
	str	x3, [sp, 32]
	str	x4, [sp, 24]
	ldr	x3, [sp, 24]
	ldr	x2, [sp, 32]
	ldr	x1, [sp, 40]
	ldr	x0, [sp, 48]
	bl	_ZN5boost6lambda6detail10do_nothingIiKNS_6tuples9null_typeES5_S5_EEvRT_RT0_RT1_RT2_
	ldr	x0, [sp, 48]
	ldp	x29, x30, [sp], 64
	.cfi_restore 30
	.cfi_restore 29
	.cfi_def_cfa_offset 0
	ret
	.cfi_endproc
.LFE6466:
	.size	_ZNK5boost6lambda11placeholderILi1EE4callIRiiKNS_6tuples9null_typeES7_S7_EET_RT0_RT1_RT2_RT3_, .-_ZNK5boost6lambda11placeholderILi1EE4callIRiiKNS_6tuples9null_typeES7_S7_EET_RT0_RT1_RT2_RT3_
	.section	.text._ZN5boost6tuples6detail10drop_frontILi1EE5applyINS0_4consINS_6lambda14lambda_functorINS6_11placeholderILi1EEEEENS5_IKiNS0_9null_typeEEEEEE4callERKSE_,"axG",@progbits,_ZN5boost6tuples6detail10drop_frontILi1EE5applyINS0_4consINS_6lambda14lambda_functorINS6_11placeholderILi1EEEEENS5_IKiNS0_9null_typeEEEEEE4callERKSE_,comdat
	.align	2
	.weak	_ZN5boost6tuples6detail10drop_frontILi1EE5applyINS0_4consINS_6lambda14lambda_functorINS6_11placeholderILi1EEEEENS5_IKiNS0_9null_typeEEEEEE4callERKSE_
	.type	_ZN5boost6tuples6detail10drop_frontILi1EE5applyINS0_4consINS_6lambda14lambda_functorINS6_11placeholderILi1EEEEENS5_IKiNS0_9null_typeEEEEEE4callERKSE_, %function
_ZN5boost6tuples6detail10drop_frontILi1EE5applyINS0_4consINS_6lambda14lambda_functorINS6_11placeholderILi1EEEEENS5_IKiNS0_9null_typeEEEEEE4callERKSE_:
.LFB6467:
	.cfi_startproc
	stp	x29, x30, [sp, -32]!
	.cfi_def_cfa_offset 32
	.cfi_offset 29, -32
	.cfi_offset 30, -24
	mov	x29, sp
	str	x0, [sp, 24]
	ldr	x0, [sp, 24]
	bl	_ZN5boost6tuples6detail10drop_frontILi0EE5applyINS0_4consINS_6lambda14lambda_functorINS6_11placeholderILi1EEEEENS5_IKiNS0_9null_typeEEEEEE4callERKSE_
	add	x0, x0, 4
	ldp	x29, x30, [sp], 32
	.cfi_restore 30
	.cfi_restore 29
	.cfi_def_cfa_offset 0
	ret
	.cfi_endproc
.LFE6467:
	.size	_ZN5boost6tuples6detail10drop_frontILi1EE5applyINS0_4consINS_6lambda14lambda_functorINS6_11placeholderILi1EEEEENS5_IKiNS0_9null_typeEEEEEE4callERKSE_, .-_ZN5boost6tuples6detail10drop_frontILi1EE5applyINS0_4consINS_6lambda14lambda_functorINS6_11placeholderILi1EEEEENS5_IKiNS0_9null_typeEEEEEE4callERKSE_
	.section	.text._ZNSt11__copy_moveILb0ELb1ESt26random_access_iterator_tagE8__copy_mIiEEPT_PKS3_S6_S4_,"axG",@progbits,_ZNSt11__copy_moveILb0ELb1ESt26random_access_iterator_tagE8__copy_mIiEEPT_PKS3_S6_S4_,comdat
	.align	2
	.weak	_ZNSt11__copy_moveILb0ELb1ESt26random_access_iterator_tagE8__copy_mIiEEPT_PKS3_S6_S4_
	.type	_ZNSt11__copy_moveILb0ELb1ESt26random_access_iterator_tagE8__copy_mIiEEPT_PKS3_S6_S4_, %function
_ZNSt11__copy_moveILb0ELb1ESt26random_access_iterator_tagE8__copy_mIiEEPT_PKS3_S6_S4_:
.LFB6468:
	.cfi_startproc
	stp	x29, x30, [sp, -64]!
	.cfi_def_cfa_offset 64
	.cfi_offset 29, -64
	.cfi_offset 30, -56
	mov	x29, sp
	str	x0, [sp, 40]
	str	x1, [sp, 32]
	str	x2, [sp, 24]
	ldr	x1, [sp, 32]
	ldr	x0, [sp, 40]
	sub	x0, x1, x0
	asr	x0, x0, 2
	str	x0, [sp, 56]
	ldr	x0, [sp, 56]
	cmp	x0, 0
	beq	.L216
	ldr	x0, [sp, 56]
	lsl	x0, x0, 2
	mov	x2, x0
	ldr	x1, [sp, 40]
	ldr	x0, [sp, 24]
	bl	memmove
.L216:
	ldr	x0, [sp, 56]
	lsl	x0, x0, 2
	ldr	x1, [sp, 24]
	add	x0, x1, x0
	ldp	x29, x30, [sp], 64
	.cfi_restore 30
	.cfi_restore 29
	.cfi_def_cfa_offset 0
	ret
	.cfi_endproc
.LFE6468:
	.size	_ZNSt11__copy_moveILb0ELb1ESt26random_access_iterator_tagE8__copy_mIiEEPT_PKS3_S6_S4_, .-_ZNSt11__copy_moveILb0ELb1ESt26random_access_iterator_tagE8__copy_mIiEEPT_PKS3_S6_S4_
	.text
	.align	2
	.type	_Z41__static_initialization_and_destruction_0ii, %function
_Z41__static_initialization_and_destruction_0ii:
.LFB6469:
	.cfi_startproc
	stp	x29, x30, [sp, -32]!
	.cfi_def_cfa_offset 32
	.cfi_offset 29, -32
	.cfi_offset 30, -24
	mov	x29, sp
	str	w0, [sp, 28]
	str	w1, [sp, 24]
	ldr	w0, [sp, 28]
	cmp	w0, 1
	bne	.L220
	ldr	w1, [sp, 24]
	mov	w0, 65535
	cmp	w1, w0
	bne	.L220
	adrp	x0, _ZN5boost6lambda12_GLOBAL__N_1L5free1E
	add	x0, x0, :lo12:_ZN5boost6lambda12_GLOBAL__N_1L5free1E
	bl	_ZN5boost6lambda14lambda_functorINS0_11placeholderILi1EEEEC1Ev
	adrp	x0, _ZN5boost6lambda12_GLOBAL__N_1L5free2E
	add	x0, x0, :lo12:_ZN5boost6lambda12_GLOBAL__N_1L5free2E
	bl	_ZN5boost6lambda14lambda_functorINS0_11placeholderILi2EEEEC1Ev
	adrp	x0, _ZN5boost6lambda12_GLOBAL__N_1L5free3E
	add	x0, x0, :lo12:_ZN5boost6lambda12_GLOBAL__N_1L5free3E
	bl	_ZN5boost6lambda14lambda_functorINS0_11placeholderILi4EEEEC1Ev
	adrp	x0, _ZStL8__ioinit
	add	x0, x0, :lo12:_ZStL8__ioinit
	bl	_ZNSt8ios_base4InitC1Ev
	adrp	x0, __dso_handle
	add	x2, x0, :lo12:__dso_handle
	adrp	x0, _ZStL8__ioinit
	add	x1, x0, :lo12:_ZStL8__ioinit
	adrp	x0, :got:_ZNSt8ios_base4InitD1Ev
	ldr	x0, [x0, #:got_lo12:_ZNSt8ios_base4InitD1Ev]
	bl	__cxa_atexit
.L220:
	nop
	ldp	x29, x30, [sp], 32
	.cfi_restore 30
	.cfi_restore 29
	.cfi_def_cfa_offset 0
	ret
	.cfi_endproc
.LFE6469:
	.size	_Z41__static_initialization_and_destruction_0ii, .-_Z41__static_initialization_and_destruction_0ii
	.align	2
	.type	_GLOBAL__sub_I_main, %function
_GLOBAL__sub_I_main:
.LFB6470:
	.cfi_startproc
	stp	x29, x30, [sp, -16]!
	.cfi_def_cfa_offset 16
	.cfi_offset 29, -16
	.cfi_offset 30, -8
	mov	x29, sp
	mov	w1, 65535
	mov	w0, 1
	bl	_Z41__static_initialization_and_destruction_0ii
	ldp	x29, x30, [sp], 16
	.cfi_restore 30
	.cfi_restore 29
	.cfi_def_cfa_offset 0
	ret
	.cfi_endproc
.LFE6470:
	.size	_GLOBAL__sub_I_main, .-_GLOBAL__sub_I_main
	.section	.init_array,"aw"
	.align	3
	.xword	_GLOBAL__sub_I_main
	.hidden	DW.ref.__gxx_personality_v0
	.weak	DW.ref.__gxx_personality_v0
	.section	.data.rel.local.DW.ref.__gxx_personality_v0,"awG",@progbits,DW.ref.__gxx_personality_v0,comdat
	.align	3
	.type	DW.ref.__gxx_personality_v0, %object
	.size	DW.ref.__gxx_personality_v0, 8
DW.ref.__gxx_personality_v0:
	.xword	__gxx_personality_v0
	.hidden	__dso_handle
	.ident	"GCC: (Ubuntu 11.3.0-1ubuntu1~22.04) 11.3.0"
	.section	.note.GNU-stack,"",@progbits
