	.arch armv8-a
	.file	"main.cpp"
	.text
	.section	.text._ZNSt9exceptionC2Ev,"axG",@progbits,_ZNSt9exceptionC5Ev,comdat
	.align	2
	.weak	_ZNSt9exceptionC2Ev
	.type	_ZNSt9exceptionC2Ev, %function
_ZNSt9exceptionC2Ev:
.LFB375:
	.cfi_startproc
	sub	sp, sp, #16
	.cfi_def_cfa_offset 16
	str	x0, [sp, 8]
	adrp	x0, :got:_ZTVSt9exception
	ldr	x0, [x0, #:got_lo12:_ZTVSt9exception]
	add	x1, x0, 16
	ldr	x0, [sp, 8]
	str	x1, [x0]
	nop
	add	sp, sp, 16
	.cfi_def_cfa_offset 0
	ret
	.cfi_endproc
.LFE375:
	.size	_ZNSt9exceptionC2Ev, .-_ZNSt9exceptionC2Ev
	.weak	_ZNSt9exceptionC1Ev
	.set	_ZNSt9exceptionC1Ev,_ZNSt9exceptionC2Ev
	.section	.text._ZnwmPv,"axG",@progbits,_ZnwmPv,comdat
	.align	2
	.weak	_ZnwmPv
	.type	_ZnwmPv, %function
_ZnwmPv:
.LFB383:
	.cfi_startproc
	sub	sp, sp, #16
	.cfi_def_cfa_offset 16
	str	x0, [sp, 8]
	str	x1, [sp]
	ldr	x0, [sp]
	add	sp, sp, 16
	.cfi_def_cfa_offset 0
	ret
	.cfi_endproc
.LFE383:
	.size	_ZnwmPv, .-_ZnwmPv
	.section	.text._ZdlPvS_,"axG",@progbits,_ZdlPvS_,comdat
	.align	2
	.weak	_ZdlPvS_
	.type	_ZdlPvS_, %function
_ZdlPvS_:
.LFB385:
	.cfi_startproc
	sub	sp, sp, #16
	.cfi_def_cfa_offset 16
	str	x0, [sp, 8]
	str	x1, [sp]
	nop
	add	sp, sp, 16
	.cfi_def_cfa_offset 0
	ret
	.cfi_endproc
.LFE385:
	.size	_ZdlPvS_, .-_ZdlPvS_
	.section	.text._ZNKSt9type_infoeqERKS_,"axG",@progbits,_ZNKSt9type_infoeqERKS_,comdat
	.align	2
	.weak	_ZNKSt9type_infoeqERKS_
	.type	_ZNKSt9type_infoeqERKS_, %function
_ZNKSt9type_infoeqERKS_:
.LFB1073:
	.cfi_startproc
	stp	x29, x30, [sp, -32]!
	.cfi_def_cfa_offset 32
	.cfi_offset 29, -32
	.cfi_offset 30, -24
	mov	x29, sp
	str	x0, [sp, 24]
	str	x1, [sp, 16]
	ldr	x0, [sp, 24]
	ldr	x1, [x0, 8]
	ldr	x0, [sp, 16]
	ldr	x0, [x0, 8]
	cmp	x1, x0
	beq	.L6
	ldr	x0, [sp, 24]
	ldr	x0, [x0, 8]
	ldrb	w0, [x0]
	cmp	w0, 42
	beq	.L7
	ldr	x0, [sp, 24]
	ldr	x2, [x0, 8]
	ldr	x0, [sp, 16]
	ldr	x0, [x0, 8]
	mov	x1, x0
	mov	x0, x2
	bl	strcmp
	cmp	w0, 0
	bne	.L7
.L6:
	mov	w0, 1
	b	.L8
.L7:
	mov	w0, 0
.L8:
	ldp	x29, x30, [sp], 32
	.cfi_restore 30
	.cfi_restore 29
	.cfi_def_cfa_offset 0
	ret
	.cfi_endproc
.LFE1073:
	.size	_ZNKSt9type_infoeqERKS_, .-_ZNKSt9type_infoeqERKS_
	.text
	.align	2
	.type	_ZL18__gthread_active_pv, %function
_ZL18__gthread_active_pv:
.LFB1120:
	.cfi_startproc
	mov	w0, 1
	ret
	.cfi_endproc
.LFE1120:
	.size	_ZL18__gthread_active_pv, .-_ZL18__gthread_active_pv
	.section	.text._ZL20__gthread_mutex_lockP15pthread_mutex_t,"axG",@progbits,_ZNSt5mutex4lockEv,comdat
	.align	2
	.type	_ZL20__gthread_mutex_lockP15pthread_mutex_t, %function
_ZL20__gthread_mutex_lockP15pthread_mutex_t:
.LFB1134:
	.cfi_startproc
	stp	x29, x30, [sp, -32]!
	.cfi_def_cfa_offset 32
	.cfi_offset 29, -32
	.cfi_offset 30, -24
	mov	x29, sp
	str	x0, [sp, 24]
	bl	_ZL18__gthread_active_pv
	cmp	w0, 0
	cset	w0, ne
	and	w0, w0, 255
	cmp	w0, 0
	beq	.L13
	ldr	x0, [sp, 24]
	bl	pthread_mutex_lock
	b	.L14
.L13:
	mov	w0, 0
.L14:
	ldp	x29, x30, [sp], 32
	.cfi_restore 30
	.cfi_restore 29
	.cfi_def_cfa_offset 0
	ret
	.cfi_endproc
.LFE1134:
	.size	_ZL20__gthread_mutex_lockP15pthread_mutex_t, .-_ZL20__gthread_mutex_lockP15pthread_mutex_t
	.section	.text._ZL22__gthread_mutex_unlockP15pthread_mutex_t,"axG",@progbits,_ZNSt5mutex6unlockEv,comdat
	.align	2
	.type	_ZL22__gthread_mutex_unlockP15pthread_mutex_t, %function
_ZL22__gthread_mutex_unlockP15pthread_mutex_t:
.LFB1137:
	.cfi_startproc
	stp	x29, x30, [sp, -32]!
	.cfi_def_cfa_offset 32
	.cfi_offset 29, -32
	.cfi_offset 30, -24
	mov	x29, sp
	str	x0, [sp, 24]
	bl	_ZL18__gthread_active_pv
	cmp	w0, 0
	cset	w0, ne
	and	w0, w0, 255
	cmp	w0, 0
	beq	.L16
	ldr	x0, [sp, 24]
	bl	pthread_mutex_unlock
	b	.L17
.L16:
	mov	w0, 0
.L17:
	ldp	x29, x30, [sp], 32
	.cfi_restore 30
	.cfi_restore 29
	.cfi_def_cfa_offset 0
	ret
	.cfi_endproc
.LFE1137:
	.size	_ZL22__gthread_mutex_unlockP15pthread_mutex_t, .-_ZL22__gthread_mutex_unlockP15pthread_mutex_t
	.section	.text._ZNSt15__exception_ptr13exception_ptrC2EOS0_,"axG",@progbits,_ZNSt15__exception_ptr13exception_ptrC5EOS0_,comdat
	.align	2
	.weak	_ZNSt15__exception_ptr13exception_ptrC2EOS0_
	.type	_ZNSt15__exception_ptr13exception_ptrC2EOS0_, %function
_ZNSt15__exception_ptr13exception_ptrC2EOS0_:
.LFB1163:
	.cfi_startproc
	sub	sp, sp, #16
	.cfi_def_cfa_offset 16
	str	x0, [sp, 8]
	str	x1, [sp]
	ldr	x0, [sp]
	ldr	x1, [x0]
	ldr	x0, [sp, 8]
	str	x1, [x0]
	ldr	x0, [sp]
	str	xzr, [x0]
	nop
	add	sp, sp, 16
	.cfi_def_cfa_offset 0
	ret
	.cfi_endproc
.LFE1163:
	.size	_ZNSt15__exception_ptr13exception_ptrC2EOS0_, .-_ZNSt15__exception_ptr13exception_ptrC2EOS0_
	.weak	_ZNSt15__exception_ptr13exception_ptrC1EOS0_
	.set	_ZNSt15__exception_ptr13exception_ptrC1EOS0_,_ZNSt15__exception_ptr13exception_ptrC2EOS0_
	.section	.text._ZNSt15__exception_ptr13exception_ptraSEOS0_,"axG",@progbits,_ZNSt15__exception_ptr13exception_ptraSEOS0_,comdat
	.align	2
	.weak	_ZNSt15__exception_ptr13exception_ptraSEOS0_
	.type	_ZNSt15__exception_ptr13exception_ptraSEOS0_, %function
_ZNSt15__exception_ptr13exception_ptraSEOS0_:
.LFB1165:
	.cfi_startproc
	stp	x29, x30, [sp, -48]!
	.cfi_def_cfa_offset 48
	.cfi_offset 29, -48
	.cfi_offset 30, -40
	mov	x29, sp
	str	x0, [sp, 24]
	str	x1, [sp, 16]
	adrp	x0, :got:__stack_chk_guard
	ldr	x0, [x0, #:got_lo12:__stack_chk_guard]
	ldr	x1, [x0]
	str	x1, [sp, 40]
	mov	x1, 0
	add	x0, sp, 32
	ldr	x1, [sp, 16]
	bl	_ZNSt15__exception_ptr13exception_ptrC1EOS0_
	add	x0, sp, 32
	ldr	x1, [sp, 24]
	bl	_ZNSt15__exception_ptr13exception_ptr4swapERS0_
	add	x0, sp, 32
	bl	_ZNSt15__exception_ptr13exception_ptrD1Ev
	ldr	x0, [sp, 24]
	mov	x1, x0
	adrp	x0, :got:__stack_chk_guard
	ldr	x0, [x0, #:got_lo12:__stack_chk_guard]
	ldr	x3, [sp, 40]
	ldr	x2, [x0]
	subs	x3, x3, x2
	mov	x2, 0
	beq	.L21
	bl	__stack_chk_fail
.L21:
	mov	x0, x1
	ldp	x29, x30, [sp], 48
	.cfi_restore 30
	.cfi_restore 29
	.cfi_def_cfa_offset 0
	ret
	.cfi_endproc
.LFE1165:
	.size	_ZNSt15__exception_ptr13exception_ptraSEOS0_, .-_ZNSt15__exception_ptr13exception_ptraSEOS0_
	.section	.text._ZNSt15__exception_ptr13exception_ptrC2Ev,"axG",@progbits,_ZNSt15__exception_ptr13exception_ptrC5Ev,comdat
	.align	2
	.weak	_ZNSt15__exception_ptr13exception_ptrC2Ev
	.type	_ZNSt15__exception_ptr13exception_ptrC2Ev, %function
_ZNSt15__exception_ptr13exception_ptrC2Ev:
.LFB1170:
	.cfi_startproc
	sub	sp, sp, #16
	.cfi_def_cfa_offset 16
	str	x0, [sp, 8]
	ldr	x0, [sp, 8]
	str	xzr, [x0]
	nop
	add	sp, sp, 16
	.cfi_def_cfa_offset 0
	ret
	.cfi_endproc
.LFE1170:
	.size	_ZNSt15__exception_ptr13exception_ptrC2Ev, .-_ZNSt15__exception_ptr13exception_ptrC2Ev
	.weak	_ZNSt15__exception_ptr13exception_ptrC1Ev
	.set	_ZNSt15__exception_ptr13exception_ptrC1Ev,_ZNSt15__exception_ptr13exception_ptrC2Ev
	.section	.text._ZNSt15__exception_ptr13exception_ptrC2ERKS0_,"axG",@progbits,_ZNSt15__exception_ptr13exception_ptrC5ERKS0_,comdat
	.align	2
	.weak	_ZNSt15__exception_ptr13exception_ptrC2ERKS0_
	.type	_ZNSt15__exception_ptr13exception_ptrC2ERKS0_, %function
_ZNSt15__exception_ptr13exception_ptrC2ERKS0_:
.LFB1173:
	.cfi_startproc
	stp	x29, x30, [sp, -32]!
	.cfi_def_cfa_offset 32
	.cfi_offset 29, -32
	.cfi_offset 30, -24
	mov	x29, sp
	str	x0, [sp, 24]
	str	x1, [sp, 16]
	ldr	x0, [sp, 16]
	ldr	x1, [x0]
	ldr	x0, [sp, 24]
	str	x1, [x0]
	ldr	x0, [sp, 24]
	ldr	x0, [x0]
	cmp	x0, 0
	beq	.L25
	ldr	x0, [sp, 24]
	bl	_ZNSt15__exception_ptr13exception_ptr9_M_addrefEv
.L25:
	nop
	ldp	x29, x30, [sp], 32
	.cfi_restore 30
	.cfi_restore 29
	.cfi_def_cfa_offset 0
	ret
	.cfi_endproc
.LFE1173:
	.size	_ZNSt15__exception_ptr13exception_ptrC2ERKS0_, .-_ZNSt15__exception_ptr13exception_ptrC2ERKS0_
	.weak	_ZNSt15__exception_ptr13exception_ptrC1ERKS0_
	.set	_ZNSt15__exception_ptr13exception_ptrC1ERKS0_,_ZNSt15__exception_ptr13exception_ptrC2ERKS0_
	.section	.text._ZNSt15__exception_ptr13exception_ptrD2Ev,"axG",@progbits,_ZNSt15__exception_ptr13exception_ptrD5Ev,comdat
	.align	2
	.weak	_ZNSt15__exception_ptr13exception_ptrD2Ev
	.type	_ZNSt15__exception_ptr13exception_ptrD2Ev, %function
_ZNSt15__exception_ptr13exception_ptrD2Ev:
.LFB1176:
	.cfi_startproc
	stp	x29, x30, [sp, -32]!
	.cfi_def_cfa_offset 32
	.cfi_offset 29, -32
	.cfi_offset 30, -24
	mov	x29, sp
	str	x0, [sp, 24]
	ldr	x0, [sp, 24]
	ldr	x0, [x0]
	cmp	x0, 0
	beq	.L28
	ldr	x0, [sp, 24]
	bl	_ZNSt15__exception_ptr13exception_ptr10_M_releaseEv
.L28:
	nop
	ldp	x29, x30, [sp], 32
	.cfi_restore 30
	.cfi_restore 29
	.cfi_def_cfa_offset 0
	ret
	.cfi_endproc
.LFE1176:
	.size	_ZNSt15__exception_ptr13exception_ptrD2Ev, .-_ZNSt15__exception_ptr13exception_ptrD2Ev
	.weak	_ZNSt15__exception_ptr13exception_ptrD1Ev
	.set	_ZNSt15__exception_ptr13exception_ptrD1Ev,_ZNSt15__exception_ptr13exception_ptrD2Ev
	.section	.text._ZNSt15__exception_ptr13exception_ptr4swapERS0_,"axG",@progbits,_ZNSt15__exception_ptr13exception_ptr4swapERS0_,comdat
	.align	2
	.weak	_ZNSt15__exception_ptr13exception_ptr4swapERS0_
	.type	_ZNSt15__exception_ptr13exception_ptr4swapERS0_, %function
_ZNSt15__exception_ptr13exception_ptr4swapERS0_:
.LFB1179:
	.cfi_startproc
	sub	sp, sp, #32
	.cfi_def_cfa_offset 32
	str	x0, [sp, 8]
	str	x1, [sp]
	ldr	x0, [sp, 8]
	ldr	x0, [x0]
	str	x0, [sp, 24]
	ldr	x0, [sp]
	ldr	x1, [x0]
	ldr	x0, [sp, 8]
	str	x1, [x0]
	ldr	x0, [sp]
	ldr	x1, [sp, 24]
	str	x1, [x0]
	nop
	add	sp, sp, 32
	.cfi_def_cfa_offset 0
	ret
	.cfi_endproc
.LFE1179:
	.size	_ZNSt15__exception_ptr13exception_ptr4swapERS0_, .-_ZNSt15__exception_ptr13exception_ptr4swapERS0_
	.section	.rodata
	.align	2
	.type	_ZN9__gnu_cxxL21__default_lock_policyE, %object
	.size	_ZN9__gnu_cxxL21__default_lock_policyE, 4
_ZN9__gnu_cxxL21__default_lock_policyE:
	.word	2
	.section	.text._ZStanSt12memory_orderSt23__memory_order_modifier,"axG",@progbits,_ZStanSt12memory_orderSt23__memory_order_modifier,comdat
	.align	2
	.weak	_ZStanSt12memory_orderSt23__memory_order_modifier
	.type	_ZStanSt12memory_orderSt23__memory_order_modifier, %function
_ZStanSt12memory_orderSt23__memory_order_modifier:
.LFB1493:
	.cfi_startproc
	sub	sp, sp, #16
	.cfi_def_cfa_offset 16
	str	w0, [sp, 12]
	str	w1, [sp, 8]
	ldr	w1, [sp, 12]
	ldr	w0, [sp, 8]
	and	w0, w1, w0
	add	sp, sp, 16
	.cfi_def_cfa_offset 0
	ret
	.cfi_endproc
.LFE1493:
	.size	_ZStanSt12memory_orderSt23__memory_order_modifier, .-_ZStanSt12memory_orderSt23__memory_order_modifier
	.section	.rodata
	.align	3
	.type	_ZN6__pstl9execution2v1L3seqE, %object
	.size	_ZN6__pstl9execution2v1L3seqE, 1
_ZN6__pstl9execution2v1L3seqE:
	.zero	1
	.align	3
	.type	_ZN6__pstl9execution2v1L3parE, %object
	.size	_ZN6__pstl9execution2v1L3parE, 1
_ZN6__pstl9execution2v1L3parE:
	.zero	1
	.align	3
	.type	_ZN6__pstl9execution2v1L9par_unseqE, %object
	.size	_ZN6__pstl9execution2v1L9par_unseqE, 1
_ZN6__pstl9execution2v1L9par_unseqE:
	.zero	1
	.align	3
	.type	_ZN6__pstl9execution2v1L5unseqE, %object
	.size	_ZN6__pstl9execution2v1L5unseqE, 1
_ZN6__pstl9execution2v1L5unseqE:
	.zero	1
	.section	.text._ZNSt6atomicIlEC2El,"axG",@progbits,_ZNSt6atomicIlEC5El,comdat
	.align	2
	.weak	_ZNSt6atomicIlEC2El
	.type	_ZNSt6atomicIlEC2El, %function
_ZNSt6atomicIlEC2El:
.LFB1759:
	.cfi_startproc
	stp	x29, x30, [sp, -32]!
	.cfi_def_cfa_offset 32
	.cfi_offset 29, -32
	.cfi_offset 30, -24
	mov	x29, sp
	str	x0, [sp, 24]
	str	x1, [sp, 16]
	ldr	x0, [sp, 24]
	ldr	x1, [sp, 16]
	bl	_ZNSt13__atomic_baseIlEC2El
	nop
	ldp	x29, x30, [sp], 32
	.cfi_restore 30
	.cfi_restore 29
	.cfi_def_cfa_offset 0
	ret
	.cfi_endproc
.LFE1759:
	.size	_ZNSt6atomicIlEC2El, .-_ZNSt6atomicIlEC2El
	.weak	_ZNSt6atomicIlEC1El
	.set	_ZNSt6atomicIlEC1El,_ZNSt6atomicIlEC2El
	.section	.text._ZN5boost4asio6detail9incrementERSt6atomicIlEl,"axG",@progbits,_ZN5boost4asio6detail9incrementERSt6atomicIlEl,comdat
	.align	2
	.weak	_ZN5boost4asio6detail9incrementERSt6atomicIlEl
	.type	_ZN5boost4asio6detail9incrementERSt6atomicIlEl, %function
_ZN5boost4asio6detail9incrementERSt6atomicIlEl:
.LFB1831:
	.cfi_startproc
	stp	x29, x30, [sp, -32]!
	.cfi_def_cfa_offset 32
	.cfi_offset 29, -32
	.cfi_offset 30, -24
	mov	x29, sp
	str	x0, [sp, 24]
	str	x1, [sp, 16]
	ldr	x0, [sp, 24]
	ldr	x1, [sp, 16]
	bl	_ZNSt13__atomic_baseIlEpLEl
	nop
	ldp	x29, x30, [sp], 32
	.cfi_restore 30
	.cfi_restore 29
	.cfi_def_cfa_offset 0
	ret
	.cfi_endproc
.LFE1831:
	.size	_ZN5boost4asio6detail9incrementERSt6atomicIlEl, .-_ZN5boost4asio6detail9incrementERSt6atomicIlEl
	.section	.text._ZNSt11char_traitsIcE6lengthEPKc,"axG",@progbits,_ZNSt11char_traitsIcE6lengthEPKc,comdat
	.align	2
	.weak	_ZNSt11char_traitsIcE6lengthEPKc
	.type	_ZNSt11char_traitsIcE6lengthEPKc, %function
_ZNSt11char_traitsIcE6lengthEPKc:
.LFB1855:
	.cfi_startproc
	stp	x29, x30, [sp, -48]!
	.cfi_def_cfa_offset 48
	.cfi_offset 29, -48
	.cfi_offset 30, -40
	mov	x29, sp
	str	x0, [sp, 24]
	ldr	x0, [sp, 24]
	str	x0, [sp, 40]
	mov	w0, 0
	cmp	w0, 0
	beq	.L36
	ldr	x0, [sp, 24]
	bl	_ZN9__gnu_cxx11char_traitsIcE6lengthEPKc
	b	.L37
.L36:
	ldr	x0, [sp, 24]
	bl	strlen
	nop
.L37:
	ldp	x29, x30, [sp], 48
	.cfi_restore 30
	.cfi_restore 29
	.cfi_def_cfa_offset 0
	ret
	.cfi_endproc
.LFE1855:
	.size	_ZNSt11char_traitsIcE6lengthEPKc, .-_ZNSt11char_traitsIcE6lengthEPKc
	.section	.data.rel.ro.local,"aw"
	.align	3
	.type	_ZN5boost4asio9execution12_GLOBAL__N_1L8set_doneE, %object
	.size	_ZN5boost4asio9execution12_GLOBAL__N_1L8set_doneE, 8
_ZN5boost4asio9execution12_GLOBAL__N_1L8set_doneE:
	.xword	_ZN26asio_execution_set_done_fn15static_instanceINS_4implEE8instanceE
	.align	3
	.type	_ZN5boost4asio9execution12_GLOBAL__N_1L9set_errorE, %object
	.size	_ZN5boost4asio9execution12_GLOBAL__N_1L9set_errorE, 8
_ZN5boost4asio9execution12_GLOBAL__N_1L9set_errorE:
	.xword	_ZN27asio_execution_set_error_fn15static_instanceINS_4implEE8instanceE
	.align	3
	.type	_ZN5boost4asio9execution12_GLOBAL__N_1L9set_valueE, %object
	.size	_ZN5boost4asio9execution12_GLOBAL__N_1L9set_valueE, 8
_ZN5boost4asio9execution12_GLOBAL__N_1L9set_valueE:
	.xword	_ZN27asio_execution_set_value_fn15static_instanceINS_4implEE8instanceE
	.align	3
	.type	_ZN5boost4asio9execution12_GLOBAL__N_1L7executeE, %object
	.size	_ZN5boost4asio9execution12_GLOBAL__N_1L7executeE, 8
_ZN5boost4asio9execution12_GLOBAL__N_1L7executeE:
	.xword	_ZN25asio_execution_execute_fn15static_instanceINS_4implEE8instanceE
	.align	3
	.type	_ZN5boost4asio9execution12_GLOBAL__N_1L8scheduleE, %object
	.size	_ZN5boost4asio9execution12_GLOBAL__N_1L8scheduleE, 8
_ZN5boost4asio9execution12_GLOBAL__N_1L8scheduleE:
	.xword	_ZN26asio_execution_schedule_fn15static_instanceINS_4implEE8instanceE
	.align	3
	.type	_ZN5boost4asio9execution12_GLOBAL__N_1L5startE, %object
	.size	_ZN5boost4asio9execution12_GLOBAL__N_1L5startE, 8
_ZN5boost4asio9execution12_GLOBAL__N_1L5startE:
	.xword	_ZN23asio_execution_start_fn15static_instanceINS_4implEE8instanceE
	.align	3
	.type	_ZN5boost4asio9execution12_GLOBAL__N_1L7connectE, %object
	.size	_ZN5boost4asio9execution12_GLOBAL__N_1L7connectE, 8
_ZN5boost4asio9execution12_GLOBAL__N_1L7connectE:
	.xword	_ZN25asio_execution_connect_fn15static_instanceINS_4implEE8instanceE
	.section	.rodata
	.align	3
	.type	_ZN5boost4asio9executionL9allocatorE, %object
	.size	_ZN5boost4asio9executionL9allocatorE, 1
_ZN5boost4asio9executionL9allocatorE:
	.zero	1
	.section	.text._ZN5boost4asio6detail11noncopyableC2Ev,"axG",@progbits,_ZN5boost4asio6detail11noncopyableC5Ev,comdat
	.align	2
	.weak	_ZN5boost4asio6detail11noncopyableC2Ev
	.type	_ZN5boost4asio6detail11noncopyableC2Ev, %function
_ZN5boost4asio6detail11noncopyableC2Ev:
.LFB2349:
	.cfi_startproc
	sub	sp, sp, #16
	.cfi_def_cfa_offset 16
	str	x0, [sp, 8]
	nop
	add	sp, sp, 16
	.cfi_def_cfa_offset 0
	ret
	.cfi_endproc
.LFE2349:
	.size	_ZN5boost4asio6detail11noncopyableC2Ev, .-_ZN5boost4asio6detail11noncopyableC2Ev
	.weak	_ZN5boost4asio6detail11noncopyableC1Ev
	.set	_ZN5boost4asio6detail11noncopyableC1Ev,_ZN5boost4asio6detail11noncopyableC2Ev
	.section	.text._ZN5boost4asio6detail11noncopyableD2Ev,"axG",@progbits,_ZN5boost4asio6detail11noncopyableD5Ev,comdat
	.align	2
	.weak	_ZN5boost4asio6detail11noncopyableD2Ev
	.type	_ZN5boost4asio6detail11noncopyableD2Ev, %function
_ZN5boost4asio6detail11noncopyableD2Ev:
.LFB2352:
	.cfi_startproc
	sub	sp, sp, #16
	.cfi_def_cfa_offset 16
	str	x0, [sp, 8]
	nop
	add	sp, sp, 16
	.cfi_def_cfa_offset 0
	ret
	.cfi_endproc
.LFE2352:
	.size	_ZN5boost4asio6detail11noncopyableD2Ev, .-_ZN5boost4asio6detail11noncopyableD2Ev
	.weak	_ZN5boost4asio6detail11noncopyableD1Ev
	.set	_ZN5boost4asio6detail11noncopyableD1Ev,_ZN5boost4asio6detail11noncopyableD2Ev
	.section	.text._ZNKSt3_V214error_categoryeqERKS0_,"axG",@progbits,_ZNKSt3_V214error_categoryeqERKS0_,comdat
	.align	2
	.weak	_ZNKSt3_V214error_categoryeqERKS0_
	.type	_ZNKSt3_V214error_categoryeqERKS0_, %function
_ZNKSt3_V214error_categoryeqERKS0_:
.LFB2397:
	.cfi_startproc
	sub	sp, sp, #16
	.cfi_def_cfa_offset 16
	str	x0, [sp, 8]
	str	x1, [sp]
	ldr	x1, [sp, 8]
	ldr	x0, [sp]
	cmp	x1, x0
	cset	w0, eq
	and	w0, w0, 255
	add	sp, sp, 16
	.cfi_def_cfa_offset 0
	ret
	.cfi_endproc
.LFE2397:
	.size	_ZNKSt3_V214error_categoryeqERKS0_, .-_ZNKSt3_V214error_categoryeqERKS0_
	.section	.text._ZNKSt10error_code5valueEv,"axG",@progbits,_ZNKSt10error_code5valueEv,comdat
	.align	2
	.weak	_ZNKSt10error_code5valueEv
	.type	_ZNKSt10error_code5valueEv, %function
_ZNKSt10error_code5valueEv:
.LFB2410:
	.cfi_startproc
	sub	sp, sp, #16
	.cfi_def_cfa_offset 16
	str	x0, [sp, 8]
	ldr	x0, [sp, 8]
	ldr	w0, [x0]
	add	sp, sp, 16
	.cfi_def_cfa_offset 0
	ret
	.cfi_endproc
.LFE2410:
	.size	_ZNKSt10error_code5valueEv, .-_ZNKSt10error_code5valueEv
	.section	.text._ZNKSt10error_code8categoryEv,"axG",@progbits,_ZNKSt10error_code8categoryEv,comdat
	.align	2
	.weak	_ZNKSt10error_code8categoryEv
	.type	_ZNKSt10error_code8categoryEv, %function
_ZNKSt10error_code8categoryEv:
.LFB2411:
	.cfi_startproc
	sub	sp, sp, #16
	.cfi_def_cfa_offset 16
	str	x0, [sp, 8]
	ldr	x0, [sp, 8]
	ldr	x0, [x0, 8]
	add	sp, sp, 16
	.cfi_def_cfa_offset 0
	ret
	.cfi_endproc
.LFE2411:
	.size	_ZNKSt10error_code8categoryEv, .-_ZNKSt10error_code8categoryEv
	.section	.text._ZNSt15error_conditionC2EiRKNSt3_V214error_categoryE,"axG",@progbits,_ZNSt15error_conditionC5EiRKNSt3_V214error_categoryE,comdat
	.align	2
	.weak	_ZNSt15error_conditionC2EiRKNSt3_V214error_categoryE
	.type	_ZNSt15error_conditionC2EiRKNSt3_V214error_categoryE, %function
_ZNSt15error_conditionC2EiRKNSt3_V214error_categoryE:
.LFB2421:
	.cfi_startproc
	sub	sp, sp, #32
	.cfi_def_cfa_offset 32
	str	x0, [sp, 24]
	str	w1, [sp, 20]
	str	x2, [sp, 8]
	ldr	x0, [sp, 24]
	ldr	w1, [sp, 20]
	str	w1, [x0]
	ldr	x0, [sp, 24]
	ldr	x1, [sp, 8]
	str	x1, [x0, 8]
	nop
	add	sp, sp, 32
	.cfi_def_cfa_offset 0
	ret
	.cfi_endproc
.LFE2421:
	.size	_ZNSt15error_conditionC2EiRKNSt3_V214error_categoryE, .-_ZNSt15error_conditionC2EiRKNSt3_V214error_categoryE
	.weak	_ZNSt15error_conditionC1EiRKNSt3_V214error_categoryE
	.set	_ZNSt15error_conditionC1EiRKNSt3_V214error_categoryE,_ZNSt15error_conditionC2EiRKNSt3_V214error_categoryE
	.section	.text._ZNKSt15error_condition5valueEv,"axG",@progbits,_ZNKSt15error_condition5valueEv,comdat
	.align	2
	.weak	_ZNKSt15error_condition5valueEv
	.type	_ZNKSt15error_condition5valueEv, %function
_ZNKSt15error_condition5valueEv:
.LFB2427:
	.cfi_startproc
	sub	sp, sp, #16
	.cfi_def_cfa_offset 16
	str	x0, [sp, 8]
	ldr	x0, [sp, 8]
	ldr	w0, [x0]
	add	sp, sp, 16
	.cfi_def_cfa_offset 0
	ret
	.cfi_endproc
.LFE2427:
	.size	_ZNKSt15error_condition5valueEv, .-_ZNKSt15error_condition5valueEv
	.section	.text._ZNKSt15error_condition8categoryEv,"axG",@progbits,_ZNKSt15error_condition8categoryEv,comdat
	.align	2
	.weak	_ZNKSt15error_condition8categoryEv
	.type	_ZNKSt15error_condition8categoryEv, %function
_ZNKSt15error_condition8categoryEv:
.LFB2428:
	.cfi_startproc
	sub	sp, sp, #16
	.cfi_def_cfa_offset 16
	str	x0, [sp, 8]
	ldr	x0, [sp, 8]
	ldr	x0, [x0, 8]
	add	sp, sp, 16
	.cfi_def_cfa_offset 0
	ret
	.cfi_endproc
.LFE2428:
	.size	_ZNKSt15error_condition8categoryEv, .-_ZNKSt15error_condition8categoryEv
	.section	.text._ZSteqRKSt15error_conditionS1_,"axG",@progbits,_ZSteqRKSt15error_conditionS1_,comdat
	.align	2
	.weak	_ZSteqRKSt15error_conditionS1_
	.type	_ZSteqRKSt15error_conditionS1_, %function
_ZSteqRKSt15error_conditionS1_:
.LFB2434:
	.cfi_startproc
	stp	x29, x30, [sp, -48]!
	.cfi_def_cfa_offset 48
	.cfi_offset 29, -48
	.cfi_offset 30, -40
	mov	x29, sp
	str	x19, [sp, 16]
	.cfi_offset 19, -32
	str	x0, [sp, 40]
	str	x1, [sp, 32]
	ldr	x0, [sp, 40]
	bl	_ZNKSt15error_condition8categoryEv
	mov	x19, x0
	ldr	x0, [sp, 32]
	bl	_ZNKSt15error_condition8categoryEv
	mov	x1, x0
	mov	x0, x19
	bl	_ZNKSt3_V214error_categoryeqERKS0_
	and	w0, w0, 255
	cmp	w0, 0
	beq	.L52
	ldr	x0, [sp, 40]
	bl	_ZNKSt15error_condition5valueEv
	mov	w19, w0
	ldr	x0, [sp, 32]
	bl	_ZNKSt15error_condition5valueEv
	cmp	w19, w0
	bne	.L52
	mov	w0, 1
	b	.L53
.L52:
	mov	w0, 0
.L53:
	ldr	x19, [sp, 16]
	ldp	x29, x30, [sp], 48
	.cfi_restore 30
	.cfi_restore 29
	.cfi_restore 19
	.cfi_def_cfa_offset 0
	ret
	.cfi_endproc
.LFE2434:
	.size	_ZSteqRKSt15error_conditionS1_, .-_ZSteqRKSt15error_conditionS1_
	.section	.text._ZSt3minImERKT_S2_S2_,"axG",@progbits,_ZSt3minImERKT_S2_S2_,comdat
	.align	2
	.weak	_ZSt3minImERKT_S2_S2_
	.type	_ZSt3minImERKT_S2_S2_, %function
_ZSt3minImERKT_S2_S2_:
.LFB2911:
	.cfi_startproc
	sub	sp, sp, #16
	.cfi_def_cfa_offset 16
	str	x0, [sp, 8]
	str	x1, [sp]
	ldr	x0, [sp]
	ldr	x1, [x0]
	ldr	x0, [sp, 8]
	ldr	x0, [x0]
	cmp	x1, x0
	bcs	.L56
	ldr	x0, [sp]
	b	.L57
.L56:
	ldr	x0, [sp, 8]
.L57:
	add	sp, sp, 16
	.cfi_def_cfa_offset 0
	ret
	.cfi_endproc
.LFE2911:
	.size	_ZSt3minImERKT_S2_S2_, .-_ZSt3minImERKT_S2_S2_
	.section	.text._ZNK5boost6system14error_categoryeqERKS1_,"axG",@progbits,_ZNK5boost6system14error_categoryeqERKS1_,comdat
	.align	2
	.weak	_ZNK5boost6system14error_categoryeqERKS1_
	.type	_ZNK5boost6system14error_categoryeqERKS1_, %function
_ZNK5boost6system14error_categoryeqERKS1_:
.LFB3918:
	.cfi_startproc
	sub	sp, sp, #16
	.cfi_def_cfa_offset 16
	str	x0, [sp, 8]
	str	x1, [sp]
	ldr	x0, [sp]
	ldr	x0, [x0, 8]
	cmp	x0, 0
	bne	.L59
	ldr	x1, [sp, 8]
	ldr	x0, [sp]
	cmp	x1, x0
	cset	w0, eq
	and	w0, w0, 255
	b	.L60
.L59:
	ldr	x0, [sp, 8]
	ldr	x1, [x0, 8]
	ldr	x0, [sp]
	ldr	x0, [x0, 8]
	cmp	x1, x0
	cset	w0, eq
	and	w0, w0, 255
.L60:
	add	sp, sp, 16
	.cfi_def_cfa_offset 0
	ret
	.cfi_endproc
.LFE3918:
	.size	_ZNK5boost6system14error_categoryeqERKS1_, .-_ZNK5boost6system14error_categoryeqERKS1_
	.section	.text._ZNK5boost6system14error_categoryltERKS1_,"axG",@progbits,_ZNK5boost6system14error_categoryltERKS1_,comdat
	.align	2
	.weak	_ZNK5boost6system14error_categoryltERKS1_
	.type	_ZNK5boost6system14error_categoryltERKS1_, %function
_ZNK5boost6system14error_categoryltERKS1_:
.LFB3920:
	.cfi_startproc
	stp	x29, x30, [sp, -48]!
	.cfi_def_cfa_offset 48
	.cfi_offset 29, -48
	.cfi_offset 30, -40
	mov	x29, sp
	str	x0, [sp, 24]
	str	x1, [sp, 16]
	adrp	x0, :got:__stack_chk_guard
	ldr	x0, [x0, #:got_lo12:__stack_chk_guard]
	ldr	x1, [x0]
	str	x1, [sp, 40]
	mov	x1, 0
	ldr	x0, [sp, 24]
	ldr	x1, [x0, 8]
	ldr	x0, [sp, 16]
	ldr	x0, [x0, 8]
	cmp	x1, x0
	bcs	.L63
	mov	w0, 1
	b	.L64
.L63:
	ldr	x0, [sp, 24]
	ldr	x1, [x0, 8]
	ldr	x0, [sp, 16]
	ldr	x0, [x0, 8]
	cmp	x1, x0
	bls	.L65
	mov	w0, 0
	b	.L64
.L65:
	ldr	x0, [sp, 16]
	ldr	x0, [x0, 8]
	cmp	x0, 0
	beq	.L66
	mov	w0, 0
	b	.L64
.L66:
	add	x0, sp, 32
	ldr	x2, [sp, 16]
	ldr	x1, [sp, 24]
	bl	_ZNKSt4lessIPKN5boost6system14error_categoryEEclES4_S4_
	and	w0, w0, 255
	nop
.L64:
	mov	w1, w0
	adrp	x0, :got:__stack_chk_guard
	ldr	x0, [x0, #:got_lo12:__stack_chk_guard]
	ldr	x3, [sp, 40]
	ldr	x2, [x0]
	subs	x3, x3, x2
	mov	x2, 0
	beq	.L67
	bl	__stack_chk_fail
.L67:
	mov	w0, w1
	ldp	x29, x30, [sp], 48
	.cfi_restore 30
	.cfi_restore 29
	.cfi_def_cfa_offset 0
	ret
	.cfi_endproc
.LFE3920:
	.size	_ZNK5boost6system14error_categoryltERKS1_, .-_ZNK5boost6system14error_categoryltERKS1_
	.section	.rodata
	.align	3
.LC0:
	.string	"generic"
	.section	.text._ZNK5boost6system6detail22generic_error_category4nameEv,"axG",@progbits,_ZNK5boost6system6detail22generic_error_category4nameEv,comdat
	.align	2
	.weak	_ZNK5boost6system6detail22generic_error_category4nameEv
	.type	_ZNK5boost6system6detail22generic_error_category4nameEv, %function
_ZNK5boost6system6detail22generic_error_category4nameEv:
.LFB3924:
	.cfi_startproc
	sub	sp, sp, #16
	.cfi_def_cfa_offset 16
	str	x0, [sp, 8]
	adrp	x0, .LC0
	add	x0, x0, :lo12:.LC0
	add	sp, sp, 16
	.cfi_def_cfa_offset 0
	ret
	.cfi_endproc
.LFE3924:
	.size	_ZNK5boost6system6detail22generic_error_category4nameEv, .-_ZNK5boost6system6detail22generic_error_category4nameEv
	.section	.rodata
	.align	3
.LC1:
	.string	"system"
	.section	.text._ZNK5boost6system6detail21system_error_category4nameEv,"axG",@progbits,_ZNK5boost6system6detail21system_error_category4nameEv,comdat
	.align	2
	.weak	_ZNK5boost6system6detail21system_error_category4nameEv
	.type	_ZNK5boost6system6detail21system_error_category4nameEv, %function
_ZNK5boost6system6detail21system_error_category4nameEv:
.LFB3928:
	.cfi_startproc
	sub	sp, sp, #16
	.cfi_def_cfa_offset 16
	str	x0, [sp, 8]
	adrp	x0, .LC1
	add	x0, x0, :lo12:.LC1
	add	sp, sp, 16
	.cfi_def_cfa_offset 0
	ret
	.cfi_endproc
.LFE3928:
	.size	_ZNK5boost6system6detail21system_error_category4nameEv, .-_ZNK5boost6system6detail21system_error_category4nameEv
	.weak	_ZN5boost6system6detail10cat_holderIvE24system_category_instanceE
	.section	.data.rel.ro.local._ZN5boost6system6detail10cat_holderIvE24system_category_instanceE,"awG",@progbits,_ZN5boost6system6detail10cat_holderIvE24system_category_instanceE,comdat
	.align	3
	.type	_ZN5boost6system6detail10cat_holderIvE24system_category_instanceE, %gnu_unique_object
	.size	_ZN5boost6system6detail10cat_holderIvE24system_category_instanceE, 16
_ZN5boost6system6detail10cat_holderIvE24system_category_instanceE:
	.xword	_ZTVN5boost6system6detail21system_error_categoryE+16
	.xword	-8093018978436915045
	.weak	_ZN5boost6system6detail10cat_holderIvE25generic_category_instanceE
	.section	.data.rel.ro.local._ZN5boost6system6detail10cat_holderIvE25generic_category_instanceE,"awG",@progbits,_ZN5boost6system6detail10cat_holderIvE25generic_category_instanceE,comdat
	.align	3
	.type	_ZN5boost6system6detail10cat_holderIvE25generic_category_instanceE, %gnu_unique_object
	.size	_ZN5boost6system6detail10cat_holderIvE25generic_category_instanceE, 16
_ZN5boost6system6detail10cat_holderIvE25generic_category_instanceE:
	.xword	_ZTVN5boost6system6detail22generic_error_categoryE+16
	.xword	-5572340897628102899
	.section	.text._ZN5boost6system15system_categoryEv,"axG",@progbits,_ZN5boost6system15system_categoryEv,comdat
	.align	2
	.weak	_ZN5boost6system15system_categoryEv
	.type	_ZN5boost6system15system_categoryEv, %function
_ZN5boost6system15system_categoryEv:
.LFB3929:
	.cfi_startproc
	adrp	x0, _ZN5boost6system6detail10cat_holderIvE24system_category_instanceE
	add	x0, x0, :lo12:_ZN5boost6system6detail10cat_holderIvE24system_category_instanceE
	ret
	.cfi_endproc
.LFE3929:
	.size	_ZN5boost6system15system_categoryEv, .-_ZN5boost6system15system_categoryEv
	.section	.text._ZN5boost6system16generic_categoryEv,"axG",@progbits,_ZN5boost6system16generic_categoryEv,comdat
	.align	2
	.weak	_ZN5boost6system16generic_categoryEv
	.type	_ZN5boost6system16generic_categoryEv, %function
_ZN5boost6system16generic_categoryEv:
.LFB3930:
	.cfi_startproc
	adrp	x0, _ZN5boost6system6detail10cat_holderIvE25generic_category_instanceE
	add	x0, x0, :lo12:_ZN5boost6system6detail10cat_holderIvE25generic_category_instanceE
	ret
	.cfi_endproc
.LFE3930:
	.size	_ZN5boost6system16generic_categoryEv, .-_ZN5boost6system16generic_categoryEv
	.section	.text._ZN5boost6system6detail11failed_implEiRKNS0_14error_categoryE,"axG",@progbits,_ZN5boost6system6detail11failed_implEiRKNS0_14error_categoryE,comdat
	.align	2
	.weak	_ZN5boost6system6detail11failed_implEiRKNS0_14error_categoryE
	.type	_ZN5boost6system6detail11failed_implEiRKNS0_14error_categoryE, %function
_ZN5boost6system6detail11failed_implEiRKNS0_14error_categoryE:
.LFB3931:
	.cfi_startproc
	stp	x29, x30, [sp, -32]!
	.cfi_def_cfa_offset 32
	.cfi_offset 29, -32
	.cfi_offset 30, -24
	mov	x29, sp
	str	w0, [sp, 28]
	str	x1, [sp, 16]
	bl	_ZN5boost6system15system_categoryEv
	mov	x1, x0
	ldr	x0, [sp, 16]
	bl	_ZNK5boost6system14error_categoryeqERKS1_
	and	w0, w0, 255
	cmp	w0, 0
	bne	.L77
	bl	_ZN5boost6system16generic_categoryEv
	mov	x1, x0
	ldr	x0, [sp, 16]
	bl	_ZNK5boost6system14error_categoryeqERKS1_
	and	w0, w0, 255
	cmp	w0, 0
	beq	.L78
.L77:
	mov	w0, 1
	b	.L79
.L78:
	mov	w0, 0
.L79:
	cmp	w0, 0
	beq	.L80
	ldr	w0, [sp, 28]
	cmp	w0, 0
	cset	w0, ne
	and	w0, w0, 255
	b	.L81
.L80:
	ldr	x0, [sp, 16]
	ldr	x0, [x0]
	add	x0, x0, 48
	ldr	x2, [x0]
	ldr	w1, [sp, 28]
	ldr	x0, [sp, 16]
	blr	x2
	and	w0, w0, 255
	nop
.L81:
	ldp	x29, x30, [sp], 32
	.cfi_restore 30
	.cfi_restore 29
	.cfi_def_cfa_offset 0
	ret
	.cfi_endproc
.LFE3931:
	.size	_ZN5boost6system6detail11failed_implEiRKNS0_14error_categoryE, .-_ZN5boost6system6detail11failed_implEiRKNS0_14error_categoryE
	.section	.text._ZN5boost6system15error_conditionC2EiRKNS0_14error_categoryE,"axG",@progbits,_ZN5boost6system15error_conditionC5EiRKNS0_14error_categoryE,comdat
	.align	2
	.weak	_ZN5boost6system15error_conditionC2EiRKNS0_14error_categoryE
	.type	_ZN5boost6system15error_conditionC2EiRKNS0_14error_categoryE, %function
_ZN5boost6system15error_conditionC2EiRKNS0_14error_categoryE:
.LFB3936:
	.cfi_startproc
	stp	x29, x30, [sp, -48]!
	.cfi_def_cfa_offset 48
	.cfi_offset 29, -48
	.cfi_offset 30, -40
	mov	x29, sp
	str	x0, [sp, 40]
	str	w1, [sp, 36]
	str	x2, [sp, 24]
	ldr	x0, [sp, 40]
	ldr	w1, [sp, 36]
	str	w1, [x0]
	ldr	x1, [sp, 24]
	ldr	w0, [sp, 36]
	bl	_ZN5boost6system6detail11failed_implEiRKNS0_14error_categoryE
	and	w1, w0, 255
	ldr	x0, [sp, 40]
	strb	w1, [x0, 4]
	ldr	x0, [sp, 40]
	ldr	x1, [sp, 24]
	str	x1, [x0, 8]
	nop
	ldp	x29, x30, [sp], 48
	.cfi_restore 30
	.cfi_restore 29
	.cfi_def_cfa_offset 0
	ret
	.cfi_endproc
.LFE3936:
	.size	_ZN5boost6system15error_conditionC2EiRKNS0_14error_categoryE, .-_ZN5boost6system15error_conditionC2EiRKNS0_14error_categoryE
	.weak	_ZN5boost6system15error_conditionC1EiRKNS0_14error_categoryE
	.set	_ZN5boost6system15error_conditionC1EiRKNS0_14error_categoryE,_ZN5boost6system15error_conditionC2EiRKNS0_14error_categoryE
	.section	.text._ZNK5boost6system15error_condition5valueEv,"axG",@progbits,_ZNK5boost6system15error_condition5valueEv,comdat
	.align	2
	.weak	_ZNK5boost6system15error_condition5valueEv
	.type	_ZNK5boost6system15error_condition5valueEv, %function
_ZNK5boost6system15error_condition5valueEv:
.LFB3942:
	.cfi_startproc
	sub	sp, sp, #16
	.cfi_def_cfa_offset 16
	str	x0, [sp, 8]
	ldr	x0, [sp, 8]
	ldr	w0, [x0]
	add	sp, sp, 16
	.cfi_def_cfa_offset 0
	ret
	.cfi_endproc
.LFE3942:
	.size	_ZNK5boost6system15error_condition5valueEv, .-_ZNK5boost6system15error_condition5valueEv
	.section	.text._ZNK5boost6system15error_condition8categoryEv,"axG",@progbits,_ZNK5boost6system15error_condition8categoryEv,comdat
	.align	2
	.weak	_ZNK5boost6system15error_condition8categoryEv
	.type	_ZNK5boost6system15error_condition8categoryEv, %function
_ZNK5boost6system15error_condition8categoryEv:
.LFB3943:
	.cfi_startproc
	sub	sp, sp, #16
	.cfi_def_cfa_offset 16
	str	x0, [sp, 8]
	ldr	x0, [sp, 8]
	ldr	x0, [x0, 8]
	add	sp, sp, 16
	.cfi_def_cfa_offset 0
	ret
	.cfi_endproc
.LFE3943:
	.size	_ZNK5boost6system15error_condition8categoryEv, .-_ZNK5boost6system15error_condition8categoryEv
	.section	.text._ZN5boost6systemeqERKNS0_15error_conditionES3_,"axG",@progbits,_ZN5boost6systemeqERKNS0_15error_conditionES3_,comdat
	.align	2
	.weak	_ZN5boost6systemeqERKNS0_15error_conditionES3_
	.type	_ZN5boost6systemeqERKNS0_15error_conditionES3_, %function
_ZN5boost6systemeqERKNS0_15error_conditionES3_:
.LFB3948:
	.cfi_startproc
	stp	x29, x30, [sp, -32]!
	.cfi_def_cfa_offset 32
	.cfi_offset 29, -32
	.cfi_offset 30, -24
	mov	x29, sp
	str	x0, [sp, 24]
	str	x1, [sp, 16]
	ldr	x0, [sp, 24]
	ldr	w1, [x0]
	ldr	x0, [sp, 16]
	ldr	w0, [x0]
	cmp	w1, w0
	bne	.L88
	ldr	x0, [sp, 24]
	ldr	x2, [x0, 8]
	ldr	x0, [sp, 16]
	ldr	x0, [x0, 8]
	mov	x1, x0
	mov	x0, x2
	bl	_ZNK5boost6system14error_categoryeqERKS1_
	and	w0, w0, 255
	cmp	w0, 0
	beq	.L88
	mov	w0, 1
	b	.L89
.L88:
	mov	w0, 0
.L89:
	ldp	x29, x30, [sp], 32
	.cfi_restore 30
	.cfi_restore 29
	.cfi_def_cfa_offset 0
	ret
	.cfi_endproc
.LFE3948:
	.size	_ZN5boost6systemeqERKNS0_15error_conditionES3_, .-_ZN5boost6systemeqERKNS0_15error_conditionES3_
	.section	.text._ZNK5boost6system15error_conditioncvSt15error_conditionEv,"axG",@progbits,_ZNK5boost6system15error_conditioncvSt15error_conditionEv,comdat
	.align	2
	.weak	_ZNK5boost6system15error_conditioncvSt15error_conditionEv
	.type	_ZNK5boost6system15error_conditioncvSt15error_conditionEv, %function
_ZNK5boost6system15error_conditioncvSt15error_conditionEv:
.LFB3950:
	.cfi_startproc
	stp	x29, x30, [sp, -80]!
	.cfi_def_cfa_offset 80
	.cfi_offset 29, -80
	.cfi_offset 30, -72
	mov	x29, sp
	str	x19, [sp, 16]
	.cfi_offset 19, -64
	str	x0, [sp, 40]
	adrp	x0, :got:__stack_chk_guard
	ldr	x0, [x0, #:got_lo12:__stack_chk_guard]
	ldr	x1, [x0]
	str	x1, [sp, 72]
	mov	x1, 0
	ldr	x0, [sp, 40]
	bl	_ZNK5boost6system15error_condition5valueEv
	mov	w19, w0
	ldr	x0, [sp, 40]
	bl	_ZNK5boost6system15error_condition8categoryEv
	bl	_ZNK5boost6system14error_categorycvRKNSt3_V214error_categoryEEv
	mov	x1, x0
	add	x0, sp, 56
	mov	x2, x1
	mov	w1, w19
	bl	_ZNSt15error_conditionC1EiRKNSt3_V214error_categoryE
	ldp	x0, x1, [sp, 56]
	mov	x2, x0
	mov	x3, x1
	adrp	x0, :got:__stack_chk_guard
	ldr	x0, [x0, #:got_lo12:__stack_chk_guard]
	ldr	x4, [sp, 72]
	ldr	x1, [x0]
	subs	x4, x4, x1
	mov	x1, 0
	beq	.L93
	bl	__stack_chk_fail
.L93:
	mov	x0, x2
	mov	x1, x3
	ldr	x19, [sp, 16]
	ldp	x29, x30, [sp], 80
	.cfi_restore 30
	.cfi_restore 29
	.cfi_restore 19
	.cfi_def_cfa_offset 0
	ret
	.cfi_endproc
.LFE3950:
	.size	_ZNK5boost6system15error_conditioncvSt15error_conditionEv, .-_ZNK5boost6system15error_conditioncvSt15error_conditionEv
	.section	.text._ZN5boost6system10error_codeC2Ev,"axG",@progbits,_ZN5boost6system10error_codeC5Ev,comdat
	.align	2
	.weak	_ZN5boost6system10error_codeC2Ev
	.type	_ZN5boost6system10error_codeC2Ev, %function
_ZN5boost6system10error_codeC2Ev:
.LFB3952:
	.cfi_startproc
	stp	x29, x30, [sp, -32]!
	.cfi_def_cfa_offset 32
	.cfi_offset 29, -32
	.cfi_offset 30, -24
	mov	x29, sp
	str	x0, [sp, 24]
	ldr	x0, [sp, 24]
	str	wzr, [x0]
	ldr	x0, [sp, 24]
	strb	wzr, [x0, 4]
	bl	_ZN5boost6system15system_categoryEv
	mov	x1, x0
	ldr	x0, [sp, 24]
	str	x1, [x0, 8]
	nop
	ldp	x29, x30, [sp], 32
	.cfi_restore 30
	.cfi_restore 29
	.cfi_def_cfa_offset 0
	ret
	.cfi_endproc
.LFE3952:
	.size	_ZN5boost6system10error_codeC2Ev, .-_ZN5boost6system10error_codeC2Ev
	.weak	_ZN5boost6system10error_codeC1Ev
	.set	_ZN5boost6system10error_codeC1Ev,_ZN5boost6system10error_codeC2Ev
	.section	.text._ZN5boost6system10error_codeC2EiRKNS0_14error_categoryE,"axG",@progbits,_ZN5boost6system10error_codeC5EiRKNS0_14error_categoryE,comdat
	.align	2
	.weak	_ZN5boost6system10error_codeC2EiRKNS0_14error_categoryE
	.type	_ZN5boost6system10error_codeC2EiRKNS0_14error_categoryE, %function
_ZN5boost6system10error_codeC2EiRKNS0_14error_categoryE:
.LFB3955:
	.cfi_startproc
	stp	x29, x30, [sp, -48]!
	.cfi_def_cfa_offset 48
	.cfi_offset 29, -48
	.cfi_offset 30, -40
	mov	x29, sp
	str	x0, [sp, 40]
	str	w1, [sp, 36]
	str	x2, [sp, 24]
	ldr	x0, [sp, 40]
	ldr	w1, [sp, 36]
	str	w1, [x0]
	ldr	x1, [sp, 24]
	ldr	w0, [sp, 36]
	bl	_ZN5boost6system6detail11failed_implEiRKNS0_14error_categoryE
	and	w1, w0, 255
	ldr	x0, [sp, 40]
	strb	w1, [x0, 4]
	ldr	x0, [sp, 40]
	ldr	x1, [sp, 24]
	str	x1, [x0, 8]
	nop
	ldp	x29, x30, [sp], 48
	.cfi_restore 30
	.cfi_restore 29
	.cfi_def_cfa_offset 0
	ret
	.cfi_endproc
.LFE3955:
	.size	_ZN5boost6system10error_codeC2EiRKNS0_14error_categoryE, .-_ZN5boost6system10error_codeC2EiRKNS0_14error_categoryE
	.weak	_ZN5boost6system10error_codeC1EiRKNS0_14error_categoryE
	.set	_ZN5boost6system10error_codeC1EiRKNS0_14error_categoryE,_ZN5boost6system10error_codeC2EiRKNS0_14error_categoryE
	.section	.text._ZN5boost6system10error_code6assignEiRKNS0_14error_categoryE,"axG",@progbits,_ZN5boost6system10error_code6assignEiRKNS0_14error_categoryE,comdat
	.align	2
	.weak	_ZN5boost6system10error_code6assignEiRKNS0_14error_categoryE
	.type	_ZN5boost6system10error_code6assignEiRKNS0_14error_categoryE, %function
_ZN5boost6system10error_code6assignEiRKNS0_14error_categoryE:
.LFB3958:
	.cfi_startproc
	stp	x29, x30, [sp, -48]!
	.cfi_def_cfa_offset 48
	.cfi_offset 29, -48
	.cfi_offset 30, -40
	mov	x29, sp
	str	x0, [sp, 40]
	str	w1, [sp, 36]
	str	x2, [sp, 24]
	ldr	x0, [sp, 40]
	ldr	w1, [sp, 36]
	str	w1, [x0]
	ldr	x1, [sp, 24]
	ldr	w0, [sp, 36]
	bl	_ZN5boost6system6detail11failed_implEiRKNS0_14error_categoryE
	and	w1, w0, 255
	ldr	x0, [sp, 40]
	strb	w1, [x0, 4]
	ldr	x0, [sp, 40]
	ldr	x1, [sp, 24]
	str	x1, [x0, 8]
	nop
	ldp	x29, x30, [sp], 48
	.cfi_restore 30
	.cfi_restore 29
	.cfi_def_cfa_offset 0
	ret
	.cfi_endproc
.LFE3958:
	.size	_ZN5boost6system10error_code6assignEiRKNS0_14error_categoryE, .-_ZN5boost6system10error_code6assignEiRKNS0_14error_categoryE
	.section	.text._ZNK5boost6system10error_code5valueEv,"axG",@progbits,_ZNK5boost6system10error_code5valueEv,comdat
	.align	2
	.weak	_ZNK5boost6system10error_code5valueEv
	.type	_ZNK5boost6system10error_code5valueEv, %function
_ZNK5boost6system10error_code5valueEv:
.LFB3961:
	.cfi_startproc
	sub	sp, sp, #16
	.cfi_def_cfa_offset 16
	str	x0, [sp, 8]
	ldr	x0, [sp, 8]
	ldr	w0, [x0]
	add	sp, sp, 16
	.cfi_def_cfa_offset 0
	ret
	.cfi_endproc
.LFE3961:
	.size	_ZNK5boost6system10error_code5valueEv, .-_ZNK5boost6system10error_code5valueEv
	.section	.text._ZNK5boost6system10error_code8categoryEv,"axG",@progbits,_ZNK5boost6system10error_code8categoryEv,comdat
	.align	2
	.weak	_ZNK5boost6system10error_code8categoryEv
	.type	_ZNK5boost6system10error_code8categoryEv, %function
_ZNK5boost6system10error_code8categoryEv:
.LFB3962:
	.cfi_startproc
	sub	sp, sp, #16
	.cfi_def_cfa_offset 16
	str	x0, [sp, 8]
	ldr	x0, [sp, 8]
	ldr	x0, [x0, 8]
	add	sp, sp, 16
	.cfi_def_cfa_offset 0
	ret
	.cfi_endproc
.LFE3962:
	.size	_ZNK5boost6system10error_code8categoryEv, .-_ZNK5boost6system10error_code8categoryEv
	.section	.text._ZNK5boost6system10error_code7messageB5cxx11Ev,"axG",@progbits,_ZNK5boost6system10error_code7messageB5cxx11Ev,comdat
	.align	2
	.weak	_ZNK5boost6system10error_code7messageB5cxx11Ev
	.type	_ZNK5boost6system10error_code7messageB5cxx11Ev, %function
_ZNK5boost6system10error_code7messageB5cxx11Ev:
.LFB3964:
	.cfi_startproc
	stp	x29, x30, [sp, -80]!
	.cfi_def_cfa_offset 80
	.cfi_offset 29, -80
	.cfi_offset 30, -72
	mov	x29, sp
	stp	x19, x20, [sp, 16]
	str	x21, [sp, 32]
	.cfi_offset 19, -64
	.cfi_offset 20, -56
	.cfi_offset 21, -48
	mov	x19, x8
	str	x0, [sp, 56]
	adrp	x0, :got:__stack_chk_guard
	ldr	x0, [x0, #:got_lo12:__stack_chk_guard]
	ldr	x1, [x0]
	str	x1, [sp, 72]
	mov	x1, 0
	ldr	x0, [sp, 56]
	ldr	x0, [x0, 8]
	ldr	x0, [x0]
	add	x0, x0, 32
	ldr	x20, [x0]
	ldr	x0, [sp, 56]
	ldr	x21, [x0, 8]
	ldr	x0, [sp, 56]
	bl	_ZNK5boost6system10error_code5valueEv
	mov	x8, x19
	mov	w1, w0
	mov	x0, x21
	blr	x20
	adrp	x0, :got:__stack_chk_guard
	ldr	x0, [x0, #:got_lo12:__stack_chk_guard]
	ldr	x2, [sp, 72]
	ldr	x1, [x0]
	subs	x2, x2, x1
	mov	x1, 0
	beq	.L103
	bl	__stack_chk_fail
.L103:
	mov	x0, x19
	ldp	x19, x20, [sp, 16]
	ldr	x21, [sp, 32]
	ldp	x29, x30, [sp], 80
	.cfi_restore 30
	.cfi_restore 29
	.cfi_restore 21
	.cfi_restore 19
	.cfi_restore 20
	.cfi_def_cfa_offset 0
	ret
	.cfi_endproc
.LFE3964:
	.size	_ZNK5boost6system10error_code7messageB5cxx11Ev, .-_ZNK5boost6system10error_code7messageB5cxx11Ev
	.section	.text._ZNK5boost6system10error_codecvbEv,"axG",@progbits,_ZNK5boost6system10error_codecvbEv,comdat
	.align	2
	.weak	_ZNK5boost6system10error_codecvbEv
	.type	_ZNK5boost6system10error_codecvbEv, %function
_ZNK5boost6system10error_codecvbEv:
.LFB3967:
	.cfi_startproc
	sub	sp, sp, #16
	.cfi_def_cfa_offset 16
	str	x0, [sp, 8]
	ldr	x0, [sp, 8]
	ldrb	w0, [x0, 4]
	add	sp, sp, 16
	.cfi_def_cfa_offset 0
	ret
	.cfi_endproc
.LFE3967:
	.size	_ZNK5boost6system10error_codecvbEv, .-_ZNK5boost6system10error_codecvbEv
	.section	.text._ZNK5boost6system14error_category23default_error_conditionEi,"axG",@progbits,_ZNK5boost6system14error_category23default_error_conditionEi,comdat
	.align	2
	.weak	_ZNK5boost6system14error_category23default_error_conditionEi
	.type	_ZNK5boost6system14error_category23default_error_conditionEi, %function
_ZNK5boost6system14error_category23default_error_conditionEi:
.LFB3983:
	.cfi_startproc
	stp	x29, x30, [sp, -64]!
	.cfi_def_cfa_offset 64
	.cfi_offset 29, -64
	.cfi_offset 30, -56
	mov	x29, sp
	str	x0, [sp, 24]
	str	w1, [sp, 20]
	adrp	x0, :got:__stack_chk_guard
	ldr	x0, [x0, #:got_lo12:__stack_chk_guard]
	ldr	x1, [x0]
	str	x1, [sp, 56]
	mov	x1, 0
	add	x0, sp, 40
	ldr	x2, [sp, 24]
	ldr	w1, [sp, 20]
	bl	_ZN5boost6system15error_conditionC1EiRKNS0_14error_categoryE
	ldp	x0, x1, [sp, 40]
	mov	x2, x0
	mov	x3, x1
	adrp	x0, :got:__stack_chk_guard
	ldr	x0, [x0, #:got_lo12:__stack_chk_guard]
	ldr	x4, [sp, 56]
	ldr	x1, [x0]
	subs	x4, x4, x1
	mov	x1, 0
	beq	.L108
	bl	__stack_chk_fail
.L108:
	mov	x0, x2
	mov	x1, x3
	ldp	x29, x30, [sp], 64
	.cfi_restore 30
	.cfi_restore 29
	.cfi_def_cfa_offset 0
	ret
	.cfi_endproc
.LFE3983:
	.size	_ZNK5boost6system14error_category23default_error_conditionEi, .-_ZNK5boost6system14error_category23default_error_conditionEi
	.section	.text._ZNK5boost6system14error_category10equivalentEiRKNS0_15error_conditionE,"axG",@progbits,_ZNK5boost6system14error_category10equivalentEiRKNS0_15error_conditionE,comdat
	.align	2
	.weak	_ZNK5boost6system14error_category10equivalentEiRKNS0_15error_conditionE
	.type	_ZNK5boost6system14error_category10equivalentEiRKNS0_15error_conditionE, %function
_ZNK5boost6system14error_category10equivalentEiRKNS0_15error_conditionE:
.LFB3984:
	.cfi_startproc
	stp	x29, x30, [sp, -80]!
	.cfi_def_cfa_offset 80
	.cfi_offset 29, -80
	.cfi_offset 30, -72
	mov	x29, sp
	str	x0, [sp, 40]
	str	w1, [sp, 36]
	str	x2, [sp, 24]
	adrp	x0, :got:__stack_chk_guard
	ldr	x0, [x0, #:got_lo12:__stack_chk_guard]
	ldr	x1, [x0]
	str	x1, [sp, 72]
	mov	x1, 0
	ldr	x0, [sp, 40]
	ldr	x0, [x0]
	add	x0, x0, 8
	ldr	x2, [x0]
	ldr	w1, [sp, 36]
	ldr	x0, [sp, 40]
	blr	x2
	stp	x0, x1, [sp, 56]
	add	x0, sp, 56
	ldr	x1, [sp, 24]
	bl	_ZN5boost6systemeqERKNS0_15error_conditionES3_
	and	w0, w0, 255
	mov	w1, w0
	adrp	x0, :got:__stack_chk_guard
	ldr	x0, [x0, #:got_lo12:__stack_chk_guard]
	ldr	x3, [sp, 72]
	ldr	x2, [x0]
	subs	x3, x3, x2
	mov	x2, 0
	beq	.L111
	bl	__stack_chk_fail
.L111:
	mov	w0, w1
	ldp	x29, x30, [sp], 80
	.cfi_restore 30
	.cfi_restore 29
	.cfi_def_cfa_offset 0
	ret
	.cfi_endproc
.LFE3984:
	.size	_ZNK5boost6system14error_category10equivalentEiRKNS0_15error_conditionE, .-_ZNK5boost6system14error_category10equivalentEiRKNS0_15error_conditionE
	.section	.text._ZNK5boost6system14error_category10equivalentERKNS0_10error_codeEi,"axG",@progbits,_ZNK5boost6system14error_category10equivalentERKNS0_10error_codeEi,comdat
	.align	2
	.weak	_ZNK5boost6system14error_category10equivalentERKNS0_10error_codeEi
	.type	_ZNK5boost6system14error_category10equivalentERKNS0_10error_codeEi, %function
_ZNK5boost6system14error_category10equivalentERKNS0_10error_codeEi:
.LFB3985:
	.cfi_startproc
	stp	x29, x30, [sp, -48]!
	.cfi_def_cfa_offset 48
	.cfi_offset 29, -48
	.cfi_offset 30, -40
	mov	x29, sp
	str	x0, [sp, 40]
	str	x1, [sp, 32]
	str	w2, [sp, 28]
	ldr	x0, [sp, 32]
	bl	_ZNK5boost6system10error_code8categoryEv
	mov	x1, x0
	ldr	x0, [sp, 40]
	bl	_ZNK5boost6system14error_categoryeqERKS1_
	and	w0, w0, 255
	cmp	w0, 0
	beq	.L113
	ldr	x0, [sp, 32]
	bl	_ZNK5boost6system10error_code5valueEv
	mov	w1, w0
	ldr	w0, [sp, 28]
	cmp	w0, w1
	bne	.L113
	mov	w0, 1
	b	.L114
.L113:
	mov	w0, 0
.L114:
	ldp	x29, x30, [sp], 48
	.cfi_restore 30
	.cfi_restore 29
	.cfi_def_cfa_offset 0
	ret
	.cfi_endproc
.LFE3985:
	.size	_ZNK5boost6system14error_category10equivalentERKNS0_10error_codeEi, .-_ZNK5boost6system14error_category10equivalentERKNS0_10error_codeEi
	.section	.rodata
	.align	3
.LC2:
	.string	"Message text unavailable"
	.section	.text._ZNK5boost6system14error_category7messageEiPcm,"axG",@progbits,_ZNK5boost6system14error_category7messageEiPcm,comdat
	.align	2
	.weak	_ZNK5boost6system14error_category7messageEiPcm
	.type	_ZNK5boost6system14error_category7messageEiPcm, %function
_ZNK5boost6system14error_category7messageEiPcm:
.LFB3986:
	.cfi_startproc
	.cfi_personality 0x9b,DW.ref.__gxx_personality_v0
	.cfi_lsda 0x1b,.LLSDA3986
	stp	x29, x30, [sp, -112]!
	.cfi_def_cfa_offset 112
	.cfi_offset 29, -112
	.cfi_offset 30, -104
	mov	x29, sp
	str	x19, [sp, 16]
	.cfi_offset 19, -96
	str	x0, [sp, 56]
	str	w1, [sp, 52]
	str	x2, [sp, 40]
	str	x3, [sp, 32]
	adrp	x0, :got:__stack_chk_guard
	ldr	x0, [x0, #:got_lo12:__stack_chk_guard]
	ldr	x1, [x0]
	str	x1, [sp, 104]
	mov	x1, 0
	ldr	x0, [sp, 32]
	cmp	x0, 0
	bne	.L117
	ldr	x19, [sp, 40]
	b	.L118
.L117:
	ldr	x0, [sp, 32]
	cmp	x0, 1
	bne	.L119
	ldr	x0, [sp, 40]
	strb	wzr, [x0]
	ldr	x19, [sp, 40]
	b	.L118
.L119:
	ldr	x0, [sp, 56]
	ldr	x0, [x0]
	add	x0, x0, 32
	ldr	x2, [x0]
	add	x0, sp, 72
	mov	x8, x0
	ldr	w1, [sp, 52]
	ldr	x0, [sp, 56]
.LEHB0:
	blr	x2
.LEHE0:
	add	x0, sp, 72
	bl	_ZNKSt7__cxx1112basic_stringIcSt11char_traitsIcESaIcEE5c_strEv
	mov	x1, x0
	ldr	x0, [sp, 32]
	sub	x0, x0, #1
	mov	x2, x0
	ldr	x0, [sp, 40]
	bl	strncpy
	ldr	x0, [sp, 32]
	sub	x0, x0, #1
	ldr	x1, [sp, 40]
	add	x0, x1, x0
	strb	wzr, [x0]
	ldr	x19, [sp, 40]
	add	x0, sp, 72
	bl	_ZNSt7__cxx1112basic_stringIcSt11char_traitsIcESaIcEED1Ev
.L118:
	mov	x1, x19
	adrp	x0, :got:__stack_chk_guard
	ldr	x0, [x0, #:got_lo12:__stack_chk_guard]
	ldr	x3, [sp, 104]
	ldr	x2, [x0]
	subs	x3, x3, x2
	mov	x2, 0
	beq	.L121
	b	.L123
.L122:
	bl	__cxa_begin_catch
	adrp	x0, .LC2
	add	x19, x0, :lo12:.LC2
	bl	__cxa_end_catch
	b	.L118
.L123:
	bl	__stack_chk_fail
.L121:
	mov	x0, x1
	ldr	x19, [sp, 16]
	ldp	x29, x30, [sp], 112
	.cfi_restore 30
	.cfi_restore 29
	.cfi_restore 19
	.cfi_def_cfa_offset 0
	ret
	.cfi_endproc
.LFE3986:
	.global	__gxx_personality_v0
	.section	.gcc_except_table._ZNK5boost6system14error_category7messageEiPcm,"aG",@progbits,_ZNK5boost6system14error_category7messageEiPcm,comdat
	.align	2
.LLSDA3986:
	.byte	0xff
	.byte	0x9b
	.uleb128 .LLSDATT3986-.LLSDATTD3986
.LLSDATTD3986:
	.byte	0x1
	.uleb128 .LLSDACSE3986-.LLSDACSB3986
.LLSDACSB3986:
	.uleb128 .LEHB0-.LFB3986
	.uleb128 .LEHE0-.LEHB0
	.uleb128 .L122-.LFB3986
	.uleb128 0x1
.LLSDACSE3986:
	.byte	0x1
	.byte	0
	.align	2
	.4byte	0

.LLSDATT3986:
	.section	.text._ZNK5boost6system14error_category7messageEiPcm,"axG",@progbits,_ZNK5boost6system14error_category7messageEiPcm,comdat
	.size	_ZNK5boost6system14error_category7messageEiPcm, .-_ZNK5boost6system14error_category7messageEiPcm
	.section	.text._ZNK5boost6system14error_category6failedEi,"axG",@progbits,_ZNK5boost6system14error_category6failedEi,comdat
	.align	2
	.weak	_ZNK5boost6system14error_category6failedEi
	.type	_ZNK5boost6system14error_category6failedEi, %function
_ZNK5boost6system14error_category6failedEi:
.LFB3987:
	.cfi_startproc
	sub	sp, sp, #16
	.cfi_def_cfa_offset 16
	str	x0, [sp, 8]
	str	w1, [sp, 4]
	ldr	w0, [sp, 4]
	cmp	w0, 0
	cset	w0, ne
	and	w0, w0, 255
	add	sp, sp, 16
	.cfi_def_cfa_offset 0
	ret
	.cfi_endproc
.LFE3987:
	.size	_ZNK5boost6system14error_category6failedEi, .-_ZNK5boost6system14error_category6failedEi
	.section	.text._ZN5boost6system6detail17strerror_r_helperEPKcS3_,"axG",@progbits,_ZN5boost6system6detail17strerror_r_helperEPKcS3_,comdat
	.align	2
	.weak	_ZN5boost6system6detail17strerror_r_helperEPKcS3_
	.type	_ZN5boost6system6detail17strerror_r_helperEPKcS3_, %function
_ZN5boost6system6detail17strerror_r_helperEPKcS3_:
.LFB3988:
	.cfi_startproc
	sub	sp, sp, #16
	.cfi_def_cfa_offset 16
	str	x0, [sp, 8]
	str	x1, [sp]
	ldr	x0, [sp, 8]
	add	sp, sp, 16
	.cfi_def_cfa_offset 0
	ret
	.cfi_endproc
.LFE3988:
	.size	_ZN5boost6system6detail17strerror_r_helperEPKcS3_, .-_ZN5boost6system6detail17strerror_r_helperEPKcS3_
	.section	.text._ZN5boost6system6detail30generic_error_category_messageEiPcm,"axG",@progbits,_ZN5boost6system6detail30generic_error_category_messageEiPcm,comdat
	.align	2
	.weak	_ZN5boost6system6detail30generic_error_category_messageEiPcm
	.type	_ZN5boost6system6detail30generic_error_category_messageEiPcm, %function
_ZN5boost6system6detail30generic_error_category_messageEiPcm:
.LFB3990:
	.cfi_startproc
	stp	x29, x30, [sp, -48]!
	.cfi_def_cfa_offset 48
	.cfi_offset 29, -48
	.cfi_offset 30, -40
	mov	x29, sp
	str	w0, [sp, 44]
	str	x1, [sp, 32]
	str	x2, [sp, 24]
	ldr	x2, [sp, 24]
	ldr	x1, [sp, 32]
	ldr	w0, [sp, 44]
	bl	strerror_r
	ldr	x1, [sp, 32]
	bl	_ZN5boost6system6detail17strerror_r_helperEPKcS3_
	ldp	x29, x30, [sp], 48
	.cfi_restore 30
	.cfi_restore 29
	.cfi_def_cfa_offset 0
	ret
	.cfi_endproc
.LFE3990:
	.size	_ZN5boost6system6detail30generic_error_category_messageEiPcm, .-_ZN5boost6system6detail30generic_error_category_messageEiPcm
	.section	.text._ZN5boost6system6detail30generic_error_category_messageB5cxx11Ei,"axG",@progbits,_ZN5boost6system6detail30generic_error_category_messageB5cxx11Ei,comdat
	.align	2
	.weak	_ZN5boost6system6detail30generic_error_category_messageB5cxx11Ei
	.type	_ZN5boost6system6detail30generic_error_category_messageB5cxx11Ei, %function
_ZN5boost6system6detail30generic_error_category_messageB5cxx11Ei:
.LFB3991:
	.cfi_startproc
	.cfi_personality 0x9b,DW.ref.__gxx_personality_v0
	.cfi_lsda 0x1b,.LLSDA3991
	stp	x29, x30, [sp, -192]!
	.cfi_def_cfa_offset 192
	.cfi_offset 29, -192
	.cfi_offset 30, -184
	mov	x29, sp
	stp	x19, x20, [sp, 16]
	.cfi_offset 19, -176
	.cfi_offset 20, -168
	mov	x19, x8
	str	w0, [sp, 44]
	adrp	x0, :got:__stack_chk_guard
	ldr	x0, [x0, #:got_lo12:__stack_chk_guard]
	ldr	x1, [x0]
	str	x1, [sp, 184]
	mov	x1, 0
	add	x0, sp, 56
	mov	x2, 128
	mov	x1, x0
	ldr	w0, [sp, 44]
	bl	_ZN5boost6system6detail30generic_error_category_messageEiPcm
	mov	x20, x0
	add	x0, sp, 48
	bl	_ZNSaIcEC1Ev
	add	x0, sp, 48
	mov	x2, x0
	mov	x1, x20
	mov	x0, x19
.LEHB1:
	bl	_ZNSt7__cxx1112basic_stringIcSt11char_traitsIcESaIcEEC1IS3_EEPKcRKS3_
.LEHE1:
	add	x0, sp, 48
	bl	_ZNSaIcED1Ev
	adrp	x0, :got:__stack_chk_guard
	ldr	x0, [x0, #:got_lo12:__stack_chk_guard]
	ldr	x2, [sp, 184]
	ldr	x1, [x0]
	subs	x2, x2, x1
	mov	x1, 0
	beq	.L133
	b	.L135
.L134:
	mov	x19, x0
	add	x0, sp, 48
	bl	_ZNSaIcED1Ev
	mov	x0, x19
.LEHB2:
	bl	_Unwind_Resume
.LEHE2:
.L135:
	bl	__stack_chk_fail
.L133:
	mov	x0, x19
	ldp	x19, x20, [sp, 16]
	ldp	x29, x30, [sp], 192
	.cfi_restore 30
	.cfi_restore 29
	.cfi_restore 19
	.cfi_restore 20
	.cfi_def_cfa_offset 0
	ret
	.cfi_endproc
.LFE3991:
	.section	.gcc_except_table._ZN5boost6system6detail30generic_error_category_messageB5cxx11Ei,"aG",@progbits,_ZN5boost6system6detail30generic_error_category_messageB5cxx11Ei,comdat
.LLSDA3991:
	.byte	0xff
	.byte	0xff
	.byte	0x1
	.uleb128 .LLSDACSE3991-.LLSDACSB3991
.LLSDACSB3991:
	.uleb128 .LEHB1-.LFB3991
	.uleb128 .LEHE1-.LEHB1
	.uleb128 .L134-.LFB3991
	.uleb128 0
	.uleb128 .LEHB2-.LFB3991
	.uleb128 .LEHE2-.LEHB2
	.uleb128 0
	.uleb128 0
.LLSDACSE3991:
	.section	.text._ZN5boost6system6detail30generic_error_category_messageB5cxx11Ei,"axG",@progbits,_ZN5boost6system6detail30generic_error_category_messageB5cxx11Ei,comdat
	.size	_ZN5boost6system6detail30generic_error_category_messageB5cxx11Ei, .-_ZN5boost6system6detail30generic_error_category_messageB5cxx11Ei
	.section	.text._ZNK5boost6system6detail22generic_error_category7messageB5cxx11Ei,"axG",@progbits,_ZNK5boost6system6detail22generic_error_category7messageB5cxx11Ei,comdat
	.align	2
	.weak	_ZNK5boost6system6detail22generic_error_category7messageB5cxx11Ei
	.type	_ZNK5boost6system6detail22generic_error_category7messageB5cxx11Ei, %function
_ZNK5boost6system6detail22generic_error_category7messageB5cxx11Ei:
.LFB3992:
	.cfi_startproc
	stp	x29, x30, [sp, -64]!
	.cfi_def_cfa_offset 64
	.cfi_offset 29, -64
	.cfi_offset 30, -56
	mov	x29, sp
	str	x19, [sp, 16]
	.cfi_offset 19, -48
	mov	x19, x8
	str	x0, [sp, 40]
	str	w1, [sp, 36]
	adrp	x0, :got:__stack_chk_guard
	ldr	x0, [x0, #:got_lo12:__stack_chk_guard]
	ldr	x1, [x0]
	str	x1, [sp, 56]
	mov	x1, 0
	mov	x8, x19
	ldr	w0, [sp, 36]
	bl	_ZN5boost6system6detail30generic_error_category_messageB5cxx11Ei
	adrp	x0, :got:__stack_chk_guard
	ldr	x0, [x0, #:got_lo12:__stack_chk_guard]
	ldr	x2, [sp, 56]
	ldr	x1, [x0]
	subs	x2, x2, x1
	mov	x1, 0
	beq	.L138
	bl	__stack_chk_fail
.L138:
	mov	x0, x19
	ldr	x19, [sp, 16]
	ldp	x29, x30, [sp], 64
	.cfi_restore 30
	.cfi_restore 29
	.cfi_restore 19
	.cfi_def_cfa_offset 0
	ret
	.cfi_endproc
.LFE3992:
	.size	_ZNK5boost6system6detail22generic_error_category7messageB5cxx11Ei, .-_ZNK5boost6system6detail22generic_error_category7messageB5cxx11Ei
	.section	.text._ZNK5boost6system6detail22generic_error_category7messageEiPcm,"axG",@progbits,_ZNK5boost6system6detail22generic_error_category7messageEiPcm,comdat
	.align	2
	.weak	_ZNK5boost6system6detail22generic_error_category7messageEiPcm
	.type	_ZNK5boost6system6detail22generic_error_category7messageEiPcm, %function
_ZNK5boost6system6detail22generic_error_category7messageEiPcm:
.LFB3993:
	.cfi_startproc
	stp	x29, x30, [sp, -48]!
	.cfi_def_cfa_offset 48
	.cfi_offset 29, -48
	.cfi_offset 30, -40
	mov	x29, sp
	str	x0, [sp, 40]
	str	w1, [sp, 36]
	str	x2, [sp, 24]
	str	x3, [sp, 16]
	ldr	x2, [sp, 16]
	ldr	x1, [sp, 24]
	ldr	w0, [sp, 36]
	bl	_ZN5boost6system6detail30generic_error_category_messageEiPcm
	ldp	x29, x30, [sp], 48
	.cfi_restore 30
	.cfi_restore 29
	.cfi_def_cfa_offset 0
	ret
	.cfi_endproc
.LFE3993:
	.size	_ZNK5boost6system6detail22generic_error_category7messageEiPcm, .-_ZNK5boost6system6detail22generic_error_category7messageEiPcm
	.weak	_ZZN5boost6system6detail16is_generic_valueEiE3gen
	.section	.rodata._ZZN5boost6system6detail16is_generic_valueEiE3gen,"aG",@progbits,_ZZN5boost6system6detail16is_generic_valueEiE3gen,comdat
	.align	3
	.type	_ZZN5boost6system6detail16is_generic_valueEiE3gen, %gnu_unique_object
	.size	_ZZN5boost6system6detail16is_generic_valueEiE3gen, 316
_ZZN5boost6system6detail16is_generic_valueEiE3gen:
	.word	0
	.word	97
	.word	98
	.word	99
	.word	106
	.word	7
	.word	33
	.word	14
	.word	9
	.word	74
	.word	32
	.word	103
	.word	114
	.word	111
	.word	104
	.word	18
	.word	89
	.word	16
	.word	39
	.word	8
	.word	17
	.word	27
	.word	36
	.word	38
	.word	113
	.word	43
	.word	84
	.word	25
	.word	4
	.word	22
	.word	29
	.word	5
	.word	21
	.word	90
	.word	100
	.word	102
	.word	101
	.word	105
	.word	10
	.word	67
	.word	37
	.word	61
	.word	42
	.word	92
	.word	28
	.word	63
	.word	6
	.word	19
	.word	2
	.word	3
	.word	20
	.word	88
	.word	60
	.word	107
	.word	12
	.word	95
	.word	125
	.word	115
	.word	1
	.word	95
	.word	11
	.word	130
	.word	13
	.word	71
	.word	93
	.word	30
	.word	35
	.word	11
	.word	34
	.word	131
	.word	62
	.word	26
	.word	110
	.word	23
	.word	24
	.word	31
	.word	40
	.word	75
	.word	91
	.section	.text._ZN5boost6system6detail16is_generic_valueEi,"axG",@progbits,_ZN5boost6system6detail16is_generic_valueEi,comdat
	.align	2
	.weak	_ZN5boost6system6detail16is_generic_valueEi
	.type	_ZN5boost6system6detail16is_generic_valueEi, %function
_ZN5boost6system6detail16is_generic_valueEi:
.LFB3994:
	.cfi_startproc
	sub	sp, sp, #32
	.cfi_def_cfa_offset 32
	str	w0, [sp, 12]
	mov	w0, 79
	str	w0, [sp, 28]
	str	wzr, [sp, 24]
	b	.L142
.L145:
	adrp	x0, _ZZN5boost6system6detail16is_generic_valueEiE3gen
	add	x0, x0, :lo12:_ZZN5boost6system6detail16is_generic_valueEiE3gen
	ldrsw	x1, [sp, 24]
	ldr	w0, [x0, x1, lsl 2]
	ldr	w1, [sp, 12]
	cmp	w1, w0
	bne	.L143
	mov	w0, 1
	b	.L144
.L143:
	ldr	w0, [sp, 24]
	add	w0, w0, 1
	str	w0, [sp, 24]
.L142:
	ldr	w0, [sp, 24]
	cmp	w0, 78
	ble	.L145
	mov	w0, 0
.L144:
	add	sp, sp, 32
	.cfi_def_cfa_offset 0
	ret
	.cfi_endproc
.LFE3994:
	.size	_ZN5boost6system6detail16is_generic_valueEi, .-_ZN5boost6system6detail16is_generic_valueEi
	.section	.text._ZN5boost6system6detail45system_category_default_error_condition_posixEi,"axG",@progbits,_ZN5boost6system6detail45system_category_default_error_condition_posixEi,comdat
	.align	2
	.weak	_ZN5boost6system6detail45system_category_default_error_condition_posixEi
	.type	_ZN5boost6system6detail45system_category_default_error_condition_posixEi, %function
_ZN5boost6system6detail45system_category_default_error_condition_posixEi:
.LFB3995:
	.cfi_startproc
	stp	x29, x30, [sp, -64]!
	.cfi_def_cfa_offset 64
	.cfi_offset 29, -64
	.cfi_offset 30, -56
	mov	x29, sp
	str	w0, [sp, 28]
	adrp	x0, :got:__stack_chk_guard
	ldr	x0, [x0, #:got_lo12:__stack_chk_guard]
	ldr	x1, [x0]
	str	x1, [sp, 56]
	mov	x1, 0
	ldr	w0, [sp, 28]
	bl	_ZN5boost6system6detail16is_generic_valueEi
	and	w0, w0, 255
	cmp	w0, 0
	beq	.L147
	bl	_ZN5boost6system16generic_categoryEv
	mov	x1, x0
	add	x0, sp, 40
	mov	x2, x1
	ldr	w1, [sp, 28]
	bl	_ZN5boost6system15error_conditionC1EiRKNS0_14error_categoryE
	ldp	x0, x1, [sp, 40]
	b	.L148
.L147:
	bl	_ZN5boost6system15system_categoryEv
	mov	x1, x0
	add	x0, sp, 40
	mov	x2, x1
	ldr	w1, [sp, 28]
	bl	_ZN5boost6system15error_conditionC1EiRKNS0_14error_categoryE
	ldp	x0, x1, [sp, 40]
.L148:
	mov	x2, x0
	mov	x3, x1
	adrp	x0, :got:__stack_chk_guard
	ldr	x0, [x0, #:got_lo12:__stack_chk_guard]
	ldr	x4, [sp, 56]
	ldr	x1, [x0]
	subs	x4, x4, x1
	mov	x1, 0
	beq	.L149
	bl	__stack_chk_fail
.L149:
	mov	x0, x2
	mov	x1, x3
	ldp	x29, x30, [sp], 64
	.cfi_restore 30
	.cfi_restore 29
	.cfi_def_cfa_offset 0
	ret
	.cfi_endproc
.LFE3995:
	.size	_ZN5boost6system6detail45system_category_default_error_condition_posixEi, .-_ZN5boost6system6detail45system_category_default_error_condition_posixEi
	.section	.text._ZNK5boost6system6detail21system_error_category23default_error_conditionEi,"axG",@progbits,_ZNK5boost6system6detail21system_error_category23default_error_conditionEi,comdat
	.align	2
	.weak	_ZNK5boost6system6detail21system_error_category23default_error_conditionEi
	.type	_ZNK5boost6system6detail21system_error_category23default_error_conditionEi, %function
_ZNK5boost6system6detail21system_error_category23default_error_conditionEi:
.LFB3996:
	.cfi_startproc
	stp	x29, x30, [sp, -32]!
	.cfi_def_cfa_offset 32
	.cfi_offset 29, -32
	.cfi_offset 30, -24
	mov	x29, sp
	str	x0, [sp, 24]
	str	w1, [sp, 20]
	ldr	w0, [sp, 20]
	bl	_ZN5boost6system6detail45system_category_default_error_condition_posixEi
	ldp	x29, x30, [sp], 32
	.cfi_restore 30
	.cfi_restore 29
	.cfi_def_cfa_offset 0
	ret
	.cfi_endproc
.LFE3996:
	.size	_ZNK5boost6system6detail21system_error_category23default_error_conditionEi, .-_ZNK5boost6system6detail21system_error_category23default_error_conditionEi
	.section	.text._ZNK5boost6system6detail21system_error_category7messageB5cxx11Ei,"axG",@progbits,_ZNK5boost6system6detail21system_error_category7messageB5cxx11Ei,comdat
	.align	2
	.weak	_ZNK5boost6system6detail21system_error_category7messageB5cxx11Ei
	.type	_ZNK5boost6system6detail21system_error_category7messageB5cxx11Ei, %function
_ZNK5boost6system6detail21system_error_category7messageB5cxx11Ei:
.LFB3997:
	.cfi_startproc
	stp	x29, x30, [sp, -64]!
	.cfi_def_cfa_offset 64
	.cfi_offset 29, -64
	.cfi_offset 30, -56
	mov	x29, sp
	str	x19, [sp, 16]
	.cfi_offset 19, -48
	mov	x19, x8
	str	x0, [sp, 40]
	str	w1, [sp, 36]
	adrp	x0, :got:__stack_chk_guard
	ldr	x0, [x0, #:got_lo12:__stack_chk_guard]
	ldr	x1, [x0]
	str	x1, [sp, 56]
	mov	x1, 0
	mov	x8, x19
	ldr	w0, [sp, 36]
	bl	_ZN5boost6system6detail30generic_error_category_messageB5cxx11Ei
	adrp	x0, :got:__stack_chk_guard
	ldr	x0, [x0, #:got_lo12:__stack_chk_guard]
	ldr	x2, [sp, 56]
	ldr	x1, [x0]
	subs	x2, x2, x1
	mov	x1, 0
	beq	.L154
	bl	__stack_chk_fail
.L154:
	mov	x0, x19
	ldr	x19, [sp, 16]
	ldp	x29, x30, [sp], 64
	.cfi_restore 30
	.cfi_restore 29
	.cfi_restore 19
	.cfi_def_cfa_offset 0
	ret
	.cfi_endproc
.LFE3997:
	.size	_ZNK5boost6system6detail21system_error_category7messageB5cxx11Ei, .-_ZNK5boost6system6detail21system_error_category7messageB5cxx11Ei
	.section	.text._ZNK5boost6system6detail21system_error_category7messageEiPcm,"axG",@progbits,_ZNK5boost6system6detail21system_error_category7messageEiPcm,comdat
	.align	2
	.weak	_ZNK5boost6system6detail21system_error_category7messageEiPcm
	.type	_ZNK5boost6system6detail21system_error_category7messageEiPcm, %function
_ZNK5boost6system6detail21system_error_category7messageEiPcm:
.LFB3998:
	.cfi_startproc
	stp	x29, x30, [sp, -48]!
	.cfi_def_cfa_offset 48
	.cfi_offset 29, -48
	.cfi_offset 30, -40
	mov	x29, sp
	str	x0, [sp, 40]
	str	w1, [sp, 36]
	str	x2, [sp, 24]
	str	x3, [sp, 16]
	ldr	x2, [sp, 16]
	ldr	x1, [sp, 24]
	ldr	w0, [sp, 36]
	bl	_ZN5boost6system6detail30generic_error_category_messageEiPcm
	ldp	x29, x30, [sp], 48
	.cfi_restore 30
	.cfi_restore 29
	.cfi_def_cfa_offset 0
	ret
	.cfi_endproc
.LFE3998:
	.size	_ZNK5boost6system6detail21system_error_category7messageEiPcm, .-_ZNK5boost6system6detail21system_error_category7messageEiPcm
	.section	.text._ZNSt15_Rb_tree_headerC2Ev,"axG",@progbits,_ZNSt15_Rb_tree_headerC5Ev,comdat
	.align	2
	.weak	_ZNSt15_Rb_tree_headerC2Ev
	.type	_ZNSt15_Rb_tree_headerC2Ev, %function
_ZNSt15_Rb_tree_headerC2Ev:
.LFB4007:
	.cfi_startproc
	stp	x29, x30, [sp, -32]!
	.cfi_def_cfa_offset 32
	.cfi_offset 29, -32
	.cfi_offset 30, -24
	mov	x29, sp
	str	x0, [sp, 24]
	ldr	x0, [sp, 24]
	str	wzr, [x0]
	ldr	x0, [sp, 24]
	bl	_ZNSt15_Rb_tree_header8_M_resetEv
	nop
	ldp	x29, x30, [sp], 32
	.cfi_restore 30
	.cfi_restore 29
	.cfi_def_cfa_offset 0
	ret
	.cfi_endproc
.LFE4007:
	.size	_ZNSt15_Rb_tree_headerC2Ev, .-_ZNSt15_Rb_tree_headerC2Ev
	.weak	_ZNSt15_Rb_tree_headerC1Ev
	.set	_ZNSt15_Rb_tree_headerC1Ev,_ZNSt15_Rb_tree_headerC2Ev
	.section	.text._ZNSt15_Rb_tree_header8_M_resetEv,"axG",@progbits,_ZNSt15_Rb_tree_header8_M_resetEv,comdat
	.align	2
	.weak	_ZNSt15_Rb_tree_header8_M_resetEv
	.type	_ZNSt15_Rb_tree_header8_M_resetEv, %function
_ZNSt15_Rb_tree_header8_M_resetEv:
.LFB4013:
	.cfi_startproc
	sub	sp, sp, #16
	.cfi_def_cfa_offset 16
	str	x0, [sp, 8]
	ldr	x0, [sp, 8]
	str	xzr, [x0, 8]
	ldr	x1, [sp, 8]
	ldr	x0, [sp, 8]
	str	x1, [x0, 16]
	ldr	x1, [sp, 8]
	ldr	x0, [sp, 8]
	str	x1, [x0, 24]
	ldr	x0, [sp, 8]
	str	xzr, [x0, 32]
	nop
	add	sp, sp, 16
	.cfi_def_cfa_offset 0
	ret
	.cfi_endproc
.LFE4013:
	.size	_ZNSt15_Rb_tree_header8_M_resetEv, .-_ZNSt15_Rb_tree_header8_M_resetEv
	.section	.text._ZNSt14numeric_limitsIlE3minEv,"axG",@progbits,_ZNSt14numeric_limitsIlE3minEv,comdat
	.align	2
	.weak	_ZNSt14numeric_limitsIlE3minEv
	.type	_ZNSt14numeric_limitsIlE3minEv, %function
_ZNSt14numeric_limitsIlE3minEv:
.LFB4463:
	.cfi_startproc
	mov	x0, -9223372036854775808
	ret
	.cfi_endproc
.LFE4463:
	.size	_ZNSt14numeric_limitsIlE3minEv, .-_ZNSt14numeric_limitsIlE3minEv
	.section	.text._ZNSt14numeric_limitsIlE3maxEv,"axG",@progbits,_ZNSt14numeric_limitsIlE3maxEv,comdat
	.align	2
	.weak	_ZNSt14numeric_limitsIlE3maxEv
	.type	_ZNSt14numeric_limitsIlE3maxEv, %function
_ZNSt14numeric_limitsIlE3maxEv:
.LFB4464:
	.cfi_startproc
	mov	x0, 9223372036854775807
	ret
	.cfi_endproc
.LFE4464:
	.size	_ZNSt14numeric_limitsIlE3maxEv, .-_ZNSt14numeric_limitsIlE3maxEv
	.section	.text._ZNSt14numeric_limitsIlE6lowestEv,"axG",@progbits,_ZNSt14numeric_limitsIlE6lowestEv,comdat
	.align	2
	.weak	_ZNSt14numeric_limitsIlE6lowestEv
	.type	_ZNSt14numeric_limitsIlE6lowestEv, %function
_ZNSt14numeric_limitsIlE6lowestEv:
.LFB4465:
	.cfi_startproc
	stp	x29, x30, [sp, -16]!
	.cfi_def_cfa_offset 16
	.cfi_offset 29, -16
	.cfi_offset 30, -8
	mov	x29, sp
	bl	_ZNSt14numeric_limitsIlE3minEv
	ldp	x29, x30, [sp], 16
	.cfi_restore 30
	.cfi_restore 29
	.cfi_def_cfa_offset 0
	ret
	.cfi_endproc
.LFE4465:
	.size	_ZNSt14numeric_limitsIlE6lowestEv, .-_ZNSt14numeric_limitsIlE6lowestEv
	.section	.text._ZNSt14numeric_limitsImE3maxEv,"axG",@progbits,_ZNSt14numeric_limitsImE3maxEv,comdat
	.align	2
	.weak	_ZNSt14numeric_limitsImE3maxEv
	.type	_ZNSt14numeric_limitsImE3maxEv, %function
_ZNSt14numeric_limitsImE3maxEv:
.LFB4473:
	.cfi_startproc
	mov	x0, -1
	ret
	.cfi_endproc
.LFE4473:
	.size	_ZNSt14numeric_limitsImE3maxEv, .-_ZNSt14numeric_limitsImE3maxEv
	.section	.text._ZNKSt6chrono8durationIlSt5ratioILl1ELl1000000000EEE5countEv,"axG",@progbits,_ZNKSt6chrono8durationIlSt5ratioILl1ELl1000000000EEE5countEv,comdat
	.align	2
	.weak	_ZNKSt6chrono8durationIlSt5ratioILl1ELl1000000000EEE5countEv
	.type	_ZNKSt6chrono8durationIlSt5ratioILl1ELl1000000000EEE5countEv, %function
_ZNKSt6chrono8durationIlSt5ratioILl1ELl1000000000EEE5countEv:
.LFB4612:
	.cfi_startproc
	sub	sp, sp, #16
	.cfi_def_cfa_offset 16
	str	x0, [sp, 8]
	ldr	x0, [sp, 8]
	ldr	x0, [x0]
	add	sp, sp, 16
	.cfi_def_cfa_offset 0
	ret
	.cfi_endproc
.LFE4612:
	.size	_ZNKSt6chrono8durationIlSt5ratioILl1ELl1000000000EEE5countEv, .-_ZNKSt6chrono8durationIlSt5ratioILl1ELl1000000000EEE5countEv
	.section	.text._ZNSt6chronoltIlSt5ratioILl1ELl1000000000EElS2_EEbRKNS_8durationIT_T0_EERKNS3_IT1_T2_EE,"axG",@progbits,_ZNSt6chronoltIlSt5ratioILl1ELl1000000000EElS2_EEbRKNS_8durationIT_T0_EERKNS3_IT1_T2_EE,comdat
	.align	2
	.weak	_ZNSt6chronoltIlSt5ratioILl1ELl1000000000EElS2_EEbRKNS_8durationIT_T0_EERKNS3_IT1_T2_EE
	.type	_ZNSt6chronoltIlSt5ratioILl1ELl1000000000EElS2_EEbRKNS_8durationIT_T0_EERKNS3_IT1_T2_EE, %function
_ZNSt6chronoltIlSt5ratioILl1ELl1000000000EElS2_EEbRKNS_8durationIT_T0_EERKNS3_IT1_T2_EE:
.LFB4611:
	.cfi_startproc
	stp	x29, x30, [sp, -80]!
	.cfi_def_cfa_offset 80
	.cfi_offset 29, -80
	.cfi_offset 30, -72
	mov	x29, sp
	str	x19, [sp, 16]
	.cfi_offset 19, -64
	str	x0, [sp, 40]
	str	x1, [sp, 32]
	adrp	x0, :got:__stack_chk_guard
	ldr	x0, [x0, #:got_lo12:__stack_chk_guard]
	ldr	x1, [x0]
	str	x1, [sp, 72]
	mov	x1, 0
	ldr	x0, [sp, 40]
	ldr	x0, [x0]
	str	x0, [sp, 56]
	add	x0, sp, 56
	bl	_ZNKSt6chrono8durationIlSt5ratioILl1ELl1000000000EEE5countEv
	mov	x19, x0
	ldr	x0, [sp, 32]
	ldr	x0, [x0]
	str	x0, [sp, 64]
	add	x0, sp, 64
	bl	_ZNKSt6chrono8durationIlSt5ratioILl1ELl1000000000EEE5countEv
	cmp	x19, x0
	cset	w0, lt
	and	w0, w0, 255
	mov	w1, w0
	adrp	x0, :got:__stack_chk_guard
	ldr	x0, [x0, #:got_lo12:__stack_chk_guard]
	ldr	x3, [sp, 72]
	ldr	x2, [x0]
	subs	x3, x3, x2
	mov	x2, 0
	beq	.L171
	bl	__stack_chk_fail
.L171:
	mov	w0, w1
	ldr	x19, [sp, 16]
	ldp	x29, x30, [sp], 80
	.cfi_restore 30
	.cfi_restore 29
	.cfi_restore 19
	.cfi_def_cfa_offset 0
	ret
	.cfi_endproc
.LFE4611:
	.size	_ZNSt6chronoltIlSt5ratioILl1ELl1000000000EElS2_EEbRKNS_8durationIT_T0_EERKNS3_IT1_T2_EE, .-_ZNSt6chronoltIlSt5ratioILl1ELl1000000000EElS2_EEbRKNS_8durationIT_T0_EERKNS3_IT1_T2_EE
	.section	.text._ZNSt6chrono8durationIlSt5ratioILl1ELl1000000000EEE3minEv,"axG",@progbits,_ZNSt6chrono8durationIlSt5ratioILl1ELl1000000000EEE3minEv,comdat
	.align	2
	.weak	_ZNSt6chrono8durationIlSt5ratioILl1ELl1000000000EEE3minEv
	.type	_ZNSt6chrono8durationIlSt5ratioILl1ELl1000000000EEE3minEv, %function
_ZNSt6chrono8durationIlSt5ratioILl1ELl1000000000EEE3minEv:
.LFB4613:
	.cfi_startproc
	stp	x29, x30, [sp, -48]!
	.cfi_def_cfa_offset 48
	.cfi_offset 29, -48
	.cfi_offset 30, -40
	mov	x29, sp
	adrp	x0, :got:__stack_chk_guard
	ldr	x0, [x0, #:got_lo12:__stack_chk_guard]
	ldr	x1, [x0]
	str	x1, [sp, 40]
	mov	x1, 0
	bl	_ZNSt6chrono15duration_valuesIlE3minEv
	str	x0, [sp, 24]
	add	x1, sp, 24
	add	x0, sp, 32
	bl	_ZNSt6chrono8durationIlSt5ratioILl1ELl1000000000EEEC1IlvEERKT_
	ldr	x0, [sp, 32]
	mov	x1, x0
	adrp	x0, :got:__stack_chk_guard
	ldr	x0, [x0, #:got_lo12:__stack_chk_guard]
	ldr	x3, [sp, 40]
	ldr	x2, [x0]
	subs	x3, x3, x2
	mov	x2, 0
	beq	.L174
	bl	__stack_chk_fail
.L174:
	mov	x0, x1
	ldp	x29, x30, [sp], 48
	.cfi_restore 30
	.cfi_restore 29
	.cfi_def_cfa_offset 0
	ret
	.cfi_endproc
.LFE4613:
	.size	_ZNSt6chrono8durationIlSt5ratioILl1ELl1000000000EEE3minEv, .-_ZNSt6chrono8durationIlSt5ratioILl1ELl1000000000EEE3minEv
	.section	.text._ZNSt6chrono8durationIlSt5ratioILl1ELl1000000000EEE4zeroEv,"axG",@progbits,_ZNSt6chrono8durationIlSt5ratioILl1ELl1000000000EEE4zeroEv,comdat
	.align	2
	.weak	_ZNSt6chrono8durationIlSt5ratioILl1ELl1000000000EEE4zeroEv
	.type	_ZNSt6chrono8durationIlSt5ratioILl1ELl1000000000EEE4zeroEv, %function
_ZNSt6chrono8durationIlSt5ratioILl1ELl1000000000EEE4zeroEv:
.LFB4614:
	.cfi_startproc
	stp	x29, x30, [sp, -48]!
	.cfi_def_cfa_offset 48
	.cfi_offset 29, -48
	.cfi_offset 30, -40
	mov	x29, sp
	adrp	x0, :got:__stack_chk_guard
	ldr	x0, [x0, #:got_lo12:__stack_chk_guard]
	ldr	x1, [x0]
	str	x1, [sp, 40]
	mov	x1, 0
	bl	_ZNSt6chrono15duration_valuesIlE4zeroEv
	str	x0, [sp, 24]
	add	x1, sp, 24
	add	x0, sp, 32
	bl	_ZNSt6chrono8durationIlSt5ratioILl1ELl1000000000EEEC1IlvEERKT_
	ldr	x0, [sp, 32]
	mov	x1, x0
	adrp	x0, :got:__stack_chk_guard
	ldr	x0, [x0, #:got_lo12:__stack_chk_guard]
	ldr	x3, [sp, 40]
	ldr	x2, [x0]
	subs	x3, x3, x2
	mov	x2, 0
	beq	.L177
	bl	__stack_chk_fail
.L177:
	mov	x0, x1
	ldp	x29, x30, [sp], 48
	.cfi_restore 30
	.cfi_restore 29
	.cfi_def_cfa_offset 0
	ret
	.cfi_endproc
.LFE4614:
	.size	_ZNSt6chrono8durationIlSt5ratioILl1ELl1000000000EEE4zeroEv, .-_ZNSt6chrono8durationIlSt5ratioILl1ELl1000000000EEE4zeroEv
	.section	.text._ZNSt6chrono8durationIlSt5ratioILl1ELl1000000000EEEC1IlvEERKT_,"axG",@progbits,_ZNSt6chrono8durationIlSt5ratioILl1ELl1000000000EEEC1IlvEERKT_,comdat
	.align	2
	.weak	_ZNSt6chrono8durationIlSt5ratioILl1ELl1000000000EEEC1IlvEERKT_
	.type	_ZNSt6chrono8durationIlSt5ratioILl1ELl1000000000EEEC1IlvEERKT_, %function
_ZNSt6chrono8durationIlSt5ratioILl1ELl1000000000EEEC1IlvEERKT_:
.LFB4617:
	.cfi_startproc
	sub	sp, sp, #16
	.cfi_def_cfa_offset 16
	str	x0, [sp, 8]
	str	x1, [sp]
	ldr	x0, [sp]
	ldr	x1, [x0]
	ldr	x0, [sp, 8]
	str	x1, [x0]
	nop
	add	sp, sp, 16
	.cfi_def_cfa_offset 0
	ret
	.cfi_endproc
.LFE4617:
	.size	_ZNSt6chrono8durationIlSt5ratioILl1ELl1000000000EEEC1IlvEERKT_, .-_ZNSt6chrono8durationIlSt5ratioILl1ELl1000000000EEEC1IlvEERKT_
	.section	.text._ZNSt6chrono15duration_valuesIlE3minEv,"axG",@progbits,_ZNSt6chrono15duration_valuesIlE3minEv,comdat
	.align	2
	.weak	_ZNSt6chrono15duration_valuesIlE3minEv
	.type	_ZNSt6chrono15duration_valuesIlE3minEv, %function
_ZNSt6chrono15duration_valuesIlE3minEv:
.LFB4618:
	.cfi_startproc
	stp	x29, x30, [sp, -16]!
	.cfi_def_cfa_offset 16
	.cfi_offset 29, -16
	.cfi_offset 30, -8
	mov	x29, sp
	bl	_ZNSt14numeric_limitsIlE6lowestEv
	ldp	x29, x30, [sp], 16
	.cfi_restore 30
	.cfi_restore 29
	.cfi_def_cfa_offset 0
	ret
	.cfi_endproc
.LFE4618:
	.size	_ZNSt6chrono15duration_valuesIlE3minEv, .-_ZNSt6chrono15duration_valuesIlE3minEv
	.section	.text._ZNSt6chrono15duration_valuesIlE4zeroEv,"axG",@progbits,_ZNSt6chrono15duration_valuesIlE4zeroEv,comdat
	.align	2
	.weak	_ZNSt6chrono15duration_valuesIlE4zeroEv
	.type	_ZNSt6chrono15duration_valuesIlE4zeroEv, %function
_ZNSt6chrono15duration_valuesIlE4zeroEv:
.LFB4619:
	.cfi_startproc
	mov	x0, 0
	ret
	.cfi_endproc
.LFE4619:
	.size	_ZNSt6chrono15duration_valuesIlE4zeroEv, .-_ZNSt6chrono15duration_valuesIlE4zeroEv
	.section	.text._ZNSt5mutex4lockEv,"axG",@progbits,_ZNSt5mutex4lockEv,comdat
	.align	2
	.weak	_ZNSt5mutex4lockEv
	.type	_ZNSt5mutex4lockEv, %function
_ZNSt5mutex4lockEv:
.LFB4642:
	.cfi_startproc
	stp	x29, x30, [sp, -48]!
	.cfi_def_cfa_offset 48
	.cfi_offset 29, -48
	.cfi_offset 30, -40
	mov	x29, sp
	str	x0, [sp, 24]
	ldr	x0, [sp, 24]
	bl	_ZL20__gthread_mutex_lockP15pthread_mutex_t
	str	w0, [sp, 44]
	ldr	w0, [sp, 44]
	cmp	w0, 0
	beq	.L185
	ldr	w0, [sp, 44]
	bl	_ZSt20__throw_system_errori
.L185:
	nop
	ldp	x29, x30, [sp], 48
	.cfi_restore 30
	.cfi_restore 29
	.cfi_def_cfa_offset 0
	ret
	.cfi_endproc
.LFE4642:
	.size	_ZNSt5mutex4lockEv, .-_ZNSt5mutex4lockEv
	.section	.text._ZNSt5mutex6unlockEv,"axG",@progbits,_ZNSt5mutex6unlockEv,comdat
	.align	2
	.weak	_ZNSt5mutex6unlockEv
	.type	_ZNSt5mutex6unlockEv, %function
_ZNSt5mutex6unlockEv:
.LFB4644:
	.cfi_startproc
	stp	x29, x30, [sp, -32]!
	.cfi_def_cfa_offset 32
	.cfi_offset 29, -32
	.cfi_offset 30, -24
	mov	x29, sp
	str	x0, [sp, 24]
	ldr	x0, [sp, 24]
	bl	_ZL22__gthread_mutex_unlockP15pthread_mutex_t
	nop
	ldp	x29, x30, [sp], 32
	.cfi_restore 30
	.cfi_restore 29
	.cfi_def_cfa_offset 0
	ret
	.cfi_endproc
.LFE4644:
	.size	_ZNSt5mutex6unlockEv, .-_ZNSt5mutex6unlockEv
	.section	.text._ZNSt3_V214error_categoryC2Ev,"axG",@progbits,_ZNSt3_V214error_categoryC5Ev,comdat
	.align	2
	.weak	_ZNSt3_V214error_categoryC2Ev
	.type	_ZNSt3_V214error_categoryC2Ev, %function
_ZNSt3_V214error_categoryC2Ev:
.LFB4730:
	.cfi_startproc
	sub	sp, sp, #16
	.cfi_def_cfa_offset 16
	str	x0, [sp, 8]
	adrp	x0, :got:_ZTVNSt3_V214error_categoryE
	ldr	x0, [x0, #:got_lo12:_ZTVNSt3_V214error_categoryE]
	add	x1, x0, 16
	ldr	x0, [sp, 8]
	str	x1, [x0]
	nop
	add	sp, sp, 16
	.cfi_def_cfa_offset 0
	ret
	.cfi_endproc
.LFE4730:
	.size	_ZNSt3_V214error_categoryC2Ev, .-_ZNSt3_V214error_categoryC2Ev
	.weak	_ZNSt3_V214error_categoryC1Ev
	.set	_ZNSt3_V214error_categoryC1Ev,_ZNSt3_V214error_categoryC2Ev
	.section	.text._ZN5boost6system6detail12std_categoryC2EPKNS0_14error_categoryEj,"axG",@progbits,_ZN5boost6system6detail12std_categoryC5EPKNS0_14error_categoryEj,comdat
	.align	2
	.weak	_ZN5boost6system6detail12std_categoryC2EPKNS0_14error_categoryEj
	.type	_ZN5boost6system6detail12std_categoryC2EPKNS0_14error_categoryEj, %function
_ZN5boost6system6detail12std_categoryC2EPKNS0_14error_categoryEj:
.LFB4732:
	.cfi_startproc
	stp	x29, x30, [sp, -48]!
	.cfi_def_cfa_offset 48
	.cfi_offset 29, -48
	.cfi_offset 30, -40
	mov	x29, sp
	str	x0, [sp, 40]
	str	x1, [sp, 32]
	str	w2, [sp, 28]
	ldr	x0, [sp, 40]
	bl	_ZNSt3_V214error_categoryC2Ev
	adrp	x0, _ZTVN5boost6system6detail12std_categoryE+16
	add	x1, x0, :lo12:_ZTVN5boost6system6detail12std_categoryE+16
	ldr	x0, [sp, 40]
	str	x1, [x0]
	ldr	x0, [sp, 40]
	ldr	x1, [sp, 32]
	str	x1, [x0, 8]
	nop
	ldp	x29, x30, [sp], 48
	.cfi_restore 30
	.cfi_restore 29
	.cfi_def_cfa_offset 0
	ret
	.cfi_endproc
.LFE4732:
	.size	_ZN5boost6system6detail12std_categoryC2EPKNS0_14error_categoryEj, .-_ZN5boost6system6detail12std_categoryC2EPKNS0_14error_categoryEj
	.weak	_ZN5boost6system6detail12std_categoryC1EPKNS0_14error_categoryEj
	.set	_ZN5boost6system6detail12std_categoryC1EPKNS0_14error_categoryEj,_ZN5boost6system6detail12std_categoryC2EPKNS0_14error_categoryEj
	.section	.text._ZNK5boost6system6detail12std_category4nameEv,"axG",@progbits,_ZNK5boost6system6detail12std_category4nameEv,comdat
	.align	2
	.weak	_ZNK5boost6system6detail12std_category4nameEv
	.type	_ZNK5boost6system6detail12std_category4nameEv, %function
_ZNK5boost6system6detail12std_category4nameEv:
.LFB4734:
	.cfi_startproc
	stp	x29, x30, [sp, -32]!
	.cfi_def_cfa_offset 32
	.cfi_offset 29, -32
	.cfi_offset 30, -24
	mov	x29, sp
	str	x0, [sp, 24]
	ldr	x0, [sp, 24]
	ldr	x0, [x0, 8]
	ldr	x0, [x0]
	ldr	x1, [x0]
	ldr	x0, [sp, 24]
	ldr	x0, [x0, 8]
	blr	x1
	ldp	x29, x30, [sp], 32
	.cfi_restore 30
	.cfi_restore 29
	.cfi_def_cfa_offset 0
	ret
	.cfi_endproc
.LFE4734:
	.size	_ZNK5boost6system6detail12std_category4nameEv, .-_ZNK5boost6system6detail12std_category4nameEv
	.section	.text._ZNK5boost6system6detail12std_category7messageB5cxx11Ei,"axG",@progbits,_ZNK5boost6system6detail12std_category7messageB5cxx11Ei,comdat
	.align	2
	.weak	_ZNK5boost6system6detail12std_category7messageB5cxx11Ei
	.type	_ZNK5boost6system6detail12std_category7messageB5cxx11Ei, %function
_ZNK5boost6system6detail12std_category7messageB5cxx11Ei:
.LFB4735:
	.cfi_startproc
	stp	x29, x30, [sp, -64]!
	.cfi_def_cfa_offset 64
	.cfi_offset 29, -64
	.cfi_offset 30, -56
	mov	x29, sp
	str	x19, [sp, 16]
	.cfi_offset 19, -48
	mov	x19, x8
	str	x0, [sp, 40]
	str	w1, [sp, 36]
	adrp	x0, :got:__stack_chk_guard
	ldr	x0, [x0, #:got_lo12:__stack_chk_guard]
	ldr	x1, [x0]
	str	x1, [sp, 56]
	mov	x1, 0
	ldr	x0, [sp, 40]
	ldr	x0, [x0, 8]
	ldr	x0, [x0]
	add	x0, x0, 32
	ldr	x2, [x0]
	ldr	x0, [sp, 40]
	ldr	x0, [x0, 8]
	mov	x8, x19
	ldr	w1, [sp, 36]
	blr	x2
	adrp	x0, :got:__stack_chk_guard
	ldr	x0, [x0, #:got_lo12:__stack_chk_guard]
	ldr	x2, [sp, 56]
	ldr	x1, [x0]
	subs	x2, x2, x1
	mov	x1, 0
	beq	.L193
	bl	__stack_chk_fail
.L193:
	mov	x0, x19
	ldr	x19, [sp, 16]
	ldp	x29, x30, [sp], 64
	.cfi_restore 30
	.cfi_restore 29
	.cfi_restore 19
	.cfi_def_cfa_offset 0
	ret
	.cfi_endproc
.LFE4735:
	.size	_ZNK5boost6system6detail12std_category7messageB5cxx11Ei, .-_ZNK5boost6system6detail12std_category7messageB5cxx11Ei
	.section	.text._ZNK5boost6system6detail12std_category23default_error_conditionEi,"axG",@progbits,_ZNK5boost6system6detail12std_category23default_error_conditionEi,comdat
	.align	2
	.weak	_ZNK5boost6system6detail12std_category23default_error_conditionEi
	.type	_ZNK5boost6system6detail12std_category23default_error_conditionEi, %function
_ZNK5boost6system6detail12std_category23default_error_conditionEi:
.LFB4736:
	.cfi_startproc
	.cfi_personality 0x9b,DW.ref.__gxx_personality_v0
	.cfi_lsda 0x1b,.LLSDA4736
	stp	x29, x30, [sp, -64]!
	.cfi_def_cfa_offset 64
	.cfi_offset 29, -64
	.cfi_offset 30, -56
	mov	x29, sp
	str	x0, [sp, 24]
	str	w1, [sp, 20]
	adrp	x0, :got:__stack_chk_guard
	ldr	x0, [x0, #:got_lo12:__stack_chk_guard]
	ldr	x1, [x0]
	str	x1, [sp, 56]
	mov	x1, 0
	ldr	x0, [sp, 24]
	ldr	x0, [x0, 8]
	ldr	x0, [x0]
	add	x0, x0, 8
	ldr	x2, [x0]
	ldr	x0, [sp, 24]
	ldr	x0, [x0, 8]
	ldr	w1, [sp, 20]
	blr	x2
	stp	x0, x1, [sp, 40]
	add	x0, sp, 40
	bl	_ZNK5boost6system15error_conditioncvSt15error_conditionEv
	mov	x2, x0
	mov	x3, x1
	adrp	x0, :got:__stack_chk_guard
	ldr	x0, [x0, #:got_lo12:__stack_chk_guard]
	ldr	x4, [sp, 56]
	ldr	x1, [x0]
	subs	x4, x4, x1
	mov	x1, 0
	beq	.L196
	bl	__stack_chk_fail
.L196:
	mov	x0, x2
	mov	x1, x3
	ldp	x29, x30, [sp], 64
	.cfi_restore 30
	.cfi_restore 29
	.cfi_def_cfa_offset 0
	ret
	.cfi_endproc
.LFE4736:
	.section	.gcc_except_table._ZNK5boost6system6detail12std_category23default_error_conditionEi,"aG",@progbits,_ZNK5boost6system6detail12std_category23default_error_conditionEi,comdat
.LLSDA4736:
	.byte	0xff
	.byte	0xff
	.byte	0x1
	.uleb128 .LLSDACSE4736-.LLSDACSB4736
.LLSDACSB4736:
.LLSDACSE4736:
	.section	.text._ZNK5boost6system6detail12std_category23default_error_conditionEi,"axG",@progbits,_ZNK5boost6system6detail12std_category23default_error_conditionEi,comdat
	.size	_ZNK5boost6system6detail12std_category23default_error_conditionEi, .-_ZNK5boost6system6detail12std_category23default_error_conditionEi
	.section	.text._ZNK5boost6system6detail12cat_ptr_lessclEPKNS0_14error_categoryES5_,"axG",@progbits,_ZNK5boost6system6detail12cat_ptr_lessclEPKNS0_14error_categoryES5_,comdat
	.align	2
	.weak	_ZNK5boost6system6detail12cat_ptr_lessclEPKNS0_14error_categoryES5_
	.type	_ZNK5boost6system6detail12cat_ptr_lessclEPKNS0_14error_categoryES5_, %function
_ZNK5boost6system6detail12cat_ptr_lessclEPKNS0_14error_categoryES5_:
.LFB4737:
	.cfi_startproc
	stp	x29, x30, [sp, -48]!
	.cfi_def_cfa_offset 48
	.cfi_offset 29, -48
	.cfi_offset 30, -40
	mov	x29, sp
	str	x0, [sp, 40]
	str	x1, [sp, 32]
	str	x2, [sp, 24]
	ldr	x1, [sp, 24]
	ldr	x0, [sp, 32]
	bl	_ZNK5boost6system14error_categoryltERKS1_
	and	w0, w0, 255
	ldp	x29, x30, [sp], 48
	.cfi_restore 30
	.cfi_restore 29
	.cfi_def_cfa_offset 0
	ret
	.cfi_endproc
.LFE4737:
	.size	_ZNK5boost6system6detail12cat_ptr_lessclEPKNS0_14error_categoryES5_, .-_ZNK5boost6system6detail12cat_ptr_lessclEPKNS0_14error_categoryES5_
	.weak	_ZZN5boost6system6detail15to_std_categoryERKNS0_14error_categoryEE15system_instance
	.section	.bss._ZZN5boost6system6detail15to_std_categoryERKNS0_14error_categoryEE15system_instance,"awG",@nobits,_ZZN5boost6system6detail15to_std_categoryERKNS0_14error_categoryEE15system_instance,comdat
	.align	3
	.type	_ZZN5boost6system6detail15to_std_categoryERKNS0_14error_categoryEE15system_instance, %gnu_unique_object
	.size	_ZZN5boost6system6detail15to_std_categoryERKNS0_14error_categoryEE15system_instance, 16
_ZZN5boost6system6detail15to_std_categoryERKNS0_14error_categoryEE15system_instance:
	.zero	16
	.weak	_ZGVZN5boost6system6detail15to_std_categoryERKNS0_14error_categoryEE15system_instance
	.section	.bss._ZGVZN5boost6system6detail15to_std_categoryERKNS0_14error_categoryEE15system_instance,"awG",@nobits,_ZGVZN5boost6system6detail15to_std_categoryERKNS0_14error_categoryEE15system_instance,comdat
	.align	3
	.type	_ZGVZN5boost6system6detail15to_std_categoryERKNS0_14error_categoryEE15system_instance, %gnu_unique_object
	.size	_ZGVZN5boost6system6detail15to_std_categoryERKNS0_14error_categoryEE15system_instance, 8
_ZGVZN5boost6system6detail15to_std_categoryERKNS0_14error_categoryEE15system_instance:
	.zero	8
	.weak	_ZZN5boost6system6detail15to_std_categoryERKNS0_14error_categoryEE16generic_instance
	.section	.bss._ZZN5boost6system6detail15to_std_categoryERKNS0_14error_categoryEE16generic_instance,"awG",@nobits,_ZZN5boost6system6detail15to_std_categoryERKNS0_14error_categoryEE16generic_instance,comdat
	.align	3
	.type	_ZZN5boost6system6detail15to_std_categoryERKNS0_14error_categoryEE16generic_instance, %gnu_unique_object
	.size	_ZZN5boost6system6detail15to_std_categoryERKNS0_14error_categoryEE16generic_instance, 16
_ZZN5boost6system6detail15to_std_categoryERKNS0_14error_categoryEE16generic_instance:
	.zero	16
	.weak	_ZGVZN5boost6system6detail15to_std_categoryERKNS0_14error_categoryEE16generic_instance
	.section	.bss._ZGVZN5boost6system6detail15to_std_categoryERKNS0_14error_categoryEE16generic_instance,"awG",@nobits,_ZGVZN5boost6system6detail15to_std_categoryERKNS0_14error_categoryEE16generic_instance,comdat
	.align	3
	.type	_ZGVZN5boost6system6detail15to_std_categoryERKNS0_14error_categoryEE16generic_instance, %gnu_unique_object
	.size	_ZGVZN5boost6system6detail15to_std_categoryERKNS0_14error_categoryEE16generic_instance, 8
_ZGVZN5boost6system6detail15to_std_categoryERKNS0_14error_categoryEE16generic_instance:
	.zero	8
	.weak	_ZZN5boost6system6detail15to_std_categoryERKNS0_14error_categoryEE4map_
	.section	.bss._ZZN5boost6system6detail15to_std_categoryERKNS0_14error_categoryEE4map_,"awG",@nobits,_ZZN5boost6system6detail15to_std_categoryERKNS0_14error_categoryEE4map_,comdat
	.align	3
	.type	_ZZN5boost6system6detail15to_std_categoryERKNS0_14error_categoryEE4map_, %gnu_unique_object
	.size	_ZZN5boost6system6detail15to_std_categoryERKNS0_14error_categoryEE4map_, 48
_ZZN5boost6system6detail15to_std_categoryERKNS0_14error_categoryEE4map_:
	.zero	48
	.section	.text._ZNSt8_Rb_treeIPKN5boost6system14error_categoryESt4pairIKS4_St10unique_ptrINS1_6detail12std_categoryESt14default_deleteIS9_EEESt10_Select1stISD_ENS8_12cat_ptr_lessESaISD_EE13_Rb_tree_implISG_Lb1EED2Ev,"axG",@progbits,_ZNSt8_Rb_treeIPKN5boost6system14error_categoryESt4pairIKS4_St10unique_ptrINS1_6detail12std_categoryESt14default_deleteIS9_EEESt10_Select1stISD_ENS8_12cat_ptr_lessESaISD_EE13_Rb_tree_implISG_Lb1EED5Ev,comdat
	.align	2
	.weak	_ZNSt8_Rb_treeIPKN5boost6system14error_categoryESt4pairIKS4_St10unique_ptrINS1_6detail12std_categoryESt14default_deleteIS9_EEESt10_Select1stISD_ENS8_12cat_ptr_lessESaISD_EE13_Rb_tree_implISG_Lb1EED2Ev
	.type	_ZNSt8_Rb_treeIPKN5boost6system14error_categoryESt4pairIKS4_St10unique_ptrINS1_6detail12std_categoryESt14default_deleteIS9_EEESt10_Select1stISD_ENS8_12cat_ptr_lessESaISD_EE13_Rb_tree_implISG_Lb1EED2Ev, %function
_ZNSt8_Rb_treeIPKN5boost6system14error_categoryESt4pairIKS4_St10unique_ptrINS1_6detail12std_categoryESt14default_deleteIS9_EEESt10_Select1stISD_ENS8_12cat_ptr_lessESaISD_EE13_Rb_tree_implISG_Lb1EED2Ev:
.LFB4745:
	.cfi_startproc
	stp	x29, x30, [sp, -32]!
	.cfi_def_cfa_offset 32
	.cfi_offset 29, -32
	.cfi_offset 30, -24
	mov	x29, sp
	str	x0, [sp, 24]
	ldr	x0, [sp, 24]
	bl	_ZNSaISt13_Rb_tree_nodeISt4pairIKPKN5boost6system14error_categoryESt10unique_ptrINS2_6detail12std_categoryESt14default_deleteIS9_EEEEED2Ev
	nop
	ldp	x29, x30, [sp], 32
	.cfi_restore 30
	.cfi_restore 29
	.cfi_def_cfa_offset 0
	ret
	.cfi_endproc
.LFE4745:
	.size	_ZNSt8_Rb_treeIPKN5boost6system14error_categoryESt4pairIKS4_St10unique_ptrINS1_6detail12std_categoryESt14default_deleteIS9_EEESt10_Select1stISD_ENS8_12cat_ptr_lessESaISD_EE13_Rb_tree_implISG_Lb1EED2Ev, .-_ZNSt8_Rb_treeIPKN5boost6system14error_categoryESt4pairIKS4_St10unique_ptrINS1_6detail12std_categoryESt14default_deleteIS9_EEESt10_Select1stISD_ENS8_12cat_ptr_lessESaISD_EE13_Rb_tree_implISG_Lb1EED2Ev
	.weak	_ZNSt8_Rb_treeIPKN5boost6system14error_categoryESt4pairIKS4_St10unique_ptrINS1_6detail12std_categoryESt14default_deleteIS9_EEESt10_Select1stISD_ENS8_12cat_ptr_lessESaISD_EE13_Rb_tree_implISG_Lb1EED1Ev
	.set	_ZNSt8_Rb_treeIPKN5boost6system14error_categoryESt4pairIKS4_St10unique_ptrINS1_6detail12std_categoryESt14default_deleteIS9_EEESt10_Select1stISD_ENS8_12cat_ptr_lessESaISD_EE13_Rb_tree_implISG_Lb1EED1Ev,_ZNSt8_Rb_treeIPKN5boost6system14error_categoryESt4pairIKS4_St10unique_ptrINS1_6detail12std_categoryESt14default_deleteIS9_EEESt10_Select1stISD_ENS8_12cat_ptr_lessESaISD_EE13_Rb_tree_implISG_Lb1EED2Ev
	.section	.text._ZNSt8_Rb_treeIPKN5boost6system14error_categoryESt4pairIKS4_St10unique_ptrINS1_6detail12std_categoryESt14default_deleteIS9_EEESt10_Select1stISD_ENS8_12cat_ptr_lessESaISD_EEC2Ev,"axG",@progbits,_ZNSt8_Rb_treeIPKN5boost6system14error_categoryESt4pairIKS4_St10unique_ptrINS1_6detail12std_categoryESt14default_deleteIS9_EEESt10_Select1stISD_ENS8_12cat_ptr_lessESaISD_EEC5Ev,comdat
	.align	2
	.weak	_ZNSt8_Rb_treeIPKN5boost6system14error_categoryESt4pairIKS4_St10unique_ptrINS1_6detail12std_categoryESt14default_deleteIS9_EEESt10_Select1stISD_ENS8_12cat_ptr_lessESaISD_EEC2Ev
	.type	_ZNSt8_Rb_treeIPKN5boost6system14error_categoryESt4pairIKS4_St10unique_ptrINS1_6detail12std_categoryESt14default_deleteIS9_EEESt10_Select1stISD_ENS8_12cat_ptr_lessESaISD_EEC2Ev, %function
_ZNSt8_Rb_treeIPKN5boost6system14error_categoryESt4pairIKS4_St10unique_ptrINS1_6detail12std_categoryESt14default_deleteIS9_EEESt10_Select1stISD_ENS8_12cat_ptr_lessESaISD_EEC2Ev:
.LFB4747:
	.cfi_startproc
	stp	x29, x30, [sp, -32]!
	.cfi_def_cfa_offset 32
	.cfi_offset 29, -32
	.cfi_offset 30, -24
	mov	x29, sp
	str	x0, [sp, 24]
	ldr	x0, [sp, 24]
	bl	_ZNSt8_Rb_treeIPKN5boost6system14error_categoryESt4pairIKS4_St10unique_ptrINS1_6detail12std_categoryESt14default_deleteIS9_EEESt10_Select1stISD_ENS8_12cat_ptr_lessESaISD_EE13_Rb_tree_implISG_Lb1EEC1Ev
	nop
	ldp	x29, x30, [sp], 32
	.cfi_restore 30
	.cfi_restore 29
	.cfi_def_cfa_offset 0
	ret
	.cfi_endproc
.LFE4747:
	.size	_ZNSt8_Rb_treeIPKN5boost6system14error_categoryESt4pairIKS4_St10unique_ptrINS1_6detail12std_categoryESt14default_deleteIS9_EEESt10_Select1stISD_ENS8_12cat_ptr_lessESaISD_EEC2Ev, .-_ZNSt8_Rb_treeIPKN5boost6system14error_categoryESt4pairIKS4_St10unique_ptrINS1_6detail12std_categoryESt14default_deleteIS9_EEESt10_Select1stISD_ENS8_12cat_ptr_lessESaISD_EEC2Ev
	.weak	_ZNSt8_Rb_treeIPKN5boost6system14error_categoryESt4pairIKS4_St10unique_ptrINS1_6detail12std_categoryESt14default_deleteIS9_EEESt10_Select1stISD_ENS8_12cat_ptr_lessESaISD_EEC1Ev
	.set	_ZNSt8_Rb_treeIPKN5boost6system14error_categoryESt4pairIKS4_St10unique_ptrINS1_6detail12std_categoryESt14default_deleteIS9_EEESt10_Select1stISD_ENS8_12cat_ptr_lessESaISD_EEC1Ev,_ZNSt8_Rb_treeIPKN5boost6system14error_categoryESt4pairIKS4_St10unique_ptrINS1_6detail12std_categoryESt14default_deleteIS9_EEESt10_Select1stISD_ENS8_12cat_ptr_lessESaISD_EEC2Ev
	.section	.text._ZNSt3mapIPKN5boost6system14error_categoryESt10unique_ptrINS1_6detail12std_categoryESt14default_deleteIS7_EENS6_12cat_ptr_lessESaISt4pairIKS4_SA_EEEC2Ev,"axG",@progbits,_ZNSt3mapIPKN5boost6system14error_categoryESt10unique_ptrINS1_6detail12std_categoryESt14default_deleteIS7_EENS6_12cat_ptr_lessESaISt4pairIKS4_SA_EEEC5Ev,comdat
	.align	2
	.weak	_ZNSt3mapIPKN5boost6system14error_categoryESt10unique_ptrINS1_6detail12std_categoryESt14default_deleteIS7_EENS6_12cat_ptr_lessESaISt4pairIKS4_SA_EEEC2Ev
	.type	_ZNSt3mapIPKN5boost6system14error_categoryESt10unique_ptrINS1_6detail12std_categoryESt14default_deleteIS7_EENS6_12cat_ptr_lessESaISt4pairIKS4_SA_EEEC2Ev, %function
_ZNSt3mapIPKN5boost6system14error_categoryESt10unique_ptrINS1_6detail12std_categoryESt14default_deleteIS7_EENS6_12cat_ptr_lessESaISt4pairIKS4_SA_EEEC2Ev:
.LFB4749:
	.cfi_startproc
	stp	x29, x30, [sp, -32]!
	.cfi_def_cfa_offset 32
	.cfi_offset 29, -32
	.cfi_offset 30, -24
	mov	x29, sp
	str	x0, [sp, 24]
	ldr	x0, [sp, 24]
	bl	_ZNSt8_Rb_treeIPKN5boost6system14error_categoryESt4pairIKS4_St10unique_ptrINS1_6detail12std_categoryESt14default_deleteIS9_EEESt10_Select1stISD_ENS8_12cat_ptr_lessESaISD_EEC1Ev
	nop
	ldp	x29, x30, [sp], 32
	.cfi_restore 30
	.cfi_restore 29
	.cfi_def_cfa_offset 0
	ret
	.cfi_endproc
.LFE4749:
	.size	_ZNSt3mapIPKN5boost6system14error_categoryESt10unique_ptrINS1_6detail12std_categoryESt14default_deleteIS7_EENS6_12cat_ptr_lessESaISt4pairIKS4_SA_EEEC2Ev, .-_ZNSt3mapIPKN5boost6system14error_categoryESt10unique_ptrINS1_6detail12std_categoryESt14default_deleteIS7_EENS6_12cat_ptr_lessESaISt4pairIKS4_SA_EEEC2Ev
	.weak	_ZNSt3mapIPKN5boost6system14error_categoryESt10unique_ptrINS1_6detail12std_categoryESt14default_deleteIS7_EENS6_12cat_ptr_lessESaISt4pairIKS4_SA_EEEC1Ev
	.set	_ZNSt3mapIPKN5boost6system14error_categoryESt10unique_ptrINS1_6detail12std_categoryESt14default_deleteIS7_EENS6_12cat_ptr_lessESaISt4pairIKS4_SA_EEEC1Ev,_ZNSt3mapIPKN5boost6system14error_categoryESt10unique_ptrINS1_6detail12std_categoryESt14default_deleteIS7_EENS6_12cat_ptr_lessESaISt4pairIKS4_SA_EEEC2Ev
	.weak	_ZGVZN5boost6system6detail15to_std_categoryERKNS0_14error_categoryEE4map_
	.section	.bss._ZGVZN5boost6system6detail15to_std_categoryERKNS0_14error_categoryEE4map_,"awG",@nobits,_ZGVZN5boost6system6detail15to_std_categoryERKNS0_14error_categoryEE4map_,comdat
	.align	3
	.type	_ZGVZN5boost6system6detail15to_std_categoryERKNS0_14error_categoryEE4map_, %gnu_unique_object
	.size	_ZGVZN5boost6system6detail15to_std_categoryERKNS0_14error_categoryEE4map_, 8
_ZGVZN5boost6system6detail15to_std_categoryERKNS0_14error_categoryEE4map_:
	.zero	8
	.section	.text._ZNSt3mapIPKN5boost6system14error_categoryESt10unique_ptrINS1_6detail12std_categoryESt14default_deleteIS7_EENS6_12cat_ptr_lessESaISt4pairIKS4_SA_EEED2Ev,"axG",@progbits,_ZNSt3mapIPKN5boost6system14error_categoryESt10unique_ptrINS1_6detail12std_categoryESt14default_deleteIS7_EENS6_12cat_ptr_lessESaISt4pairIKS4_SA_EEED5Ev,comdat
	.align	2
	.weak	_ZNSt3mapIPKN5boost6system14error_categoryESt10unique_ptrINS1_6detail12std_categoryESt14default_deleteIS7_EENS6_12cat_ptr_lessESaISt4pairIKS4_SA_EEED2Ev
	.type	_ZNSt3mapIPKN5boost6system14error_categoryESt10unique_ptrINS1_6detail12std_categoryESt14default_deleteIS7_EENS6_12cat_ptr_lessESaISt4pairIKS4_SA_EEED2Ev, %function
_ZNSt3mapIPKN5boost6system14error_categoryESt10unique_ptrINS1_6detail12std_categoryESt14default_deleteIS7_EENS6_12cat_ptr_lessESaISt4pairIKS4_SA_EEED2Ev:
.LFB4752:
	.cfi_startproc
	stp	x29, x30, [sp, -32]!
	.cfi_def_cfa_offset 32
	.cfi_offset 29, -32
	.cfi_offset 30, -24
	mov	x29, sp
	str	x0, [sp, 24]
	ldr	x0, [sp, 24]
	bl	_ZNSt8_Rb_treeIPKN5boost6system14error_categoryESt4pairIKS4_St10unique_ptrINS1_6detail12std_categoryESt14default_deleteIS9_EEESt10_Select1stISD_ENS8_12cat_ptr_lessESaISD_EED1Ev
	nop
	ldp	x29, x30, [sp], 32
	.cfi_restore 30
	.cfi_restore 29
	.cfi_def_cfa_offset 0
	ret
	.cfi_endproc
.LFE4752:
	.size	_ZNSt3mapIPKN5boost6system14error_categoryESt10unique_ptrINS1_6detail12std_categoryESt14default_deleteIS7_EENS6_12cat_ptr_lessESaISt4pairIKS4_SA_EEED2Ev, .-_ZNSt3mapIPKN5boost6system14error_categoryESt10unique_ptrINS1_6detail12std_categoryESt14default_deleteIS7_EENS6_12cat_ptr_lessESaISt4pairIKS4_SA_EEED2Ev
	.weak	_ZNSt3mapIPKN5boost6system14error_categoryESt10unique_ptrINS1_6detail12std_categoryESt14default_deleteIS7_EENS6_12cat_ptr_lessESaISt4pairIKS4_SA_EEED1Ev
	.set	_ZNSt3mapIPKN5boost6system14error_categoryESt10unique_ptrINS1_6detail12std_categoryESt14default_deleteIS7_EENS6_12cat_ptr_lessESaISt4pairIKS4_SA_EEED1Ev,_ZNSt3mapIPKN5boost6system14error_categoryESt10unique_ptrINS1_6detail12std_categoryESt14default_deleteIS7_EENS6_12cat_ptr_lessESaISt4pairIKS4_SA_EEED2Ev
	.weak	_ZZN5boost6system6detail15to_std_categoryERKNS0_14error_categoryEE7map_mx_
	.section	.bss._ZZN5boost6system6detail15to_std_categoryERKNS0_14error_categoryEE7map_mx_,"awG",@nobits,_ZZN5boost6system6detail15to_std_categoryERKNS0_14error_categoryEE7map_mx_,comdat
	.align	3
	.type	_ZZN5boost6system6detail15to_std_categoryERKNS0_14error_categoryEE7map_mx_, %gnu_unique_object
	.size	_ZZN5boost6system6detail15to_std_categoryERKNS0_14error_categoryEE7map_mx_, 48
_ZZN5boost6system6detail15to_std_categoryERKNS0_14error_categoryEE7map_mx_:
	.zero	48
	.section	.text._ZNSt4pairIKPKN5boost6system14error_categoryESt10unique_ptrINS1_6detail12std_categoryESt14default_deleteIS8_EEED2Ev,"axG",@progbits,_ZNSt4pairIKPKN5boost6system14error_categoryESt10unique_ptrINS1_6detail12std_categoryESt14default_deleteIS8_EEED5Ev,comdat
	.align	2
	.weak	_ZNSt4pairIKPKN5boost6system14error_categoryESt10unique_ptrINS1_6detail12std_categoryESt14default_deleteIS8_EEED2Ev
	.type	_ZNSt4pairIKPKN5boost6system14error_categoryESt10unique_ptrINS1_6detail12std_categoryESt14default_deleteIS8_EEED2Ev, %function
_ZNSt4pairIKPKN5boost6system14error_categoryESt10unique_ptrINS1_6detail12std_categoryESt14default_deleteIS8_EEED2Ev:
.LFB4780:
	.cfi_startproc
	stp	x29, x30, [sp, -32]!
	.cfi_def_cfa_offset 32
	.cfi_offset 29, -32
	.cfi_offset 30, -24
	mov	x29, sp
	str	x0, [sp, 24]
	ldr	x0, [sp, 24]
	add	x0, x0, 8
	bl	_ZNSt10unique_ptrIN5boost6system6detail12std_categoryESt14default_deleteIS3_EED1Ev
	nop
	ldp	x29, x30, [sp], 32
	.cfi_restore 30
	.cfi_restore 29
	.cfi_def_cfa_offset 0
	ret
	.cfi_endproc
.LFE4780:
	.size	_ZNSt4pairIKPKN5boost6system14error_categoryESt10unique_ptrINS1_6detail12std_categoryESt14default_deleteIS8_EEED2Ev, .-_ZNSt4pairIKPKN5boost6system14error_categoryESt10unique_ptrINS1_6detail12std_categoryESt14default_deleteIS8_EEED2Ev
	.weak	_ZNSt4pairIKPKN5boost6system14error_categoryESt10unique_ptrINS1_6detail12std_categoryESt14default_deleteIS8_EEED1Ev
	.set	_ZNSt4pairIKPKN5boost6system14error_categoryESt10unique_ptrINS1_6detail12std_categoryESt14default_deleteIS8_EEED1Ev,_ZNSt4pairIKPKN5boost6system14error_categoryESt10unique_ptrINS1_6detail12std_categoryESt14default_deleteIS8_EEED2Ev
	.section	.text._ZN5boost6system6detail15to_std_categoryERKNS0_14error_categoryE,"axG",@progbits,_ZN5boost6system6detail15to_std_categoryERKNS0_14error_categoryE,comdat
	.align	2
	.weak	_ZN5boost6system6detail15to_std_categoryERKNS0_14error_categoryE
	.type	_ZN5boost6system6detail15to_std_categoryERKNS0_14error_categoryE, %function
_ZN5boost6system6detail15to_std_categoryERKNS0_14error_categoryE:
.LFB4738:
	.cfi_startproc
	.cfi_personality 0x9b,DW.ref.__gxx_personality_v0
	.cfi_lsda 0x1b,.LLSDA4738
	stp	x29, x30, [sp, -128]!
	.cfi_def_cfa_offset 128
	.cfi_offset 29, -128
	.cfi_offset 30, -120
	mov	x29, sp
	str	x19, [sp, 16]
	.cfi_offset 19, -112
	str	x0, [sp, 40]
	adrp	x0, :got:__stack_chk_guard
	ldr	x0, [x0, #:got_lo12:__stack_chk_guard]
	ldr	x1, [x0]
	str	x1, [sp, 120]
	mov	x1, 0
	bl	_ZN5boost6system15system_categoryEv
	mov	x1, x0
	ldr	x0, [sp, 40]
	bl	_ZNK5boost6system14error_categoryeqERKS1_
	and	w0, w0, 255
	cmp	w0, 0
	beq	.L205
	adrp	x0, _ZGVZN5boost6system6detail15to_std_categoryERKNS0_14error_categoryEE15system_instance
	add	x0, x0, :lo12:_ZGVZN5boost6system6detail15to_std_categoryERKNS0_14error_categoryEE15system_instance
	ldar	x0, [x0]
	and	x0, x0, 1
	cmp	x0, 0
	cset	w0, eq
	and	w0, w0, 255
	cmp	w0, 0
	beq	.L206
	adrp	x0, _ZGVZN5boost6system6detail15to_std_categoryERKNS0_14error_categoryEE15system_instance
	add	x0, x0, :lo12:_ZGVZN5boost6system6detail15to_std_categoryERKNS0_14error_categoryEE15system_instance
	bl	__cxa_guard_acquire
	cmp	w0, 0
	cset	w0, ne
	and	w0, w0, 255
	cmp	w0, 0
	beq	.L206
	mov	w2, 62679
	movk	w2, 0x1, lsl 16
	ldr	x1, [sp, 40]
	adrp	x0, _ZZN5boost6system6detail15to_std_categoryERKNS0_14error_categoryEE15system_instance
	add	x0, x0, :lo12:_ZZN5boost6system6detail15to_std_categoryERKNS0_14error_categoryEE15system_instance
	bl	_ZN5boost6system6detail12std_categoryC1EPKNS0_14error_categoryEj
	adrp	x0, __dso_handle
	add	x2, x0, :lo12:__dso_handle
	adrp	x0, _ZZN5boost6system6detail15to_std_categoryERKNS0_14error_categoryEE15system_instance
	add	x1, x0, :lo12:_ZZN5boost6system6detail15to_std_categoryERKNS0_14error_categoryEE15system_instance
	adrp	x0, _ZN5boost6system6detail12std_categoryD1Ev
	add	x0, x0, :lo12:_ZN5boost6system6detail12std_categoryD1Ev
	bl	__cxa_atexit
	adrp	x0, _ZGVZN5boost6system6detail15to_std_categoryERKNS0_14error_categoryEE15system_instance
	add	x0, x0, :lo12:_ZGVZN5boost6system6detail15to_std_categoryERKNS0_14error_categoryEE15system_instance
	bl	__cxa_guard_release
.L206:
	adrp	x0, _ZZN5boost6system6detail15to_std_categoryERKNS0_14error_categoryEE15system_instance
	add	x19, x0, :lo12:_ZZN5boost6system6detail15to_std_categoryERKNS0_14error_categoryEE15system_instance
	b	.L207
.L205:
	bl	_ZN5boost6system16generic_categoryEv
	mov	x1, x0
	ldr	x0, [sp, 40]
	bl	_ZNK5boost6system14error_categoryeqERKS1_
	and	w0, w0, 255
	cmp	w0, 0
	beq	.L208
	adrp	x0, _ZGVZN5boost6system6detail15to_std_categoryERKNS0_14error_categoryEE16generic_instance
	add	x0, x0, :lo12:_ZGVZN5boost6system6detail15to_std_categoryERKNS0_14error_categoryEE16generic_instance
	ldar	x0, [x0]
	and	x0, x0, 1
	cmp	x0, 0
	cset	w0, eq
	and	w0, w0, 255
	cmp	w0, 0
	beq	.L209
	adrp	x0, _ZGVZN5boost6system6detail15to_std_categoryERKNS0_14error_categoryEE16generic_instance
	add	x0, x0, :lo12:_ZGVZN5boost6system6detail15to_std_categoryERKNS0_14error_categoryEE16generic_instance
	bl	__cxa_guard_acquire
	cmp	w0, 0
	cset	w0, ne
	and	w0, w0, 255
	cmp	w0, 0
	beq	.L209
	mov	w2, 62675
	movk	w2, 0x1, lsl 16
	ldr	x1, [sp, 40]
	adrp	x0, _ZZN5boost6system6detail15to_std_categoryERKNS0_14error_categoryEE16generic_instance
	add	x0, x0, :lo12:_ZZN5boost6system6detail15to_std_categoryERKNS0_14error_categoryEE16generic_instance
	bl	_ZN5boost6system6detail12std_categoryC1EPKNS0_14error_categoryEj
	adrp	x0, __dso_handle
	add	x2, x0, :lo12:__dso_handle
	adrp	x0, _ZZN5boost6system6detail15to_std_categoryERKNS0_14error_categoryEE16generic_instance
	add	x1, x0, :lo12:_ZZN5boost6system6detail15to_std_categoryERKNS0_14error_categoryEE16generic_instance
	adrp	x0, _ZN5boost6system6detail12std_categoryD1Ev
	add	x0, x0, :lo12:_ZN5boost6system6detail12std_categoryD1Ev
	bl	__cxa_atexit
	adrp	x0, _ZGVZN5boost6system6detail15to_std_categoryERKNS0_14error_categoryEE16generic_instance
	add	x0, x0, :lo12:_ZGVZN5boost6system6detail15to_std_categoryERKNS0_14error_categoryEE16generic_instance
	bl	__cxa_guard_release
.L209:
	adrp	x0, _ZZN5boost6system6detail15to_std_categoryERKNS0_14error_categoryEE16generic_instance
	add	x19, x0, :lo12:_ZZN5boost6system6detail15to_std_categoryERKNS0_14error_categoryEE16generic_instance
	b	.L207
.L208:
	adrp	x0, _ZGVZN5boost6system6detail15to_std_categoryERKNS0_14error_categoryEE4map_
	add	x0, x0, :lo12:_ZGVZN5boost6system6detail15to_std_categoryERKNS0_14error_categoryEE4map_
	ldar	x0, [x0]
	and	x0, x0, 1
	cmp	x0, 0
	cset	w0, eq
	and	w0, w0, 255
	cmp	w0, 0
	beq	.L210
	adrp	x0, _ZGVZN5boost6system6detail15to_std_categoryERKNS0_14error_categoryEE4map_
	add	x0, x0, :lo12:_ZGVZN5boost6system6detail15to_std_categoryERKNS0_14error_categoryEE4map_
	bl	__cxa_guard_acquire
	cmp	w0, 0
	cset	w0, ne
	and	w0, w0, 255
	cmp	w0, 0
	beq	.L210
	adrp	x0, _ZZN5boost6system6detail15to_std_categoryERKNS0_14error_categoryEE4map_
	add	x0, x0, :lo12:_ZZN5boost6system6detail15to_std_categoryERKNS0_14error_categoryEE4map_
	bl	_ZNSt3mapIPKN5boost6system14error_categoryESt10unique_ptrINS1_6detail12std_categoryESt14default_deleteIS7_EENS6_12cat_ptr_lessESaISt4pairIKS4_SA_EEEC1Ev
	adrp	x0, __dso_handle
	add	x2, x0, :lo12:__dso_handle
	adrp	x0, _ZZN5boost6system6detail15to_std_categoryERKNS0_14error_categoryEE4map_
	add	x1, x0, :lo12:_ZZN5boost6system6detail15to_std_categoryERKNS0_14error_categoryEE4map_
	adrp	x0, _ZNSt3mapIPKN5boost6system14error_categoryESt10unique_ptrINS1_6detail12std_categoryESt14default_deleteIS7_EENS6_12cat_ptr_lessESaISt4pairIKS4_SA_EEED1Ev
	add	x0, x0, :lo12:_ZNSt3mapIPKN5boost6system14error_categoryESt10unique_ptrINS1_6detail12std_categoryESt14default_deleteIS7_EENS6_12cat_ptr_lessESaISt4pairIKS4_SA_EEED1Ev
	bl	__cxa_atexit
	adrp	x0, _ZGVZN5boost6system6detail15to_std_categoryERKNS0_14error_categoryEE4map_
	add	x0, x0, :lo12:_ZGVZN5boost6system6detail15to_std_categoryERKNS0_14error_categoryEE4map_
	bl	__cxa_guard_release
.L210:
	add	x2, sp, 56
	adrp	x0, _ZZN5boost6system6detail15to_std_categoryERKNS0_14error_categoryEE7map_mx_
	add	x1, x0, :lo12:_ZZN5boost6system6detail15to_std_categoryERKNS0_14error_categoryEE7map_mx_
	mov	x0, x2
.LEHB3:
	bl	_ZNSt10lock_guardISt5mutexEC1ERS0_
.LEHE3:
	ldr	x0, [sp, 40]
	str	x0, [sp, 104]
	add	x0, sp, 104
	mov	x1, x0
	adrp	x0, _ZZN5boost6system6detail15to_std_categoryERKNS0_14error_categoryEE4map_
	add	x0, x0, :lo12:_ZZN5boost6system6detail15to_std_categoryERKNS0_14error_categoryEE4map_
.LEHB4:
	bl	_ZNSt3mapIPKN5boost6system14error_categoryESt10unique_ptrINS1_6detail12std_categoryESt14default_deleteIS7_EENS6_12cat_ptr_lessESaISt4pairIKS4_SA_EEE4findERSD_
	str	x0, [sp, 64]
	adrp	x0, _ZZN5boost6system6detail15to_std_categoryERKNS0_14error_categoryEE4map_
	add	x0, x0, :lo12:_ZZN5boost6system6detail15to_std_categoryERKNS0_14error_categoryEE4map_
	bl	_ZNSt3mapIPKN5boost6system14error_categoryESt10unique_ptrINS1_6detail12std_categoryESt14default_deleteIS7_EENS6_12cat_ptr_lessESaISt4pairIKS4_SA_EEE3endEv
	str	x0, [sp, 104]
	add	x1, sp, 104
	add	x0, sp, 64
	bl	_ZSteqRKSt17_Rb_tree_iteratorISt4pairIKPKN5boost6system14error_categoryESt10unique_ptrINS2_6detail12std_categoryESt14default_deleteIS9_EEEESG_
	and	w0, w0, 255
	cmp	w0, 0
	beq	.L211
	mov	x0, 16
	bl	_Znwm
.LEHE4:
	mov	x19, x0
	mov	w2, 0
	ldr	x1, [sp, 40]
	mov	x0, x19
	bl	_ZN5boost6system6detail12std_categoryC1EPKNS0_14error_categoryEj
	add	x0, sp, 72
	mov	x1, x19
	bl	_ZNSt10unique_ptrIN5boost6system6detail12std_categoryESt14default_deleteIS3_EEC1IS5_vEEPS3_
	ldr	x0, [sp, 40]
	str	x0, [sp, 80]
	add	x0, sp, 72
	bl	_ZSt4moveIRSt10unique_ptrIN5boost6system6detail12std_categoryESt14default_deleteIS4_EEEONSt16remove_referenceIT_E4typeEOSA_
	mov	x2, x0
	add	x1, sp, 80
	add	x0, sp, 104
	bl	_ZNSt4pairIKPKN5boost6system14error_categoryESt10unique_ptrINS1_6detail12std_categoryESt14default_deleteIS8_EEEC1IS4_SB_Lb1EEEOT_OT0_
	add	x0, sp, 104
	mov	x1, x0
	adrp	x0, _ZZN5boost6system6detail15to_std_categoryERKNS0_14error_categoryEE4map_
	add	x0, x0, :lo12:_ZZN5boost6system6detail15to_std_categoryERKNS0_14error_categoryEE4map_
.LEHB5:
	bl	_ZNSt3mapIPKN5boost6system14error_categoryESt10unique_ptrINS1_6detail12std_categoryESt14default_deleteIS7_EENS6_12cat_ptr_lessESaISt4pairIKS4_SA_EEE6insertEOSE_
.LEHE5:
	stp	x0, x1, [sp, 88]
	add	x0, sp, 104
	bl	_ZNSt4pairIKPKN5boost6system14error_categoryESt10unique_ptrINS1_6detail12std_categoryESt14default_deleteIS8_EEED1Ev
	ldr	x0, [sp, 88]
	str	x0, [sp, 64]
	add	x0, sp, 72
	bl	_ZNSt10unique_ptrIN5boost6system6detail12std_categoryESt14default_deleteIS3_EED1Ev
.L211:
	add	x0, sp, 64
	bl	_ZNKSt17_Rb_tree_iteratorISt4pairIKPKN5boost6system14error_categoryESt10unique_ptrINS2_6detail12std_categoryESt14default_deleteIS9_EEEEptEv
	add	x0, x0, 8
	bl	_ZNKSt10unique_ptrIN5boost6system6detail12std_categoryESt14default_deleteIS3_EEdeEv
	mov	x19, x0
	add	x0, sp, 56
	bl	_ZNSt10lock_guardISt5mutexED1Ev
.L207:
	mov	x1, x19
	adrp	x0, :got:__stack_chk_guard
	ldr	x0, [x0, #:got_lo12:__stack_chk_guard]
	ldr	x3, [sp, 120]
	ldr	x2, [x0]
	subs	x3, x3, x2
	mov	x2, 0
	beq	.L214
	b	.L217
.L216:
	mov	x19, x0
	add	x0, sp, 104
	bl	_ZNSt4pairIKPKN5boost6system14error_categoryESt10unique_ptrINS1_6detail12std_categoryESt14default_deleteIS8_EEED1Ev
	add	x0, sp, 72
	bl	_ZNSt10unique_ptrIN5boost6system6detail12std_categoryESt14default_deleteIS3_EED1Ev
	b	.L213
.L215:
	mov	x19, x0
.L213:
	add	x0, sp, 56
	bl	_ZNSt10lock_guardISt5mutexED1Ev
	mov	x0, x19
.LEHB6:
	bl	_Unwind_Resume
.LEHE6:
.L217:
	bl	__stack_chk_fail
.L214:
	mov	x0, x1
	ldr	x19, [sp, 16]
	ldp	x29, x30, [sp], 128
	.cfi_restore 30
	.cfi_restore 29
	.cfi_restore 19
	.cfi_def_cfa_offset 0
	ret
	.cfi_endproc
.LFE4738:
	.section	.gcc_except_table._ZN5boost6system6detail15to_std_categoryERKNS0_14error_categoryE,"aG",@progbits,_ZN5boost6system6detail15to_std_categoryERKNS0_14error_categoryE,comdat
.LLSDA4738:
	.byte	0xff
	.byte	0xff
	.byte	0x1
	.uleb128 .LLSDACSE4738-.LLSDACSB4738
.LLSDACSB4738:
	.uleb128 .LEHB3-.LFB4738
	.uleb128 .LEHE3-.LEHB3
	.uleb128 0
	.uleb128 0
	.uleb128 .LEHB4-.LFB4738
	.uleb128 .LEHE4-.LEHB4
	.uleb128 .L215-.LFB4738
	.uleb128 0
	.uleb128 .LEHB5-.LFB4738
	.uleb128 .LEHE5-.LEHB5
	.uleb128 .L216-.LFB4738
	.uleb128 0
	.uleb128 .LEHB6-.LFB4738
	.uleb128 .LEHE6-.LEHB6
	.uleb128 0
	.uleb128 0
.LLSDACSE4738:
	.section	.text._ZN5boost6system6detail15to_std_categoryERKNS0_14error_categoryE,"axG",@progbits,_ZN5boost6system6detail15to_std_categoryERKNS0_14error_categoryE,comdat
	.size	_ZN5boost6system6detail15to_std_categoryERKNS0_14error_categoryE, .-_ZN5boost6system6detail15to_std_categoryERKNS0_14error_categoryE
	.section	.text._ZNK5boost6system6detail12std_category10equivalentEiRKSt15error_condition,"axG",@progbits,_ZNK5boost6system6detail12std_category10equivalentEiRKSt15error_condition,comdat
	.align	2
	.weak	_ZNK5boost6system6detail12std_category10equivalentEiRKSt15error_condition
	.type	_ZNK5boost6system6detail12std_category10equivalentEiRKSt15error_condition, %function
_ZNK5boost6system6detail12std_category10equivalentEiRKSt15error_condition:
.LFB4782:
	.cfi_startproc
	.cfi_personality 0x9b,DW.ref.__gxx_personality_v0
	.cfi_lsda 0x1b,.LLSDA4782
	stp	x29, x30, [sp, -96]!
	.cfi_def_cfa_offset 96
	.cfi_offset 29, -96
	.cfi_offset 30, -88
	mov	x29, sp
	str	x19, [sp, 16]
	.cfi_offset 19, -80
	str	x0, [sp, 56]
	str	w1, [sp, 52]
	str	x2, [sp, 40]
	adrp	x0, :got:__stack_chk_guard
	ldr	x0, [x0, #:got_lo12:__stack_chk_guard]
	ldr	x1, [x0]
	str	x1, [sp, 88]
	mov	x1, 0
	ldr	x0, [sp, 40]
	bl	_ZNKSt15error_condition8categoryEv
	mov	x2, x0
	ldr	x0, [sp, 56]
	mov	x1, x0
	mov	x0, x2
	bl	_ZNKSt3_V214error_categoryeqERKS0_
	and	w0, w0, 255
	cmp	w0, 0
	beq	.L219
	ldr	x0, [sp, 40]
	bl	_ZNKSt15error_condition5valueEv
	mov	w3, w0
	ldr	x0, [sp, 56]
	ldr	x1, [x0, 8]
	add	x0, sp, 72
	mov	x2, x1
	mov	w1, w3
	bl	_ZN5boost6system15error_conditionC1EiRKNS0_14error_categoryE
	ldr	x0, [sp, 56]
	ldr	x0, [x0, 8]
	ldr	x0, [x0]
	add	x0, x0, 16
	ldr	x3, [x0]
	ldr	x0, [sp, 56]
	ldr	x0, [x0, 8]
	add	x1, sp, 72
	mov	x2, x1
	ldr	w1, [sp, 52]
	blr	x3
	and	w0, w0, 255
	b	.L220
.L219:
	ldr	x0, [sp, 40]
	bl	_ZNKSt15error_condition8categoryEv
	mov	x19, x0
	bl	_ZNSt3_V216generic_categoryEv
	mov	x1, x0
	mov	x0, x19
	bl	_ZNKSt3_V214error_categoryeqERKS0_
	and	w0, w0, 255
	cmp	w0, 0
	bne	.L221
	ldr	x0, [sp, 40]
	bl	_ZNKSt15error_condition8categoryEv
	mov	x19, x0
	bl	_ZN5boost6system16generic_categoryEv
	bl	_ZNK5boost6system14error_categorycvRKNSt3_V214error_categoryEEv
	mov	x1, x0
	mov	x0, x19
	bl	_ZNKSt3_V214error_categoryeqERKS0_
	and	w0, w0, 255
	cmp	w0, 0
	beq	.L222
.L221:
	mov	w0, 1
	b	.L223
.L222:
	mov	w0, 0
.L223:
	cmp	w0, 0
	beq	.L224
	ldr	x0, [sp, 40]
	bl	_ZNKSt15error_condition5valueEv
	mov	w19, w0
	bl	_ZN5boost6system16generic_categoryEv
	mov	x1, x0
	add	x0, sp, 72
	mov	x2, x1
	mov	w1, w19
	bl	_ZN5boost6system15error_conditionC1EiRKNS0_14error_categoryE
	ldr	x0, [sp, 56]
	ldr	x0, [x0, 8]
	ldr	x0, [x0]
	add	x0, x0, 16
	ldr	x3, [x0]
	ldr	x0, [sp, 56]
	ldr	x0, [x0, 8]
	add	x1, sp, 72
	mov	x2, x1
	ldr	w1, [sp, 52]
	blr	x3
	and	w0, w0, 255
	b	.L220
.L224:
	ldr	x0, [sp, 40]
	bl	_ZNKSt15error_condition8categoryEv
	cmp	x0, 0
	beq	.L225
	mov	x3, 0
	adrp	x1, _ZTIN5boost6system6detail12std_categoryE
	add	x2, x1, :lo12:_ZTIN5boost6system6detail12std_categoryE
	adrp	x1, :got:_ZTINSt3_V214error_categoryE
	ldr	x1, [x1, #:got_lo12:_ZTINSt3_V214error_categoryE]
	bl	__dynamic_cast
	b	.L226
.L225:
	mov	x0, 0
.L226:
	str	x0, [sp, 64]
	ldr	x0, [sp, 64]
	cmp	x0, 0
	beq	.L227
	ldr	x0, [sp, 40]
	bl	_ZNKSt15error_condition5valueEv
	mov	w3, w0
	ldr	x0, [sp, 64]
	ldr	x1, [x0, 8]
	add	x0, sp, 72
	mov	x2, x1
	mov	w1, w3
	bl	_ZN5boost6system15error_conditionC1EiRKNS0_14error_categoryE
	ldr	x0, [sp, 56]
	ldr	x0, [x0, 8]
	ldr	x0, [x0]
	add	x0, x0, 16
	ldr	x3, [x0]
	ldr	x0, [sp, 56]
	ldr	x0, [x0, 8]
	add	x1, sp, 72
	mov	x2, x1
	ldr	w1, [sp, 52]
	blr	x3
	and	w0, w0, 255
	b	.L220
.L227:
	ldr	x0, [sp, 56]
	ldr	x0, [x0]
	add	x0, x0, 40
	ldr	x2, [x0]
	ldr	w1, [sp, 52]
	ldr	x0, [sp, 56]
	blr	x2
	stp	x0, x1, [sp, 72]
	add	x0, sp, 72
	ldr	x1, [sp, 40]
	bl	_ZSteqRKSt15error_conditionS1_
	and	w0, w0, 255
	nop
.L220:
	mov	w1, w0
	adrp	x0, :got:__stack_chk_guard
	ldr	x0, [x0, #:got_lo12:__stack_chk_guard]
	ldr	x3, [sp, 88]
	ldr	x2, [x0]
	subs	x3, x3, x2
	mov	x2, 0
	beq	.L228
	bl	__stack_chk_fail
.L228:
	mov	w0, w1
	ldr	x19, [sp, 16]
	ldp	x29, x30, [sp], 96
	.cfi_restore 30
	.cfi_restore 29
	.cfi_restore 19
	.cfi_def_cfa_offset 0
	ret
	.cfi_endproc
.LFE4782:
	.section	.gcc_except_table._ZNK5boost6system6detail12std_category10equivalentEiRKSt15error_condition,"aG",@progbits,_ZNK5boost6system6detail12std_category10equivalentEiRKSt15error_condition,comdat
.LLSDA4782:
	.byte	0xff
	.byte	0xff
	.byte	0x1
	.uleb128 .LLSDACSE4782-.LLSDACSB4782
.LLSDACSB4782:
.LLSDACSE4782:
	.section	.text._ZNK5boost6system6detail12std_category10equivalentEiRKSt15error_condition,"axG",@progbits,_ZNK5boost6system6detail12std_category10equivalentEiRKSt15error_condition,comdat
	.size	_ZNK5boost6system6detail12std_category10equivalentEiRKSt15error_condition, .-_ZNK5boost6system6detail12std_category10equivalentEiRKSt15error_condition
	.section	.text._ZNK5boost6system6detail12std_category10equivalentERKSt10error_codei,"axG",@progbits,_ZNK5boost6system6detail12std_category10equivalentERKSt10error_codei,comdat
	.align	2
	.weak	_ZNK5boost6system6detail12std_category10equivalentERKSt10error_codei
	.type	_ZNK5boost6system6detail12std_category10equivalentERKSt10error_codei, %function
_ZNK5boost6system6detail12std_category10equivalentERKSt10error_codei:
.LFB4783:
	.cfi_startproc
	.cfi_personality 0x9b,DW.ref.__gxx_personality_v0
	.cfi_lsda 0x1b,.LLSDA4783
	stp	x29, x30, [sp, -96]!
	.cfi_def_cfa_offset 96
	.cfi_offset 29, -96
	.cfi_offset 30, -88
	mov	x29, sp
	str	x19, [sp, 16]
	.cfi_offset 19, -80
	str	x0, [sp, 56]
	str	x1, [sp, 48]
	str	w2, [sp, 44]
	adrp	x0, :got:__stack_chk_guard
	ldr	x0, [x0, #:got_lo12:__stack_chk_guard]
	ldr	x1, [x0]
	str	x1, [sp, 88]
	mov	x1, 0
	ldr	x0, [sp, 48]
	bl	_ZNKSt10error_code8categoryEv
	mov	x2, x0
	ldr	x0, [sp, 56]
	mov	x1, x0
	mov	x0, x2
	bl	_ZNKSt3_V214error_categoryeqERKS0_
	and	w0, w0, 255
	cmp	w0, 0
	beq	.L230
	ldr	x0, [sp, 48]
	bl	_ZNKSt10error_code5valueEv
	mov	w3, w0
	ldr	x0, [sp, 56]
	ldr	x1, [x0, 8]
	add	x0, sp, 72
	mov	x2, x1
	mov	w1, w3
	bl	_ZN5boost6system10error_codeC1EiRKNS0_14error_categoryE
	ldr	x0, [sp, 56]
	ldr	x0, [x0, 8]
	ldr	x0, [x0]
	add	x0, x0, 24
	ldr	x3, [x0]
	ldr	x0, [sp, 56]
	ldr	x0, [x0, 8]
	add	x1, sp, 72
	ldr	w2, [sp, 44]
	blr	x3
	and	w0, w0, 255
	b	.L231
.L230:
	ldr	x0, [sp, 48]
	bl	_ZNKSt10error_code8categoryEv
	mov	x19, x0
	bl	_ZNSt3_V216generic_categoryEv
	mov	x1, x0
	mov	x0, x19
	bl	_ZNKSt3_V214error_categoryeqERKS0_
	and	w0, w0, 255
	cmp	w0, 0
	bne	.L232
	ldr	x0, [sp, 48]
	bl	_ZNKSt10error_code8categoryEv
	mov	x19, x0
	bl	_ZN5boost6system16generic_categoryEv
	bl	_ZNK5boost6system14error_categorycvRKNSt3_V214error_categoryEEv
	mov	x1, x0
	mov	x0, x19
	bl	_ZNKSt3_V214error_categoryeqERKS0_
	and	w0, w0, 255
	cmp	w0, 0
	beq	.L233
.L232:
	mov	w0, 1
	b	.L234
.L233:
	mov	w0, 0
.L234:
	cmp	w0, 0
	beq	.L235
	ldr	x0, [sp, 48]
	bl	_ZNKSt10error_code5valueEv
	mov	w19, w0
	bl	_ZN5boost6system16generic_categoryEv
	mov	x1, x0
	add	x0, sp, 72
	mov	x2, x1
	mov	w1, w19
	bl	_ZN5boost6system10error_codeC1EiRKNS0_14error_categoryE
	ldr	x0, [sp, 56]
	ldr	x0, [x0, 8]
	ldr	x0, [x0]
	add	x0, x0, 24
	ldr	x3, [x0]
	ldr	x0, [sp, 56]
	ldr	x0, [x0, 8]
	add	x1, sp, 72
	ldr	w2, [sp, 44]
	blr	x3
	and	w0, w0, 255
	b	.L231
.L235:
	ldr	x0, [sp, 48]
	bl	_ZNKSt10error_code8categoryEv
	cmp	x0, 0
	beq	.L236
	mov	x3, 0
	adrp	x1, _ZTIN5boost6system6detail12std_categoryE
	add	x2, x1, :lo12:_ZTIN5boost6system6detail12std_categoryE
	adrp	x1, :got:_ZTINSt3_V214error_categoryE
	ldr	x1, [x1, #:got_lo12:_ZTINSt3_V214error_categoryE]
	bl	__dynamic_cast
	b	.L237
.L236:
	mov	x0, 0
.L237:
	str	x0, [sp, 64]
	ldr	x0, [sp, 64]
	cmp	x0, 0
	beq	.L238
	ldr	x0, [sp, 48]
	bl	_ZNKSt10error_code5valueEv
	mov	w3, w0
	ldr	x0, [sp, 64]
	ldr	x1, [x0, 8]
	add	x0, sp, 72
	mov	x2, x1
	mov	w1, w3
	bl	_ZN5boost6system10error_codeC1EiRKNS0_14error_categoryE
	ldr	x0, [sp, 56]
	ldr	x0, [x0, 8]
	ldr	x0, [x0]
	add	x0, x0, 24
	ldr	x3, [x0]
	ldr	x0, [sp, 56]
	ldr	x0, [x0, 8]
	add	x1, sp, 72
	ldr	w2, [sp, 44]
	blr	x3
	and	w0, w0, 255
	b	.L231
.L238:
	ldr	x0, [sp, 56]
	ldr	x19, [x0, 8]
	bl	_ZN5boost6system16generic_categoryEv
	mov	x1, x0
	mov	x0, x19
	bl	_ZNK5boost6system14error_categoryeqERKS1_
	and	w0, w0, 255
	cmp	w0, 0
	beq	.L239
	bl	_ZNSt3_V216generic_categoryEv
	bl	_ZNSt3_V216generic_categoryEv
	ldr	x0, [x0]
	add	x0, x0, 56
	ldr	x19, [x0]
	bl	_ZNSt3_V216generic_categoryEv
	ldr	w2, [sp, 44]
	ldr	x1, [sp, 48]
	blr	x19
	and	w0, w0, 255
	b	.L231
.L239:
	mov	w0, 0
.L231:
	mov	w1, w0
	adrp	x0, :got:__stack_chk_guard
	ldr	x0, [x0, #:got_lo12:__stack_chk_guard]
	ldr	x3, [sp, 88]
	ldr	x2, [x0]
	subs	x3, x3, x2
	mov	x2, 0
	beq	.L240
	bl	__stack_chk_fail
.L240:
	mov	w0, w1
	ldr	x19, [sp, 16]
	ldp	x29, x30, [sp], 96
	.cfi_restore 30
	.cfi_restore 29
	.cfi_restore 19
	.cfi_def_cfa_offset 0
	ret
	.cfi_endproc
.LFE4783:
	.section	.gcc_except_table._ZNK5boost6system6detail12std_category10equivalentERKSt10error_codei,"aG",@progbits,_ZNK5boost6system6detail12std_category10equivalentERKSt10error_codei,comdat
.LLSDA4783:
	.byte	0xff
	.byte	0xff
	.byte	0x1
	.uleb128 .LLSDACSE4783-.LLSDACSB4783
.LLSDACSB4783:
.LLSDACSE4783:
	.section	.text._ZNK5boost6system6detail12std_category10equivalentERKSt10error_codei,"axG",@progbits,_ZNK5boost6system6detail12std_category10equivalentERKSt10error_codei,comdat
	.size	_ZNK5boost6system6detail12std_category10equivalentERKSt10error_codei, .-_ZNK5boost6system6detail12std_category10equivalentERKSt10error_codei
	.section	.text._ZNK5boost6system14error_categorycvRKNSt3_V214error_categoryEEv,"axG",@progbits,_ZNK5boost6system14error_categorycvRKNSt3_V214error_categoryEEv,comdat
	.align	2
	.weak	_ZNK5boost6system14error_categorycvRKNSt3_V214error_categoryEEv
	.type	_ZNK5boost6system14error_categorycvRKNSt3_V214error_categoryEEv, %function
_ZNK5boost6system14error_categorycvRKNSt3_V214error_categoryEEv:
.LFB4784:
	.cfi_startproc
	stp	x29, x30, [sp, -32]!
	.cfi_def_cfa_offset 32
	.cfi_offset 29, -32
	.cfi_offset 30, -24
	mov	x29, sp
	str	x0, [sp, 24]
	ldr	x0, [sp, 24]
	bl	_ZN5boost6system6detail15to_std_categoryERKNS0_14error_categoryE
	ldp	x29, x30, [sp], 32
	.cfi_restore 30
	.cfi_restore 29
	.cfi_def_cfa_offset 0
	ret
	.cfi_endproc
.LFE4784:
	.size	_ZNK5boost6system14error_categorycvRKNSt3_V214error_categoryEEv, .-_ZNK5boost6system14error_categorycvRKNSt3_V214error_categoryEEv
	.section	.text._ZN5boost4asio6detail11throw_errorERKNS_6system10error_codeE,"axG",@progbits,_ZN5boost4asio6detail11throw_errorERKNS_6system10error_codeE,comdat
	.align	2
	.weak	_ZN5boost4asio6detail11throw_errorERKNS_6system10error_codeE
	.type	_ZN5boost4asio6detail11throw_errorERKNS_6system10error_codeE, %function
_ZN5boost4asio6detail11throw_errorERKNS_6system10error_codeE:
.LFB4785:
	.cfi_startproc
	stp	x29, x30, [sp, -32]!
	.cfi_def_cfa_offset 32
	.cfi_offset 29, -32
	.cfi_offset 30, -24
	mov	x29, sp
	str	x0, [sp, 24]
	ldr	x0, [sp, 24]
	bl	_ZNK5boost6system10error_codecvbEv
	and	w0, w0, 255
	cmp	w0, 0
	beq	.L245
	ldr	x0, [sp, 24]
	bl	_ZN5boost4asio6detail14do_throw_errorERKNS_6system10error_codeE
.L245:
	nop
	ldp	x29, x30, [sp], 32
	.cfi_restore 30
	.cfi_restore 29
	.cfi_def_cfa_offset 0
	ret
	.cfi_endproc
.LFE4785:
	.size	_ZN5boost4asio6detail11throw_errorERKNS_6system10error_codeE, .-_ZN5boost4asio6detail11throw_errorERKNS_6system10error_codeE
	.section	.text._ZN5boost4asio6detail11throw_errorERKNS_6system10error_codeEPKc,"axG",@progbits,_ZN5boost4asio6detail11throw_errorERKNS_6system10error_codeEPKc,comdat
	.align	2
	.weak	_ZN5boost4asio6detail11throw_errorERKNS_6system10error_codeEPKc
	.type	_ZN5boost4asio6detail11throw_errorERKNS_6system10error_codeEPKc, %function
_ZN5boost4asio6detail11throw_errorERKNS_6system10error_codeEPKc:
.LFB4786:
	.cfi_startproc
	stp	x29, x30, [sp, -32]!
	.cfi_def_cfa_offset 32
	.cfi_offset 29, -32
	.cfi_offset 30, -24
	mov	x29, sp
	str	x0, [sp, 24]
	str	x1, [sp, 16]
	ldr	x0, [sp, 24]
	bl	_ZNK5boost6system10error_codecvbEv
	and	w0, w0, 255
	cmp	w0, 0
	beq	.L248
	ldr	x1, [sp, 16]
	ldr	x0, [sp, 24]
	bl	_ZN5boost4asio6detail14do_throw_errorERKNS_6system10error_codeEPKc
.L248:
	nop
	ldp	x29, x30, [sp], 32
	.cfi_restore 30
	.cfi_restore 29
	.cfi_def_cfa_offset 0
	ret
	.cfi_endproc
.LFE4786:
	.size	_ZN5boost4asio6detail11throw_errorERKNS_6system10error_codeEPKc, .-_ZN5boost4asio6detail11throw_errorERKNS_6system10error_codeEPKc
	.section	.text._ZN5boost36throw_exception_assert_compatibilityERKSt9exception,"axG",@progbits,_ZN5boost36throw_exception_assert_compatibilityERKSt9exception,comdat
	.align	2
	.weak	_ZN5boost36throw_exception_assert_compatibilityERKSt9exception
	.type	_ZN5boost36throw_exception_assert_compatibilityERKSt9exception, %function
_ZN5boost36throw_exception_assert_compatibilityERKSt9exception:
.LFB4799:
	.cfi_startproc
	sub	sp, sp, #16
	.cfi_def_cfa_offset 16
	str	x0, [sp, 8]
	nop
	add	sp, sp, 16
	.cfi_def_cfa_offset 0
	ret
	.cfi_endproc
.LFE4799:
	.size	_ZN5boost36throw_exception_assert_compatibilityERKSt9exception, .-_ZN5boost36throw_exception_assert_compatibilityERKSt9exception
	.section	.text._ZN5boost9exceptionC2Ev,"axG",@progbits,_ZN5boost9exceptionC5Ev,comdat
	.align	2
	.weak	_ZN5boost9exceptionC2Ev
	.type	_ZN5boost9exceptionC2Ev, %function
_ZN5boost9exceptionC2Ev:
.LFB4821:
	.cfi_startproc
	stp	x29, x30, [sp, -32]!
	.cfi_def_cfa_offset 32
	.cfi_offset 29, -32
	.cfi_offset 30, -24
	mov	x29, sp
	str	x0, [sp, 24]
	adrp	x0, _ZTVN5boost9exceptionE+16
	add	x1, x0, :lo12:_ZTVN5boost9exceptionE+16
	ldr	x0, [sp, 24]
	str	x1, [x0]
	ldr	x0, [sp, 24]
	add	x0, x0, 8
	bl	_ZN5boost16exception_detail12refcount_ptrINS0_20error_info_containerEEC1Ev
	ldr	x0, [sp, 24]
	str	xzr, [x0, 16]
	ldr	x0, [sp, 24]
	str	xzr, [x0, 24]
	ldr	x0, [sp, 24]
	mov	w1, -1
	str	w1, [x0, 32]
	nop
	ldp	x29, x30, [sp], 32
	.cfi_restore 30
	.cfi_restore 29
	.cfi_def_cfa_offset 0
	ret
	.cfi_endproc
.LFE4821:
	.size	_ZN5boost9exceptionC2Ev, .-_ZN5boost9exceptionC2Ev
	.weak	_ZN5boost9exceptionC1Ev
	.set	_ZN5boost9exceptionC1Ev,_ZN5boost9exceptionC2Ev
	.section	.text._ZN5boost9exceptionD2Ev,"axG",@progbits,_ZN5boost9exceptionD5Ev,comdat
	.align	2
	.weak	_ZN5boost9exceptionD2Ev
	.type	_ZN5boost9exceptionD2Ev, %function
_ZN5boost9exceptionD2Ev:
.LFB4824:
	.cfi_startproc
	stp	x29, x30, [sp, -32]!
	.cfi_def_cfa_offset 32
	.cfi_offset 29, -32
	.cfi_offset 30, -24
	mov	x29, sp
	str	x0, [sp, 24]
	adrp	x0, _ZTVN5boost9exceptionE+16
	add	x1, x0, :lo12:_ZTVN5boost9exceptionE+16
	ldr	x0, [sp, 24]
	str	x1, [x0]
	ldr	x0, [sp, 24]
	add	x0, x0, 8
	bl	_ZN5boost16exception_detail12refcount_ptrINS0_20error_info_containerEED1Ev
	nop
	ldp	x29, x30, [sp], 32
	.cfi_restore 30
	.cfi_restore 29
	.cfi_def_cfa_offset 0
	ret
	.cfi_endproc
.LFE4824:
	.size	_ZN5boost9exceptionD2Ev, .-_ZN5boost9exceptionD2Ev
	.weak	_ZN5boost9exceptionD1Ev
	.set	_ZN5boost9exceptionD1Ev,_ZN5boost9exceptionD2Ev
	.section	.text._ZN5boost9exceptionD0Ev,"axG",@progbits,_ZN5boost9exceptionD5Ev,comdat
	.align	2
	.weak	_ZN5boost9exceptionD0Ev
	.type	_ZN5boost9exceptionD0Ev, %function
_ZN5boost9exceptionD0Ev:
.LFB4826:
	.cfi_startproc
	stp	x29, x30, [sp, -32]!
	.cfi_def_cfa_offset 32
	.cfi_offset 29, -32
	.cfi_offset 30, -24
	mov	x29, sp
	str	x0, [sp, 24]
	ldr	x0, [sp, 24]
	bl	_ZN5boost9exceptionD1Ev
	mov	x1, 40
	ldr	x0, [sp, 24]
	bl	_ZdlPvm
	ldp	x29, x30, [sp], 32
	.cfi_restore 30
	.cfi_restore 29
	.cfi_def_cfa_offset 0
	ret
	.cfi_endproc
.LFE4826:
	.size	_ZN5boost9exceptionD0Ev, .-_ZN5boost9exceptionD0Ev
	.section	.text._ZN5boost16exception_detail10clone_baseD2Ev,"axG",@progbits,_ZN5boost16exception_detail10clone_baseD5Ev,comdat
	.align	2
	.weak	_ZN5boost16exception_detail10clone_baseD2Ev
	.type	_ZN5boost16exception_detail10clone_baseD2Ev, %function
_ZN5boost16exception_detail10clone_baseD2Ev:
.LFB4834:
	.cfi_startproc
	sub	sp, sp, #16
	.cfi_def_cfa_offset 16
	str	x0, [sp, 8]
	adrp	x0, _ZTVN5boost16exception_detail10clone_baseE+16
	add	x1, x0, :lo12:_ZTVN5boost16exception_detail10clone_baseE+16
	ldr	x0, [sp, 8]
	str	x1, [x0]
	nop
	add	sp, sp, 16
	.cfi_def_cfa_offset 0
	ret
	.cfi_endproc
.LFE4834:
	.size	_ZN5boost16exception_detail10clone_baseD2Ev, .-_ZN5boost16exception_detail10clone_baseD2Ev
	.weak	_ZN5boost16exception_detail10clone_baseD1Ev
	.set	_ZN5boost16exception_detail10clone_baseD1Ev,_ZN5boost16exception_detail10clone_baseD2Ev
	.section	.text._ZN5boost16exception_detail10clone_baseD0Ev,"axG",@progbits,_ZN5boost16exception_detail10clone_baseD5Ev,comdat
	.align	2
	.weak	_ZN5boost16exception_detail10clone_baseD0Ev
	.type	_ZN5boost16exception_detail10clone_baseD0Ev, %function
_ZN5boost16exception_detail10clone_baseD0Ev:
.LFB4836:
	.cfi_startproc
	stp	x29, x30, [sp, -32]!
	.cfi_def_cfa_offset 32
	.cfi_offset 29, -32
	.cfi_offset 30, -24
	mov	x29, sp
	str	x0, [sp, 24]
	ldr	x0, [sp, 24]
	bl	_ZN5boost16exception_detail10clone_baseD1Ev
	mov	x1, 8
	ldr	x0, [sp, 24]
	bl	_ZdlPvm
	ldp	x29, x30, [sp], 32
	.cfi_restore 30
	.cfi_restore 29
	.cfi_def_cfa_offset 0
	ret
	.cfi_endproc
.LFE4836:
	.size	_ZN5boost16exception_detail10clone_baseD0Ev, .-_ZN5boost16exception_detail10clone_baseD0Ev
	.section	.text._ZN5boost16exception_detail20copy_boost_exceptionEPNS_9exceptionEPKS1_,"axG",@progbits,_ZN5boost16exception_detail20copy_boost_exceptionEPNS_9exceptionEPKS1_,comdat
	.align	2
	.weak	_ZN5boost16exception_detail20copy_boost_exceptionEPNS_9exceptionEPKS1_
	.type	_ZN5boost16exception_detail20copy_boost_exceptionEPNS_9exceptionEPKS1_, %function
_ZN5boost16exception_detail20copy_boost_exceptionEPNS_9exceptionEPKS1_:
.LFB4837:
	.cfi_startproc
	.cfi_personality 0x9b,DW.ref.__gxx_personality_v0
	.cfi_lsda 0x1b,.LLSDA4837
	stp	x29, x30, [sp, -80]!
	.cfi_def_cfa_offset 80
	.cfi_offset 29, -80
	.cfi_offset 30, -72
	mov	x29, sp
	str	x19, [sp, 16]
	.cfi_offset 19, -64
	str	x0, [sp, 40]
	str	x1, [sp, 32]
	adrp	x0, :got:__stack_chk_guard
	ldr	x0, [x0, #:got_lo12:__stack_chk_guard]
	ldr	x1, [x0]
	str	x1, [sp, 72]
	mov	x1, 0
	add	x0, sp, 48
	bl	_ZN5boost16exception_detail12refcount_ptrINS0_20error_info_containerEEC1Ev
	ldr	x0, [sp, 32]
	add	x0, x0, 8
	bl	_ZNK5boost16exception_detail12refcount_ptrINS0_20error_info_containerEE3getEv
	str	x0, [sp, 64]
	ldr	x0, [sp, 64]
	cmp	x0, 0
	beq	.L256
	ldr	x0, [sp, 64]
	ldr	x0, [x0]
	add	x0, x0, 40
	ldr	x1, [x0]
	add	x0, sp, 56
	mov	x8, x0
	ldr	x0, [sp, 64]
.LEHB7:
	blr	x1
.LEHE7:
	add	x1, sp, 56
	add	x0, sp, 48
.LEHB8:
	bl	_ZN5boost16exception_detail12refcount_ptrINS0_20error_info_containerEEaSERKS3_
.LEHE8:
	add	x0, sp, 56
	bl	_ZN5boost16exception_detail12refcount_ptrINS0_20error_info_containerEED1Ev
.L256:
	ldr	x0, [sp, 32]
	ldr	x1, [x0, 24]
	ldr	x0, [sp, 40]
	str	x1, [x0, 24]
	ldr	x0, [sp, 32]
	ldr	w1, [x0, 32]
	ldr	x0, [sp, 40]
	str	w1, [x0, 32]
	ldr	x0, [sp, 32]
	ldr	x1, [x0, 16]
	ldr	x0, [sp, 40]
	str	x1, [x0, 16]
	ldr	x0, [sp, 40]
	add	x0, x0, 8
	add	x1, sp, 48
.LEHB9:
	bl	_ZN5boost16exception_detail12refcount_ptrINS0_20error_info_containerEEaSERKS3_
.LEHE9:
	add	x0, sp, 48
	bl	_ZN5boost16exception_detail12refcount_ptrINS0_20error_info_containerEED1Ev
	adrp	x0, :got:__stack_chk_guard
	ldr	x0, [x0, #:got_lo12:__stack_chk_guard]
	ldr	x2, [sp, 72]
	ldr	x1, [x0]
	subs	x2, x2, x1
	mov	x1, 0
	beq	.L259
	b	.L262
.L261:
	mov	x19, x0
	add	x0, sp, 56
	bl	_ZN5boost16exception_detail12refcount_ptrINS0_20error_info_containerEED1Ev
	b	.L258
.L260:
	mov	x19, x0
.L258:
	add	x0, sp, 48
	bl	_ZN5boost16exception_detail12refcount_ptrINS0_20error_info_containerEED1Ev
	mov	x0, x19
.LEHB10:
	bl	_Unwind_Resume
.LEHE10:
.L262:
	bl	__stack_chk_fail
.L259:
	ldr	x19, [sp, 16]
	ldp	x29, x30, [sp], 80
	.cfi_restore 30
	.cfi_restore 29
	.cfi_restore 19
	.cfi_def_cfa_offset 0
	ret
	.cfi_endproc
.LFE4837:
	.section	.gcc_except_table._ZN5boost16exception_detail20copy_boost_exceptionEPNS_9exceptionEPKS1_,"aG",@progbits,_ZN5boost16exception_detail20copy_boost_exceptionEPNS_9exceptionEPKS1_,comdat
.LLSDA4837:
	.byte	0xff
	.byte	0xff
	.byte	0x1
	.uleb128 .LLSDACSE4837-.LLSDACSB4837
.LLSDACSB4837:
	.uleb128 .LEHB7-.LFB4837
	.uleb128 .LEHE7-.LEHB7
	.uleb128 .L260-.LFB4837
	.uleb128 0
	.uleb128 .LEHB8-.LFB4837
	.uleb128 .LEHE8-.LEHB8
	.uleb128 .L261-.LFB4837
	.uleb128 0
	.uleb128 .LEHB9-.LFB4837
	.uleb128 .LEHE9-.LEHB9
	.uleb128 .L260-.LFB4837
	.uleb128 0
	.uleb128 .LEHB10-.LFB4837
	.uleb128 .LEHE10-.LEHB10
	.uleb128 0
	.uleb128 0
.LLSDACSE4837:
	.section	.text._ZN5boost16exception_detail20copy_boost_exceptionEPNS_9exceptionEPKS1_,"axG",@progbits,_ZN5boost16exception_detail20copy_boost_exceptionEPNS_9exceptionEPKS1_,comdat
	.size	_ZN5boost16exception_detail20copy_boost_exceptionEPNS_9exceptionEPKS1_, .-_ZN5boost16exception_detail20copy_boost_exceptionEPNS_9exceptionEPKS1_
	.section	.rodata
	.align	3
.LC3:
	.string	""
	.section	.text._ZN5boost6system12system_errorC2ENS0_10error_codeE,"axG",@progbits,_ZN5boost6system12system_errorC5ENS0_10error_codeE,comdat
	.align	2
	.weak	_ZN5boost6system12system_errorC2ENS0_10error_codeE
	.type	_ZN5boost6system12system_errorC2ENS0_10error_codeE, %function
_ZN5boost6system12system_errorC2ENS0_10error_codeE:
.LFB4856:
	.cfi_startproc
	stp	x29, x30, [sp, -48]!
	.cfi_def_cfa_offset 48
	.cfi_offset 29, -48
	.cfi_offset 30, -40
	mov	x29, sp
	str	x0, [sp, 40]
	stp	x1, x2, [sp, 24]
	ldr	x2, [sp, 40]
	adrp	x0, .LC3
	add	x1, x0, :lo12:.LC3
	mov	x0, x2
	bl	_ZNSt13runtime_errorC2EPKc
	adrp	x0, _ZTVN5boost6system12system_errorE+16
	add	x1, x0, :lo12:_ZTVN5boost6system12system_errorE+16
	ldr	x0, [sp, 40]
	str	x1, [x0]
	ldr	x2, [sp, 40]
	ldp	x0, x1, [sp, 24]
	stp	x0, x1, [x2, 16]
	ldr	x0, [sp, 40]
	add	x0, x0, 32
	bl	_ZNSt7__cxx1112basic_stringIcSt11char_traitsIcESaIcEEC1Ev
	nop
	ldp	x29, x30, [sp], 48
	.cfi_restore 30
	.cfi_restore 29
	.cfi_def_cfa_offset 0
	ret
	.cfi_endproc
.LFE4856:
	.size	_ZN5boost6system12system_errorC2ENS0_10error_codeE, .-_ZN5boost6system12system_errorC2ENS0_10error_codeE
	.weak	_ZN5boost6system12system_errorC1ENS0_10error_codeE
	.set	_ZN5boost6system12system_errorC1ENS0_10error_codeE,_ZN5boost6system12system_errorC2ENS0_10error_codeE
	.section	.text._ZN5boost6system12system_errorC2ENS0_10error_codeEPKc,"axG",@progbits,_ZN5boost6system12system_errorC5ENS0_10error_codeEPKc,comdat
	.align	2
	.weak	_ZN5boost6system12system_errorC2ENS0_10error_codeEPKc
	.type	_ZN5boost6system12system_errorC2ENS0_10error_codeEPKc, %function
_ZN5boost6system12system_errorC2ENS0_10error_codeEPKc:
.LFB4862:
	.cfi_startproc
	stp	x29, x30, [sp, -48]!
	.cfi_def_cfa_offset 48
	.cfi_offset 29, -48
	.cfi_offset 30, -40
	mov	x29, sp
	str	x0, [sp, 40]
	stp	x1, x2, [sp, 24]
	str	x3, [sp, 16]
	ldr	x0, [sp, 40]
	ldr	x1, [sp, 16]
	bl	_ZNSt13runtime_errorC2EPKc
	adrp	x0, _ZTVN5boost6system12system_errorE+16
	add	x1, x0, :lo12:_ZTVN5boost6system12system_errorE+16
	ldr	x0, [sp, 40]
	str	x1, [x0]
	ldr	x2, [sp, 40]
	ldp	x0, x1, [sp, 24]
	stp	x0, x1, [x2, 16]
	ldr	x0, [sp, 40]
	add	x0, x0, 32
	bl	_ZNSt7__cxx1112basic_stringIcSt11char_traitsIcESaIcEEC1Ev
	nop
	ldp	x29, x30, [sp], 48
	.cfi_restore 30
	.cfi_restore 29
	.cfi_def_cfa_offset 0
	ret
	.cfi_endproc
.LFE4862:
	.size	_ZN5boost6system12system_errorC2ENS0_10error_codeEPKc, .-_ZN5boost6system12system_errorC2ENS0_10error_codeEPKc
	.weak	_ZN5boost6system12system_errorC1ENS0_10error_codeEPKc
	.set	_ZN5boost6system12system_errorC1ENS0_10error_codeEPKc,_ZN5boost6system12system_errorC2ENS0_10error_codeEPKc
	.section	.text._ZN5boost6system12system_errorD2Ev,"axG",@progbits,_ZN5boost6system12system_errorD5Ev,comdat
	.align	2
	.weak	_ZN5boost6system12system_errorD2Ev
	.type	_ZN5boost6system12system_errorD2Ev, %function
_ZN5boost6system12system_errorD2Ev:
.LFB4874:
	.cfi_startproc
	stp	x29, x30, [sp, -32]!
	.cfi_def_cfa_offset 32
	.cfi_offset 29, -32
	.cfi_offset 30, -24
	mov	x29, sp
	str	x0, [sp, 24]
	adrp	x0, _ZTVN5boost6system12system_errorE+16
	add	x1, x0, :lo12:_ZTVN5boost6system12system_errorE+16
	ldr	x0, [sp, 24]
	str	x1, [x0]
	ldr	x0, [sp, 24]
	add	x0, x0, 32
	bl	_ZNSt7__cxx1112basic_stringIcSt11char_traitsIcESaIcEED1Ev
	ldr	x0, [sp, 24]
	bl	_ZNSt13runtime_errorD2Ev
	nop
	ldp	x29, x30, [sp], 32
	.cfi_restore 30
	.cfi_restore 29
	.cfi_def_cfa_offset 0
	ret
	.cfi_endproc
.LFE4874:
	.size	_ZN5boost6system12system_errorD2Ev, .-_ZN5boost6system12system_errorD2Ev
	.weak	_ZN5boost6system12system_errorD1Ev
	.set	_ZN5boost6system12system_errorD1Ev,_ZN5boost6system12system_errorD2Ev
	.section	.text._ZN5boost6system12system_errorD0Ev,"axG",@progbits,_ZN5boost6system12system_errorD5Ev,comdat
	.align	2
	.weak	_ZN5boost6system12system_errorD0Ev
	.type	_ZN5boost6system12system_errorD0Ev, %function
_ZN5boost6system12system_errorD0Ev:
.LFB4876:
	.cfi_startproc
	stp	x29, x30, [sp, -32]!
	.cfi_def_cfa_offset 32
	.cfi_offset 29, -32
	.cfi_offset 30, -24
	mov	x29, sp
	str	x0, [sp, 24]
	ldr	x0, [sp, 24]
	bl	_ZN5boost6system12system_errorD1Ev
	mov	x1, 64
	ldr	x0, [sp, 24]
	bl	_ZdlPvm
	ldp	x29, x30, [sp], 32
	.cfi_restore 30
	.cfi_restore 29
	.cfi_def_cfa_offset 0
	ret
	.cfi_endproc
.LFE4876:
	.size	_ZN5boost6system12system_errorD0Ev, .-_ZN5boost6system12system_errorD0Ev
	.section	.rodata
	.align	3
.LC4:
	.string	": "
	.section	.text._ZNK5boost6system12system_error4whatEv,"axG",@progbits,_ZNK5boost6system12system_error4whatEv,comdat
	.align	2
	.weak	_ZNK5boost6system12system_error4whatEv
	.type	_ZNK5boost6system12system_error4whatEv, %function
_ZNK5boost6system12system_error4whatEv:
.LFB4878:
	.cfi_startproc
	.cfi_personality 0x9b,DW.ref.__gxx_personality_v0
	.cfi_lsda 0x1b,.LLSDA4878
	stp	x29, x30, [sp, -96]!
	.cfi_def_cfa_offset 96
	.cfi_offset 29, -96
	.cfi_offset 30, -88
	mov	x29, sp
	str	x19, [sp, 16]
	.cfi_offset 19, -80
	str	x0, [sp, 40]
	adrp	x0, :got:__stack_chk_guard
	ldr	x0, [x0, #:got_lo12:__stack_chk_guard]
	ldr	x1, [x0]
	str	x1, [sp, 88]
	mov	x1, 0
	ldr	x0, [sp, 40]
	add	x0, x0, 32
	bl	_ZNKSt7__cxx1112basic_stringIcSt11char_traitsIcESaIcEE5emptyEv
	and	w0, w0, 255
	cmp	w0, 0
	beq	.L268
	ldr	x0, [sp, 40]
	bl	_ZNKSt13runtime_error4whatEv
	mov	x1, x0
	ldr	x0, [sp, 40]
	add	x0, x0, 32
.LEHB11:
	bl	_ZNSt7__cxx1112basic_stringIcSt11char_traitsIcESaIcEEaSEPKc
	ldr	x0, [sp, 40]
	add	x0, x0, 32
	bl	_ZNKSt7__cxx1112basic_stringIcSt11char_traitsIcESaIcEE5emptyEv
	and	w0, w0, 255
	eor	w0, w0, 1
	and	w0, w0, 255
	cmp	w0, 0
	beq	.L269
	ldr	x0, [sp, 40]
	add	x2, x0, 32
	adrp	x0, .LC4
	add	x1, x0, :lo12:.LC4
	mov	x0, x2
	bl	_ZNSt7__cxx1112basic_stringIcSt11char_traitsIcESaIcEEpLEPKc
.L269:
	ldr	x0, [sp, 40]
	add	x0, x0, 16
	add	x1, sp, 56
	mov	x8, x1
	bl	_ZNK5boost6system10error_code7messageB5cxx11Ev
.LEHE11:
	ldr	x0, [sp, 40]
	add	x0, x0, 32
	add	x1, sp, 56
.LEHB12:
	bl	_ZNSt7__cxx1112basic_stringIcSt11char_traitsIcESaIcEEpLERKS4_
.LEHE12:
	add	x0, sp, 56
	bl	_ZNSt7__cxx1112basic_stringIcSt11char_traitsIcESaIcEED1Ev
.L268:
	ldr	x0, [sp, 40]
	add	x0, x0, 32
	bl	_ZNKSt7__cxx1112basic_stringIcSt11char_traitsIcESaIcEE5c_strEv
	mov	x19, x0
	nop
.L270:
	mov	x1, x19
	adrp	x0, :got:__stack_chk_guard
	ldr	x0, [x0, #:got_lo12:__stack_chk_guard]
	ldr	x3, [sp, 88]
	ldr	x2, [x0]
	subs	x3, x3, x2
	mov	x2, 0
	beq	.L273
	b	.L276
.L275:
	mov	x19, x0
	add	x0, sp, 56
	bl	_ZNSt7__cxx1112basic_stringIcSt11char_traitsIcESaIcEED1Ev
	mov	x0, x19
	b	.L272
.L274:
.L272:
	bl	__cxa_begin_catch
	ldr	x0, [sp, 40]
	bl	_ZNKSt13runtime_error4whatEv
	mov	x19, x0
	nop
	bl	__cxa_end_catch
	b	.L270
.L276:
	bl	__stack_chk_fail
.L273:
	mov	x0, x1
	ldr	x19, [sp, 16]
	ldp	x29, x30, [sp], 96
	.cfi_restore 30
	.cfi_restore 29
	.cfi_restore 19
	.cfi_def_cfa_offset 0
	ret
	.cfi_endproc
.LFE4878:
	.section	.gcc_except_table._ZNK5boost6system12system_error4whatEv,"aG",@progbits,_ZNK5boost6system12system_error4whatEv,comdat
	.align	2
.LLSDA4878:
	.byte	0xff
	.byte	0x9b
	.uleb128 .LLSDATT4878-.LLSDATTD4878
.LLSDATTD4878:
	.byte	0x1
	.uleb128 .LLSDACSE4878-.LLSDACSB4878
.LLSDACSB4878:
	.uleb128 .LEHB11-.LFB4878
	.uleb128 .LEHE11-.LEHB11
	.uleb128 .L274-.LFB4878
	.uleb128 0x1
	.uleb128 .LEHB12-.LFB4878
	.uleb128 .LEHE12-.LEHB12
	.uleb128 .L275-.LFB4878
	.uleb128 0x3
.LLSDACSE4878:
	.byte	0x1
	.byte	0
	.byte	0
	.byte	0x7d
	.align	2
	.4byte	0

.LLSDATT4878:
	.section	.text._ZNK5boost6system12system_error4whatEv,"axG",@progbits,_ZNK5boost6system12system_error4whatEv,comdat
	.size	_ZNK5boost6system12system_error4whatEv, .-_ZNK5boost6system12system_error4whatEv
	.section	.text._ZN5boost4asio6detail14do_throw_errorERKNS_6system10error_codeE,"axG",@progbits,_ZN5boost4asio6detail14do_throw_errorERKNS_6system10error_codeE,comdat
	.align	2
	.weak	_ZN5boost4asio6detail14do_throw_errorERKNS_6system10error_codeE
	.type	_ZN5boost4asio6detail14do_throw_errorERKNS_6system10error_codeE, %function
_ZN5boost4asio6detail14do_throw_errorERKNS_6system10error_codeE:
.LFB4879:
	.cfi_startproc
	.cfi_personality 0x9b,DW.ref.__gxx_personality_v0
	.cfi_lsda 0x1b,.LLSDA4879
	stp	x29, x30, [sp, -128]!
	.cfi_def_cfa_offset 128
	.cfi_offset 29, -128
	.cfi_offset 30, -120
	mov	x29, sp
	str	x19, [sp, 16]
	.cfi_offset 19, -112
	str	x0, [sp, 40]
	adrp	x0, :got:__stack_chk_guard
	ldr	x0, [x0, #:got_lo12:__stack_chk_guard]
	ldr	x1, [x0]
	str	x1, [sp, 120]
	mov	x1, 0
	ldr	x0, [sp, 40]
	add	x3, sp, 56
	ldp	x1, x2, [x0]
	mov	x0, x3
.LEHB13:
	bl	_ZN5boost6system12system_errorC1ENS0_10error_codeE
.LEHE13:
	add	x0, sp, 56
.LEHB14:
	bl	_ZN5boost15throw_exceptionINS_6system12system_errorEEEvRKT_
.LEHE14:
.L280:
	mov	x19, x0
	add	x0, sp, 56
	bl	_ZN5boost6system12system_errorD1Ev
	mov	x0, x19
.LEHB15:
	bl	_Unwind_Resume
.LEHE15:
	.cfi_endproc
.LFE4879:
	.section	.gcc_except_table._ZN5boost4asio6detail14do_throw_errorERKNS_6system10error_codeE,"aG",@progbits,_ZN5boost4asio6detail14do_throw_errorERKNS_6system10error_codeE,comdat
.LLSDA4879:
	.byte	0xff
	.byte	0xff
	.byte	0x1
	.uleb128 .LLSDACSE4879-.LLSDACSB4879
.LLSDACSB4879:
	.uleb128 .LEHB13-.LFB4879
	.uleb128 .LEHE13-.LEHB13
	.uleb128 0
	.uleb128 0
	.uleb128 .LEHB14-.LFB4879
	.uleb128 .LEHE14-.LEHB14
	.uleb128 .L280-.LFB4879
	.uleb128 0
	.uleb128 .LEHB15-.LFB4879
	.uleb128 .LEHE15-.LEHB15
	.uleb128 0
	.uleb128 0
.LLSDACSE4879:
	.section	.text._ZN5boost4asio6detail14do_throw_errorERKNS_6system10error_codeE,"axG",@progbits,_ZN5boost4asio6detail14do_throw_errorERKNS_6system10error_codeE,comdat
	.size	_ZN5boost4asio6detail14do_throw_errorERKNS_6system10error_codeE, .-_ZN5boost4asio6detail14do_throw_errorERKNS_6system10error_codeE
	.section	.text._ZN5boost4asio6detail14do_throw_errorERKNS_6system10error_codeEPKc,"axG",@progbits,_ZN5boost4asio6detail14do_throw_errorERKNS_6system10error_codeEPKc,comdat
	.align	2
	.weak	_ZN5boost4asio6detail14do_throw_errorERKNS_6system10error_codeEPKc
	.type	_ZN5boost4asio6detail14do_throw_errorERKNS_6system10error_codeEPKc, %function
_ZN5boost4asio6detail14do_throw_errorERKNS_6system10error_codeEPKc:
.LFB4880:
	.cfi_startproc
	.cfi_personality 0x9b,DW.ref.__gxx_personality_v0
	.cfi_lsda 0x1b,.LLSDA4880
	stp	x29, x30, [sp, -128]!
	.cfi_def_cfa_offset 128
	.cfi_offset 29, -128
	.cfi_offset 30, -120
	mov	x29, sp
	str	x19, [sp, 16]
	.cfi_offset 19, -112
	str	x0, [sp, 40]
	str	x1, [sp, 32]
	adrp	x0, :got:__stack_chk_guard
	ldr	x0, [x0, #:got_lo12:__stack_chk_guard]
	ldr	x1, [x0]
	str	x1, [sp, 120]
	mov	x1, 0
	ldr	x0, [sp, 40]
	add	x4, sp, 56
	ldr	x3, [sp, 32]
	ldp	x1, x2, [x0]
	mov	x0, x4
.LEHB16:
	bl	_ZN5boost6system12system_errorC1ENS0_10error_codeEPKc
.LEHE16:
	add	x0, sp, 56
.LEHB17:
	bl	_ZN5boost15throw_exceptionINS_6system12system_errorEEEvRKT_
.LEHE17:
.L284:
	mov	x19, x0
	add	x0, sp, 56
	bl	_ZN5boost6system12system_errorD1Ev
	mov	x0, x19
.LEHB18:
	bl	_Unwind_Resume
.LEHE18:
	.cfi_endproc
.LFE4880:
	.section	.gcc_except_table._ZN5boost4asio6detail14do_throw_errorERKNS_6system10error_codeEPKc,"aG",@progbits,_ZN5boost4asio6detail14do_throw_errorERKNS_6system10error_codeEPKc,comdat
.LLSDA4880:
	.byte	0xff
	.byte	0xff
	.byte	0x1
	.uleb128 .LLSDACSE4880-.LLSDACSB4880
.LLSDACSB4880:
	.uleb128 .LEHB16-.LFB4880
	.uleb128 .LEHE16-.LEHB16
	.uleb128 0
	.uleb128 0
	.uleb128 .LEHB17-.LFB4880
	.uleb128 .LEHE17-.LEHB17
	.uleb128 .L284-.LFB4880
	.uleb128 0
	.uleb128 .LEHB18-.LFB4880
	.uleb128 .LEHE18-.LEHB18
	.uleb128 0
	.uleb128 0
.LLSDACSE4880:
	.section	.text._ZN5boost4asio6detail14do_throw_errorERKNS_6system10error_codeEPKc,"axG",@progbits,_ZN5boost4asio6detail14do_throw_errorERKNS_6system10error_codeEPKc,comdat
	.size	_ZN5boost4asio6detail14do_throw_errorERKNS_6system10error_codeEPKc, .-_ZN5boost4asio6detail14do_throw_errorERKNS_6system10error_codeEPKc
	.section	.text._ZN5boost4asio5error19get_system_categoryEv,"axG",@progbits,_ZN5boost4asio5error19get_system_categoryEv,comdat
	.align	2
	.weak	_ZN5boost4asio5error19get_system_categoryEv
	.type	_ZN5boost4asio5error19get_system_categoryEv, %function
_ZN5boost4asio5error19get_system_categoryEv:
.LFB4881:
	.cfi_startproc
	stp	x29, x30, [sp, -16]!
	.cfi_def_cfa_offset 16
	.cfi_offset 29, -16
	.cfi_offset 30, -8
	mov	x29, sp
	bl	_ZN5boost6system15system_categoryEv
	ldp	x29, x30, [sp], 16
	.cfi_restore 30
	.cfi_restore 29
	.cfi_def_cfa_offset 0
	ret
	.cfi_endproc
.LFE4881:
	.size	_ZN5boost4asio5error19get_system_categoryEv, .-_ZN5boost4asio5error19get_system_categoryEv
	.local	_ZN5boost4asio5errorL15system_categoryE
	.comm	_ZN5boost4asio5errorL15system_categoryE,8,8
	.local	_ZN5boost4asio5errorL14netdb_categoryE
	.comm	_ZN5boost4asio5errorL14netdb_categoryE,8,8
	.local	_ZN5boost4asio5errorL17addrinfo_categoryE
	.comm	_ZN5boost4asio5errorL17addrinfo_categoryE,8,8
	.local	_ZN5boost4asio5errorL13misc_categoryE
	.comm	_ZN5boost4asio5errorL13misc_categoryE,8,8
	.section	.text._ZN5boost4asio5error15make_error_codeENS1_12basic_errorsE,"axG",@progbits,_ZN5boost4asio5error15make_error_codeENS1_12basic_errorsE,comdat
	.align	2
	.weak	_ZN5boost4asio5error15make_error_codeENS1_12basic_errorsE
	.type	_ZN5boost4asio5error15make_error_codeENS1_12basic_errorsE, %function
_ZN5boost4asio5error15make_error_codeENS1_12basic_errorsE:
.LFB4882:
	.cfi_startproc
	stp	x29, x30, [sp, -80]!
	.cfi_def_cfa_offset 80
	.cfi_offset 29, -80
	.cfi_offset 30, -72
	mov	x29, sp
	str	x19, [sp, 16]
	.cfi_offset 19, -64
	str	w0, [sp, 44]
	adrp	x0, :got:__stack_chk_guard
	ldr	x0, [x0, #:got_lo12:__stack_chk_guard]
	ldr	x1, [x0]
	str	x1, [sp, 72]
	mov	x1, 0
	ldr	w19, [sp, 44]
	bl	_ZN5boost4asio5error19get_system_categoryEv
	mov	x1, x0
	add	x0, sp, 56
	mov	x2, x1
	mov	w1, w19
	bl	_ZN5boost6system10error_codeC1EiRKNS0_14error_categoryE
	ldp	x0, x1, [sp, 56]
	mov	x2, x0
	mov	x3, x1
	adrp	x0, :got:__stack_chk_guard
	ldr	x0, [x0, #:got_lo12:__stack_chk_guard]
	ldr	x4, [sp, 72]
	ldr	x1, [x0]
	subs	x4, x4, x1
	mov	x1, 0
	beq	.L289
	bl	__stack_chk_fail
.L289:
	mov	x0, x2
	mov	x1, x3
	ldr	x19, [sp, 16]
	ldp	x29, x30, [sp], 80
	.cfi_restore 30
	.cfi_restore 29
	.cfi_restore 19
	.cfi_def_cfa_offset 0
	ret
	.cfi_endproc
.LFE4882:
	.size	_ZN5boost4asio5error15make_error_codeENS1_12basic_errorsE, .-_ZN5boost4asio5error15make_error_codeENS1_12basic_errorsE
	.section	.rodata
	.align	2
	.type	_ZN5boost4asio13resolver_errcL9try_againE, %object
	.size	_ZN5boost4asio13resolver_errcL9try_againE, 4
_ZN5boost4asio13resolver_errcL9try_againE:
	.word	2
	.align	3
.LC5:
	.string	"asio.netdb"
	.section	.text._ZNK5boost4asio5error6detail14netdb_category4nameEv,"axG",@progbits,_ZNK5boost4asio5error6detail14netdb_category4nameEv,comdat
	.align	2
	.weak	_ZNK5boost4asio5error6detail14netdb_category4nameEv
	.type	_ZNK5boost4asio5error6detail14netdb_category4nameEv, %function
_ZNK5boost4asio5error6detail14netdb_category4nameEv:
.LFB4886:
	.cfi_startproc
	sub	sp, sp, #16
	.cfi_def_cfa_offset 16
	str	x0, [sp, 8]
	adrp	x0, .LC5
	add	x0, x0, :lo12:.LC5
	add	sp, sp, 16
	.cfi_def_cfa_offset 0
	ret
	.cfi_endproc
.LFE4886:
	.size	_ZNK5boost4asio5error6detail14netdb_category4nameEv, .-_ZNK5boost4asio5error6detail14netdb_category4nameEv
	.section	.rodata
	.align	3
.LC6:
	.string	"Host not found (authoritative)"
	.align	3
.LC7:
	.string	"Host not found (non-authoritative), try again later"
	.align	3
.LC8:
	.string	"The query is valid, but it does not have associated data"
	.align	3
.LC9:
	.string	"A non-recoverable error occurred during database lookup"
	.align	3
.LC10:
	.string	"asio.netdb error"
	.section	.text._ZNK5boost4asio5error6detail14netdb_category7messageB5cxx11Ei,"axG",@progbits,_ZNK5boost4asio5error6detail14netdb_category7messageB5cxx11Ei,comdat
	.align	2
	.weak	_ZNK5boost4asio5error6detail14netdb_category7messageB5cxx11Ei
	.type	_ZNK5boost4asio5error6detail14netdb_category7messageB5cxx11Ei, %function
_ZNK5boost4asio5error6detail14netdb_category7messageB5cxx11Ei:
.LFB4887:
	.cfi_startproc
	.cfi_personality 0x9b,DW.ref.__gxx_personality_v0
	.cfi_lsda 0x1b,.LLSDA4887
	stp	x29, x30, [sp, -64]!
	.cfi_def_cfa_offset 64
	.cfi_offset 29, -64
	.cfi_offset 30, -56
	mov	x29, sp
	str	x19, [sp, 16]
	.cfi_offset 19, -48
	mov	x19, x8
	str	x0, [sp, 40]
	str	w1, [sp, 36]
	adrp	x0, :got:__stack_chk_guard
	ldr	x0, [x0, #:got_lo12:__stack_chk_guard]
	ldr	x1, [x0]
	str	x1, [sp, 56]
	mov	x1, 0
	ldr	w0, [sp, 36]
	cmp	w0, 1
	bne	.L293
	add	x0, sp, 48
	bl	_ZNSaIcEC1Ev
	add	x0, sp, 48
	mov	x2, x0
	adrp	x0, .LC6
	add	x1, x0, :lo12:.LC6
	mov	x0, x19
.LEHB19:
	bl	_ZNSt7__cxx1112basic_stringIcSt11char_traitsIcESaIcEEC1IS3_EEPKcRKS3_
.LEHE19:
	add	x0, sp, 48
	bl	_ZNSaIcED1Ev
	b	.L292
.L293:
	ldr	w0, [sp, 36]
	cmp	w0, 2
	bne	.L295
	add	x0, sp, 48
	bl	_ZNSaIcEC1Ev
	add	x0, sp, 48
	mov	x2, x0
	adrp	x0, .LC7
	add	x1, x0, :lo12:.LC7
	mov	x0, x19
.LEHB20:
	bl	_ZNSt7__cxx1112basic_stringIcSt11char_traitsIcESaIcEEC1IS3_EEPKcRKS3_
.LEHE20:
	add	x0, sp, 48
	bl	_ZNSaIcED1Ev
	b	.L292
.L295:
	ldr	w0, [sp, 36]
	cmp	w0, 4
	bne	.L296
	add	x0, sp, 48
	bl	_ZNSaIcEC1Ev
	add	x0, sp, 48
	mov	x2, x0
	adrp	x0, .LC8
	add	x1, x0, :lo12:.LC8
	mov	x0, x19
.LEHB21:
	bl	_ZNSt7__cxx1112basic_stringIcSt11char_traitsIcESaIcEEC1IS3_EEPKcRKS3_
.LEHE21:
	add	x0, sp, 48
	bl	_ZNSaIcED1Ev
	b	.L292
.L296:
	ldr	w0, [sp, 36]
	cmp	w0, 3
	bne	.L297
	add	x0, sp, 48
	bl	_ZNSaIcEC1Ev
	add	x0, sp, 48
	mov	x2, x0
	adrp	x0, .LC9
	add	x1, x0, :lo12:.LC9
	mov	x0, x19
.LEHB22:
	bl	_ZNSt7__cxx1112basic_stringIcSt11char_traitsIcESaIcEEC1IS3_EEPKcRKS3_
.LEHE22:
	add	x0, sp, 48
	bl	_ZNSaIcED1Ev
	b	.L292
.L297:
	add	x0, sp, 48
	bl	_ZNSaIcEC1Ev
	add	x0, sp, 48
	mov	x2, x0
	adrp	x0, .LC10
	add	x1, x0, :lo12:.LC10
	mov	x0, x19
.LEHB23:
	bl	_ZNSt7__cxx1112basic_stringIcSt11char_traitsIcESaIcEEC1IS3_EEPKcRKS3_
.LEHE23:
	add	x0, sp, 48
	bl	_ZNSaIcED1Ev
	b	.L292
.L304:
	mov	x19, x0
	add	x0, sp, 48
	bl	_ZNSaIcED1Ev
	mov	x0, x19
.LEHB24:
	bl	_Unwind_Resume
.L305:
	mov	x19, x0
	add	x0, sp, 48
	bl	_ZNSaIcED1Ev
	mov	x0, x19
	bl	_Unwind_Resume
.L306:
	mov	x19, x0
	add	x0, sp, 48
	bl	_ZNSaIcED1Ev
	mov	x0, x19
	bl	_Unwind_Resume
.L307:
	mov	x19, x0
	add	x0, sp, 48
	bl	_ZNSaIcED1Ev
	mov	x0, x19
	bl	_Unwind_Resume
.L308:
	mov	x19, x0
	add	x0, sp, 48
	bl	_ZNSaIcED1Ev
	mov	x0, x19
	bl	_Unwind_Resume
.LEHE24:
.L292:
	adrp	x0, :got:__stack_chk_guard
	ldr	x0, [x0, #:got_lo12:__stack_chk_guard]
	ldr	x2, [sp, 56]
	ldr	x1, [x0]
	subs	x2, x2, x1
	mov	x1, 0
	beq	.L303
	bl	__stack_chk_fail
.L303:
	mov	x0, x19
	ldr	x19, [sp, 16]
	ldp	x29, x30, [sp], 64
	.cfi_restore 30
	.cfi_restore 29
	.cfi_restore 19
	.cfi_def_cfa_offset 0
	ret
	.cfi_endproc
.LFE4887:
	.section	.gcc_except_table._ZNK5boost4asio5error6detail14netdb_category7messageB5cxx11Ei,"aG",@progbits,_ZNK5boost4asio5error6detail14netdb_category7messageB5cxx11Ei,comdat
.LLSDA4887:
	.byte	0xff
	.byte	0xff
	.byte	0x1
	.uleb128 .LLSDACSE4887-.LLSDACSB4887
.LLSDACSB4887:
	.uleb128 .LEHB19-.LFB4887
	.uleb128 .LEHE19-.LEHB19
	.uleb128 .L304-.LFB4887
	.uleb128 0
	.uleb128 .LEHB20-.LFB4887
	.uleb128 .LEHE20-.LEHB20
	.uleb128 .L305-.LFB4887
	.uleb128 0
	.uleb128 .LEHB21-.LFB4887
	.uleb128 .LEHE21-.LEHB21
	.uleb128 .L306-.LFB4887
	.uleb128 0
	.uleb128 .LEHB22-.LFB4887
	.uleb128 .LEHE22-.LEHB22
	.uleb128 .L307-.LFB4887
	.uleb128 0
	.uleb128 .LEHB23-.LFB4887
	.uleb128 .LEHE23-.LEHB23
	.uleb128 .L308-.LFB4887
	.uleb128 0
	.uleb128 .LEHB24-.LFB4887
	.uleb128 .LEHE24-.LEHB24
	.uleb128 0
	.uleb128 0
.LLSDACSE4887:
	.section	.text._ZNK5boost4asio5error6detail14netdb_category7messageB5cxx11Ei,"axG",@progbits,_ZNK5boost4asio5error6detail14netdb_category7messageB5cxx11Ei,comdat
	.size	_ZNK5boost4asio5error6detail14netdb_category7messageB5cxx11Ei, .-_ZNK5boost4asio5error6detail14netdb_category7messageB5cxx11Ei
	.weak	_ZZN5boost4asio5error18get_netdb_categoryEvE8instance
	.section	.data.rel.local._ZZN5boost4asio5error18get_netdb_categoryEvE8instance,"awG",@progbits,_ZZN5boost4asio5error18get_netdb_categoryEvE8instance,comdat
	.align	3
	.type	_ZZN5boost4asio5error18get_netdb_categoryEvE8instance, %gnu_unique_object
	.size	_ZZN5boost4asio5error18get_netdb_categoryEvE8instance, 16
_ZZN5boost4asio5error18get_netdb_categoryEvE8instance:
	.xword	_ZTVN5boost4asio5error6detail14netdb_categoryE+16
	.xword	0
	.section	.text._ZN5boost4asio5error18get_netdb_categoryEv,"axG",@progbits,_ZN5boost4asio5error18get_netdb_categoryEv,comdat
	.align	2
	.weak	_ZN5boost4asio5error18get_netdb_categoryEv
	.type	_ZN5boost4asio5error18get_netdb_categoryEv, %function
_ZN5boost4asio5error18get_netdb_categoryEv:
.LFB4888:
	.cfi_startproc
	adrp	x0, _ZZN5boost4asio5error18get_netdb_categoryEvE8instance
	add	x0, x0, :lo12:_ZZN5boost4asio5error18get_netdb_categoryEvE8instance
	ret
	.cfi_endproc
.LFE4888:
	.size	_ZN5boost4asio5error18get_netdb_categoryEv, .-_ZN5boost4asio5error18get_netdb_categoryEv
	.section	.rodata
	.align	3
.LC11:
	.string	"asio.addrinfo"
	.section	.text._ZNK5boost4asio5error6detail17addrinfo_category4nameEv,"axG",@progbits,_ZNK5boost4asio5error6detail17addrinfo_category4nameEv,comdat
	.align	2
	.weak	_ZNK5boost4asio5error6detail17addrinfo_category4nameEv
	.type	_ZNK5boost4asio5error6detail17addrinfo_category4nameEv, %function
_ZNK5boost4asio5error6detail17addrinfo_category4nameEv:
.LFB4892:
	.cfi_startproc
	sub	sp, sp, #16
	.cfi_def_cfa_offset 16
	str	x0, [sp, 8]
	adrp	x0, .LC11
	add	x0, x0, :lo12:.LC11
	add	sp, sp, 16
	.cfi_def_cfa_offset 0
	ret
	.cfi_endproc
.LFE4892:
	.size	_ZNK5boost4asio5error6detail17addrinfo_category4nameEv, .-_ZNK5boost4asio5error6detail17addrinfo_category4nameEv
	.section	.rodata
	.align	3
.LC12:
	.string	"Service not found"
	.align	3
.LC13:
	.string	"Socket type not supported"
	.align	3
.LC14:
	.string	"asio.addrinfo error"
	.section	.text._ZNK5boost4asio5error6detail17addrinfo_category7messageB5cxx11Ei,"axG",@progbits,_ZNK5boost4asio5error6detail17addrinfo_category7messageB5cxx11Ei,comdat
	.align	2
	.weak	_ZNK5boost4asio5error6detail17addrinfo_category7messageB5cxx11Ei
	.type	_ZNK5boost4asio5error6detail17addrinfo_category7messageB5cxx11Ei, %function
_ZNK5boost4asio5error6detail17addrinfo_category7messageB5cxx11Ei:
.LFB4893:
	.cfi_startproc
	.cfi_personality 0x9b,DW.ref.__gxx_personality_v0
	.cfi_lsda 0x1b,.LLSDA4893
	stp	x29, x30, [sp, -64]!
	.cfi_def_cfa_offset 64
	.cfi_offset 29, -64
	.cfi_offset 30, -56
	mov	x29, sp
	str	x19, [sp, 16]
	.cfi_offset 19, -48
	mov	x19, x8
	str	x0, [sp, 40]
	str	w1, [sp, 36]
	adrp	x0, :got:__stack_chk_guard
	ldr	x0, [x0, #:got_lo12:__stack_chk_guard]
	ldr	x1, [x0]
	str	x1, [sp, 56]
	mov	x1, 0
	ldr	w0, [sp, 36]
	cmn	w0, #8
	bne	.L314
	add	x0, sp, 48
	bl	_ZNSaIcEC1Ev
	add	x0, sp, 48
	mov	x2, x0
	adrp	x0, .LC12
	add	x1, x0, :lo12:.LC12
	mov	x0, x19
.LEHB25:
	bl	_ZNSt7__cxx1112basic_stringIcSt11char_traitsIcESaIcEEC1IS3_EEPKcRKS3_
.LEHE25:
	add	x0, sp, 48
	bl	_ZNSaIcED1Ev
	b	.L313
.L314:
	ldr	w0, [sp, 36]
	cmn	w0, #7
	bne	.L316
	add	x0, sp, 48
	bl	_ZNSaIcEC1Ev
	add	x0, sp, 48
	mov	x2, x0
	adrp	x0, .LC13
	add	x1, x0, :lo12:.LC13
	mov	x0, x19
.LEHB26:
	bl	_ZNSt7__cxx1112basic_stringIcSt11char_traitsIcESaIcEEC1IS3_EEPKcRKS3_
.LEHE26:
	add	x0, sp, 48
	bl	_ZNSaIcED1Ev
	b	.L313
.L316:
	add	x0, sp, 48
	bl	_ZNSaIcEC1Ev
	add	x0, sp, 48
	mov	x2, x0
	adrp	x0, .LC14
	add	x1, x0, :lo12:.LC14
	mov	x0, x19
.LEHB27:
	bl	_ZNSt7__cxx1112basic_stringIcSt11char_traitsIcESaIcEEC1IS3_EEPKcRKS3_
.LEHE27:
	add	x0, sp, 48
	bl	_ZNSaIcED1Ev
	b	.L313
.L321:
	mov	x19, x0
	add	x0, sp, 48
	bl	_ZNSaIcED1Ev
	mov	x0, x19
.LEHB28:
	bl	_Unwind_Resume
.L322:
	mov	x19, x0
	add	x0, sp, 48
	bl	_ZNSaIcED1Ev
	mov	x0, x19
	bl	_Unwind_Resume
.L323:
	mov	x19, x0
	add	x0, sp, 48
	bl	_ZNSaIcED1Ev
	mov	x0, x19
	bl	_Unwind_Resume
.LEHE28:
.L313:
	adrp	x0, :got:__stack_chk_guard
	ldr	x0, [x0, #:got_lo12:__stack_chk_guard]
	ldr	x2, [sp, 56]
	ldr	x1, [x0]
	subs	x2, x2, x1
	mov	x1, 0
	beq	.L320
	bl	__stack_chk_fail
.L320:
	mov	x0, x19
	ldr	x19, [sp, 16]
	ldp	x29, x30, [sp], 64
	.cfi_restore 30
	.cfi_restore 29
	.cfi_restore 19
	.cfi_def_cfa_offset 0
	ret
	.cfi_endproc
.LFE4893:
	.section	.gcc_except_table._ZNK5boost4asio5error6detail17addrinfo_category7messageB5cxx11Ei,"aG",@progbits,_ZNK5boost4asio5error6detail17addrinfo_category7messageB5cxx11Ei,comdat
.LLSDA4893:
	.byte	0xff
	.byte	0xff
	.byte	0x1
	.uleb128 .LLSDACSE4893-.LLSDACSB4893
.LLSDACSB4893:
	.uleb128 .LEHB25-.LFB4893
	.uleb128 .LEHE25-.LEHB25
	.uleb128 .L321-.LFB4893
	.uleb128 0
	.uleb128 .LEHB26-.LFB4893
	.uleb128 .LEHE26-.LEHB26
	.uleb128 .L322-.LFB4893
	.uleb128 0
	.uleb128 .LEHB27-.LFB4893
	.uleb128 .LEHE27-.LEHB27
	.uleb128 .L323-.LFB4893
	.uleb128 0
	.uleb128 .LEHB28-.LFB4893
	.uleb128 .LEHE28-.LEHB28
	.uleb128 0
	.uleb128 0
.LLSDACSE4893:
	.section	.text._ZNK5boost4asio5error6detail17addrinfo_category7messageB5cxx11Ei,"axG",@progbits,_ZNK5boost4asio5error6detail17addrinfo_category7messageB5cxx11Ei,comdat
	.size	_ZNK5boost4asio5error6detail17addrinfo_category7messageB5cxx11Ei, .-_ZNK5boost4asio5error6detail17addrinfo_category7messageB5cxx11Ei
	.weak	_ZZN5boost4asio5error21get_addrinfo_categoryEvE8instance
	.section	.data.rel.local._ZZN5boost4asio5error21get_addrinfo_categoryEvE8instance,"awG",@progbits,_ZZN5boost4asio5error21get_addrinfo_categoryEvE8instance,comdat
	.align	3
	.type	_ZZN5boost4asio5error21get_addrinfo_categoryEvE8instance, %gnu_unique_object
	.size	_ZZN5boost4asio5error21get_addrinfo_categoryEvE8instance, 16
_ZZN5boost4asio5error21get_addrinfo_categoryEvE8instance:
	.xword	_ZTVN5boost4asio5error6detail17addrinfo_categoryE+16
	.xword	0
	.section	.text._ZN5boost4asio5error21get_addrinfo_categoryEv,"axG",@progbits,_ZN5boost4asio5error21get_addrinfo_categoryEv,comdat
	.align	2
	.weak	_ZN5boost4asio5error21get_addrinfo_categoryEv
	.type	_ZN5boost4asio5error21get_addrinfo_categoryEv, %function
_ZN5boost4asio5error21get_addrinfo_categoryEv:
.LFB4894:
	.cfi_startproc
	adrp	x0, _ZZN5boost4asio5error21get_addrinfo_categoryEvE8instance
	add	x0, x0, :lo12:_ZZN5boost4asio5error21get_addrinfo_categoryEvE8instance
	ret
	.cfi_endproc
.LFE4894:
	.size	_ZN5boost4asio5error21get_addrinfo_categoryEv, .-_ZN5boost4asio5error21get_addrinfo_categoryEv
	.section	.rodata
	.align	3
.LC15:
	.string	"asio.misc"
	.section	.text._ZNK5boost4asio5error6detail13misc_category4nameEv,"axG",@progbits,_ZNK5boost4asio5error6detail13misc_category4nameEv,comdat
	.align	2
	.weak	_ZNK5boost4asio5error6detail13misc_category4nameEv
	.type	_ZNK5boost4asio5error6detail13misc_category4nameEv, %function
_ZNK5boost4asio5error6detail13misc_category4nameEv:
.LFB4898:
	.cfi_startproc
	sub	sp, sp, #16
	.cfi_def_cfa_offset 16
	str	x0, [sp, 8]
	adrp	x0, .LC15
	add	x0, x0, :lo12:.LC15
	add	sp, sp, 16
	.cfi_def_cfa_offset 0
	ret
	.cfi_endproc
.LFE4898:
	.size	_ZNK5boost4asio5error6detail13misc_category4nameEv, .-_ZNK5boost4asio5error6detail13misc_category4nameEv
	.section	.rodata
	.align	3
.LC16:
	.string	"Already open"
	.align	3
.LC17:
	.string	"End of file"
	.align	3
.LC18:
	.string	"Element not found"
	.align	3
.LC19:
	.string	"The descriptor does not fit into the select call's fd_set"
	.align	3
.LC20:
	.string	"asio.misc error"
	.section	.text._ZNK5boost4asio5error6detail13misc_category7messageB5cxx11Ei,"axG",@progbits,_ZNK5boost4asio5error6detail13misc_category7messageB5cxx11Ei,comdat
	.align	2
	.weak	_ZNK5boost4asio5error6detail13misc_category7messageB5cxx11Ei
	.type	_ZNK5boost4asio5error6detail13misc_category7messageB5cxx11Ei, %function
_ZNK5boost4asio5error6detail13misc_category7messageB5cxx11Ei:
.LFB4899:
	.cfi_startproc
	.cfi_personality 0x9b,DW.ref.__gxx_personality_v0
	.cfi_lsda 0x1b,.LLSDA4899
	stp	x29, x30, [sp, -64]!
	.cfi_def_cfa_offset 64
	.cfi_offset 29, -64
	.cfi_offset 30, -56
	mov	x29, sp
	str	x19, [sp, 16]
	.cfi_offset 19, -48
	mov	x19, x8
	str	x0, [sp, 40]
	str	w1, [sp, 36]
	adrp	x0, :got:__stack_chk_guard
	ldr	x0, [x0, #:got_lo12:__stack_chk_guard]
	ldr	x1, [x0]
	str	x1, [sp, 56]
	mov	x1, 0
	ldr	w0, [sp, 36]
	cmp	w0, 1
	bne	.L329
	add	x0, sp, 48
	bl	_ZNSaIcEC1Ev
	add	x0, sp, 48
	mov	x2, x0
	adrp	x0, .LC16
	add	x1, x0, :lo12:.LC16
	mov	x0, x19
.LEHB29:
	bl	_ZNSt7__cxx1112basic_stringIcSt11char_traitsIcESaIcEEC1IS3_EEPKcRKS3_
.LEHE29:
	add	x0, sp, 48
	bl	_ZNSaIcED1Ev
	b	.L328
.L329:
	ldr	w0, [sp, 36]
	cmp	w0, 2
	bne	.L331
	add	x0, sp, 48
	bl	_ZNSaIcEC1Ev
	add	x0, sp, 48
	mov	x2, x0
	adrp	x0, .LC17
	add	x1, x0, :lo12:.LC17
	mov	x0, x19
.LEHB30:
	bl	_ZNSt7__cxx1112basic_stringIcSt11char_traitsIcESaIcEEC1IS3_EEPKcRKS3_
.LEHE30:
	add	x0, sp, 48
	bl	_ZNSaIcED1Ev
	b	.L328
.L331:
	ldr	w0, [sp, 36]
	cmp	w0, 3
	bne	.L332
	add	x0, sp, 48
	bl	_ZNSaIcEC1Ev
	add	x0, sp, 48
	mov	x2, x0
	adrp	x0, .LC18
	add	x1, x0, :lo12:.LC18
	mov	x0, x19
.LEHB31:
	bl	_ZNSt7__cxx1112basic_stringIcSt11char_traitsIcESaIcEEC1IS3_EEPKcRKS3_
.LEHE31:
	add	x0, sp, 48
	bl	_ZNSaIcED1Ev
	b	.L328
.L332:
	ldr	w0, [sp, 36]
	cmp	w0, 4
	bne	.L333
	add	x0, sp, 48
	bl	_ZNSaIcEC1Ev
	add	x0, sp, 48
	mov	x2, x0
	adrp	x0, .LC19
	add	x1, x0, :lo12:.LC19
	mov	x0, x19
.LEHB32:
	bl	_ZNSt7__cxx1112basic_stringIcSt11char_traitsIcESaIcEEC1IS3_EEPKcRKS3_
.LEHE32:
	add	x0, sp, 48
	bl	_ZNSaIcED1Ev
	b	.L328
.L333:
	add	x0, sp, 48
	bl	_ZNSaIcEC1Ev
	add	x0, sp, 48
	mov	x2, x0
	adrp	x0, .LC20
	add	x1, x0, :lo12:.LC20
	mov	x0, x19
.LEHB33:
	bl	_ZNSt7__cxx1112basic_stringIcSt11char_traitsIcESaIcEEC1IS3_EEPKcRKS3_
.LEHE33:
	add	x0, sp, 48
	bl	_ZNSaIcED1Ev
	b	.L328
.L340:
	mov	x19, x0
	add	x0, sp, 48
	bl	_ZNSaIcED1Ev
	mov	x0, x19
.LEHB34:
	bl	_Unwind_Resume
.L341:
	mov	x19, x0
	add	x0, sp, 48
	bl	_ZNSaIcED1Ev
	mov	x0, x19
	bl	_Unwind_Resume
.L342:
	mov	x19, x0
	add	x0, sp, 48
	bl	_ZNSaIcED1Ev
	mov	x0, x19
	bl	_Unwind_Resume
.L343:
	mov	x19, x0
	add	x0, sp, 48
	bl	_ZNSaIcED1Ev
	mov	x0, x19
	bl	_Unwind_Resume
.L344:
	mov	x19, x0
	add	x0, sp, 48
	bl	_ZNSaIcED1Ev
	mov	x0, x19
	bl	_Unwind_Resume
.LEHE34:
.L328:
	adrp	x0, :got:__stack_chk_guard
	ldr	x0, [x0, #:got_lo12:__stack_chk_guard]
	ldr	x2, [sp, 56]
	ldr	x1, [x0]
	subs	x2, x2, x1
	mov	x1, 0
	beq	.L339
	bl	__stack_chk_fail
.L339:
	mov	x0, x19
	ldr	x19, [sp, 16]
	ldp	x29, x30, [sp], 64
	.cfi_restore 30
	.cfi_restore 29
	.cfi_restore 19
	.cfi_def_cfa_offset 0
	ret
	.cfi_endproc
.LFE4899:
	.section	.gcc_except_table._ZNK5boost4asio5error6detail13misc_category7messageB5cxx11Ei,"aG",@progbits,_ZNK5boost4asio5error6detail13misc_category7messageB5cxx11Ei,comdat
.LLSDA4899:
	.byte	0xff
	.byte	0xff
	.byte	0x1
	.uleb128 .LLSDACSE4899-.LLSDACSB4899
.LLSDACSB4899:
	.uleb128 .LEHB29-.LFB4899
	.uleb128 .LEHE29-.LEHB29
	.uleb128 .L340-.LFB4899
	.uleb128 0
	.uleb128 .LEHB30-.LFB4899
	.uleb128 .LEHE30-.LEHB30
	.uleb128 .L341-.LFB4899
	.uleb128 0
	.uleb128 .LEHB31-.LFB4899
	.uleb128 .LEHE31-.LEHB31
	.uleb128 .L342-.LFB4899
	.uleb128 0
	.uleb128 .LEHB32-.LFB4899
	.uleb128 .LEHE32-.LEHB32
	.uleb128 .L343-.LFB4899
	.uleb128 0
	.uleb128 .LEHB33-.LFB4899
	.uleb128 .LEHE33-.LEHB33
	.uleb128 .L344-.LFB4899
	.uleb128 0
	.uleb128 .LEHB34-.LFB4899
	.uleb128 .LEHE34-.LEHB34
	.uleb128 0
	.uleb128 0
.LLSDACSE4899:
	.section	.text._ZNK5boost4asio5error6detail13misc_category7messageB5cxx11Ei,"axG",@progbits,_ZNK5boost4asio5error6detail13misc_category7messageB5cxx11Ei,comdat
	.size	_ZNK5boost4asio5error6detail13misc_category7messageB5cxx11Ei, .-_ZNK5boost4asio5error6detail13misc_category7messageB5cxx11Ei
	.weak	_ZZN5boost4asio5error17get_misc_categoryEvE8instance
	.section	.data.rel.local._ZZN5boost4asio5error17get_misc_categoryEvE8instance,"awG",@progbits,_ZZN5boost4asio5error17get_misc_categoryEvE8instance,comdat
	.align	3
	.type	_ZZN5boost4asio5error17get_misc_categoryEvE8instance, %gnu_unique_object
	.size	_ZZN5boost4asio5error17get_misc_categoryEvE8instance, 16
_ZZN5boost4asio5error17get_misc_categoryEvE8instance:
	.xword	_ZTVN5boost4asio5error6detail13misc_categoryE+16
	.xword	0
	.section	.text._ZN5boost4asio5error17get_misc_categoryEv,"axG",@progbits,_ZN5boost4asio5error17get_misc_categoryEv,comdat
	.align	2
	.weak	_ZN5boost4asio5error17get_misc_categoryEv
	.type	_ZN5boost4asio5error17get_misc_categoryEv, %function
_ZN5boost4asio5error17get_misc_categoryEv:
.LFB4900:
	.cfi_startproc
	adrp	x0, _ZZN5boost4asio5error17get_misc_categoryEvE8instance
	add	x0, x0, :lo12:_ZZN5boost4asio5error17get_misc_categoryEvE8instance
	ret
	.cfi_endproc
.LFE4900:
	.size	_ZN5boost4asio5error17get_misc_categoryEv, .-_ZN5boost4asio5error17get_misc_categoryEv
	.section	.rodata
	.align	3
.LC21:
	.string	"tss"
	.section	.text._ZN5boost4asio6detail20posix_tss_ptr_createERj,"axG",@progbits,_ZN5boost4asio6detail20posix_tss_ptr_createERj,comdat
	.align	2
	.weak	_ZN5boost4asio6detail20posix_tss_ptr_createERj
	.type	_ZN5boost4asio6detail20posix_tss_ptr_createERj, %function
_ZN5boost4asio6detail20posix_tss_ptr_createERj:
.LFB4904:
	.cfi_startproc
	stp	x29, x30, [sp, -64]!
	.cfi_def_cfa_offset 64
	.cfi_offset 29, -64
	.cfi_offset 30, -56
	mov	x29, sp
	str	x0, [sp, 24]
	adrp	x0, :got:__stack_chk_guard
	ldr	x0, [x0, #:got_lo12:__stack_chk_guard]
	ldr	x1, [x0]
	str	x1, [sp, 56]
	mov	x1, 0
	mov	x1, 0
	ldr	x0, [sp, 24]
	bl	pthread_key_create
	str	w0, [sp, 36]
	bl	_ZN5boost4asio5error19get_system_categoryEv
	mov	x1, x0
	add	x0, sp, 40
	mov	x2, x1
	ldr	w1, [sp, 36]
	bl	_ZN5boost6system10error_codeC1EiRKNS0_14error_categoryE
	add	x2, sp, 40
	adrp	x0, .LC21
	add	x1, x0, :lo12:.LC21
	mov	x0, x2
	bl	_ZN5boost4asio6detail11throw_errorERKNS_6system10error_codeEPKc
	nop
	adrp	x0, :got:__stack_chk_guard
	ldr	x0, [x0, #:got_lo12:__stack_chk_guard]
	ldr	x2, [sp, 56]
	ldr	x1, [x0]
	subs	x2, x2, x1
	mov	x1, 0
	beq	.L348
	bl	__stack_chk_fail
.L348:
	ldp	x29, x30, [sp], 64
	.cfi_restore 30
	.cfi_restore 29
	.cfi_def_cfa_offset 0
	ret
	.cfi_endproc
.LFE4904:
	.size	_ZN5boost4asio6detail20posix_tss_ptr_createERj, .-_ZN5boost4asio6detail20posix_tss_ptr_createERj
	.section	.text._ZN5boost4asio19multiple_exceptionsC2ENSt15__exception_ptr13exception_ptrE,"axG",@progbits,_ZN5boost4asio19multiple_exceptionsC5ENSt15__exception_ptr13exception_ptrE,comdat
	.align	2
	.weak	_ZN5boost4asio19multiple_exceptionsC2ENSt15__exception_ptr13exception_ptrE
	.type	_ZN5boost4asio19multiple_exceptionsC2ENSt15__exception_ptr13exception_ptrE, %function
_ZN5boost4asio19multiple_exceptionsC2ENSt15__exception_ptr13exception_ptrE:
.LFB4913:
	.cfi_startproc
	stp	x29, x30, [sp, -32]!
	.cfi_def_cfa_offset 32
	.cfi_offset 29, -32
	.cfi_offset 30, -24
	mov	x29, sp
	str	x0, [sp, 24]
	str	x1, [sp, 16]
	ldr	x0, [sp, 24]
	bl	_ZNSt9exceptionC2Ev
	adrp	x0, _ZTVN5boost4asio19multiple_exceptionsE+16
	add	x1, x0, :lo12:_ZTVN5boost4asio19multiple_exceptionsE+16
	ldr	x0, [sp, 24]
	str	x1, [x0]
	ldr	x0, [sp, 24]
	add	x0, x0, 8
	ldr	x1, [sp, 16]
	bl	_ZNSt15__exception_ptr13exception_ptrC1EOS0_
	nop
	ldp	x29, x30, [sp], 32
	.cfi_restore 30
	.cfi_restore 29
	.cfi_def_cfa_offset 0
	ret
	.cfi_endproc
.LFE4913:
	.size	_ZN5boost4asio19multiple_exceptionsC2ENSt15__exception_ptr13exception_ptrE, .-_ZN5boost4asio19multiple_exceptionsC2ENSt15__exception_ptr13exception_ptrE
	.weak	_ZN5boost4asio19multiple_exceptionsC1ENSt15__exception_ptr13exception_ptrE
	.set	_ZN5boost4asio19multiple_exceptionsC1ENSt15__exception_ptr13exception_ptrE,_ZN5boost4asio19multiple_exceptionsC2ENSt15__exception_ptr13exception_ptrE
	.section	.rodata
	.align	3
.LC22:
	.string	"multiple exceptions"
	.section	.text._ZNK5boost4asio19multiple_exceptions4whatEv,"axG",@progbits,_ZNK5boost4asio19multiple_exceptions4whatEv,comdat
	.align	2
	.weak	_ZNK5boost4asio19multiple_exceptions4whatEv
	.type	_ZNK5boost4asio19multiple_exceptions4whatEv, %function
_ZNK5boost4asio19multiple_exceptions4whatEv:
.LFB4915:
	.cfi_startproc
	sub	sp, sp, #16
	.cfi_def_cfa_offset 16
	str	x0, [sp, 8]
	adrp	x0, .LC22
	add	x0, x0, :lo12:.LC22
	add	sp, sp, 16
	.cfi_def_cfa_offset 0
	ret
	.cfi_endproc
.LFE4915:
	.size	_ZNK5boost4asio19multiple_exceptions4whatEv, .-_ZNK5boost4asio19multiple_exceptions4whatEv
	.section	.text._ZN5boost4asio6detail16thread_info_baseC2Ev,"axG",@progbits,_ZN5boost4asio6detail16thread_info_baseC5Ev,comdat
	.align	2
	.weak	_ZN5boost4asio6detail16thread_info_baseC2Ev
	.type	_ZN5boost4asio6detail16thread_info_baseC2Ev, %function
_ZN5boost4asio6detail16thread_info_baseC2Ev:
.LFB4918:
	.cfi_startproc
	stp	x29, x30, [sp, -48]!
	.cfi_def_cfa_offset 48
	.cfi_offset 29, -48
	.cfi_offset 30, -40
	mov	x29, sp
	str	x0, [sp, 24]
	ldr	x0, [sp, 24]
	bl	_ZN5boost4asio6detail11noncopyableC2Ev
	ldr	x0, [sp, 24]
	str	wzr, [x0, 24]
	ldr	x0, [sp, 24]
	add	x0, x0, 32
	bl	_ZNSt15__exception_ptr13exception_ptrC1Ev
	str	wzr, [sp, 44]
	b	.L353
.L354:
	ldr	x0, [sp, 24]
	ldrsw	x1, [sp, 44]
	str	xzr, [x0, x1, lsl 3]
	ldr	w0, [sp, 44]
	add	w0, w0, 1
	str	w0, [sp, 44]
.L353:
	ldr	w0, [sp, 44]
	cmp	w0, 2
	ble	.L354
	nop
	nop
	ldp	x29, x30, [sp], 48
	.cfi_restore 30
	.cfi_restore 29
	.cfi_def_cfa_offset 0
	ret
	.cfi_endproc
.LFE4918:
	.size	_ZN5boost4asio6detail16thread_info_baseC2Ev, .-_ZN5boost4asio6detail16thread_info_baseC2Ev
	.weak	_ZN5boost4asio6detail16thread_info_baseC1Ev
	.set	_ZN5boost4asio6detail16thread_info_baseC1Ev,_ZN5boost4asio6detail16thread_info_baseC2Ev
	.section	.text._ZN5boost4asio6detail16thread_info_baseD2Ev,"axG",@progbits,_ZN5boost4asio6detail16thread_info_baseD5Ev,comdat
	.align	2
	.weak	_ZN5boost4asio6detail16thread_info_baseD2Ev
	.type	_ZN5boost4asio6detail16thread_info_baseD2Ev, %function
_ZN5boost4asio6detail16thread_info_baseD2Ev:
.LFB4921:
	.cfi_startproc
	stp	x29, x30, [sp, -48]!
	.cfi_def_cfa_offset 48
	.cfi_offset 29, -48
	.cfi_offset 30, -40
	mov	x29, sp
	str	x0, [sp, 24]
	str	wzr, [sp, 44]
	b	.L356
.L357:
	ldr	x0, [sp, 24]
	ldrsw	x1, [sp, 44]
	ldr	x0, [x0, x1, lsl 3]
	bl	_ZdlPv
	ldr	w0, [sp, 44]
	add	w0, w0, 1
	str	w0, [sp, 44]
.L356:
	ldr	w0, [sp, 44]
	cmp	w0, 2
	ble	.L357
	ldr	x0, [sp, 24]
	add	x0, x0, 32
	bl	_ZNSt15__exception_ptr13exception_ptrD1Ev
	ldr	x0, [sp, 24]
	bl	_ZN5boost4asio6detail11noncopyableD2Ev
	nop
	ldp	x29, x30, [sp], 48
	.cfi_restore 30
	.cfi_restore 29
	.cfi_def_cfa_offset 0
	ret
	.cfi_endproc
.LFE4921:
	.size	_ZN5boost4asio6detail16thread_info_baseD2Ev, .-_ZN5boost4asio6detail16thread_info_baseD2Ev
	.weak	_ZN5boost4asio6detail16thread_info_baseD1Ev
	.set	_ZN5boost4asio6detail16thread_info_baseD1Ev,_ZN5boost4asio6detail16thread_info_baseD2Ev
	.section	.text._ZN5boost4asio6detail16thread_info_base8allocateEPS2_m,"axG",@progbits,_ZN5boost4asio6detail16thread_info_base8allocateEPS2_m,comdat
	.align	2
	.weak	_ZN5boost4asio6detail16thread_info_base8allocateEPS2_m
	.type	_ZN5boost4asio6detail16thread_info_base8allocateEPS2_m, %function
_ZN5boost4asio6detail16thread_info_base8allocateEPS2_m:
.LFB4923:
	.cfi_startproc
	stp	x29, x30, [sp, -32]!
	.cfi_def_cfa_offset 32
	.cfi_offset 29, -32
	.cfi_offset 30, -24
	mov	x29, sp
	str	x0, [sp, 24]
	str	x1, [sp, 16]
	ldr	x2, [sp, 16]
	ldr	x1, [sp, 24]
	mov	w0, w3
	bl	_ZN5boost4asio6detail16thread_info_base8allocateINS2_11default_tagEEEPvT_PS2_m
	ldp	x29, x30, [sp], 32
	.cfi_restore 30
	.cfi_restore 29
	.cfi_def_cfa_offset 0
	ret
	.cfi_endproc
.LFE4923:
	.size	_ZN5boost4asio6detail16thread_info_base8allocateEPS2_m, .-_ZN5boost4asio6detail16thread_info_base8allocateEPS2_m
	.section	.text._ZN5boost4asio6detail16thread_info_base10deallocateEPS2_Pvm,"axG",@progbits,_ZN5boost4asio6detail16thread_info_base10deallocateEPS2_Pvm,comdat
	.align	2
	.weak	_ZN5boost4asio6detail16thread_info_base10deallocateEPS2_Pvm
	.type	_ZN5boost4asio6detail16thread_info_base10deallocateEPS2_Pvm, %function
_ZN5boost4asio6detail16thread_info_base10deallocateEPS2_Pvm:
.LFB4924:
	.cfi_startproc
	stp	x29, x30, [sp, -48]!
	.cfi_def_cfa_offset 48
	.cfi_offset 29, -48
	.cfi_offset 30, -40
	mov	x29, sp
	str	x0, [sp, 40]
	str	x1, [sp, 32]
	str	x2, [sp, 24]
	ldr	x3, [sp, 24]
	ldr	x2, [sp, 32]
	ldr	x1, [sp, 40]
	mov	w0, w4
	bl	_ZN5boost4asio6detail16thread_info_base10deallocateINS2_11default_tagEEEvT_PS2_Pvm
	nop
	ldp	x29, x30, [sp], 48
	.cfi_restore 30
	.cfi_restore 29
	.cfi_def_cfa_offset 0
	ret
	.cfi_endproc
.LFE4924:
	.size	_ZN5boost4asio6detail16thread_info_base10deallocateEPS2_Pvm, .-_ZN5boost4asio6detail16thread_info_base10deallocateEPS2_Pvm
	.section	.text._ZN5boost4asio6detail16thread_info_base25capture_current_exceptionEv,"axG",@progbits,_ZN5boost4asio6detail16thread_info_base25capture_current_exceptionEv,comdat
	.align	2
	.weak	_ZN5boost4asio6detail16thread_info_base25capture_current_exceptionEv
	.type	_ZN5boost4asio6detail16thread_info_base25capture_current_exceptionEv, %function
_ZN5boost4asio6detail16thread_info_base25capture_current_exceptionEv:
.LFB4927:
	.cfi_startproc
	stp	x29, x30, [sp, -80]!
	.cfi_def_cfa_offset 80
	.cfi_offset 29, -80
	.cfi_offset 30, -72
	mov	x29, sp
	str	x0, [sp, 24]
	adrp	x0, :got:__stack_chk_guard
	ldr	x0, [x0, #:got_lo12:__stack_chk_guard]
	ldr	x1, [x0]
	str	x1, [sp, 72]
	mov	x1, 0
	ldr	x0, [sp, 24]
	ldr	w0, [x0, 24]
	cmp	w0, 0
	beq	.L362
	cmp	w0, 1
	beq	.L363
	b	.L367
.L362:
	ldr	x0, [sp, 24]
	mov	w1, 1
	str	w1, [x0, 24]
	add	x0, sp, 56
	mov	x8, x0
	bl	_ZSt17current_exceptionv
	ldr	x0, [sp, 24]
	add	x0, x0, 32
	add	x1, sp, 56
	bl	_ZNSt15__exception_ptr13exception_ptraSEOS0_
	add	x0, sp, 56
	bl	_ZNSt15__exception_ptr13exception_ptrD1Ev
	b	.L365
.L363:
	ldr	x0, [sp, 24]
	mov	w1, 2
	str	w1, [x0, 24]
	ldr	x0, [sp, 24]
	add	x1, x0, 32
	add	x0, sp, 40
	bl	_ZNSt15__exception_ptr13exception_ptrC1ERKS0_
	add	x1, sp, 40
	add	x0, sp, 56
	bl	_ZN5boost4asio19multiple_exceptionsC1ENSt15__exception_ptr13exception_ptrE
	add	x0, sp, 56
	add	x1, sp, 48
	mov	x8, x1
	bl	_ZSt18make_exception_ptrIN5boost4asio19multiple_exceptionsEENSt15__exception_ptr13exception_ptrET_
	ldr	x0, [sp, 24]
	add	x0, x0, 32
	add	x1, sp, 48
	bl	_ZNSt15__exception_ptr13exception_ptraSEOS0_
	add	x0, sp, 48
	bl	_ZNSt15__exception_ptr13exception_ptrD1Ev
	add	x0, sp, 56
	bl	_ZN5boost4asio19multiple_exceptionsD1Ev
	add	x0, sp, 40
	bl	_ZNSt15__exception_ptr13exception_ptrD1Ev
.L367:
	nop
.L365:
	nop
	adrp	x0, :got:__stack_chk_guard
	ldr	x0, [x0, #:got_lo12:__stack_chk_guard]
	ldr	x2, [sp, 72]
	ldr	x1, [x0]
	subs	x2, x2, x1
	mov	x1, 0
	beq	.L366
	bl	__stack_chk_fail
.L366:
	ldp	x29, x30, [sp], 80
	.cfi_restore 30
	.cfi_restore 29
	.cfi_def_cfa_offset 0
	ret
	.cfi_endproc
.LFE4927:
	.size	_ZN5boost4asio6detail16thread_info_base25capture_current_exceptionEv, .-_ZN5boost4asio6detail16thread_info_base25capture_current_exceptionEv
	.section	.text._ZN5boost4asio6detail16thread_info_base25rethrow_pending_exceptionEv,"axG",@progbits,_ZN5boost4asio6detail16thread_info_base25rethrow_pending_exceptionEv,comdat
	.align	2
	.weak	_ZN5boost4asio6detail16thread_info_base25rethrow_pending_exceptionEv
	.type	_ZN5boost4asio6detail16thread_info_base25rethrow_pending_exceptionEv, %function
_ZN5boost4asio6detail16thread_info_base25rethrow_pending_exceptionEv:
.LFB4928:
	.cfi_startproc
	.cfi_personality 0x9b,DW.ref.__gxx_personality_v0
	.cfi_lsda 0x1b,.LLSDA4928
	stp	x29, x30, [sp, -80]!
	.cfi_def_cfa_offset 80
	.cfi_offset 29, -80
	.cfi_offset 30, -72
	mov	x29, sp
	str	x19, [sp, 16]
	.cfi_offset 19, -64
	str	x0, [sp, 40]
	adrp	x0, :got:__stack_chk_guard
	ldr	x0, [x0, #:got_lo12:__stack_chk_guard]
	ldr	x1, [x0]
	str	x1, [sp, 72]
	mov	x1, 0
	ldr	x0, [sp, 40]
	ldr	w0, [x0, 24]
	cmp	w0, 0
	ble	.L373
	ldr	x0, [sp, 40]
	str	wzr, [x0, 24]
	ldr	x0, [sp, 40]
	add	x1, x0, 32
	add	x0, sp, 56
	bl	_ZNSt15__exception_ptr13exception_ptrC1EOS0_
	add	x1, sp, 56
	add	x0, sp, 64
	bl	_ZNSt15__exception_ptr13exception_ptrC1ERKS0_
	add	x0, sp, 64
.LEHB35:
	bl	_ZSt17rethrow_exceptionNSt15__exception_ptr13exception_ptrE
.LEHE35:
.L372:
	mov	x19, x0
	add	x0, sp, 64
	bl	_ZNSt15__exception_ptr13exception_ptrD1Ev
	add	x0, sp, 56
	bl	_ZNSt15__exception_ptr13exception_ptrD1Ev
	mov	x0, x19
.LEHB36:
	bl	_Unwind_Resume
.LEHE36:
.L373:
	nop
	adrp	x0, :got:__stack_chk_guard
	ldr	x0, [x0, #:got_lo12:__stack_chk_guard]
	ldr	x2, [sp, 72]
	ldr	x1, [x0]
	subs	x2, x2, x1
	mov	x1, 0
	beq	.L371
	bl	__stack_chk_fail
.L371:
	ldr	x19, [sp, 16]
	ldp	x29, x30, [sp], 80
	.cfi_restore 30
	.cfi_restore 29
	.cfi_restore 19
	.cfi_def_cfa_offset 0
	ret
	.cfi_endproc
.LFE4928:
	.section	.gcc_except_table._ZN5boost4asio6detail16thread_info_base25rethrow_pending_exceptionEv,"aG",@progbits,_ZN5boost4asio6detail16thread_info_base25rethrow_pending_exceptionEv,comdat
.LLSDA4928:
	.byte	0xff
	.byte	0xff
	.byte	0x1
	.uleb128 .LLSDACSE4928-.LLSDACSB4928
.LLSDACSB4928:
	.uleb128 .LEHB35-.LFB4928
	.uleb128 .LEHE35-.LEHB35
	.uleb128 .L372-.LFB4928
	.uleb128 0
	.uleb128 .LEHB36-.LFB4928
	.uleb128 .LEHE36-.LEHB36
	.uleb128 0
	.uleb128 0
.LLSDACSE4928:
	.section	.text._ZN5boost4asio6detail16thread_info_base25rethrow_pending_exceptionEv,"axG",@progbits,_ZN5boost4asio6detail16thread_info_base25rethrow_pending_exceptionEv,comdat
	.size	_ZN5boost4asio6detail16thread_info_base25rethrow_pending_exceptionEv, .-_ZN5boost4asio6detail16thread_info_base25rethrow_pending_exceptionEv
	.section	.text._ZN5boost4asio21asio_handler_allocateEmz,"axG",@progbits,_ZN5boost4asio21asio_handler_allocateEmz,comdat
	.align	2
	.weak	_ZN5boost4asio21asio_handler_allocateEmz
	.type	_ZN5boost4asio21asio_handler_allocateEmz, %function
_ZN5boost4asio21asio_handler_allocateEmz:
.LFB4937:
	.cfi_startproc
	stp	x29, x30, [sp, -224]!
	.cfi_def_cfa_offset 224
	.cfi_offset 29, -224
	.cfi_offset 30, -216
	mov	x29, sp
	str	x0, [sp, 24]
	str	x1, [sp, 168]
	str	x2, [sp, 176]
	str	x3, [sp, 184]
	str	x4, [sp, 192]
	str	x5, [sp, 200]
	str	x6, [sp, 208]
	str	x7, [sp, 216]
	str	q0, [sp, 32]
	str	q1, [sp, 48]
	str	q2, [sp, 64]
	str	q3, [sp, 80]
	str	q4, [sp, 96]
	str	q5, [sp, 112]
	str	q6, [sp, 128]
	str	q7, [sp, 144]
	bl	_ZN5boost4asio6detail10call_stackINS1_14thread_contextENS1_16thread_info_baseEE3topEv
	ldr	x1, [sp, 24]
	bl	_ZN5boost4asio6detail16thread_info_base8allocateEPS2_m
	ldp	x29, x30, [sp], 224
	.cfi_restore 30
	.cfi_restore 29
	.cfi_def_cfa_offset 0
	ret
	.cfi_endproc
.LFE4937:
	.size	_ZN5boost4asio21asio_handler_allocateEmz, .-_ZN5boost4asio21asio_handler_allocateEmz
	.section	.text._ZN5boost4asio23asio_handler_deallocateEPvmz,"axG",@progbits,_ZN5boost4asio23asio_handler_deallocateEPvmz,comdat
	.align	2
	.weak	_ZN5boost4asio23asio_handler_deallocateEPvmz
	.type	_ZN5boost4asio23asio_handler_deallocateEPvmz, %function
_ZN5boost4asio23asio_handler_deallocateEPvmz:
.LFB4938:
	.cfi_startproc
	stp	x29, x30, [sp, -208]!
	.cfi_def_cfa_offset 208
	.cfi_offset 29, -208
	.cfi_offset 30, -200
	mov	x29, sp
	str	x0, [sp, 24]
	str	x1, [sp, 16]
	str	x2, [sp, 160]
	str	x3, [sp, 168]
	str	x4, [sp, 176]
	str	x5, [sp, 184]
	str	x6, [sp, 192]
	str	x7, [sp, 200]
	str	q0, [sp, 32]
	str	q1, [sp, 48]
	str	q2, [sp, 64]
	str	q3, [sp, 80]
	str	q4, [sp, 96]
	str	q5, [sp, 112]
	str	q6, [sp, 128]
	str	q7, [sp, 144]
	bl	_ZN5boost4asio6detail10call_stackINS1_14thread_contextENS1_16thread_info_baseEE3topEv
	ldr	x2, [sp, 16]
	ldr	x1, [sp, 24]
	bl	_ZN5boost4asio6detail16thread_info_base10deallocateEPS2_Pvm
	nop
	ldp	x29, x30, [sp], 208
	.cfi_restore 30
	.cfi_restore 29
	.cfi_def_cfa_offset 0
	ret
	.cfi_endproc
.LFE4938:
	.size	_ZN5boost4asio23asio_handler_deallocateEPvmz, .-_ZN5boost4asio23asio_handler_deallocateEPvmz
	.section	.text._ZN5boost4asio6detail17executor_functionC2EOS2_,"axG",@progbits,_ZN5boost4asio6detail17executor_functionC5EOS2_,comdat
	.align	2
	.weak	_ZN5boost4asio6detail17executor_functionC2EOS2_
	.type	_ZN5boost4asio6detail17executor_functionC2EOS2_, %function
_ZN5boost4asio6detail17executor_functionC2EOS2_:
.LFB4951:
	.cfi_startproc
	sub	sp, sp, #16
	.cfi_def_cfa_offset 16
	str	x0, [sp, 8]
	str	x1, [sp]
	ldr	x0, [sp]
	ldr	x1, [x0]
	ldr	x0, [sp, 8]
	str	x1, [x0]
	ldr	x0, [sp]
	str	xzr, [x0]
	nop
	add	sp, sp, 16
	.cfi_def_cfa_offset 0
	ret
	.cfi_endproc
.LFE4951:
	.size	_ZN5boost4asio6detail17executor_functionC2EOS2_, .-_ZN5boost4asio6detail17executor_functionC2EOS2_
	.weak	_ZN5boost4asio6detail17executor_functionC1EOS2_
	.set	_ZN5boost4asio6detail17executor_functionC1EOS2_,_ZN5boost4asio6detail17executor_functionC2EOS2_
	.section	.text._ZN5boost4asio6detail17executor_functionD2Ev,"axG",@progbits,_ZN5boost4asio6detail17executor_functionD5Ev,comdat
	.align	2
	.weak	_ZN5boost4asio6detail17executor_functionD2Ev
	.type	_ZN5boost4asio6detail17executor_functionD2Ev, %function
_ZN5boost4asio6detail17executor_functionD2Ev:
.LFB4954:
	.cfi_startproc
	.cfi_personality 0x9b,DW.ref.__gxx_personality_v0
	.cfi_lsda 0x1b,.LLSDA4954
	stp	x29, x30, [sp, -32]!
	.cfi_def_cfa_offset 32
	.cfi_offset 29, -32
	.cfi_offset 30, -24
	mov	x29, sp
	str	x0, [sp, 24]
	ldr	x0, [sp, 24]
	ldr	x0, [x0]
	cmp	x0, 0
	beq	.L380
	ldr	x0, [sp, 24]
	ldr	x0, [x0]
	ldr	x2, [x0]
	ldr	x0, [sp, 24]
	ldr	x0, [x0]
	mov	w1, 0
	blr	x2
.L380:
	nop
	ldp	x29, x30, [sp], 32
	.cfi_restore 30
	.cfi_restore 29
	.cfi_def_cfa_offset 0
	ret
	.cfi_endproc
.LFE4954:
	.section	.gcc_except_table._ZN5boost4asio6detail17executor_functionD2Ev,"aG",@progbits,_ZN5boost4asio6detail17executor_functionD5Ev,comdat
.LLSDA4954:
	.byte	0xff
	.byte	0xff
	.byte	0x1
	.uleb128 .LLSDACSE4954-.LLSDACSB4954
.LLSDACSB4954:
.LLSDACSE4954:
	.section	.text._ZN5boost4asio6detail17executor_functionD2Ev,"axG",@progbits,_ZN5boost4asio6detail17executor_functionD5Ev,comdat
	.size	_ZN5boost4asio6detail17executor_functionD2Ev, .-_ZN5boost4asio6detail17executor_functionD2Ev
	.weak	_ZN5boost4asio6detail17executor_functionD1Ev
	.set	_ZN5boost4asio6detail17executor_functionD1Ev,_ZN5boost4asio6detail17executor_functionD2Ev
	.section	.text._ZN5boost4asio6detail17executor_functionclEv,"axG",@progbits,_ZN5boost4asio6detail17executor_functionclEv,comdat
	.align	2
	.weak	_ZN5boost4asio6detail17executor_functionclEv
	.type	_ZN5boost4asio6detail17executor_functionclEv, %function
_ZN5boost4asio6detail17executor_functionclEv:
.LFB4956:
	.cfi_startproc
	stp	x29, x30, [sp, -48]!
	.cfi_def_cfa_offset 48
	.cfi_offset 29, -48
	.cfi_offset 30, -40
	mov	x29, sp
	str	x0, [sp, 24]
	ldr	x0, [sp, 24]
	ldr	x0, [x0]
	cmp	x0, 0
	beq	.L383
	ldr	x0, [sp, 24]
	ldr	x0, [x0]
	str	x0, [sp, 40]
	ldr	x0, [sp, 24]
	str	xzr, [x0]
	ldr	x0, [sp, 40]
	ldr	x2, [x0]
	mov	w1, 1
	ldr	x0, [sp, 40]
	blr	x2
.L383:
	nop
	ldp	x29, x30, [sp], 48
	.cfi_restore 30
	.cfi_restore 29
	.cfi_def_cfa_offset 0
	ret
	.cfi_endproc
.LFE4956:
	.size	_ZN5boost4asio6detail17executor_functionclEv, .-_ZN5boost4asio6detail17executor_functionclEv
	.section	.text._ZN5boost4asio6detail22executor_function_viewclEv,"axG",@progbits,_ZN5boost4asio6detail22executor_function_viewclEv,comdat
	.align	2
	.weak	_ZN5boost4asio6detail22executor_function_viewclEv
	.type	_ZN5boost4asio6detail22executor_function_viewclEv, %function
_ZN5boost4asio6detail22executor_function_viewclEv:
.LFB4963:
	.cfi_startproc
	stp	x29, x30, [sp, -32]!
	.cfi_def_cfa_offset 32
	.cfi_offset 29, -32
	.cfi_offset 30, -24
	mov	x29, sp
	str	x0, [sp, 24]
	ldr	x0, [sp, 24]
	ldr	x1, [x0]
	ldr	x0, [sp, 24]
	ldr	x0, [x0, 8]
	blr	x1
	nop
	ldp	x29, x30, [sp], 32
	.cfi_restore 30
	.cfi_restore 29
	.cfi_def_cfa_offset 0
	ret
	.cfi_endproc
.LFE4963:
	.size	_ZN5boost4asio6detail22executor_function_viewclEv, .-_ZN5boost4asio6detail22executor_function_viewclEv
	.section	.text._ZN5boost4asio9execution12bad_executorC2Ev,"axG",@progbits,_ZN5boost4asio9execution12bad_executorC5Ev,comdat
	.align	2
	.weak	_ZN5boost4asio9execution12bad_executorC2Ev
	.type	_ZN5boost4asio9execution12bad_executorC2Ev, %function
_ZN5boost4asio9execution12bad_executorC2Ev:
.LFB4974:
	.cfi_startproc
	stp	x29, x30, [sp, -32]!
	.cfi_def_cfa_offset 32
	.cfi_offset 29, -32
	.cfi_offset 30, -24
	mov	x29, sp
	str	x0, [sp, 24]
	ldr	x0, [sp, 24]
	bl	_ZNSt9exceptionC2Ev
	adrp	x0, _ZTVN5boost4asio9execution12bad_executorE+16
	add	x1, x0, :lo12:_ZTVN5boost4asio9execution12bad_executorE+16
	ldr	x0, [sp, 24]
	str	x1, [x0]
	nop
	ldp	x29, x30, [sp], 32
	.cfi_restore 30
	.cfi_restore 29
	.cfi_def_cfa_offset 0
	ret
	.cfi_endproc
.LFE4974:
	.size	_ZN5boost4asio9execution12bad_executorC2Ev, .-_ZN5boost4asio9execution12bad_executorC2Ev
	.weak	_ZN5boost4asio9execution12bad_executorC1Ev
	.set	_ZN5boost4asio9execution12bad_executorC1Ev,_ZN5boost4asio9execution12bad_executorC2Ev
	.section	.rodata
	.align	3
.LC23:
	.string	"bad executor"
	.section	.text._ZNK5boost4asio9execution12bad_executor4whatEv,"axG",@progbits,_ZNK5boost4asio9execution12bad_executor4whatEv,comdat
	.align	2
	.weak	_ZNK5boost4asio9execution12bad_executor4whatEv
	.type	_ZNK5boost4asio9execution12bad_executor4whatEv, %function
_ZNK5boost4asio9execution12bad_executor4whatEv:
.LFB4976:
	.cfi_startproc
	sub	sp, sp, #16
	.cfi_def_cfa_offset 16
	str	x0, [sp, 8]
	adrp	x0, .LC23
	add	x0, x0, :lo12:.LC23
	add	sp, sp, 16
	.cfi_def_cfa_offset 0
	ret
	.cfi_endproc
.LFE4976:
	.size	_ZNK5boost4asio9execution12bad_executor4whatEv, .-_ZNK5boost4asio9execution12bad_executor4whatEv
	.section	.data.rel.ro.local
	.align	3
	.type	_ZN5boost4asio12_GLOBAL__N_1L6preferE, %object
	.size	_ZN5boost4asio12_GLOBAL__N_1L6preferE, 8
_ZN5boost4asio12_GLOBAL__N_1L6preferE:
	.xword	_ZN14asio_prefer_fn15static_instanceINS_4implEE8instanceE
	.align	3
	.type	_ZN5boost4asio12_GLOBAL__N_1L5queryE, %object
	.size	_ZN5boost4asio12_GLOBAL__N_1L5queryE, 8
_ZN5boost4asio12_GLOBAL__N_1L5queryE:
	.xword	_ZN13asio_query_fn15static_instanceINS_4implEE8instanceE
	.align	3
	.type	_ZN5boost4asio12_GLOBAL__N_1L7requireE, %object
	.size	_ZN5boost4asio12_GLOBAL__N_1L7requireE, 8
_ZN5boost4asio12_GLOBAL__N_1L7requireE:
	.xword	_ZN15asio_require_fn15static_instanceINS_4implEE8instanceE
	.weak	_ZN5boost4asio9execution6detail10blocking_tILi0EE8possiblyE
	.section	.rodata._ZN5boost4asio9execution6detail10blocking_tILi0EE8possiblyE,"aG",@progbits,_ZN5boost4asio9execution6detail10blocking_tILi0EE8possiblyE,comdat
	.align	3
	.type	_ZN5boost4asio9execution6detail10blocking_tILi0EE8possiblyE, %gnu_unique_object
	.size	_ZN5boost4asio9execution6detail10blocking_tILi0EE8possiblyE, 1
_ZN5boost4asio9execution6detail10blocking_tILi0EE8possiblyE:
	.zero	1
	.weak	_ZN5boost4asio9execution6detail10blocking_tILi0EE5neverE
	.section	.rodata._ZN5boost4asio9execution6detail10blocking_tILi0EE5neverE,"aG",@progbits,_ZN5boost4asio9execution6detail10blocking_tILi0EE5neverE,comdat
	.align	3
	.type	_ZN5boost4asio9execution6detail10blocking_tILi0EE5neverE, %gnu_unique_object
	.size	_ZN5boost4asio9execution6detail10blocking_tILi0EE5neverE, 1
_ZN5boost4asio9execution6detail10blocking_tILi0EE5neverE:
	.zero	1
	.section	.rodata
	.align	3
	.type	_ZN5boost4asio9executionL8blockingE, %object
	.size	_ZN5boost4asio9executionL8blockingE, 4
_ZN5boost4asio9executionL8blockingE:
	.word	-1
	.section	.text._ZN5boost4asio9execution6detail17any_executor_baseC2Ev,"axG",@progbits,_ZN5boost4asio9execution6detail17any_executor_baseC5Ev,comdat
	.align	2
	.weak	_ZN5boost4asio9execution6detail17any_executor_baseC2Ev
	.type	_ZN5boost4asio9execution6detail17any_executor_baseC2Ev, %function
_ZN5boost4asio9execution6detail17any_executor_baseC2Ev:
.LFB5055:
	.cfi_startproc
	stp	x29, x30, [sp, -32]!
	.cfi_def_cfa_offset 32
	.cfi_offset 29, -32
	.cfi_offset 30, -24
	mov	x29, sp
	str	x0, [sp, 24]
	mov	x0, 0
	bl	_ZN5boost4asio9execution6detail17any_executor_base16object_fns_tableIvEEPKNS3_10object_fnsEPNSt9enable_ifIXsrSt7is_sameIT_vE5valueEvE4typeE
	mov	x1, x0
	ldr	x0, [sp, 24]
	str	x1, [x0, 16]
	ldr	x0, [sp, 24]
	str	xzr, [x0, 24]
	mov	x0, 0
	bl	_ZN5boost4asio9execution6detail17any_executor_base16target_fns_tableIvEEPKNS3_10target_fnsEPNSt9enable_ifIXsrSt7is_sameIT_vE5valueEvE4typeE
	mov	x1, x0
	ldr	x0, [sp, 24]
	str	x1, [x0, 32]
	nop
	ldp	x29, x30, [sp], 32
	.cfi_restore 30
	.cfi_restore 29
	.cfi_def_cfa_offset 0
	ret
	.cfi_endproc
.LFE5055:
	.size	_ZN5boost4asio9execution6detail17any_executor_baseC2Ev, .-_ZN5boost4asio9execution6detail17any_executor_baseC2Ev
	.weak	_ZN5boost4asio9execution6detail17any_executor_baseC1Ev
	.set	_ZN5boost4asio9execution6detail17any_executor_baseC1Ev,_ZN5boost4asio9execution6detail17any_executor_baseC2Ev
	.section	.text._ZN5boost4asio9execution6detail17any_executor_baseD2Ev,"axG",@progbits,_ZN5boost4asio9execution6detail17any_executor_baseD5Ev,comdat
	.align	2
	.weak	_ZN5boost4asio9execution6detail17any_executor_baseD2Ev
	.type	_ZN5boost4asio9execution6detail17any_executor_baseD2Ev, %function
_ZN5boost4asio9execution6detail17any_executor_baseD2Ev:
.LFB5067:
	.cfi_startproc
	.cfi_personality 0x9b,DW.ref.__gxx_personality_v0
	.cfi_lsda 0x1b,.LLSDA5067
	stp	x29, x30, [sp, -32]!
	.cfi_def_cfa_offset 32
	.cfi_offset 29, -32
	.cfi_offset 30, -24
	mov	x29, sp
	str	x0, [sp, 24]
	ldr	x0, [sp, 24]
	ldr	x0, [x0, 16]
	ldr	x1, [x0]
	ldr	x0, [sp, 24]
	blr	x1
	nop
	ldp	x29, x30, [sp], 32
	.cfi_restore 30
	.cfi_restore 29
	.cfi_def_cfa_offset 0
	ret
	.cfi_endproc
.LFE5067:
	.section	.gcc_except_table._ZN5boost4asio9execution6detail17any_executor_baseD2Ev,"aG",@progbits,_ZN5boost4asio9execution6detail17any_executor_baseD5Ev,comdat
.LLSDA5067:
	.byte	0xff
	.byte	0xff
	.byte	0x1
	.uleb128 .LLSDACSE5067-.LLSDACSB5067
.LLSDACSB5067:
.LLSDACSE5067:
	.section	.text._ZN5boost4asio9execution6detail17any_executor_baseD2Ev,"axG",@progbits,_ZN5boost4asio9execution6detail17any_executor_baseD5Ev,comdat
	.size	_ZN5boost4asio9execution6detail17any_executor_baseD2Ev, .-_ZN5boost4asio9execution6detail17any_executor_baseD2Ev
	.weak	_ZN5boost4asio9execution6detail17any_executor_baseD1Ev
	.set	_ZN5boost4asio9execution6detail17any_executor_baseD1Ev,_ZN5boost4asio9execution6detail17any_executor_baseD2Ev
	.section	.text._ZN5boost4asio9execution6detail17any_executor_baseC2EOS3_,"axG",@progbits,_ZN5boost4asio9execution6detail17any_executor_baseC5EOS3_,comdat
	.align	2
	.weak	_ZN5boost4asio9execution6detail17any_executor_baseC2EOS3_
	.type	_ZN5boost4asio9execution6detail17any_executor_baseC2EOS3_, %function
_ZN5boost4asio9execution6detail17any_executor_baseC2EOS3_:
.LFB5072:
	.cfi_startproc
	.cfi_personality 0x9b,DW.ref.__gxx_personality_v0
	.cfi_lsda 0x1b,.LLSDA5072
	stp	x29, x30, [sp, -32]!
	.cfi_def_cfa_offset 32
	.cfi_offset 29, -32
	.cfi_offset 30, -24
	mov	x29, sp
	str	x0, [sp, 24]
	str	x1, [sp, 16]
	ldr	x0, [sp, 16]
	ldr	x1, [x0, 16]
	ldr	x0, [sp, 24]
	str	x1, [x0, 16]
	ldr	x0, [sp, 16]
	ldr	x1, [x0, 32]
	ldr	x0, [sp, 24]
	str	x1, [x0, 32]
	mov	x0, 0
	bl	_ZN5boost4asio9execution6detail17any_executor_base16object_fns_tableIvEEPKNS3_10object_fnsEPNSt9enable_ifIXsrSt7is_sameIT_vE5valueEvE4typeE
	mov	x1, x0
	ldr	x0, [sp, 16]
	str	x1, [x0, 16]
	mov	x0, 0
	bl	_ZN5boost4asio9execution6detail17any_executor_base16target_fns_tableIvEEPKNS3_10target_fnsEPNSt9enable_ifIXsrSt7is_sameIT_vE5valueEvE4typeE
	mov	x1, x0
	ldr	x0, [sp, 16]
	str	x1, [x0, 32]
	ldr	x0, [sp, 24]
	ldr	x0, [x0, 16]
	ldr	x2, [x0, 16]
	ldr	x1, [sp, 16]
	ldr	x0, [sp, 24]
	blr	x2
	ldr	x0, [sp, 16]
	str	xzr, [x0, 24]
	nop
	ldp	x29, x30, [sp], 32
	.cfi_restore 30
	.cfi_restore 29
	.cfi_def_cfa_offset 0
	ret
	.cfi_endproc
.LFE5072:
	.section	.gcc_except_table._ZN5boost4asio9execution6detail17any_executor_baseC2EOS3_,"aG",@progbits,_ZN5boost4asio9execution6detail17any_executor_baseC5EOS3_,comdat
.LLSDA5072:
	.byte	0xff
	.byte	0xff
	.byte	0x1
	.uleb128 .LLSDACSE5072-.LLSDACSB5072
.LLSDACSB5072:
.LLSDACSE5072:
	.section	.text._ZN5boost4asio9execution6detail17any_executor_baseC2EOS3_,"axG",@progbits,_ZN5boost4asio9execution6detail17any_executor_baseC5EOS3_,comdat
	.size	_ZN5boost4asio9execution6detail17any_executor_baseC2EOS3_, .-_ZN5boost4asio9execution6detail17any_executor_baseC2EOS3_
	.weak	_ZN5boost4asio9execution6detail17any_executor_baseC1EOS3_
	.set	_ZN5boost4asio9execution6detail17any_executor_baseC1EOS3_,_ZN5boost4asio9execution6detail17any_executor_baseC2EOS3_
	.section	.text._ZNK5boost4asio9execution6detail17any_executor_base11target_typeEv,"axG",@progbits,_ZNK5boost4asio9execution6detail17any_executor_base11target_typeEv,comdat
	.align	2
	.weak	_ZNK5boost4asio9execution6detail17any_executor_base11target_typeEv
	.type	_ZNK5boost4asio9execution6detail17any_executor_base11target_typeEv, %function
_ZNK5boost4asio9execution6detail17any_executor_base11target_typeEv:
.LFB5079:
	.cfi_startproc
	stp	x29, x30, [sp, -32]!
	.cfi_def_cfa_offset 32
	.cfi_offset 29, -32
	.cfi_offset 30, -24
	mov	x29, sp
	str	x0, [sp, 24]
	ldr	x0, [sp, 24]
	ldr	x0, [x0, 32]
	ldr	x0, [x0]
	blr	x0
	ldp	x29, x30, [sp], 32
	.cfi_restore 30
	.cfi_restore 29
	.cfi_def_cfa_offset 0
	ret
	.cfi_endproc
.LFE5079:
	.size	_ZNK5boost4asio9execution6detail17any_executor_base11target_typeEv, .-_ZNK5boost4asio9execution6detail17any_executor_base11target_typeEv
	.section	.text._ZNK5boost4asio9execution6detail17any_executor_basentEv,"axG",@progbits,_ZNK5boost4asio9execution6detail17any_executor_basentEv,comdat
	.align	2
	.weak	_ZNK5boost4asio9execution6detail17any_executor_basentEv
	.type	_ZNK5boost4asio9execution6detail17any_executor_basentEv, %function
_ZNK5boost4asio9execution6detail17any_executor_basentEv:
.LFB5082:
	.cfi_startproc
	sub	sp, sp, #16
	.cfi_def_cfa_offset 16
	str	x0, [sp, 8]
	ldr	x0, [sp, 8]
	ldr	x0, [x0, 24]
	cmp	x0, 0
	cset	w0, eq
	and	w0, w0, 255
	add	sp, sp, 16
	.cfi_def_cfa_offset 0
	ret
	.cfi_endproc
.LFE5082:
	.size	_ZNK5boost4asio9execution6detail17any_executor_basentEv, .-_ZNK5boost4asio9execution6detail17any_executor_basentEv
	.section	.text._ZN5boost4asio9execution6detail17any_executor_base12destroy_voidERS3_,"axG",@progbits,_ZN5boost4asio9execution6detail17any_executor_base12destroy_voidERS3_,comdat
	.align	2
	.weak	_ZN5boost4asio9execution6detail17any_executor_base12destroy_voidERS3_
	.type	_ZN5boost4asio9execution6detail17any_executor_base12destroy_voidERS3_, %function
_ZN5boost4asio9execution6detail17any_executor_base12destroy_voidERS3_:
.LFB5086:
	.cfi_startproc
	sub	sp, sp, #16
	.cfi_def_cfa_offset 16
	str	x0, [sp, 8]
	nop
	add	sp, sp, 16
	.cfi_def_cfa_offset 0
	ret
	.cfi_endproc
.LFE5086:
	.size	_ZN5boost4asio9execution6detail17any_executor_base12destroy_voidERS3_, .-_ZN5boost4asio9execution6detail17any_executor_base12destroy_voidERS3_
	.section	.text._ZN5boost4asio9execution6detail17any_executor_base9copy_voidERS3_RKS3_,"axG",@progbits,_ZN5boost4asio9execution6detail17any_executor_base9copy_voidERS3_RKS3_,comdat
	.align	2
	.weak	_ZN5boost4asio9execution6detail17any_executor_base9copy_voidERS3_RKS3_
	.type	_ZN5boost4asio9execution6detail17any_executor_base9copy_voidERS3_RKS3_, %function
_ZN5boost4asio9execution6detail17any_executor_base9copy_voidERS3_RKS3_:
.LFB5087:
	.cfi_startproc
	sub	sp, sp, #16
	.cfi_def_cfa_offset 16
	str	x0, [sp, 8]
	str	x1, [sp]
	ldr	x0, [sp, 8]
	str	xzr, [x0, 24]
	nop
	add	sp, sp, 16
	.cfi_def_cfa_offset 0
	ret
	.cfi_endproc
.LFE5087:
	.size	_ZN5boost4asio9execution6detail17any_executor_base9copy_voidERS3_RKS3_, .-_ZN5boost4asio9execution6detail17any_executor_base9copy_voidERS3_RKS3_
	.section	.text._ZN5boost4asio9execution6detail17any_executor_base9move_voidERS3_S4_,"axG",@progbits,_ZN5boost4asio9execution6detail17any_executor_base9move_voidERS3_S4_,comdat
	.align	2
	.weak	_ZN5boost4asio9execution6detail17any_executor_base9move_voidERS3_S4_
	.type	_ZN5boost4asio9execution6detail17any_executor_base9move_voidERS3_S4_, %function
_ZN5boost4asio9execution6detail17any_executor_base9move_voidERS3_S4_:
.LFB5088:
	.cfi_startproc
	sub	sp, sp, #16
	.cfi_def_cfa_offset 16
	str	x0, [sp, 8]
	str	x1, [sp]
	ldr	x0, [sp, 8]
	str	xzr, [x0, 24]
	nop
	add	sp, sp, 16
	.cfi_def_cfa_offset 0
	ret
	.cfi_endproc
.LFE5088:
	.size	_ZN5boost4asio9execution6detail17any_executor_base9move_voidERS3_S4_, .-_ZN5boost4asio9execution6detail17any_executor_base9move_voidERS3_S4_
	.section	.text._ZN5boost4asio9execution6detail17any_executor_base11target_voidERKS3_,"axG",@progbits,_ZN5boost4asio9execution6detail17any_executor_base11target_voidERKS3_,comdat
	.align	2
	.weak	_ZN5boost4asio9execution6detail17any_executor_base11target_voidERKS3_
	.type	_ZN5boost4asio9execution6detail17any_executor_base11target_voidERKS3_, %function
_ZN5boost4asio9execution6detail17any_executor_base11target_voidERKS3_:
.LFB5089:
	.cfi_startproc
	sub	sp, sp, #16
	.cfi_def_cfa_offset 16
	str	x0, [sp, 8]
	mov	x0, 0
	add	sp, sp, 16
	.cfi_def_cfa_offset 0
	ret
	.cfi_endproc
.LFE5089:
	.size	_ZN5boost4asio9execution6detail17any_executor_base11target_voidERKS3_, .-_ZN5boost4asio9execution6detail17any_executor_base11target_voidERKS3_
	.section	.text._ZN5boost4asio9execution6detail17any_executor_base16target_type_voidEv,"axG",@progbits,_ZN5boost4asio9execution6detail17any_executor_base16target_type_voidEv,comdat
	.align	2
	.weak	_ZN5boost4asio9execution6detail17any_executor_base16target_type_voidEv
	.type	_ZN5boost4asio9execution6detail17any_executor_base16target_type_voidEv, %function
_ZN5boost4asio9execution6detail17any_executor_base16target_type_voidEv:
.LFB5113:
	.cfi_startproc
	adrp	x0, :got:_ZTIv
	ldr	x0, [x0, #:got_lo12:_ZTIv]
	ret
	.cfi_endproc
.LFE5113:
	.size	_ZN5boost4asio9execution6detail17any_executor_base16target_type_voidEv, .-_ZN5boost4asio9execution6detail17any_executor_base16target_type_voidEv
	.section	.text._ZN5boost4asio9execution6detail17any_executor_base10equal_voidERKS3_S5_,"axG",@progbits,_ZN5boost4asio9execution6detail17any_executor_base10equal_voidERKS3_S5_,comdat
	.align	2
	.weak	_ZN5boost4asio9execution6detail17any_executor_base10equal_voidERKS3_S5_
	.type	_ZN5boost4asio9execution6detail17any_executor_base10equal_voidERKS3_S5_, %function
_ZN5boost4asio9execution6detail17any_executor_base10equal_voidERKS3_S5_:
.LFB5114:
	.cfi_startproc
	sub	sp, sp, #16
	.cfi_def_cfa_offset 16
	str	x0, [sp, 8]
	str	x1, [sp]
	mov	w0, 1
	add	sp, sp, 16
	.cfi_def_cfa_offset 0
	ret
	.cfi_endproc
.LFE5114:
	.size	_ZN5boost4asio9execution6detail17any_executor_base10equal_voidERKS3_S5_, .-_ZN5boost4asio9execution6detail17any_executor_base10equal_voidERKS3_S5_
	.section	.text._ZN5boost4asio9execution6detail17any_executor_base12execute_voidERKS3_ONS0_6detail17executor_functionE,"axG",@progbits,_ZN5boost4asio9execution6detail17any_executor_base12execute_voidERKS3_ONS0_6detail17executor_functionE,comdat
	.align	2
	.weak	_ZN5boost4asio9execution6detail17any_executor_base12execute_voidERKS3_ONS0_6detail17executor_functionE
	.type	_ZN5boost4asio9execution6detail17any_executor_base12execute_voidERKS3_ONS0_6detail17executor_functionE, %function
_ZN5boost4asio9execution6detail17any_executor_base12execute_voidERKS3_ONS0_6detail17executor_functionE:
.LFB5115:
	.cfi_startproc
	.cfi_personality 0x9b,DW.ref.__gxx_personality_v0
	.cfi_lsda 0x1b,.LLSDA5115
	stp	x29, x30, [sp, -64]!
	.cfi_def_cfa_offset 64
	.cfi_offset 29, -64
	.cfi_offset 30, -56
	mov	x29, sp
	str	x19, [sp, 16]
	.cfi_offset 19, -48
	str	x0, [sp, 40]
	str	x1, [sp, 32]
	adrp	x0, :got:__stack_chk_guard
	ldr	x0, [x0, #:got_lo12:__stack_chk_guard]
	ldr	x1, [x0]
	str	x1, [sp, 56]
	mov	x1, 0
	add	x0, sp, 48
	bl	_ZN5boost4asio9execution12bad_executorC1Ev
	add	x0, sp, 48
.LEHB37:
	bl	_ZN5boost15throw_exceptionINS_4asio9execution12bad_executorEEEvRKT_
.LEHE37:
.L407:
	mov	x19, x0
	add	x0, sp, 48
	bl	_ZN5boost4asio9execution12bad_executorD1Ev
	mov	x0, x19
.LEHB38:
	bl	_Unwind_Resume
.LEHE38:
	.cfi_endproc
.LFE5115:
	.section	.gcc_except_table._ZN5boost4asio9execution6detail17any_executor_base12execute_voidERKS3_ONS0_6detail17executor_functionE,"aG",@progbits,_ZN5boost4asio9execution6detail17any_executor_base12execute_voidERKS3_ONS0_6detail17executor_functionE,comdat
.LLSDA5115:
	.byte	0xff
	.byte	0xff
	.byte	0x1
	.uleb128 .LLSDACSE5115-.LLSDACSB5115
.LLSDACSB5115:
	.uleb128 .LEHB37-.LFB5115
	.uleb128 .LEHE37-.LEHB37
	.uleb128 .L407-.LFB5115
	.uleb128 0
	.uleb128 .LEHB38-.LFB5115
	.uleb128 .LEHE38-.LEHB38
	.uleb128 0
	.uleb128 0
.LLSDACSE5115:
	.section	.text._ZN5boost4asio9execution6detail17any_executor_base12execute_voidERKS3_ONS0_6detail17executor_functionE,"axG",@progbits,_ZN5boost4asio9execution6detail17any_executor_base12execute_voidERKS3_ONS0_6detail17executor_functionE,comdat
	.size	_ZN5boost4asio9execution6detail17any_executor_base12execute_voidERKS3_ONS0_6detail17executor_functionE, .-_ZN5boost4asio9execution6detail17any_executor_base12execute_voidERKS3_ONS0_6detail17executor_functionE
	.section	.text._ZN5boost4asio9execution6detail17any_executor_base21blocking_execute_voidERKS3_NS0_6detail22executor_function_viewE,"axG",@progbits,_ZN5boost4asio9execution6detail17any_executor_base21blocking_execute_voidERKS3_NS0_6detail22executor_function_viewE,comdat
	.align	2
	.weak	_ZN5boost4asio9execution6detail17any_executor_base21blocking_execute_voidERKS3_NS0_6detail22executor_function_viewE
	.type	_ZN5boost4asio9execution6detail17any_executor_base21blocking_execute_voidERKS3_NS0_6detail22executor_function_viewE, %function
_ZN5boost4asio9execution6detail17any_executor_base21blocking_execute_voidERKS3_NS0_6detail22executor_function_viewE:
.LFB5116:
	.cfi_startproc
	.cfi_personality 0x9b,DW.ref.__gxx_personality_v0
	.cfi_lsda 0x1b,.LLSDA5116
	stp	x29, x30, [sp, -80]!
	.cfi_def_cfa_offset 80
	.cfi_offset 29, -80
	.cfi_offset 30, -72
	mov	x29, sp
	str	x19, [sp, 16]
	.cfi_offset 19, -64
	str	x0, [sp, 56]
	stp	x1, x2, [sp, 40]
	adrp	x0, :got:__stack_chk_guard
	ldr	x0, [x0, #:got_lo12:__stack_chk_guard]
	ldr	x1, [x0]
	str	x1, [sp, 72]
	mov	x1, 0
	add	x0, sp, 64
	bl	_ZN5boost4asio9execution12bad_executorC1Ev
	add	x0, sp, 64
.LEHB39:
	bl	_ZN5boost15throw_exceptionINS_4asio9execution12bad_executorEEEvRKT_
.LEHE39:
.L411:
	mov	x19, x0
	add	x0, sp, 64
	bl	_ZN5boost4asio9execution12bad_executorD1Ev
	mov	x0, x19
.LEHB40:
	bl	_Unwind_Resume
.LEHE40:
	.cfi_endproc
.LFE5116:
	.section	.gcc_except_table._ZN5boost4asio9execution6detail17any_executor_base21blocking_execute_voidERKS3_NS0_6detail22executor_function_viewE,"aG",@progbits,_ZN5boost4asio9execution6detail17any_executor_base21blocking_execute_voidERKS3_NS0_6detail22executor_function_viewE,comdat
.LLSDA5116:
	.byte	0xff
	.byte	0xff
	.byte	0x1
	.uleb128 .LLSDACSE5116-.LLSDACSB5116
.LLSDACSB5116:
	.uleb128 .LEHB39-.LFB5116
	.uleb128 .LEHE39-.LEHB39
	.uleb128 .L411-.LFB5116
	.uleb128 0
	.uleb128 .LEHB40-.LFB5116
	.uleb128 .LEHE40-.LEHB40
	.uleb128 0
	.uleb128 0
.LLSDACSE5116:
	.section	.text._ZN5boost4asio9execution6detail17any_executor_base21blocking_execute_voidERKS3_NS0_6detail22executor_function_viewE,"axG",@progbits,_ZN5boost4asio9execution6detail17any_executor_base21blocking_execute_voidERKS3_NS0_6detail22executor_function_viewE,comdat
	.size	_ZN5boost4asio9execution6detail17any_executor_base21blocking_execute_voidERKS3_NS0_6detail22executor_function_viewE, .-_ZN5boost4asio9execution6detail17any_executor_base21blocking_execute_voidERKS3_NS0_6detail22executor_function_viewE
	.section	.text._ZN5boost4asio9execution6detail17any_executor_base13query_fn_voidEPvPKvS6_,"axG",@progbits,_ZN5boost4asio9execution6detail17any_executor_base13query_fn_voidEPvPKvS6_,comdat
	.align	2
	.weak	_ZN5boost4asio9execution6detail17any_executor_base13query_fn_voidEPvPKvS6_
	.type	_ZN5boost4asio9execution6detail17any_executor_base13query_fn_voidEPvPKvS6_, %function
_ZN5boost4asio9execution6detail17any_executor_base13query_fn_voidEPvPKvS6_:
.LFB5123:
	.cfi_startproc
	.cfi_personality 0x9b,DW.ref.__gxx_personality_v0
	.cfi_lsda 0x1b,.LLSDA5123
	stp	x29, x30, [sp, -80]!
	.cfi_def_cfa_offset 80
	.cfi_offset 29, -80
	.cfi_offset 30, -72
	mov	x29, sp
	str	x19, [sp, 16]
	.cfi_offset 19, -64
	str	x0, [sp, 56]
	str	x1, [sp, 48]
	str	x2, [sp, 40]
	adrp	x0, :got:__stack_chk_guard
	ldr	x0, [x0, #:got_lo12:__stack_chk_guard]
	ldr	x1, [x0]
	str	x1, [sp, 72]
	mov	x1, 0
	add	x0, sp, 64
	bl	_ZN5boost4asio9execution12bad_executorC1Ev
	add	x0, sp, 64
.LEHB41:
	bl	_ZN5boost15throw_exceptionINS_4asio9execution12bad_executorEEEvRKT_
.LEHE41:
.L415:
	mov	x19, x0
	add	x0, sp, 64
	bl	_ZN5boost4asio9execution12bad_executorD1Ev
	mov	x0, x19
.LEHB42:
	bl	_Unwind_Resume
.LEHE42:
	.cfi_endproc
.LFE5123:
	.section	.gcc_except_table._ZN5boost4asio9execution6detail17any_executor_base13query_fn_voidEPvPKvS6_,"aG",@progbits,_ZN5boost4asio9execution6detail17any_executor_base13query_fn_voidEPvPKvS6_,comdat
.LLSDA5123:
	.byte	0xff
	.byte	0xff
	.byte	0x1
	.uleb128 .LLSDACSE5123-.LLSDACSB5123
.LLSDACSB5123:
	.uleb128 .LEHB41-.LFB5123
	.uleb128 .LEHE41-.LEHB41
	.uleb128 .L415-.LFB5123
	.uleb128 0
	.uleb128 .LEHB42-.LFB5123
	.uleb128 .LEHE42-.LEHB42
	.uleb128 0
	.uleb128 0
.LLSDACSE5123:
	.section	.text._ZN5boost4asio9execution6detail17any_executor_base13query_fn_voidEPvPKvS6_,"axG",@progbits,_ZN5boost4asio9execution6detail17any_executor_base13query_fn_voidEPvPKvS6_,comdat
	.size	_ZN5boost4asio9execution6detail17any_executor_base13query_fn_voidEPvPKvS6_, .-_ZN5boost4asio9execution6detail17any_executor_base13query_fn_voidEPvPKvS6_
	.section	.text._ZN5boost4asio6detail11posix_eventD2Ev,"axG",@progbits,_ZN5boost4asio6detail11posix_eventD5Ev,comdat
	.align	2
	.weak	_ZN5boost4asio6detail11posix_eventD2Ev
	.type	_ZN5boost4asio6detail11posix_eventD2Ev, %function
_ZN5boost4asio6detail11posix_eventD2Ev:
.LFB5200:
	.cfi_startproc
	stp	x29, x30, [sp, -32]!
	.cfi_def_cfa_offset 32
	.cfi_offset 29, -32
	.cfi_offset 30, -24
	mov	x29, sp
	str	x0, [sp, 24]
	ldr	x0, [sp, 24]
	bl	pthread_cond_destroy
	ldr	x0, [sp, 24]
	bl	_ZN5boost4asio6detail11noncopyableD2Ev
	nop
	ldp	x29, x30, [sp], 32
	.cfi_restore 30
	.cfi_restore 29
	.cfi_def_cfa_offset 0
	ret
	.cfi_endproc
.LFE5200:
	.size	_ZN5boost4asio6detail11posix_eventD2Ev, .-_ZN5boost4asio6detail11posix_eventD2Ev
	.weak	_ZN5boost4asio6detail11posix_eventD1Ev
	.set	_ZN5boost4asio6detail11posix_eventD1Ev,_ZN5boost4asio6detail11posix_eventD2Ev
	.section	.rodata
	.align	3
.LC24:
	.string	"event"
	.section	.text._ZN5boost4asio6detail11posix_eventC2Ev,"axG",@progbits,_ZN5boost4asio6detail11posix_eventC5Ev,comdat
	.align	2
	.weak	_ZN5boost4asio6detail11posix_eventC2Ev
	.type	_ZN5boost4asio6detail11posix_eventC2Ev, %function
_ZN5boost4asio6detail11posix_eventC2Ev:
.LFB5211:
	.cfi_startproc
	.cfi_personality 0x9b,DW.ref.__gxx_personality_v0
	.cfi_lsda 0x1b,.LLSDA5211
	stp	x29, x30, [sp, -96]!
	.cfi_def_cfa_offset 96
	.cfi_offset 29, -96
	.cfi_offset 30, -88
	mov	x29, sp
	str	x19, [sp, 16]
	.cfi_offset 19, -80
	str	x0, [sp, 40]
	adrp	x0, :got:__stack_chk_guard
	ldr	x0, [x0, #:got_lo12:__stack_chk_guard]
	ldr	x1, [x0]
	str	x1, [sp, 88]
	mov	x1, 0
	ldr	x0, [sp, 40]
	bl	_ZN5boost4asio6detail11noncopyableC2Ev
	ldr	x0, [sp, 40]
	str	xzr, [x0, 48]
	add	x0, sp, 80
	bl	pthread_condattr_init
	add	x0, sp, 80
	mov	w1, 1
	bl	pthread_condattr_setclock
	str	w0, [sp, 60]
	ldr	w0, [sp, 60]
	cmp	w0, 0
	bne	.L418
	ldr	x0, [sp, 40]
	add	x1, sp, 80
	bl	pthread_cond_init
	str	w0, [sp, 60]
.L418:
	bl	_ZN5boost4asio5error19get_system_categoryEv
	mov	x1, x0
	add	x0, sp, 64
	mov	x2, x1
	ldr	w1, [sp, 60]
	bl	_ZN5boost6system10error_codeC1EiRKNS0_14error_categoryE
	add	x2, sp, 64
	adrp	x0, .LC24
	add	x1, x0, :lo12:.LC24
	mov	x0, x2
.LEHB43:
	bl	_ZN5boost4asio6detail11throw_errorERKNS_6system10error_codeEPKc
.LEHE43:
	b	.L422
.L421:
	mov	x19, x0
	ldr	x0, [sp, 40]
	bl	_ZN5boost4asio6detail11noncopyableD2Ev
	mov	x0, x19
.LEHB44:
	bl	_Unwind_Resume
.LEHE44:
.L422:
	adrp	x0, :got:__stack_chk_guard
	ldr	x0, [x0, #:got_lo12:__stack_chk_guard]
	ldr	x2, [sp, 88]
	ldr	x1, [x0]
	subs	x2, x2, x1
	mov	x1, 0
	beq	.L420
	bl	__stack_chk_fail
.L420:
	ldr	x19, [sp, 16]
	ldp	x29, x30, [sp], 96
	.cfi_restore 30
	.cfi_restore 29
	.cfi_restore 19
	.cfi_def_cfa_offset 0
	ret
	.cfi_endproc
.LFE5211:
	.section	.gcc_except_table._ZN5boost4asio6detail11posix_eventC2Ev,"aG",@progbits,_ZN5boost4asio6detail11posix_eventC5Ev,comdat
.LLSDA5211:
	.byte	0xff
	.byte	0xff
	.byte	0x1
	.uleb128 .LLSDACSE5211-.LLSDACSB5211
.LLSDACSB5211:
	.uleb128 .LEHB43-.LFB5211
	.uleb128 .LEHE43-.LEHB43
	.uleb128 .L421-.LFB5211
	.uleb128 0
	.uleb128 .LEHB44-.LFB5211
	.uleb128 .LEHE44-.LEHB44
	.uleb128 0
	.uleb128 0
.LLSDACSE5211:
	.section	.text._ZN5boost4asio6detail11posix_eventC2Ev,"axG",@progbits,_ZN5boost4asio6detail11posix_eventC5Ev,comdat
	.size	_ZN5boost4asio6detail11posix_eventC2Ev, .-_ZN5boost4asio6detail11posix_eventC2Ev
	.weak	_ZN5boost4asio6detail11posix_eventC1Ev
	.set	_ZN5boost4asio6detail11posix_eventC1Ev,_ZN5boost4asio6detail11posix_eventC2Ev
	.section	.text._ZN5boost4asio6detail11posix_mutexD2Ev,"axG",@progbits,_ZN5boost4asio6detail11posix_mutexD5Ev,comdat
	.align	2
	.weak	_ZN5boost4asio6detail11posix_mutexD2Ev
	.type	_ZN5boost4asio6detail11posix_mutexD2Ev, %function
_ZN5boost4asio6detail11posix_mutexD2Ev:
.LFB5221:
	.cfi_startproc
	stp	x29, x30, [sp, -32]!
	.cfi_def_cfa_offset 32
	.cfi_offset 29, -32
	.cfi_offset 30, -24
	mov	x29, sp
	str	x0, [sp, 24]
	ldr	x0, [sp, 24]
	bl	pthread_mutex_destroy
	ldr	x0, [sp, 24]
	bl	_ZN5boost4asio6detail11noncopyableD2Ev
	nop
	ldp	x29, x30, [sp], 32
	.cfi_restore 30
	.cfi_restore 29
	.cfi_def_cfa_offset 0
	ret
	.cfi_endproc
.LFE5221:
	.size	_ZN5boost4asio6detail11posix_mutexD2Ev, .-_ZN5boost4asio6detail11posix_mutexD2Ev
	.weak	_ZN5boost4asio6detail11posix_mutexD1Ev
	.set	_ZN5boost4asio6detail11posix_mutexD1Ev,_ZN5boost4asio6detail11posix_mutexD2Ev
	.section	.text._ZN5boost4asio6detail11posix_mutex4lockEv,"axG",@progbits,_ZN5boost4asio6detail11posix_mutex4lockEv,comdat
	.align	2
	.weak	_ZN5boost4asio6detail11posix_mutex4lockEv
	.type	_ZN5boost4asio6detail11posix_mutex4lockEv, %function
_ZN5boost4asio6detail11posix_mutex4lockEv:
.LFB5223:
	.cfi_startproc
	stp	x29, x30, [sp, -32]!
	.cfi_def_cfa_offset 32
	.cfi_offset 29, -32
	.cfi_offset 30, -24
	mov	x29, sp
	str	x0, [sp, 24]
	ldr	x0, [sp, 24]
	bl	pthread_mutex_lock
	nop
	ldp	x29, x30, [sp], 32
	.cfi_restore 30
	.cfi_restore 29
	.cfi_def_cfa_offset 0
	ret
	.cfi_endproc
.LFE5223:
	.size	_ZN5boost4asio6detail11posix_mutex4lockEv, .-_ZN5boost4asio6detail11posix_mutex4lockEv
	.section	.text._ZN5boost4asio6detail11posix_mutex6unlockEv,"axG",@progbits,_ZN5boost4asio6detail11posix_mutex6unlockEv,comdat
	.align	2
	.weak	_ZN5boost4asio6detail11posix_mutex6unlockEv
	.type	_ZN5boost4asio6detail11posix_mutex6unlockEv, %function
_ZN5boost4asio6detail11posix_mutex6unlockEv:
.LFB5224:
	.cfi_startproc
	stp	x29, x30, [sp, -32]!
	.cfi_def_cfa_offset 32
	.cfi_offset 29, -32
	.cfi_offset 30, -24
	mov	x29, sp
	str	x0, [sp, 24]
	ldr	x0, [sp, 24]
	bl	pthread_mutex_unlock
	nop
	ldp	x29, x30, [sp], 32
	.cfi_restore 30
	.cfi_restore 29
	.cfi_def_cfa_offset 0
	ret
	.cfi_endproc
.LFE5224:
	.size	_ZN5boost4asio6detail11posix_mutex6unlockEv, .-_ZN5boost4asio6detail11posix_mutex6unlockEv
	.section	.rodata
	.align	3
.LC25:
	.string	"mutex"
	.section	.text._ZN5boost4asio6detail11posix_mutexC2Ev,"axG",@progbits,_ZN5boost4asio6detail11posix_mutexC5Ev,comdat
	.align	2
	.weak	_ZN5boost4asio6detail11posix_mutexC2Ev
	.type	_ZN5boost4asio6detail11posix_mutexC2Ev, %function
_ZN5boost4asio6detail11posix_mutexC2Ev:
.LFB5226:
	.cfi_startproc
	.cfi_personality 0x9b,DW.ref.__gxx_personality_v0
	.cfi_lsda 0x1b,.LLSDA5226
	stp	x29, x30, [sp, -80]!
	.cfi_def_cfa_offset 80
	.cfi_offset 29, -80
	.cfi_offset 30, -72
	mov	x29, sp
	str	x19, [sp, 16]
	.cfi_offset 19, -64
	str	x0, [sp, 40]
	adrp	x0, :got:__stack_chk_guard
	ldr	x0, [x0, #:got_lo12:__stack_chk_guard]
	ldr	x1, [x0]
	str	x1, [sp, 72]
	mov	x1, 0
	ldr	x0, [sp, 40]
	bl	_ZN5boost4asio6detail11noncopyableC2Ev
	ldr	x0, [sp, 40]
	mov	x1, 0
	bl	pthread_mutex_init
	str	w0, [sp, 52]
	bl	_ZN5boost4asio5error19get_system_categoryEv
	mov	x1, x0
	add	x0, sp, 56
	mov	x2, x1
	ldr	w1, [sp, 52]
	bl	_ZN5boost6system10error_codeC1EiRKNS0_14error_categoryE
	add	x2, sp, 56
	adrp	x0, .LC25
	add	x1, x0, :lo12:.LC25
	mov	x0, x2
.LEHB45:
	bl	_ZN5boost4asio6detail11throw_errorERKNS_6system10error_codeEPKc
.LEHE45:
	b	.L430
.L429:
	mov	x19, x0
	ldr	x0, [sp, 40]
	bl	_ZN5boost4asio6detail11noncopyableD2Ev
	mov	x0, x19
.LEHB46:
	bl	_Unwind_Resume
.LEHE46:
.L430:
	adrp	x0, :got:__stack_chk_guard
	ldr	x0, [x0, #:got_lo12:__stack_chk_guard]
	ldr	x2, [sp, 72]
	ldr	x1, [x0]
	subs	x2, x2, x1
	mov	x1, 0
	beq	.L428
	bl	__stack_chk_fail
.L428:
	ldr	x19, [sp, 16]
	ldp	x29, x30, [sp], 80
	.cfi_restore 30
	.cfi_restore 29
	.cfi_restore 19
	.cfi_def_cfa_offset 0
	ret
	.cfi_endproc
.LFE5226:
	.section	.gcc_except_table._ZN5boost4asio6detail11posix_mutexC2Ev,"aG",@progbits,_ZN5boost4asio6detail11posix_mutexC5Ev,comdat
.LLSDA5226:
	.byte	0xff
	.byte	0xff
	.byte	0x1
	.uleb128 .LLSDACSE5226-.LLSDACSB5226
.LLSDACSB5226:
	.uleb128 .LEHB45-.LFB5226
	.uleb128 .LEHE45-.LEHB45
	.uleb128 .L429-.LFB5226
	.uleb128 0
	.uleb128 .LEHB46-.LFB5226
	.uleb128 .LEHE46-.LEHB46
	.uleb128 0
	.uleb128 0
.LLSDACSE5226:
	.section	.text._ZN5boost4asio6detail11posix_mutexC2Ev,"axG",@progbits,_ZN5boost4asio6detail11posix_mutexC5Ev,comdat
	.size	_ZN5boost4asio6detail11posix_mutexC2Ev, .-_ZN5boost4asio6detail11posix_mutexC2Ev
	.weak	_ZN5boost4asio6detail11posix_mutexC1Ev
	.set	_ZN5boost4asio6detail11posix_mutexC1Ev,_ZN5boost4asio6detail11posix_mutexC2Ev
	.section	.rodata
	.align	3
	.type	_ZN5boost4asio9executionL19blocking_adaptationE, %object
	.size	_ZN5boost4asio9executionL19blocking_adaptationE, 4
_ZN5boost4asio9executionL19blocking_adaptationE:
	.word	-1
	.align	3
	.type	_ZN5boost4asio9executionL14bulk_guaranteeE, %object
	.size	_ZN5boost4asio9executionL14bulk_guaranteeE, 4
_ZN5boost4asio9executionL14bulk_guaranteeE:
	.word	-1
	.section	.data.rel.ro.local
	.align	3
	.type	_ZN5boost4asio9execution12_GLOBAL__N_1L12bulk_executeE, %object
	.size	_ZN5boost4asio9execution12_GLOBAL__N_1L12bulk_executeE, 8
_ZN5boost4asio9execution12_GLOBAL__N_1L12bulk_executeE:
	.xword	_ZN30asio_execution_bulk_execute_fn15static_instanceINS_4implEE8instanceE
	.section	.rodata
	.align	3
	.type	_ZN5boost4asio9executionL7contextE, %object
	.size	_ZN5boost4asio9executionL7contextE, 1
_ZN5boost4asio9executionL7contextE:
	.zero	1
	.align	3
	.type	_ZN5boost4asio9executionL7mappingE, %object
	.size	_ZN5boost4asio9executionL7mappingE, 4
_ZN5boost4asio9executionL7mappingE:
	.word	-1
	.align	3
	.type	_ZN5boost4asio9executionL9occupancyE, %object
	.size	_ZN5boost4asio9executionL9occupancyE, 1
_ZN5boost4asio9executionL9occupancyE:
	.zero	1
	.weak	_ZN5boost4asio9execution6detail18outstanding_work_tILi0EE7trackedE
	.section	.rodata._ZN5boost4asio9execution6detail18outstanding_work_tILi0EE7trackedE,"aG",@progbits,_ZN5boost4asio9execution6detail18outstanding_work_tILi0EE7trackedE,comdat
	.align	3
	.type	_ZN5boost4asio9execution6detail18outstanding_work_tILi0EE7trackedE, %gnu_unique_object
	.size	_ZN5boost4asio9execution6detail18outstanding_work_tILi0EE7trackedE, 1
_ZN5boost4asio9execution6detail18outstanding_work_tILi0EE7trackedE:
	.zero	1
	.section	.rodata
	.align	3
	.type	_ZN5boost4asio9executionL16outstanding_workE, %object
	.size	_ZN5boost4asio9executionL16outstanding_workE, 4
_ZN5boost4asio9executionL16outstanding_workE:
	.word	-1
	.align	3
	.type	_ZN5boost4asio9executionL12relationshipE, %object
	.size	_ZN5boost4asio9executionL12relationshipE, 4
_ZN5boost4asio9executionL12relationshipE:
	.word	-1
	.section	.data.rel.ro.local
	.align	3
	.type	_ZN5boost4asio9execution12_GLOBAL__N_1L6submitE, %object
	.size	_ZN5boost4asio9execution12_GLOBAL__N_1L6submitE, 8
_ZN5boost4asio9execution12_GLOBAL__N_1L6submitE:
	.xword	_ZN24asio_execution_submit_fn15static_instanceINS_4implEE8instanceE
	.section	.text._ZN5boost4asio6detail16std_fenced_blockC2ENS2_6half_tE,"axG",@progbits,_ZN5boost4asio6detail16std_fenced_blockC5ENS2_6half_tE,comdat
	.align	2
	.weak	_ZN5boost4asio6detail16std_fenced_blockC2ENS2_6half_tE
	.type	_ZN5boost4asio6detail16std_fenced_blockC2ENS2_6half_tE, %function
_ZN5boost4asio6detail16std_fenced_blockC2ENS2_6half_tE:
.LFB5515:
	.cfi_startproc
	stp	x29, x30, [sp, -32]!
	.cfi_def_cfa_offset 32
	.cfi_offset 29, -32
	.cfi_offset 30, -24
	mov	x29, sp
	str	x0, [sp, 24]
	str	w1, [sp, 20]
	ldr	x0, [sp, 24]
	bl	_ZN5boost4asio6detail11noncopyableC2Ev
	nop
	ldp	x29, x30, [sp], 32
	.cfi_restore 30
	.cfi_restore 29
	.cfi_def_cfa_offset 0
	ret
	.cfi_endproc
.LFE5515:
	.size	_ZN5boost4asio6detail16std_fenced_blockC2ENS2_6half_tE, .-_ZN5boost4asio6detail16std_fenced_blockC2ENS2_6half_tE
	.weak	_ZN5boost4asio6detail16std_fenced_blockC1ENS2_6half_tE
	.set	_ZN5boost4asio6detail16std_fenced_blockC1ENS2_6half_tE,_ZN5boost4asio6detail16std_fenced_blockC2ENS2_6half_tE
	.section	.text._ZN5boost4asio6detail16std_fenced_blockC2ENS2_6full_tE,"axG",@progbits,_ZN5boost4asio6detail16std_fenced_blockC5ENS2_6full_tE,comdat
	.align	2
	.weak	_ZN5boost4asio6detail16std_fenced_blockC2ENS2_6full_tE
	.type	_ZN5boost4asio6detail16std_fenced_blockC2ENS2_6full_tE, %function
_ZN5boost4asio6detail16std_fenced_blockC2ENS2_6full_tE:
.LFB5518:
	.cfi_startproc
	stp	x29, x30, [sp, -48]!
	.cfi_def_cfa_offset 48
	.cfi_offset 29, -48
	.cfi_offset 30, -40
	mov	x29, sp
	str	x0, [sp, 24]
	str	w1, [sp, 20]
	ldr	x0, [sp, 24]
	bl	_ZN5boost4asio6detail11noncopyableC2Ev
	mov	w0, 2
	str	w0, [sp, 44]
	dmb	ish
	nop
	nop
	ldp	x29, x30, [sp], 48
	.cfi_restore 30
	.cfi_restore 29
	.cfi_def_cfa_offset 0
	ret
	.cfi_endproc
.LFE5518:
	.size	_ZN5boost4asio6detail16std_fenced_blockC2ENS2_6full_tE, .-_ZN5boost4asio6detail16std_fenced_blockC2ENS2_6full_tE
	.weak	_ZN5boost4asio6detail16std_fenced_blockC1ENS2_6full_tE
	.set	_ZN5boost4asio6detail16std_fenced_blockC1ENS2_6full_tE,_ZN5boost4asio6detail16std_fenced_blockC2ENS2_6full_tE
	.section	.text._ZN5boost4asio6detail16std_fenced_blockD2Ev,"axG",@progbits,_ZN5boost4asio6detail16std_fenced_blockD5Ev,comdat
	.align	2
	.weak	_ZN5boost4asio6detail16std_fenced_blockD2Ev
	.type	_ZN5boost4asio6detail16std_fenced_blockD2Ev, %function
_ZN5boost4asio6detail16std_fenced_blockD2Ev:
.LFB5521:
	.cfi_startproc
	stp	x29, x30, [sp, -48]!
	.cfi_def_cfa_offset 48
	.cfi_offset 29, -48
	.cfi_offset 30, -40
	mov	x29, sp
	str	x0, [sp, 24]
	mov	w0, 3
	str	w0, [sp, 44]
	dmb	ish
	nop
	ldr	x0, [sp, 24]
	bl	_ZN5boost4asio6detail11noncopyableD2Ev
	nop
	ldp	x29, x30, [sp], 48
	.cfi_restore 30
	.cfi_restore 29
	.cfi_def_cfa_offset 0
	ret
	.cfi_endproc
.LFE5521:
	.size	_ZN5boost4asio6detail16std_fenced_blockD2Ev, .-_ZN5boost4asio6detail16std_fenced_blockD2Ev
	.weak	_ZN5boost4asio6detail16std_fenced_blockD1Ev
	.set	_ZN5boost4asio6detail16std_fenced_blockD1Ev,_ZN5boost4asio6detail16std_fenced_blockD2Ev
	.section	.text._ZN5boost4asio6detail19scheduler_operation8completeEPvRKNS_6system10error_codeEm,"axG",@progbits,_ZN5boost4asio6detail19scheduler_operation8completeEPvRKNS_6system10error_codeEm,comdat
	.align	2
	.weak	_ZN5boost4asio6detail19scheduler_operation8completeEPvRKNS_6system10error_codeEm
	.type	_ZN5boost4asio6detail19scheduler_operation8completeEPvRKNS_6system10error_codeEm, %function
_ZN5boost4asio6detail19scheduler_operation8completeEPvRKNS_6system10error_codeEm:
.LFB5540:
	.cfi_startproc
	stp	x29, x30, [sp, -48]!
	.cfi_def_cfa_offset 48
	.cfi_offset 29, -48
	.cfi_offset 30, -40
	mov	x29, sp
	str	x0, [sp, 40]
	str	x1, [sp, 32]
	str	x2, [sp, 24]
	str	x3, [sp, 16]
	ldr	x0, [sp, 40]
	ldr	x4, [x0, 8]
	ldr	x3, [sp, 16]
	ldr	x2, [sp, 24]
	ldr	x1, [sp, 40]
	ldr	x0, [sp, 32]
	blr	x4
	nop
	ldp	x29, x30, [sp], 48
	.cfi_restore 30
	.cfi_restore 29
	.cfi_def_cfa_offset 0
	ret
	.cfi_endproc
.LFE5540:
	.size	_ZN5boost4asio6detail19scheduler_operation8completeEPvRKNS_6system10error_codeEm, .-_ZN5boost4asio6detail19scheduler_operation8completeEPvRKNS_6system10error_codeEm
	.section	.text._ZN5boost4asio6detail19scheduler_operation7destroyEv,"axG",@progbits,_ZN5boost4asio6detail19scheduler_operation7destroyEv,comdat
	.align	2
	.weak	_ZN5boost4asio6detail19scheduler_operation7destroyEv
	.type	_ZN5boost4asio6detail19scheduler_operation7destroyEv, %function
_ZN5boost4asio6detail19scheduler_operation7destroyEv:
.LFB5541:
	.cfi_startproc
	stp	x29, x30, [sp, -80]!
	.cfi_def_cfa_offset 80
	.cfi_offset 29, -80
	.cfi_offset 30, -72
	mov	x29, sp
	str	x19, [sp, 16]
	.cfi_offset 19, -64
	str	x0, [sp, 40]
	adrp	x0, :got:__stack_chk_guard
	ldr	x0, [x0, #:got_lo12:__stack_chk_guard]
	ldr	x1, [x0]
	str	x1, [sp, 72]
	mov	x1, 0
	ldr	x0, [sp, 40]
	ldr	x19, [x0, 8]
	add	x0, sp, 56
	bl	_ZN5boost6system10error_codeC1Ev
	add	x0, sp, 56
	mov	x3, 0
	mov	x2, x0
	ldr	x1, [sp, 40]
	mov	x0, 0
	blr	x19
	nop
	adrp	x0, :got:__stack_chk_guard
	ldr	x0, [x0, #:got_lo12:__stack_chk_guard]
	ldr	x2, [sp, 72]
	ldr	x1, [x0]
	subs	x2, x2, x1
	mov	x1, 0
	beq	.L436
	bl	__stack_chk_fail
.L436:
	ldr	x19, [sp, 16]
	ldp	x29, x30, [sp], 80
	.cfi_restore 30
	.cfi_restore 29
	.cfi_restore 19
	.cfi_def_cfa_offset 0
	ret
	.cfi_endproc
.LFE5541:
	.size	_ZN5boost4asio6detail19scheduler_operation7destroyEv, .-_ZN5boost4asio6detail19scheduler_operation7destroyEv
	.section	.text._ZN5boost4asio6detail19scheduler_operationC2EPFvPvPS2_RKNS_6system10error_codeEmE,"axG",@progbits,_ZN5boost4asio6detail19scheduler_operationC5EPFvPvPS2_RKNS_6system10error_codeEmE,comdat
	.align	2
	.weak	_ZN5boost4asio6detail19scheduler_operationC2EPFvPvPS2_RKNS_6system10error_codeEmE
	.type	_ZN5boost4asio6detail19scheduler_operationC2EPFvPvPS2_RKNS_6system10error_codeEmE, %function
_ZN5boost4asio6detail19scheduler_operationC2EPFvPvPS2_RKNS_6system10error_codeEmE:
.LFB5543:
	.cfi_startproc
	sub	sp, sp, #16
	.cfi_def_cfa_offset 16
	str	x0, [sp, 8]
	str	x1, [sp]
	ldr	x0, [sp, 8]
	str	xzr, [x0]
	ldr	x0, [sp, 8]
	ldr	x1, [sp]
	str	x1, [x0, 8]
	ldr	x0, [sp, 8]
	str	wzr, [x0, 16]
	nop
	add	sp, sp, 16
	.cfi_def_cfa_offset 0
	ret
	.cfi_endproc
.LFE5543:
	.size	_ZN5boost4asio6detail19scheduler_operationC2EPFvPvPS2_RKNS_6system10error_codeEmE, .-_ZN5boost4asio6detail19scheduler_operationC2EPFvPvPS2_RKNS_6system10error_codeEmE
	.weak	_ZN5boost4asio6detail19scheduler_operationC1EPFvPvPS2_RKNS_6system10error_codeEmE
	.set	_ZN5boost4asio6detail19scheduler_operationC1EPFvPvPS2_RKNS_6system10error_codeEmE,_ZN5boost4asio6detail19scheduler_operationC2EPFvPvPS2_RKNS_6system10error_codeEmE
	.section	.text._ZN5boost4asio6detail19scheduler_operationD2Ev,"axG",@progbits,_ZN5boost4asio6detail19scheduler_operationD5Ev,comdat
	.align	2
	.weak	_ZN5boost4asio6detail19scheduler_operationD2Ev
	.type	_ZN5boost4asio6detail19scheduler_operationD2Ev, %function
_ZN5boost4asio6detail19scheduler_operationD2Ev:
.LFB5546:
	.cfi_startproc
	sub	sp, sp, #16
	.cfi_def_cfa_offset 16
	str	x0, [sp, 8]
	nop
	add	sp, sp, 16
	.cfi_def_cfa_offset 0
	ret
	.cfi_endproc
.LFE5546:
	.size	_ZN5boost4asio6detail19scheduler_operationD2Ev, .-_ZN5boost4asio6detail19scheduler_operationD2Ev
	.weak	_ZN5boost4asio6detail19scheduler_operationD1Ev
	.set	_ZN5boost4asio6detail19scheduler_operationD1Ev,_ZN5boost4asio6detail19scheduler_operationD2Ev
	.section	.text._ZN5boost4asio17execution_context2idC2Ev,"axG",@progbits,_ZN5boost4asio17execution_context2idC5Ev,comdat
	.align	2
	.weak	_ZN5boost4asio17execution_context2idC2Ev
	.type	_ZN5boost4asio17execution_context2idC2Ev, %function
_ZN5boost4asio17execution_context2idC2Ev:
.LFB5558:
	.cfi_startproc
	stp	x29, x30, [sp, -32]!
	.cfi_def_cfa_offset 32
	.cfi_offset 29, -32
	.cfi_offset 30, -24
	mov	x29, sp
	str	x0, [sp, 24]
	ldr	x0, [sp, 24]
	bl	_ZN5boost4asio6detail11noncopyableC2Ev
	nop
	ldp	x29, x30, [sp], 32
	.cfi_restore 30
	.cfi_restore 29
	.cfi_def_cfa_offset 0
	ret
	.cfi_endproc
.LFE5558:
	.size	_ZN5boost4asio17execution_context2idC2Ev, .-_ZN5boost4asio17execution_context2idC2Ev
	.weak	_ZN5boost4asio17execution_context2idC1Ev
	.set	_ZN5boost4asio17execution_context2idC1Ev,_ZN5boost4asio17execution_context2idC2Ev
	.section	.text._ZN5boost4asio17execution_context7service3keyC2Ev,"axG",@progbits,_ZN5boost4asio17execution_context7service3keyC5Ev,comdat
	.align	2
	.weak	_ZN5boost4asio17execution_context7service3keyC2Ev
	.type	_ZN5boost4asio17execution_context7service3keyC2Ev, %function
_ZN5boost4asio17execution_context7service3keyC2Ev:
.LFB5561:
	.cfi_startproc
	sub	sp, sp, #16
	.cfi_def_cfa_offset 16
	str	x0, [sp, 8]
	ldr	x0, [sp, 8]
	str	xzr, [x0]
	ldr	x0, [sp, 8]
	str	xzr, [x0, 8]
	nop
	add	sp, sp, 16
	.cfi_def_cfa_offset 0
	ret
	.cfi_endproc
.LFE5561:
	.size	_ZN5boost4asio17execution_context7service3keyC2Ev, .-_ZN5boost4asio17execution_context7service3keyC2Ev
	.weak	_ZN5boost4asio17execution_context7service3keyC1Ev
	.set	_ZN5boost4asio17execution_context7service3keyC1Ev,_ZN5boost4asio17execution_context7service3keyC2Ev
	.section	.text._ZN5boost4asio6detail16service_registry16auto_service_ptrD2Ev,"axG",@progbits,_ZN5boost4asio6detail16service_registry16auto_service_ptrD5Ev,comdat
	.align	2
	.weak	_ZN5boost4asio6detail16service_registry16auto_service_ptrD2Ev
	.type	_ZN5boost4asio6detail16service_registry16auto_service_ptrD2Ev, %function
_ZN5boost4asio6detail16service_registry16auto_service_ptrD2Ev:
.LFB5571:
	.cfi_startproc
	stp	x29, x30, [sp, -32]!
	.cfi_def_cfa_offset 32
	.cfi_offset 29, -32
	.cfi_offset 30, -24
	mov	x29, sp
	str	x0, [sp, 24]
	ldr	x0, [sp, 24]
	ldr	x0, [x0]
	bl	_ZN5boost4asio6detail16service_registry7destroyEPNS0_17execution_context7serviceE
	nop
	ldp	x29, x30, [sp], 32
	.cfi_restore 30
	.cfi_restore 29
	.cfi_def_cfa_offset 0
	ret
	.cfi_endproc
.LFE5571:
	.size	_ZN5boost4asio6detail16service_registry16auto_service_ptrD2Ev, .-_ZN5boost4asio6detail16service_registry16auto_service_ptrD2Ev
	.weak	_ZN5boost4asio6detail16service_registry16auto_service_ptrD1Ev
	.set	_ZN5boost4asio6detail16service_registry16auto_service_ptrD1Ev,_ZN5boost4asio6detail16service_registry16auto_service_ptrD2Ev
	.section	.text._ZN5boost4asio6detail16service_registryC2ERNS0_17execution_contextE,"axG",@progbits,_ZN5boost4asio6detail16service_registryC5ERNS0_17execution_contextE,comdat
	.align	2
	.weak	_ZN5boost4asio6detail16service_registryC2ERNS0_17execution_contextE
	.type	_ZN5boost4asio6detail16service_registryC2ERNS0_17execution_contextE, %function
_ZN5boost4asio6detail16service_registryC2ERNS0_17execution_contextE:
.LFB5582:
	.cfi_startproc
	.cfi_personality 0x9b,DW.ref.__gxx_personality_v0
	.cfi_lsda 0x1b,.LLSDA5582
	stp	x29, x30, [sp, -48]!
	.cfi_def_cfa_offset 48
	.cfi_offset 29, -48
	.cfi_offset 30, -40
	mov	x29, sp
	str	x19, [sp, 16]
	.cfi_offset 19, -32
	str	x0, [sp, 40]
	str	x1, [sp, 32]
	ldr	x0, [sp, 40]
	bl	_ZN5boost4asio6detail11noncopyableC2Ev
	ldr	x0, [sp, 40]
	add	x0, x0, 8
.LEHB47:
	bl	_ZN5boost4asio6detail11posix_mutexC1Ev
.LEHE47:
	ldr	x0, [sp, 40]
	ldr	x1, [sp, 32]
	str	x1, [x0, 56]
	ldr	x0, [sp, 40]
	str	xzr, [x0, 64]
	b	.L445
.L444:
	mov	x19, x0
	ldr	x0, [sp, 40]
	bl	_ZN5boost4asio6detail11noncopyableD2Ev
	mov	x0, x19
.LEHB48:
	bl	_Unwind_Resume
.LEHE48:
.L445:
	ldr	x19, [sp, 16]
	ldp	x29, x30, [sp], 48
	.cfi_restore 30
	.cfi_restore 29
	.cfi_restore 19
	.cfi_def_cfa_offset 0
	ret
	.cfi_endproc
.LFE5582:
	.section	.gcc_except_table._ZN5boost4asio6detail16service_registryC2ERNS0_17execution_contextE,"aG",@progbits,_ZN5boost4asio6detail16service_registryC5ERNS0_17execution_contextE,comdat
.LLSDA5582:
	.byte	0xff
	.byte	0xff
	.byte	0x1
	.uleb128 .LLSDACSE5582-.LLSDACSB5582
.LLSDACSB5582:
	.uleb128 .LEHB47-.LFB5582
	.uleb128 .LEHE47-.LEHB47
	.uleb128 .L444-.LFB5582
	.uleb128 0
	.uleb128 .LEHB48-.LFB5582
	.uleb128 .LEHE48-.LEHB48
	.uleb128 0
	.uleb128 0
.LLSDACSE5582:
	.section	.text._ZN5boost4asio6detail16service_registryC2ERNS0_17execution_contextE,"axG",@progbits,_ZN5boost4asio6detail16service_registryC5ERNS0_17execution_contextE,comdat
	.size	_ZN5boost4asio6detail16service_registryC2ERNS0_17execution_contextE, .-_ZN5boost4asio6detail16service_registryC2ERNS0_17execution_contextE
	.weak	_ZN5boost4asio6detail16service_registryC1ERNS0_17execution_contextE
	.set	_ZN5boost4asio6detail16service_registryC1ERNS0_17execution_contextE,_ZN5boost4asio6detail16service_registryC2ERNS0_17execution_contextE
	.section	.text._ZN5boost4asio6detail16service_registryD2Ev,"axG",@progbits,_ZN5boost4asio6detail16service_registryD5Ev,comdat
	.align	2
	.weak	_ZN5boost4asio6detail16service_registryD2Ev
	.type	_ZN5boost4asio6detail16service_registryD2Ev, %function
_ZN5boost4asio6detail16service_registryD2Ev:
.LFB5585:
	.cfi_startproc
	stp	x29, x30, [sp, -32]!
	.cfi_def_cfa_offset 32
	.cfi_offset 29, -32
	.cfi_offset 30, -24
	mov	x29, sp
	str	x0, [sp, 24]
	ldr	x0, [sp, 24]
	add	x0, x0, 8
	bl	_ZN5boost4asio6detail11posix_mutexD1Ev
	ldr	x0, [sp, 24]
	bl	_ZN5boost4asio6detail11noncopyableD2Ev
	nop
	ldp	x29, x30, [sp], 32
	.cfi_restore 30
	.cfi_restore 29
	.cfi_def_cfa_offset 0
	ret
	.cfi_endproc
.LFE5585:
	.size	_ZN5boost4asio6detail16service_registryD2Ev, .-_ZN5boost4asio6detail16service_registryD2Ev
	.weak	_ZN5boost4asio6detail16service_registryD1Ev
	.set	_ZN5boost4asio6detail16service_registryD1Ev,_ZN5boost4asio6detail16service_registryD2Ev
	.section	.text._ZN5boost4asio6detail16service_registry17shutdown_servicesEv,"axG",@progbits,_ZN5boost4asio6detail16service_registry17shutdown_servicesEv,comdat
	.align	2
	.weak	_ZN5boost4asio6detail16service_registry17shutdown_servicesEv
	.type	_ZN5boost4asio6detail16service_registry17shutdown_servicesEv, %function
_ZN5boost4asio6detail16service_registry17shutdown_servicesEv:
.LFB5587:
	.cfi_startproc
	stp	x29, x30, [sp, -48]!
	.cfi_def_cfa_offset 48
	.cfi_offset 29, -48
	.cfi_offset 30, -40
	mov	x29, sp
	str	x0, [sp, 24]
	ldr	x0, [sp, 24]
	ldr	x0, [x0, 64]
	str	x0, [sp, 40]
	b	.L448
.L449:
	ldr	x0, [sp, 40]
	ldr	x0, [x0]
	add	x0, x0, 16
	ldr	x1, [x0]
	ldr	x0, [sp, 40]
	blr	x1
	ldr	x0, [sp, 40]
	ldr	x0, [x0, 32]
	str	x0, [sp, 40]
.L448:
	ldr	x0, [sp, 40]
	cmp	x0, 0
	bne	.L449
	nop
	nop
	ldp	x29, x30, [sp], 48
	.cfi_restore 30
	.cfi_restore 29
	.cfi_def_cfa_offset 0
	ret
	.cfi_endproc
.LFE5587:
	.size	_ZN5boost4asio6detail16service_registry17shutdown_servicesEv, .-_ZN5boost4asio6detail16service_registry17shutdown_servicesEv
	.section	.text._ZN5boost4asio6detail16service_registry16destroy_servicesEv,"axG",@progbits,_ZN5boost4asio6detail16service_registry16destroy_servicesEv,comdat
	.align	2
	.weak	_ZN5boost4asio6detail16service_registry16destroy_servicesEv
	.type	_ZN5boost4asio6detail16service_registry16destroy_servicesEv, %function
_ZN5boost4asio6detail16service_registry16destroy_servicesEv:
.LFB5588:
	.cfi_startproc
	stp	x29, x30, [sp, -48]!
	.cfi_def_cfa_offset 48
	.cfi_offset 29, -48
	.cfi_offset 30, -40
	mov	x29, sp
	str	x0, [sp, 24]
	b	.L451
.L452:
	ldr	x0, [sp, 24]
	ldr	x0, [x0, 64]
	ldr	x0, [x0, 32]
	str	x0, [sp, 40]
	ldr	x0, [sp, 24]
	ldr	x0, [x0, 64]
	bl	_ZN5boost4asio6detail16service_registry7destroyEPNS0_17execution_context7serviceE
	ldr	x0, [sp, 24]
	ldr	x1, [sp, 40]
	str	x1, [x0, 64]
.L451:
	ldr	x0, [sp, 24]
	ldr	x0, [x0, 64]
	cmp	x0, 0
	bne	.L452
	nop
	nop
	ldp	x29, x30, [sp], 48
	.cfi_restore 30
	.cfi_restore 29
	.cfi_def_cfa_offset 0
	ret
	.cfi_endproc
.LFE5588:
	.size	_ZN5boost4asio6detail16service_registry16destroy_servicesEv, .-_ZN5boost4asio6detail16service_registry16destroy_servicesEv
	.section	.text._ZN5boost4asio6detail16service_registry10keys_matchERKNS0_17execution_context7service3keyES7_,"axG",@progbits,_ZN5boost4asio6detail16service_registry10keys_matchERKNS0_17execution_context7service3keyES7_,comdat
	.align	2
	.weak	_ZN5boost4asio6detail16service_registry10keys_matchERKNS0_17execution_context7service3keyES7_
	.type	_ZN5boost4asio6detail16service_registry10keys_matchERKNS0_17execution_context7service3keyES7_, %function
_ZN5boost4asio6detail16service_registry10keys_matchERKNS0_17execution_context7service3keyES7_:
.LFB5601:
	.cfi_startproc
	stp	x29, x30, [sp, -32]!
	.cfi_def_cfa_offset 32
	.cfi_offset 29, -32
	.cfi_offset 30, -24
	mov	x29, sp
	str	x0, [sp, 24]
	str	x1, [sp, 16]
	ldr	x0, [sp, 24]
	ldr	x0, [x0, 8]
	cmp	x0, 0
	beq	.L454
	ldr	x0, [sp, 16]
	ldr	x0, [x0, 8]
	cmp	x0, 0
	beq	.L454
	ldr	x0, [sp, 24]
	ldr	x1, [x0, 8]
	ldr	x0, [sp, 16]
	ldr	x0, [x0, 8]
	cmp	x1, x0
	bne	.L454
	mov	w0, 1
	b	.L455
.L454:
	ldr	x0, [sp, 24]
	ldr	x0, [x0]
	cmp	x0, 0
	beq	.L456
	ldr	x0, [sp, 16]
	ldr	x0, [x0]
	cmp	x0, 0
	beq	.L456
	ldr	x0, [sp, 24]
	ldr	x2, [x0]
	ldr	x0, [sp, 16]
	ldr	x0, [x0]
	mov	x1, x0
	mov	x0, x2
	bl	_ZNKSt9type_infoeqERKS_
	and	w0, w0, 255
	cmp	w0, 0
	beq	.L456
	mov	w0, 1
	b	.L455
.L456:
	mov	w0, 0
.L455:
	ldp	x29, x30, [sp], 32
	.cfi_restore 30
	.cfi_restore 29
	.cfi_def_cfa_offset 0
	ret
	.cfi_endproc
.LFE5601:
	.size	_ZN5boost4asio6detail16service_registry10keys_matchERKNS0_17execution_context7service3keyES7_, .-_ZN5boost4asio6detail16service_registry10keys_matchERKNS0_17execution_context7service3keyES7_
	.section	.text._ZN5boost4asio6detail16service_registry7destroyEPNS0_17execution_context7serviceE,"axG",@progbits,_ZN5boost4asio6detail16service_registry7destroyEPNS0_17execution_context7serviceE,comdat
	.align	2
	.weak	_ZN5boost4asio6detail16service_registry7destroyEPNS0_17execution_context7serviceE
	.type	_ZN5boost4asio6detail16service_registry7destroyEPNS0_17execution_context7serviceE, %function
_ZN5boost4asio6detail16service_registry7destroyEPNS0_17execution_context7serviceE:
.LFB5602:
	.cfi_startproc
	stp	x29, x30, [sp, -32]!
	.cfi_def_cfa_offset 32
	.cfi_offset 29, -32
	.cfi_offset 30, -24
	mov	x29, sp
	str	x0, [sp, 24]
	ldr	x0, [sp, 24]
	cmp	x0, 0
	beq	.L459
	ldr	x1, [x0]
	add	x1, x1, 8
	ldr	x1, [x1]
	blr	x1
.L459:
	nop
	ldp	x29, x30, [sp], 32
	.cfi_restore 30
	.cfi_restore 29
	.cfi_def_cfa_offset 0
	ret
	.cfi_endproc
.LFE5602:
	.size	_ZN5boost4asio6detail16service_registry7destroyEPNS0_17execution_context7serviceE, .-_ZN5boost4asio6detail16service_registry7destroyEPNS0_17execution_context7serviceE
	.section	.text._ZN5boost4asio6detail16service_registry14do_use_serviceERKNS0_17execution_context7service3keyEPFPS4_PvES9_,"axG",@progbits,_ZN5boost4asio6detail16service_registry14do_use_serviceERKNS0_17execution_context7service3keyEPFPS4_PvES9_,comdat
	.align	2
	.weak	_ZN5boost4asio6detail16service_registry14do_use_serviceERKNS0_17execution_context7service3keyEPFPS4_PvES9_
	.type	_ZN5boost4asio6detail16service_registry14do_use_serviceERKNS0_17execution_context7service3keyEPFPS4_PvES9_, %function
_ZN5boost4asio6detail16service_registry14do_use_serviceERKNS0_17execution_context7service3keyEPFPS4_PvES9_:
.LFB5603:
	.cfi_startproc
	.cfi_personality 0x9b,DW.ref.__gxx_personality_v0
	.cfi_lsda 0x1b,.LLSDA5603
	stp	x29, x30, [sp, -112]!
	.cfi_def_cfa_offset 112
	.cfi_offset 29, -112
	.cfi_offset 30, -104
	mov	x29, sp
	str	x19, [sp, 16]
	.cfi_offset 19, -96
	str	x0, [sp, 56]
	str	x1, [sp, 48]
	str	x2, [sp, 40]
	str	x3, [sp, 32]
	adrp	x0, :got:__stack_chk_guard
	ldr	x0, [x0, #:got_lo12:__stack_chk_guard]
	ldr	x1, [x0]
	str	x1, [sp, 104]
	mov	x1, 0
	ldr	x0, [sp, 56]
	add	x1, x0, 8
	add	x0, sp, 88
	bl	_ZN5boost4asio6detail11scoped_lockINS1_11posix_mutexEEC1ERS3_
	ldr	x0, [sp, 56]
	ldr	x0, [x0, 64]
	str	x0, [sp, 80]
	b	.L461
.L464:
	ldr	x0, [sp, 80]
	add	x0, x0, 8
	ldr	x1, [sp, 48]
	bl	_ZN5boost4asio6detail16service_registry10keys_matchERKNS0_17execution_context7service3keyES7_
	and	w0, w0, 255
	cmp	w0, 0
	beq	.L462
	ldr	x19, [sp, 80]
	b	.L463
.L462:
	ldr	x0, [sp, 80]
	ldr	x0, [x0, 32]
	str	x0, [sp, 80]
.L461:
	ldr	x0, [sp, 80]
	cmp	x0, 0
	bne	.L464
	add	x0, sp, 88
	bl	_ZN5boost4asio6detail11scoped_lockINS1_11posix_mutexEE6unlockEv
	ldr	x1, [sp, 40]
	ldr	x0, [sp, 32]
.LEHB49:
	blr	x1
.LEHE49:
	str	x0, [sp, 72]
	ldr	x2, [sp, 72]
	ldr	x0, [sp, 48]
	ldp	x0, x1, [x0]
	stp	x0, x1, [x2, 8]
	add	x0, sp, 88
	bl	_ZN5boost4asio6detail11scoped_lockINS1_11posix_mutexEE4lockEv
	ldr	x0, [sp, 56]
	ldr	x0, [x0, 64]
	str	x0, [sp, 80]
	b	.L465
.L468:
	ldr	x0, [sp, 80]
	add	x0, x0, 8
	ldr	x1, [sp, 48]
	bl	_ZN5boost4asio6detail16service_registry10keys_matchERKNS0_17execution_context7service3keyES7_
	and	w0, w0, 255
	cmp	w0, 0
	beq	.L466
	ldr	x19, [sp, 80]
	b	.L467
.L466:
	ldr	x0, [sp, 80]
	ldr	x0, [x0, 32]
	str	x0, [sp, 80]
.L465:
	ldr	x0, [sp, 80]
	cmp	x0, 0
	bne	.L468
	ldr	x0, [sp, 72]
	ldr	x1, [sp, 56]
	ldr	x1, [x1, 64]
	str	x1, [x0, 32]
	ldr	x1, [sp, 72]
	ldr	x0, [sp, 56]
	str	x1, [x0, 64]
	str	xzr, [sp, 72]
	ldr	x0, [sp, 56]
	ldr	x19, [x0, 64]
.L467:
	add	x0, sp, 72
	bl	_ZN5boost4asio6detail16service_registry16auto_service_ptrD1Ev
.L463:
	add	x0, sp, 88
	bl	_ZN5boost4asio6detail11scoped_lockINS1_11posix_mutexEED1Ev
	mov	x1, x19
	adrp	x0, :got:__stack_chk_guard
	ldr	x0, [x0, #:got_lo12:__stack_chk_guard]
	ldr	x3, [sp, 104]
	ldr	x2, [x0]
	subs	x3, x3, x2
	mov	x2, 0
	beq	.L471
	b	.L473
.L472:
	mov	x19, x0
	add	x0, sp, 88
	bl	_ZN5boost4asio6detail11scoped_lockINS1_11posix_mutexEED1Ev
	mov	x0, x19
.LEHB50:
	bl	_Unwind_Resume
.LEHE50:
.L473:
	bl	__stack_chk_fail
.L471:
	mov	x0, x1
	ldr	x19, [sp, 16]
	ldp	x29, x30, [sp], 112
	.cfi_restore 30
	.cfi_restore 29
	.cfi_restore 19
	.cfi_def_cfa_offset 0
	ret
	.cfi_endproc
.LFE5603:
	.section	.gcc_except_table._ZN5boost4asio6detail16service_registry14do_use_serviceERKNS0_17execution_context7service3keyEPFPS4_PvES9_,"aG",@progbits,_ZN5boost4asio6detail16service_registry14do_use_serviceERKNS0_17execution_context7service3keyEPFPS4_PvES9_,comdat
.LLSDA5603:
	.byte	0xff
	.byte	0xff
	.byte	0x1
	.uleb128 .LLSDACSE5603-.LLSDACSB5603
.LLSDACSB5603:
	.uleb128 .LEHB49-.LFB5603
	.uleb128 .LEHE49-.LEHB49
	.uleb128 .L472-.LFB5603
	.uleb128 0
	.uleb128 .LEHB50-.LFB5603
	.uleb128 .LEHE50-.LEHB50
	.uleb128 0
	.uleb128 0
.LLSDACSE5603:
	.section	.text._ZN5boost4asio6detail16service_registry14do_use_serviceERKNS0_17execution_context7service3keyEPFPS4_PvES9_,"axG",@progbits,_ZN5boost4asio6detail16service_registry14do_use_serviceERKNS0_17execution_context7service3keyEPFPS4_PvES9_,comdat
	.size	_ZN5boost4asio6detail16service_registry14do_use_serviceERKNS0_17execution_context7service3keyEPFPS4_PvES9_, .-_ZN5boost4asio6detail16service_registry14do_use_serviceERKNS0_17execution_context7service3keyEPFPS4_PvES9_
	.section	.text._ZN5boost4asio6detail16service_registry14do_add_serviceERKNS0_17execution_context7service3keyEPS4_,"axG",@progbits,_ZN5boost4asio6detail16service_registry14do_add_serviceERKNS0_17execution_context7service3keyEPS4_,comdat
	.align	2
	.weak	_ZN5boost4asio6detail16service_registry14do_add_serviceERKNS0_17execution_context7service3keyEPS4_
	.type	_ZN5boost4asio6detail16service_registry14do_add_serviceERKNS0_17execution_context7service3keyEPS4_, %function
_ZN5boost4asio6detail16service_registry14do_add_serviceERKNS0_17execution_context7service3keyEPS4_:
.LFB5604:
	.cfi_startproc
	.cfi_personality 0x9b,DW.ref.__gxx_personality_v0
	.cfi_lsda 0x1b,.LLSDA5604
	stp	x29, x30, [sp, -112]!
	.cfi_def_cfa_offset 112
	.cfi_offset 29, -112
	.cfi_offset 30, -104
	mov	x29, sp
	str	x19, [sp, 16]
	.cfi_offset 19, -96
	str	x0, [sp, 56]
	str	x1, [sp, 48]
	str	x2, [sp, 40]
	adrp	x0, :got:__stack_chk_guard
	ldr	x0, [x0, #:got_lo12:__stack_chk_guard]
	ldr	x1, [x0]
	str	x1, [sp, 104]
	mov	x1, 0
	ldr	x0, [sp, 56]
	ldr	x19, [x0, 56]
	ldr	x0, [sp, 40]
	bl	_ZN5boost4asio17execution_context7service7contextEv
	cmp	x19, x0
	cset	w0, ne
	and	w0, w0, 255
	cmp	w0, 0
	beq	.L475
	add	x0, sp, 88
.LEHB51:
	bl	_ZN5boost4asio21invalid_service_ownerC1Ev
.LEHE51:
	add	x0, sp, 88
.LEHB52:
	bl	_ZN5boost15throw_exceptionINS_4asio21invalid_service_ownerEEEvRKT_
.LEHE52:
.L475:
	ldr	x0, [sp, 56]
	add	x1, x0, 8
	add	x0, sp, 72
	bl	_ZN5boost4asio6detail11scoped_lockINS1_11posix_mutexEEC1ERS3_
	ldr	x0, [sp, 56]
	ldr	x0, [x0, 64]
	str	x0, [sp, 64]
	b	.L476
.L478:
	ldr	x0, [sp, 64]
	add	x0, x0, 8
	ldr	x1, [sp, 48]
	bl	_ZN5boost4asio6detail16service_registry10keys_matchERKNS0_17execution_context7service3keyES7_
	and	w0, w0, 255
	cmp	w0, 0
	beq	.L477
	add	x0, sp, 88
.LEHB53:
	bl	_ZN5boost4asio22service_already_existsC1Ev
.LEHE53:
	add	x0, sp, 88
.LEHB54:
	bl	_ZN5boost15throw_exceptionINS_4asio22service_already_existsEEEvRKT_
.LEHE54:
.L477:
	ldr	x0, [sp, 64]
	ldr	x0, [x0, 32]
	str	x0, [sp, 64]
.L476:
	ldr	x0, [sp, 64]
	cmp	x0, 0
	bne	.L478
	ldr	x2, [sp, 40]
	ldr	x0, [sp, 48]
	ldp	x0, x1, [x0]
	stp	x0, x1, [x2, 8]
	ldr	x0, [sp, 56]
	ldr	x1, [x0, 64]
	ldr	x0, [sp, 40]
	str	x1, [x0, 32]
	ldr	x0, [sp, 56]
	ldr	x1, [sp, 40]
	str	x1, [x0, 64]
	add	x0, sp, 72
	bl	_ZN5boost4asio6detail11scoped_lockINS1_11posix_mutexEED1Ev
	adrp	x0, :got:__stack_chk_guard
	ldr	x0, [x0, #:got_lo12:__stack_chk_guard]
	ldr	x2, [sp, 104]
	ldr	x1, [x0]
	subs	x2, x2, x1
	mov	x1, 0
	beq	.L482
	b	.L486
.L483:
	mov	x19, x0
	add	x0, sp, 88
	bl	_ZN5boost4asio21invalid_service_ownerD1Ev
	mov	x0, x19
.LEHB55:
	bl	_Unwind_Resume
.L485:
	mov	x19, x0
	add	x0, sp, 88
	bl	_ZN5boost4asio22service_already_existsD1Ev
	b	.L481
.L484:
	mov	x19, x0
.L481:
	add	x0, sp, 72
	bl	_ZN5boost4asio6detail11scoped_lockINS1_11posix_mutexEED1Ev
	mov	x0, x19
	bl	_Unwind_Resume
.LEHE55:
.L486:
	bl	__stack_chk_fail
.L482:
	ldr	x19, [sp, 16]
	ldp	x29, x30, [sp], 112
	.cfi_restore 30
	.cfi_restore 29
	.cfi_restore 19
	.cfi_def_cfa_offset 0
	ret
	.cfi_endproc
.LFE5604:
	.section	.gcc_except_table._ZN5boost4asio6detail16service_registry14do_add_serviceERKNS0_17execution_context7service3keyEPS4_,"aG",@progbits,_ZN5boost4asio6detail16service_registry14do_add_serviceERKNS0_17execution_context7service3keyEPS4_,comdat
.LLSDA5604:
	.byte	0xff
	.byte	0xff
	.byte	0x1
	.uleb128 .LLSDACSE5604-.LLSDACSB5604
.LLSDACSB5604:
	.uleb128 .LEHB51-.LFB5604
	.uleb128 .LEHE51-.LEHB51
	.uleb128 0
	.uleb128 0
	.uleb128 .LEHB52-.LFB5604
	.uleb128 .LEHE52-.LEHB52
	.uleb128 .L483-.LFB5604
	.uleb128 0
	.uleb128 .LEHB53-.LFB5604
	.uleb128 .LEHE53-.LEHB53
	.uleb128 .L484-.LFB5604
	.uleb128 0
	.uleb128 .LEHB54-.LFB5604
	.uleb128 .LEHE54-.LEHB54
	.uleb128 .L485-.LFB5604
	.uleb128 0
	.uleb128 .LEHB55-.LFB5604
	.uleb128 .LEHE55-.LEHB55
	.uleb128 0
	.uleb128 0
.LLSDACSE5604:
	.section	.text._ZN5boost4asio6detail16service_registry14do_add_serviceERKNS0_17execution_context7service3keyEPS4_,"axG",@progbits,_ZN5boost4asio6detail16service_registry14do_add_serviceERKNS0_17execution_context7service3keyEPS4_,comdat
	.size	_ZN5boost4asio6detail16service_registry14do_add_serviceERKNS0_17execution_context7service3keyEPS4_, .-_ZN5boost4asio6detail16service_registry14do_add_serviceERKNS0_17execution_context7service3keyEPS4_
	.section	.text._ZN5boost4asio17execution_context7service7contextEv,"axG",@progbits,_ZN5boost4asio17execution_context7service7contextEv,comdat
	.align	2
	.weak	_ZN5boost4asio17execution_context7service7contextEv
	.type	_ZN5boost4asio17execution_context7service7contextEv, %function
_ZN5boost4asio17execution_context7service7contextEv:
.LFB5610:
	.cfi_startproc
	sub	sp, sp, #16
	.cfi_def_cfa_offset 16
	str	x0, [sp, 8]
	ldr	x0, [sp, 8]
	ldr	x0, [x0, 24]
	add	sp, sp, 16
	.cfi_def_cfa_offset 0
	ret
	.cfi_endproc
.LFE5610:
	.size	_ZN5boost4asio17execution_context7service7contextEv, .-_ZN5boost4asio17execution_context7service7contextEv
	.section	.text._ZN5boost4asio17execution_contextC2Ev,"axG",@progbits,_ZN5boost4asio17execution_contextC5Ev,comdat
	.align	2
	.weak	_ZN5boost4asio17execution_contextC2Ev
	.type	_ZN5boost4asio17execution_contextC2Ev, %function
_ZN5boost4asio17execution_contextC2Ev:
.LFB5612:
	.cfi_startproc
	.cfi_personality 0x9b,DW.ref.__gxx_personality_v0
	.cfi_lsda 0x1b,.LLSDA5612
	stp	x29, x30, [sp, -48]!
	.cfi_def_cfa_offset 48
	.cfi_offset 29, -48
	.cfi_offset 30, -40
	mov	x29, sp
	stp	x19, x20, [sp, 16]
	.cfi_offset 19, -32
	.cfi_offset 20, -24
	str	x0, [sp, 40]
	ldr	x0, [sp, 40]
	bl	_ZN5boost4asio6detail11noncopyableC2Ev
	mov	x0, 72
.LEHB56:
	bl	_Znwm
.LEHE56:
	mov	x19, x0
	ldr	x1, [sp, 40]
	mov	x0, x19
.LEHB57:
	bl	_ZN5boost4asio6detail16service_registryC1ERNS0_17execution_contextE
.LEHE57:
	ldr	x0, [sp, 40]
	str	x19, [x0]
	b	.L494
.L493:
	mov	x20, x0
	mov	x1, 72
	mov	x0, x19
	bl	_ZdlPvm
	mov	x19, x20
	b	.L491
.L492:
	mov	x19, x0
.L491:
	ldr	x0, [sp, 40]
	bl	_ZN5boost4asio6detail11noncopyableD2Ev
	mov	x0, x19
.LEHB58:
	bl	_Unwind_Resume
.LEHE58:
.L494:
	ldp	x19, x20, [sp, 16]
	ldp	x29, x30, [sp], 48
	.cfi_restore 30
	.cfi_restore 29
	.cfi_restore 19
	.cfi_restore 20
	.cfi_def_cfa_offset 0
	ret
	.cfi_endproc
.LFE5612:
	.section	.gcc_except_table._ZN5boost4asio17execution_contextC2Ev,"aG",@progbits,_ZN5boost4asio17execution_contextC5Ev,comdat
.LLSDA5612:
	.byte	0xff
	.byte	0xff
	.byte	0x1
	.uleb128 .LLSDACSE5612-.LLSDACSB5612
.LLSDACSB5612:
	.uleb128 .LEHB56-.LFB5612
	.uleb128 .LEHE56-.LEHB56
	.uleb128 .L492-.LFB5612
	.uleb128 0
	.uleb128 .LEHB57-.LFB5612
	.uleb128 .LEHE57-.LEHB57
	.uleb128 .L493-.LFB5612
	.uleb128 0
	.uleb128 .LEHB58-.LFB5612
	.uleb128 .LEHE58-.LEHB58
	.uleb128 0
	.uleb128 0
.LLSDACSE5612:
	.section	.text._ZN5boost4asio17execution_contextC2Ev,"axG",@progbits,_ZN5boost4asio17execution_contextC5Ev,comdat
	.size	_ZN5boost4asio17execution_contextC2Ev, .-_ZN5boost4asio17execution_contextC2Ev
	.weak	_ZN5boost4asio17execution_contextC1Ev
	.set	_ZN5boost4asio17execution_contextC1Ev,_ZN5boost4asio17execution_contextC2Ev
	.section	.text._ZN5boost4asio17execution_contextD2Ev,"axG",@progbits,_ZN5boost4asio17execution_contextD5Ev,comdat
	.align	2
	.weak	_ZN5boost4asio17execution_contextD2Ev
	.type	_ZN5boost4asio17execution_contextD2Ev, %function
_ZN5boost4asio17execution_contextD2Ev:
.LFB5615:
	.cfi_startproc
	.cfi_personality 0x9b,DW.ref.__gxx_personality_v0
	.cfi_lsda 0x1b,.LLSDA5615
	stp	x29, x30, [sp, -48]!
	.cfi_def_cfa_offset 48
	.cfi_offset 29, -48
	.cfi_offset 30, -40
	mov	x29, sp
	str	x19, [sp, 16]
	.cfi_offset 19, -32
	str	x0, [sp, 40]
	ldr	x0, [sp, 40]
	bl	_ZN5boost4asio17execution_context8shutdownEv
	ldr	x0, [sp, 40]
	bl	_ZN5boost4asio17execution_context7destroyEv
	ldr	x0, [sp, 40]
	ldr	x19, [x0]
	cmp	x19, 0
	beq	.L496
	mov	x0, x19
	bl	_ZN5boost4asio6detail16service_registryD1Ev
	mov	x1, 72
	mov	x0, x19
	bl	_ZdlPvm
.L496:
	ldr	x0, [sp, 40]
	bl	_ZN5boost4asio6detail11noncopyableD2Ev
	nop
	ldr	x19, [sp, 16]
	ldp	x29, x30, [sp], 48
	.cfi_restore 30
	.cfi_restore 29
	.cfi_restore 19
	.cfi_def_cfa_offset 0
	ret
	.cfi_endproc
.LFE5615:
	.section	.gcc_except_table._ZN5boost4asio17execution_contextD2Ev,"aG",@progbits,_ZN5boost4asio17execution_contextD5Ev,comdat
.LLSDA5615:
	.byte	0xff
	.byte	0xff
	.byte	0x1
	.uleb128 .LLSDACSE5615-.LLSDACSB5615
.LLSDACSB5615:
.LLSDACSE5615:
	.section	.text._ZN5boost4asio17execution_contextD2Ev,"axG",@progbits,_ZN5boost4asio17execution_contextD5Ev,comdat
	.size	_ZN5boost4asio17execution_contextD2Ev, .-_ZN5boost4asio17execution_contextD2Ev
	.weak	_ZN5boost4asio17execution_contextD1Ev
	.set	_ZN5boost4asio17execution_contextD1Ev,_ZN5boost4asio17execution_contextD2Ev
	.section	.text._ZN5boost4asio17execution_context8shutdownEv,"axG",@progbits,_ZN5boost4asio17execution_context8shutdownEv,comdat
	.align	2
	.weak	_ZN5boost4asio17execution_context8shutdownEv
	.type	_ZN5boost4asio17execution_context8shutdownEv, %function
_ZN5boost4asio17execution_context8shutdownEv:
.LFB5617:
	.cfi_startproc
	stp	x29, x30, [sp, -32]!
	.cfi_def_cfa_offset 32
	.cfi_offset 29, -32
	.cfi_offset 30, -24
	mov	x29, sp
	str	x0, [sp, 24]
	ldr	x0, [sp, 24]
	ldr	x0, [x0]
	bl	_ZN5boost4asio6detail16service_registry17shutdown_servicesEv
	nop
	ldp	x29, x30, [sp], 32
	.cfi_restore 30
	.cfi_restore 29
	.cfi_def_cfa_offset 0
	ret
	.cfi_endproc
.LFE5617:
	.size	_ZN5boost4asio17execution_context8shutdownEv, .-_ZN5boost4asio17execution_context8shutdownEv
	.section	.text._ZN5boost4asio17execution_context7destroyEv,"axG",@progbits,_ZN5boost4asio17execution_context7destroyEv,comdat
	.align	2
	.weak	_ZN5boost4asio17execution_context7destroyEv
	.type	_ZN5boost4asio17execution_context7destroyEv, %function
_ZN5boost4asio17execution_context7destroyEv:
.LFB5618:
	.cfi_startproc
	stp	x29, x30, [sp, -32]!
	.cfi_def_cfa_offset 32
	.cfi_offset 29, -32
	.cfi_offset 30, -24
	mov	x29, sp
	str	x0, [sp, 24]
	ldr	x0, [sp, 24]
	ldr	x0, [x0]
	bl	_ZN5boost4asio6detail16service_registry16destroy_servicesEv
	nop
	ldp	x29, x30, [sp], 32
	.cfi_restore 30
	.cfi_restore 29
	.cfi_def_cfa_offset 0
	ret
	.cfi_endproc
.LFE5618:
	.size	_ZN5boost4asio17execution_context7destroyEv, .-_ZN5boost4asio17execution_context7destroyEv
	.section	.text._ZN5boost4asio17execution_context7serviceC2ERS1_,"axG",@progbits,_ZN5boost4asio17execution_context7serviceC5ERS1_,comdat
	.align	2
	.weak	_ZN5boost4asio17execution_context7serviceC2ERS1_
	.type	_ZN5boost4asio17execution_context7serviceC2ERS1_, %function
_ZN5boost4asio17execution_context7serviceC2ERS1_:
.LFB5621:
	.cfi_startproc
	stp	x29, x30, [sp, -32]!
	.cfi_def_cfa_offset 32
	.cfi_offset 29, -32
	.cfi_offset 30, -24
	mov	x29, sp
	str	x0, [sp, 24]
	str	x1, [sp, 16]
	ldr	x0, [sp, 24]
	bl	_ZN5boost4asio6detail11noncopyableC2Ev
	adrp	x0, _ZTVN5boost4asio17execution_context7serviceE+16
	add	x1, x0, :lo12:_ZTVN5boost4asio17execution_context7serviceE+16
	ldr	x0, [sp, 24]
	str	x1, [x0]
	ldr	x0, [sp, 24]
	add	x0, x0, 8
	bl	_ZN5boost4asio17execution_context7service3keyC1Ev
	ldr	x0, [sp, 24]
	ldr	x1, [sp, 16]
	str	x1, [x0, 24]
	ldr	x0, [sp, 24]
	str	xzr, [x0, 32]
	nop
	ldp	x29, x30, [sp], 32
	.cfi_restore 30
	.cfi_restore 29
	.cfi_def_cfa_offset 0
	ret
	.cfi_endproc
.LFE5621:
	.size	_ZN5boost4asio17execution_context7serviceC2ERS1_, .-_ZN5boost4asio17execution_context7serviceC2ERS1_
	.weak	_ZN5boost4asio17execution_context7serviceC1ERS1_
	.set	_ZN5boost4asio17execution_context7serviceC1ERS1_,_ZN5boost4asio17execution_context7serviceC2ERS1_
	.section	.text._ZN5boost4asio17execution_context7serviceD2Ev,"axG",@progbits,_ZN5boost4asio17execution_context7serviceD5Ev,comdat
	.align	2
	.weak	_ZN5boost4asio17execution_context7serviceD2Ev
	.type	_ZN5boost4asio17execution_context7serviceD2Ev, %function
_ZN5boost4asio17execution_context7serviceD2Ev:
.LFB5624:
	.cfi_startproc
	stp	x29, x30, [sp, -32]!
	.cfi_def_cfa_offset 32
	.cfi_offset 29, -32
	.cfi_offset 30, -24
	mov	x29, sp
	str	x0, [sp, 24]
	adrp	x0, _ZTVN5boost4asio17execution_context7serviceE+16
	add	x1, x0, :lo12:_ZTVN5boost4asio17execution_context7serviceE+16
	ldr	x0, [sp, 24]
	str	x1, [x0]
	ldr	x0, [sp, 24]
	bl	_ZN5boost4asio6detail11noncopyableD2Ev
	nop
	ldp	x29, x30, [sp], 32
	.cfi_restore 30
	.cfi_restore 29
	.cfi_def_cfa_offset 0
	ret
	.cfi_endproc
.LFE5624:
	.size	_ZN5boost4asio17execution_context7serviceD2Ev, .-_ZN5boost4asio17execution_context7serviceD2Ev
	.weak	_ZN5boost4asio17execution_context7serviceD1Ev
	.set	_ZN5boost4asio17execution_context7serviceD1Ev,_ZN5boost4asio17execution_context7serviceD2Ev
	.section	.text._ZN5boost4asio17execution_context7serviceD0Ev,"axG",@progbits,_ZN5boost4asio17execution_context7serviceD5Ev,comdat
	.align	2
	.weak	_ZN5boost4asio17execution_context7serviceD0Ev
	.type	_ZN5boost4asio17execution_context7serviceD0Ev, %function
_ZN5boost4asio17execution_context7serviceD0Ev:
.LFB5626:
	.cfi_startproc
	stp	x29, x30, [sp, -32]!
	.cfi_def_cfa_offset 32
	.cfi_offset 29, -32
	.cfi_offset 30, -24
	mov	x29, sp
	str	x0, [sp, 24]
	ldr	x0, [sp, 24]
	bl	_ZN5boost4asio17execution_context7serviceD1Ev
	mov	x1, 40
	ldr	x0, [sp, 24]
	bl	_ZdlPvm
	ldp	x29, x30, [sp], 32
	.cfi_restore 30
	.cfi_restore 29
	.cfi_def_cfa_offset 0
	ret
	.cfi_endproc
.LFE5626:
	.size	_ZN5boost4asio17execution_context7serviceD0Ev, .-_ZN5boost4asio17execution_context7serviceD0Ev
	.section	.text._ZN5boost4asio17execution_context7service11notify_forkENS1_10fork_eventE,"axG",@progbits,_ZN5boost4asio17execution_context7service11notify_forkENS1_10fork_eventE,comdat
	.align	2
	.weak	_ZN5boost4asio17execution_context7service11notify_forkENS1_10fork_eventE
	.type	_ZN5boost4asio17execution_context7service11notify_forkENS1_10fork_eventE, %function
_ZN5boost4asio17execution_context7service11notify_forkENS1_10fork_eventE:
.LFB5627:
	.cfi_startproc
	sub	sp, sp, #16
	.cfi_def_cfa_offset 16
	str	x0, [sp, 8]
	str	w1, [sp, 4]
	nop
	add	sp, sp, 16
	.cfi_def_cfa_offset 0
	ret
	.cfi_endproc
.LFE5627:
	.size	_ZN5boost4asio17execution_context7service11notify_forkENS1_10fork_eventE, .-_ZN5boost4asio17execution_context7service11notify_forkENS1_10fork_eventE
	.section	.rodata
	.align	3
.LC26:
	.string	"Service already exists."
	.section	.text._ZN5boost4asio22service_already_existsC2Ev,"axG",@progbits,_ZN5boost4asio22service_already_existsC5Ev,comdat
	.align	2
	.weak	_ZN5boost4asio22service_already_existsC2Ev
	.type	_ZN5boost4asio22service_already_existsC2Ev, %function
_ZN5boost4asio22service_already_existsC2Ev:
.LFB5629:
	.cfi_startproc
	stp	x29, x30, [sp, -32]!
	.cfi_def_cfa_offset 32
	.cfi_offset 29, -32
	.cfi_offset 30, -24
	mov	x29, sp
	str	x0, [sp, 24]
	ldr	x2, [sp, 24]
	adrp	x0, .LC26
	add	x1, x0, :lo12:.LC26
	mov	x0, x2
	bl	_ZNSt11logic_errorC2EPKc
	adrp	x0, _ZTVN5boost4asio22service_already_existsE+16
	add	x1, x0, :lo12:_ZTVN5boost4asio22service_already_existsE+16
	ldr	x0, [sp, 24]
	str	x1, [x0]
	nop
	ldp	x29, x30, [sp], 32
	.cfi_restore 30
	.cfi_restore 29
	.cfi_def_cfa_offset 0
	ret
	.cfi_endproc
.LFE5629:
	.size	_ZN5boost4asio22service_already_existsC2Ev, .-_ZN5boost4asio22service_already_existsC2Ev
	.weak	_ZN5boost4asio22service_already_existsC1Ev
	.set	_ZN5boost4asio22service_already_existsC1Ev,_ZN5boost4asio22service_already_existsC2Ev
	.section	.rodata
	.align	3
.LC27:
	.string	"Invalid service owner."
	.section	.text._ZN5boost4asio21invalid_service_ownerC2Ev,"axG",@progbits,_ZN5boost4asio21invalid_service_ownerC5Ev,comdat
	.align	2
	.weak	_ZN5boost4asio21invalid_service_ownerC2Ev
	.type	_ZN5boost4asio21invalid_service_ownerC2Ev, %function
_ZN5boost4asio21invalid_service_ownerC2Ev:
.LFB5632:
	.cfi_startproc
	stp	x29, x30, [sp, -32]!
	.cfi_def_cfa_offset 32
	.cfi_offset 29, -32
	.cfi_offset 30, -24
	mov	x29, sp
	str	x0, [sp, 24]
	ldr	x2, [sp, 24]
	adrp	x0, .LC27
	add	x1, x0, :lo12:.LC27
	mov	x0, x2
	bl	_ZNSt11logic_errorC2EPKc
	adrp	x0, _ZTVN5boost4asio21invalid_service_ownerE+16
	add	x1, x0, :lo12:_ZTVN5boost4asio21invalid_service_ownerE+16
	ldr	x0, [sp, 24]
	str	x1, [x0]
	nop
	ldp	x29, x30, [sp], 32
	.cfi_restore 30
	.cfi_restore 29
	.cfi_def_cfa_offset 0
	ret
	.cfi_endproc
.LFE5632:
	.size	_ZN5boost4asio21invalid_service_ownerC2Ev, .-_ZN5boost4asio21invalid_service_ownerC2Ev
	.weak	_ZN5boost4asio21invalid_service_ownerC1Ev
	.set	_ZN5boost4asio21invalid_service_ownerC1Ev,_ZN5boost4asio21invalid_service_ownerC2Ev
	.section	.text._ZN5boost4asio6detail27conditionally_enabled_mutex11scoped_lockC2ERS2_,"axG",@progbits,_ZN5boost4asio6detail27conditionally_enabled_mutex11scoped_lockC5ERS2_,comdat
	.align	2
	.weak	_ZN5boost4asio6detail27conditionally_enabled_mutex11scoped_lockC2ERS2_
	.type	_ZN5boost4asio6detail27conditionally_enabled_mutex11scoped_lockC2ERS2_, %function
_ZN5boost4asio6detail27conditionally_enabled_mutex11scoped_lockC2ERS2_:
.LFB5638:
	.cfi_startproc
	stp	x29, x30, [sp, -32]!
	.cfi_def_cfa_offset 32
	.cfi_offset 29, -32
	.cfi_offset 30, -24
	mov	x29, sp
	str	x0, [sp, 24]
	str	x1, [sp, 16]
	ldr	x0, [sp, 24]
	bl	_ZN5boost4asio6detail11noncopyableC2Ev
	ldr	x0, [sp, 24]
	ldr	x1, [sp, 16]
	str	x1, [x0]
	ldr	x0, [sp, 16]
	ldrb	w0, [x0, 56]
	cmp	w0, 0
	beq	.L506
	ldr	x0, [sp, 24]
	ldr	x0, [x0]
	add	x0, x0, 8
	bl	_ZN5boost4asio6detail11posix_mutex4lockEv
	ldr	x0, [sp, 24]
	mov	w1, 1
	strb	w1, [x0, 8]
	b	.L508
.L506:
	ldr	x0, [sp, 24]
	strb	wzr, [x0, 8]
.L508:
	nop
	ldp	x29, x30, [sp], 32
	.cfi_restore 30
	.cfi_restore 29
	.cfi_def_cfa_offset 0
	ret
	.cfi_endproc
.LFE5638:
	.size	_ZN5boost4asio6detail27conditionally_enabled_mutex11scoped_lockC2ERS2_, .-_ZN5boost4asio6detail27conditionally_enabled_mutex11scoped_lockC2ERS2_
	.weak	_ZN5boost4asio6detail27conditionally_enabled_mutex11scoped_lockC1ERS2_
	.set	_ZN5boost4asio6detail27conditionally_enabled_mutex11scoped_lockC1ERS2_,_ZN5boost4asio6detail27conditionally_enabled_mutex11scoped_lockC2ERS2_
	.section	.text._ZN5boost4asio6detail27conditionally_enabled_mutex11scoped_lockD2Ev,"axG",@progbits,_ZN5boost4asio6detail27conditionally_enabled_mutex11scoped_lockD5Ev,comdat
	.align	2
	.weak	_ZN5boost4asio6detail27conditionally_enabled_mutex11scoped_lockD2Ev
	.type	_ZN5boost4asio6detail27conditionally_enabled_mutex11scoped_lockD2Ev, %function
_ZN5boost4asio6detail27conditionally_enabled_mutex11scoped_lockD2Ev:
.LFB5641:
	.cfi_startproc
	stp	x29, x30, [sp, -32]!
	.cfi_def_cfa_offset 32
	.cfi_offset 29, -32
	.cfi_offset 30, -24
	mov	x29, sp
	str	x0, [sp, 24]
	ldr	x0, [sp, 24]
	ldrb	w0, [x0, 8]
	cmp	w0, 0
	beq	.L510
	ldr	x0, [sp, 24]
	ldr	x0, [x0]
	add	x0, x0, 8
	bl	_ZN5boost4asio6detail11posix_mutex6unlockEv
.L510:
	ldr	x0, [sp, 24]
	bl	_ZN5boost4asio6detail11noncopyableD2Ev
	nop
	ldp	x29, x30, [sp], 32
	.cfi_restore 30
	.cfi_restore 29
	.cfi_def_cfa_offset 0
	ret
	.cfi_endproc
.LFE5641:
	.size	_ZN5boost4asio6detail27conditionally_enabled_mutex11scoped_lockD2Ev, .-_ZN5boost4asio6detail27conditionally_enabled_mutex11scoped_lockD2Ev
	.weak	_ZN5boost4asio6detail27conditionally_enabled_mutex11scoped_lockD1Ev
	.set	_ZN5boost4asio6detail27conditionally_enabled_mutex11scoped_lockD1Ev,_ZN5boost4asio6detail27conditionally_enabled_mutex11scoped_lockD2Ev
	.section	.text._ZN5boost4asio6detail27conditionally_enabled_mutex11scoped_lock4lockEv,"axG",@progbits,_ZN5boost4asio6detail27conditionally_enabled_mutex11scoped_lock4lockEv,comdat
	.align	2
	.weak	_ZN5boost4asio6detail27conditionally_enabled_mutex11scoped_lock4lockEv
	.type	_ZN5boost4asio6detail27conditionally_enabled_mutex11scoped_lock4lockEv, %function
_ZN5boost4asio6detail27conditionally_enabled_mutex11scoped_lock4lockEv:
.LFB5643:
	.cfi_startproc
	stp	x29, x30, [sp, -32]!
	.cfi_def_cfa_offset 32
	.cfi_offset 29, -32
	.cfi_offset 30, -24
	mov	x29, sp
	str	x0, [sp, 24]
	ldr	x0, [sp, 24]
	ldr	x0, [x0]
	ldrb	w0, [x0, 56]
	cmp	w0, 0
	beq	.L513
	ldr	x0, [sp, 24]
	ldrb	w0, [x0, 8]
	eor	w0, w0, 1
	and	w0, w0, 255
	cmp	w0, 0
	beq	.L513
	ldr	x0, [sp, 24]
	ldr	x0, [x0]
	add	x0, x0, 8
	bl	_ZN5boost4asio6detail11posix_mutex4lockEv
	ldr	x0, [sp, 24]
	mov	w1, 1
	strb	w1, [x0, 8]
.L513:
	nop
	ldp	x29, x30, [sp], 32
	.cfi_restore 30
	.cfi_restore 29
	.cfi_def_cfa_offset 0
	ret
	.cfi_endproc
.LFE5643:
	.size	_ZN5boost4asio6detail27conditionally_enabled_mutex11scoped_lock4lockEv, .-_ZN5boost4asio6detail27conditionally_enabled_mutex11scoped_lock4lockEv
	.section	.text._ZN5boost4asio6detail27conditionally_enabled_mutex11scoped_lock6unlockEv,"axG",@progbits,_ZN5boost4asio6detail27conditionally_enabled_mutex11scoped_lock6unlockEv,comdat
	.align	2
	.weak	_ZN5boost4asio6detail27conditionally_enabled_mutex11scoped_lock6unlockEv
	.type	_ZN5boost4asio6detail27conditionally_enabled_mutex11scoped_lock6unlockEv, %function
_ZN5boost4asio6detail27conditionally_enabled_mutex11scoped_lock6unlockEv:
.LFB5644:
	.cfi_startproc
	stp	x29, x30, [sp, -32]!
	.cfi_def_cfa_offset 32
	.cfi_offset 29, -32
	.cfi_offset 30, -24
	mov	x29, sp
	str	x0, [sp, 24]
	ldr	x0, [sp, 24]
	ldrb	w0, [x0, 8]
	cmp	w0, 0
	beq	.L516
	ldr	x0, [sp, 24]
	ldr	x0, [x0]
	bl	_ZN5boost4asio6detail27conditionally_enabled_mutex6unlockEv
	ldr	x0, [sp, 24]
	strb	wzr, [x0, 8]
.L516:
	nop
	ldp	x29, x30, [sp], 32
	.cfi_restore 30
	.cfi_restore 29
	.cfi_def_cfa_offset 0
	ret
	.cfi_endproc
.LFE5644:
	.size	_ZN5boost4asio6detail27conditionally_enabled_mutex11scoped_lock6unlockEv, .-_ZN5boost4asio6detail27conditionally_enabled_mutex11scoped_lock6unlockEv
	.section	.text._ZNK5boost4asio6detail27conditionally_enabled_mutex11scoped_lock6lockedEv,"axG",@progbits,_ZNK5boost4asio6detail27conditionally_enabled_mutex11scoped_lock6lockedEv,comdat
	.align	2
	.weak	_ZNK5boost4asio6detail27conditionally_enabled_mutex11scoped_lock6lockedEv
	.type	_ZNK5boost4asio6detail27conditionally_enabled_mutex11scoped_lock6lockedEv, %function
_ZNK5boost4asio6detail27conditionally_enabled_mutex11scoped_lock6lockedEv:
.LFB5645:
	.cfi_startproc
	sub	sp, sp, #16
	.cfi_def_cfa_offset 16
	str	x0, [sp, 8]
	ldr	x0, [sp, 8]
	ldrb	w0, [x0, 8]
	add	sp, sp, 16
	.cfi_def_cfa_offset 0
	ret
	.cfi_endproc
.LFE5645:
