	.arch armv8-a
	.file	"main.cpp"
	.text
	.section	.text._ZnwmPv,"axG",@progbits,_ZnwmPv,comdat
	.align	2
	.weak	_ZnwmPv
	.type	_ZnwmPv, %function
_ZnwmPv:
.LFB38:
	.cfi_startproc
	sub	sp, sp, #16
	.cfi_def_cfa_offset 16
	str	x0, [sp, 8]
	str	x1, [sp]
	ldr	x0, [sp]
	add	sp, sp, 16
	.cfi_def_cfa_offset 0
	ret
	.cfi_endproc
.LFE38:
	.size	_ZnwmPv, .-_ZnwmPv
	.local	_ZStL8__ioinit
	.comm	_ZStL8__ioinit,1,8
	.section	.text._ZSt16__deque_buf_sizem,"axG",@progbits,_ZSt16__deque_buf_sizem,comdat
	.align	2
	.weak	_ZSt16__deque_buf_sizem
	.type	_ZSt16__deque_buf_sizem, %function
_ZSt16__deque_buf_sizem:
.LFB2084:
	.cfi_startproc
	sub	sp, sp, #16
	.cfi_def_cfa_offset 16
	str	x0, [sp, 8]
	ldr	x0, [sp, 8]
	cmp	x0, 511
	bhi	.L4
	mov	x1, 512
	ldr	x0, [sp, 8]
	udiv	x0, x1, x0
	b	.L6
.L4:
	mov	x0, 1
.L6:
	add	sp, sp, 16
	.cfi_def_cfa_offset 0
	ret
	.cfi_endproc
.LFE2084:
	.size	_ZSt16__deque_buf_sizem, .-_ZSt16__deque_buf_sizem
	.section	.text._ZN8TreeNodeC2Ev,"axG",@progbits,_ZN8TreeNodeC5Ev,comdat
	.align	2
	.weak	_ZN8TreeNodeC2Ev
	.type	_ZN8TreeNodeC2Ev, %function
_ZN8TreeNodeC2Ev:
.LFB2349:
	.cfi_startproc
	sub	sp, sp, #16
	.cfi_def_cfa_offset 16
	str	x0, [sp, 8]
	ldr	x0, [sp, 8]
	str	wzr, [x0]
	ldr	x0, [sp, 8]
	str	xzr, [x0, 8]
	ldr	x0, [sp, 8]
	str	xzr, [x0, 16]
	nop
	add	sp, sp, 16
	.cfi_def_cfa_offset 0
	ret
	.cfi_endproc
.LFE2349:
	.size	_ZN8TreeNodeC2Ev, .-_ZN8TreeNodeC2Ev
	.weak	_ZN8TreeNodeC1Ev
	.set	_ZN8TreeNodeC1Ev,_ZN8TreeNodeC2Ev
	.section	.text._ZN8TreeNodeC2Ei,"axG",@progbits,_ZN8TreeNodeC5Ei,comdat
	.align	2
	.weak	_ZN8TreeNodeC2Ei
	.type	_ZN8TreeNodeC2Ei, %function
_ZN8TreeNodeC2Ei:
.LFB2352:
	.cfi_startproc
	sub	sp, sp, #16
	.cfi_def_cfa_offset 16
	str	x0, [sp, 8]
	str	w1, [sp, 4]
	ldr	x0, [sp, 8]
	ldr	w1, [sp, 4]
	str	w1, [x0]
	ldr	x0, [sp, 8]
	str	xzr, [x0, 8]
	ldr	x0, [sp, 8]
	str	xzr, [x0, 16]
	nop
	add	sp, sp, 16
	.cfi_def_cfa_offset 0
	ret
	.cfi_endproc
.LFE2352:
	.size	_ZN8TreeNodeC2Ei, .-_ZN8TreeNodeC2Ei
	.weak	_ZN8TreeNodeC1Ei
	.set	_ZN8TreeNodeC1Ei,_ZN8TreeNodeC2Ei
	.section	.text._ZNSt5queueIP8TreeNodeSt5dequeIS1_SaIS1_EEED2Ev,"axG",@progbits,_ZNSt5queueIP8TreeNodeSt5dequeIS1_SaIS1_EEED5Ev,comdat
	.align	2
	.weak	_ZNSt5queueIP8TreeNodeSt5dequeIS1_SaIS1_EEED2Ev
	.type	_ZNSt5queueIP8TreeNodeSt5dequeIS1_SaIS1_EEED2Ev, %function
_ZNSt5queueIP8TreeNodeSt5dequeIS1_SaIS1_EEED2Ev:
.LFB2360:
	.cfi_startproc
	stp	x29, x30, [sp, -32]!
	.cfi_def_cfa_offset 32
	.cfi_offset 29, -32
	.cfi_offset 30, -24
	mov	x29, sp
	str	x0, [sp, 24]
	ldr	x0, [sp, 24]
	bl	_ZNSt5dequeIP8TreeNodeSaIS1_EED1Ev
	nop
	ldp	x29, x30, [sp], 32
	.cfi_restore 30
	.cfi_restore 29
	.cfi_def_cfa_offset 0
	ret
	.cfi_endproc
.LFE2360:
	.size	_ZNSt5queueIP8TreeNodeSt5dequeIS1_SaIS1_EEED2Ev, .-_ZNSt5queueIP8TreeNodeSt5dequeIS1_SaIS1_EEED2Ev
	.weak	_ZNSt5queueIP8TreeNodeSt5dequeIS1_SaIS1_EEED1Ev
	.set	_ZNSt5queueIP8TreeNodeSt5dequeIS1_SaIS1_EEED1Ev,_ZNSt5queueIP8TreeNodeSt5dequeIS1_SaIS1_EEED2Ev
	.section	.text._ZNSt12_Vector_baseISt6vectorIiSaIiEESaIS2_EE12_Vector_implD2Ev,"axG",@progbits,_ZNSt12_Vector_baseISt6vectorIiSaIiEESaIS2_EE12_Vector_implD5Ev,comdat
	.align	2
	.weak	_ZNSt12_Vector_baseISt6vectorIiSaIiEESaIS2_EE12_Vector_implD2Ev
	.type	_ZNSt12_Vector_baseISt6vectorIiSaIiEESaIS2_EE12_Vector_implD2Ev, %function
_ZNSt12_Vector_baseISt6vectorIiSaIiEESaIS2_EE12_Vector_implD2Ev:
.LFB2366:
	.cfi_startproc
	stp	x29, x30, [sp, -32]!
	.cfi_def_cfa_offset 32
	.cfi_offset 29, -32
	.cfi_offset 30, -24
	mov	x29, sp
	str	x0, [sp, 24]
	ldr	x0, [sp, 24]
	bl	_ZNSaISt6vectorIiSaIiEEED2Ev
	nop
	ldp	x29, x30, [sp], 32
	.cfi_restore 30
	.cfi_restore 29
	.cfi_def_cfa_offset 0
	ret
	.cfi_endproc
.LFE2366:
	.size	_ZNSt12_Vector_baseISt6vectorIiSaIiEESaIS2_EE12_Vector_implD2Ev, .-_ZNSt12_Vector_baseISt6vectorIiSaIiEESaIS2_EE12_Vector_implD2Ev
	.weak	_ZNSt12_Vector_baseISt6vectorIiSaIiEESaIS2_EE12_Vector_implD1Ev
	.set	_ZNSt12_Vector_baseISt6vectorIiSaIiEESaIS2_EE12_Vector_implD1Ev,_ZNSt12_Vector_baseISt6vectorIiSaIiEESaIS2_EE12_Vector_implD2Ev
	.section	.text._ZNSt12_Vector_baseISt6vectorIiSaIiEESaIS2_EEC2Ev,"axG",@progbits,_ZNSt12_Vector_baseISt6vectorIiSaIiEESaIS2_EEC5Ev,comdat
	.align	2
	.weak	_ZNSt12_Vector_baseISt6vectorIiSaIiEESaIS2_EEC2Ev
	.type	_ZNSt12_Vector_baseISt6vectorIiSaIiEESaIS2_EEC2Ev, %function
_ZNSt12_Vector_baseISt6vectorIiSaIiEESaIS2_EEC2Ev:
.LFB2368:
	.cfi_startproc
	stp	x29, x30, [sp, -32]!
	.cfi_def_cfa_offset 32
	.cfi_offset 29, -32
	.cfi_offset 30, -24
	mov	x29, sp
	str	x0, [sp, 24]
	ldr	x0, [sp, 24]
	bl	_ZNSt12_Vector_baseISt6vectorIiSaIiEESaIS2_EE12_Vector_implC1Ev
	nop
	ldp	x29, x30, [sp], 32
	.cfi_restore 30
	.cfi_restore 29
	.cfi_def_cfa_offset 0
	ret
	.cfi_endproc
.LFE2368:
	.size	_ZNSt12_Vector_baseISt6vectorIiSaIiEESaIS2_EEC2Ev, .-_ZNSt12_Vector_baseISt6vectorIiSaIiEESaIS2_EEC2Ev
	.weak	_ZNSt12_Vector_baseISt6vectorIiSaIiEESaIS2_EEC1Ev
	.set	_ZNSt12_Vector_baseISt6vectorIiSaIiEESaIS2_EEC1Ev,_ZNSt12_Vector_baseISt6vectorIiSaIiEESaIS2_EEC2Ev
	.section	.text._ZNSt6vectorIS_IiSaIiEESaIS1_EEC2Ev,"axG",@progbits,_ZNSt6vectorIS_IiSaIiEESaIS1_EEC5Ev,comdat
	.align	2
	.weak	_ZNSt6vectorIS_IiSaIiEESaIS1_EEC2Ev
	.type	_ZNSt6vectorIS_IiSaIiEESaIS1_EEC2Ev, %function
_ZNSt6vectorIS_IiSaIiEESaIS1_EEC2Ev:
.LFB2370:
	.cfi_startproc
	stp	x29, x30, [sp, -32]!
	.cfi_def_cfa_offset 32
	.cfi_offset 29, -32
	.cfi_offset 30, -24
	mov	x29, sp
	str	x0, [sp, 24]
	ldr	x0, [sp, 24]
	bl	_ZNSt12_Vector_baseISt6vectorIiSaIiEESaIS2_EEC2Ev
	nop
	ldp	x29, x30, [sp], 32
	.cfi_restore 30
	.cfi_restore 29
	.cfi_def_cfa_offset 0
	ret
	.cfi_endproc
.LFE2370:
	.size	_ZNSt6vectorIS_IiSaIiEESaIS1_EEC2Ev, .-_ZNSt6vectorIS_IiSaIiEESaIS1_EEC2Ev
	.weak	_ZNSt6vectorIS_IiSaIiEESaIS1_EEC1Ev
	.set	_ZNSt6vectorIS_IiSaIiEESaIS1_EEC1Ev,_ZNSt6vectorIS_IiSaIiEESaIS1_EEC2Ev
	.section	.text._ZNSt12_Vector_baseIiSaIiEE12_Vector_implD2Ev,"axG",@progbits,_ZNSt12_Vector_baseIiSaIiEE12_Vector_implD5Ev,comdat
	.align	2
	.weak	_ZNSt12_Vector_baseIiSaIiEE12_Vector_implD2Ev
	.type	_ZNSt12_Vector_baseIiSaIiEE12_Vector_implD2Ev, %function
_ZNSt12_Vector_baseIiSaIiEE12_Vector_implD2Ev:
.LFB2376:
	.cfi_startproc
	stp	x29, x30, [sp, -32]!
	.cfi_def_cfa_offset 32
	.cfi_offset 29, -32
	.cfi_offset 30, -24
	mov	x29, sp
	str	x0, [sp, 24]
	ldr	x0, [sp, 24]
	bl	_ZNSaIiED2Ev
	nop
	ldp	x29, x30, [sp], 32
	.cfi_restore 30
	.cfi_restore 29
	.cfi_def_cfa_offset 0
	ret
	.cfi_endproc
.LFE2376:
	.size	_ZNSt12_Vector_baseIiSaIiEE12_Vector_implD2Ev, .-_ZNSt12_Vector_baseIiSaIiEE12_Vector_implD2Ev
	.weak	_ZNSt12_Vector_baseIiSaIiEE12_Vector_implD1Ev
	.set	_ZNSt12_Vector_baseIiSaIiEE12_Vector_implD1Ev,_ZNSt12_Vector_baseIiSaIiEE12_Vector_implD2Ev
	.section	.text._ZNSt12_Vector_baseIiSaIiEEC2Ev,"axG",@progbits,_ZNSt12_Vector_baseIiSaIiEEC5Ev,comdat
	.align	2
	.weak	_ZNSt12_Vector_baseIiSaIiEEC2Ev
	.type	_ZNSt12_Vector_baseIiSaIiEEC2Ev, %function
_ZNSt12_Vector_baseIiSaIiEEC2Ev:
.LFB2378:
	.cfi_startproc
	stp	x29, x30, [sp, -32]!
	.cfi_def_cfa_offset 32
	.cfi_offset 29, -32
	.cfi_offset 30, -24
	mov	x29, sp
	str	x0, [sp, 24]
	ldr	x0, [sp, 24]
	bl	_ZNSt12_Vector_baseIiSaIiEE12_Vector_implC1Ev
	nop
	ldp	x29, x30, [sp], 32
	.cfi_restore 30
	.cfi_restore 29
	.cfi_def_cfa_offset 0
	ret
	.cfi_endproc
.LFE2378:
	.size	_ZNSt12_Vector_baseIiSaIiEEC2Ev, .-_ZNSt12_Vector_baseIiSaIiEEC2Ev
	.weak	_ZNSt12_Vector_baseIiSaIiEEC1Ev
	.set	_ZNSt12_Vector_baseIiSaIiEEC1Ev,_ZNSt12_Vector_baseIiSaIiEEC2Ev
	.section	.text._ZNSt6vectorIiSaIiEEC2Ev,"axG",@progbits,_ZNSt6vectorIiSaIiEEC5Ev,comdat
	.align	2
	.weak	_ZNSt6vectorIiSaIiEEC2Ev
	.type	_ZNSt6vectorIiSaIiEEC2Ev, %function
_ZNSt6vectorIiSaIiEEC2Ev:
.LFB2380:
	.cfi_startproc
	stp	x29, x30, [sp, -32]!
	.cfi_def_cfa_offset 32
	.cfi_offset 29, -32
	.cfi_offset 30, -24
	mov	x29, sp
	str	x0, [sp, 24]
	ldr	x0, [sp, 24]
	bl	_ZNSt12_Vector_baseIiSaIiEEC2Ev
	nop
	ldp	x29, x30, [sp], 32
	.cfi_restore 30
	.cfi_restore 29
	.cfi_def_cfa_offset 0
	ret
	.cfi_endproc
.LFE2380:
	.size	_ZNSt6vectorIiSaIiEEC2Ev, .-_ZNSt6vectorIiSaIiEEC2Ev
	.weak	_ZNSt6vectorIiSaIiEEC1Ev
	.set	_ZNSt6vectorIiSaIiEEC1Ev,_ZNSt6vectorIiSaIiEEC2Ev
	.section	.text._ZN8Solution16zigzagLevelOrderEP8TreeNode,"axG",@progbits,_ZN8Solution16zigzagLevelOrderEP8TreeNode,comdat
	.align	2
	.weak	_ZN8Solution16zigzagLevelOrderEP8TreeNode
	.type	_ZN8Solution16zigzagLevelOrderEP8TreeNode, %function
_ZN8Solution16zigzagLevelOrderEP8TreeNode:
.LFB2357:
	.cfi_startproc
	.cfi_personality 0x9b,DW.ref.__gxx_personality_v0
	.cfi_lsda 0x1b,.LLSDA2357
	stp	x29, x30, [sp, -192]!
	.cfi_def_cfa_offset 192
	.cfi_offset 29, -192
	.cfi_offset 30, -184
	mov	x29, sp
	stp	x19, x20, [sp, 16]
	.cfi_offset 19, -176
	.cfi_offset 20, -168
	mov	x19, x8
	str	x0, [sp, 40]
	str	x1, [sp, 32]
	adrp	x0, :got:__stack_chk_guard
	ldr	x0, [x0, #:got_lo12:__stack_chk_guard]
	ldr	x1, [x0]
	str	x1, [sp, 184]
	mov	x1, 0
	add	x0, sp, 104
.LEHB0:
	bl	_ZNSt5queueIP8TreeNodeSt5dequeIS1_SaIS1_EEEC1IS4_vEEv
.LEHE0:
	mov	x0, x19
	bl	_ZNSt6vectorIS_IiSaIiEESaIS1_EEC1Ev
	mov	x0, 24
.LEHB1:
	bl	_Znwm
	mov	x20, x0
	mov	x0, x20
	bl	_ZN8TreeNodeC1Ev
	str	x20, [sp, 56]
	ldr	x0, [sp, 32]
	cmp	x0, 0
	beq	.L17
	add	x1, sp, 32
	add	x0, sp, 104
	bl	_ZNSt5queueIP8TreeNodeSt5dequeIS1_SaIS1_EEE4pushERKS1_
.L17:
	add	x1, sp, 56
	add	x0, sp, 104
	bl	_ZNSt5queueIP8TreeNodeSt5dequeIS1_SaIS1_EEE4pushERKS1_
	str	wzr, [sp, 52]
	b	.L18
.L24:
	add	x0, sp, 104
	bl	_ZNSt5queueIP8TreeNodeSt5dequeIS1_SaIS1_EEE5frontEv
	ldr	x0, [x0]
	str	x0, [sp, 72]
	add	x0, sp, 104
	bl	_ZNSt5queueIP8TreeNodeSt5dequeIS1_SaIS1_EEE3popEv
	ldr	x0, [sp, 56]
	ldr	x1, [sp, 72]
	cmp	x1, x0
	bne	.L19
	ldr	w0, [sp, 52]
	add	w0, w0, 1
	str	w0, [sp, 52]
	add	x0, sp, 104
	bl	_ZNKSt5queueIP8TreeNodeSt5dequeIS1_SaIS1_EEE5emptyEv
	and	w0, w0, 255
	eor	w0, w0, 1
	and	w0, w0, 255
	cmp	w0, 0
	beq	.L18
	add	x1, sp, 56
	add	x0, sp, 104
	bl	_ZNSt5queueIP8TreeNodeSt5dequeIS1_SaIS1_EEE4pushERKS1_
.LEHE1:
	b	.L18
.L19:
	ldrsw	x20, [sp, 52]
	mov	x0, x19
	bl	_ZNKSt6vectorIS_IiSaIiEESaIS1_EE4sizeEv
	cmp	x20, x0
	cset	w0, cs
	and	w0, w0, 255
	cmp	w0, 0
	beq	.L20
	stp	xzr, xzr, [sp, 80]
	str	xzr, [sp, 96]
	add	x0, sp, 80
	bl	_ZNSt6vectorIiSaIiEEC1Ev
	add	x0, sp, 80
	mov	x1, x0
	mov	x0, x19
.LEHB2:
	bl	_ZNSt6vectorIS_IiSaIiEESaIS1_EE9push_backEOS1_
.LEHE2:
	add	x0, sp, 80
	bl	_ZNSt6vectorIiSaIiEED1Ev
.L20:
	ldr	w0, [sp, 52]
	and	w0, w0, 1
	cmp	w0, 0
	bne	.L21
	ldrsw	x0, [sp, 52]
	mov	x1, x0
	mov	x0, x19
	bl	_ZNSt6vectorIS_IiSaIiEESaIS1_EEixEm
	mov	x2, x0
	ldr	x0, [sp, 72]
	mov	x1, x0
	mov	x0, x2
.LEHB3:
	bl	_ZNSt6vectorIiSaIiEE9push_backERKi
	b	.L22
.L21:
	ldrsw	x0, [sp, 52]
	mov	x1, x0
	mov	x0, x19
	bl	_ZNSt6vectorIS_IiSaIiEESaIS1_EEixEm
	mov	x20, x0
	ldrsw	x0, [sp, 52]
	mov	x1, x0
	mov	x0, x19
	bl	_ZNSt6vectorIS_IiSaIiEESaIS1_EEixEm
	bl	_ZNSt6vectorIiSaIiEE5beginEv
	str	x0, [sp, 64]
	add	x1, sp, 64
	add	x0, sp, 80
	bl	_ZN9__gnu_cxx17__normal_iteratorIPKiSt6vectorIiSaIiEEEC1IPiEERKNS0_IT_NS_11__enable_ifIXsrSt10__are_sameIS9_S8_E7__valueES5_E6__typeEEE
	ldr	x0, [sp, 72]
	mov	x2, x0
	ldr	x1, [sp, 80]
	mov	x0, x20
	bl	_ZNSt6vectorIiSaIiEE6insertEN9__gnu_cxx17__normal_iteratorIPKiS1_EERS4_
.L22:
	ldr	x0, [sp, 72]
	ldr	x0, [x0, 8]
	cmp	x0, 0
	beq	.L23
	ldr	x0, [sp, 72]
	add	x1, x0, 8
	add	x0, sp, 104
	bl	_ZNSt5queueIP8TreeNodeSt5dequeIS1_SaIS1_EEE4pushERKS1_
.L23:
	ldr	x0, [sp, 72]
	ldr	x0, [x0, 16]
	cmp	x0, 0
	beq	.L18
	ldr	x0, [sp, 72]
	add	x1, x0, 16
	add	x0, sp, 104
	bl	_ZNSt5queueIP8TreeNodeSt5dequeIS1_SaIS1_EEE4pushERKS1_
.LEHE3:
.L18:
	add	x0, sp, 104
	bl	_ZNKSt5queueIP8TreeNodeSt5dequeIS1_SaIS1_EEE5emptyEv
	and	w0, w0, 255
	eor	w0, w0, 1
	and	w0, w0, 255
	cmp	w0, 0
	bne	.L24
	nop
	add	x0, sp, 104
	bl	_ZNSt5queueIP8TreeNodeSt5dequeIS1_SaIS1_EEED1Ev
	nop
	adrp	x0, :got:__stack_chk_guard
	ldr	x0, [x0, #:got_lo12:__stack_chk_guard]
	ldr	x2, [sp, 184]
	ldr	x1, [x0]
	subs	x2, x2, x1
	mov	x1, 0
	beq	.L28
	b	.L31
.L30:
	mov	x20, x0
	add	x0, sp, 80
	bl	_ZNSt6vectorIiSaIiEED1Ev
	b	.L27
.L29:
	mov	x20, x0
.L27:
	mov	x0, x19
	bl	_ZNSt6vectorIS_IiSaIiEESaIS1_EED1Ev
	mov	x19, x20
	add	x0, sp, 104
	bl	_ZNSt5queueIP8TreeNodeSt5dequeIS1_SaIS1_EEED1Ev
	mov	x0, x19
.LEHB4:
	bl	_Unwind_Resume
.LEHE4:
.L31:
	bl	__stack_chk_fail
.L28:
	mov	x0, x19
	ldp	x19, x20, [sp, 16]
	ldp	x29, x30, [sp], 192
	.cfi_restore 30
	.cfi_restore 29
	.cfi_restore 19
	.cfi_restore 20
	.cfi_def_cfa_offset 0
	ret
	.cfi_endproc
.LFE2357:
	.global	__gxx_personality_v0
	.section	.gcc_except_table._ZN8Solution16zigzagLevelOrderEP8TreeNode,"aG",@progbits,_ZN8Solution16zigzagLevelOrderEP8TreeNode,comdat
.LLSDA2357:
	.byte	0xff
	.byte	0xff
	.byte	0x1
	.uleb128 .LLSDACSE2357-.LLSDACSB2357
.LLSDACSB2357:
	.uleb128 .LEHB0-.LFB2357
	.uleb128 .LEHE0-.LEHB0
	.uleb128 0
	.uleb128 0
	.uleb128 .LEHB1-.LFB2357
	.uleb128 .LEHE1-.LEHB1
	.uleb128 .L29-.LFB2357
	.uleb128 0
	.uleb128 .LEHB2-.LFB2357
	.uleb128 .LEHE2-.LEHB2
	.uleb128 .L30-.LFB2357
	.uleb128 0
	.uleb128 .LEHB3-.LFB2357
	.uleb128 .LEHE3-.LEHB3
	.uleb128 .L29-.LFB2357
	.uleb128 0
	.uleb128 .LEHB4-.LFB2357
	.uleb128 .LEHE4-.LEHB4
	.uleb128 0
	.uleb128 0
.LLSDACSE2357:
	.section	.text._ZN8Solution16zigzagLevelOrderEP8TreeNode,"axG",@progbits,_ZN8Solution16zigzagLevelOrderEP8TreeNode,comdat
	.size	_ZN8Solution16zigzagLevelOrderEP8TreeNode, .-_ZN8Solution16zigzagLevelOrderEP8TreeNode
	.text
	.align	2
	.global	main
	.type	main, %function
main:
.LFB2389:
	.cfi_startproc
	.cfi_personality 0x9b,DW.ref.__gxx_personality_v0
	.cfi_lsda 0x1b,.LLSDA2389
	stp	x29, x30, [sp, -128]!
	.cfi_def_cfa_offset 128
	.cfi_offset 29, -128
	.cfi_offset 30, -120
	mov	x29, sp
	str	x19, [sp, 16]
	.cfi_offset 19, -112
	str	w0, [sp, 44]
	str	x1, [sp, 32]
	adrp	x0, :got:__stack_chk_guard
	ldr	x0, [x0, #:got_lo12:__stack_chk_guard]
	ldr	x1, [x0]
	str	x1, [sp, 120]
	mov	x1, 0
	mov	x0, 24
.LEHB5:
	bl	_Znwm
	mov	x19, x0
	mov	w1, 3
	mov	x0, x19
	bl	_ZN8TreeNodeC1Ei
	str	x19, [sp, 56]
	mov	x0, 24
	bl	_Znwm
	mov	x19, x0
	mov	w1, 9
	mov	x0, x19
	bl	_ZN8TreeNodeC1Ei
	str	x19, [sp, 64]
	mov	x0, 24
	bl	_Znwm
	mov	x19, x0
	mov	w1, 20
	mov	x0, x19
	bl	_ZN8TreeNodeC1Ei
	str	x19, [sp, 72]
	mov	x0, 24
	bl	_Znwm
	mov	x19, x0
	mov	w1, 15
	mov	x0, x19
	bl	_ZN8TreeNodeC1Ei
	str	x19, [sp, 80]
	mov	x0, 24
	bl	_Znwm
	mov	x19, x0
	mov	w1, 7
	mov	x0, x19
	bl	_ZN8TreeNodeC1Ei
	str	x19, [sp, 88]
	ldr	x0, [sp, 56]
	ldr	x1, [sp, 64]
	str	x1, [x0, 8]
	ldr	x0, [sp, 56]
	ldr	x1, [sp, 72]
	str	x1, [x0, 16]
	ldr	x0, [sp, 72]
	ldr	x1, [sp, 80]
	str	x1, [x0, 8]
	ldr	x0, [sp, 72]
	ldr	x1, [sp, 88]
	str	x1, [x0, 16]
	add	x0, sp, 48
	add	x1, sp, 96
	mov	x8, x1
	ldr	x1, [sp, 56]
	bl	_ZN8Solution16zigzagLevelOrderEP8TreeNode
.LEHE5:
	add	x0, sp, 96
.LEHB6:
	bl	_Z5printISt6vectorIS0_IiSaIiEESaIS2_EEEvRKT_
.LEHE6:
	mov	w19, 0
	add	x0, sp, 96
	bl	_ZNSt6vectorIS_IiSaIiEESaIS1_EED1Ev
	mov	w1, w19
	adrp	x0, :got:__stack_chk_guard
	ldr	x0, [x0, #:got_lo12:__stack_chk_guard]
	ldr	x3, [sp, 120]
	ldr	x2, [x0]
	subs	x3, x3, x2
	mov	x2, 0
	beq	.L35
	b	.L37
.L36:
	mov	x19, x0
	add	x0, sp, 96
	bl	_ZNSt6vectorIS_IiSaIiEESaIS1_EED1Ev
	mov	x0, x19
.LEHB7:
	bl	_Unwind_Resume
.LEHE7:
.L37:
	bl	__stack_chk_fail
.L35:
	mov	w0, w1
	ldr	x19, [sp, 16]
	ldp	x29, x30, [sp], 128
	.cfi_restore 30
	.cfi_restore 29
	.cfi_restore 19
	.cfi_def_cfa_offset 0
	ret
	.cfi_endproc
.LFE2389:
	.section	.gcc_except_table,"a",@progbits
.LLSDA2389:
	.byte	0xff
	.byte	0xff
	.byte	0x1
	.uleb128 .LLSDACSE2389-.LLSDACSB2389
.LLSDACSB2389:
	.uleb128 .LEHB5-.LFB2389
	.uleb128 .LEHE5-.LEHB5
	.uleb128 0
	.uleb128 0
	.uleb128 .LEHB6-.LFB2389
	.uleb128 .LEHE6-.LEHB6
	.uleb128 .L36-.LFB2389
	.uleb128 0
	.uleb128 .LEHB7-.LFB2389
	.uleb128 .LEHE7-.LEHB7
	.uleb128 0
	.uleb128 0
.LLSDACSE2389:
	.text
	.size	main, .-main
	.section	.text._ZNSt5dequeIP8TreeNodeSaIS1_EEC2Ev,"axG",@progbits,_ZNSt5dequeIP8TreeNodeSaIS1_EEC5Ev,comdat
	.align	2
	.weak	_ZNSt5dequeIP8TreeNodeSaIS1_EEC2Ev
	.type	_ZNSt5dequeIP8TreeNodeSaIS1_EEC2Ev, %function
_ZNSt5dequeIP8TreeNodeSaIS1_EEC2Ev:
.LFB2652:
	.cfi_startproc
	stp	x29, x30, [sp, -32]!
	.cfi_def_cfa_offset 32
	.cfi_offset 29, -32
	.cfi_offset 30, -24
	mov	x29, sp
	str	x0, [sp, 24]
	ldr	x0, [sp, 24]
	bl	_ZNSt11_Deque_baseIP8TreeNodeSaIS1_EEC2Ev
	nop
	ldp	x29, x30, [sp], 32
	.cfi_restore 30
	.cfi_restore 29
	.cfi_def_cfa_offset 0
	ret
	.cfi_endproc
.LFE2652:
	.size	_ZNSt5dequeIP8TreeNodeSaIS1_EEC2Ev, .-_ZNSt5dequeIP8TreeNodeSaIS1_EEC2Ev
	.weak	_ZNSt5dequeIP8TreeNodeSaIS1_EEC1Ev
	.set	_ZNSt5dequeIP8TreeNodeSaIS1_EEC1Ev,_ZNSt5dequeIP8TreeNodeSaIS1_EEC2Ev
	.section	.text._ZNSt5queueIP8TreeNodeSt5dequeIS1_SaIS1_EEEC2IS4_vEEv,"axG",@progbits,_ZNSt5queueIP8TreeNodeSt5dequeIS1_SaIS1_EEEC5IS4_vEEv,comdat
	.align	2
	.weak	_ZNSt5queueIP8TreeNodeSt5dequeIS1_SaIS1_EEEC2IS4_vEEv
	.type	_ZNSt5queueIP8TreeNodeSt5dequeIS1_SaIS1_EEEC2IS4_vEEv, %function
_ZNSt5queueIP8TreeNodeSt5dequeIS1_SaIS1_EEEC2IS4_vEEv:
.LFB2654:
	.cfi_startproc
	stp	x29, x30, [sp, -32]!
	.cfi_def_cfa_offset 32
	.cfi_offset 29, -32
	.cfi_offset 30, -24
	mov	x29, sp
	str	x0, [sp, 24]
	ldr	x0, [sp, 24]
	movi	v0.4s, 0
	stp	q0, q0, [x0]
	stp	q0, q0, [x0, 32]
	str	q0, [x0, 64]
	ldr	x0, [sp, 24]
	bl	_ZNSt5dequeIP8TreeNodeSaIS1_EEC1Ev
	nop
	ldp	x29, x30, [sp], 32
	.cfi_restore 30
	.cfi_restore 29
	.cfi_def_cfa_offset 0
	ret
	.cfi_endproc
.LFE2654:
	.size	_ZNSt5queueIP8TreeNodeSt5dequeIS1_SaIS1_EEEC2IS4_vEEv, .-_ZNSt5queueIP8TreeNodeSt5dequeIS1_SaIS1_EEEC2IS4_vEEv
	.weak	_ZNSt5queueIP8TreeNodeSt5dequeIS1_SaIS1_EEEC1IS4_vEEv
	.set	_ZNSt5queueIP8TreeNodeSt5dequeIS1_SaIS1_EEEC1IS4_vEEv,_ZNSt5queueIP8TreeNodeSt5dequeIS1_SaIS1_EEEC2IS4_vEEv
	.section	.text._ZNSt5dequeIP8TreeNodeSaIS1_EED2Ev,"axG",@progbits,_ZNSt5dequeIP8TreeNodeSaIS1_EED5Ev,comdat
	.align	2
	.weak	_ZNSt5dequeIP8TreeNodeSaIS1_EED2Ev
	.type	_ZNSt5dequeIP8TreeNodeSaIS1_EED2Ev, %function
_ZNSt5dequeIP8TreeNodeSaIS1_EED2Ev:
.LFB2657:
	.cfi_startproc
	.cfi_personality 0x9b,DW.ref.__gxx_personality_v0
	.cfi_lsda 0x1b,.LLSDA2657
	stp	x29, x30, [sp, -112]!
	.cfi_def_cfa_offset 112
	.cfi_offset 29, -112
	.cfi_offset 30, -104
	mov	x29, sp
	str	x0, [sp, 24]
	adrp	x0, :got:__stack_chk_guard
	ldr	x0, [x0, #:got_lo12:__stack_chk_guard]
	ldr	x1, [x0]
	str	x1, [sp, 104]
	mov	x1, 0
	add	x0, sp, 40
	mov	x8, x0
	ldr	x0, [sp, 24]
	bl	_ZNSt5dequeIP8TreeNodeSaIS1_EE5beginEv
	add	x0, sp, 72
	mov	x8, x0
	ldr	x0, [sp, 24]
	bl	_ZNSt5dequeIP8TreeNodeSaIS1_EE3endEv
	ldr	x0, [sp, 24]
	bl	_ZNSt11_Deque_baseIP8TreeNodeSaIS1_EE19_M_get_Tp_allocatorEv
	mov	x2, x0
	add	x1, sp, 72
	add	x0, sp, 40
	mov	x3, x2
	mov	x2, x1
	mov	x1, x0
	ldr	x0, [sp, 24]
	bl	_ZNSt5dequeIP8TreeNodeSaIS1_EE15_M_destroy_dataESt15_Deque_iteratorIS1_RS1_PS1_ES7_RKS2_
	ldr	x0, [sp, 24]
	bl	_ZNSt11_Deque_baseIP8TreeNodeSaIS1_EED2Ev
	nop
	adrp	x0, :got:__stack_chk_guard
	ldr	x0, [x0, #:got_lo12:__stack_chk_guard]
	ldr	x2, [sp, 104]
	ldr	x1, [x0]
	subs	x2, x2, x1
	mov	x1, 0
	beq	.L41
	bl	__stack_chk_fail
.L41:
	ldp	x29, x30, [sp], 112
	.cfi_restore 30
	.cfi_restore 29
	.cfi_def_cfa_offset 0
	ret
	.cfi_endproc
.LFE2657:
	.section	.gcc_except_table
.LLSDA2657:
	.byte	0xff
	.byte	0xff
	.byte	0x1
	.uleb128 .LLSDACSE2657-.LLSDACSB2657
.LLSDACSB2657:
.LLSDACSE2657:
	.section	.text._ZNSt5dequeIP8TreeNodeSaIS1_EED2Ev,"axG",@progbits,_ZNSt5dequeIP8TreeNodeSaIS1_EED5Ev,comdat
	.size	_ZNSt5dequeIP8TreeNodeSaIS1_EED2Ev, .-_ZNSt5dequeIP8TreeNodeSaIS1_EED2Ev
	.weak	_ZNSt5dequeIP8TreeNodeSaIS1_EED1Ev
	.set	_ZNSt5dequeIP8TreeNodeSaIS1_EED1Ev,_ZNSt5dequeIP8TreeNodeSaIS1_EED2Ev
	.section	.text._ZNSt12_Vector_baseISt6vectorIiSaIiEESaIS2_EE12_Vector_implC2Ev,"axG",@progbits,_ZNSt12_Vector_baseISt6vectorIiSaIiEESaIS2_EE12_Vector_implC5Ev,comdat
	.align	2
	.weak	_ZNSt12_Vector_baseISt6vectorIiSaIiEESaIS2_EE12_Vector_implC2Ev
	.type	_ZNSt12_Vector_baseISt6vectorIiSaIiEESaIS2_EE12_Vector_implC2Ev, %function
_ZNSt12_Vector_baseISt6vectorIiSaIiEESaIS2_EE12_Vector_implC2Ev:
.LFB2660:
	.cfi_startproc
	stp	x29, x30, [sp, -32]!
	.cfi_def_cfa_offset 32
	.cfi_offset 29, -32
	.cfi_offset 30, -24
	mov	x29, sp
	str	x0, [sp, 24]
	ldr	x0, [sp, 24]
	bl	_ZNSaISt6vectorIiSaIiEEEC2Ev
	ldr	x0, [sp, 24]
	bl	_ZNSt12_Vector_baseISt6vectorIiSaIiEESaIS2_EE17_Vector_impl_dataC2Ev
	nop
	ldp	x29, x30, [sp], 32
	.cfi_restore 30
	.cfi_restore 29
	.cfi_def_cfa_offset 0
	ret
	.cfi_endproc
.LFE2660:
	.size	_ZNSt12_Vector_baseISt6vectorIiSaIiEESaIS2_EE12_Vector_implC2Ev, .-_ZNSt12_Vector_baseISt6vectorIiSaIiEESaIS2_EE12_Vector_implC2Ev
	.weak	_ZNSt12_Vector_baseISt6vectorIiSaIiEESaIS2_EE12_Vector_implC1Ev
	.set	_ZNSt12_Vector_baseISt6vectorIiSaIiEESaIS2_EE12_Vector_implC1Ev,_ZNSt12_Vector_baseISt6vectorIiSaIiEESaIS2_EE12_Vector_implC2Ev
	.section	.text._ZNSaISt6vectorIiSaIiEEED2Ev,"axG",@progbits,_ZNSaISt6vectorIiSaIiEEED5Ev,comdat
	.align	2
	.weak	_ZNSaISt6vectorIiSaIiEEED2Ev
	.type	_ZNSaISt6vectorIiSaIiEEED2Ev, %function
_ZNSaISt6vectorIiSaIiEEED2Ev:
.LFB2663:
	.cfi_startproc
	stp	x29, x30, [sp, -32]!
	.cfi_def_cfa_offset 32
	.cfi_offset 29, -32
	.cfi_offset 30, -24
	mov	x29, sp
	str	x0, [sp, 24]
	ldr	x0, [sp, 24]
	bl	_ZN9__gnu_cxx13new_allocatorISt6vectorIiSaIiEEED2Ev
	nop
	ldp	x29, x30, [sp], 32
	.cfi_restore 30
	.cfi_restore 29
	.cfi_def_cfa_offset 0
	ret
	.cfi_endproc
.LFE2663:
	.size	_ZNSaISt6vectorIiSaIiEEED2Ev, .-_ZNSaISt6vectorIiSaIiEEED2Ev
	.weak	_ZNSaISt6vectorIiSaIiEEED1Ev
	.set	_ZNSaISt6vectorIiSaIiEEED1Ev,_ZNSaISt6vectorIiSaIiEEED2Ev
	.section	.text._ZNSt12_Vector_baseISt6vectorIiSaIiEESaIS2_EED2Ev,"axG",@progbits,_ZNSt12_Vector_baseISt6vectorIiSaIiEESaIS2_EED5Ev,comdat
	.align	2
	.weak	_ZNSt12_Vector_baseISt6vectorIiSaIiEESaIS2_EED2Ev
	.type	_ZNSt12_Vector_baseISt6vectorIiSaIiEESaIS2_EED2Ev, %function
_ZNSt12_Vector_baseISt6vectorIiSaIiEESaIS2_EED2Ev:
.LFB2666:
	.cfi_startproc
	.cfi_personality 0x9b,DW.ref.__gxx_personality_v0
	.cfi_lsda 0x1b,.LLSDA2666
	stp	x29, x30, [sp, -32]!
	.cfi_def_cfa_offset 32
	.cfi_offset 29, -32
	.cfi_offset 30, -24
	mov	x29, sp
	str	x0, [sp, 24]
	ldr	x0, [sp, 24]
	ldr	x3, [x0]
	ldr	x0, [sp, 24]
	ldr	x1, [x0, 16]
	ldr	x0, [sp, 24]
	ldr	x0, [x0]
	sub	x0, x1, x0
	asr	x1, x0, 3
	mov	x0, -6148914691236517206
	movk	x0, 0xaaab, lsl 0
	mul	x0, x1, x0
	mov	x2, x0
	mov	x1, x3
	ldr	x0, [sp, 24]
	bl	_ZNSt12_Vector_baseISt6vectorIiSaIiEESaIS2_EE13_M_deallocateEPS2_m
	ldr	x0, [sp, 24]
	bl	_ZNSt12_Vector_baseISt6vectorIiSaIiEESaIS2_EE12_Vector_implD1Ev
	nop
	ldp	x29, x30, [sp], 32
	.cfi_restore 30
	.cfi_restore 29
	.cfi_def_cfa_offset 0
	ret
	.cfi_endproc
.LFE2666:
	.section	.gcc_except_table
.LLSDA2666:
	.byte	0xff
	.byte	0xff
	.byte	0x1
	.uleb128 .LLSDACSE2666-.LLSDACSB2666
.LLSDACSB2666:
.LLSDACSE2666:
	.section	.text._ZNSt12_Vector_baseISt6vectorIiSaIiEESaIS2_EED2Ev,"axG",@progbits,_ZNSt12_Vector_baseISt6vectorIiSaIiEESaIS2_EED5Ev,comdat
	.size	_ZNSt12_Vector_baseISt6vectorIiSaIiEESaIS2_EED2Ev, .-_ZNSt12_Vector_baseISt6vectorIiSaIiEESaIS2_EED2Ev
	.weak	_ZNSt12_Vector_baseISt6vectorIiSaIiEESaIS2_EED1Ev
	.set	_ZNSt12_Vector_baseISt6vectorIiSaIiEESaIS2_EED1Ev,_ZNSt12_Vector_baseISt6vectorIiSaIiEESaIS2_EED2Ev
	.section	.text._ZNSt6vectorIS_IiSaIiEESaIS1_EED2Ev,"axG",@progbits,_ZNSt6vectorIS_IiSaIiEESaIS1_EED5Ev,comdat
	.align	2
	.weak	_ZNSt6vectorIS_IiSaIiEESaIS1_EED2Ev
	.type	_ZNSt6vectorIS_IiSaIiEESaIS1_EED2Ev, %function
_ZNSt6vectorIS_IiSaIiEESaIS1_EED2Ev:
.LFB2669:
	.cfi_startproc
	.cfi_personality 0x9b,DW.ref.__gxx_personality_v0
	.cfi_lsda 0x1b,.LLSDA2669
	stp	x29, x30, [sp, -48]!
	.cfi_def_cfa_offset 48
	.cfi_offset 29, -48
	.cfi_offset 30, -40
	mov	x29, sp
	stp	x19, x20, [sp, 16]
	.cfi_offset 19, -32
	.cfi_offset 20, -24
	str	x0, [sp, 40]
	ldr	x0, [sp, 40]
	ldr	x19, [x0]
	ldr	x0, [sp, 40]
	ldr	x20, [x0, 8]
	ldr	x0, [sp, 40]
	bl	_ZNSt12_Vector_baseISt6vectorIiSaIiEESaIS2_EE19_M_get_Tp_allocatorEv
	mov	x2, x0
	mov	x1, x20
	mov	x0, x19
	bl	_ZSt8_DestroyIPSt6vectorIiSaIiEES2_EvT_S4_RSaIT0_E
	ldr	x0, [sp, 40]
	bl	_ZNSt12_Vector_baseISt6vectorIiSaIiEESaIS2_EED2Ev
	nop
	ldp	x19, x20, [sp, 16]
	ldp	x29, x30, [sp], 48
	.cfi_restore 30
	.cfi_restore 29
	.cfi_restore 19
	.cfi_restore 20
	.cfi_def_cfa_offset 0
	ret
	.cfi_endproc
.LFE2669:
	.section	.gcc_except_table
.LLSDA2669:
	.byte	0xff
	.byte	0xff
	.byte	0x1
	.uleb128 .LLSDACSE2669-.LLSDACSB2669
.LLSDACSB2669:
.LLSDACSE2669:
	.section	.text._ZNSt6vectorIS_IiSaIiEESaIS1_EED2Ev,"axG",@progbits,_ZNSt6vectorIS_IiSaIiEESaIS1_EED5Ev,comdat
	.size	_ZNSt6vectorIS_IiSaIiEESaIS1_EED2Ev, .-_ZNSt6vectorIS_IiSaIiEESaIS1_EED2Ev
	.weak	_ZNSt6vectorIS_IiSaIiEESaIS1_EED1Ev
	.set	_ZNSt6vectorIS_IiSaIiEESaIS1_EED1Ev,_ZNSt6vectorIS_IiSaIiEESaIS1_EED2Ev
	.section	.text._ZNSt5queueIP8TreeNodeSt5dequeIS1_SaIS1_EEE4pushERKS1_,"axG",@progbits,_ZNSt5queueIP8TreeNodeSt5dequeIS1_SaIS1_EEE4pushERKS1_,comdat
	.align	2
	.weak	_ZNSt5queueIP8TreeNodeSt5dequeIS1_SaIS1_EEE4pushERKS1_
	.type	_ZNSt5queueIP8TreeNodeSt5dequeIS1_SaIS1_EEE4pushERKS1_, %function
_ZNSt5queueIP8TreeNodeSt5dequeIS1_SaIS1_EEE4pushERKS1_:
.LFB2671:
	.cfi_startproc
	stp	x29, x30, [sp, -32]!
	.cfi_def_cfa_offset 32
	.cfi_offset 29, -32
	.cfi_offset 30, -24
	mov	x29, sp
	str	x0, [sp, 24]
	str	x1, [sp, 16]
	ldr	x0, [sp, 24]
	ldr	x1, [sp, 16]
	bl	_ZNSt5dequeIP8TreeNodeSaIS1_EE9push_backERKS1_
	nop
	ldp	x29, x30, [sp], 32
	.cfi_restore 30
	.cfi_restore 29
	.cfi_def_cfa_offset 0
	ret
	.cfi_endproc
.LFE2671:
	.size	_ZNSt5queueIP8TreeNodeSt5dequeIS1_SaIS1_EEE4pushERKS1_, .-_ZNSt5queueIP8TreeNodeSt5dequeIS1_SaIS1_EEE4pushERKS1_
	.section	.text._ZNKSt5queueIP8TreeNodeSt5dequeIS1_SaIS1_EEE5emptyEv,"axG",@progbits,_ZNKSt5queueIP8TreeNodeSt5dequeIS1_SaIS1_EEE5emptyEv,comdat
	.align	2
	.weak	_ZNKSt5queueIP8TreeNodeSt5dequeIS1_SaIS1_EEE5emptyEv
	.type	_ZNKSt5queueIP8TreeNodeSt5dequeIS1_SaIS1_EEE5emptyEv, %function
_ZNKSt5queueIP8TreeNodeSt5dequeIS1_SaIS1_EEE5emptyEv:
.LFB2672:
	.cfi_startproc
	stp	x29, x30, [sp, -32]!
	.cfi_def_cfa_offset 32
	.cfi_offset 29, -32
	.cfi_offset 30, -24
	mov	x29, sp
	str	x0, [sp, 24]
	ldr	x0, [sp, 24]
	bl	_ZNKSt5dequeIP8TreeNodeSaIS1_EE5emptyEv
	and	w0, w0, 255
	ldp	x29, x30, [sp], 32
	.cfi_restore 30
	.cfi_restore 29
	.cfi_def_cfa_offset 0
	ret
	.cfi_endproc
.LFE2672:
	.size	_ZNKSt5queueIP8TreeNodeSt5dequeIS1_SaIS1_EEE5emptyEv, .-_ZNKSt5queueIP8TreeNodeSt5dequeIS1_SaIS1_EEE5emptyEv
	.section	.text._ZNSt5queueIP8TreeNodeSt5dequeIS1_SaIS1_EEE5frontEv,"axG",@progbits,_ZNSt5queueIP8TreeNodeSt5dequeIS1_SaIS1_EEE5frontEv,comdat
	.align	2
	.weak	_ZNSt5queueIP8TreeNodeSt5dequeIS1_SaIS1_EEE5frontEv
	.type	_ZNSt5queueIP8TreeNodeSt5dequeIS1_SaIS1_EEE5frontEv, %function
_ZNSt5queueIP8TreeNodeSt5dequeIS1_SaIS1_EEE5frontEv:
.LFB2673:
	.cfi_startproc
	stp	x29, x30, [sp, -32]!
	.cfi_def_cfa_offset 32
	.cfi_offset 29, -32
	.cfi_offset 30, -24
	mov	x29, sp
	str	x0, [sp, 24]
	ldr	x0, [sp, 24]
	bl	_ZNSt5dequeIP8TreeNodeSaIS1_EE5frontEv
	ldp	x29, x30, [sp], 32
	.cfi_restore 30
	.cfi_restore 29
	.cfi_def_cfa_offset 0
	ret
	.cfi_endproc
.LFE2673:
	.size	_ZNSt5queueIP8TreeNodeSt5dequeIS1_SaIS1_EEE5frontEv, .-_ZNSt5queueIP8TreeNodeSt5dequeIS1_SaIS1_EEE5frontEv
	.section	.text._ZNSt5queueIP8TreeNodeSt5dequeIS1_SaIS1_EEE3popEv,"axG",@progbits,_ZNSt5queueIP8TreeNodeSt5dequeIS1_SaIS1_EEE3popEv,comdat
	.align	2
	.weak	_ZNSt5queueIP8TreeNodeSt5dequeIS1_SaIS1_EEE3popEv
	.type	_ZNSt5queueIP8TreeNodeSt5dequeIS1_SaIS1_EEE3popEv, %function
_ZNSt5queueIP8TreeNodeSt5dequeIS1_SaIS1_EEE3popEv:
.LFB2674:
	.cfi_startproc
	stp	x29, x30, [sp, -32]!
	.cfi_def_cfa_offset 32
	.cfi_offset 29, -32
	.cfi_offset 30, -24
	mov	x29, sp
	str	x0, [sp, 24]
	ldr	x0, [sp, 24]
	bl	_ZNSt5dequeIP8TreeNodeSaIS1_EE9pop_frontEv
	nop
	ldp	x29, x30, [sp], 32
	.cfi_restore 30
	.cfi_restore 29
	.cfi_def_cfa_offset 0
	ret
	.cfi_endproc
.LFE2674:
	.size	_ZNSt5queueIP8TreeNodeSt5dequeIS1_SaIS1_EEE3popEv, .-_ZNSt5queueIP8TreeNodeSt5dequeIS1_SaIS1_EEE3popEv
	.section	.text._ZNKSt6vectorIS_IiSaIiEESaIS1_EE4sizeEv,"axG",@progbits,_ZNKSt6vectorIS_IiSaIiEESaIS1_EE4sizeEv,comdat
	.align	2
	.weak	_ZNKSt6vectorIS_IiSaIiEESaIS1_EE4sizeEv
	.type	_ZNKSt6vectorIS_IiSaIiEESaIS1_EE4sizeEv, %function
_ZNKSt6vectorIS_IiSaIiEESaIS1_EE4sizeEv:
.LFB2675:
	.cfi_startproc
	sub	sp, sp, #16
	.cfi_def_cfa_offset 16
	str	x0, [sp, 8]
	ldr	x0, [sp, 8]
	ldr	x1, [x0, 8]
	ldr	x0, [sp, 8]
	ldr	x0, [x0]
	sub	x0, x1, x0
	asr	x1, x0, 3
	mov	x0, -6148914691236517206
	movk	x0, 0xaaab, lsl 0
	mul	x0, x1, x0
	add	sp, sp, 16
	.cfi_def_cfa_offset 0
	ret
	.cfi_endproc
.LFE2675:
	.size	_ZNKSt6vectorIS_IiSaIiEESaIS1_EE4sizeEv, .-_ZNKSt6vectorIS_IiSaIiEESaIS1_EE4sizeEv
	.section	.text._ZNSt12_Vector_baseIiSaIiEE12_Vector_implC2Ev,"axG",@progbits,_ZNSt12_Vector_baseIiSaIiEE12_Vector_implC5Ev,comdat
	.align	2
	.weak	_ZNSt12_Vector_baseIiSaIiEE12_Vector_implC2Ev
	.type	_ZNSt12_Vector_baseIiSaIiEE12_Vector_implC2Ev, %function
_ZNSt12_Vector_baseIiSaIiEE12_Vector_implC2Ev:
.LFB2677:
	.cfi_startproc
	stp	x29, x30, [sp, -32]!
	.cfi_def_cfa_offset 32
	.cfi_offset 29, -32
	.cfi_offset 30, -24
	mov	x29, sp
	str	x0, [sp, 24]
	ldr	x0, [sp, 24]
	bl	_ZNSaIiEC2Ev
	ldr	x0, [sp, 24]
	bl	_ZNSt12_Vector_baseIiSaIiEE17_Vector_impl_dataC2Ev
	nop
	ldp	x29, x30, [sp], 32
	.cfi_restore 30
	.cfi_restore 29
	.cfi_def_cfa_offset 0
	ret
	.cfi_endproc
.LFE2677:
	.size	_ZNSt12_Vector_baseIiSaIiEE12_Vector_implC2Ev, .-_ZNSt12_Vector_baseIiSaIiEE12_Vector_implC2Ev
	.weak	_ZNSt12_Vector_baseIiSaIiEE12_Vector_implC1Ev
	.set	_ZNSt12_Vector_baseIiSaIiEE12_Vector_implC1Ev,_ZNSt12_Vector_baseIiSaIiEE12_Vector_implC2Ev
	.section	.text._ZNSaIiED2Ev,"axG",@progbits,_ZNSaIiED5Ev,comdat
	.align	2
	.weak	_ZNSaIiED2Ev
	.type	_ZNSaIiED2Ev, %function
_ZNSaIiED2Ev:
.LFB2680:
	.cfi_startproc
	stp	x29, x30, [sp, -32]!
	.cfi_def_cfa_offset 32
	.cfi_offset 29, -32
	.cfi_offset 30, -24
	mov	x29, sp
	str	x0, [sp, 24]
	ldr	x0, [sp, 24]
	bl	_ZN9__gnu_cxx13new_allocatorIiED2Ev
	nop
	ldp	x29, x30, [sp], 32
	.cfi_restore 30
	.cfi_restore 29
	.cfi_def_cfa_offset 0
	ret
	.cfi_endproc
.LFE2680:
	.size	_ZNSaIiED2Ev, .-_ZNSaIiED2Ev
	.weak	_ZNSaIiED1Ev
	.set	_ZNSaIiED1Ev,_ZNSaIiED2Ev
	.section	.text._ZNSt12_Vector_baseIiSaIiEED2Ev,"axG",@progbits,_ZNSt12_Vector_baseIiSaIiEED5Ev,comdat
	.align	2
	.weak	_ZNSt12_Vector_baseIiSaIiEED2Ev
	.type	_ZNSt12_Vector_baseIiSaIiEED2Ev, %function
_ZNSt12_Vector_baseIiSaIiEED2Ev:
.LFB2683:
	.cfi_startproc
	.cfi_personality 0x9b,DW.ref.__gxx_personality_v0
	.cfi_lsda 0x1b,.LLSDA2683
	stp	x29, x30, [sp, -32]!
	.cfi_def_cfa_offset 32
	.cfi_offset 29, -32
	.cfi_offset 30, -24
	mov	x29, sp
	str	x0, [sp, 24]
	ldr	x0, [sp, 24]
	ldr	x3, [x0]
	ldr	x0, [sp, 24]
	ldr	x1, [x0, 16]
	ldr	x0, [sp, 24]
	ldr	x0, [x0]
	sub	x0, x1, x0
	asr	x0, x0, 2
	mov	x2, x0
	mov	x1, x3
	ldr	x0, [sp, 24]
	bl	_ZNSt12_Vector_baseIiSaIiEE13_M_deallocateEPim
	ldr	x0, [sp, 24]
	bl	_ZNSt12_Vector_baseIiSaIiEE12_Vector_implD1Ev
	nop
	ldp	x29, x30, [sp], 32
	.cfi_restore 30
	.cfi_restore 29
	.cfi_def_cfa_offset 0
	ret
	.cfi_endproc
.LFE2683:
	.section	.gcc_except_table
.LLSDA2683:
	.byte	0xff
	.byte	0xff
	.byte	0x1
	.uleb128 .LLSDACSE2683-.LLSDACSB2683
.LLSDACSB2683:
.LLSDACSE2683:
	.section	.text._ZNSt12_Vector_baseIiSaIiEED2Ev,"axG",@progbits,_ZNSt12_Vector_baseIiSaIiEED5Ev,comdat
	.size	_ZNSt12_Vector_baseIiSaIiEED2Ev, .-_ZNSt12_Vector_baseIiSaIiEED2Ev
	.weak	_ZNSt12_Vector_baseIiSaIiEED1Ev
	.set	_ZNSt12_Vector_baseIiSaIiEED1Ev,_ZNSt12_Vector_baseIiSaIiEED2Ev
	.section	.text._ZNSt6vectorIiSaIiEED2Ev,"axG",@progbits,_ZNSt6vectorIiSaIiEED5Ev,comdat
	.align	2
	.weak	_ZNSt6vectorIiSaIiEED2Ev
	.type	_ZNSt6vectorIiSaIiEED2Ev, %function
_ZNSt6vectorIiSaIiEED2Ev:
.LFB2686:
	.cfi_startproc
	.cfi_personality 0x9b,DW.ref.__gxx_personality_v0
	.cfi_lsda 0x1b,.LLSDA2686
	stp	x29, x30, [sp, -48]!
	.cfi_def_cfa_offset 48
	.cfi_offset 29, -48
	.cfi_offset 30, -40
	mov	x29, sp
	stp	x19, x20, [sp, 16]
	.cfi_offset 19, -32
	.cfi_offset 20, -24
	str	x0, [sp, 40]
	ldr	x0, [sp, 40]
	ldr	x19, [x0]
	ldr	x0, [sp, 40]
	ldr	x20, [x0, 8]
	ldr	x0, [sp, 40]
	bl	_ZNSt12_Vector_baseIiSaIiEE19_M_get_Tp_allocatorEv
	mov	x2, x0
	mov	x1, x20
	mov	x0, x19
	bl	_ZSt8_DestroyIPiiEvT_S1_RSaIT0_E
	ldr	x0, [sp, 40]
	bl	_ZNSt12_Vector_baseIiSaIiEED2Ev
	nop
	ldp	x19, x20, [sp, 16]
	ldp	x29, x30, [sp], 48
	.cfi_restore 30
	.cfi_restore 29
	.cfi_restore 19
	.cfi_restore 20
	.cfi_def_cfa_offset 0
	ret
	.cfi_endproc
.LFE2686:
	.section	.gcc_except_table
.LLSDA2686:
	.byte	0xff
	.byte	0xff
	.byte	0x1
	.uleb128 .LLSDACSE2686-.LLSDACSB2686
.LLSDACSB2686:
.LLSDACSE2686:
	.section	.text._ZNSt6vectorIiSaIiEED2Ev,"axG",@progbits,_ZNSt6vectorIiSaIiEED5Ev,comdat
	.size	_ZNSt6vectorIiSaIiEED2Ev, .-_ZNSt6vectorIiSaIiEED2Ev
	.weak	_ZNSt6vectorIiSaIiEED1Ev
	.set	_ZNSt6vectorIiSaIiEED1Ev,_ZNSt6vectorIiSaIiEED2Ev
	.section	.text._ZNSt6vectorIS_IiSaIiEESaIS1_EE9push_backEOS1_,"axG",@progbits,_ZNSt6vectorIS_IiSaIiEESaIS1_EE9push_backEOS1_,comdat
	.align	2
	.weak	_ZNSt6vectorIS_IiSaIiEESaIS1_EE9push_backEOS1_
	.type	_ZNSt6vectorIS_IiSaIiEESaIS1_EE9push_backEOS1_, %function
_ZNSt6vectorIS_IiSaIiEESaIS1_EE9push_backEOS1_:
.LFB2688:
	.cfi_startproc
	stp	x29, x30, [sp, -32]!
	.cfi_def_cfa_offset 32
	.cfi_offset 29, -32
	.cfi_offset 30, -24
	mov	x29, sp
	str	x0, [sp, 24]
	str	x1, [sp, 16]
	ldr	x0, [sp, 16]
	bl	_ZSt4moveIRSt6vectorIiSaIiEEEONSt16remove_referenceIT_E4typeEOS5_
	mov	x1, x0
	ldr	x0, [sp, 24]
	bl	_ZNSt6vectorIS_IiSaIiEESaIS1_EE12emplace_backIJS1_EEERS1_DpOT_
	nop
	ldp	x29, x30, [sp], 32
	.cfi_restore 30
	.cfi_restore 29
	.cfi_def_cfa_offset 0
	ret
	.cfi_endproc
.LFE2688:
	.size	_ZNSt6vectorIS_IiSaIiEESaIS1_EE9push_backEOS1_, .-_ZNSt6vectorIS_IiSaIiEESaIS1_EE9push_backEOS1_
	.section	.text._ZNSt6vectorIS_IiSaIiEESaIS1_EEixEm,"axG",@progbits,_ZNSt6vectorIS_IiSaIiEESaIS1_EEixEm,comdat
	.align	2
	.weak	_ZNSt6vectorIS_IiSaIiEESaIS1_EEixEm
	.type	_ZNSt6vectorIS_IiSaIiEESaIS1_EEixEm, %function
_ZNSt6vectorIS_IiSaIiEESaIS1_EEixEm:
.LFB2689:
	.cfi_startproc
	sub	sp, sp, #16
	.cfi_def_cfa_offset 16
	str	x0, [sp, 8]
	str	x1, [sp]
	ldr	x0, [sp, 8]
	ldr	x2, [x0]
	ldr	x1, [sp]
	mov	x0, x1
	lsl	x0, x0, 1
	add	x0, x0, x1
	lsl	x0, x0, 3
	add	x0, x2, x0
	add	sp, sp, 16
	.cfi_def_cfa_offset 0
	ret
	.cfi_endproc
.LFE2689:
	.size	_ZNSt6vectorIS_IiSaIiEESaIS1_EEixEm, .-_ZNSt6vectorIS_IiSaIiEESaIS1_EEixEm
	.section	.text._ZNSt6vectorIiSaIiEE9push_backERKi,"axG",@progbits,_ZNSt6vectorIiSaIiEE9push_backERKi,comdat
	.align	2
	.weak	_ZNSt6vectorIiSaIiEE9push_backERKi
	.type	_ZNSt6vectorIiSaIiEE9push_backERKi, %function
_ZNSt6vectorIiSaIiEE9push_backERKi:
.LFB2690:
	.cfi_startproc
	stp	x29, x30, [sp, -32]!
	.cfi_def_cfa_offset 32
	.cfi_offset 29, -32
	.cfi_offset 30, -24
	mov	x29, sp
	str	x0, [sp, 24]
	str	x1, [sp, 16]
	ldr	x0, [sp, 24]
	ldr	x1, [x0, 8]
	ldr	x0, [sp, 24]
	ldr	x0, [x0, 16]
	cmp	x1, x0
	beq	.L62
	ldr	x3, [sp, 24]
	ldr	x0, [sp, 24]
	ldr	x0, [x0, 8]
	ldr	x2, [sp, 16]
	mov	x1, x0
	mov	x0, x3
	bl	_ZNSt16allocator_traitsISaIiEE9constructIiJRKiEEEvRS0_PT_DpOT0_
	ldr	x0, [sp, 24]
	ldr	x0, [x0, 8]
	add	x1, x0, 4
	ldr	x0, [sp, 24]
	str	x1, [x0, 8]
	b	.L64
.L62:
	ldr	x0, [sp, 24]
	bl	_ZNSt6vectorIiSaIiEE3endEv
	ldr	x2, [sp, 16]
	mov	x1, x0
	ldr	x0, [sp, 24]
	bl	_ZNSt6vectorIiSaIiEE17_M_realloc_insertIJRKiEEEvN9__gnu_cxx17__normal_iteratorIPiS1_EEDpOT_
.L64:
	nop
	ldp	x29, x30, [sp], 32
	.cfi_restore 30
	.cfi_restore 29
	.cfi_def_cfa_offset 0
	ret
	.cfi_endproc
.LFE2690:
	.size	_ZNSt6vectorIiSaIiEE9push_backERKi, .-_ZNSt6vectorIiSaIiEE9push_backERKi
	.section	.text._ZNSt6vectorIiSaIiEE5beginEv,"axG",@progbits,_ZNSt6vectorIiSaIiEE5beginEv,comdat
	.align	2
	.weak	_ZNSt6vectorIiSaIiEE5beginEv
	.type	_ZNSt6vectorIiSaIiEE5beginEv, %function
_ZNSt6vectorIiSaIiEE5beginEv:
.LFB2692:
	.cfi_startproc
	stp	x29, x30, [sp, -48]!
	.cfi_def_cfa_offset 48
	.cfi_offset 29, -48
	.cfi_offset 30, -40
	mov	x29, sp
	str	x0, [sp, 24]
	adrp	x0, :got:__stack_chk_guard
	ldr	x0, [x0, #:got_lo12:__stack_chk_guard]
	ldr	x1, [x0]
	str	x1, [sp, 40]
	mov	x1, 0
	ldr	x1, [sp, 24]
	add	x0, sp, 32
	bl	_ZN9__gnu_cxx17__normal_iteratorIPiSt6vectorIiSaIiEEEC1ERKS1_
	ldr	x0, [sp, 32]
	mov	x1, x0
	adrp	x0, :got:__stack_chk_guard
	ldr	x0, [x0, #:got_lo12:__stack_chk_guard]
	ldr	x3, [sp, 40]
	ldr	x2, [x0]
	subs	x3, x3, x2
	mov	x2, 0
	beq	.L67
	bl	__stack_chk_fail
.L67:
	mov	x0, x1
	ldp	x29, x30, [sp], 48
	.cfi_restore 30
	.cfi_restore 29
	.cfi_def_cfa_offset 0
	ret
	.cfi_endproc
.LFE2692:
	.size	_ZNSt6vectorIiSaIiEE5beginEv, .-_ZNSt6vectorIiSaIiEE5beginEv
	.section	.text._ZN9__gnu_cxx17__normal_iteratorIPKiSt6vectorIiSaIiEEEC2IPiEERKNS0_IT_NS_11__enable_ifIXsrSt10__are_sameIS9_S8_E7__valueES5_E6__typeEEE,"axG",@progbits,_ZN9__gnu_cxx17__normal_iteratorIPKiSt6vectorIiSaIiEEEC5IPiEERKNS0_IT_NS_11__enable_ifIXsrSt10__are_sameIS9_S8_E7__valueES5_E6__typeEEE,comdat
	.align	2
	.weak	_ZN9__gnu_cxx17__normal_iteratorIPKiSt6vectorIiSaIiEEEC2IPiEERKNS0_IT_NS_11__enable_ifIXsrSt10__are_sameIS9_S8_E7__valueES5_E6__typeEEE
	.type	_ZN9__gnu_cxx17__normal_iteratorIPKiSt6vectorIiSaIiEEEC2IPiEERKNS0_IT_NS_11__enable_ifIXsrSt10__are_sameIS9_S8_E7__valueES5_E6__typeEEE, %function
_ZN9__gnu_cxx17__normal_iteratorIPKiSt6vectorIiSaIiEEEC2IPiEERKNS0_IT_NS_11__enable_ifIXsrSt10__are_sameIS9_S8_E7__valueES5_E6__typeEEE:
.LFB2694:
	.cfi_startproc
	stp	x29, x30, [sp, -32]!
	.cfi_def_cfa_offset 32
	.cfi_offset 29, -32
	.cfi_offset 30, -24
	mov	x29, sp
	str	x0, [sp, 24]
	str	x1, [sp, 16]
	ldr	x0, [sp, 16]
	bl	_ZNK9__gnu_cxx17__normal_iteratorIPiSt6vectorIiSaIiEEE4baseEv
	ldr	x1, [x0]
	ldr	x0, [sp, 24]
	str	x1, [x0]
	nop
	ldp	x29, x30, [sp], 32
	.cfi_restore 30
	.cfi_restore 29
	.cfi_def_cfa_offset 0
	ret
	.cfi_endproc
.LFE2694:
	.size	_ZN9__gnu_cxx17__normal_iteratorIPKiSt6vectorIiSaIiEEEC2IPiEERKNS0_IT_NS_11__enable_ifIXsrSt10__are_sameIS9_S8_E7__valueES5_E6__typeEEE, .-_ZN9__gnu_cxx17__normal_iteratorIPKiSt6vectorIiSaIiEEEC2IPiEERKNS0_IT_NS_11__enable_ifIXsrSt10__are_sameIS9_S8_E7__valueES5_E6__typeEEE
	.weak	_ZN9__gnu_cxx17__normal_iteratorIPKiSt6vectorIiSaIiEEEC1IPiEERKNS0_IT_NS_11__enable_ifIXsrSt10__are_sameIS9_S8_E7__valueES5_E6__typeEEE
	.set	_ZN9__gnu_cxx17__normal_iteratorIPKiSt6vectorIiSaIiEEEC1IPiEERKNS0_IT_NS_11__enable_ifIXsrSt10__are_sameIS9_S8_E7__valueES5_E6__typeEEE,_ZN9__gnu_cxx17__normal_iteratorIPKiSt6vectorIiSaIiEEEC2IPiEERKNS0_IT_NS_11__enable_ifIXsrSt10__are_sameIS9_S8_E7__valueES5_E6__typeEEE
	.section	.text._ZNSt6vectorIiSaIiEE6insertEN9__gnu_cxx17__normal_iteratorIPKiS1_EERS4_,"axG",@progbits,_ZNSt6vectorIiSaIiEE6insertEN9__gnu_cxx17__normal_iteratorIPKiS1_EERS4_,comdat
	.align	2
	.weak	_ZNSt6vectorIiSaIiEE6insertEN9__gnu_cxx17__normal_iteratorIPKiS1_EERS4_
	.type	_ZNSt6vectorIiSaIiEE6insertEN9__gnu_cxx17__normal_iteratorIPKiS1_EERS4_, %function
_ZNSt6vectorIiSaIiEE6insertEN9__gnu_cxx17__normal_iteratorIPKiS1_EERS4_:
.LFB2696:
	.cfi_startproc
	.cfi_personality 0x9b,DW.ref.__gxx_personality_v0
	.cfi_lsda 0x1b,.LLSDA2696
	stp	x29, x30, [sp, -128]!
	.cfi_def_cfa_offset 128
	.cfi_offset 29, -128
	.cfi_offset 30, -120
	mov	x29, sp
	str	x19, [sp, 16]
	.cfi_offset 19, -112
	str	x0, [sp, 56]
	str	x1, [sp, 48]
	str	x2, [sp, 40]
	adrp	x0, :got:__stack_chk_guard
	ldr	x0, [x0, #:got_lo12:__stack_chk_guard]
	ldr	x1, [x0]
	str	x1, [sp, 120]
	mov	x1, 0
	ldr	x0, [sp, 56]
	bl	_ZNSt6vectorIiSaIiEE5beginEv
	str	x0, [sp, 88]
	add	x1, sp, 88
	add	x0, sp, 48
	bl	_ZN9__gnu_cxxmiIPKiPiSt6vectorIiSaIiEEEEDTmicldtfp_4baseEcldtfp0_4baseEERKNS_17__normal_iteratorIT_T1_EERKNS8_IT0_SA_EE
	str	x0, [sp, 96]
	ldr	x0, [sp, 56]
	ldr	x1, [x0, 8]
	ldr	x0, [sp, 56]
	ldr	x0, [x0, 16]
	cmp	x1, x0
	beq	.L70
	ldr	x0, [sp, 56]
	bl	_ZNSt6vectorIiSaIiEE3endEv
	str	x0, [sp, 88]
	add	x1, sp, 88
	add	x0, sp, 48
	bl	_ZN9__gnu_cxxeqIPKiPiSt6vectorIiSaIiEEEEbRKNS_17__normal_iteratorIT_T1_EERKNS7_IT0_S9_EE
	and	w0, w0, 255
	cmp	w0, 0
	beq	.L71
	ldr	x3, [sp, 56]
	ldr	x0, [sp, 56]
	ldr	x0, [x0, 8]
	ldr	x2, [sp, 40]
	mov	x1, x0
	mov	x0, x3
	bl	_ZNSt16allocator_traitsISaIiEE9constructIiJRKiEEEvRS0_PT_DpOT0_
	ldr	x0, [sp, 56]
	ldr	x0, [x0, 8]
	add	x1, x0, 4
	ldr	x0, [sp, 56]
	str	x1, [x0, 8]
	b	.L72
.L71:
	ldr	x0, [sp, 56]
	bl	_ZNSt6vectorIiSaIiEE5beginEv
	str	x0, [sp, 80]
	ldr	x0, [sp, 56]
	bl	_ZNKSt6vectorIiSaIiEE6cbeginEv
	str	x0, [sp, 88]
	add	x1, sp, 88
	add	x0, sp, 48
	bl	_ZN9__gnu_cxxmiIPKiSt6vectorIiSaIiEEEENS_17__normal_iteratorIT_T0_E15difference_typeERKS9_SC_
	mov	x1, x0
	add	x0, sp, 80
	bl	_ZNK9__gnu_cxx17__normal_iteratorIPiSt6vectorIiSaIiEEEplEl
	str	x0, [sp, 72]
	add	x0, sp, 104
	ldr	x2, [sp, 40]
	ldr	x1, [sp, 56]
.LEHB8:
	bl	_ZNSt6vectorIiSaIiEE16_Temporary_valueC1IJRKiEEEPS1_DpOT_
.LEHE8:
	add	x0, sp, 104
.LEHB9:
	bl	_ZNSt6vectorIiSaIiEE16_Temporary_value6_M_valEv
	bl	_ZSt4moveIRiEONSt16remove_referenceIT_E4typeEOS2_
	mov	x2, x0
	ldr	x1, [sp, 72]
	ldr	x0, [sp, 56]
	bl	_ZNSt6vectorIiSaIiEE13_M_insert_auxIiEEvN9__gnu_cxx17__normal_iteratorIPiS1_EEOT_
.LEHE9:
	add	x0, sp, 104
	bl	_ZNSt6vectorIiSaIiEE16_Temporary_valueD1Ev
	b	.L72
.L70:
	ldr	x0, [sp, 56]
	bl	_ZNSt6vectorIiSaIiEE5beginEv
	str	x0, [sp, 80]
	ldr	x0, [sp, 56]
	bl	_ZNKSt6vectorIiSaIiEE6cbeginEv
	str	x0, [sp, 88]
	add	x1, sp, 88
	add	x0, sp, 48
	bl	_ZN9__gnu_cxxmiIPKiSt6vectorIiSaIiEEEENS_17__normal_iteratorIT_T0_E15difference_typeERKS9_SC_
	mov	x1, x0
	add	x0, sp, 80
	bl	_ZNK9__gnu_cxx17__normal_iteratorIPiSt6vectorIiSaIiEEEplEl
	ldr	x2, [sp, 40]
	mov	x1, x0
	ldr	x0, [sp, 56]
.LEHB10:
	bl	_ZNSt6vectorIiSaIiEE17_M_realloc_insertIJRKiEEEvN9__gnu_cxx17__normal_iteratorIPiS1_EEDpOT_
.L72:
	ldr	x0, [sp, 56]
	ldr	x1, [x0]
	ldr	x0, [sp, 96]
	lsl	x0, x0, 2
	add	x0, x1, x0
	str	x0, [sp, 80]
	add	x1, sp, 80
	add	x0, sp, 88
	bl	_ZN9__gnu_cxx17__normal_iteratorIPiSt6vectorIiSaIiEEEC1ERKS1_
	ldr	x0, [sp, 88]
	mov	x1, x0
	adrp	x0, :got:__stack_chk_guard
	ldr	x0, [x0, #:got_lo12:__stack_chk_guard]
	ldr	x3, [sp, 120]
	ldr	x2, [x0]
	subs	x3, x3, x2
	mov	x2, 0
	beq	.L75
	b	.L77
.L76:
	mov	x19, x0
	add	x0, sp, 104
	bl	_ZNSt6vectorIiSaIiEE16_Temporary_valueD1Ev
	mov	x0, x19
	bl	_Unwind_Resume
.LEHE10:
.L77:
	bl	__stack_chk_fail
.L75:
	mov	x0, x1
	ldr	x19, [sp, 16]
	ldp	x29, x30, [sp], 128
	.cfi_restore 30
	.cfi_restore 29
	.cfi_restore 19
	.cfi_def_cfa_offset 0
	ret
	.cfi_endproc
.LFE2696:
	.section	.gcc_except_table
.LLSDA2696:
	.byte	0xff
	.byte	0xff
	.byte	0x1
	.uleb128 .LLSDACSE2696-.LLSDACSB2696
.LLSDACSB2696:
	.uleb128 .LEHB8-.LFB2696
	.uleb128 .LEHE8-.LEHB8
	.uleb128 0
	.uleb128 0
	.uleb128 .LEHB9-.LFB2696
	.uleb128 .LEHE9-.LEHB9
	.uleb128 .L76-.LFB2696
	.uleb128 0
	.uleb128 .LEHB10-.LFB2696
	.uleb128 .LEHE10-.LEHB10
	.uleb128 0
	.uleb128 0
.LLSDACSE2696:
	.section	.text._ZNSt6vectorIiSaIiEE6insertEN9__gnu_cxx17__normal_iteratorIPKiS1_EERS4_,"axG",@progbits,_ZNSt6vectorIiSaIiEE6insertEN9__gnu_cxx17__normal_iteratorIPKiS1_EERS4_,comdat
	.size	_ZNSt6vectorIiSaIiEE6insertEN9__gnu_cxx17__normal_iteratorIPKiS1_EERS4_, .-_ZNSt6vectorIiSaIiEE6insertEN9__gnu_cxx17__normal_iteratorIPKiS1_EERS4_
	.section	.rodata
	.align	3
.LC0:
	.string	" "
	.section	.text._Z5printISt6vectorIS0_IiSaIiEESaIS2_EEEvRKT_,"axG",@progbits,_Z5printISt6vectorIS0_IiSaIiEESaIS2_EEEvRKT_,comdat
	.align	2
	.weak	_Z5printISt6vectorIS0_IiSaIiEESaIS2_EEEvRKT_
	.type	_Z5printISt6vectorIS0_IiSaIiEESaIS2_EEEvRKT_, %function
_Z5printISt6vectorIS0_IiSaIiEESaIS2_EEEvRKT_:
.LFB2700:
	.cfi_startproc
	stp	x29, x30, [sp, -112]!
	.cfi_def_cfa_offset 112
	.cfi_offset 29, -112
	.cfi_offset 30, -104
	mov	x29, sp
	str	x0, [sp, 24]
	adrp	x0, :got:__stack_chk_guard
	ldr	x0, [x0, #:got_lo12:__stack_chk_guard]
	ldr	x1, [x0]
	str	x1, [sp, 104]
	mov	x1, 0
	ldr	x0, [sp, 24]
	str	x0, [sp, 72]
	ldr	x0, [sp, 72]
	bl	_ZNKSt6vectorIS_IiSaIiEESaIS1_EE5beginEv
	str	x0, [sp, 40]
	ldr	x0, [sp, 72]
	bl	_ZNKSt6vectorIS_IiSaIiEESaIS1_EE3endEv
	str	x0, [sp, 48]
	b	.L79
.L82:
	add	x0, sp, 40
	bl	_ZNK9__gnu_cxx17__normal_iteratorIPKSt6vectorIiSaIiEES1_IS3_SaIS3_EEEdeEv
	str	x0, [sp, 80]
	ldr	x0, [sp, 80]
	str	x0, [sp, 88]
	ldr	x0, [sp, 88]
	bl	_ZNKSt6vectorIiSaIiEE5beginEv
	str	x0, [sp, 56]
	ldr	x0, [sp, 88]
	bl	_ZNKSt6vectorIiSaIiEE3endEv
	str	x0, [sp, 64]
	b	.L80
.L81:
	add	x0, sp, 56
	bl	_ZNK9__gnu_cxx17__normal_iteratorIPKiSt6vectorIiSaIiEEEdeEv
	str	x0, [sp, 96]
	adrp	x0, .LC0
	add	x1, x0, :lo12:.LC0
	adrp	x0, :got:_ZSt4cout
	ldr	x0, [x0, #:got_lo12:_ZSt4cout]
	bl	_ZStlsISt11char_traitsIcEERSt13basic_ostreamIcT_ES5_PKc
	mov	x2, x0
	ldr	x0, [sp, 96]
	ldr	w0, [x0]
	mov	w1, w0
	mov	x0, x2
	bl	_ZNSolsEi
	add	x0, sp, 56
	bl	_ZN9__gnu_cxx17__normal_iteratorIPKiSt6vectorIiSaIiEEEppEv
.L80:
	add	x1, sp, 64
	add	x0, sp, 56
	bl	_ZN9__gnu_cxxneIPKiSt6vectorIiSaIiEEEEbRKNS_17__normal_iteratorIT_T0_EESB_
	and	w0, w0, 255
	cmp	w0, 0
	bne	.L81
	adrp	x0, :got:_ZSt4endlIcSt11char_traitsIcEERSt13basic_ostreamIT_T0_ES6_
	ldr	x1, [x0, #:got_lo12:_ZSt4endlIcSt11char_traitsIcEERSt13basic_ostreamIT_T0_ES6_]
	adrp	x0, :got:_ZSt4cout
	ldr	x0, [x0, #:got_lo12:_ZSt4cout]
	bl	_ZNSolsEPFRSoS_E
	add	x0, sp, 40
	bl	_ZN9__gnu_cxx17__normal_iteratorIPKSt6vectorIiSaIiEES1_IS3_SaIS3_EEEppEv
.L79:
	add	x1, sp, 48
	add	x0, sp, 40
	bl	_ZN9__gnu_cxxneIPKSt6vectorIiSaIiEES1_IS3_SaIS3_EEEEbRKNS_17__normal_iteratorIT_T0_EESD_
	and	w0, w0, 255
	cmp	w0, 0
	bne	.L82
	nop
	adrp	x0, :got:__stack_chk_guard
	ldr	x0, [x0, #:got_lo12:__stack_chk_guard]
	ldr	x2, [sp, 104]
	ldr	x1, [x0]
	subs	x2, x2, x1
	mov	x1, 0
	beq	.L83
	bl	__stack_chk_fail
.L83:
	ldp	x29, x30, [sp], 112
	.cfi_restore 30
	.cfi_restore 29
	.cfi_def_cfa_offset 0
	ret
	.cfi_endproc
.LFE2700:
	.size	_Z5printISt6vectorIS0_IiSaIiEESaIS2_EEEvRKT_, .-_Z5printISt6vectorIS0_IiSaIiEESaIS2_EEEvRKT_
	.section	.text._ZNSt11_Deque_baseIP8TreeNodeSaIS1_EE11_Deque_implD2Ev,"axG",@progbits,_ZNSt11_Deque_baseIP8TreeNodeSaIS1_EE11_Deque_implD5Ev,comdat
	.align	2
	.weak	_ZNSt11_Deque_baseIP8TreeNodeSaIS1_EE11_Deque_implD2Ev
	.type	_ZNSt11_Deque_baseIP8TreeNodeSaIS1_EE11_Deque_implD2Ev, %function
_ZNSt11_Deque_baseIP8TreeNodeSaIS1_EE11_Deque_implD2Ev:
.LFB2781:
	.cfi_startproc
	stp	x29, x30, [sp, -32]!
	.cfi_def_cfa_offset 32
	.cfi_offset 29, -32
	.cfi_offset 30, -24
	mov	x29, sp
	str	x0, [sp, 24]
	ldr	x0, [sp, 24]
	bl	_ZNSaIP8TreeNodeED2Ev
	nop
	ldp	x29, x30, [sp], 32
	.cfi_restore 30
	.cfi_restore 29
	.cfi_def_cfa_offset 0
	ret
	.cfi_endproc
.LFE2781:
	.size	_ZNSt11_Deque_baseIP8TreeNodeSaIS1_EE11_Deque_implD2Ev, .-_ZNSt11_Deque_baseIP8TreeNodeSaIS1_EE11_Deque_implD2Ev
	.weak	_ZNSt11_Deque_baseIP8TreeNodeSaIS1_EE11_Deque_implD1Ev
	.set	_ZNSt11_Deque_baseIP8TreeNodeSaIS1_EE11_Deque_implD1Ev,_ZNSt11_Deque_baseIP8TreeNodeSaIS1_EE11_Deque_implD2Ev
	.section	.text._ZNSt11_Deque_baseIP8TreeNodeSaIS1_EEC2Ev,"axG",@progbits,_ZNSt11_Deque_baseIP8TreeNodeSaIS1_EEC5Ev,comdat
	.align	2
	.weak	_ZNSt11_Deque_baseIP8TreeNodeSaIS1_EEC2Ev
	.type	_ZNSt11_Deque_baseIP8TreeNodeSaIS1_EEC2Ev, %function
_ZNSt11_Deque_baseIP8TreeNodeSaIS1_EEC2Ev:
.LFB2783:
	.cfi_startproc
	.cfi_personality 0x9b,DW.ref.__gxx_personality_v0
	.cfi_lsda 0x1b,.LLSDA2783
	stp	x29, x30, [sp, -48]!
	.cfi_def_cfa_offset 48
	.cfi_offset 29, -48
	.cfi_offset 30, -40
	mov	x29, sp
	str	x19, [sp, 16]
	.cfi_offset 19, -32
	str	x0, [sp, 40]
	ldr	x0, [sp, 40]
	bl	_ZNSt11_Deque_baseIP8TreeNodeSaIS1_EE11_Deque_implC1Ev
	mov	x1, 0
	ldr	x0, [sp, 40]
.LEHB11:
	bl	_ZNSt11_Deque_baseIP8TreeNodeSaIS1_EE17_M_initialize_mapEm
.LEHE11:
	b	.L88
.L87:
	mov	x19, x0
	ldr	x0, [sp, 40]
	bl	_ZNSt11_Deque_baseIP8TreeNodeSaIS1_EE11_Deque_implD1Ev
	mov	x0, x19
.LEHB12:
	bl	_Unwind_Resume
.LEHE12:
.L88:
	ldr	x19, [sp, 16]
	ldp	x29, x30, [sp], 48
	.cfi_restore 30
	.cfi_restore 29
	.cfi_restore 19
	.cfi_def_cfa_offset 0
	ret
	.cfi_endproc
.LFE2783:
	.section	.gcc_except_table
.LLSDA2783:
	.byte	0xff
	.byte	0xff
	.byte	0x1
	.uleb128 .LLSDACSE2783-.LLSDACSB2783
.LLSDACSB2783:
	.uleb128 .LEHB11-.LFB2783
	.uleb128 .LEHE11-.LEHB11
	.uleb128 .L87-.LFB2783
	.uleb128 0
	.uleb128 .LEHB12-.LFB2783
	.uleb128 .LEHE12-.LEHB12
	.uleb128 0
	.uleb128 0
.LLSDACSE2783:
	.section	.text._ZNSt11_Deque_baseIP8TreeNodeSaIS1_EEC2Ev,"axG",@progbits,_ZNSt11_Deque_baseIP8TreeNodeSaIS1_EEC5Ev,comdat
	.size	_ZNSt11_Deque_baseIP8TreeNodeSaIS1_EEC2Ev, .-_ZNSt11_Deque_baseIP8TreeNodeSaIS1_EEC2Ev
	.weak	_ZNSt11_Deque_baseIP8TreeNodeSaIS1_EEC1Ev
	.set	_ZNSt11_Deque_baseIP8TreeNodeSaIS1_EEC1Ev,_ZNSt11_Deque_baseIP8TreeNodeSaIS1_EEC2Ev
	.section	.text._ZNSt11_Deque_baseIP8TreeNodeSaIS1_EED2Ev,"axG",@progbits,_ZNSt11_Deque_baseIP8TreeNodeSaIS1_EED5Ev,comdat
	.align	2
	.weak	_ZNSt11_Deque_baseIP8TreeNodeSaIS1_EED2Ev
	.type	_ZNSt11_Deque_baseIP8TreeNodeSaIS1_EED2Ev, %function
_ZNSt11_Deque_baseIP8TreeNodeSaIS1_EED2Ev:
.LFB2786:
	.cfi_startproc
	stp	x29, x30, [sp, -32]!
	.cfi_def_cfa_offset 32
	.cfi_offset 29, -32
	.cfi_offset 30, -24
	mov	x29, sp
	str	x0, [sp, 24]
	ldr	x0, [sp, 24]
	ldr	x0, [x0]
	cmp	x0, 0
	beq	.L90
	ldr	x0, [sp, 24]
	ldr	x1, [x0, 40]
	ldr	x0, [sp, 24]
	ldr	x0, [x0, 72]
	add	x0, x0, 8
	mov	x2, x0
	ldr	x0, [sp, 24]
	bl	_ZNSt11_Deque_baseIP8TreeNodeSaIS1_EE16_M_destroy_nodesEPPS1_S5_
	ldr	x0, [sp, 24]
	ldr	x1, [x0]
	ldr	x0, [sp, 24]
	ldr	x0, [x0, 8]
	mov	x2, x0
	ldr	x0, [sp, 24]
	bl	_ZNSt11_Deque_baseIP8TreeNodeSaIS1_EE17_M_deallocate_mapEPPS1_m
.L90:
	ldr	x0, [sp, 24]
	bl	_ZNSt11_Deque_baseIP8TreeNodeSaIS1_EE11_Deque_implD1Ev
	nop
	ldp	x29, x30, [sp], 32
	.cfi_restore 30
	.cfi_restore 29
	.cfi_def_cfa_offset 0
	ret
	.cfi_endproc
.LFE2786:
	.size	_ZNSt11_Deque_baseIP8TreeNodeSaIS1_EED2Ev, .-_ZNSt11_Deque_baseIP8TreeNodeSaIS1_EED2Ev
	.weak	_ZNSt11_Deque_baseIP8TreeNodeSaIS1_EED1Ev
	.set	_ZNSt11_Deque_baseIP8TreeNodeSaIS1_EED1Ev,_ZNSt11_Deque_baseIP8TreeNodeSaIS1_EED2Ev
	.section	.text._ZNSt5dequeIP8TreeNodeSaIS1_EE5beginEv,"axG",@progbits,_ZNSt5dequeIP8TreeNodeSaIS1_EE5beginEv,comdat
	.align	2
	.weak	_ZNSt5dequeIP8TreeNodeSaIS1_EE5beginEv
	.type	_ZNSt5dequeIP8TreeNodeSaIS1_EE5beginEv, %function
_ZNSt5dequeIP8TreeNodeSaIS1_EE5beginEv:
.LFB2788:
	.cfi_startproc
	stp	x29, x30, [sp, -48]!
	.cfi_def_cfa_offset 48
	.cfi_offset 29, -48
	.cfi_offset 30, -40
	mov	x29, sp
	str	x19, [sp, 16]
	.cfi_offset 19, -32
	mov	x19, x8
	str	x0, [sp, 40]
	ldr	x0, [sp, 40]
	add	x0, x0, 16
	mov	x1, x0
	mov	x0, x19
	bl	_ZNSt15_Deque_iteratorIP8TreeNodeRS1_PS1_EC1ERKS4_
	mov	x0, x19
	ldr	x19, [sp, 16]
	ldp	x29, x30, [sp], 48
	.cfi_restore 30
	.cfi_restore 29
	.cfi_restore 19
	.cfi_def_cfa_offset 0
	ret
	.cfi_endproc
.LFE2788:
	.size	_ZNSt5dequeIP8TreeNodeSaIS1_EE5beginEv, .-_ZNSt5dequeIP8TreeNodeSaIS1_EE5beginEv
	.section	.text._ZNSt5dequeIP8TreeNodeSaIS1_EE3endEv,"axG",@progbits,_ZNSt5dequeIP8TreeNodeSaIS1_EE3endEv,comdat
	.align	2
	.weak	_ZNSt5dequeIP8TreeNodeSaIS1_EE3endEv
	.type	_ZNSt5dequeIP8TreeNodeSaIS1_EE3endEv, %function
_ZNSt5dequeIP8TreeNodeSaIS1_EE3endEv:
.LFB2789:
	.cfi_startproc
	stp	x29, x30, [sp, -48]!
	.cfi_def_cfa_offset 48
	.cfi_offset 29, -48
	.cfi_offset 30, -40
	mov	x29, sp
	str	x19, [sp, 16]
	.cfi_offset 19, -32
	mov	x19, x8
	str	x0, [sp, 40]
	ldr	x0, [sp, 40]
	add	x0, x0, 48
	mov	x1, x0
	mov	x0, x19
	bl	_ZNSt15_Deque_iteratorIP8TreeNodeRS1_PS1_EC1ERKS4_
	mov	x0, x19
	ldr	x19, [sp, 16]
	ldp	x29, x30, [sp], 48
	.cfi_restore 30
	.cfi_restore 29
	.cfi_restore 19
	.cfi_def_cfa_offset 0
	ret
	.cfi_endproc
.LFE2789:
	.size	_ZNSt5dequeIP8TreeNodeSaIS1_EE3endEv, .-_ZNSt5dequeIP8TreeNodeSaIS1_EE3endEv
	.section	.text._ZNSt11_Deque_baseIP8TreeNodeSaIS1_EE19_M_get_Tp_allocatorEv,"axG",@progbits,_ZNSt11_Deque_baseIP8TreeNodeSaIS1_EE19_M_get_Tp_allocatorEv,comdat
	.align	2
	.weak	_ZNSt11_Deque_baseIP8TreeNodeSaIS1_EE19_M_get_Tp_allocatorEv
	.type	_ZNSt11_Deque_baseIP8TreeNodeSaIS1_EE19_M_get_Tp_allocatorEv, %function
_ZNSt11_Deque_baseIP8TreeNodeSaIS1_EE19_M_get_Tp_allocatorEv:
.LFB2790:
	.cfi_startproc
	sub	sp, sp, #16
	.cfi_def_cfa_offset 16
	str	x0, [sp, 8]
	ldr	x0, [sp, 8]
	add	sp, sp, 16
	.cfi_def_cfa_offset 0
	ret
	.cfi_endproc
.LFE2790:
	.size	_ZNSt11_Deque_baseIP8TreeNodeSaIS1_EE19_M_get_Tp_allocatorEv, .-_ZNSt11_Deque_baseIP8TreeNodeSaIS1_EE19_M_get_Tp_allocatorEv
	.section	.text._ZNSt5dequeIP8TreeNodeSaIS1_EE15_M_destroy_dataESt15_Deque_iteratorIS1_RS1_PS1_ES7_RKS2_,"axG",@progbits,_ZNSt5dequeIP8TreeNodeSaIS1_EE15_M_destroy_dataESt15_Deque_iteratorIS1_RS1_PS1_ES7_RKS2_,comdat
	.align	2
	.weak	_ZNSt5dequeIP8TreeNodeSaIS1_EE15_M_destroy_dataESt15_Deque_iteratorIS1_RS1_PS1_ES7_RKS2_
	.type	_ZNSt5dequeIP8TreeNodeSaIS1_EE15_M_destroy_dataESt15_Deque_iteratorIS1_RS1_PS1_ES7_RKS2_, %function
_ZNSt5dequeIP8TreeNodeSaIS1_EE15_M_destroy_dataESt15_Deque_iteratorIS1_RS1_PS1_ES7_RKS2_:
.LFB2791:
	.cfi_startproc
	stp	x29, x30, [sp, -96]!
	.cfi_def_cfa_offset 96
	.cfi_offset 29, -96
	.cfi_offset 30, -88
	mov	x29, sp
	str	x0, [sp, 40]
	str	x1, [sp, 32]
	str	x2, [sp, 24]
	str	x3, [sp, 16]
	adrp	x0, :got:__stack_chk_guard
	ldr	x0, [x0, #:got_lo12:__stack_chk_guard]
	ldr	x1, [x0]
	str	x1, [sp, 88]
	mov	x1, 0
	nop
	adrp	x0, :got:__stack_chk_guard
	ldr	x0, [x0, #:got_lo12:__stack_chk_guard]
	ldr	x2, [sp, 88]
	ldr	x1, [x0]
	subs	x2, x2, x1
	mov	x1, 0
	beq	.L98
	bl	__stack_chk_fail
.L98:
	ldp	x29, x30, [sp], 96
	.cfi_restore 30
	.cfi_restore 29
	.cfi_def_cfa_offset 0
	ret
	.cfi_endproc
.LFE2791:
	.size	_ZNSt5dequeIP8TreeNodeSaIS1_EE15_M_destroy_dataESt15_Deque_iteratorIS1_RS1_PS1_ES7_RKS2_, .-_ZNSt5dequeIP8TreeNodeSaIS1_EE15_M_destroy_dataESt15_Deque_iteratorIS1_RS1_PS1_ES7_RKS2_
	.section	.text._ZNSaISt6vectorIiSaIiEEEC2Ev,"axG",@progbits,_ZNSaISt6vectorIiSaIiEEEC5Ev,comdat
	.align	2
	.weak	_ZNSaISt6vectorIiSaIiEEEC2Ev
	.type	_ZNSaISt6vectorIiSaIiEEEC2Ev, %function
_ZNSaISt6vectorIiSaIiEEEC2Ev:
.LFB2793:
	.cfi_startproc
	stp	x29, x30, [sp, -32]!
	.cfi_def_cfa_offset 32
	.cfi_offset 29, -32
	.cfi_offset 30, -24
	mov	x29, sp
	str	x0, [sp, 24]
	ldr	x0, [sp, 24]
	bl	_ZN9__gnu_cxx13new_allocatorISt6vectorIiSaIiEEEC2Ev
	nop
	ldp	x29, x30, [sp], 32
	.cfi_restore 30
	.cfi_restore 29
	.cfi_def_cfa_offset 0
	ret
	.cfi_endproc
.LFE2793:
	.size	_ZNSaISt6vectorIiSaIiEEEC2Ev, .-_ZNSaISt6vectorIiSaIiEEEC2Ev
	.weak	_ZNSaISt6vectorIiSaIiEEEC1Ev
	.set	_ZNSaISt6vectorIiSaIiEEEC1Ev,_ZNSaISt6vectorIiSaIiEEEC2Ev
	.section	.text._ZNSt12_Vector_baseISt6vectorIiSaIiEESaIS2_EE17_Vector_impl_dataC2Ev,"axG",@progbits,_ZNSt12_Vector_baseISt6vectorIiSaIiEESaIS2_EE17_Vector_impl_dataC5Ev,comdat
	.align	2
	.weak	_ZNSt12_Vector_baseISt6vectorIiSaIiEESaIS2_EE17_Vector_impl_dataC2Ev
	.type	_ZNSt12_Vector_baseISt6vectorIiSaIiEESaIS2_EE17_Vector_impl_dataC2Ev, %function
_ZNSt12_Vector_baseISt6vectorIiSaIiEESaIS2_EE17_Vector_impl_dataC2Ev:
.LFB2796:
	.cfi_startproc
	sub	sp, sp, #16
	.cfi_def_cfa_offset 16
	str	x0, [sp, 8]
	ldr	x0, [sp, 8]
	str	xzr, [x0]
	ldr	x0, [sp, 8]
	str	xzr, [x0, 8]
	ldr	x0, [sp, 8]
	str	xzr, [x0, 16]
	nop
	add	sp, sp, 16
	.cfi_def_cfa_offset 0
	ret
	.cfi_endproc
.LFE2796:
	.size	_ZNSt12_Vector_baseISt6vectorIiSaIiEESaIS2_EE17_Vector_impl_dataC2Ev, .-_ZNSt12_Vector_baseISt6vectorIiSaIiEESaIS2_EE17_Vector_impl_dataC2Ev
	.weak	_ZNSt12_Vector_baseISt6vectorIiSaIiEESaIS2_EE17_Vector_impl_dataC1Ev
	.set	_ZNSt12_Vector_baseISt6vectorIiSaIiEESaIS2_EE17_Vector_impl_dataC1Ev,_ZNSt12_Vector_baseISt6vectorIiSaIiEESaIS2_EE17_Vector_impl_dataC2Ev
	.section	.text._ZN9__gnu_cxx13new_allocatorISt6vectorIiSaIiEEED2Ev,"axG",@progbits,_ZN9__gnu_cxx13new_allocatorISt6vectorIiSaIiEEED5Ev,comdat
	.align	2
	.weak	_ZN9__gnu_cxx13new_allocatorISt6vectorIiSaIiEEED2Ev
	.type	_ZN9__gnu_cxx13new_allocatorISt6vectorIiSaIiEEED2Ev, %function
_ZN9__gnu_cxx13new_allocatorISt6vectorIiSaIiEEED2Ev:
.LFB2799:
	.cfi_startproc
	sub	sp, sp, #16
	.cfi_def_cfa_offset 16
	str	x0, [sp, 8]
	nop
	add	sp, sp, 16
	.cfi_def_cfa_offset 0
	ret
	.cfi_endproc
.LFE2799:
	.size	_ZN9__gnu_cxx13new_allocatorISt6vectorIiSaIiEEED2Ev, .-_ZN9__gnu_cxx13new_allocatorISt6vectorIiSaIiEEED2Ev
	.weak	_ZN9__gnu_cxx13new_allocatorISt6vectorIiSaIiEEED1Ev
	.set	_ZN9__gnu_cxx13new_allocatorISt6vectorIiSaIiEEED1Ev,_ZN9__gnu_cxx13new_allocatorISt6vectorIiSaIiEEED2Ev
	.section	.text._ZNSt12_Vector_baseISt6vectorIiSaIiEESaIS2_EE13_M_deallocateEPS2_m,"axG",@progbits,_ZNSt12_Vector_baseISt6vectorIiSaIiEESaIS2_EE13_M_deallocateEPS2_m,comdat
	.align	2
	.weak	_ZNSt12_Vector_baseISt6vectorIiSaIiEESaIS2_EE13_M_deallocateEPS2_m
	.type	_ZNSt12_Vector_baseISt6vectorIiSaIiEESaIS2_EE13_M_deallocateEPS2_m, %function
_ZNSt12_Vector_baseISt6vectorIiSaIiEESaIS2_EE13_M_deallocateEPS2_m:
.LFB2801:
	.cfi_startproc
	stp	x29, x30, [sp, -48]!
	.cfi_def_cfa_offset 48
	.cfi_offset 29, -48
	.cfi_offset 30, -40
	mov	x29, sp
	str	x0, [sp, 40]
	str	x1, [sp, 32]
	str	x2, [sp, 24]
	ldr	x0, [sp, 32]
	cmp	x0, 0
	beq	.L104
	ldr	x0, [sp, 40]
	ldr	x2, [sp, 24]
	ldr	x1, [sp, 32]
	bl	_ZNSt16allocator_traitsISaISt6vectorIiSaIiEEEE10deallocateERS3_PS2_m
.L104:
	nop
	ldp	x29, x30, [sp], 48
	.cfi_restore 30
	.cfi_restore 29
	.cfi_def_cfa_offset 0
	ret
	.cfi_endproc
.LFE2801:
	.size	_ZNSt12_Vector_baseISt6vectorIiSaIiEESaIS2_EE13_M_deallocateEPS2_m, .-_ZNSt12_Vector_baseISt6vectorIiSaIiEESaIS2_EE13_M_deallocateEPS2_m
	.section	.text._ZNSt12_Vector_baseISt6vectorIiSaIiEESaIS2_EE19_M_get_Tp_allocatorEv,"axG",@progbits,_ZNSt12_Vector_baseISt6vectorIiSaIiEESaIS2_EE19_M_get_Tp_allocatorEv,comdat
	.align	2
	.weak	_ZNSt12_Vector_baseISt6vectorIiSaIiEESaIS2_EE19_M_get_Tp_allocatorEv
	.type	_ZNSt12_Vector_baseISt6vectorIiSaIiEESaIS2_EE19_M_get_Tp_allocatorEv, %function
_ZNSt12_Vector_baseISt6vectorIiSaIiEESaIS2_EE19_M_get_Tp_allocatorEv:
.LFB2802:
	.cfi_startproc
	sub	sp, sp, #16
	.cfi_def_cfa_offset 16
	str	x0, [sp, 8]
	ldr	x0, [sp, 8]
	add	sp, sp, 16
	.cfi_def_cfa_offset 0
	ret
	.cfi_endproc
.LFE2802:
	.size	_ZNSt12_Vector_baseISt6vectorIiSaIiEESaIS2_EE19_M_get_Tp_allocatorEv, .-_ZNSt12_Vector_baseISt6vectorIiSaIiEESaIS2_EE19_M_get_Tp_allocatorEv
	.section	.text._ZSt8_DestroyIPSt6vectorIiSaIiEES2_EvT_S4_RSaIT0_E,"axG",@progbits,_ZSt8_DestroyIPSt6vectorIiSaIiEES2_EvT_S4_RSaIT0_E,comdat
	.align	2
	.weak	_ZSt8_DestroyIPSt6vectorIiSaIiEES2_EvT_S4_RSaIT0_E
	.type	_ZSt8_DestroyIPSt6vectorIiSaIiEES2_EvT_S4_RSaIT0_E, %function
_ZSt8_DestroyIPSt6vectorIiSaIiEES2_EvT_S4_RSaIT0_E:
.LFB2803:
	.cfi_startproc
	stp	x29, x30, [sp, -48]!
	.cfi_def_cfa_offset 48
	.cfi_offset 29, -48
	.cfi_offset 30, -40
	mov	x29, sp
	str	x0, [sp, 40]
	str	x1, [sp, 32]
	str	x2, [sp, 24]
	ldr	x1, [sp, 32]
	ldr	x0, [sp, 40]
	bl	_ZSt8_DestroyIPSt6vectorIiSaIiEEEvT_S4_
	nop
	ldp	x29, x30, [sp], 48
	.cfi_restore 30
	.cfi_restore 29
	.cfi_def_cfa_offset 0
	ret
	.cfi_endproc
.LFE2803:
	.size	_ZSt8_DestroyIPSt6vectorIiSaIiEES2_EvT_S4_RSaIT0_E, .-_ZSt8_DestroyIPSt6vectorIiSaIiEES2_EvT_S4_RSaIT0_E
	.section	.text._ZNSt5dequeIP8TreeNodeSaIS1_EE9push_backERKS1_,"axG",@progbits,_ZNSt5dequeIP8TreeNodeSaIS1_EE9push_backERKS1_,comdat
	.align	2
	.weak	_ZNSt5dequeIP8TreeNodeSaIS1_EE9push_backERKS1_
	.type	_ZNSt5dequeIP8TreeNodeSaIS1_EE9push_backERKS1_, %function
_ZNSt5dequeIP8TreeNodeSaIS1_EE9push_backERKS1_:
.LFB2804:
	.cfi_startproc
	stp	x29, x30, [sp, -32]!
	.cfi_def_cfa_offset 32
	.cfi_offset 29, -32
	.cfi_offset 30, -24
	mov	x29, sp
	str	x0, [sp, 24]
	str	x1, [sp, 16]
	ldr	x0, [sp, 24]
	ldr	x1, [x0, 48]
	ldr	x0, [sp, 24]
	ldr	x0, [x0, 64]
	sub	x0, x0, #8
	cmp	x1, x0
	beq	.L109
	ldr	x3, [sp, 24]
	ldr	x0, [sp, 24]
	ldr	x0, [x0, 48]
	ldr	x2, [sp, 16]
	mov	x1, x0
	mov	x0, x3
	bl	_ZNSt16allocator_traitsISaIP8TreeNodeEE9constructIS1_JRKS1_EEEvRS2_PT_DpOT0_
	ldr	x0, [sp, 24]
	ldr	x0, [x0, 48]
	add	x1, x0, 8
	ldr	x0, [sp, 24]
	str	x1, [x0, 48]
	b	.L111
.L109:
	ldr	x1, [sp, 16]
	ldr	x0, [sp, 24]
	bl	_ZNSt5dequeIP8TreeNodeSaIS1_EE16_M_push_back_auxIJRKS1_EEEvDpOT_
.L111:
	nop
	ldp	x29, x30, [sp], 32
	.cfi_restore 30
	.cfi_restore 29
	.cfi_def_cfa_offset 0
	ret
	.cfi_endproc
.LFE2804:
	.size	_ZNSt5dequeIP8TreeNodeSaIS1_EE9push_backERKS1_, .-_ZNSt5dequeIP8TreeNodeSaIS1_EE9push_backERKS1_
	.section	.text._ZNKSt5dequeIP8TreeNodeSaIS1_EE5emptyEv,"axG",@progbits,_ZNKSt5dequeIP8TreeNodeSaIS1_EE5emptyEv,comdat
	.align	2
	.weak	_ZNKSt5dequeIP8TreeNodeSaIS1_EE5emptyEv
	.type	_ZNKSt5dequeIP8TreeNodeSaIS1_EE5emptyEv, %function
_ZNKSt5dequeIP8TreeNodeSaIS1_EE5emptyEv:
.LFB2806:
	.cfi_startproc
	stp	x29, x30, [sp, -32]!
	.cfi_def_cfa_offset 32
	.cfi_offset 29, -32
	.cfi_offset 30, -24
	mov	x29, sp
	str	x0, [sp, 24]
	ldr	x0, [sp, 24]
	add	x2, x0, 48
	ldr	x0, [sp, 24]
	add	x0, x0, 16
	mov	x1, x0
	mov	x0, x2
	bl	_ZSteqRKSt15_Deque_iteratorIP8TreeNodeRS1_PS1_ES6_
	and	w0, w0, 255
	ldp	x29, x30, [sp], 32
	.cfi_restore 30
	.cfi_restore 29
	.cfi_def_cfa_offset 0
	ret
	.cfi_endproc
.LFE2806:
	.size	_ZNKSt5dequeIP8TreeNodeSaIS1_EE5emptyEv, .-_ZNKSt5dequeIP8TreeNodeSaIS1_EE5emptyEv
	.section	.text._ZNSt5dequeIP8TreeNodeSaIS1_EE5frontEv,"axG",@progbits,_ZNSt5dequeIP8TreeNodeSaIS1_EE5frontEv,comdat
	.align	2
	.weak	_ZNSt5dequeIP8TreeNodeSaIS1_EE5frontEv
	.type	_ZNSt5dequeIP8TreeNodeSaIS1_EE5frontEv, %function
_ZNSt5dequeIP8TreeNodeSaIS1_EE5frontEv:
.LFB2807:
	.cfi_startproc
	stp	x29, x30, [sp, -80]!
	.cfi_def_cfa_offset 80
	.cfi_offset 29, -80
	.cfi_offset 30, -72
	mov	x29, sp
	str	x0, [sp, 24]
	adrp	x0, :got:__stack_chk_guard
	ldr	x0, [x0, #:got_lo12:__stack_chk_guard]
	ldr	x1, [x0]
	str	x1, [sp, 72]
	mov	x1, 0
	add	x0, sp, 40
	mov	x8, x0
	ldr	x0, [sp, 24]
	bl	_ZNSt5dequeIP8TreeNodeSaIS1_EE5beginEv
	add	x0, sp, 40
	bl	_ZNKSt15_Deque_iteratorIP8TreeNodeRS1_PS1_EdeEv
	mov	x1, x0
	adrp	x0, :got:__stack_chk_guard
	ldr	x0, [x0, #:got_lo12:__stack_chk_guard]
	ldr	x3, [sp, 72]
	ldr	x2, [x0]
	subs	x3, x3, x2
	mov	x2, 0
	beq	.L116
	bl	__stack_chk_fail
.L116:
	mov	x0, x1
	ldp	x29, x30, [sp], 80
	.cfi_restore 30
	.cfi_restore 29
	.cfi_def_cfa_offset 0
	ret
	.cfi_endproc
.LFE2807:
	.size	_ZNSt5dequeIP8TreeNodeSaIS1_EE5frontEv, .-_ZNSt5dequeIP8TreeNodeSaIS1_EE5frontEv
	.section	.text._ZNSt5dequeIP8TreeNodeSaIS1_EE9pop_frontEv,"axG",@progbits,_ZNSt5dequeIP8TreeNodeSaIS1_EE9pop_frontEv,comdat
	.align	2
	.weak	_ZNSt5dequeIP8TreeNodeSaIS1_EE9pop_frontEv
	.type	_ZNSt5dequeIP8TreeNodeSaIS1_EE9pop_frontEv, %function
_ZNSt5dequeIP8TreeNodeSaIS1_EE9pop_frontEv:
.LFB2808:
	.cfi_startproc
	stp	x29, x30, [sp, -32]!
	.cfi_def_cfa_offset 32
	.cfi_offset 29, -32
	.cfi_offset 30, -24
	mov	x29, sp
	str	x0, [sp, 24]
	ldr	x0, [sp, 24]
	ldr	x1, [x0, 16]
	ldr	x0, [sp, 24]
	ldr	x0, [x0, 32]
	sub	x0, x0, #8
	cmp	x1, x0
	beq	.L118
	ldr	x0, [sp, 24]
	bl	_ZNSt11_Deque_baseIP8TreeNodeSaIS1_EE19_M_get_Tp_allocatorEv
	mov	x2, x0
	ldr	x0, [sp, 24]
	ldr	x0, [x0, 16]
	mov	x1, x0
	mov	x0, x2
	bl	_ZNSt16allocator_traitsISaIP8TreeNodeEE7destroyIS1_EEvRS2_PT_
	ldr	x0, [sp, 24]
	ldr	x0, [x0, 16]
	add	x1, x0, 8
	ldr	x0, [sp, 24]
	str	x1, [x0, 16]
	b	.L120
.L118:
	ldr	x0, [sp, 24]
	bl	_ZNSt5dequeIP8TreeNodeSaIS1_EE16_M_pop_front_auxEv
.L120:
	nop
	ldp	x29, x30, [sp], 32
	.cfi_restore 30
	.cfi_restore 29
	.cfi_def_cfa_offset 0
	ret
	.cfi_endproc
.LFE2808:
	.size	_ZNSt5dequeIP8TreeNodeSaIS1_EE9pop_frontEv, .-_ZNSt5dequeIP8TreeNodeSaIS1_EE9pop_frontEv
	.section	.text._ZNSaIiEC2Ev,"axG",@progbits,_ZNSaIiEC5Ev,comdat
	.align	2
	.weak	_ZNSaIiEC2Ev
	.type	_ZNSaIiEC2Ev, %function
_ZNSaIiEC2Ev:
.LFB2810:
	.cfi_startproc
	stp	x29, x30, [sp, -32]!
	.cfi_def_cfa_offset 32
	.cfi_offset 29, -32
	.cfi_offset 30, -24
	mov	x29, sp
	str	x0, [sp, 24]
	ldr	x0, [sp, 24]
	bl	_ZN9__gnu_cxx13new_allocatorIiEC2Ev
	nop
	ldp	x29, x30, [sp], 32
	.cfi_restore 30
	.cfi_restore 29
	.cfi_def_cfa_offset 0
	ret
	.cfi_endproc
.LFE2810:
	.size	_ZNSaIiEC2Ev, .-_ZNSaIiEC2Ev
	.weak	_ZNSaIiEC1Ev
	.set	_ZNSaIiEC1Ev,_ZNSaIiEC2Ev
	.section	.text._ZNSt12_Vector_baseIiSaIiEE17_Vector_impl_dataC2Ev,"axG",@progbits,_ZNSt12_Vector_baseIiSaIiEE17_Vector_impl_dataC5Ev,comdat
	.align	2
	.weak	_ZNSt12_Vector_baseIiSaIiEE17_Vector_impl_dataC2Ev
	.type	_ZNSt12_Vector_baseIiSaIiEE17_Vector_impl_dataC2Ev, %function
_ZNSt12_Vector_baseIiSaIiEE17_Vector_impl_dataC2Ev:
.LFB2813:
	.cfi_startproc
	sub	sp, sp, #16
	.cfi_def_cfa_offset 16
	str	x0, [sp, 8]
	ldr	x0, [sp, 8]
	str	xzr, [x0]
	ldr	x0, [sp, 8]
	str	xzr, [x0, 8]
	ldr	x0, [sp, 8]
	str	xzr, [x0, 16]
	nop
	add	sp, sp, 16
	.cfi_def_cfa_offset 0
	ret
	.cfi_endproc
.LFE2813:
	.size	_ZNSt12_Vector_baseIiSaIiEE17_Vector_impl_dataC2Ev, .-_ZNSt12_Vector_baseIiSaIiEE17_Vector_impl_dataC2Ev
	.weak	_ZNSt12_Vector_baseIiSaIiEE17_Vector_impl_dataC1Ev
	.set	_ZNSt12_Vector_baseIiSaIiEE17_Vector_impl_dataC1Ev,_ZNSt12_Vector_baseIiSaIiEE17_Vector_impl_dataC2Ev
	.section	.text._ZN9__gnu_cxx13new_allocatorIiED2Ev,"axG",@progbits,_ZN9__gnu_cxx13new_allocatorIiED5Ev,comdat
	.align	2
	.weak	_ZN9__gnu_cxx13new_allocatorIiED2Ev
	.type	_ZN9__gnu_cxx13new_allocatorIiED2Ev, %function
_ZN9__gnu_cxx13new_allocatorIiED2Ev:
.LFB2816:
	.cfi_startproc
	sub	sp, sp, #16
	.cfi_def_cfa_offset 16
	str	x0, [sp, 8]
	nop
	add	sp, sp, 16
	.cfi_def_cfa_offset 0
	ret
	.cfi_endproc
.LFE2816:
	.size	_ZN9__gnu_cxx13new_allocatorIiED2Ev, .-_ZN9__gnu_cxx13new_allocatorIiED2Ev
	.weak	_ZN9__gnu_cxx13new_allocatorIiED1Ev
	.set	_ZN9__gnu_cxx13new_allocatorIiED1Ev,_ZN9__gnu_cxx13new_allocatorIiED2Ev
	.section	.text._ZNSt12_Vector_baseIiSaIiEE13_M_deallocateEPim,"axG",@progbits,_ZNSt12_Vector_baseIiSaIiEE13_M_deallocateEPim,comdat
	.align	2
	.weak	_ZNSt12_Vector_baseIiSaIiEE13_M_deallocateEPim
	.type	_ZNSt12_Vector_baseIiSaIiEE13_M_deallocateEPim, %function
_ZNSt12_Vector_baseIiSaIiEE13_M_deallocateEPim:
.LFB2818:
	.cfi_startproc
	stp	x29, x30, [sp, -48]!
	.cfi_def_cfa_offset 48
	.cfi_offset 29, -48
	.cfi_offset 30, -40
	mov	x29, sp
	str	x0, [sp, 40]
	str	x1, [sp, 32]
	str	x2, [sp, 24]
	ldr	x0, [sp, 32]
	cmp	x0, 0
	beq	.L126
	ldr	x0, [sp, 40]
	ldr	x2, [sp, 24]
	ldr	x1, [sp, 32]
	bl	_ZNSt16allocator_traitsISaIiEE10deallocateERS0_Pim
.L126:
	nop
	ldp	x29, x30, [sp], 48
	.cfi_restore 30
	.cfi_restore 29
	.cfi_def_cfa_offset 0
	ret
	.cfi_endproc
.LFE2818:
	.size	_ZNSt12_Vector_baseIiSaIiEE13_M_deallocateEPim, .-_ZNSt12_Vector_baseIiSaIiEE13_M_deallocateEPim
	.section	.text._ZNSt12_Vector_baseIiSaIiEE19_M_get_Tp_allocatorEv,"axG",@progbits,_ZNSt12_Vector_baseIiSaIiEE19_M_get_Tp_allocatorEv,comdat
	.align	2
	.weak	_ZNSt12_Vector_baseIiSaIiEE19_M_get_Tp_allocatorEv
	.type	_ZNSt12_Vector_baseIiSaIiEE19_M_get_Tp_allocatorEv, %function
_ZNSt12_Vector_baseIiSaIiEE19_M_get_Tp_allocatorEv:
.LFB2819:
	.cfi_startproc
	sub	sp, sp, #16
	.cfi_def_cfa_offset 16
	str	x0, [sp, 8]
	ldr	x0, [sp, 8]
	add	sp, sp, 16
	.cfi_def_cfa_offset 0
	ret
	.cfi_endproc
.LFE2819:
	.size	_ZNSt12_Vector_baseIiSaIiEE19_M_get_Tp_allocatorEv, .-_ZNSt12_Vector_baseIiSaIiEE19_M_get_Tp_allocatorEv
	.section	.text._ZSt8_DestroyIPiiEvT_S1_RSaIT0_E,"axG",@progbits,_ZSt8_DestroyIPiiEvT_S1_RSaIT0_E,comdat
	.align	2
	.weak	_ZSt8_DestroyIPiiEvT_S1_RSaIT0_E
	.type	_ZSt8_DestroyIPiiEvT_S1_RSaIT0_E, %function
_ZSt8_DestroyIPiiEvT_S1_RSaIT0_E:
.LFB2820:
	.cfi_startproc
	stp	x29, x30, [sp, -48]!
	.cfi_def_cfa_offset 48
	.cfi_offset 29, -48
	.cfi_offset 30, -40
	mov	x29, sp
	str	x0, [sp, 40]
	str	x1, [sp, 32]
	str	x2, [sp, 24]
	ldr	x1, [sp, 32]
	ldr	x0, [sp, 40]
	bl	_ZSt8_DestroyIPiEvT_S1_
	nop
	ldp	x29, x30, [sp], 48
	.cfi_restore 30
	.cfi_restore 29
	.cfi_def_cfa_offset 0
	ret
	.cfi_endproc
.LFE2820:
	.size	_ZSt8_DestroyIPiiEvT_S1_RSaIT0_E, .-_ZSt8_DestroyIPiiEvT_S1_RSaIT0_E
	.section	.text._ZSt4moveIRSt6vectorIiSaIiEEEONSt16remove_referenceIT_E4typeEOS5_,"axG",@progbits,_ZSt4moveIRSt6vectorIiSaIiEEEONSt16remove_referenceIT_E4typeEOS5_,comdat
	.align	2
	.weak	_ZSt4moveIRSt6vectorIiSaIiEEEONSt16remove_referenceIT_E4typeEOS5_
	.type	_ZSt4moveIRSt6vectorIiSaIiEEEONSt16remove_referenceIT_E4typeEOS5_, %function
_ZSt4moveIRSt6vectorIiSaIiEEEONSt16remove_referenceIT_E4typeEOS5_:
.LFB2821:
	.cfi_startproc
	sub	sp, sp, #16
	.cfi_def_cfa_offset 16
	str	x0, [sp, 8]
	ldr	x0, [sp, 8]
	add	sp, sp, 16
	.cfi_def_cfa_offset 0
	ret
	.cfi_endproc
.LFE2821:
	.size	_ZSt4moveIRSt6vectorIiSaIiEEEONSt16remove_referenceIT_E4typeEOS5_, .-_ZSt4moveIRSt6vectorIiSaIiEEEONSt16remove_referenceIT_E4typeEOS5_
	.section	.text._ZNSt6vectorIS_IiSaIiEESaIS1_EE12emplace_backIJS1_EEERS1_DpOT_,"axG",@progbits,_ZNSt6vectorIS_IiSaIiEESaIS1_EE12emplace_backIJS1_EEERS1_DpOT_,comdat
	.align	2
	.weak	_ZNSt6vectorIS_IiSaIiEESaIS1_EE12emplace_backIJS1_EEERS1_DpOT_
	.type	_ZNSt6vectorIS_IiSaIiEESaIS1_EE12emplace_backIJS1_EEERS1_DpOT_, %function
_ZNSt6vectorIS_IiSaIiEESaIS1_EE12emplace_backIJS1_EEERS1_DpOT_:
.LFB2822:
	.cfi_startproc
	stp	x29, x30, [sp, -48]!
	.cfi_def_cfa_offset 48
	.cfi_offset 29, -48
	.cfi_offset 30, -40
	mov	x29, sp
	stp	x19, x20, [sp, 16]
	.cfi_offset 19, -32
	.cfi_offset 20, -24
	str	x0, [sp, 40]
	str	x1, [sp, 32]
	ldr	x0, [sp, 40]
	ldr	x1, [x0, 8]
	ldr	x0, [sp, 40]
	ldr	x0, [x0, 16]
	cmp	x1, x0
	beq	.L133
	ldr	x19, [sp, 40]
	ldr	x0, [sp, 40]
	ldr	x20, [x0, 8]
	ldr	x0, [sp, 32]
	bl	_ZSt7forwardISt6vectorIiSaIiEEEOT_RNSt16remove_referenceIS3_E4typeE
	mov	x2, x0
	mov	x1, x20
	mov	x0, x19
	bl	_ZNSt16allocator_traitsISaISt6vectorIiSaIiEEEE9constructIS2_JS2_EEEvRS3_PT_DpOT0_
	ldr	x0, [sp, 40]
	ldr	x0, [x0, 8]
	add	x1, x0, 24
	ldr	x0, [sp, 40]
	str	x1, [x0, 8]
	b	.L134
.L133:
	ldr	x0, [sp, 40]
	bl	_ZNSt6vectorIS_IiSaIiEESaIS1_EE3endEv
	mov	x19, x0
	ldr	x0, [sp, 32]
	bl	_ZSt7forwardISt6vectorIiSaIiEEEOT_RNSt16remove_referenceIS3_E4typeE
	mov	x2, x0
	mov	x1, x19
	ldr	x0, [sp, 40]
	bl	_ZNSt6vectorIS_IiSaIiEESaIS1_EE17_M_realloc_insertIJS1_EEEvN9__gnu_cxx17__normal_iteratorIPS1_S3_EEDpOT_
.L134:
	ldr	x0, [sp, 40]
	bl	_ZNSt6vectorIS_IiSaIiEESaIS1_EE4backEv
	ldp	x19, x20, [sp, 16]
	ldp	x29, x30, [sp], 48
	.cfi_restore 30
	.cfi_restore 29
	.cfi_restore 19
	.cfi_restore 20
	.cfi_def_cfa_offset 0
	ret
	.cfi_endproc
.LFE2822:
	.size	_ZNSt6vectorIS_IiSaIiEESaIS1_EE12emplace_backIJS1_EEERS1_DpOT_, .-_ZNSt6vectorIS_IiSaIiEESaIS1_EE12emplace_backIJS1_EEERS1_DpOT_
	.section	.text._ZNSt16allocator_traitsISaIiEE9constructIiJRKiEEEvRS0_PT_DpOT0_,"axG",@progbits,_ZNSt16allocator_traitsISaIiEE9constructIiJRKiEEEvRS0_PT_DpOT0_,comdat
	.align	2
	.weak	_ZNSt16allocator_traitsISaIiEE9constructIiJRKiEEEvRS0_PT_DpOT0_
	.type	_ZNSt16allocator_traitsISaIiEE9constructIiJRKiEEEvRS0_PT_DpOT0_, %function
_ZNSt16allocator_traitsISaIiEE9constructIiJRKiEEEvRS0_PT_DpOT0_:
.LFB2824:
	.cfi_startproc
	stp	x29, x30, [sp, -48]!
	.cfi_def_cfa_offset 48
	.cfi_offset 29, -48
	.cfi_offset 30, -40
	mov	x29, sp
	str	x0, [sp, 40]
	str	x1, [sp, 32]
	str	x2, [sp, 24]
	ldr	x0, [sp, 24]
	bl	_ZSt7forwardIRKiEOT_RNSt16remove_referenceIS2_E4typeE
	mov	x2, x0
	ldr	x1, [sp, 32]
	ldr	x0, [sp, 40]
	bl	_ZN9__gnu_cxx13new_allocatorIiE9constructIiJRKiEEEvPT_DpOT0_
	nop
	ldp	x29, x30, [sp], 48
	.cfi_restore 30
	.cfi_restore 29
	.cfi_def_cfa_offset 0
	ret
	.cfi_endproc
.LFE2824:
	.size	_ZNSt16allocator_traitsISaIiEE9constructIiJRKiEEEvRS0_PT_DpOT0_, .-_ZNSt16allocator_traitsISaIiEE9constructIiJRKiEEEvRS0_PT_DpOT0_
	.section	.text._ZNSt6vectorIiSaIiEE3endEv,"axG",@progbits,_ZNSt6vectorIiSaIiEE3endEv,comdat
	.align	2
	.weak	_ZNSt6vectorIiSaIiEE3endEv
	.type	_ZNSt6vectorIiSaIiEE3endEv, %function
_ZNSt6vectorIiSaIiEE3endEv:
.LFB2825:
	.cfi_startproc
	stp	x29, x30, [sp, -48]!
	.cfi_def_cfa_offset 48
	.cfi_offset 29, -48
	.cfi_offset 30, -40
	mov	x29, sp
	str	x0, [sp, 24]
	adrp	x0, :got:__stack_chk_guard
	ldr	x0, [x0, #:got_lo12:__stack_chk_guard]
	ldr	x1, [x0]
	str	x1, [sp, 40]
	mov	x1, 0
	ldr	x0, [sp, 24]
	add	x1, x0, 8
	add	x0, sp, 32
	bl	_ZN9__gnu_cxx17__normal_iteratorIPiSt6vectorIiSaIiEEEC1ERKS1_
	ldr	x0, [sp, 32]
	mov	x1, x0
	adrp	x0, :got:__stack_chk_guard
	ldr	x0, [x0, #:got_lo12:__stack_chk_guard]
	ldr	x3, [sp, 40]
	ldr	x2, [x0]
	subs	x3, x3, x2
	mov	x2, 0
	beq	.L139
	bl	__stack_chk_fail
.L139:
	mov	x0, x1
	ldp	x29, x30, [sp], 48
	.cfi_restore 30
	.cfi_restore 29
	.cfi_def_cfa_offset 0
	ret
	.cfi_endproc
.LFE2825:
	.size	_ZNSt6vectorIiSaIiEE3endEv, .-_ZNSt6vectorIiSaIiEE3endEv
	.section	.rodata
	.align	3
.LC1:
	.string	"vector::_M_realloc_insert"
	.section	.text._ZNSt6vectorIiSaIiEE17_M_realloc_insertIJRKiEEEvN9__gnu_cxx17__normal_iteratorIPiS1_EEDpOT_,"axG",@progbits,_ZNSt6vectorIiSaIiEE17_M_realloc_insertIJRKiEEEvN9__gnu_cxx17__normal_iteratorIPiS1_EEDpOT_,comdat
	.align	2
	.weak	_ZNSt6vectorIiSaIiEE17_M_realloc_insertIJRKiEEEvN9__gnu_cxx17__normal_iteratorIPiS1_EEDpOT_
	.type	_ZNSt6vectorIiSaIiEE17_M_realloc_insertIJRKiEEEvN9__gnu_cxx17__normal_iteratorIPiS1_EEDpOT_, %function
_ZNSt6vectorIiSaIiEE17_M_realloc_insertIJRKiEEEvN9__gnu_cxx17__normal_iteratorIPiS1_EEDpOT_:
.LFB2826:
	.cfi_startproc
	stp	x29, x30, [sp, -128]!
	.cfi_def_cfa_offset 128
	.cfi_offset 29, -128
	.cfi_offset 30, -120
	mov	x29, sp
	stp	x19, x20, [sp, 16]
	.cfi_offset 19, -112
	.cfi_offset 20, -104
	str	x0, [sp, 56]
	str	x1, [sp, 48]
	str	x2, [sp, 40]
	adrp	x0, :got:__stack_chk_guard
	ldr	x0, [x0, #:got_lo12:__stack_chk_guard]
	ldr	x1, [x0]
	str	x1, [sp, 120]
	mov	x1, 0
	adrp	x0, .LC1
	add	x2, x0, :lo12:.LC1
	mov	x1, 1
	ldr	x0, [sp, 56]
	bl	_ZNKSt6vectorIiSaIiEE12_M_check_lenEmPKc
	str	x0, [sp, 72]
	ldr	x0, [sp, 56]
	ldr	x0, [x0]
	str	x0, [sp, 80]
	ldr	x0, [sp, 56]
	ldr	x0, [x0, 8]
	str	x0, [sp, 88]
	ldr	x0, [sp, 56]
	bl	_ZNSt6vectorIiSaIiEE5beginEv
	str	x0, [sp, 64]
	add	x1, sp, 64
	add	x0, sp, 48
	bl	_ZN9__gnu_cxxmiIPiSt6vectorIiSaIiEEEENS_17__normal_iteratorIT_T0_E15difference_typeERKS8_SB_
	str	x0, [sp, 96]
	ldr	x0, [sp, 56]
	ldr	x1, [sp, 72]
	bl	_ZNSt12_Vector_baseIiSaIiEE11_M_allocateEm
	str	x0, [sp, 104]
	ldr	x0, [sp, 104]
	str	x0, [sp, 112]
	ldr	x19, [sp, 56]
	ldr	x0, [sp, 96]
	lsl	x0, x0, 2
	ldr	x1, [sp, 104]
	add	x20, x1, x0
	ldr	x0, [sp, 40]
	bl	_ZSt7forwardIRKiEOT_RNSt16remove_referenceIS2_E4typeE
	mov	x2, x0
	mov	x1, x20
	mov	x0, x19
	bl	_ZNSt16allocator_traitsISaIiEE9constructIiJRKiEEEvRS0_PT_DpOT0_
	str	xzr, [sp, 112]
	add	x0, sp, 48
	bl	_ZNK9__gnu_cxx17__normal_iteratorIPiSt6vectorIiSaIiEEE4baseEv
	ldr	x19, [x0]
	ldr	x0, [sp, 56]
	bl	_ZNSt12_Vector_baseIiSaIiEE19_M_get_Tp_allocatorEv
	mov	x3, x0
	ldr	x2, [sp, 104]
	mov	x1, x19
	ldr	x0, [sp, 80]
	bl	_ZNSt6vectorIiSaIiEE11_S_relocateEPiS2_S2_RS0_
	str	x0, [sp, 112]
	ldr	x0, [sp, 112]
	add	x0, x0, 4
	str	x0, [sp, 112]
	add	x0, sp, 48
	bl	_ZNK9__gnu_cxx17__normal_iteratorIPiSt6vectorIiSaIiEEE4baseEv
	ldr	x19, [x0]
	ldr	x0, [sp, 56]
	bl	_ZNSt12_Vector_baseIiSaIiEE19_M_get_Tp_allocatorEv
	mov	x3, x0
	ldr	x2, [sp, 112]
	ldr	x1, [sp, 88]
	mov	x0, x19
	bl	_ZNSt6vectorIiSaIiEE11_S_relocateEPiS2_S2_RS0_
	str	x0, [sp, 112]
	ldr	x3, [sp, 56]
	ldr	x0, [sp, 56]
	ldr	x1, [x0, 16]
	ldr	x0, [sp, 80]
	sub	x0, x1, x0
	asr	x0, x0, 2
	mov	x2, x0
	ldr	x1, [sp, 80]
	mov	x0, x3
	bl	_ZNSt12_Vector_baseIiSaIiEE13_M_deallocateEPim
	ldr	x0, [sp, 56]
	ldr	x1, [sp, 104]
	str	x1, [x0]
	ldr	x0, [sp, 56]
	ldr	x1, [sp, 112]
	str	x1, [x0, 8]
	ldr	x0, [sp, 72]
	lsl	x0, x0, 2
	ldr	x1, [sp, 104]
	add	x1, x1, x0
	ldr	x0, [sp, 56]
	str	x1, [x0, 16]
	nop
	adrp	x0, :got:__stack_chk_guard
	ldr	x0, [x0, #:got_lo12:__stack_chk_guard]
	ldr	x2, [sp, 120]
	ldr	x1, [x0]
	subs	x2, x2, x1
	mov	x1, 0
	beq	.L141
	bl	__stack_chk_fail
.L141:
	ldp	x19, x20, [sp, 16]
	ldp	x29, x30, [sp], 128
	.cfi_restore 30
	.cfi_restore 29
	.cfi_restore 19
	.cfi_restore 20
	.cfi_def_cfa_offset 0
	ret
	.cfi_endproc
.LFE2826:
	.size	_ZNSt6vectorIiSaIiEE17_M_realloc_insertIJRKiEEEvN9__gnu_cxx17__normal_iteratorIPiS1_EEDpOT_, .-_ZNSt6vectorIiSaIiEE17_M_realloc_insertIJRKiEEEvN9__gnu_cxx17__normal_iteratorIPiS1_EEDpOT_
	.section	.text._ZN9__gnu_cxx17__normal_iteratorIPiSt6vectorIiSaIiEEEC2ERKS1_,"axG",@progbits,_ZN9__gnu_cxx17__normal_iteratorIPiSt6vectorIiSaIiEEEC5ERKS1_,comdat
	.align	2
	.weak	_ZN9__gnu_cxx17__normal_iteratorIPiSt6vectorIiSaIiEEEC2ERKS1_
	.type	_ZN9__gnu_cxx17__normal_iteratorIPiSt6vectorIiSaIiEEEC2ERKS1_, %function
_ZN9__gnu_cxx17__normal_iteratorIPiSt6vectorIiSaIiEEEC2ERKS1_:
.LFB2831:
	.cfi_startproc
	sub	sp, sp, #16
	.cfi_def_cfa_offset 16
	str	x0, [sp, 8]
	str	x1, [sp]
	ldr	x0, [sp]
	ldr	x1, [x0]
	ldr	x0, [sp, 8]
	str	x1, [x0]
	nop
	add	sp, sp, 16
	.cfi_def_cfa_offset 0
	ret
	.cfi_endproc
.LFE2831:
	.size	_ZN9__gnu_cxx17__normal_iteratorIPiSt6vectorIiSaIiEEEC2ERKS1_, .-_ZN9__gnu_cxx17__normal_iteratorIPiSt6vectorIiSaIiEEEC2ERKS1_
	.weak	_ZN9__gnu_cxx17__normal_iteratorIPiSt6vectorIiSaIiEEEC1ERKS1_
	.set	_ZN9__gnu_cxx17__normal_iteratorIPiSt6vectorIiSaIiEEEC1ERKS1_,_ZN9__gnu_cxx17__normal_iteratorIPiSt6vectorIiSaIiEEEC2ERKS1_
	.section	.text._ZNK9__gnu_cxx17__normal_iteratorIPiSt6vectorIiSaIiEEE4baseEv,"axG",@progbits,_ZNK9__gnu_cxx17__normal_iteratorIPiSt6vectorIiSaIiEEE4baseEv,comdat
	.align	2
	.weak	_ZNK9__gnu_cxx17__normal_iteratorIPiSt6vectorIiSaIiEEE4baseEv
	.type	_ZNK9__gnu_cxx17__normal_iteratorIPiSt6vectorIiSaIiEEE4baseEv, %function
_ZNK9__gnu_cxx17__normal_iteratorIPiSt6vectorIiSaIiEEE4baseEv:
.LFB2833:
	.cfi_startproc
	sub	sp, sp, #16
	.cfi_def_cfa_offset 16
	str	x0, [sp, 8]
	ldr	x0, [sp, 8]
	add	sp, sp, 16
	.cfi_def_cfa_offset 0
	ret
	.cfi_endproc
.LFE2833:
	.size	_ZNK9__gnu_cxx17__normal_iteratorIPiSt6vectorIiSaIiEEE4baseEv, .-_ZNK9__gnu_cxx17__normal_iteratorIPiSt6vectorIiSaIiEEE4baseEv
	.section	.text._ZN9__gnu_cxxmiIPKiPiSt6vectorIiSaIiEEEEDTmicldtfp_4baseEcldtfp0_4baseEERKNS_17__normal_iteratorIT_T1_EERKNS8_IT0_SA_EE,"axG",@progbits,_ZN9__gnu_cxxmiIPKiPiSt6vectorIiSaIiEEEEDTmicldtfp_4baseEcldtfp0_4baseEERKNS_17__normal_iteratorIT_T1_EERKNS8_IT0_SA_EE,comdat
	.align	2
	.weak	_ZN9__gnu_cxxmiIPKiPiSt6vectorIiSaIiEEEEDTmicldtfp_4baseEcldtfp0_4baseEERKNS_17__normal_iteratorIT_T1_EERKNS8_IT0_SA_EE
	.type	_ZN9__gnu_cxxmiIPKiPiSt6vectorIiSaIiEEEEDTmicldtfp_4baseEcldtfp0_4baseEERKNS_17__normal_iteratorIT_T1_EERKNS8_IT0_SA_EE, %function
_ZN9__gnu_cxxmiIPKiPiSt6vectorIiSaIiEEEEDTmicldtfp_4baseEcldtfp0_4baseEERKNS_17__normal_iteratorIT_T1_EERKNS8_IT0_SA_EE:
.LFB2834:
	.cfi_startproc
	stp	x29, x30, [sp, -48]!
	.cfi_def_cfa_offset 48
	.cfi_offset 29, -48
	.cfi_offset 30, -40
	mov	x29, sp
	str	x19, [sp, 16]
	.cfi_offset 19, -32
	str	x0, [sp, 40]
	str	x1, [sp, 32]
	ldr	x0, [sp, 40]
	bl	_ZNK9__gnu_cxx17__normal_iteratorIPKiSt6vectorIiSaIiEEE4baseEv
	ldr	x19, [x0]
	ldr	x0, [sp, 32]
	bl	_ZNK9__gnu_cxx17__normal_iteratorIPiSt6vectorIiSaIiEEE4baseEv
	ldr	x0, [x0]
	sub	x0, x19, x0
	asr	x0, x0, 2
	ldr	x19, [sp, 16]
	ldp	x29, x30, [sp], 48
	.cfi_restore 30
	.cfi_restore 29
	.cfi_restore 19
	.cfi_def_cfa_offset 0
	ret
	.cfi_endproc
.LFE2834:
	.size	_ZN9__gnu_cxxmiIPKiPiSt6vectorIiSaIiEEEEDTmicldtfp_4baseEcldtfp0_4baseEERKNS_17__normal_iteratorIT_T1_EERKNS8_IT0_SA_EE, .-_ZN9__gnu_cxxmiIPKiPiSt6vectorIiSaIiEEEEDTmicldtfp_4baseEcldtfp0_4baseEERKNS_17__normal_iteratorIT_T1_EERKNS8_IT0_SA_EE
	.section	.text._ZN9__gnu_cxxeqIPKiPiSt6vectorIiSaIiEEEEbRKNS_17__normal_iteratorIT_T1_EERKNS7_IT0_S9_EE,"axG",@progbits,_ZN9__gnu_cxxeqIPKiPiSt6vectorIiSaIiEEEEbRKNS_17__normal_iteratorIT_T1_EERKNS7_IT0_S9_EE,comdat
	.align	2
	.weak	_ZN9__gnu_cxxeqIPKiPiSt6vectorIiSaIiEEEEbRKNS_17__normal_iteratorIT_T1_EERKNS7_IT0_S9_EE
	.type	_ZN9__gnu_cxxeqIPKiPiSt6vectorIiSaIiEEEEbRKNS_17__normal_iteratorIT_T1_EERKNS7_IT0_S9_EE, %function
_ZN9__gnu_cxxeqIPKiPiSt6vectorIiSaIiEEEEbRKNS_17__normal_iteratorIT_T1_EERKNS7_IT0_S9_EE:
.LFB2835:
	.cfi_startproc
	stp	x29, x30, [sp, -48]!
	.cfi_def_cfa_offset 48
	.cfi_offset 29, -48
	.cfi_offset 30, -40
	mov	x29, sp
	str	x19, [sp, 16]
	.cfi_offset 19, -32
	str	x0, [sp, 40]
	str	x1, [sp, 32]
	ldr	x0, [sp, 40]
	bl	_ZNK9__gnu_cxx17__normal_iteratorIPKiSt6vectorIiSaIiEEE4baseEv
	ldr	x19, [x0]
	ldr	x0, [sp, 32]
	bl	_ZNK9__gnu_cxx17__normal_iteratorIPiSt6vectorIiSaIiEEE4baseEv
	ldr	x0, [x0]
	cmp	x19, x0
	cset	w0, eq
	and	w0, w0, 255
	ldr	x19, [sp, 16]
	ldp	x29, x30, [sp], 48
	.cfi_restore 30
	.cfi_restore 29
	.cfi_restore 19
	.cfi_def_cfa_offset 0
	ret
	.cfi_endproc
.LFE2835:
	.size	_ZN9__gnu_cxxeqIPKiPiSt6vectorIiSaIiEEEEbRKNS_17__normal_iteratorIT_T1_EERKNS7_IT0_S9_EE, .-_ZN9__gnu_cxxeqIPKiPiSt6vectorIiSaIiEEEEbRKNS_17__normal_iteratorIT_T1_EERKNS7_IT0_S9_EE
	.section	.text._ZNKSt6vectorIiSaIiEE6cbeginEv,"axG",@progbits,_ZNKSt6vectorIiSaIiEE6cbeginEv,comdat
	.align	2
	.weak	_ZNKSt6vectorIiSaIiEE6cbeginEv
	.type	_ZNKSt6vectorIiSaIiEE6cbeginEv, %function
_ZNKSt6vectorIiSaIiEE6cbeginEv:
.LFB2836:
	.cfi_startproc
	stp	x29, x30, [sp, -48]!
	.cfi_def_cfa_offset 48
	.cfi_offset 29, -48
	.cfi_offset 30, -40
	mov	x29, sp
	str	x0, [sp, 24]
	adrp	x0, :got:__stack_chk_guard
	ldr	x0, [x0, #:got_lo12:__stack_chk_guard]
	ldr	x1, [x0]
	str	x1, [sp, 40]
	mov	x1, 0
	ldr	x1, [sp, 24]
	add	x0, sp, 32
	bl	_ZN9__gnu_cxx17__normal_iteratorIPKiSt6vectorIiSaIiEEEC1ERKS2_
	ldr	x0, [sp, 32]
	mov	x1, x0
	adrp	x0, :got:__stack_chk_guard
	ldr	x0, [x0, #:got_lo12:__stack_chk_guard]
	ldr	x3, [sp, 40]
	ldr	x2, [x0]
	subs	x3, x3, x2
	mov	x2, 0
	beq	.L151
	bl	__stack_chk_fail
.L151:
	mov	x0, x1
	ldp	x29, x30, [sp], 48
	.cfi_restore 30
	.cfi_restore 29
	.cfi_def_cfa_offset 0
	ret
	.cfi_endproc
.LFE2836:
	.size	_ZNKSt6vectorIiSaIiEE6cbeginEv, .-_ZNKSt6vectorIiSaIiEE6cbeginEv
	.section	.text._ZN9__gnu_cxxmiIPKiSt6vectorIiSaIiEEEENS_17__normal_iteratorIT_T0_E15difference_typeERKS9_SC_,"axG",@progbits,_ZN9__gnu_cxxmiIPKiSt6vectorIiSaIiEEEENS_17__normal_iteratorIT_T0_E15difference_typeERKS9_SC_,comdat
	.align	2
	.weak	_ZN9__gnu_cxxmiIPKiSt6vectorIiSaIiEEEENS_17__normal_iteratorIT_T0_E15difference_typeERKS9_SC_
	.type	_ZN9__gnu_cxxmiIPKiSt6vectorIiSaIiEEEENS_17__normal_iteratorIT_T0_E15difference_typeERKS9_SC_, %function
_ZN9__gnu_cxxmiIPKiSt6vectorIiSaIiEEEENS_17__normal_iteratorIT_T0_E15difference_typeERKS9_SC_:
.LFB2837:
	.cfi_startproc
	stp	x29, x30, [sp, -48]!
	.cfi_def_cfa_offset 48
	.cfi_offset 29, -48
	.cfi_offset 30, -40
	mov	x29, sp
	str	x19, [sp, 16]
	.cfi_offset 19, -32
	str	x0, [sp, 40]
	str	x1, [sp, 32]
	ldr	x0, [sp, 40]
	bl	_ZNK9__gnu_cxx17__normal_iteratorIPKiSt6vectorIiSaIiEEE4baseEv
	ldr	x19, [x0]
	ldr	x0, [sp, 32]
	bl	_ZNK9__gnu_cxx17__normal_iteratorIPKiSt6vectorIiSaIiEEE4baseEv
	ldr	x0, [x0]
	sub	x0, x19, x0
	asr	x0, x0, 2
	ldr	x19, [sp, 16]
	ldp	x29, x30, [sp], 48
	.cfi_restore 30
	.cfi_restore 29
	.cfi_restore 19
	.cfi_def_cfa_offset 0
	ret
	.cfi_endproc
.LFE2837:
	.size	_ZN9__gnu_cxxmiIPKiSt6vectorIiSaIiEEEENS_17__normal_iteratorIT_T0_E15difference_typeERKS9_SC_, .-_ZN9__gnu_cxxmiIPKiSt6vectorIiSaIiEEEENS_17__normal_iteratorIT_T0_E15difference_typeERKS9_SC_
	.section	.text._ZNK9__gnu_cxx17__normal_iteratorIPiSt6vectorIiSaIiEEEplEl,"axG",@progbits,_ZNK9__gnu_cxx17__normal_iteratorIPiSt6vectorIiSaIiEEEplEl,comdat
	.align	2
	.weak	_ZNK9__gnu_cxx17__normal_iteratorIPiSt6vectorIiSaIiEEEplEl
	.type	_ZNK9__gnu_cxx17__normal_iteratorIPiSt6vectorIiSaIiEEEplEl, %function
_ZNK9__gnu_cxx17__normal_iteratorIPiSt6vectorIiSaIiEEEplEl:
.LFB2838:
	.cfi_startproc
	stp	x29, x30, [sp, -64]!
	.cfi_def_cfa_offset 64
	.cfi_offset 29, -64
	.cfi_offset 30, -56
	mov	x29, sp
	str	x0, [sp, 24]
	str	x1, [sp, 16]
	adrp	x0, :got:__stack_chk_guard
	ldr	x0, [x0, #:got_lo12:__stack_chk_guard]
	ldr	x1, [x0]
	str	x1, [sp, 56]
	mov	x1, 0
	ldr	x0, [sp, 24]
	ldr	x1, [x0]
	ldr	x0, [sp, 16]
	lsl	x0, x0, 2
	add	x0, x1, x0
	str	x0, [sp, 40]
	add	x1, sp, 40
	add	x0, sp, 48
	bl	_ZN9__gnu_cxx17__normal_iteratorIPiSt6vectorIiSaIiEEEC1ERKS1_
	ldr	x0, [sp, 48]
	mov	x1, x0
	adrp	x0, :got:__stack_chk_guard
	ldr	x0, [x0, #:got_lo12:__stack_chk_guard]
	ldr	x3, [sp, 56]
	ldr	x2, [x0]
	subs	x3, x3, x2
	mov	x2, 0
	beq	.L156
	bl	__stack_chk_fail
.L156:
	mov	x0, x1
	ldp	x29, x30, [sp], 64
	.cfi_restore 30
	.cfi_restore 29
	.cfi_def_cfa_offset 0
	ret
	.cfi_endproc
.LFE2838:
	.size	_ZNK9__gnu_cxx17__normal_iteratorIPiSt6vectorIiSaIiEEEplEl, .-_ZNK9__gnu_cxx17__normal_iteratorIPiSt6vectorIiSaIiEEEplEl
	.section	.text._ZNSt6vectorIiSaIiEE16_Temporary_valueC2IJRKiEEEPS1_DpOT_,"axG",@progbits,_ZNSt6vectorIiSaIiEE16_Temporary_valueC5IJRKiEEEPS1_DpOT_,comdat
	.align	2
	.weak	_ZNSt6vectorIiSaIiEE16_Temporary_valueC2IJRKiEEEPS1_DpOT_
	.type	_ZNSt6vectorIiSaIiEE16_Temporary_valueC2IJRKiEEEPS1_DpOT_, %function
_ZNSt6vectorIiSaIiEE16_Temporary_valueC2IJRKiEEEPS1_DpOT_:
.LFB2840:
	.cfi_startproc
	stp	x29, x30, [sp, -64]!
	.cfi_def_cfa_offset 64
	.cfi_offset 29, -64
	.cfi_offset 30, -56
	mov	x29, sp
	stp	x19, x20, [sp, 16]
	.cfi_offset 19, -48
	.cfi_offset 20, -40
	str	x0, [sp, 56]
	str	x1, [sp, 48]
	str	x2, [sp, 40]
	ldr	x0, [sp, 56]
	ldr	x1, [sp, 48]
	str	x1, [x0]
	ldr	x0, [sp, 56]
	ldr	x0, [x0]
	mov	x20, x0
	ldr	x0, [sp, 56]
	bl	_ZNSt6vectorIiSaIiEE16_Temporary_value6_M_ptrEv
	mov	x19, x0
	ldr	x0, [sp, 40]
	bl	_ZSt7forwardIRKiEOT_RNSt16remove_referenceIS2_E4typeE
	mov	x2, x0
	mov	x1, x19
	mov	x0, x20
	bl	_ZNSt16allocator_traitsISaIiEE9constructIiJRKiEEEvRS0_PT_DpOT0_
	nop
	ldp	x19, x20, [sp, 16]
	ldp	x29, x30, [sp], 64
	.cfi_restore 30
	.cfi_restore 29
	.cfi_restore 19
	.cfi_restore 20
	.cfi_def_cfa_offset 0
	ret
	.cfi_endproc
.LFE2840:
	.size	_ZNSt6vectorIiSaIiEE16_Temporary_valueC2IJRKiEEEPS1_DpOT_, .-_ZNSt6vectorIiSaIiEE16_Temporary_valueC2IJRKiEEEPS1_DpOT_
	.weak	_ZNSt6vectorIiSaIiEE16_Temporary_valueC1IJRKiEEEPS1_DpOT_
	.set	_ZNSt6vectorIiSaIiEE16_Temporary_valueC1IJRKiEEEPS1_DpOT_,_ZNSt6vectorIiSaIiEE16_Temporary_valueC2IJRKiEEEPS1_DpOT_
	.section	.text._ZNSt6vectorIiSaIiEE16_Temporary_valueD2Ev,"axG",@progbits,_ZNSt6vectorIiSaIiEE16_Temporary_valueD5Ev,comdat
	.align	2
	.weak	_ZNSt6vectorIiSaIiEE16_Temporary_valueD2Ev
	.type	_ZNSt6vectorIiSaIiEE16_Temporary_valueD2Ev, %function
_ZNSt6vectorIiSaIiEE16_Temporary_valueD2Ev:
.LFB2843:
	.cfi_startproc
	stp	x29, x30, [sp, -48]!
	.cfi_def_cfa_offset 48
	.cfi_offset 29, -48
	.cfi_offset 30, -40
	mov	x29, sp
	str	x19, [sp, 16]
	.cfi_offset 19, -32
	str	x0, [sp, 40]
	ldr	x0, [sp, 40]
	ldr	x0, [x0]
	mov	x19, x0
	ldr	x0, [sp, 40]
	bl	_ZNSt6vectorIiSaIiEE16_Temporary_value6_M_ptrEv
	mov	x1, x0
	mov	x0, x19
	bl	_ZNSt16allocator_traitsISaIiEE7destroyIiEEvRS0_PT_
	nop
	ldr	x19, [sp, 16]
	ldp	x29, x30, [sp], 48
	.cfi_restore 30
	.cfi_restore 29
	.cfi_restore 19
	.cfi_def_cfa_offset 0
	ret
	.cfi_endproc
.LFE2843:
	.size	_ZNSt6vectorIiSaIiEE16_Temporary_valueD2Ev, .-_ZNSt6vectorIiSaIiEE16_Temporary_valueD2Ev
	.weak	_ZNSt6vectorIiSaIiEE16_Temporary_valueD1Ev
	.set	_ZNSt6vectorIiSaIiEE16_Temporary_valueD1Ev,_ZNSt6vectorIiSaIiEE16_Temporary_valueD2Ev
	.section	.text._ZNSt6vectorIiSaIiEE16_Temporary_value6_M_valEv,"axG",@progbits,_ZNSt6vectorIiSaIiEE16_Temporary_value6_M_valEv,comdat
	.align	2
	.weak	_ZNSt6vectorIiSaIiEE16_Temporary_value6_M_valEv
	.type	_ZNSt6vectorIiSaIiEE16_Temporary_value6_M_valEv, %function
_ZNSt6vectorIiSaIiEE16_Temporary_value6_M_valEv:
.LFB2845:
	.cfi_startproc
	stp	x29, x30, [sp, -32]!
	.cfi_def_cfa_offset 32
	.cfi_offset 29, -32
	.cfi_offset 30, -24
	mov	x29, sp
	str	x0, [sp, 24]
	ldr	x0, [sp, 24]
	bl	_ZNSt6vectorIiSaIiEE16_Temporary_value6_M_ptrEv
	ldp	x29, x30, [sp], 32
	.cfi_restore 30
	.cfi_restore 29
	.cfi_def_cfa_offset 0
	ret
	.cfi_endproc
.LFE2845:
	.size	_ZNSt6vectorIiSaIiEE16_Temporary_value6_M_valEv, .-_ZNSt6vectorIiSaIiEE16_Temporary_value6_M_valEv
	.section	.text._ZSt4moveIRiEONSt16remove_referenceIT_E4typeEOS2_,"axG",@progbits,_ZSt4moveIRiEONSt16remove_referenceIT_E4typeEOS2_,comdat
	.align	2
	.weak	_ZSt4moveIRiEONSt16remove_referenceIT_E4typeEOS2_
	.type	_ZSt4moveIRiEONSt16remove_referenceIT_E4typeEOS2_, %function
_ZSt4moveIRiEONSt16remove_referenceIT_E4typeEOS2_:
.LFB2846:
	.cfi_startproc
	sub	sp, sp, #16
	.cfi_def_cfa_offset 16
	str	x0, [sp, 8]
	ldr	x0, [sp, 8]
	add	sp, sp, 16
	.cfi_def_cfa_offset 0
	ret
	.cfi_endproc
.LFE2846:
	.size	_ZSt4moveIRiEONSt16remove_referenceIT_E4typeEOS2_, .-_ZSt4moveIRiEONSt16remove_referenceIT_E4typeEOS2_
	.section	.text._ZNSt6vectorIiSaIiEE13_M_insert_auxIiEEvN9__gnu_cxx17__normal_iteratorIPiS1_EEOT_,"axG",@progbits,_ZNSt6vectorIiSaIiEE13_M_insert_auxIiEEvN9__gnu_cxx17__normal_iteratorIPiS1_EEOT_,comdat
	.align	2
	.weak	_ZNSt6vectorIiSaIiEE13_M_insert_auxIiEEvN9__gnu_cxx17__normal_iteratorIPiS1_EEOT_
	.type	_ZNSt6vectorIiSaIiEE13_M_insert_auxIiEEvN9__gnu_cxx17__normal_iteratorIPiS1_EEOT_, %function
_ZNSt6vectorIiSaIiEE13_M_insert_auxIiEEvN9__gnu_cxx17__normal_iteratorIPiS1_EEOT_:
.LFB2847:
	.cfi_startproc
	stp	x29, x30, [sp, -64]!
	.cfi_def_cfa_offset 64
	.cfi_offset 29, -64
	.cfi_offset 30, -56
	mov	x29, sp
	stp	x19, x20, [sp, 16]
	.cfi_offset 19, -48
	.cfi_offset 20, -40
	str	x0, [sp, 56]
	str	x1, [sp, 48]
	str	x2, [sp, 40]
	ldr	x19, [sp, 56]
	ldr	x0, [sp, 56]
	ldr	x20, [x0, 8]
	ldr	x0, [sp, 56]
	ldr	x0, [x0, 8]
	sub	x0, x0, #4
	bl	_ZSt4moveIRiEONSt16remove_referenceIT_E4typeEOS2_
	mov	x2, x0
	mov	x1, x20
	mov	x0, x19
	bl	_ZNSt16allocator_traitsISaIiEE9constructIiJiEEEvRS0_PT_DpOT0_
	ldr	x0, [sp, 56]
	ldr	x0, [x0, 8]
	add	x1, x0, 4
	ldr	x0, [sp, 56]
	str	x1, [x0, 8]
	add	x0, sp, 48
	bl	_ZNK9__gnu_cxx17__normal_iteratorIPiSt6vectorIiSaIiEEE4baseEv
	ldr	x3, [x0]
	ldr	x0, [sp, 56]
	ldr	x0, [x0, 8]
	sub	x1, x0, #8
	ldr	x0, [sp, 56]
	ldr	x0, [x0, 8]
	sub	x0, x0, #4
	mov	x2, x0
	mov	x0, x3
	bl	_ZSt13move_backwardIPiS0_ET0_T_S2_S1_
	ldr	x0, [sp, 40]
	bl	_ZSt7forwardIiEOT_RNSt16remove_referenceIS0_E4typeE
	ldr	w19, [x0]
	add	x0, sp, 48
	bl	_ZNK9__gnu_cxx17__normal_iteratorIPiSt6vectorIiSaIiEEEdeEv
	str	w19, [x0]
	nop
	ldp	x19, x20, [sp, 16]
	ldp	x29, x30, [sp], 64
	.cfi_restore 30
	.cfi_restore 29
	.cfi_restore 19
	.cfi_restore 20
	.cfi_def_cfa_offset 0
	ret
	.cfi_endproc
.LFE2847:
	.size	_ZNSt6vectorIiSaIiEE13_M_insert_auxIiEEvN9__gnu_cxx17__normal_iteratorIPiS1_EEOT_, .-_ZNSt6vectorIiSaIiEE13_M_insert_auxIiEEvN9__gnu_cxx17__normal_iteratorIPiS1_EEOT_
	.section	.text._ZNKSt6vectorIS_IiSaIiEESaIS1_EE5beginEv,"axG",@progbits,_ZNKSt6vectorIS_IiSaIiEESaIS1_EE5beginEv,comdat
	.align	2
	.weak	_ZNKSt6vectorIS_IiSaIiEESaIS1_EE5beginEv
	.type	_ZNKSt6vectorIS_IiSaIiEESaIS1_EE5beginEv, %function
_ZNKSt6vectorIS_IiSaIiEESaIS1_EE5beginEv:
.LFB2855:
	.cfi_startproc
	stp	x29, x30, [sp, -48]!
	.cfi_def_cfa_offset 48
	.cfi_offset 29, -48
	.cfi_offset 30, -40
	mov	x29, sp
	str	x0, [sp, 24]
	adrp	x0, :got:__stack_chk_guard
	ldr	x0, [x0, #:got_lo12:__stack_chk_guard]
	ldr	x1, [x0]
	str	x1, [sp, 40]
	mov	x1, 0
	ldr	x1, [sp, 24]
	add	x0, sp, 32
	bl	_ZN9__gnu_cxx17__normal_iteratorIPKSt6vectorIiSaIiEES1_IS3_SaIS3_EEEC1ERKS5_
	ldr	x0, [sp, 32]
	mov	x1, x0
	adrp	x0, :got:__stack_chk_guard
	ldr	x0, [x0, #:got_lo12:__stack_chk_guard]
	ldr	x3, [sp, 40]
	ldr	x2, [x0]
	subs	x3, x3, x2
	mov	x2, 0
	beq	.L166
	bl	__stack_chk_fail
.L166:
	mov	x0, x1
	ldp	x29, x30, [sp], 48
	.cfi_restore 30
	.cfi_restore 29
	.cfi_def_cfa_offset 0
	ret
	.cfi_endproc
.LFE2855:
	.size	_ZNKSt6vectorIS_IiSaIiEESaIS1_EE5beginEv, .-_ZNKSt6vectorIS_IiSaIiEESaIS1_EE5beginEv
	.section	.text._ZNKSt6vectorIS_IiSaIiEESaIS1_EE3endEv,"axG",@progbits,_ZNKSt6vectorIS_IiSaIiEESaIS1_EE3endEv,comdat
	.align	2
	.weak	_ZNKSt6vectorIS_IiSaIiEESaIS1_EE3endEv
	.type	_ZNKSt6vectorIS_IiSaIiEESaIS1_EE3endEv, %function
_ZNKSt6vectorIS_IiSaIiEESaIS1_EE3endEv:
.LFB2856:
	.cfi_startproc
	stp	x29, x30, [sp, -48]!
	.cfi_def_cfa_offset 48
	.cfi_offset 29, -48
	.cfi_offset 30, -40
	mov	x29, sp
	str	x0, [sp, 24]
	adrp	x0, :got:__stack_chk_guard
	ldr	x0, [x0, #:got_lo12:__stack_chk_guard]
	ldr	x1, [x0]
	str	x1, [sp, 40]
	mov	x1, 0
	ldr	x0, [sp, 24]
	add	x1, x0, 8
	add	x0, sp, 32
	bl	_ZN9__gnu_cxx17__normal_iteratorIPKSt6vectorIiSaIiEES1_IS3_SaIS3_EEEC1ERKS5_
	ldr	x0, [sp, 32]
	mov	x1, x0
	adrp	x0, :got:__stack_chk_guard
	ldr	x0, [x0, #:got_lo12:__stack_chk_guard]
	ldr	x3, [sp, 40]
	ldr	x2, [x0]
	subs	x3, x3, x2
	mov	x2, 0
	beq	.L169
	bl	__stack_chk_fail
.L169:
	mov	x0, x1
	ldp	x29, x30, [sp], 48
	.cfi_restore 30
	.cfi_restore 29
	.cfi_def_cfa_offset 0
	ret
	.cfi_endproc
.LFE2856:
	.size	_ZNKSt6vectorIS_IiSaIiEESaIS1_EE3endEv, .-_ZNKSt6vectorIS_IiSaIiEESaIS1_EE3endEv
	.section	.text._ZN9__gnu_cxxneIPKSt6vectorIiSaIiEES1_IS3_SaIS3_EEEEbRKNS_17__normal_iteratorIT_T0_EESD_,"axG",@progbits,_ZN9__gnu_cxxneIPKSt6vectorIiSaIiEES1_IS3_SaIS3_EEEEbRKNS_17__normal_iteratorIT_T0_EESD_,comdat
	.align	2
	.weak	_ZN9__gnu_cxxneIPKSt6vectorIiSaIiEES1_IS3_SaIS3_EEEEbRKNS_17__normal_iteratorIT_T0_EESD_
	.type	_ZN9__gnu_cxxneIPKSt6vectorIiSaIiEES1_IS3_SaIS3_EEEEbRKNS_17__normal_iteratorIT_T0_EESD_, %function
_ZN9__gnu_cxxneIPKSt6vectorIiSaIiEES1_IS3_SaIS3_EEEEbRKNS_17__normal_iteratorIT_T0_EESD_:
.LFB2857:
	.cfi_startproc
	stp	x29, x30, [sp, -48]!
	.cfi_def_cfa_offset 48
	.cfi_offset 29, -48
	.cfi_offset 30, -40
	mov	x29, sp
	str	x19, [sp, 16]
	.cfi_offset 19, -32
	str	x0, [sp, 40]
	str	x1, [sp, 32]
	ldr	x0, [sp, 40]
	bl	_ZNK9__gnu_cxx17__normal_iteratorIPKSt6vectorIiSaIiEES1_IS3_SaIS3_EEE4baseEv
	ldr	x19, [x0]
	ldr	x0, [sp, 32]
	bl	_ZNK9__gnu_cxx17__normal_iteratorIPKSt6vectorIiSaIiEES1_IS3_SaIS3_EEE4baseEv
	ldr	x0, [x0]
	cmp	x19, x0
	cset	w0, ne
	and	w0, w0, 255
	ldr	x19, [sp, 16]
	ldp	x29, x30, [sp], 48
	.cfi_restore 30
	.cfi_restore 29
	.cfi_restore 19
	.cfi_def_cfa_offset 0
	ret
	.cfi_endproc
.LFE2857:
	.size	_ZN9__gnu_cxxneIPKSt6vectorIiSaIiEES1_IS3_SaIS3_EEEEbRKNS_17__normal_iteratorIT_T0_EESD_, .-_ZN9__gnu_cxxneIPKSt6vectorIiSaIiEES1_IS3_SaIS3_EEEEbRKNS_17__normal_iteratorIT_T0_EESD_
	.section	.text._ZN9__gnu_cxx17__normal_iteratorIPKSt6vectorIiSaIiEES1_IS3_SaIS3_EEEppEv,"axG",@progbits,_ZN9__gnu_cxx17__normal_iteratorIPKSt6vectorIiSaIiEES1_IS3_SaIS3_EEEppEv,comdat
	.align	2
	.weak	_ZN9__gnu_cxx17__normal_iteratorIPKSt6vectorIiSaIiEES1_IS3_SaIS3_EEEppEv
	.type	_ZN9__gnu_cxx17__normal_iteratorIPKSt6vectorIiSaIiEES1_IS3_SaIS3_EEEppEv, %function
_ZN9__gnu_cxx17__normal_iteratorIPKSt6vectorIiSaIiEES1_IS3_SaIS3_EEEppEv:
.LFB2858:
	.cfi_startproc
	sub	sp, sp, #16
	.cfi_def_cfa_offset 16
	str	x0, [sp, 8]
	ldr	x0, [sp, 8]
	ldr	x0, [x0]
	add	x1, x0, 24
	ldr	x0, [sp, 8]
	str	x1, [x0]
	ldr	x0, [sp, 8]
	add	sp, sp, 16
	.cfi_def_cfa_offset 0
	ret
	.cfi_endproc
.LFE2858:
	.size	_ZN9__gnu_cxx17__normal_iteratorIPKSt6vectorIiSaIiEES1_IS3_SaIS3_EEEppEv, .-_ZN9__gnu_cxx17__normal_iteratorIPKSt6vectorIiSaIiEES1_IS3_SaIS3_EEEppEv
	.section	.text._ZNK9__gnu_cxx17__normal_iteratorIPKSt6vectorIiSaIiEES1_IS3_SaIS3_EEEdeEv,"axG",@progbits,_ZNK9__gnu_cxx17__normal_iteratorIPKSt6vectorIiSaIiEES1_IS3_SaIS3_EEEdeEv,comdat
	.align	2
	.weak	_ZNK9__gnu_cxx17__normal_iteratorIPKSt6vectorIiSaIiEES1_IS3_SaIS3_EEEdeEv
	.type	_ZNK9__gnu_cxx17__normal_iteratorIPKSt6vectorIiSaIiEES1_IS3_SaIS3_EEEdeEv, %function
_ZNK9__gnu_cxx17__normal_iteratorIPKSt6vectorIiSaIiEES1_IS3_SaIS3_EEEdeEv:
.LFB2859:
	.cfi_startproc
	sub	sp, sp, #16
	.cfi_def_cfa_offset 16
	str	x0, [sp, 8]
	ldr	x0, [sp, 8]
	ldr	x0, [x0]
	add	sp, sp, 16
	.cfi_def_cfa_offset 0
	ret
	.cfi_endproc
.LFE2859:
	.size	_ZNK9__gnu_cxx17__normal_iteratorIPKSt6vectorIiSaIiEES1_IS3_SaIS3_EEEdeEv, .-_ZNK9__gnu_cxx17__normal_iteratorIPKSt6vectorIiSaIiEES1_IS3_SaIS3_EEEdeEv
	.section	.text._ZNKSt6vectorIiSaIiEE5beginEv,"axG",@progbits,_ZNKSt6vectorIiSaIiEE5beginEv,comdat
	.align	2
	.weak	_ZNKSt6vectorIiSaIiEE5beginEv
	.type	_ZNKSt6vectorIiSaIiEE5beginEv, %function
_ZNKSt6vectorIiSaIiEE5beginEv:
.LFB2860:
	.cfi_startproc
	stp	x29, x30, [sp, -48]!
	.cfi_def_cfa_offset 48
	.cfi_offset 29, -48
	.cfi_offset 30, -40
	mov	x29, sp
	str	x0, [sp, 24]
	adrp	x0, :got:__stack_chk_guard
	ldr	x0, [x0, #:got_lo12:__stack_chk_guard]
	ldr	x1, [x0]
	str	x1, [sp, 40]
	mov	x1, 0
	ldr	x1, [sp, 24]
	add	x0, sp, 32
	bl	_ZN9__gnu_cxx17__normal_iteratorIPKiSt6vectorIiSaIiEEEC1ERKS2_
	ldr	x0, [sp, 32]
	mov	x1, x0
	adrp	x0, :got:__stack_chk_guard
	ldr	x0, [x0, #:got_lo12:__stack_chk_guard]
	ldr	x3, [sp, 40]
	ldr	x2, [x0]
	subs	x3, x3, x2
	mov	x2, 0
	beq	.L178
	bl	__stack_chk_fail
.L178:
	mov	x0, x1
	ldp	x29, x30, [sp], 48
	.cfi_restore 30
	.cfi_restore 29
	.cfi_def_cfa_offset 0
	ret
	.cfi_endproc
.LFE2860:
	.size	_ZNKSt6vectorIiSaIiEE5beginEv, .-_ZNKSt6vectorIiSaIiEE5beginEv
	.section	.text._ZNKSt6vectorIiSaIiEE3endEv,"axG",@progbits,_ZNKSt6vectorIiSaIiEE3endEv,comdat
	.align	2
	.weak	_ZNKSt6vectorIiSaIiEE3endEv
	.type	_ZNKSt6vectorIiSaIiEE3endEv, %function
_ZNKSt6vectorIiSaIiEE3endEv:
.LFB2861:
	.cfi_startproc
	stp	x29, x30, [sp, -48]!
	.cfi_def_cfa_offset 48
	.cfi_offset 29, -48
	.cfi_offset 30, -40
	mov	x29, sp
	str	x0, [sp, 24]
	adrp	x0, :got:__stack_chk_guard
	ldr	x0, [x0, #:got_lo12:__stack_chk_guard]
	ldr	x1, [x0]
	str	x1, [sp, 40]
	mov	x1, 0
	ldr	x0, [sp, 24]
	add	x1, x0, 8
	add	x0, sp, 32
	bl	_ZN9__gnu_cxx17__normal_iteratorIPKiSt6vectorIiSaIiEEEC1ERKS2_
	ldr	x0, [sp, 32]
	mov	x1, x0
	adrp	x0, :got:__stack_chk_guard
	ldr	x0, [x0, #:got_lo12:__stack_chk_guard]
	ldr	x3, [sp, 40]
	ldr	x2, [x0]
	subs	x3, x3, x2
	mov	x2, 0
	beq	.L181
	bl	__stack_chk_fail
.L181:
	mov	x0, x1
	ldp	x29, x30, [sp], 48
	.cfi_restore 30
	.cfi_restore 29
	.cfi_def_cfa_offset 0
	ret
	.cfi_endproc
.LFE2861:
	.size	_ZNKSt6vectorIiSaIiEE3endEv, .-_ZNKSt6vectorIiSaIiEE3endEv
	.section	.text._ZN9__gnu_cxxneIPKiSt6vectorIiSaIiEEEEbRKNS_17__normal_iteratorIT_T0_EESB_,"axG",@progbits,_ZN9__gnu_cxxneIPKiSt6vectorIiSaIiEEEEbRKNS_17__normal_iteratorIT_T0_EESB_,comdat
	.align	2
	.weak	_ZN9__gnu_cxxneIPKiSt6vectorIiSaIiEEEEbRKNS_17__normal_iteratorIT_T0_EESB_
	.type	_ZN9__gnu_cxxneIPKiSt6vectorIiSaIiEEEEbRKNS_17__normal_iteratorIT_T0_EESB_, %function
_ZN9__gnu_cxxneIPKiSt6vectorIiSaIiEEEEbRKNS_17__normal_iteratorIT_T0_EESB_:
.LFB2862:
	.cfi_startproc
	stp	x29, x30, [sp, -48]!
	.cfi_def_cfa_offset 48
	.cfi_offset 29, -48
	.cfi_offset 30, -40
	mov	x29, sp
	str	x19, [sp, 16]
	.cfi_offset 19, -32
	str	x0, [sp, 40]
	str	x1, [sp, 32]
	ldr	x0, [sp, 40]
	bl	_ZNK9__gnu_cxx17__normal_iteratorIPKiSt6vectorIiSaIiEEE4baseEv
	ldr	x19, [x0]
	ldr	x0, [sp, 32]
	bl	_ZNK9__gnu_cxx17__normal_iteratorIPKiSt6vectorIiSaIiEEE4baseEv
	ldr	x0, [x0]
	cmp	x19, x0
	cset	w0, ne
	and	w0, w0, 255
	ldr	x19, [sp, 16]
	ldp	x29, x30, [sp], 48
	.cfi_restore 30
	.cfi_restore 29
	.cfi_restore 19
	.cfi_def_cfa_offset 0
	ret
	.cfi_endproc
.LFE2862:
	.size	_ZN9__gnu_cxxneIPKiSt6vectorIiSaIiEEEEbRKNS_17__normal_iteratorIT_T0_EESB_, .-_ZN9__gnu_cxxneIPKiSt6vectorIiSaIiEEEEbRKNS_17__normal_iteratorIT_T0_EESB_
	.section	.text._ZN9__gnu_cxx17__normal_iteratorIPKiSt6vectorIiSaIiEEEppEv,"axG",@progbits,_ZN9__gnu_cxx17__normal_iteratorIPKiSt6vectorIiSaIiEEEppEv,comdat
	.align	2
	.weak	_ZN9__gnu_cxx17__normal_iteratorIPKiSt6vectorIiSaIiEEEppEv
	.type	_ZN9__gnu_cxx17__normal_iteratorIPKiSt6vectorIiSaIiEEEppEv, %function
_ZN9__gnu_cxx17__normal_iteratorIPKiSt6vectorIiSaIiEEEppEv:
.LFB2863:
	.cfi_startproc
	sub	sp, sp, #16
	.cfi_def_cfa_offset 16
	str	x0, [sp, 8]
	ldr	x0, [sp, 8]
	ldr	x0, [x0]
	add	x1, x0, 4
	ldr	x0, [sp, 8]
	str	x1, [x0]
	ldr	x0, [sp, 8]
	add	sp, sp, 16
	.cfi_def_cfa_offset 0
	ret
	.cfi_endproc
.LFE2863:
	.size	_ZN9__gnu_cxx17__normal_iteratorIPKiSt6vectorIiSaIiEEEppEv, .-_ZN9__gnu_cxx17__normal_iteratorIPKiSt6vectorIiSaIiEEEppEv
	.section	.text._ZNK9__gnu_cxx17__normal_iteratorIPKiSt6vectorIiSaIiEEEdeEv,"axG",@progbits,_ZNK9__gnu_cxx17__normal_iteratorIPKiSt6vectorIiSaIiEEEdeEv,comdat
	.align	2
	.weak	_ZNK9__gnu_cxx17__normal_iteratorIPKiSt6vectorIiSaIiEEEdeEv
	.type	_ZNK9__gnu_cxx17__normal_iteratorIPKiSt6vectorIiSaIiEEEdeEv, %function
_ZNK9__gnu_cxx17__normal_iteratorIPKiSt6vectorIiSaIiEEEdeEv:
.LFB2864:
	.cfi_startproc
	sub	sp, sp, #16
	.cfi_def_cfa_offset 16
	str	x0, [sp, 8]
	ldr	x0, [sp, 8]
	ldr	x0, [x0]
	add	sp, sp, 16
	.cfi_def_cfa_offset 0
	ret
	.cfi_endproc
.LFE2864:
	.size	_ZNK9__gnu_cxx17__normal_iteratorIPKiSt6vectorIiSaIiEEEdeEv, .-_ZNK9__gnu_cxx17__normal_iteratorIPKiSt6vectorIiSaIiEEEdeEv
	.section	.text._ZNSt11_Deque_baseIP8TreeNodeSaIS1_EE11_Deque_implC2Ev,"axG",@progbits,_ZNSt11_Deque_baseIP8TreeNodeSaIS1_EE11_Deque_implC5Ev,comdat
	.align	2
	.weak	_ZNSt11_Deque_baseIP8TreeNodeSaIS1_EE11_Deque_implC2Ev
	.type	_ZNSt11_Deque_baseIP8TreeNodeSaIS1_EE11_Deque_implC2Ev, %function
_ZNSt11_Deque_baseIP8TreeNodeSaIS1_EE11_Deque_implC2Ev:
.LFB2903:
	.cfi_startproc
	stp	x29, x30, [sp, -32]!
	.cfi_def_cfa_offset 32
	.cfi_offset 29, -32
	.cfi_offset 30, -24
	mov	x29, sp
	str	x0, [sp, 24]
	ldr	x0, [sp, 24]
	bl	_ZNSaIP8TreeNodeEC2Ev
	ldr	x0, [sp, 24]
	bl	_ZNSt11_Deque_baseIP8TreeNodeSaIS1_EE16_Deque_impl_dataC2Ev
	nop
	ldp	x29, x30, [sp], 32
	.cfi_restore 30
	.cfi_restore 29
	.cfi_def_cfa_offset 0
	ret
	.cfi_endproc
.LFE2903:
	.size	_ZNSt11_Deque_baseIP8TreeNodeSaIS1_EE11_Deque_implC2Ev, .-_ZNSt11_Deque_baseIP8TreeNodeSaIS1_EE11_Deque_implC2Ev
	.weak	_ZNSt11_Deque_baseIP8TreeNodeSaIS1_EE11_Deque_implC1Ev
	.set	_ZNSt11_Deque_baseIP8TreeNodeSaIS1_EE11_Deque_implC1Ev,_ZNSt11_Deque_baseIP8TreeNodeSaIS1_EE11_Deque_implC2Ev
	.section	.text._ZNSaIP8TreeNodeED2Ev,"axG",@progbits,_ZNSaIP8TreeNodeED5Ev,comdat
	.align	2
	.weak	_ZNSaIP8TreeNodeED2Ev
	.type	_ZNSaIP8TreeNodeED2Ev, %function
_ZNSaIP8TreeNodeED2Ev:
.LFB2906:
	.cfi_startproc
	stp	x29, x30, [sp, -32]!
	.cfi_def_cfa_offset 32
	.cfi_offset 29, -32
	.cfi_offset 30, -24
	mov	x29, sp
	str	x0, [sp, 24]
	ldr	x0, [sp, 24]
	bl	_ZN9__gnu_cxx13new_allocatorIP8TreeNodeED2Ev
	nop
	ldp	x29, x30, [sp], 32
	.cfi_restore 30
	.cfi_restore 29
	.cfi_def_cfa_offset 0
	ret
	.cfi_endproc
.LFE2906:
	.size	_ZNSaIP8TreeNodeED2Ev, .-_ZNSaIP8TreeNodeED2Ev
	.weak	_ZNSaIP8TreeNodeED1Ev
	.set	_ZNSaIP8TreeNodeED1Ev,_ZNSaIP8TreeNodeED2Ev
	.section	.text._ZNSt11_Deque_baseIP8TreeNodeSaIS1_EE17_M_initialize_mapEm,"axG",@progbits,_ZNSt11_Deque_baseIP8TreeNodeSaIS1_EE17_M_initialize_mapEm,comdat
	.align	2
	.weak	_ZNSt11_Deque_baseIP8TreeNodeSaIS1_EE17_M_initialize_mapEm
	.type	_ZNSt11_Deque_baseIP8TreeNodeSaIS1_EE17_M_initialize_mapEm, %function
_ZNSt11_Deque_baseIP8TreeNodeSaIS1_EE17_M_initialize_mapEm:
.LFB2908:
	.cfi_startproc
	.cfi_personality 0x9b,DW.ref.__gxx_personality_v0
	.cfi_lsda 0x1b,.LLSDA2908
	stp	x29, x30, [sp, -96]!
	.cfi_def_cfa_offset 96
	.cfi_offset 29, -96
	.cfi_offset 30, -88
	mov	x29, sp
	str	x19, [sp, 16]
	.cfi_offset 19, -80
	str	x0, [sp, 40]
	str	x1, [sp, 32]
	adrp	x0, :got:__stack_chk_guard
	ldr	x0, [x0, #:got_lo12:__stack_chk_guard]
	ldr	x1, [x0]
	str	x1, [sp, 88]
	mov	x1, 0
	mov	x0, 8
	bl	_ZSt16__deque_buf_sizem
	mov	x1, x0
	ldr	x0, [sp, 32]
	udiv	x0, x0, x1
	add	x0, x0, 1
	str	x0, [sp, 64]
	mov	x0, 8
	str	x0, [sp, 48]
	ldr	x0, [sp, 64]
	add	x0, x0, 2
	str	x0, [sp, 56]
	add	x1, sp, 56
	add	x0, sp, 48
	bl	_ZSt3maxImERKT_S2_S2_
	ldr	x1, [x0]
	ldr	x0, [sp, 40]
	str	x1, [x0, 8]
	ldr	x0, [sp, 40]
	ldr	x0, [x0, 8]
	mov	x1, x0
	ldr	x0, [sp, 40]
.LEHB13:
	bl	_ZNSt11_Deque_baseIP8TreeNodeSaIS1_EE15_M_allocate_mapEm
.LEHE13:
	mov	x1, x0
	ldr	x0, [sp, 40]
	str	x1, [x0]
	ldr	x0, [sp, 40]
	ldr	x1, [x0]
	ldr	x0, [sp, 40]
	ldr	x2, [x0, 8]
	ldr	x0, [sp, 64]
	sub	x0, x2, x0
	lsr	x0, x0, 1
	lsl	x0, x0, 3
	add	x0, x1, x0
	str	x0, [sp, 72]
	ldr	x0, [sp, 64]
	lsl	x0, x0, 3
	ldr	x1, [sp, 72]
	add	x0, x1, x0
	str	x0, [sp, 80]
	ldr	x2, [sp, 80]
	ldr	x1, [sp, 72]
	ldr	x0, [sp, 40]
.LEHB14:
	bl	_ZNSt11_Deque_baseIP8TreeNodeSaIS1_EE15_M_create_nodesEPPS1_S5_
.LEHE14:
	ldr	x0, [sp, 40]
	add	x0, x0, 16
	ldr	x1, [sp, 72]
	bl	_ZNSt15_Deque_iteratorIP8TreeNodeRS1_PS1_E11_M_set_nodeEPS3_
	ldr	x0, [sp, 40]
	add	x2, x0, 48
	ldr	x0, [sp, 80]
	sub	x0, x0, #8
	mov	x1, x0
	mov	x0, x2
	bl	_ZNSt15_Deque_iteratorIP8TreeNodeRS1_PS1_E11_M_set_nodeEPS3_
	ldr	x0, [sp, 40]
	ldr	x1, [x0, 24]
	ldr	x0, [sp, 40]
	str	x1, [x0, 16]
	ldr	x0, [sp, 40]
	ldr	x19, [x0, 56]
	mov	x0, 8
	bl	_ZSt16__deque_buf_sizem
	mov	x1, x0
	ldr	x0, [sp, 32]
	udiv	x2, x0, x1
	mul	x1, x2, x1
	sub	x0, x0, x1
	lsl	x0, x0, 3
	add	x1, x19, x0
	ldr	x0, [sp, 40]
	str	x1, [x0, 48]
	nop
	adrp	x0, :got:__stack_chk_guard
	ldr	x0, [x0, #:got_lo12:__stack_chk_guard]
	ldr	x2, [sp, 88]
	ldr	x1, [x0]
	subs	x2, x2, x1
	mov	x1, 0
	beq	.L193
	b	.L196
.L194:
	bl	__cxa_begin_catch
	ldr	x0, [sp, 40]
	ldr	x1, [x0]
	ldr	x0, [sp, 40]
	ldr	x0, [x0, 8]
	mov	x2, x0
	ldr	x0, [sp, 40]
	bl	_ZNSt11_Deque_baseIP8TreeNodeSaIS1_EE17_M_deallocate_mapEPPS1_m
	ldr	x0, [sp, 40]
	str	xzr, [x0]
	ldr	x0, [sp, 40]
	str	xzr, [x0, 8]
.LEHB15:
	bl	__cxa_rethrow
.LEHE15:
.L195:
	mov	x19, x0
	bl	__cxa_end_catch
	mov	x0, x19
.LEHB16:
	bl	_Unwind_Resume
.LEHE16:
.L196:
	bl	__stack_chk_fail
.L193:
	ldr	x19, [sp, 16]
	ldp	x29, x30, [sp], 96
	.cfi_restore 30
	.cfi_restore 29
	.cfi_restore 19
	.cfi_def_cfa_offset 0
	ret
	.cfi_endproc
.LFE2908:
	.section	.gcc_except_table
	.align	2
.LLSDA2908:
	.byte	0xff
	.byte	0x9b
	.uleb128 .LLSDATT2908-.LLSDATTD2908
.LLSDATTD2908:
	.byte	0x1
	.uleb128 .LLSDACSE2908-.LLSDACSB2908
.LLSDACSB2908:
	.uleb128 .LEHB13-.LFB2908
	.uleb128 .LEHE13-.LEHB13
	.uleb128 0
	.uleb128 0
	.uleb128 .LEHB14-.LFB2908
	.uleb128 .LEHE14-.LEHB14
	.uleb128 .L194-.LFB2908
	.uleb128 0x1
	.uleb128 .LEHB15-.LFB2908
	.uleb128 .LEHE15-.LEHB15
	.uleb128 .L195-.LFB2908
	.uleb128 0
	.uleb128 .LEHB16-.LFB2908
	.uleb128 .LEHE16-.LEHB16
	.uleb128 0
	.uleb128 0
.LLSDACSE2908:
	.byte	0x1
	.byte	0
	.align	2
	.4byte	0

.LLSDATT2908:
	.section	.text._ZNSt11_Deque_baseIP8TreeNodeSaIS1_EE17_M_initialize_mapEm,"axG",@progbits,_ZNSt11_Deque_baseIP8TreeNodeSaIS1_EE17_M_initialize_mapEm,comdat
	.size	_ZNSt11_Deque_baseIP8TreeNodeSaIS1_EE17_M_initialize_mapEm, .-_ZNSt11_Deque_baseIP8TreeNodeSaIS1_EE17_M_initialize_mapEm
	.section	.text._ZNSt11_Deque_baseIP8TreeNodeSaIS1_EE16_M_destroy_nodesEPPS1_S5_,"axG",@progbits,_ZNSt11_Deque_baseIP8TreeNodeSaIS1_EE16_M_destroy_nodesEPPS1_S5_,comdat
	.align	2
	.weak	_ZNSt11_Deque_baseIP8TreeNodeSaIS1_EE16_M_destroy_nodesEPPS1_S5_
	.type	_ZNSt11_Deque_baseIP8TreeNodeSaIS1_EE16_M_destroy_nodesEPPS1_S5_, %function
_ZNSt11_Deque_baseIP8TreeNodeSaIS1_EE16_M_destroy_nodesEPPS1_S5_:
.LFB2909:
	.cfi_startproc
	stp	x29, x30, [sp, -64]!
	.cfi_def_cfa_offset 64
	.cfi_offset 29, -64
	.cfi_offset 30, -56
	mov	x29, sp
	str	x0, [sp, 40]
	str	x1, [sp, 32]
	str	x2, [sp, 24]
	ldr	x0, [sp, 32]
	str	x0, [sp, 56]
	b	.L198
.L199:
	ldr	x0, [sp, 56]
	ldr	x0, [x0]
	mov	x1, x0
	ldr	x0, [sp, 40]
	bl	_ZNSt11_Deque_baseIP8TreeNodeSaIS1_EE18_M_deallocate_nodeEPS1_
	ldr	x0, [sp, 56]
	add	x0, x0, 8
	str	x0, [sp, 56]
.L198:
	ldr	x1, [sp, 56]
	ldr	x0, [sp, 24]
	cmp	x1, x0
	bcc	.L199
	nop
	nop
	ldp	x29, x30, [sp], 64
	.cfi_restore 30
	.cfi_restore 29
	.cfi_def_cfa_offset 0
	ret
	.cfi_endproc
.LFE2909:
	.size	_ZNSt11_Deque_baseIP8TreeNodeSaIS1_EE16_M_destroy_nodesEPPS1_S5_, .-_ZNSt11_Deque_baseIP8TreeNodeSaIS1_EE16_M_destroy_nodesEPPS1_S5_
	.section	.text._ZNSt11_Deque_baseIP8TreeNodeSaIS1_EE17_M_deallocate_mapEPPS1_m,"axG",@progbits,_ZNSt11_Deque_baseIP8TreeNodeSaIS1_EE17_M_deallocate_mapEPPS1_m,comdat
	.align	2
	.weak	_ZNSt11_Deque_baseIP8TreeNodeSaIS1_EE17_M_deallocate_mapEPPS1_m
	.type	_ZNSt11_Deque_baseIP8TreeNodeSaIS1_EE17_M_deallocate_mapEPPS1_m, %function
_ZNSt11_Deque_baseIP8TreeNodeSaIS1_EE17_M_deallocate_mapEPPS1_m:
.LFB2910:
	.cfi_startproc
	.cfi_personality 0x9b,DW.ref.__gxx_personality_v0
	.cfi_lsda 0x1b,.LLSDA2910
	stp	x29, x30, [sp, -64]!
	.cfi_def_cfa_offset 64
	.cfi_offset 29, -64
	.cfi_offset 30, -56
	mov	x29, sp
	str	x0, [sp, 40]
	str	x1, [sp, 32]
	str	x2, [sp, 24]
	adrp	x0, :got:__stack_chk_guard
	ldr	x0, [x0, #:got_lo12:__stack_chk_guard]
	ldr	x1, [x0]
	str	x1, [sp, 56]
	mov	x1, 0
	add	x0, sp, 48
	mov	x8, x0
	ldr	x0, [sp, 40]
	bl	_ZNKSt11_Deque_baseIP8TreeNodeSaIS1_EE20_M_get_map_allocatorEv
	add	x0, sp, 48
	ldr	x2, [sp, 24]
	ldr	x1, [sp, 32]
	bl	_ZNSt16allocator_traitsISaIPP8TreeNodeEE10deallocateERS3_PS2_m
	add	x0, sp, 48
	bl	_ZNSaIPP8TreeNodeED1Ev
	adrp	x0, :got:__stack_chk_guard
	ldr	x0, [x0, #:got_lo12:__stack_chk_guard]
	ldr	x2, [sp, 56]
	ldr	x1, [x0]
	subs	x2, x2, x1
	mov	x1, 0
	beq	.L201
	bl	__stack_chk_fail
.L201:
	ldp	x29, x30, [sp], 64
	.cfi_restore 30
	.cfi_restore 29
	.cfi_def_cfa_offset 0
	ret
	.cfi_endproc
.LFE2910:
	.section	.gcc_except_table
.LLSDA2910:
	.byte	0xff
	.byte	0xff
	.byte	0x1
	.uleb128 .LLSDACSE2910-.LLSDACSB2910
.LLSDACSB2910:
.LLSDACSE2910:
	.section	.text._ZNSt11_Deque_baseIP8TreeNodeSaIS1_EE17_M_deallocate_mapEPPS1_m,"axG",@progbits,_ZNSt11_Deque_baseIP8TreeNodeSaIS1_EE17_M_deallocate_mapEPPS1_m,comdat
	.size	_ZNSt11_Deque_baseIP8TreeNodeSaIS1_EE17_M_deallocate_mapEPPS1_m, .-_ZNSt11_Deque_baseIP8TreeNodeSaIS1_EE17_M_deallocate_mapEPPS1_m
	.section	.text._ZNSt15_Deque_iteratorIP8TreeNodeRS1_PS1_EC2ERKS4_,"axG",@progbits,_ZNSt15_Deque_iteratorIP8TreeNodeRS1_PS1_EC5ERKS4_,comdat
	.align	2
	.weak	_ZNSt15_Deque_iteratorIP8TreeNodeRS1_PS1_EC2ERKS4_
	.type	_ZNSt15_Deque_iteratorIP8TreeNodeRS1_PS1_EC2ERKS4_, %function
_ZNSt15_Deque_iteratorIP8TreeNodeRS1_PS1_EC2ERKS4_:
.LFB2912:
	.cfi_startproc
	sub	sp, sp, #16
	.cfi_def_cfa_offset 16
	str	x0, [sp, 8]
	str	x1, [sp]
	ldr	x0, [sp]
	ldr	x1, [x0]
	ldr	x0, [sp, 8]
	str	x1, [x0]
	ldr	x0, [sp]
	ldr	x1, [x0, 8]
	ldr	x0, [sp, 8]
	str	x1, [x0, 8]
	ldr	x0, [sp]
	ldr	x1, [x0, 16]
	ldr	x0, [sp, 8]
	str	x1, [x0, 16]
	ldr	x0, [sp]
	ldr	x1, [x0, 24]
	ldr	x0, [sp, 8]
	str	x1, [x0, 24]
	nop
	add	sp, sp, 16
	.cfi_def_cfa_offset 0
	ret
	.cfi_endproc
.LFE2912:
	.size	_ZNSt15_Deque_iteratorIP8TreeNodeRS1_PS1_EC2ERKS4_, .-_ZNSt15_Deque_iteratorIP8TreeNodeRS1_PS1_EC2ERKS4_
	.weak	_ZNSt15_Deque_iteratorIP8TreeNodeRS1_PS1_EC1ERKS4_
	.set	_ZNSt15_Deque_iteratorIP8TreeNodeRS1_PS1_EC1ERKS4_,_ZNSt15_Deque_iteratorIP8TreeNodeRS1_PS1_EC2ERKS4_
	.section	.text._ZN9__gnu_cxx13new_allocatorISt6vectorIiSaIiEEEC2Ev,"axG",@progbits,_ZN9__gnu_cxx13new_allocatorISt6vectorIiSaIiEEEC5Ev,comdat
	.align	2
	.weak	_ZN9__gnu_cxx13new_allocatorISt6vectorIiSaIiEEEC2Ev
	.type	_ZN9__gnu_cxx13new_allocatorISt6vectorIiSaIiEEEC2Ev, %function
_ZN9__gnu_cxx13new_allocatorISt6vectorIiSaIiEEEC2Ev:
.LFB2916:
	.cfi_startproc
	sub	sp, sp, #16
	.cfi_def_cfa_offset 16
	str	x0, [sp, 8]
	nop
	add	sp, sp, 16
	.cfi_def_cfa_offset 0
	ret
	.cfi_endproc
.LFE2916:
	.size	_ZN9__gnu_cxx13new_allocatorISt6vectorIiSaIiEEEC2Ev, .-_ZN9__gnu_cxx13new_allocatorISt6vectorIiSaIiEEEC2Ev
	.weak	_ZN9__gnu_cxx13new_allocatorISt6vectorIiSaIiEEEC1Ev
	.set	_ZN9__gnu_cxx13new_allocatorISt6vectorIiSaIiEEEC1Ev,_ZN9__gnu_cxx13new_allocatorISt6vectorIiSaIiEEEC2Ev
	.section	.text._ZNSt16allocator_traitsISaISt6vectorIiSaIiEEEE10deallocateERS3_PS2_m,"axG",@progbits,_ZNSt16allocator_traitsISaISt6vectorIiSaIiEEEE10deallocateERS3_PS2_m,comdat
	.align	2
	.weak	_ZNSt16allocator_traitsISaISt6vectorIiSaIiEEEE10deallocateERS3_PS2_m
	.type	_ZNSt16allocator_traitsISaISt6vectorIiSaIiEEEE10deallocateERS3_PS2_m, %function
_ZNSt16allocator_traitsISaISt6vectorIiSaIiEEEE10deallocateERS3_PS2_m:
.LFB2918:
	.cfi_startproc
	stp	x29, x30, [sp, -48]!
	.cfi_def_cfa_offset 48
	.cfi_offset 29, -48
	.cfi_offset 30, -40
	mov	x29, sp
	str	x0, [sp, 40]
	str	x1, [sp, 32]
	str	x2, [sp, 24]
	ldr	x2, [sp, 24]
	ldr	x1, [sp, 32]
	ldr	x0, [sp, 40]
	bl	_ZN9__gnu_cxx13new_allocatorISt6vectorIiSaIiEEE10deallocateEPS3_m
	nop
	ldp	x29, x30, [sp], 48
	.cfi_restore 30
	.cfi_restore 29
	.cfi_def_cfa_offset 0
	ret
	.cfi_endproc
.LFE2918:
	.size	_ZNSt16allocator_traitsISaISt6vectorIiSaIiEEEE10deallocateERS3_PS2_m, .-_ZNSt16allocator_traitsISaISt6vectorIiSaIiEEEE10deallocateERS3_PS2_m
	.section	.text._ZSt8_DestroyIPSt6vectorIiSaIiEEEvT_S4_,"axG",@progbits,_ZSt8_DestroyIPSt6vectorIiSaIiEEEvT_S4_,comdat
	.align	2
	.weak	_ZSt8_DestroyIPSt6vectorIiSaIiEEEvT_S4_
	.type	_ZSt8_DestroyIPSt6vectorIiSaIiEEEvT_S4_, %function
_ZSt8_DestroyIPSt6vectorIiSaIiEEEvT_S4_:
.LFB2919:
	.cfi_startproc
	stp	x29, x30, [sp, -32]!
	.cfi_def_cfa_offset 32
	.cfi_offset 29, -32
	.cfi_offset 30, -24
	mov	x29, sp
	str	x0, [sp, 24]
	str	x1, [sp, 16]
	ldr	x1, [sp, 16]
	ldr	x0, [sp, 24]
	bl	_ZNSt12_Destroy_auxILb0EE9__destroyIPSt6vectorIiSaIiEEEEvT_S6_
	nop
	ldp	x29, x30, [sp], 32
	.cfi_restore 30
	.cfi_restore 29
	.cfi_def_cfa_offset 0
	ret
	.cfi_endproc
.LFE2919:
	.size	_ZSt8_DestroyIPSt6vectorIiSaIiEEEvT_S4_, .-_ZSt8_DestroyIPSt6vectorIiSaIiEEEvT_S4_
	.section	.text._ZNSt16allocator_traitsISaIP8TreeNodeEE9constructIS1_JRKS1_EEEvRS2_PT_DpOT0_,"axG",@progbits,_ZNSt16allocator_traitsISaIP8TreeNodeEE9constructIS1_JRKS1_EEEvRS2_PT_DpOT0_,comdat
	.align	2
	.weak	_ZNSt16allocator_traitsISaIP8TreeNodeEE9constructIS1_JRKS1_EEEvRS2_PT_DpOT0_
	.type	_ZNSt16allocator_traitsISaIP8TreeNodeEE9constructIS1_JRKS1_EEEvRS2_PT_DpOT0_, %function
_ZNSt16allocator_traitsISaIP8TreeNodeEE9constructIS1_JRKS1_EEEvRS2_PT_DpOT0_:
.LFB2920:
	.cfi_startproc
	stp	x29, x30, [sp, -48]!
	.cfi_def_cfa_offset 48
	.cfi_offset 29, -48
	.cfi_offset 30, -40
	mov	x29, sp
	str	x0, [sp, 40]
	str	x1, [sp, 32]
	str	x2, [sp, 24]
	ldr	x0, [sp, 24]
	bl	_ZSt7forwardIRKP8TreeNodeEOT_RNSt16remove_referenceIS4_E4typeE
	mov	x2, x0
	ldr	x1, [sp, 32]
	ldr	x0, [sp, 40]
	bl	_ZN9__gnu_cxx13new_allocatorIP8TreeNodeE9constructIS2_JRKS2_EEEvPT_DpOT0_
	nop
	ldp	x29, x30, [sp], 48
	.cfi_restore 30
	.cfi_restore 29
	.cfi_def_cfa_offset 0
	ret
	.cfi_endproc
.LFE2920:
	.size	_ZNSt16allocator_traitsISaIP8TreeNodeEE9constructIS1_JRKS1_EEEvRS2_PT_DpOT0_, .-_ZNSt16allocator_traitsISaIP8TreeNodeEE9constructIS1_JRKS1_EEEvRS2_PT_DpOT0_
	.section	.rodata
	.align	3
.LC2:
	.string	"cannot create std::deque larger than max_size()"
	.section	.text._ZNSt5dequeIP8TreeNodeSaIS1_EE16_M_push_back_auxIJRKS1_EEEvDpOT_,"axG",@progbits,_ZNSt5dequeIP8TreeNodeSaIS1_EE16_M_push_back_auxIJRKS1_EEEvDpOT_,comdat
	.align	2
	.weak	_ZNSt5dequeIP8TreeNodeSaIS1_EE16_M_push_back_auxIJRKS1_EEEvDpOT_
	.type	_ZNSt5dequeIP8TreeNodeSaIS1_EE16_M_push_back_auxIJRKS1_EEEvDpOT_, %function
_ZNSt5dequeIP8TreeNodeSaIS1_EE16_M_push_back_auxIJRKS1_EEEvDpOT_:
.LFB2921:
	.cfi_startproc
	stp	x29, x30, [sp, -48]!
	.cfi_def_cfa_offset 48
	.cfi_offset 29, -48
	.cfi_offset 30, -40
	mov	x29, sp
	stp	x19, x20, [sp, 16]
	.cfi_offset 19, -32
	.cfi_offset 20, -24
	str	x0, [sp, 40]
	str	x1, [sp, 32]
	ldr	x0, [sp, 40]
	bl	_ZNKSt5dequeIP8TreeNodeSaIS1_EE4sizeEv
	mov	x19, x0
	ldr	x0, [sp, 40]
	bl	_ZNKSt5dequeIP8TreeNodeSaIS1_EE8max_sizeEv
	cmp	x19, x0
	cset	w0, eq
	and	w0, w0, 255
	cmp	w0, 0
	beq	.L208
	adrp	x0, .LC2
	add	x0, x0, :lo12:.LC2
	bl	_ZSt20__throw_length_errorPKc
.L208:
	mov	x1, 1
	ldr	x0, [sp, 40]
	bl	_ZNSt5dequeIP8TreeNodeSaIS1_EE22_M_reserve_map_at_backEm
	ldr	x1, [sp, 40]
	ldr	x0, [sp, 40]
	ldr	x0, [x0, 72]
	add	x19, x0, 8
	mov	x0, x1
	bl	_ZNSt11_Deque_baseIP8TreeNodeSaIS1_EE16_M_allocate_nodeEv
	str	x0, [x19]
	ldr	x19, [sp, 40]
	ldr	x0, [sp, 40]
	ldr	x20, [x0, 48]
	ldr	x0, [sp, 32]
	bl	_ZSt7forwardIRKP8TreeNodeEOT_RNSt16remove_referenceIS4_E4typeE
	mov	x2, x0
	mov	x1, x20
	mov	x0, x19
	bl	_ZNSt16allocator_traitsISaIP8TreeNodeEE9constructIS1_JRKS1_EEEvRS2_PT_DpOT0_
	ldr	x0, [sp, 40]
	add	x2, x0, 48
	ldr	x0, [sp, 40]
	ldr	x0, [x0, 72]
	add	x0, x0, 8
	mov	x1, x0
	mov	x0, x2
	bl	_ZNSt15_Deque_iteratorIP8TreeNodeRS1_PS1_E11_M_set_nodeEPS3_
	ldr	x0, [sp, 40]
	ldr	x1, [x0, 56]
	ldr	x0, [sp, 40]
	str	x1, [x0, 48]
	nop
	ldp	x19, x20, [sp, 16]
	ldp	x29, x30, [sp], 48
	.cfi_restore 30
	.cfi_restore 29
	.cfi_restore 19
	.cfi_restore 20
	.cfi_def_cfa_offset 0
	ret
	.cfi_endproc
.LFE2921:
	.size	_ZNSt5dequeIP8TreeNodeSaIS1_EE16_M_push_back_auxIJRKS1_EEEvDpOT_, .-_ZNSt5dequeIP8TreeNodeSaIS1_EE16_M_push_back_auxIJRKS1_EEEvDpOT_
	.section	.text._ZSteqRKSt15_Deque_iteratorIP8TreeNodeRS1_PS1_ES6_,"axG",@progbits,_ZSteqRKSt15_Deque_iteratorIP8TreeNodeRS1_PS1_ES6_,comdat
	.align	2
	.weak	_ZSteqRKSt15_Deque_iteratorIP8TreeNodeRS1_PS1_ES6_
	.type	_ZSteqRKSt15_Deque_iteratorIP8TreeNodeRS1_PS1_ES6_, %function
_ZSteqRKSt15_Deque_iteratorIP8TreeNodeRS1_PS1_ES6_:
.LFB2922:
	.cfi_startproc
	sub	sp, sp, #16
	.cfi_def_cfa_offset 16
	str	x0, [sp, 8]
	str	x1, [sp]
	ldr	x0, [sp, 8]
	ldr	x1, [x0]
	ldr	x0, [sp]
	ldr	x0, [x0]
	cmp	x1, x0
	cset	w0, eq
	and	w0, w0, 255
	add	sp, sp, 16
	.cfi_def_cfa_offset 0
	ret
	.cfi_endproc
.LFE2922:
	.size	_ZSteqRKSt15_Deque_iteratorIP8TreeNodeRS1_PS1_ES6_, .-_ZSteqRKSt15_Deque_iteratorIP8TreeNodeRS1_PS1_ES6_
	.section	.text._ZNKSt15_Deque_iteratorIP8TreeNodeRS1_PS1_EdeEv,"axG",@progbits,_ZNKSt15_Deque_iteratorIP8TreeNodeRS1_PS1_EdeEv,comdat
	.align	2
	.weak	_ZNKSt15_Deque_iteratorIP8TreeNodeRS1_PS1_EdeEv
	.type	_ZNKSt15_Deque_iteratorIP8TreeNodeRS1_PS1_EdeEv, %function
_ZNKSt15_Deque_iteratorIP8TreeNodeRS1_PS1_EdeEv:
.LFB2923:
	.cfi_startproc
	sub	sp, sp, #16
	.cfi_def_cfa_offset 16
	str	x0, [sp, 8]
	ldr	x0, [sp, 8]
	ldr	x0, [x0]
	add	sp, sp, 16
	.cfi_def_cfa_offset 0
	ret
	.cfi_endproc
.LFE2923:
	.size	_ZNKSt15_Deque_iteratorIP8TreeNodeRS1_PS1_EdeEv, .-_ZNKSt15_Deque_iteratorIP8TreeNodeRS1_PS1_EdeEv
	.section	.text._ZNSt16allocator_traitsISaIP8TreeNodeEE7destroyIS1_EEvRS2_PT_,"axG",@progbits,_ZNSt16allocator_traitsISaIP8TreeNodeEE7destroyIS1_EEvRS2_PT_,comdat
	.align	2
	.weak	_ZNSt16allocator_traitsISaIP8TreeNodeEE7destroyIS1_EEvRS2_PT_
	.type	_ZNSt16allocator_traitsISaIP8TreeNodeEE7destroyIS1_EEvRS2_PT_, %function
_ZNSt16allocator_traitsISaIP8TreeNodeEE7destroyIS1_EEvRS2_PT_:
.LFB2924:
	.cfi_startproc
	stp	x29, x30, [sp, -32]!
	.cfi_def_cfa_offset 32
	.cfi_offset 29, -32
	.cfi_offset 30, -24
	mov	x29, sp
	str	x0, [sp, 24]
	str	x1, [sp, 16]
	ldr	x1, [sp, 16]
	ldr	x0, [sp, 24]
	bl	_ZN9__gnu_cxx13new_allocatorIP8TreeNodeE7destroyIS2_EEvPT_
	nop
	ldp	x29, x30, [sp], 32
	.cfi_restore 30
	.cfi_restore 29
	.cfi_def_cfa_offset 0
	ret
	.cfi_endproc
.LFE2924:
	.size	_ZNSt16allocator_traitsISaIP8TreeNodeEE7destroyIS1_EEvRS2_PT_, .-_ZNSt16allocator_traitsISaIP8TreeNodeEE7destroyIS1_EEvRS2_PT_
	.section	.text._ZNSt5dequeIP8TreeNodeSaIS1_EE16_M_pop_front_auxEv,"axG",@progbits,_ZNSt5dequeIP8TreeNodeSaIS1_EE16_M_pop_front_auxEv,comdat
	.align	2
	.weak	_ZNSt5dequeIP8TreeNodeSaIS1_EE16_M_pop_front_auxEv
	.type	_ZNSt5dequeIP8TreeNodeSaIS1_EE16_M_pop_front_auxEv, %function
_ZNSt5dequeIP8TreeNodeSaIS1_EE16_M_pop_front_auxEv:
.LFB2925:
	.cfi_startproc
	stp	x29, x30, [sp, -32]!
	.cfi_def_cfa_offset 32
	.cfi_offset 29, -32
	.cfi_offset 30, -24
	mov	x29, sp
	str	x0, [sp, 24]
	ldr	x0, [sp, 24]
	bl	_ZNSt11_Deque_baseIP8TreeNodeSaIS1_EE19_M_get_Tp_allocatorEv
	mov	x2, x0
	ldr	x0, [sp, 24]
	ldr	x0, [x0, 16]
	mov	x1, x0
	mov	x0, x2
	bl	_ZNSt16allocator_traitsISaIP8TreeNodeEE7destroyIS1_EEvRS2_PT_
	ldr	x2, [sp, 24]
	ldr	x0, [sp, 24]
	ldr	x0, [x0, 24]
	mov	x1, x0
	mov	x0, x2
	bl	_ZNSt11_Deque_baseIP8TreeNodeSaIS1_EE18_M_deallocate_nodeEPS1_
	ldr	x0, [sp, 24]
	add	x2, x0, 16
	ldr	x0, [sp, 24]
	ldr	x0, [x0, 40]
	add	x0, x0, 8
	mov	x1, x0
	mov	x0, x2
	bl	_ZNSt15_Deque_iteratorIP8TreeNodeRS1_PS1_E11_M_set_nodeEPS3_
	ldr	x0, [sp, 24]
	ldr	x1, [x0, 24]
	ldr	x0, [sp, 24]
	str	x1, [x0, 16]
	nop
	ldp	x29, x30, [sp], 32
	.cfi_restore 30
	.cfi_restore 29
	.cfi_def_cfa_offset 0
	ret
	.cfi_endproc
.LFE2925:
	.size	_ZNSt5dequeIP8TreeNodeSaIS1_EE16_M_pop_front_auxEv, .-_ZNSt5dequeIP8TreeNodeSaIS1_EE16_M_pop_front_auxEv
	.section	.text._ZN9__gnu_cxx13new_allocatorIiEC2Ev,"axG",@progbits,_ZN9__gnu_cxx13new_allocatorIiEC5Ev,comdat
	.align	2
	.weak	_ZN9__gnu_cxx13new_allocatorIiEC2Ev
	.type	_ZN9__gnu_cxx13new_allocatorIiEC2Ev, %function
_ZN9__gnu_cxx13new_allocatorIiEC2Ev:
.LFB2927:
	.cfi_startproc
	sub	sp, sp, #16
	.cfi_def_cfa_offset 16
	str	x0, [sp, 8]
	nop
	add	sp, sp, 16
	.cfi_def_cfa_offset 0
	ret
	.cfi_endproc
.LFE2927:
	.size	_ZN9__gnu_cxx13new_allocatorIiEC2Ev, .-_ZN9__gnu_cxx13new_allocatorIiEC2Ev
	.weak	_ZN9__gnu_cxx13new_allocatorIiEC1Ev
	.set	_ZN9__gnu_cxx13new_allocatorIiEC1Ev,_ZN9__gnu_cxx13new_allocatorIiEC2Ev
	.section	.text._ZNSt16allocator_traitsISaIiEE10deallocateERS0_Pim,"axG",@progbits,_ZNSt16allocator_traitsISaIiEE10deallocateERS0_Pim,comdat
	.align	2
	.weak	_ZNSt16allocator_traitsISaIiEE10deallocateERS0_Pim
	.type	_ZNSt16allocator_traitsISaIiEE10deallocateERS0_Pim, %function
_ZNSt16allocator_traitsISaIiEE10deallocateERS0_Pim:
.LFB2929:
	.cfi_startproc
	stp	x29, x30, [sp, -48]!
	.cfi_def_cfa_offset 48
	.cfi_offset 29, -48
	.cfi_offset 30, -40
	mov	x29, sp
	str	x0, [sp, 40]
	str	x1, [sp, 32]
	str	x2, [sp, 24]
	ldr	x2, [sp, 24]
	ldr	x1, [sp, 32]
	ldr	x0, [sp, 40]
	bl	_ZN9__gnu_cxx13new_allocatorIiE10deallocateEPim
	nop
	ldp	x29, x30, [sp], 48
	.cfi_restore 30
	.cfi_restore 29
	.cfi_def_cfa_offset 0
	ret
	.cfi_endproc
.LFE2929:
	.size	_ZNSt16allocator_traitsISaIiEE10deallocateERS0_Pim, .-_ZNSt16allocator_traitsISaIiEE10deallocateERS0_Pim
	.section	.text._ZSt8_DestroyIPiEvT_S1_,"axG",@progbits,_ZSt8_DestroyIPiEvT_S1_,comdat
	.align	2
	.weak	_ZSt8_DestroyIPiEvT_S1_
	.type	_ZSt8_DestroyIPiEvT_S1_, %function
_ZSt8_DestroyIPiEvT_S1_:
.LFB2930:
	.cfi_startproc
	stp	x29, x30, [sp, -32]!
	.cfi_def_cfa_offset 32
	.cfi_offset 29, -32
	.cfi_offset 30, -24
	mov	x29, sp
	str	x0, [sp, 24]
	str	x1, [sp, 16]
	ldr	x1, [sp, 16]
	ldr	x0, [sp, 24]
	bl	_ZNSt12_Destroy_auxILb1EE9__destroyIPiEEvT_S3_
	nop
	ldp	x29, x30, [sp], 32
	.cfi_restore 30
	.cfi_restore 29
	.cfi_def_cfa_offset 0
	ret
	.cfi_endproc
.LFE2930:
	.size	_ZSt8_DestroyIPiEvT_S1_, .-_ZSt8_DestroyIPiEvT_S1_
	.section	.text._ZSt7forwardISt6vectorIiSaIiEEEOT_RNSt16remove_referenceIS3_E4typeE,"axG",@progbits,_ZSt7forwardISt6vectorIiSaIiEEEOT_RNSt16remove_referenceIS3_E4typeE,comdat
	.align	2
	.weak	_ZSt7forwardISt6vectorIiSaIiEEEOT_RNSt16remove_referenceIS3_E4typeE
	.type	_ZSt7forwardISt6vectorIiSaIiEEEOT_RNSt16remove_referenceIS3_E4typeE, %function
_ZSt7forwardISt6vectorIiSaIiEEEOT_RNSt16remove_referenceIS3_E4typeE:
.LFB2931:
	.cfi_startproc
	sub	sp, sp, #16
	.cfi_def_cfa_offset 16
	str	x0, [sp, 8]
	ldr	x0, [sp, 8]
	add	sp, sp, 16
	.cfi_def_cfa_offset 0
	ret
	.cfi_endproc
.LFE2931:
	.size	_ZSt7forwardISt6vectorIiSaIiEEEOT_RNSt16remove_referenceIS3_E4typeE, .-_ZSt7forwardISt6vectorIiSaIiEEEOT_RNSt16remove_referenceIS3_E4typeE
	.section	.text._ZNSt16allocator_traitsISaISt6vectorIiSaIiEEEE9constructIS2_JS2_EEEvRS3_PT_DpOT0_,"axG",@progbits,_ZNSt16allocator_traitsISaISt6vectorIiSaIiEEEE9constructIS2_JS2_EEEvRS3_PT_DpOT0_,comdat
	.align	2
	.weak	_ZNSt16allocator_traitsISaISt6vectorIiSaIiEEEE9constructIS2_JS2_EEEvRS3_PT_DpOT0_
	.type	_ZNSt16allocator_traitsISaISt6vectorIiSaIiEEEE9constructIS2_JS2_EEEvRS3_PT_DpOT0_, %function
_ZNSt16allocator_traitsISaISt6vectorIiSaIiEEEE9constructIS2_JS2_EEEvRS3_PT_DpOT0_:
.LFB2932:
	.cfi_startproc
	stp	x29, x30, [sp, -48]!
	.cfi_def_cfa_offset 48
	.cfi_offset 29, -48
	.cfi_offset 30, -40
	mov	x29, sp
	str	x0, [sp, 40]
	str	x1, [sp, 32]
	str	x2, [sp, 24]
	ldr	x0, [sp, 24]
	bl	_ZSt7forwardISt6vectorIiSaIiEEEOT_RNSt16remove_referenceIS3_E4typeE
	mov	x2, x0
	ldr	x1, [sp, 32]
	ldr	x0, [sp, 40]
	bl	_ZN9__gnu_cxx13new_allocatorISt6vectorIiSaIiEEE9constructIS3_JS3_EEEvPT_DpOT0_
	nop
	ldp	x29, x30, [sp], 48
	.cfi_restore 30
	.cfi_restore 29
	.cfi_def_cfa_offset 0
	ret
	.cfi_endproc
.LFE2932:
	.size	_ZNSt16allocator_traitsISaISt6vectorIiSaIiEEEE9constructIS2_JS2_EEEvRS3_PT_DpOT0_, .-_ZNSt16allocator_traitsISaISt6vectorIiSaIiEEEE9constructIS2_JS2_EEEvRS3_PT_DpOT0_
	.section	.text._ZNSt6vectorIS_IiSaIiEESaIS1_EE3endEv,"axG",@progbits,_ZNSt6vectorIS_IiSaIiEESaIS1_EE3endEv,comdat
	.align	2
	.weak	_ZNSt6vectorIS_IiSaIiEESaIS1_EE3endEv
	.type	_ZNSt6vectorIS_IiSaIiEESaIS1_EE3endEv, %function
_ZNSt6vectorIS_IiSaIiEESaIS1_EE3endEv:
.LFB2933:
	.cfi_startproc
	stp	x29, x30, [sp, -48]!
	.cfi_def_cfa_offset 48
	.cfi_offset 29, -48
	.cfi_offset 30, -40
	mov	x29, sp
	str	x0, [sp, 24]
	adrp	x0, :got:__stack_chk_guard
	ldr	x0, [x0, #:got_lo12:__stack_chk_guard]
	ldr	x1, [x0]
	str	x1, [sp, 40]
	mov	x1, 0
	ldr	x0, [sp, 24]
	add	x1, x0, 8
	add	x0, sp, 32
	bl	_ZN9__gnu_cxx17__normal_iteratorIPSt6vectorIiSaIiEES1_IS3_SaIS3_EEEC1ERKS4_
	ldr	x0, [sp, 32]
	mov	x1, x0
	adrp	x0, :got:__stack_chk_guard
	ldr	x0, [x0, #:got_lo12:__stack_chk_guard]
	ldr	x3, [sp, 40]
	ldr	x2, [x0]
	subs	x3, x3, x2
	mov	x2, 0
	beq	.L223
	bl	__stack_chk_fail
.L223:
	mov	x0, x1
	ldp	x29, x30, [sp], 48
	.cfi_restore 30
	.cfi_restore 29
	.cfi_def_cfa_offset 0
	ret
	.cfi_endproc
.LFE2933:
	.size	_ZNSt6vectorIS_IiSaIiEESaIS1_EE3endEv, .-_ZNSt6vectorIS_IiSaIiEESaIS1_EE3endEv
	.section	.text._ZNSt6vectorIS_IiSaIiEESaIS1_EE17_M_realloc_insertIJS1_EEEvN9__gnu_cxx17__normal_iteratorIPS1_S3_EEDpOT_,"axG",@progbits,_ZNSt6vectorIS_IiSaIiEESaIS1_EE17_M_realloc_insertIJS1_EEEvN9__gnu_cxx17__normal_iteratorIPS1_S3_EEDpOT_,comdat
	.align	2
	.weak	_ZNSt6vectorIS_IiSaIiEESaIS1_EE17_M_realloc_insertIJS1_EEEvN9__gnu_cxx17__normal_iteratorIPS1_S3_EEDpOT_
	.type	_ZNSt6vectorIS_IiSaIiEESaIS1_EE17_M_realloc_insertIJS1_EEEvN9__gnu_cxx17__normal_iteratorIPS1_S3_EEDpOT_, %function
_ZNSt6vectorIS_IiSaIiEESaIS1_EE17_M_realloc_insertIJS1_EEEvN9__gnu_cxx17__normal_iteratorIPS1_S3_EEDpOT_:
.LFB2934:
	.cfi_startproc
	stp	x29, x30, [sp, -128]!
	.cfi_def_cfa_offset 128
	.cfi_offset 29, -128
	.cfi_offset 30, -120
	mov	x29, sp
	stp	x19, x20, [sp, 16]
	.cfi_offset 19, -112
	.cfi_offset 20, -104
	str	x0, [sp, 56]
	str	x1, [sp, 48]
	str	x2, [sp, 40]
	adrp	x0, :got:__stack_chk_guard
	ldr	x0, [x0, #:got_lo12:__stack_chk_guard]
	ldr	x1, [x0]
	str	x1, [sp, 120]
	mov	x1, 0
	adrp	x0, .LC1
	add	x2, x0, :lo12:.LC1
	mov	x1, 1
	ldr	x0, [sp, 56]
	bl	_ZNKSt6vectorIS_IiSaIiEESaIS1_EE12_M_check_lenEmPKc
	str	x0, [sp, 72]
	ldr	x0, [sp, 56]
	ldr	x0, [x0]
	str	x0, [sp, 80]
	ldr	x0, [sp, 56]
	ldr	x0, [x0, 8]
	str	x0, [sp, 88]
	ldr	x0, [sp, 56]
	bl	_ZNSt6vectorIS_IiSaIiEESaIS1_EE5beginEv
	str	x0, [sp, 64]
	add	x1, sp, 64
	add	x0, sp, 48
	bl	_ZN9__gnu_cxxmiIPSt6vectorIiSaIiEES1_IS3_SaIS3_EEEENS_17__normal_iteratorIT_T0_E15difference_typeERKSA_SD_
	str	x0, [sp, 96]
	ldr	x0, [sp, 56]
	ldr	x1, [sp, 72]
	bl	_ZNSt12_Vector_baseISt6vectorIiSaIiEESaIS2_EE11_M_allocateEm
	str	x0, [sp, 104]
	ldr	x0, [sp, 104]
	str	x0, [sp, 112]
	ldr	x19, [sp, 56]
	ldr	x1, [sp, 96]
	mov	x0, x1
	lsl	x0, x0, 1
	add	x0, x0, x1
	lsl	x0, x0, 3
	mov	x1, x0
	ldr	x0, [sp, 104]
	add	x20, x0, x1
	ldr	x0, [sp, 40]
	bl	_ZSt7forwardISt6vectorIiSaIiEEEOT_RNSt16remove_referenceIS3_E4typeE
	mov	x2, x0
	mov	x1, x20
	mov	x0, x19
	bl	_ZNSt16allocator_traitsISaISt6vectorIiSaIiEEEE9constructIS2_JS2_EEEvRS3_PT_DpOT0_
	str	xzr, [sp, 112]
	add	x0, sp, 48
	bl	_ZNK9__gnu_cxx17__normal_iteratorIPSt6vectorIiSaIiEES1_IS3_SaIS3_EEE4baseEv
	ldr	x19, [x0]
	ldr	x0, [sp, 56]
	bl	_ZNSt12_Vector_baseISt6vectorIiSaIiEESaIS2_EE19_M_get_Tp_allocatorEv
	mov	x3, x0
	ldr	x2, [sp, 104]
	mov	x1, x19
	ldr	x0, [sp, 80]
	bl	_ZNSt6vectorIS_IiSaIiEESaIS1_EE11_S_relocateEPS1_S4_S4_RS2_
	str	x0, [sp, 112]
	ldr	x0, [sp, 112]
	add	x0, x0, 24
	str	x0, [sp, 112]
	add	x0, sp, 48
	bl	_ZNK9__gnu_cxx17__normal_iteratorIPSt6vectorIiSaIiEES1_IS3_SaIS3_EEE4baseEv
	ldr	x19, [x0]
	ldr	x0, [sp, 56]
	bl	_ZNSt12_Vector_baseISt6vectorIiSaIiEESaIS2_EE19_M_get_Tp_allocatorEv
	mov	x3, x0
	ldr	x2, [sp, 112]
	ldr	x1, [sp, 88]
	mov	x0, x19
	bl	_ZNSt6vectorIS_IiSaIiEESaIS1_EE11_S_relocateEPS1_S4_S4_RS2_
	str	x0, [sp, 112]
	ldr	x3, [sp, 56]
	ldr	x0, [sp, 56]
	ldr	x1, [x0, 16]
	ldr	x0, [sp, 80]
	sub	x0, x1, x0
	asr	x1, x0, 3
	mov	x0, -6148914691236517206
	movk	x0, 0xaaab, lsl 0
	mul	x0, x1, x0
	mov	x2, x0
	ldr	x1, [sp, 80]
	mov	x0, x3
	bl	_ZNSt12_Vector_baseISt6vectorIiSaIiEESaIS2_EE13_M_deallocateEPS2_m
	ldr	x0, [sp, 56]
	ldr	x1, [sp, 104]
	str	x1, [x0]
	ldr	x0, [sp, 56]
	ldr	x1, [sp, 112]
	str	x1, [x0, 8]
	ldr	x1, [sp, 72]
	mov	x0, x1
	lsl	x0, x0, 1
	add	x0, x0, x1
	lsl	x0, x0, 3
	mov	x1, x0
	ldr	x0, [sp, 104]
	add	x1, x0, x1
	ldr	x0, [sp, 56]
	str	x1, [x0, 16]
	nop
	adrp	x0, :got:__stack_chk_guard
	ldr	x0, [x0, #:got_lo12:__stack_chk_guard]
	ldr	x2, [sp, 120]
	ldr	x1, [x0]
	subs	x2, x2, x1
	mov	x1, 0
	beq	.L225
	bl	__stack_chk_fail
.L225:
	ldp	x19, x20, [sp, 16]
	ldp	x29, x30, [sp], 128
	.cfi_restore 30
	.cfi_restore 29
	.cfi_restore 19
	.cfi_restore 20
	.cfi_def_cfa_offset 0
	ret
	.cfi_endproc
.LFE2934:
	.size	_ZNSt6vectorIS_IiSaIiEESaIS1_EE17_M_realloc_insertIJS1_EEEvN9__gnu_cxx17__normal_iteratorIPS1_S3_EEDpOT_, .-_ZNSt6vectorIS_IiSaIiEESaIS1_EE17_M_realloc_insertIJS1_EEEvN9__gnu_cxx17__normal_iteratorIPS1_S3_EEDpOT_
	.section	.text._ZNSt6vectorIS_IiSaIiEESaIS1_EE4backEv,"axG",@progbits,_ZNSt6vectorIS_IiSaIiEESaIS1_EE4backEv,comdat
	.align	2
	.weak	_ZNSt6vectorIS_IiSaIiEESaIS1_EE4backEv
	.type	_ZNSt6vectorIS_IiSaIiEESaIS1_EE4backEv, %function
_ZNSt6vectorIS_IiSaIiEESaIS1_EE4backEv:
.LFB2938:
	.cfi_startproc
	stp	x29, x30, [sp, -64]!
	.cfi_def_cfa_offset 64
	.cfi_offset 29, -64
	.cfi_offset 30, -56
	mov	x29, sp
	str	x0, [sp, 24]
	adrp	x0, :got:__stack_chk_guard
	ldr	x0, [x0, #:got_lo12:__stack_chk_guard]
	ldr	x1, [x0]
	str	x1, [sp, 56]
	mov	x1, 0
	ldr	x0, [sp, 24]
	bl	_ZNSt6vectorIS_IiSaIiEESaIS1_EE3endEv
	str	x0, [sp, 40]
	add	x0, sp, 40
	mov	x1, 1
	bl	_ZNK9__gnu_cxx17__normal_iteratorIPSt6vectorIiSaIiEES1_IS3_SaIS3_EEEmiEl
	str	x0, [sp, 48]
	add	x0, sp, 48
	bl	_ZNK9__gnu_cxx17__normal_iteratorIPSt6vectorIiSaIiEES1_IS3_SaIS3_EEEdeEv
	mov	x1, x0
	adrp	x0, :got:__stack_chk_guard
	ldr	x0, [x0, #:got_lo12:__stack_chk_guard]
	ldr	x3, [sp, 56]
	ldr	x2, [x0]
	subs	x3, x3, x2
	mov	x2, 0
	beq	.L228
	bl	__stack_chk_fail
.L228:
	mov	x0, x1
	ldp	x29, x30, [sp], 64
	.cfi_restore 30
	.cfi_restore 29
	.cfi_def_cfa_offset 0
	ret
	.cfi_endproc
.LFE2938:
	.size	_ZNSt6vectorIS_IiSaIiEESaIS1_EE4backEv, .-_ZNSt6vectorIS_IiSaIiEESaIS1_EE4backEv
	.section	.text._ZSt7forwardIRKiEOT_RNSt16remove_referenceIS2_E4typeE,"axG",@progbits,_ZSt7forwardIRKiEOT_RNSt16remove_referenceIS2_E4typeE,comdat
	.align	2
	.weak	_ZSt7forwardIRKiEOT_RNSt16remove_referenceIS2_E4typeE
	.type	_ZSt7forwardIRKiEOT_RNSt16remove_referenceIS2_E4typeE, %function
_ZSt7forwardIRKiEOT_RNSt16remove_referenceIS2_E4typeE:
.LFB2939:
	.cfi_startproc
	sub	sp, sp, #16
	.cfi_def_cfa_offset 16
	str	x0, [sp, 8]
	ldr	x0, [sp, 8]
	add	sp, sp, 16
	.cfi_def_cfa_offset 0
	ret
	.cfi_endproc
.LFE2939:
	.size	_ZSt7forwardIRKiEOT_RNSt16remove_referenceIS2_E4typeE, .-_ZSt7forwardIRKiEOT_RNSt16remove_referenceIS2_E4typeE
	.section	.text._ZN9__gnu_cxx13new_allocatorIiE9constructIiJRKiEEEvPT_DpOT0_,"axG",@progbits,_ZN9__gnu_cxx13new_allocatorIiE9constructIiJRKiEEEvPT_DpOT0_,comdat
	.align	2
	.weak	_ZN9__gnu_cxx13new_allocatorIiE9constructIiJRKiEEEvPT_DpOT0_
	.type	_ZN9__gnu_cxx13new_allocatorIiE9constructIiJRKiEEEvPT_DpOT0_, %function
_ZN9__gnu_cxx13new_allocatorIiE9constructIiJRKiEEEvPT_DpOT0_:
.LFB2940:
	.cfi_startproc
	stp	x29, x30, [sp, -64]!
	.cfi_def_cfa_offset 64
	.cfi_offset 29, -64
	.cfi_offset 30, -56
	mov	x29, sp
	str	x19, [sp, 16]
	.cfi_offset 19, -48
	str	x0, [sp, 56]
	str	x1, [sp, 48]
	str	x2, [sp, 40]
	ldr	x0, [sp, 40]
	bl	_ZSt7forwardIRKiEOT_RNSt16remove_referenceIS2_E4typeE
	ldr	w19, [x0]
	ldr	x0, [sp, 48]
	mov	x1, x0
	mov	x0, 4
	bl	_ZnwmPv
	str	w19, [x0]
	nop
	ldr	x19, [sp, 16]
	ldp	x29, x30, [sp], 64
	.cfi_restore 30
	.cfi_restore 29
	.cfi_restore 19
	.cfi_def_cfa_offset 0
	ret
	.cfi_endproc
.LFE2940:
	.size	_ZN9__gnu_cxx13new_allocatorIiE9constructIiJRKiEEEvPT_DpOT0_, .-_ZN9__gnu_cxx13new_allocatorIiE9constructIiJRKiEEEvPT_DpOT0_
	.section	.text._ZNKSt6vectorIiSaIiEE12_M_check_lenEmPKc,"axG",@progbits,_ZNKSt6vectorIiSaIiEE12_M_check_lenEmPKc,comdat
	.align	2
	.weak	_ZNKSt6vectorIiSaIiEE12_M_check_lenEmPKc
	.type	_ZNKSt6vectorIiSaIiEE12_M_check_lenEmPKc, %function
_ZNKSt6vectorIiSaIiEE12_M_check_lenEmPKc:
.LFB2941:
	.cfi_startproc
	stp	x29, x30, [sp, -96]!
	.cfi_def_cfa_offset 96
	.cfi_offset 29, -96
	.cfi_offset 30, -88
	mov	x29, sp
	str	x19, [sp, 16]
	.cfi_offset 19, -80
	str	x0, [sp, 56]
	str	x1, [sp, 48]
	str	x2, [sp, 40]
	adrp	x0, :got:__stack_chk_guard
	ldr	x0, [x0, #:got_lo12:__stack_chk_guard]
	ldr	x1, [x0]
	str	x1, [sp, 88]
	mov	x1, 0
	ldr	x0, [sp, 56]
	bl	_ZNKSt6vectorIiSaIiEE8max_sizeEv
	mov	x19, x0
	ldr	x0, [sp, 56]
	bl	_ZNKSt6vectorIiSaIiEE4sizeEv
	sub	x1, x19, x0
	ldr	x0, [sp, 48]
	cmp	x1, x0
	cset	w0, cc
	and	w0, w0, 255
	cmp	w0, 0
	beq	.L233
	ldr	x0, [sp, 40]
	bl	_ZSt20__throw_length_errorPKc
.L233:
	ldr	x0, [sp, 56]
	bl	_ZNKSt6vectorIiSaIiEE4sizeEv
	mov	x19, x0
	ldr	x0, [sp, 56]
	bl	_ZNKSt6vectorIiSaIiEE4sizeEv
	str	x0, [sp, 72]
	add	x1, sp, 48
	add	x0, sp, 72
	bl	_ZSt3maxImERKT_S2_S2_
	ldr	x0, [x0]
	add	x0, x19, x0
	str	x0, [sp, 80]
	ldr	x0, [sp, 56]
	bl	_ZNKSt6vectorIiSaIiEE4sizeEv
	mov	x1, x0
	ldr	x0, [sp, 80]
	cmp	x0, x1
	bcc	.L234
	ldr	x0, [sp, 56]
	bl	_ZNKSt6vectorIiSaIiEE8max_sizeEv
	mov	x1, x0
	ldr	x0, [sp, 80]
	cmp	x0, x1
	bls	.L235
.L234:
	ldr	x0, [sp, 56]
	bl	_ZNKSt6vectorIiSaIiEE8max_sizeEv
	b	.L236
.L235:
	ldr	x0, [sp, 80]
.L236:
	mov	x1, x0
	adrp	x0, :got:__stack_chk_guard
	ldr	x0, [x0, #:got_lo12:__stack_chk_guard]
	ldr	x3, [sp, 88]
	ldr	x2, [x0]
	subs	x3, x3, x2
	mov	x2, 0
	beq	.L238
	bl	__stack_chk_fail
.L238:
	mov	x0, x1
	ldr	x19, [sp, 16]
	ldp	x29, x30, [sp], 96
	.cfi_restore 30
	.cfi_restore 29
	.cfi_restore 19
	.cfi_def_cfa_offset 0
	ret
	.cfi_endproc
.LFE2941:
	.size	_ZNKSt6vectorIiSaIiEE12_M_check_lenEmPKc, .-_ZNKSt6vectorIiSaIiEE12_M_check_lenEmPKc
	.section	.text._ZN9__gnu_cxxmiIPiSt6vectorIiSaIiEEEENS_17__normal_iteratorIT_T0_E15difference_typeERKS8_SB_,"axG",@progbits,_ZN9__gnu_cxxmiIPiSt6vectorIiSaIiEEEENS_17__normal_iteratorIT_T0_E15difference_typeERKS8_SB_,comdat
	.align	2
	.weak	_ZN9__gnu_cxxmiIPiSt6vectorIiSaIiEEEENS_17__normal_iteratorIT_T0_E15difference_typeERKS8_SB_
	.type	_ZN9__gnu_cxxmiIPiSt6vectorIiSaIiEEEENS_17__normal_iteratorIT_T0_E15difference_typeERKS8_SB_, %function
_ZN9__gnu_cxxmiIPiSt6vectorIiSaIiEEEENS_17__normal_iteratorIT_T0_E15difference_typeERKS8_SB_:
.LFB2942:
	.cfi_startproc
	stp	x29, x30, [sp, -48]!
	.cfi_def_cfa_offset 48
	.cfi_offset 29, -48
	.cfi_offset 30, -40
	mov	x29, sp
	str	x19, [sp, 16]
	.cfi_offset 19, -32
	str	x0, [sp, 40]
	str	x1, [sp, 32]
	ldr	x0, [sp, 40]
	bl	_ZNK9__gnu_cxx17__normal_iteratorIPiSt6vectorIiSaIiEEE4baseEv
	ldr	x19, [x0]
	ldr	x0, [sp, 32]
	bl	_ZNK9__gnu_cxx17__normal_iteratorIPiSt6vectorIiSaIiEEE4baseEv
	ldr	x0, [x0]
	sub	x0, x19, x0
	asr	x0, x0, 2
	ldr	x19, [sp, 16]
	ldp	x29, x30, [sp], 48
	.cfi_restore 30
	.cfi_restore 29
	.cfi_restore 19
	.cfi_def_cfa_offset 0
	ret
	.cfi_endproc
.LFE2942:
	.size	_ZN9__gnu_cxxmiIPiSt6vectorIiSaIiEEEENS_17__normal_iteratorIT_T0_E15difference_typeERKS8_SB_, .-_ZN9__gnu_cxxmiIPiSt6vectorIiSaIiEEEENS_17__normal_iteratorIT_T0_E15difference_typeERKS8_SB_
	.section	.text._ZNSt12_Vector_baseIiSaIiEE11_M_allocateEm,"axG",@progbits,_ZNSt12_Vector_baseIiSaIiEE11_M_allocateEm,comdat
	.align	2
	.weak	_ZNSt12_Vector_baseIiSaIiEE11_M_allocateEm
	.type	_ZNSt12_Vector_baseIiSaIiEE11_M_allocateEm, %function
_ZNSt12_Vector_baseIiSaIiEE11_M_allocateEm:
.LFB2943:
	.cfi_startproc
	stp	x29, x30, [sp, -32]!
	.cfi_def_cfa_offset 32
	.cfi_offset 29, -32
	.cfi_offset 30, -24
	mov	x29, sp
	str	x0, [sp, 24]
	str	x1, [sp, 16]
	ldr	x0, [sp, 16]
	cmp	x0, 0
	beq	.L242
	ldr	x0, [sp, 24]
	ldr	x1, [sp, 16]
	bl	_ZNSt16allocator_traitsISaIiEE8allocateERS0_m
	b	.L244
.L242:
	mov	x0, 0
.L244:
	ldp	x29, x30, [sp], 32
	.cfi_restore 30
	.cfi_restore 29
	.cfi_def_cfa_offset 0
	ret
	.cfi_endproc
.LFE2943:
	.size	_ZNSt12_Vector_baseIiSaIiEE11_M_allocateEm, .-_ZNSt12_Vector_baseIiSaIiEE11_M_allocateEm
	.section	.text._ZNSt6vectorIiSaIiEE11_S_relocateEPiS2_S2_RS0_,"axG",@progbits,_ZNSt6vectorIiSaIiEE11_S_relocateEPiS2_S2_RS0_,comdat
	.align	2
	.weak	_ZNSt6vectorIiSaIiEE11_S_relocateEPiS2_S2_RS0_
	.type	_ZNSt6vectorIiSaIiEE11_S_relocateEPiS2_S2_RS0_, %function
_ZNSt6vectorIiSaIiEE11_S_relocateEPiS2_S2_RS0_:
.LFB2944:
	.cfi_startproc
	stp	x29, x30, [sp, -48]!
	.cfi_def_cfa_offset 48
	.cfi_offset 29, -48
	.cfi_offset 30, -40
	mov	x29, sp
	str	x0, [sp, 40]
	str	x1, [sp, 32]
	str	x2, [sp, 24]
	str	x3, [sp, 16]
	ldr	x3, [sp, 16]
	ldr	x2, [sp, 24]
	ldr	x1, [sp, 32]
	ldr	x0, [sp, 40]
	bl	_ZNSt6vectorIiSaIiEE14_S_do_relocateEPiS2_S2_RS0_St17integral_constantIbLb1EE
	ldp	x29, x30, [sp], 48
	.cfi_restore 30
	.cfi_restore 29
	.cfi_def_cfa_offset 0
	ret
	.cfi_endproc
.LFE2944:
	.size	_ZNSt6vectorIiSaIiEE11_S_relocateEPiS2_S2_RS0_, .-_ZNSt6vectorIiSaIiEE11_S_relocateEPiS2_S2_RS0_
	.section	.text._ZNSt16allocator_traitsISaIiEE7destroyIiEEvRS0_PT_,"axG",@progbits,_ZNSt16allocator_traitsISaIiEE7destroyIiEEvRS0_PT_,comdat
	.align	2
	.weak	_ZNSt16allocator_traitsISaIiEE7destroyIiEEvRS0_PT_
	.type	_ZNSt16allocator_traitsISaIiEE7destroyIiEEvRS0_PT_, %function
_ZNSt16allocator_traitsISaIiEE7destroyIiEEvRS0_PT_:
.LFB2945:
	.cfi_startproc
	stp	x29, x30, [sp, -32]!
	.cfi_def_cfa_offset 32
	.cfi_offset 29, -32
	.cfi_offset 30, -24
	mov	x29, sp
	str	x0, [sp, 24]
	str	x1, [sp, 16]
	ldr	x1, [sp, 16]
	ldr	x0, [sp, 24]
	bl	_ZN9__gnu_cxx13new_allocatorIiE7destroyIiEEvPT_
	nop
	ldp	x29, x30, [sp], 32
	.cfi_restore 30
	.cfi_restore 29
	.cfi_def_cfa_offset 0
	ret
	.cfi_endproc
.LFE2945:
	.size	_ZNSt16allocator_traitsISaIiEE7destroyIiEEvRS0_PT_, .-_ZNSt16allocator_traitsISaIiEE7destroyIiEEvRS0_PT_
	.section	.text._ZNK9__gnu_cxx17__normal_iteratorIPKiSt6vectorIiSaIiEEE4baseEv,"axG",@progbits,_ZNK9__gnu_cxx17__normal_iteratorIPKiSt6vectorIiSaIiEEE4baseEv,comdat
	.align	2
	.weak	_ZNK9__gnu_cxx17__normal_iteratorIPKiSt6vectorIiSaIiEEE4baseEv
	.type	_ZNK9__gnu_cxx17__normal_iteratorIPKiSt6vectorIiSaIiEEE4baseEv, %function
_ZNK9__gnu_cxx17__normal_iteratorIPKiSt6vectorIiSaIiEEE4baseEv:
.LFB2946:
	.cfi_startproc
	sub	sp, sp, #16
	.cfi_def_cfa_offset 16
	str	x0, [sp, 8]
	ldr	x0, [sp, 8]
	add	sp, sp, 16
	.cfi_def_cfa_offset 0
	ret
	.cfi_endproc
.LFE2946:
	.size	_ZNK9__gnu_cxx17__normal_iteratorIPKiSt6vectorIiSaIiEEE4baseEv, .-_ZNK9__gnu_cxx17__normal_iteratorIPKiSt6vectorIiSaIiEEE4baseEv
	.section	.text._ZN9__gnu_cxx17__normal_iteratorIPKiSt6vectorIiSaIiEEEC2ERKS2_,"axG",@progbits,_ZN9__gnu_cxx17__normal_iteratorIPKiSt6vectorIiSaIiEEEC5ERKS2_,comdat
	.align	2
	.weak	_ZN9__gnu_cxx17__normal_iteratorIPKiSt6vectorIiSaIiEEEC2ERKS2_
	.type	_ZN9__gnu_cxx17__normal_iteratorIPKiSt6vectorIiSaIiEEEC2ERKS2_, %function
_ZN9__gnu_cxx17__normal_iteratorIPKiSt6vectorIiSaIiEEEC2ERKS2_:
.LFB2948:
	.cfi_startproc
	sub	sp, sp, #16
	.cfi_def_cfa_offset 16
	str	x0, [sp, 8]
	str	x1, [sp]
	ldr	x0, [sp]
	ldr	x1, [x0]
	ldr	x0, [sp, 8]
	str	x1, [x0]
	nop
	add	sp, sp, 16
	.cfi_def_cfa_offset 0
	ret
	.cfi_endproc
.LFE2948:
	.size	_ZN9__gnu_cxx17__normal_iteratorIPKiSt6vectorIiSaIiEEEC2ERKS2_, .-_ZN9__gnu_cxx17__normal_iteratorIPKiSt6vectorIiSaIiEEEC2ERKS2_
	.weak	_ZN9__gnu_cxx17__normal_iteratorIPKiSt6vectorIiSaIiEEEC1ERKS2_
	.set	_ZN9__gnu_cxx17__normal_iteratorIPKiSt6vectorIiSaIiEEEC1ERKS2_,_ZN9__gnu_cxx17__normal_iteratorIPKiSt6vectorIiSaIiEEEC2ERKS2_
	.section	.text._ZNSt6vectorIiSaIiEE16_Temporary_value6_M_ptrEv,"axG",@progbits,_ZNSt6vectorIiSaIiEE16_Temporary_value6_M_ptrEv,comdat
	.align	2
	.weak	_ZNSt6vectorIiSaIiEE16_Temporary_value6_M_ptrEv
	.type	_ZNSt6vectorIiSaIiEE16_Temporary_value6_M_ptrEv, %function
_ZNSt6vectorIiSaIiEE16_Temporary_value6_M_ptrEv:
.LFB2950:
	.cfi_startproc
	sub	sp, sp, #16
	.cfi_def_cfa_offset 16
	str	x0, [sp, 8]
	ldr	x0, [sp, 8]
	add	x0, x0, 8
	add	sp, sp, 16
	.cfi_def_cfa_offset 0
	ret
	.cfi_endproc
.LFE2950:
	.size	_ZNSt6vectorIiSaIiEE16_Temporary_value6_M_ptrEv, .-_ZNSt6vectorIiSaIiEE16_Temporary_value6_M_ptrEv
	.section	.text._ZNSt16allocator_traitsISaIiEE9constructIiJiEEEvRS0_PT_DpOT0_,"axG",@progbits,_ZNSt16allocator_traitsISaIiEE9constructIiJiEEEvRS0_PT_DpOT0_,comdat
	.align	2
	.weak	_ZNSt16allocator_traitsISaIiEE9constructIiJiEEEvRS0_PT_DpOT0_
	.type	_ZNSt16allocator_traitsISaIiEE9constructIiJiEEEvRS0_PT_DpOT0_, %function
_ZNSt16allocator_traitsISaIiEE9constructIiJiEEEvRS0_PT_DpOT0_:
.LFB2951:
	.cfi_startproc
	stp	x29, x30, [sp, -48]!
	.cfi_def_cfa_offset 48
	.cfi_offset 29, -48
	.cfi_offset 30, -40
	mov	x29, sp
	str	x0, [sp, 40]
	str	x1, [sp, 32]
	str	x2, [sp, 24]
	ldr	x0, [sp, 24]
	bl	_ZSt7forwardIiEOT_RNSt16remove_referenceIS0_E4typeE
	mov	x2, x0
	ldr	x1, [sp, 32]
	ldr	x0, [sp, 40]
	bl	_ZN9__gnu_cxx13new_allocatorIiE9constructIiJiEEEvPT_DpOT0_
	nop
	ldp	x29, x30, [sp], 48
	.cfi_restore 30
	.cfi_restore 29
	.cfi_def_cfa_offset 0
	ret
	.cfi_endproc
.LFE2951:
	.size	_ZNSt16allocator_traitsISaIiEE9constructIiJiEEEvRS0_PT_DpOT0_, .-_ZNSt16allocator_traitsISaIiEE9constructIiJiEEEvRS0_PT_DpOT0_
	.section	.text._ZSt13move_backwardIPiS0_ET0_T_S2_S1_,"axG",@progbits,_ZSt13move_backwardIPiS0_ET0_T_S2_S1_,comdat
	.align	2
	.weak	_ZSt13move_backwardIPiS0_ET0_T_S2_S1_
	.type	_ZSt13move_backwardIPiS0_ET0_T_S2_S1_, %function
_ZSt13move_backwardIPiS0_ET0_T_S2_S1_:
.LFB2952:
	.cfi_startproc
	stp	x29, x30, [sp, -64]!
	.cfi_def_cfa_offset 64
	.cfi_offset 29, -64
	.cfi_offset 30, -56
	mov	x29, sp
	str	x19, [sp, 16]
	.cfi_offset 19, -48
	str	x0, [sp, 56]
	str	x1, [sp, 48]
	str	x2, [sp, 40]
	ldr	x0, [sp, 56]
	bl	_ZSt12__miter_baseIPiET_S1_
	mov	x19, x0
	ldr	x0, [sp, 48]
	bl	_ZSt12__miter_baseIPiET_S1_
	ldr	x2, [sp, 40]
	mov	x1, x0
	mov	x0, x19
	bl	_ZSt22__copy_move_backward_aILb1EPiS0_ET1_T0_S2_S1_
	ldr	x19, [sp, 16]
	ldp	x29, x30, [sp], 64
	.cfi_restore 30
	.cfi_restore 29
	.cfi_restore 19
	.cfi_def_cfa_offset 0
	ret
	.cfi_endproc
.LFE2952:
	.size	_ZSt13move_backwardIPiS0_ET0_T_S2_S1_, .-_ZSt13move_backwardIPiS0_ET0_T_S2_S1_
	.section	.text._ZNK9__gnu_cxx17__normal_iteratorIPiSt6vectorIiSaIiEEEdeEv,"axG",@progbits,_ZNK9__gnu_cxx17__normal_iteratorIPiSt6vectorIiSaIiEEEdeEv,comdat
	.align	2
	.weak	_ZNK9__gnu_cxx17__normal_iteratorIPiSt6vectorIiSaIiEEEdeEv
	.type	_ZNK9__gnu_cxx17__normal_iteratorIPiSt6vectorIiSaIiEEEdeEv, %function
_ZNK9__gnu_cxx17__normal_iteratorIPiSt6vectorIiSaIiEEEdeEv:
.LFB2953:
	.cfi_startproc
	sub	sp, sp, #16
	.cfi_def_cfa_offset 16
	str	x0, [sp, 8]
	ldr	x0, [sp, 8]
	ldr	x0, [x0]
	add	sp, sp, 16
	.cfi_def_cfa_offset 0
	ret
	.cfi_endproc
.LFE2953:
	.size	_ZNK9__gnu_cxx17__normal_iteratorIPiSt6vectorIiSaIiEEEdeEv, .-_ZNK9__gnu_cxx17__normal_iteratorIPiSt6vectorIiSaIiEEEdeEv
	.section	.text._ZSt7forwardIiEOT_RNSt16remove_referenceIS0_E4typeE,"axG",@progbits,_ZSt7forwardIiEOT_RNSt16remove_referenceIS0_E4typeE,comdat
	.align	2
	.weak	_ZSt7forwardIiEOT_RNSt16remove_referenceIS0_E4typeE
	.type	_ZSt7forwardIiEOT_RNSt16remove_referenceIS0_E4typeE, %function
_ZSt7forwardIiEOT_RNSt16remove_referenceIS0_E4typeE:
.LFB2954:
	.cfi_startproc
	sub	sp, sp, #16
	.cfi_def_cfa_offset 16
	str	x0, [sp, 8]
	ldr	x0, [sp, 8]
	add	sp, sp, 16
	.cfi_def_cfa_offset 0
	ret
	.cfi_endproc
.LFE2954:
	.size	_ZSt7forwardIiEOT_RNSt16remove_referenceIS0_E4typeE, .-_ZSt7forwardIiEOT_RNSt16remove_referenceIS0_E4typeE
	.section	.text._ZN9__gnu_cxx17__normal_iteratorIPKSt6vectorIiSaIiEES1_IS3_SaIS3_EEEC2ERKS5_,"axG",@progbits,_ZN9__gnu_cxx17__normal_iteratorIPKSt6vectorIiSaIiEES1_IS3_SaIS3_EEEC5ERKS5_,comdat
	.align	2
	.weak	_ZN9__gnu_cxx17__normal_iteratorIPKSt6vectorIiSaIiEES1_IS3_SaIS3_EEEC2ERKS5_
	.type	_ZN9__gnu_cxx17__normal_iteratorIPKSt6vectorIiSaIiEES1_IS3_SaIS3_EEEC2ERKS5_, %function
_ZN9__gnu_cxx17__normal_iteratorIPKSt6vectorIiSaIiEES1_IS3_SaIS3_EEEC2ERKS5_:
.LFB2959:
	.cfi_startproc
	sub	sp, sp, #16
	.cfi_def_cfa_offset 16
	str	x0, [sp, 8]
	str	x1, [sp]
	ldr	x0, [sp]
	ldr	x1, [x0]
	ldr	x0, [sp, 8]
	str	x1, [x0]
	nop
	add	sp, sp, 16
	.cfi_def_cfa_offset 0
	ret
	.cfi_endproc
.LFE2959:
	.size	_ZN9__gnu_cxx17__normal_iteratorIPKSt6vectorIiSaIiEES1_IS3_SaIS3_EEEC2ERKS5_, .-_ZN9__gnu_cxx17__normal_iteratorIPKSt6vectorIiSaIiEES1_IS3_SaIS3_EEEC2ERKS5_
	.weak	_ZN9__gnu_cxx17__normal_iteratorIPKSt6vectorIiSaIiEES1_IS3_SaIS3_EEEC1ERKS5_
	.set	_ZN9__gnu_cxx17__normal_iteratorIPKSt6vectorIiSaIiEES1_IS3_SaIS3_EEEC1ERKS5_,_ZN9__gnu_cxx17__normal_iteratorIPKSt6vectorIiSaIiEES1_IS3_SaIS3_EEEC2ERKS5_
	.section	.text._ZNK9__gnu_cxx17__normal_iteratorIPKSt6vectorIiSaIiEES1_IS3_SaIS3_EEE4baseEv,"axG",@progbits,_ZNK9__gnu_cxx17__normal_iteratorIPKSt6vectorIiSaIiEES1_IS3_SaIS3_EEE4baseEv,comdat
	.align	2
	.weak	_ZNK9__gnu_cxx17__normal_iteratorIPKSt6vectorIiSaIiEES1_IS3_SaIS3_EEE4baseEv
	.type	_ZNK9__gnu_cxx17__normal_iteratorIPKSt6vectorIiSaIiEES1_IS3_SaIS3_EEE4baseEv, %function
_ZNK9__gnu_cxx17__normal_iteratorIPKSt6vectorIiSaIiEES1_IS3_SaIS3_EEE4baseEv:
.LFB2961:
	.cfi_startproc
	sub	sp, sp, #16
	.cfi_def_cfa_offset 16
	str	x0, [sp, 8]
	ldr	x0, [sp, 8]
	add	sp, sp, 16
	.cfi_def_cfa_offset 0
	ret
	.cfi_endproc
.LFE2961:
	.size	_ZNK9__gnu_cxx17__normal_iteratorIPKSt6vectorIiSaIiEES1_IS3_SaIS3_EEE4baseEv, .-_ZNK9__gnu_cxx17__normal_iteratorIPKSt6vectorIiSaIiEES1_IS3_SaIS3_EEE4baseEv
	.section	.text._ZNSaIP8TreeNodeEC2Ev,"axG",@progbits,_ZNSaIP8TreeNodeEC5Ev,comdat
	.align	2
	.weak	_ZNSaIP8TreeNodeEC2Ev
	.type	_ZNSaIP8TreeNodeEC2Ev, %function
_ZNSaIP8TreeNodeEC2Ev:
.LFB3007:
	.cfi_startproc
	stp	x29, x30, [sp, -32]!
	.cfi_def_cfa_offset 32
	.cfi_offset 29, -32
	.cfi_offset 30, -24
	mov	x29, sp
	str	x0, [sp, 24]
	ldr	x0, [sp, 24]
	bl	_ZN9__gnu_cxx13new_allocatorIP8TreeNodeEC2Ev
	nop
	ldp	x29, x30, [sp], 32
	.cfi_restore 30
	.cfi_restore 29
	.cfi_def_cfa_offset 0
	ret
	.cfi_endproc
.LFE3007:
	.size	_ZNSaIP8TreeNodeEC2Ev, .-_ZNSaIP8TreeNodeEC2Ev
	.weak	_ZNSaIP8TreeNodeEC1Ev
	.set	_ZNSaIP8TreeNodeEC1Ev,_ZNSaIP8TreeNodeEC2Ev
	.section	.text._ZNSt11_Deque_baseIP8TreeNodeSaIS1_EE16_Deque_impl_dataC2Ev,"axG",@progbits,_ZNSt11_Deque_baseIP8TreeNodeSaIS1_EE16_Deque_impl_dataC5Ev,comdat
	.align	2
	.weak	_ZNSt11_Deque_baseIP8TreeNodeSaIS1_EE16_Deque_impl_dataC2Ev
	.type	_ZNSt11_Deque_baseIP8TreeNodeSaIS1_EE16_Deque_impl_dataC2Ev, %function
_ZNSt11_Deque_baseIP8TreeNodeSaIS1_EE16_Deque_impl_dataC2Ev:
.LFB3010:
	.cfi_startproc
	stp	x29, x30, [sp, -32]!
	.cfi_def_cfa_offset 32
	.cfi_offset 29, -32
	.cfi_offset 30, -24
	mov	x29, sp
	str	x0, [sp, 24]
	ldr	x0, [sp, 24]
	str	xzr, [x0]
	ldr	x0, [sp, 24]
	str	xzr, [x0, 8]
	ldr	x0, [sp, 24]
	add	x0, x0, 16
	bl	_ZNSt15_Deque_iteratorIP8TreeNodeRS1_PS1_EC1Ev
	ldr	x0, [sp, 24]
	add	x0, x0, 48
	bl	_ZNSt15_Deque_iteratorIP8TreeNodeRS1_PS1_EC1Ev
	nop
	ldp	x29, x30, [sp], 32
	.cfi_restore 30
	.cfi_restore 29
	.cfi_def_cfa_offset 0
	ret
	.cfi_endproc
.LFE3010:
	.size	_ZNSt11_Deque_baseIP8TreeNodeSaIS1_EE16_Deque_impl_dataC2Ev, .-_ZNSt11_Deque_baseIP8TreeNodeSaIS1_EE16_Deque_impl_dataC2Ev
	.weak	_ZNSt11_Deque_baseIP8TreeNodeSaIS1_EE16_Deque_impl_dataC1Ev
	.set	_ZNSt11_Deque_baseIP8TreeNodeSaIS1_EE16_Deque_impl_dataC1Ev,_ZNSt11_Deque_baseIP8TreeNodeSaIS1_EE16_Deque_impl_dataC2Ev
	.section	.text._ZN9__gnu_cxx13new_allocatorIP8TreeNodeED2Ev,"axG",@progbits,_ZN9__gnu_cxx13new_allocatorIP8TreeNodeED5Ev,comdat
	.align	2
	.weak	_ZN9__gnu_cxx13new_allocatorIP8TreeNodeED2Ev
	.type	_ZN9__gnu_cxx13new_allocatorIP8TreeNodeED2Ev, %function
_ZN9__gnu_cxx13new_allocatorIP8TreeNodeED2Ev:
.LFB3013:
	.cfi_startproc
	sub	sp, sp, #16
	.cfi_def_cfa_offset 16
	str	x0, [sp, 8]
	nop
	add	sp, sp, 16
	.cfi_def_cfa_offset 0
	ret
	.cfi_endproc
.LFE3013:
	.size	_ZN9__gnu_cxx13new_allocatorIP8TreeNodeED2Ev, .-_ZN9__gnu_cxx13new_allocatorIP8TreeNodeED2Ev
	.weak	_ZN9__gnu_cxx13new_allocatorIP8TreeNodeED1Ev
	.set	_ZN9__gnu_cxx13new_allocatorIP8TreeNodeED1Ev,_ZN9__gnu_cxx13new_allocatorIP8TreeNodeED2Ev
	.section	.text._ZSt3maxImERKT_S2_S2_,"axG",@progbits,_ZSt3maxImERKT_S2_S2_,comdat
	.align	2
	.weak	_ZSt3maxImERKT_S2_S2_
	.type	_ZSt3maxImERKT_S2_S2_, %function
_ZSt3maxImERKT_S2_S2_:
.LFB3015:
	.cfi_startproc
	sub	sp, sp, #16
	.cfi_def_cfa_offset 16
	str	x0, [sp, 8]
	str	x1, [sp]
	ldr	x0, [sp, 8]
	ldr	x1, [x0]
	ldr	x0, [sp]
	ldr	x0, [x0]
	cmp	x1, x0
	bcs	.L267
	ldr	x0, [sp]
	b	.L268
.L267:
	ldr	x0, [sp, 8]
.L268:
	add	sp, sp, 16
	.cfi_def_cfa_offset 0
	ret
	.cfi_endproc
.LFE3015:
	.size	_ZSt3maxImERKT_S2_S2_, .-_ZSt3maxImERKT_S2_S2_
	.section	.text._ZNSt11_Deque_baseIP8TreeNodeSaIS1_EE15_M_allocate_mapEm,"axG",@progbits,_ZNSt11_Deque_baseIP8TreeNodeSaIS1_EE15_M_allocate_mapEm,comdat
	.align	2
	.weak	_ZNSt11_Deque_baseIP8TreeNodeSaIS1_EE15_M_allocate_mapEm
	.type	_ZNSt11_Deque_baseIP8TreeNodeSaIS1_EE15_M_allocate_mapEm, %function
_ZNSt11_Deque_baseIP8TreeNodeSaIS1_EE15_M_allocate_mapEm:
.LFB3016:
	.cfi_startproc
	.cfi_personality 0x9b,DW.ref.__gxx_personality_v0
	.cfi_lsda 0x1b,.LLSDA3016
	stp	x29, x30, [sp, -64]!
	.cfi_def_cfa_offset 64
	.cfi_offset 29, -64
	.cfi_offset 30, -56
	mov	x29, sp
	str	x19, [sp, 16]
	.cfi_offset 19, -48
	str	x0, [sp, 40]
	str	x1, [sp, 32]
	adrp	x0, :got:__stack_chk_guard
	ldr	x0, [x0, #:got_lo12:__stack_chk_guard]
	ldr	x1, [x0]
	str	x1, [sp, 56]
	mov	x1, 0
	add	x0, sp, 48
	mov	x8, x0
	ldr	x0, [sp, 40]
	bl	_ZNKSt11_Deque_baseIP8TreeNodeSaIS1_EE20_M_get_map_allocatorEv
	add	x0, sp, 48
	ldr	x1, [sp, 32]
.LEHB17:
	bl	_ZNSt16allocator_traitsISaIPP8TreeNodeEE8allocateERS3_m
.LEHE17:
	mov	x19, x0
	nop
	add	x0, sp, 48
	bl	_ZNSaIPP8TreeNodeED1Ev
	mov	x1, x19
	adrp	x0, :got:__stack_chk_guard
	ldr	x0, [x0, #:got_lo12:__stack_chk_guard]
	ldr	x3, [sp, 56]
	ldr	x2, [x0]
	subs	x3, x3, x2
	mov	x2, 0
	beq	.L272
	b	.L274
.L273:
	mov	x19, x0
	add	x0, sp, 48
	bl	_ZNSaIPP8TreeNodeED1Ev
	mov	x0, x19
.LEHB18:
	bl	_Unwind_Resume
.LEHE18:
.L274:
	bl	__stack_chk_fail
.L272:
	mov	x0, x1
	ldr	x19, [sp, 16]
	ldp	x29, x30, [sp], 64
	.cfi_restore 30
	.cfi_restore 29
	.cfi_restore 19
	.cfi_def_cfa_offset 0
	ret
	.cfi_endproc
.LFE3016:
	.section	.gcc_except_table
.LLSDA3016:
	.byte	0xff
	.byte	0xff
	.byte	0x1
	.uleb128 .LLSDACSE3016-.LLSDACSB3016
.LLSDACSB3016:
	.uleb128 .LEHB17-.LFB3016
	.uleb128 .LEHE17-.LEHB17
	.uleb128 .L273-.LFB3016
	.uleb128 0
	.uleb128 .LEHB18-.LFB3016
	.uleb128 .LEHE18-.LEHB18
	.uleb128 0
	.uleb128 0
.LLSDACSE3016:
	.section	.text._ZNSt11_Deque_baseIP8TreeNodeSaIS1_EE15_M_allocate_mapEm,"axG",@progbits,_ZNSt11_Deque_baseIP8TreeNodeSaIS1_EE15_M_allocate_mapEm,comdat
	.size	_ZNSt11_Deque_baseIP8TreeNodeSaIS1_EE15_M_allocate_mapEm, .-_ZNSt11_Deque_baseIP8TreeNodeSaIS1_EE15_M_allocate_mapEm
	.section	.text._ZNSt11_Deque_baseIP8TreeNodeSaIS1_EE15_M_create_nodesEPPS1_S5_,"axG",@progbits,_ZNSt11_Deque_baseIP8TreeNodeSaIS1_EE15_M_create_nodesEPPS1_S5_,comdat
	.align	2
	.weak	_ZNSt11_Deque_baseIP8TreeNodeSaIS1_EE15_M_create_nodesEPPS1_S5_
	.type	_ZNSt11_Deque_baseIP8TreeNodeSaIS1_EE15_M_create_nodesEPPS1_S5_, %function
_ZNSt11_Deque_baseIP8TreeNodeSaIS1_EE15_M_create_nodesEPPS1_S5_:
.LFB3017:
	.cfi_startproc
	.cfi_personality 0x9b,DW.ref.__gxx_personality_v0
	.cfi_lsda 0x1b,.LLSDA3017
	stp	x29, x30, [sp, -80]!
	.cfi_def_cfa_offset 80
	.cfi_offset 29, -80
	.cfi_offset 30, -72
	mov	x29, sp
	str	x19, [sp, 16]
	.cfi_offset 19, -64
	str	x0, [sp, 56]
	str	x1, [sp, 48]
	str	x2, [sp, 40]
	ldr	x0, [sp, 48]
	str	x0, [sp, 72]
	b	.L276
.L277:
	ldr	x0, [sp, 56]
.LEHB19:
	bl	_ZNSt11_Deque_baseIP8TreeNodeSaIS1_EE16_M_allocate_nodeEv
.LEHE19:
	mov	x1, x0
	ldr	x0, [sp, 72]
	str	x1, [x0]
	ldr	x0, [sp, 72]
	add	x0, x0, 8
	str	x0, [sp, 72]
.L276:
	ldr	x1, [sp, 72]
	ldr	x0, [sp, 40]
	cmp	x1, x0
	bcc	.L277
	b	.L282
.L280:
	bl	__cxa_begin_catch
	ldr	x2, [sp, 72]
	ldr	x1, [sp, 48]
	ldr	x0, [sp, 56]
	bl	_ZNSt11_Deque_baseIP8TreeNodeSaIS1_EE16_M_destroy_nodesEPPS1_S5_
.LEHB20:
	bl	__cxa_rethrow
.LEHE20:
.L281:
	mov	x19, x0
	bl	__cxa_end_catch
	mov	x0, x19
.LEHB21:
	bl	_Unwind_Resume
.LEHE21:
.L282:
	ldr	x19, [sp, 16]
	ldp	x29, x30, [sp], 80
	.cfi_restore 30
	.cfi_restore 29
	.cfi_restore 19
	.cfi_def_cfa_offset 0
	ret
	.cfi_endproc
.LFE3017:
	.section	.gcc_except_table
	.align	2
.LLSDA3017:
	.byte	0xff
	.byte	0x9b
	.uleb128 .LLSDATT3017-.LLSDATTD3017
.LLSDATTD3017:
	.byte	0x1
	.uleb128 .LLSDACSE3017-.LLSDACSB3017
.LLSDACSB3017:
	.uleb128 .LEHB19-.LFB3017
	.uleb128 .LEHE19-.LEHB19
	.uleb128 .L280-.LFB3017
	.uleb128 0x1
	.uleb128 .LEHB20-.LFB3017
	.uleb128 .LEHE20-.LEHB20
	.uleb128 .L281-.LFB3017
	.uleb128 0
	.uleb128 .LEHB21-.LFB3017
	.uleb128 .LEHE21-.LEHB21
	.uleb128 0
	.uleb128 0
.LLSDACSE3017:
	.byte	0x1
	.byte	0
	.align	2
	.4byte	0

.LLSDATT3017:
	.section	.text._ZNSt11_Deque_baseIP8TreeNodeSaIS1_EE15_M_create_nodesEPPS1_S5_,"axG",@progbits,_ZNSt11_Deque_baseIP8TreeNodeSaIS1_EE15_M_create_nodesEPPS1_S5_,comdat
	.size	_ZNSt11_Deque_baseIP8TreeNodeSaIS1_EE15_M_create_nodesEPPS1_S5_, .-_ZNSt11_Deque_baseIP8TreeNodeSaIS1_EE15_M_create_nodesEPPS1_S5_
	.section	.text._ZNSt15_Deque_iteratorIP8TreeNodeRS1_PS1_E11_M_set_nodeEPS3_,"axG",@progbits,_ZNSt15_Deque_iteratorIP8TreeNodeRS1_PS1_E11_M_set_nodeEPS3_,comdat
	.align	2
	.weak	_ZNSt15_Deque_iteratorIP8TreeNodeRS1_PS1_E11_M_set_nodeEPS3_
	.type	_ZNSt15_Deque_iteratorIP8TreeNodeRS1_PS1_E11_M_set_nodeEPS3_, %function
_ZNSt15_Deque_iteratorIP8TreeNodeRS1_PS1_E11_M_set_nodeEPS3_:
.LFB3018:
	.cfi_startproc
	stp	x29, x30, [sp, -48]!
	.cfi_def_cfa_offset 48
	.cfi_offset 29, -48
	.cfi_offset 30, -40
	mov	x29, sp
	str	x19, [sp, 16]
	.cfi_offset 19, -32
	str	x0, [sp, 40]
	str	x1, [sp, 32]
	ldr	x0, [sp, 40]
	ldr	x1, [sp, 32]
	str	x1, [x0, 24]
	ldr	x0, [sp, 32]
	ldr	x1, [x0]
	ldr	x0, [sp, 40]
	str	x1, [x0, 8]
	ldr	x0, [sp, 40]
	ldr	x19, [x0, 8]
	bl	_ZNSt15_Deque_iteratorIP8TreeNodeRS1_PS1_E14_S_buffer_sizeEv
	lsl	x0, x0, 3
	add	x1, x19, x0
	ldr	x0, [sp, 40]
	str	x1, [x0, 16]
	nop
	ldr	x19, [sp, 16]
	ldp	x29, x30, [sp], 48
	.cfi_restore 30
	.cfi_restore 29
	.cfi_restore 19
	.cfi_def_cfa_offset 0
	ret
	.cfi_endproc
.LFE3018:
	.size	_ZNSt15_Deque_iteratorIP8TreeNodeRS1_PS1_E11_M_set_nodeEPS3_, .-_ZNSt15_Deque_iteratorIP8TreeNodeRS1_PS1_E11_M_set_nodeEPS3_
	.section	.text._ZNSt11_Deque_baseIP8TreeNodeSaIS1_EE18_M_deallocate_nodeEPS1_,"axG",@progbits,_ZNSt11_Deque_baseIP8TreeNodeSaIS1_EE18_M_deallocate_nodeEPS1_,comdat
	.align	2
	.weak	_ZNSt11_Deque_baseIP8TreeNodeSaIS1_EE18_M_deallocate_nodeEPS1_
	.type	_ZNSt11_Deque_baseIP8TreeNodeSaIS1_EE18_M_deallocate_nodeEPS1_, %function
_ZNSt11_Deque_baseIP8TreeNodeSaIS1_EE18_M_deallocate_nodeEPS1_:
.LFB3019:
	.cfi_startproc
	.cfi_personality 0x9b,DW.ref.__gxx_personality_v0
	.cfi_lsda 0x1b,.LLSDA3019
	stp	x29, x30, [sp, -48]!
	.cfi_def_cfa_offset 48
	.cfi_offset 29, -48
	.cfi_offset 30, -40
	mov	x29, sp
	str	x19, [sp, 16]
	.cfi_offset 19, -32
	str	x0, [sp, 40]
	str	x1, [sp, 32]
	ldr	x19, [sp, 40]
	mov	x0, 8
	bl	_ZSt16__deque_buf_sizem
	mov	x2, x0
	ldr	x1, [sp, 32]
	mov	x0, x19
	bl	_ZNSt16allocator_traitsISaIP8TreeNodeEE10deallocateERS2_PS1_m
	nop
	ldr	x19, [sp, 16]
	ldp	x29, x30, [sp], 48
	.cfi_restore 30
	.cfi_restore 29
	.cfi_restore 19
	.cfi_def_cfa_offset 0
	ret
	.cfi_endproc
.LFE3019:
	.section	.gcc_except_table
.LLSDA3019:
	.byte	0xff
	.byte	0xff
	.byte	0x1
	.uleb128 .LLSDACSE3019-.LLSDACSB3019
.LLSDACSB3019:
.LLSDACSE3019:
	.section	.text._ZNSt11_Deque_baseIP8TreeNodeSaIS1_EE18_M_deallocate_nodeEPS1_,"axG",@progbits,_ZNSt11_Deque_baseIP8TreeNodeSaIS1_EE18_M_deallocate_nodeEPS1_,comdat
	.size	_ZNSt11_Deque_baseIP8TreeNodeSaIS1_EE18_M_deallocate_nodeEPS1_, .-_ZNSt11_Deque_baseIP8TreeNodeSaIS1_EE18_M_deallocate_nodeEPS1_
	.section	.text._ZNKSt11_Deque_baseIP8TreeNodeSaIS1_EE20_M_get_map_allocatorEv,"axG",@progbits,_ZNKSt11_Deque_baseIP8TreeNodeSaIS1_EE20_M_get_map_allocatorEv,comdat
	.align	2
	.weak	_ZNKSt11_Deque_baseIP8TreeNodeSaIS1_EE20_M_get_map_allocatorEv
	.type	_ZNKSt11_Deque_baseIP8TreeNodeSaIS1_EE20_M_get_map_allocatorEv, %function
_ZNKSt11_Deque_baseIP8TreeNodeSaIS1_EE20_M_get_map_allocatorEv:
.LFB3020:
	.cfi_startproc
	stp	x29, x30, [sp, -48]!
	.cfi_def_cfa_offset 48
	.cfi_offset 29, -48
	.cfi_offset 30, -40
	mov	x29, sp
	str	x19, [sp, 16]
	.cfi_offset 19, -32
	mov	x19, x8
	str	x0, [sp, 40]
	ldr	x0, [sp, 40]
	bl	_ZNKSt11_Deque_baseIP8TreeNodeSaIS1_EE19_M_get_Tp_allocatorEv
	mov	x1, x0
	mov	x0, x19
	bl	_ZNSaIPP8TreeNodeEC1IS0_EERKSaIT_E
	mov	x0, x19
	ldr	x19, [sp, 16]
	ldp	x29, x30, [sp], 48
	.cfi_restore 30
	.cfi_restore 29
	.cfi_restore 19
	.cfi_def_cfa_offset 0
	ret
	.cfi_endproc
.LFE3020:
	.size	_ZNKSt11_Deque_baseIP8TreeNodeSaIS1_EE20_M_get_map_allocatorEv, .-_ZNKSt11_Deque_baseIP8TreeNodeSaIS1_EE20_M_get_map_allocatorEv
	.section	.text._ZNSaIPP8TreeNodeED2Ev,"axG",@progbits,_ZNSaIPP8TreeNodeED5Ev,comdat
	.align	2
	.weak	_ZNSaIPP8TreeNodeED2Ev
	.type	_ZNSaIPP8TreeNodeED2Ev, %function
_ZNSaIPP8TreeNodeED2Ev:
.LFB3022:
	.cfi_startproc
	stp	x29, x30, [sp, -32]!
	.cfi_def_cfa_offset 32
	.cfi_offset 29, -32
	.cfi_offset 30, -24
	mov	x29, sp
	str	x0, [sp, 24]
	ldr	x0, [sp, 24]
	bl	_ZN9__gnu_cxx13new_allocatorIPP8TreeNodeED2Ev
	nop
	ldp	x29, x30, [sp], 32
	.cfi_restore 30
	.cfi_restore 29
	.cfi_def_cfa_offset 0
	ret
	.cfi_endproc
.LFE3022:
	.size	_ZNSaIPP8TreeNodeED2Ev, .-_ZNSaIPP8TreeNodeED2Ev
	.weak	_ZNSaIPP8TreeNodeED1Ev
	.set	_ZNSaIPP8TreeNodeED1Ev,_ZNSaIPP8TreeNodeED2Ev
	.section	.text._ZNSt16allocator_traitsISaIPP8TreeNodeEE10deallocateERS3_PS2_m,"axG",@progbits,_ZNSt16allocator_traitsISaIPP8TreeNodeEE10deallocateERS3_PS2_m,comdat
	.align	2
	.weak	_ZNSt16allocator_traitsISaIPP8TreeNodeEE10deallocateERS3_PS2_m
	.type	_ZNSt16allocator_traitsISaIPP8TreeNodeEE10deallocateERS3_PS2_m, %function
_ZNSt16allocator_traitsISaIPP8TreeNodeEE10deallocateERS3_PS2_m:
.LFB3024:
	.cfi_startproc
	stp	x29, x30, [sp, -48]!
	.cfi_def_cfa_offset 48
	.cfi_offset 29, -48
	.cfi_offset 30, -40
	mov	x29, sp
	str	x0, [sp, 40]
	str	x1, [sp, 32]
	str	x2, [sp, 24]
	ldr	x2, [sp, 24]
	ldr	x1, [sp, 32]
	ldr	x0, [sp, 40]
	bl	_ZN9__gnu_cxx13new_allocatorIPP8TreeNodeE10deallocateEPS3_m
	nop
	ldp	x29, x30, [sp], 48
	.cfi_restore 30
	.cfi_restore 29
	.cfi_def_cfa_offset 0
	ret
	.cfi_endproc
.LFE3024:
	.size	_ZNSt16allocator_traitsISaIPP8TreeNodeEE10deallocateERS3_PS2_m, .-_ZNSt16allocator_traitsISaIPP8TreeNodeEE10deallocateERS3_PS2_m
	.section	.text._ZN9__gnu_cxx13new_allocatorISt6vectorIiSaIiEEE10deallocateEPS3_m,"axG",@progbits,_ZN9__gnu_cxx13new_allocatorISt6vectorIiSaIiEEE10deallocateEPS3_m,comdat
	.align	2
	.weak	_ZN9__gnu_cxx13new_allocatorISt6vectorIiSaIiEEE10deallocateEPS3_m
	.type	_ZN9__gnu_cxx13new_allocatorISt6vectorIiSaIiEEE10deallocateEPS3_m, %function
_ZN9__gnu_cxx13new_allocatorISt6vectorIiSaIiEEE10deallocateEPS3_m:
.LFB3027:
	.cfi_startproc
	stp	x29, x30, [sp, -48]!
	.cfi_def_cfa_offset 48
	.cfi_offset 29, -48
	.cfi_offset 30, -40
	mov	x29, sp
	str	x0, [sp, 40]
	str	x1, [sp, 32]
	str	x2, [sp, 24]
	ldr	x1, [sp, 24]
	mov	x0, x1
	lsl	x0, x0, 1
	add	x0, x0, x1
	lsl	x0, x0, 3
	mov	x1, x0
	ldr	x0, [sp, 32]
	bl	_ZdlPvm
	ldp	x29, x30, [sp], 48
	.cfi_restore 30
	.cfi_restore 29
	.cfi_def_cfa_offset 0
	ret
	.cfi_endproc
.LFE3027:
	.size	_ZN9__gnu_cxx13new_allocatorISt6vectorIiSaIiEEE10deallocateEPS3_m, .-_ZN9__gnu_cxx13new_allocatorISt6vectorIiSaIiEEE10deallocateEPS3_m
	.section	.text._ZNSt12_Destroy_auxILb0EE9__destroyIPSt6vectorIiSaIiEEEEvT_S6_,"axG",@progbits,_ZNSt12_Destroy_auxILb0EE9__destroyIPSt6vectorIiSaIiEEEEvT_S6_,comdat
	.align	2
	.weak	_ZNSt12_Destroy_auxILb0EE9__destroyIPSt6vectorIiSaIiEEEEvT_S6_
	.type	_ZNSt12_Destroy_auxILb0EE9__destroyIPSt6vectorIiSaIiEEEEvT_S6_, %function
_ZNSt12_Destroy_auxILb0EE9__destroyIPSt6vectorIiSaIiEEEEvT_S6_:
.LFB3028:
	.cfi_startproc
	stp	x29, x30, [sp, -32]!
	.cfi_def_cfa_offset 32
	.cfi_offset 29, -32
	.cfi_offset 30, -24
	mov	x29, sp
	str	x0, [sp, 24]
	str	x1, [sp, 16]
	b	.L292
.L293:
	ldr	x0, [sp, 24]
	bl	_ZSt11__addressofISt6vectorIiSaIiEEEPT_RS3_
	bl	_ZSt8_DestroyISt6vectorIiSaIiEEEvPT_
	ldr	x0, [sp, 24]
	add	x0, x0, 24
	str	x0, [sp, 24]
.L292:
	ldr	x1, [sp, 24]
	ldr	x0, [sp, 16]
	cmp	x1, x0
	bne	.L293
	nop
	nop
	ldp	x29, x30, [sp], 32
	.cfi_restore 30
	.cfi_restore 29
	.cfi_def_cfa_offset 0
	ret
	.cfi_endproc
.LFE3028:
	.size	_ZNSt12_Destroy_auxILb0EE9__destroyIPSt6vectorIiSaIiEEEEvT_S6_, .-_ZNSt12_Destroy_auxILb0EE9__destroyIPSt6vectorIiSaIiEEEEvT_S6_
	.section	.text._ZSt7forwardIRKP8TreeNodeEOT_RNSt16remove_referenceIS4_E4typeE,"axG",@progbits,_ZSt7forwardIRKP8TreeNodeEOT_RNSt16remove_referenceIS4_E4typeE,comdat
	.align	2
	.weak	_ZSt7forwardIRKP8TreeNodeEOT_RNSt16remove_referenceIS4_E4typeE
	.type	_ZSt7forwardIRKP8TreeNodeEOT_RNSt16remove_referenceIS4_E4typeE, %function
_ZSt7forwardIRKP8TreeNodeEOT_RNSt16remove_referenceIS4_E4typeE:
.LFB3029:
	.cfi_startproc
	sub	sp, sp, #16
	.cfi_def_cfa_offset 16
	str	x0, [sp, 8]
	ldr	x0, [sp, 8]
	add	sp, sp, 16
	.cfi_def_cfa_offset 0
	ret
	.cfi_endproc
.LFE3029:
	.size	_ZSt7forwardIRKP8TreeNodeEOT_RNSt16remove_referenceIS4_E4typeE, .-_ZSt7forwardIRKP8TreeNodeEOT_RNSt16remove_referenceIS4_E4typeE
	.section	.text._ZN9__gnu_cxx13new_allocatorIP8TreeNodeE9constructIS2_JRKS2_EEEvPT_DpOT0_,"axG",@progbits,_ZN9__gnu_cxx13new_allocatorIP8TreeNodeE9constructIS2_JRKS2_EEEvPT_DpOT0_,comdat
	.align	2
	.weak	_ZN9__gnu_cxx13new_allocatorIP8TreeNodeE9constructIS2_JRKS2_EEEvPT_DpOT0_
	.type	_ZN9__gnu_cxx13new_allocatorIP8TreeNodeE9constructIS2_JRKS2_EEEvPT_DpOT0_, %function
_ZN9__gnu_cxx13new_allocatorIP8TreeNodeE9constructIS2_JRKS2_EEEvPT_DpOT0_:
.LFB3030:
	.cfi_startproc
	stp	x29, x30, [sp, -64]!
	.cfi_def_cfa_offset 64
	.cfi_offset 29, -64
	.cfi_offset 30, -56
	mov	x29, sp
	str	x19, [sp, 16]
	.cfi_offset 19, -48
	str	x0, [sp, 56]
	str	x1, [sp, 48]
	str	x2, [sp, 40]
	ldr	x0, [sp, 40]
	bl	_ZSt7forwardIRKP8TreeNodeEOT_RNSt16remove_referenceIS4_E4typeE
	ldr	x19, [x0]
	ldr	x0, [sp, 48]
	mov	x1, x0
	mov	x0, 8
	bl	_ZnwmPv
	str	x19, [x0]
	nop
	ldr	x19, [sp, 16]
	ldp	x29, x30, [sp], 64
	.cfi_restore 30
	.cfi_restore 29
	.cfi_restore 19
	.cfi_def_cfa_offset 0
	ret
	.cfi_endproc
.LFE3030:
	.size	_ZN9__gnu_cxx13new_allocatorIP8TreeNodeE9constructIS2_JRKS2_EEEvPT_DpOT0_, .-_ZN9__gnu_cxx13new_allocatorIP8TreeNodeE9constructIS2_JRKS2_EEEvPT_DpOT0_
	.section	.text._ZNKSt5dequeIP8TreeNodeSaIS1_EE4sizeEv,"axG",@progbits,_ZNKSt5dequeIP8TreeNodeSaIS1_EE4sizeEv,comdat
	.align	2
	.weak	_ZNKSt5dequeIP8TreeNodeSaIS1_EE4sizeEv
	.type	_ZNKSt5dequeIP8TreeNodeSaIS1_EE4sizeEv, %function
_ZNKSt5dequeIP8TreeNodeSaIS1_EE4sizeEv:
.LFB3031:
	.cfi_startproc
	stp	x29, x30, [sp, -32]!
	.cfi_def_cfa_offset 32
	.cfi_offset 29, -32
	.cfi_offset 30, -24
	mov	x29, sp
	str	x0, [sp, 24]
	ldr	x0, [sp, 24]
	add	x2, x0, 48
	ldr	x0, [sp, 24]
	add	x0, x0, 16
	mov	x1, x0
	mov	x0, x2
	bl	_ZStmiRKSt15_Deque_iteratorIP8TreeNodeRS1_PS1_ES6_
	ldp	x29, x30, [sp], 32
	.cfi_restore 30
	.cfi_restore 29
	.cfi_def_cfa_offset 0
	ret
	.cfi_endproc
.LFE3031:
	.size	_ZNKSt5dequeIP8TreeNodeSaIS1_EE4sizeEv, .-_ZNKSt5dequeIP8TreeNodeSaIS1_EE4sizeEv
	.section	.text._ZNKSt5dequeIP8TreeNodeSaIS1_EE8max_sizeEv,"axG",@progbits,_ZNKSt5dequeIP8TreeNodeSaIS1_EE8max_sizeEv,comdat
	.align	2
	.weak	_ZNKSt5dequeIP8TreeNodeSaIS1_EE8max_sizeEv
	.type	_ZNKSt5dequeIP8TreeNodeSaIS1_EE8max_sizeEv, %function
_ZNKSt5dequeIP8TreeNodeSaIS1_EE8max_sizeEv:
.LFB3032:
	.cfi_startproc
	stp	x29, x30, [sp, -32]!
	.cfi_def_cfa_offset 32
	.cfi_offset 29, -32
	.cfi_offset 30, -24
	mov	x29, sp
	str	x0, [sp, 24]
	ldr	x0, [sp, 24]
	bl	_ZNKSt11_Deque_baseIP8TreeNodeSaIS1_EE19_M_get_Tp_allocatorEv
	bl	_ZNSt5dequeIP8TreeNodeSaIS1_EE11_S_max_sizeERKS2_
	ldp	x29, x30, [sp], 32
	.cfi_restore 30
	.cfi_restore 29
	.cfi_def_cfa_offset 0
	ret
	.cfi_endproc
.LFE3032:
	.size	_ZNKSt5dequeIP8TreeNodeSaIS1_EE8max_sizeEv, .-_ZNKSt5dequeIP8TreeNodeSaIS1_EE8max_sizeEv
	.section	.text._ZNSt5dequeIP8TreeNodeSaIS1_EE22_M_reserve_map_at_backEm,"axG",@progbits,_ZNSt5dequeIP8TreeNodeSaIS1_EE22_M_reserve_map_at_backEm,comdat
	.align	2
	.weak	_ZNSt5dequeIP8TreeNodeSaIS1_EE22_M_reserve_map_at_backEm
	.type	_ZNSt5dequeIP8TreeNodeSaIS1_EE22_M_reserve_map_at_backEm, %function
_ZNSt5dequeIP8TreeNodeSaIS1_EE22_M_reserve_map_at_backEm:
.LFB3033:
	.cfi_startproc
	stp	x29, x30, [sp, -32]!
	.cfi_def_cfa_offset 32
	.cfi_offset 29, -32
	.cfi_offset 30, -24
	mov	x29, sp
	str	x0, [sp, 24]
	str	x1, [sp, 16]
	ldr	x0, [sp, 16]
	add	x1, x0, 1
	ldr	x0, [sp, 24]
	ldr	x0, [x0, 8]
	ldr	x2, [sp, 24]
	ldr	x3, [x2, 72]
	ldr	x2, [sp, 24]
	ldr	x2, [x2]
	sub	x2, x3, x2
	asr	x2, x2, 3
	sub	x0, x0, x2
	cmp	x1, x0
	bls	.L303
	mov	w2, 0
	ldr	x1, [sp, 16]
	ldr	x0, [sp, 24]
	bl	_ZNSt5dequeIP8TreeNodeSaIS1_EE17_M_reallocate_mapEmb
.L303:
	nop
	ldp	x29, x30, [sp], 32
	.cfi_restore 30
	.cfi_restore 29
	.cfi_def_cfa_offset 0
	ret
	.cfi_endproc
.LFE3033:
	.size	_ZNSt5dequeIP8TreeNodeSaIS1_EE22_M_reserve_map_at_backEm, .-_ZNSt5dequeIP8TreeNodeSaIS1_EE22_M_reserve_map_at_backEm
	.section	.text._ZNSt11_Deque_baseIP8TreeNodeSaIS1_EE16_M_allocate_nodeEv,"axG",@progbits,_ZNSt11_Deque_baseIP8TreeNodeSaIS1_EE16_M_allocate_nodeEv,comdat
	.align	2
	.weak	_ZNSt11_Deque_baseIP8TreeNodeSaIS1_EE16_M_allocate_nodeEv
	.type	_ZNSt11_Deque_baseIP8TreeNodeSaIS1_EE16_M_allocate_nodeEv, %function
_ZNSt11_Deque_baseIP8TreeNodeSaIS1_EE16_M_allocate_nodeEv:
.LFB3034:
	.cfi_startproc
	stp	x29, x30, [sp, -48]!
	.cfi_def_cfa_offset 48
	.cfi_offset 29, -48
	.cfi_offset 30, -40
	mov	x29, sp
	str	x19, [sp, 16]
	.cfi_offset 19, -32
	str	x0, [sp, 40]
	ldr	x19, [sp, 40]
	mov	x0, 8
	bl	_ZSt16__deque_buf_sizem
	mov	x1, x0
	mov	x0, x19
	bl	_ZNSt16allocator_traitsISaIP8TreeNodeEE8allocateERS2_m
	ldr	x19, [sp, 16]
	ldp	x29, x30, [sp], 48
	.cfi_restore 30
	.cfi_restore 29
	.cfi_restore 19
	.cfi_def_cfa_offset 0
	ret
	.cfi_endproc
.LFE3034:
	.size	_ZNSt11_Deque_baseIP8TreeNodeSaIS1_EE16_M_allocate_nodeEv, .-_ZNSt11_Deque_baseIP8TreeNodeSaIS1_EE16_M_allocate_nodeEv
	.section	.text._ZN9__gnu_cxx13new_allocatorIP8TreeNodeE7destroyIS2_EEvPT_,"axG",@progbits,_ZN9__gnu_cxx13new_allocatorIP8TreeNodeE7destroyIS2_EEvPT_,comdat
	.align	2
	.weak	_ZN9__gnu_cxx13new_allocatorIP8TreeNodeE7destroyIS2_EEvPT_
	.type	_ZN9__gnu_cxx13new_allocatorIP8TreeNodeE7destroyIS2_EEvPT_, %function
_ZN9__gnu_cxx13new_allocatorIP8TreeNodeE7destroyIS2_EEvPT_:
.LFB3035:
	.cfi_startproc
	sub	sp, sp, #16
	.cfi_def_cfa_offset 16
	str	x0, [sp, 8]
	str	x1, [sp]
	nop
	add	sp, sp, 16
	.cfi_def_cfa_offset 0
	ret
	.cfi_endproc
.LFE3035:
	.size	_ZN9__gnu_cxx13new_allocatorIP8TreeNodeE7destroyIS2_EEvPT_, .-_ZN9__gnu_cxx13new_allocatorIP8TreeNodeE7destroyIS2_EEvPT_
	.section	.text._ZN9__gnu_cxx13new_allocatorIiE10deallocateEPim,"axG",@progbits,_ZN9__gnu_cxx13new_allocatorIiE10deallocateEPim,comdat
	.align	2
	.weak	_ZN9__gnu_cxx13new_allocatorIiE10deallocateEPim
	.type	_ZN9__gnu_cxx13new_allocatorIiE10deallocateEPim, %function
_ZN9__gnu_cxx13new_allocatorIiE10deallocateEPim:
.LFB3036:
	.cfi_startproc
	stp	x29, x30, [sp, -48]!
	.cfi_def_cfa_offset 48
	.cfi_offset 29, -48
	.cfi_offset 30, -40
	mov	x29, sp
	str	x0, [sp, 40]
	str	x1, [sp, 32]
	str	x2, [sp, 24]
	ldr	x0, [sp, 24]
	lsl	x0, x0, 2
	mov	x1, x0
	ldr	x0, [sp, 32]
	bl	_ZdlPvm
	ldp	x29, x30, [sp], 48
	.cfi_restore 30
	.cfi_restore 29
	.cfi_def_cfa_offset 0
	ret
	.cfi_endproc
.LFE3036:
	.size	_ZN9__gnu_cxx13new_allocatorIiE10deallocateEPim, .-_ZN9__gnu_cxx13new_allocatorIiE10deallocateEPim
	.section	.text._ZNSt12_Destroy_auxILb1EE9__destroyIPiEEvT_S3_,"axG",@progbits,_ZNSt12_Destroy_auxILb1EE9__destroyIPiEEvT_S3_,comdat
	.align	2
	.weak	_ZNSt12_Destroy_auxILb1EE9__destroyIPiEEvT_S3_
	.type	_ZNSt12_Destroy_auxILb1EE9__destroyIPiEEvT_S3_, %function
_ZNSt12_Destroy_auxILb1EE9__destroyIPiEEvT_S3_:
.LFB3037:
	.cfi_startproc
	sub	sp, sp, #16
	.cfi_def_cfa_offset 16
	str	x0, [sp, 8]
	str	x1, [sp]
	nop
	add	sp, sp, 16
	.cfi_def_cfa_offset 0
	ret
	.cfi_endproc
.LFE3037:
	.size	_ZNSt12_Destroy_auxILb1EE9__destroyIPiEEvT_S3_, .-_ZNSt12_Destroy_auxILb1EE9__destroyIPiEEvT_S3_
	.section	.text._ZNSt12_Vector_baseIiSaIiEEC2EOS1_,"axG",@progbits,_ZNSt12_Vector_baseIiSaIiEEC5EOS1_,comdat
	.align	2
	.weak	_ZNSt12_Vector_baseIiSaIiEEC2EOS1_
	.type	_ZNSt12_Vector_baseIiSaIiEEC2EOS1_, %function
_ZNSt12_Vector_baseIiSaIiEEC2EOS1_:
.LFB3041:
	.cfi_startproc
	stp	x29, x30, [sp, -32]!
	.cfi_def_cfa_offset 32
	.cfi_offset 29, -32
	.cfi_offset 30, -24
	mov	x29, sp
	str	x0, [sp, 24]
	str	x1, [sp, 16]
	ldr	x0, [sp, 24]
	ldr	x1, [sp, 16]
	bl	_ZNSt12_Vector_baseIiSaIiEE12_Vector_implC1EOS2_
	nop
	ldp	x29, x30, [sp], 32
	.cfi_restore 30
	.cfi_restore 29
	.cfi_def_cfa_offset 0
	ret
	.cfi_endproc
.LFE3041:
	.size	_ZNSt12_Vector_baseIiSaIiEEC2EOS1_, .-_ZNSt12_Vector_baseIiSaIiEEC2EOS1_
	.weak	_ZNSt12_Vector_baseIiSaIiEEC1EOS1_
	.set	_ZNSt12_Vector_baseIiSaIiEEC1EOS1_,_ZNSt12_Vector_baseIiSaIiEEC2EOS1_
	.section	.text._ZNSt6vectorIiSaIiEEC2EOS1_,"axG",@progbits,_ZNSt6vectorIiSaIiEEC5EOS1_,comdat
	.align	2
	.weak	_ZNSt6vectorIiSaIiEEC2EOS1_
	.type	_ZNSt6vectorIiSaIiEEC2EOS1_, %function
_ZNSt6vectorIiSaIiEEC2EOS1_:
.LFB3043:
	.cfi_startproc
	stp	x29, x30, [sp, -32]!
	.cfi_def_cfa_offset 32
	.cfi_offset 29, -32
	.cfi_offset 30, -24
	mov	x29, sp
	str	x0, [sp, 24]
	str	x1, [sp, 16]
	ldr	x0, [sp, 24]
	ldr	x1, [sp, 16]
	bl	_ZNSt12_Vector_baseIiSaIiEEC2EOS1_
	nop
	ldp	x29, x30, [sp], 32
	.cfi_restore 30
	.cfi_restore 29
	.cfi_def_cfa_offset 0
	ret
	.cfi_endproc
.LFE3043:
	.size	_ZNSt6vectorIiSaIiEEC2EOS1_, .-_ZNSt6vectorIiSaIiEEC2EOS1_
	.weak	_ZNSt6vectorIiSaIiEEC1EOS1_
	.set	_ZNSt6vectorIiSaIiEEC1EOS1_,_ZNSt6vectorIiSaIiEEC2EOS1_
	.section	.text._ZN9__gnu_cxx13new_allocatorISt6vectorIiSaIiEEE9constructIS3_JS3_EEEvPT_DpOT0_,"axG",@progbits,_ZN9__gnu_cxx13new_allocatorISt6vectorIiSaIiEEE9constructIS3_JS3_EEEvPT_DpOT0_,comdat
	.align	2
	.weak	_ZN9__gnu_cxx13new_allocatorISt6vectorIiSaIiEEE9constructIS3_JS3_EEEvPT_DpOT0_
	.type	_ZN9__gnu_cxx13new_allocatorISt6vectorIiSaIiEEE9constructIS3_JS3_EEEvPT_DpOT0_, %function
_ZN9__gnu_cxx13new_allocatorISt6vectorIiSaIiEEE9constructIS3_JS3_EEEvPT_DpOT0_:
.LFB3038:
	.cfi_startproc
	stp	x29, x30, [sp, -64]!
	.cfi_def_cfa_offset 64
	.cfi_offset 29, -64
	.cfi_offset 30, -56
	mov	x29, sp
	str	x19, [sp, 16]
	.cfi_offset 19, -48
	str	x0, [sp, 56]
	str	x1, [sp, 48]
	str	x2, [sp, 40]
	ldr	x0, [sp, 40]
	bl	_ZSt7forwardISt6vectorIiSaIiEEEOT_RNSt16remove_referenceIS3_E4typeE
	mov	x19, x0
	ldr	x0, [sp, 48]
	mov	x1, x0
	mov	x0, 24
	bl	_ZnwmPv
	mov	x1, x19
	bl	_ZNSt6vectorIiSaIiEEC1EOS1_
	nop
	ldr	x19, [sp, 16]
	ldp	x29, x30, [sp], 64
	.cfi_restore 30
	.cfi_restore 29
	.cfi_restore 19
	.cfi_def_cfa_offset 0
	ret
	.cfi_endproc
.LFE3038:
	.size	_ZN9__gnu_cxx13new_allocatorISt6vectorIiSaIiEEE9constructIS3_JS3_EEEvPT_DpOT0_, .-_ZN9__gnu_cxx13new_allocatorISt6vectorIiSaIiEEE9constructIS3_JS3_EEEvPT_DpOT0_
	.section	.text._ZN9__gnu_cxx17__normal_iteratorIPSt6vectorIiSaIiEES1_IS3_SaIS3_EEEC2ERKS4_,"axG",@progbits,_ZN9__gnu_cxx17__normal_iteratorIPSt6vectorIiSaIiEES1_IS3_SaIS3_EEEC5ERKS4_,comdat
	.align	2
	.weak	_ZN9__gnu_cxx17__normal_iteratorIPSt6vectorIiSaIiEES1_IS3_SaIS3_EEEC2ERKS4_
	.type	_ZN9__gnu_cxx17__normal_iteratorIPSt6vectorIiSaIiEES1_IS3_SaIS3_EEEC2ERKS4_, %function
_ZN9__gnu_cxx17__normal_iteratorIPSt6vectorIiSaIiEES1_IS3_SaIS3_EEEC2ERKS4_:
.LFB3046:
	.cfi_startproc
	sub	sp, sp, #16
	.cfi_def_cfa_offset 16
	str	x0, [sp, 8]
	str	x1, [sp]
	ldr	x0, [sp]
	ldr	x1, [x0]
	ldr	x0, [sp, 8]
	str	x1, [x0]
	nop
	add	sp, sp, 16
	.cfi_def_cfa_offset 0
	ret
	.cfi_endproc
.LFE3046:
	.size	_ZN9__gnu_cxx17__normal_iteratorIPSt6vectorIiSaIiEES1_IS3_SaIS3_EEEC2ERKS4_, .-_ZN9__gnu_cxx17__normal_iteratorIPSt6vectorIiSaIiEES1_IS3_SaIS3_EEEC2ERKS4_
	.weak	_ZN9__gnu_cxx17__normal_iteratorIPSt6vectorIiSaIiEES1_IS3_SaIS3_EEEC1ERKS4_
	.set	_ZN9__gnu_cxx17__normal_iteratorIPSt6vectorIiSaIiEES1_IS3_SaIS3_EEEC1ERKS4_,_ZN9__gnu_cxx17__normal_iteratorIPSt6vectorIiSaIiEES1_IS3_SaIS3_EEEC2ERKS4_
	.section	.text._ZNKSt6vectorIS_IiSaIiEESaIS1_EE12_M_check_lenEmPKc,"axG",@progbits,_ZNKSt6vectorIS_IiSaIiEESaIS1_EE12_M_check_lenEmPKc,comdat
	.align	2
	.weak	_ZNKSt6vectorIS_IiSaIiEESaIS1_EE12_M_check_lenEmPKc
	.type	_ZNKSt6vectorIS_IiSaIiEESaIS1_EE12_M_check_lenEmPKc, %function
_ZNKSt6vectorIS_IiSaIiEESaIS1_EE12_M_check_lenEmPKc:
.LFB3048:
	.cfi_startproc
	stp	x29, x30, [sp, -96]!
	.cfi_def_cfa_offset 96
	.cfi_offset 29, -96
	.cfi_offset 30, -88
	mov	x29, sp
	str	x19, [sp, 16]
	.cfi_offset 19, -80
	str	x0, [sp, 56]
	str	x1, [sp, 48]
	str	x2, [sp, 40]
	adrp	x0, :got:__stack_chk_guard
	ldr	x0, [x0, #:got_lo12:__stack_chk_guard]
	ldr	x1, [x0]
	str	x1, [sp, 88]
	mov	x1, 0
	ldr	x0, [sp, 56]
	bl	_ZNKSt6vectorIS_IiSaIiEESaIS1_EE8max_sizeEv
	mov	x19, x0
	ldr	x0, [sp, 56]
	bl	_ZNKSt6vectorIS_IiSaIiEESaIS1_EE4sizeEv
	sub	x1, x19, x0
	ldr	x0, [sp, 48]
	cmp	x1, x0
	cset	w0, cc
	and	w0, w0, 255
	cmp	w0, 0
	beq	.L315
	ldr	x0, [sp, 40]
	bl	_ZSt20__throw_length_errorPKc
.L315:
	ldr	x0, [sp, 56]
	bl	_ZNKSt6vectorIS_IiSaIiEESaIS1_EE4sizeEv
	mov	x19, x0
	ldr	x0, [sp, 56]
	bl	_ZNKSt6vectorIS_IiSaIiEESaIS1_EE4sizeEv
	str	x0, [sp, 72]
	add	x1, sp, 48
	add	x0, sp, 72
	bl	_ZSt3maxImERKT_S2_S2_
	ldr	x0, [x0]
	add	x0, x19, x0
	str	x0, [sp, 80]
	ldr	x0, [sp, 56]
	bl	_ZNKSt6vectorIS_IiSaIiEESaIS1_EE4sizeEv
	mov	x1, x0
	ldr	x0, [sp, 80]
	cmp	x0, x1
	bcc	.L316
	ldr	x0, [sp, 56]
	bl	_ZNKSt6vectorIS_IiSaIiEESaIS1_EE8max_sizeEv
	mov	x1, x0
	ldr	x0, [sp, 80]
	cmp	x0, x1
	bls	.L317
.L316:
	ldr	x0, [sp, 56]
	bl	_ZNKSt6vectorIS_IiSaIiEESaIS1_EE8max_sizeEv
	b	.L318
.L317:
	ldr	x0, [sp, 80]
.L318:
	mov	x1, x0
	adrp	x0, :got:__stack_chk_guard
	ldr	x0, [x0, #:got_lo12:__stack_chk_guard]
	ldr	x3, [sp, 88]
	ldr	x2, [x0]
	subs	x3, x3, x2
	mov	x2, 0
	beq	.L320
	bl	__stack_chk_fail
.L320:
	mov	x0, x1
	ldr	x19, [sp, 16]
	ldp	x29, x30, [sp], 96
	.cfi_restore 30
	.cfi_restore 29
	.cfi_restore 19
	.cfi_def_cfa_offset 0
	ret
	.cfi_endproc
.LFE3048:
	.size	_ZNKSt6vectorIS_IiSaIiEESaIS1_EE12_M_check_lenEmPKc, .-_ZNKSt6vectorIS_IiSaIiEESaIS1_EE12_M_check_lenEmPKc
	.section	.text._ZNSt6vectorIS_IiSaIiEESaIS1_EE5beginEv,"axG",@progbits,_ZNSt6vectorIS_IiSaIiEESaIS1_EE5beginEv,comdat
	.align	2
	.weak	_ZNSt6vectorIS_IiSaIiEESaIS1_EE5beginEv
	.type	_ZNSt6vectorIS_IiSaIiEESaIS1_EE5beginEv, %function
_ZNSt6vectorIS_IiSaIiEESaIS1_EE5beginEv:
.LFB3049:
	.cfi_startproc
	stp	x29, x30, [sp, -48]!
	.cfi_def_cfa_offset 48
	.cfi_offset 29, -48
	.cfi_offset 30, -40
	mov	x29, sp
	str	x0, [sp, 24]
	adrp	x0, :got:__stack_chk_guard
	ldr	x0, [x0, #:got_lo12:__stack_chk_guard]
	ldr	x1, [x0]
	str	x1, [sp, 40]
	mov	x1, 0
	ldr	x1, [sp, 24]
	add	x0, sp, 32
	bl	_ZN9__gnu_cxx17__normal_iteratorIPSt6vectorIiSaIiEES1_IS3_SaIS3_EEEC1ERKS4_
	ldr	x0, [sp, 32]
	mov	x1, x0
	adrp	x0, :got:__stack_chk_guard
	ldr	x0, [x0, #:got_lo12:__stack_chk_guard]
	ldr	x3, [sp, 40]
	ldr	x2, [x0]
	subs	x3, x3, x2
	mov	x2, 0
	beq	.L323
	bl	__stack_chk_fail
.L323:
	mov	x0, x1
	ldp	x29, x30, [sp], 48
	.cfi_restore 30
	.cfi_restore 29
	.cfi_def_cfa_offset 0
	ret
	.cfi_endproc
.LFE3049:
	.size	_ZNSt6vectorIS_IiSaIiEESaIS1_EE5beginEv, .-_ZNSt6vectorIS_IiSaIiEESaIS1_EE5beginEv
	.section	.text._ZN9__gnu_cxxmiIPSt6vectorIiSaIiEES1_IS3_SaIS3_EEEENS_17__normal_iteratorIT_T0_E15difference_typeERKSA_SD_,"axG",@progbits,_ZN9__gnu_cxxmiIPSt6vectorIiSaIiEES1_IS3_SaIS3_EEEENS_17__normal_iteratorIT_T0_E15difference_typeERKSA_SD_,comdat
	.align	2
	.weak	_ZN9__gnu_cxxmiIPSt6vectorIiSaIiEES1_IS3_SaIS3_EEEENS_17__normal_iteratorIT_T0_E15difference_typeERKSA_SD_
	.type	_ZN9__gnu_cxxmiIPSt6vectorIiSaIiEES1_IS3_SaIS3_EEEENS_17__normal_iteratorIT_T0_E15difference_typeERKSA_SD_, %function
_ZN9__gnu_cxxmiIPSt6vectorIiSaIiEES1_IS3_SaIS3_EEEENS_17__normal_iteratorIT_T0_E15difference_typeERKSA_SD_:
.LFB3050:
	.cfi_startproc
	stp	x29, x30, [sp, -48]!
	.cfi_def_cfa_offset 48
	.cfi_offset 29, -48
	.cfi_offset 30, -40
	mov	x29, sp
	str	x19, [sp, 16]
	.cfi_offset 19, -32
	str	x0, [sp, 40]
	str	x1, [sp, 32]
	ldr	x0, [sp, 40]
	bl	_ZNK9__gnu_cxx17__normal_iteratorIPSt6vectorIiSaIiEES1_IS3_SaIS3_EEE4baseEv
	ldr	x19, [x0]
	ldr	x0, [sp, 32]
	bl	_ZNK9__gnu_cxx17__normal_iteratorIPSt6vectorIiSaIiEES1_IS3_SaIS3_EEE4baseEv
	ldr	x0, [x0]
	sub	x0, x19, x0
	asr	x1, x0, 3
	mov	x0, -6148914691236517206
	movk	x0, 0xaaab, lsl 0
	mul	x0, x1, x0
	ldr	x19, [sp, 16]
	ldp	x29, x30, [sp], 48
	.cfi_restore 30
	.cfi_restore 29
	.cfi_restore 19
	.cfi_def_cfa_offset 0
	ret
	.cfi_endproc
.LFE3050:
	.size	_ZN9__gnu_cxxmiIPSt6vectorIiSaIiEES1_IS3_SaIS3_EEEENS_17__normal_iteratorIT_T0_E15difference_typeERKSA_SD_, .-_ZN9__gnu_cxxmiIPSt6vectorIiSaIiEES1_IS3_SaIS3_EEEENS_17__normal_iteratorIT_T0_E15difference_typeERKSA_SD_
	.section	.text._ZNSt12_Vector_baseISt6vectorIiSaIiEESaIS2_EE11_M_allocateEm,"axG",@progbits,_ZNSt12_Vector_baseISt6vectorIiSaIiEESaIS2_EE11_M_allocateEm,comdat
	.align	2
	.weak	_ZNSt12_Vector_baseISt6vectorIiSaIiEESaIS2_EE11_M_allocateEm
	.type	_ZNSt12_Vector_baseISt6vectorIiSaIiEESaIS2_EE11_M_allocateEm, %function
_ZNSt12_Vector_baseISt6vectorIiSaIiEESaIS2_EE11_M_allocateEm:
.LFB3051:
	.cfi_startproc
	stp	x29, x30, [sp, -32]!
	.cfi_def_cfa_offset 32
	.cfi_offset 29, -32
	.cfi_offset 30, -24
	mov	x29, sp
	str	x0, [sp, 24]
	str	x1, [sp, 16]
	ldr	x0, [sp, 16]
	cmp	x0, 0
	beq	.L327
	ldr	x0, [sp, 24]
	ldr	x1, [sp, 16]
	bl	_ZNSt16allocator_traitsISaISt6vectorIiSaIiEEEE8allocateERS3_m
	b	.L329
.L327:
	mov	x0, 0
.L329:
	ldp	x29, x30, [sp], 32
	.cfi_restore 30
	.cfi_restore 29
	.cfi_def_cfa_offset 0
	ret
	.cfi_endproc
.LFE3051:
	.size	_ZNSt12_Vector_baseISt6vectorIiSaIiEESaIS2_EE11_M_allocateEm, .-_ZNSt12_Vector_baseISt6vectorIiSaIiEESaIS2_EE11_M_allocateEm
	.section	.text._ZNSt6vectorIS_IiSaIiEESaIS1_EE11_S_relocateEPS1_S4_S4_RS2_,"axG",@progbits,_ZNSt6vectorIS_IiSaIiEESaIS1_EE11_S_relocateEPS1_S4_S4_RS2_,comdat
	.align	2
	.weak	_ZNSt6vectorIS_IiSaIiEESaIS1_EE11_S_relocateEPS1_S4_S4_RS2_
	.type	_ZNSt6vectorIS_IiSaIiEESaIS1_EE11_S_relocateEPS1_S4_S4_RS2_, %function
_ZNSt6vectorIS_IiSaIiEESaIS1_EE11_S_relocateEPS1_S4_S4_RS2_:
.LFB3052:
	.cfi_startproc
	stp	x29, x30, [sp, -48]!
	.cfi_def_cfa_offset 48
	.cfi_offset 29, -48
	.cfi_offset 30, -40
	mov	x29, sp
	str	x0, [sp, 40]
	str	x1, [sp, 32]
	str	x2, [sp, 24]
	str	x3, [sp, 16]
	ldr	x3, [sp, 16]
	ldr	x2, [sp, 24]
	ldr	x1, [sp, 32]
	ldr	x0, [sp, 40]
	bl	_ZNSt6vectorIS_IiSaIiEESaIS1_EE14_S_do_relocateEPS1_S4_S4_RS2_St17integral_constantIbLb1EE
	ldp	x29, x30, [sp], 48
	.cfi_restore 30
	.cfi_restore 29
	.cfi_def_cfa_offset 0
	ret
	.cfi_endproc
.LFE3052:
	.size	_ZNSt6vectorIS_IiSaIiEESaIS1_EE11_S_relocateEPS1_S4_S4_RS2_, .-_ZNSt6vectorIS_IiSaIiEESaIS1_EE11_S_relocateEPS1_S4_S4_RS2_
	.section	.text._ZNK9__gnu_cxx17__normal_iteratorIPSt6vectorIiSaIiEES1_IS3_SaIS3_EEE4baseEv,"axG",@progbits,_ZNK9__gnu_cxx17__normal_iteratorIPSt6vectorIiSaIiEES1_IS3_SaIS3_EEE4baseEv,comdat
	.align	2
	.weak	_ZNK9__gnu_cxx17__normal_iteratorIPSt6vectorIiSaIiEES1_IS3_SaIS3_EEE4baseEv
	.type	_ZNK9__gnu_cxx17__normal_iteratorIPSt6vectorIiSaIiEES1_IS3_SaIS3_EEE4baseEv, %function
_ZNK9__gnu_cxx17__normal_iteratorIPSt6vectorIiSaIiEES1_IS3_SaIS3_EEE4baseEv:
.LFB3053:
	.cfi_startproc
	sub	sp, sp, #16
	.cfi_def_cfa_offset 16
	str	x0, [sp, 8]
	ldr	x0, [sp, 8]
	add	sp, sp, 16
	.cfi_def_cfa_offset 0
	ret
	.cfi_endproc
.LFE3053:
	.size	_ZNK9__gnu_cxx17__normal_iteratorIPSt6vectorIiSaIiEES1_IS3_SaIS3_EEE4baseEv, .-_ZNK9__gnu_cxx17__normal_iteratorIPSt6vectorIiSaIiEES1_IS3_SaIS3_EEE4baseEv
	.section	.text._ZNSt16allocator_traitsISaISt6vectorIiSaIiEEEE7destroyIS2_EEvRS3_PT_,"axG",@progbits,_ZNSt16allocator_traitsISaISt6vectorIiSaIiEEEE7destroyIS2_EEvRS3_PT_,comdat
	.align	2
	.weak	_ZNSt16allocator_traitsISaISt6vectorIiSaIiEEEE7destroyIS2_EEvRS3_PT_
	.type	_ZNSt16allocator_traitsISaISt6vectorIiSaIiEEEE7destroyIS2_EEvRS3_PT_, %function
_ZNSt16allocator_traitsISaISt6vectorIiSaIiEEEE7destroyIS2_EEvRS3_PT_:
.LFB3054:
	.cfi_startproc
	stp	x29, x30, [sp, -32]!
	.cfi_def_cfa_offset 32
	.cfi_offset 29, -32
	.cfi_offset 30, -24
	mov	x29, sp
	str	x0, [sp, 24]
	str	x1, [sp, 16]
	ldr	x1, [sp, 16]
	ldr	x0, [sp, 24]
	bl	_ZN9__gnu_cxx13new_allocatorISt6vectorIiSaIiEEE7destroyIS3_EEvPT_
	nop
	ldp	x29, x30, [sp], 32
	.cfi_restore 30
	.cfi_restore 29
	.cfi_def_cfa_offset 0
	ret
	.cfi_endproc
.LFE3054:
	.size	_ZNSt16allocator_traitsISaISt6vectorIiSaIiEEEE7destroyIS2_EEvRS3_PT_, .-_ZNSt16allocator_traitsISaISt6vectorIiSaIiEEEE7destroyIS2_EEvRS3_PT_
	.section	.text._ZNK9__gnu_cxx17__normal_iteratorIPSt6vectorIiSaIiEES1_IS3_SaIS3_EEEmiEl,"axG",@progbits,_ZNK9__gnu_cxx17__normal_iteratorIPSt6vectorIiSaIiEES1_IS3_SaIS3_EEEmiEl,comdat
	.align	2
	.weak	_ZNK9__gnu_cxx17__normal_iteratorIPSt6vectorIiSaIiEES1_IS3_SaIS3_EEEmiEl
	.type	_ZNK9__gnu_cxx17__normal_iteratorIPSt6vectorIiSaIiEES1_IS3_SaIS3_EEEmiEl, %function
_ZNK9__gnu_cxx17__normal_iteratorIPSt6vectorIiSaIiEES1_IS3_SaIS3_EEEmiEl:
.LFB3055:
	.cfi_startproc
	stp	x29, x30, [sp, -64]!
	.cfi_def_cfa_offset 64
	.cfi_offset 29, -64
	.cfi_offset 30, -56
	mov	x29, sp
	str	x0, [sp, 24]
	str	x1, [sp, 16]
	adrp	x0, :got:__stack_chk_guard
	ldr	x0, [x0, #:got_lo12:__stack_chk_guard]
	ldr	x1, [x0]
	str	x1, [sp, 56]
	mov	x1, 0
	ldr	x0, [sp, 24]
	ldr	x2, [x0]
	ldr	x1, [sp, 16]
	mov	x0, x1
	lsl	x0, x0, 1
	add	x0, x0, x1
	lsl	x0, x0, 3
	neg	x0, x0
	add	x0, x2, x0
	str	x0, [sp, 40]
	add	x1, sp, 40
	add	x0, sp, 48
	bl	_ZN9__gnu_cxx17__normal_iteratorIPSt6vectorIiSaIiEES1_IS3_SaIS3_EEEC1ERKS4_
	ldr	x0, [sp, 48]
	mov	x1, x0
	adrp	x0, :got:__stack_chk_guard
	ldr	x0, [x0, #:got_lo12:__stack_chk_guard]
	ldr	x3, [sp, 56]
	ldr	x2, [x0]
	subs	x3, x3, x2
	mov	x2, 0
	beq	.L337
	bl	__stack_chk_fail
.L337:
	mov	x0, x1
	ldp	x29, x30, [sp], 64
	.cfi_restore 30
	.cfi_restore 29
	.cfi_def_cfa_offset 0
	ret
	.cfi_endproc
.LFE3055:
	.size	_ZNK9__gnu_cxx17__normal_iteratorIPSt6vectorIiSaIiEES1_IS3_SaIS3_EEEmiEl, .-_ZNK9__gnu_cxx17__normal_iteratorIPSt6vectorIiSaIiEES1_IS3_SaIS3_EEEmiEl
	.section	.text._ZNK9__gnu_cxx17__normal_iteratorIPSt6vectorIiSaIiEES1_IS3_SaIS3_EEEdeEv,"axG",@progbits,_ZNK9__gnu_cxx17__normal_iteratorIPSt6vectorIiSaIiEES1_IS3_SaIS3_EEEdeEv,comdat
	.align	2
	.weak	_ZNK9__gnu_cxx17__normal_iteratorIPSt6vectorIiSaIiEES1_IS3_SaIS3_EEEdeEv
	.type	_ZNK9__gnu_cxx17__normal_iteratorIPSt6vectorIiSaIiEES1_IS3_SaIS3_EEEdeEv, %function
_ZNK9__gnu_cxx17__normal_iteratorIPSt6vectorIiSaIiEES1_IS3_SaIS3_EEEdeEv:
.LFB3056:
	.cfi_startproc
	sub	sp, sp, #16
	.cfi_def_cfa_offset 16
	str	x0, [sp, 8]
	ldr	x0, [sp, 8]
	ldr	x0, [x0]
	add	sp, sp, 16
	.cfi_def_cfa_offset 0
	ret
	.cfi_endproc
.LFE3056:
	.size	_ZNK9__gnu_cxx17__normal_iteratorIPSt6vectorIiSaIiEES1_IS3_SaIS3_EEEdeEv, .-_ZNK9__gnu_cxx17__normal_iteratorIPSt6vectorIiSaIiEES1_IS3_SaIS3_EEEdeEv
	.section	.text._ZNKSt6vectorIiSaIiEE8max_sizeEv,"axG",@progbits,_ZNKSt6vectorIiSaIiEE8max_sizeEv,comdat
	.align	2
	.weak	_ZNKSt6vectorIiSaIiEE8max_sizeEv
	.type	_ZNKSt6vectorIiSaIiEE8max_sizeEv, %function
_ZNKSt6vectorIiSaIiEE8max_sizeEv:
.LFB3057:
	.cfi_startproc
	stp	x29, x30, [sp, -32]!
	.cfi_def_cfa_offset 32
	.cfi_offset 29, -32
	.cfi_offset 30, -24
	mov	x29, sp
	str	x0, [sp, 24]
	ldr	x0, [sp, 24]
	bl	_ZNKSt12_Vector_baseIiSaIiEE19_M_get_Tp_allocatorEv
	bl	_ZNSt6vectorIiSaIiEE11_S_max_sizeERKS0_
	ldp	x29, x30, [sp], 32
	.cfi_restore 30
	.cfi_restore 29
	.cfi_def_cfa_offset 0
	ret
	.cfi_endproc
.LFE3057:
	.size	_ZNKSt6vectorIiSaIiEE8max_sizeEv, .-_ZNKSt6vectorIiSaIiEE8max_sizeEv
	.section	.text._ZNKSt6vectorIiSaIiEE4sizeEv,"axG",@progbits,_ZNKSt6vectorIiSaIiEE4sizeEv,comdat
	.align	2
	.weak	_ZNKSt6vectorIiSaIiEE4sizeEv
	.type	_ZNKSt6vectorIiSaIiEE4sizeEv, %function
_ZNKSt6vectorIiSaIiEE4sizeEv:
.LFB3058:
	.cfi_startproc
	sub	sp, sp, #16
	.cfi_def_cfa_offset 16
	str	x0, [sp, 8]
	ldr	x0, [sp, 8]
	ldr	x1, [x0, 8]
	ldr	x0, [sp, 8]
	ldr	x0, [x0]
	sub	x0, x1, x0
	asr	x0, x0, 2
	add	sp, sp, 16
	.cfi_def_cfa_offset 0
	ret
	.cfi_endproc
.LFE3058:
	.size	_ZNKSt6vectorIiSaIiEE4sizeEv, .-_ZNKSt6vectorIiSaIiEE4sizeEv
	.section	.text._ZNSt16allocator_traitsISaIiEE8allocateERS0_m,"axG",@progbits,_ZNSt16allocator_traitsISaIiEE8allocateERS0_m,comdat
	.align	2
	.weak	_ZNSt16allocator_traitsISaIiEE8allocateERS0_m
	.type	_ZNSt16allocator_traitsISaIiEE8allocateERS0_m, %function
_ZNSt16allocator_traitsISaIiEE8allocateERS0_m:
.LFB3059:
	.cfi_startproc
	stp	x29, x30, [sp, -32]!
	.cfi_def_cfa_offset 32
	.cfi_offset 29, -32
	.cfi_offset 30, -24
	mov	x29, sp
	str	x0, [sp, 24]
	str	x1, [sp, 16]
	mov	x2, 0
	ldr	x1, [sp, 16]
	ldr	x0, [sp, 24]
	bl	_ZN9__gnu_cxx13new_allocatorIiE8allocateEmPKv
	ldp	x29, x30, [sp], 32
	.cfi_restore 30
	.cfi_restore 29
	.cfi_def_cfa_offset 0
	ret
	.cfi_endproc
.LFE3059:
	.size	_ZNSt16allocator_traitsISaIiEE8allocateERS0_m, .-_ZNSt16allocator_traitsISaIiEE8allocateERS0_m
	.section	.text._ZNSt6vectorIiSaIiEE14_S_do_relocateEPiS2_S2_RS0_St17integral_constantIbLb1EE,"axG",@progbits,_ZNSt6vectorIiSaIiEE14_S_do_relocateEPiS2_S2_RS0_St17integral_constantIbLb1EE,comdat
	.align	2
	.weak	_ZNSt6vectorIiSaIiEE14_S_do_relocateEPiS2_S2_RS0_St17integral_constantIbLb1EE
	.type	_ZNSt6vectorIiSaIiEE14_S_do_relocateEPiS2_S2_RS0_St17integral_constantIbLb1EE, %function
_ZNSt6vectorIiSaIiEE14_S_do_relocateEPiS2_S2_RS0_St17integral_constantIbLb1EE:
.LFB3060:
	.cfi_startproc
	stp	x29, x30, [sp, -64]!
	.cfi_def_cfa_offset 64
	.cfi_offset 29, -64
	.cfi_offset 30, -56
	mov	x29, sp
	str	x0, [sp, 56]
	str	x1, [sp, 48]
	str	x2, [sp, 40]
	str	x3, [sp, 32]
	strb	w4, [sp, 24]
	ldr	x3, [sp, 32]
	ldr	x2, [sp, 40]
	ldr	x1, [sp, 48]
	ldr	x0, [sp, 56]
	bl	_ZSt12__relocate_aIPiS0_SaIiEET0_T_S3_S2_RT1_
	ldp	x29, x30, [sp], 64
	.cfi_restore 30
	.cfi_restore 29
	.cfi_def_cfa_offset 0
	ret
	.cfi_endproc
.LFE3060:
	.size	_ZNSt6vectorIiSaIiEE14_S_do_relocateEPiS2_S2_RS0_St17integral_constantIbLb1EE, .-_ZNSt6vectorIiSaIiEE14_S_do_relocateEPiS2_S2_RS0_St17integral_constantIbLb1EE
	.section	.text._ZN9__gnu_cxx13new_allocatorIiE7destroyIiEEvPT_,"axG",@progbits,_ZN9__gnu_cxx13new_allocatorIiE7destroyIiEEvPT_,comdat
	.align	2
	.weak	_ZN9__gnu_cxx13new_allocatorIiE7destroyIiEEvPT_
	.type	_ZN9__gnu_cxx13new_allocatorIiE7destroyIiEEvPT_, %function
_ZN9__gnu_cxx13new_allocatorIiE7destroyIiEEvPT_:
.LFB3061:
	.cfi_startproc
	sub	sp, sp, #16
	.cfi_def_cfa_offset 16
	str	x0, [sp, 8]
	str	x1, [sp]
	nop
	add	sp, sp, 16
	.cfi_def_cfa_offset 0
	ret
	.cfi_endproc
.LFE3061:
	.size	_ZN9__gnu_cxx13new_allocatorIiE7destroyIiEEvPT_, .-_ZN9__gnu_cxx13new_allocatorIiE7destroyIiEEvPT_
	.section	.text._ZN9__gnu_cxx13new_allocatorIiE9constructIiJiEEEvPT_DpOT0_,"axG",@progbits,_ZN9__gnu_cxx13new_allocatorIiE9constructIiJiEEEvPT_DpOT0_,comdat
	.align	2
	.weak	_ZN9__gnu_cxx13new_allocatorIiE9constructIiJiEEEvPT_DpOT0_
	.type	_ZN9__gnu_cxx13new_allocatorIiE9constructIiJiEEEvPT_DpOT0_, %function
_ZN9__gnu_cxx13new_allocatorIiE9constructIiJiEEEvPT_DpOT0_:
.LFB3062:
	.cfi_startproc
	stp	x29, x30, [sp, -64]!
	.cfi_def_cfa_offset 64
	.cfi_offset 29, -64
	.cfi_offset 30, -56
	mov	x29, sp
	str	x19, [sp, 16]
	.cfi_offset 19, -48
	str	x0, [sp, 56]
	str	x1, [sp, 48]
	str	x2, [sp, 40]
	ldr	x0, [sp, 40]
	bl	_ZSt7forwardIiEOT_RNSt16remove_referenceIS0_E4typeE
	ldr	w19, [x0]
	ldr	x0, [sp, 48]
	mov	x1, x0
	mov	x0, 4
	bl	_ZnwmPv
	str	w19, [x0]
	nop
	ldr	x19, [sp, 16]
	ldp	x29, x30, [sp], 64
	.cfi_restore 30
	.cfi_restore 29
	.cfi_restore 19
	.cfi_def_cfa_offset 0
	ret
	.cfi_endproc
.LFE3062:
	.size	_ZN9__gnu_cxx13new_allocatorIiE9constructIiJiEEEvPT_DpOT0_, .-_ZN9__gnu_cxx13new_allocatorIiE9constructIiJiEEEvPT_DpOT0_
	.section	.text._ZSt12__miter_baseIPiET_S1_,"axG",@progbits,_ZSt12__miter_baseIPiET_S1_,comdat
	.align	2
	.weak	_ZSt12__miter_baseIPiET_S1_
	.type	_ZSt12__miter_baseIPiET_S1_, %function
_ZSt12__miter_baseIPiET_S1_:
.LFB3063:
	.cfi_startproc
	sub	sp, sp, #16
	.cfi_def_cfa_offset 16
	str	x0, [sp, 8]
	ldr	x0, [sp, 8]
	add	sp, sp, 16
	.cfi_def_cfa_offset 0
	ret
	.cfi_endproc
.LFE3063:
	.size	_ZSt12__miter_baseIPiET_S1_, .-_ZSt12__miter_baseIPiET_S1_
	.section	.text._ZSt22__copy_move_backward_aILb1EPiS0_ET1_T0_S2_S1_,"axG",@progbits,_ZSt22__copy_move_backward_aILb1EPiS0_ET1_T0_S2_S1_,comdat
	.align	2
	.weak	_ZSt22__copy_move_backward_aILb1EPiS0_ET1_T0_S2_S1_
	.type	_ZSt22__copy_move_backward_aILb1EPiS0_ET1_T0_S2_S1_, %function
_ZSt22__copy_move_backward_aILb1EPiS0_ET1_T0_S2_S1_:
.LFB3064:
	.cfi_startproc
	stp	x29, x30, [sp, -64]!
	.cfi_def_cfa_offset 64
	.cfi_offset 29, -64
	.cfi_offset 30, -56
	mov	x29, sp
	stp	x19, x20, [sp, 16]
	.cfi_offset 19, -48
	.cfi_offset 20, -40
	str	x0, [sp, 56]
	str	x1, [sp, 48]
	str	x2, [sp, 40]
	ldr	x0, [sp, 56]
	bl	_ZSt12__niter_baseIPiET_S1_
	mov	x19, x0
	ldr	x0, [sp, 48]
	bl	_ZSt12__niter_baseIPiET_S1_
	mov	x20, x0
	ldr	x0, [sp, 40]
	bl	_ZSt12__niter_baseIPiET_S1_
	mov	x2, x0
	mov	x1, x20
	mov	x0, x19
	bl	_ZSt23__copy_move_backward_a1ILb1EPiS0_ET1_T0_S2_S1_
	mov	x1, x0
	add	x0, sp, 40
	bl	_ZSt12__niter_wrapIPiET_RKS1_S1_
	ldp	x19, x20, [sp, 16]
	ldp	x29, x30, [sp], 64
	.cfi_restore 30
	.cfi_restore 29
	.cfi_restore 19
	.cfi_restore 20
	.cfi_def_cfa_offset 0
	ret
	.cfi_endproc
.LFE3064:
	.size	_ZSt22__copy_move_backward_aILb1EPiS0_ET1_T0_S2_S1_, .-_ZSt22__copy_move_backward_aILb1EPiS0_ET1_T0_S2_S1_
	.section	.text._ZN9__gnu_cxx13new_allocatorIP8TreeNodeEC2Ev,"axG",@progbits,_ZN9__gnu_cxx13new_allocatorIP8TreeNodeEC5Ev,comdat
	.align	2
	.weak	_ZN9__gnu_cxx13new_allocatorIP8TreeNodeEC2Ev
	.type	_ZN9__gnu_cxx13new_allocatorIP8TreeNodeEC2Ev, %function
_ZN9__gnu_cxx13new_allocatorIP8TreeNodeEC2Ev:
.LFB3112:
	.cfi_startproc
	sub	sp, sp, #16
	.cfi_def_cfa_offset 16
	str	x0, [sp, 8]
	nop
	add	sp, sp, 16
	.cfi_def_cfa_offset 0
	ret
	.cfi_endproc
.LFE3112:
	.size	_ZN9__gnu_cxx13new_allocatorIP8TreeNodeEC2Ev, .-_ZN9__gnu_cxx13new_allocatorIP8TreeNodeEC2Ev
	.weak	_ZN9__gnu_cxx13new_allocatorIP8TreeNodeEC1Ev
	.set	_ZN9__gnu_cxx13new_allocatorIP8TreeNodeEC1Ev,_ZN9__gnu_cxx13new_allocatorIP8TreeNodeEC2Ev
	.section	.text._ZNSt15_Deque_iteratorIP8TreeNodeRS1_PS1_EC2Ev,"axG",@progbits,_ZNSt15_Deque_iteratorIP8TreeNodeRS1_PS1_EC5Ev,comdat
	.align	2
	.weak	_ZNSt15_Deque_iteratorIP8TreeNodeRS1_PS1_EC2Ev
	.type	_ZNSt15_Deque_iteratorIP8TreeNodeRS1_PS1_EC2Ev, %function
_ZNSt15_Deque_iteratorIP8TreeNodeRS1_PS1_EC2Ev:
.LFB3115:
	.cfi_startproc
	sub	sp, sp, #16
	.cfi_def_cfa_offset 16
	str	x0, [sp, 8]
	ldr	x0, [sp, 8]
	str	xzr, [x0]
	ldr	x0, [sp, 8]
	str	xzr, [x0, 8]
	ldr	x0, [sp, 8]
	str	xzr, [x0, 16]
	ldr	x0, [sp, 8]
	str	xzr, [x0, 24]
	nop
	add	sp, sp, 16
	.cfi_def_cfa_offset 0
	ret
	.cfi_endproc
.LFE3115:
	.size	_ZNSt15_Deque_iteratorIP8TreeNodeRS1_PS1_EC2Ev, .-_ZNSt15_Deque_iteratorIP8TreeNodeRS1_PS1_EC2Ev
	.weak	_ZNSt15_Deque_iteratorIP8TreeNodeRS1_PS1_EC1Ev
	.set	_ZNSt15_Deque_iteratorIP8TreeNodeRS1_PS1_EC1Ev,_ZNSt15_Deque_iteratorIP8TreeNodeRS1_PS1_EC2Ev
	.section	.text._ZNSt16allocator_traitsISaIPP8TreeNodeEE8allocateERS3_m,"axG",@progbits,_ZNSt16allocator_traitsISaIPP8TreeNodeEE8allocateERS3_m,comdat
	.align	2
	.weak	_ZNSt16allocator_traitsISaIPP8TreeNodeEE8allocateERS3_m
	.type	_ZNSt16allocator_traitsISaIPP8TreeNodeEE8allocateERS3_m, %function
_ZNSt16allocator_traitsISaIPP8TreeNodeEE8allocateERS3_m:
.LFB3117:
	.cfi_startproc
	stp	x29, x30, [sp, -32]!
	.cfi_def_cfa_offset 32
	.cfi_offset 29, -32
	.cfi_offset 30, -24
	mov	x29, sp
	str	x0, [sp, 24]
	str	x1, [sp, 16]
	mov	x2, 0
	ldr	x1, [sp, 16]
	ldr	x0, [sp, 24]
	bl	_ZN9__gnu_cxx13new_allocatorIPP8TreeNodeE8allocateEmPKv
	ldp	x29, x30, [sp], 32
	.cfi_restore 30
	.cfi_restore 29
	.cfi_def_cfa_offset 0
	ret
	.cfi_endproc
.LFE3117:
	.size	_ZNSt16allocator_traitsISaIPP8TreeNodeEE8allocateERS3_m, .-_ZNSt16allocator_traitsISaIPP8TreeNodeEE8allocateERS3_m
	.section	.text._ZNSt15_Deque_iteratorIP8TreeNodeRS1_PS1_E14_S_buffer_sizeEv,"axG",@progbits,_ZNSt15_Deque_iteratorIP8TreeNodeRS1_PS1_E14_S_buffer_sizeEv,comdat
	.align	2
	.weak	_ZNSt15_Deque_iteratorIP8TreeNodeRS1_PS1_E14_S_buffer_sizeEv
	.type	_ZNSt15_Deque_iteratorIP8TreeNodeRS1_PS1_E14_S_buffer_sizeEv, %function
_ZNSt15_Deque_iteratorIP8TreeNodeRS1_PS1_E14_S_buffer_sizeEv:
.LFB3118:
	.cfi_startproc
	stp	x29, x30, [sp, -16]!
	.cfi_def_cfa_offset 16
	.cfi_offset 29, -16
	.cfi_offset 30, -8
	mov	x29, sp
	mov	x0, 8
	bl	_ZSt16__deque_buf_sizem
	ldp	x29, x30, [sp], 16
	.cfi_restore 30
	.cfi_restore 29
	.cfi_def_cfa_offset 0
	ret
	.cfi_endproc
.LFE3118:
	.size	_ZNSt15_Deque_iteratorIP8TreeNodeRS1_PS1_E14_S_buffer_sizeEv, .-_ZNSt15_Deque_iteratorIP8TreeNodeRS1_PS1_E14_S_buffer_sizeEv
	.section	.text._ZNSt16allocator_traitsISaIP8TreeNodeEE10deallocateERS2_PS1_m,"axG",@progbits,_ZNSt16allocator_traitsISaIP8TreeNodeEE10deallocateERS2_PS1_m,comdat
	.align	2
	.weak	_ZNSt16allocator_traitsISaIP8TreeNodeEE10deallocateERS2_PS1_m
	.type	_ZNSt16allocator_traitsISaIP8TreeNodeEE10deallocateERS2_PS1_m, %function
_ZNSt16allocator_traitsISaIP8TreeNodeEE10deallocateERS2_PS1_m:
.LFB3119:
	.cfi_startproc
	stp	x29, x30, [sp, -48]!
	.cfi_def_cfa_offset 48
	.cfi_offset 29, -48
	.cfi_offset 30, -40
	mov	x29, sp
	str	x0, [sp, 40]
	str	x1, [sp, 32]
	str	x2, [sp, 24]
	ldr	x2, [sp, 24]
	ldr	x1, [sp, 32]
	ldr	x0, [sp, 40]
	bl	_ZN9__gnu_cxx13new_allocatorIP8TreeNodeE10deallocateEPS2_m
	nop
	ldp	x29, x30, [sp], 48
	.cfi_restore 30
	.cfi_restore 29
	.cfi_def_cfa_offset 0
	ret
	.cfi_endproc
.LFE3119:
	.size	_ZNSt16allocator_traitsISaIP8TreeNodeEE10deallocateERS2_PS1_m, .-_ZNSt16allocator_traitsISaIP8TreeNodeEE10deallocateERS2_PS1_m
	.section	.text._ZNKSt11_Deque_baseIP8TreeNodeSaIS1_EE19_M_get_Tp_allocatorEv,"axG",@progbits,_ZNKSt11_Deque_baseIP8TreeNodeSaIS1_EE19_M_get_Tp_allocatorEv,comdat
	.align	2
	.weak	_ZNKSt11_Deque_baseIP8TreeNodeSaIS1_EE19_M_get_Tp_allocatorEv
	.type	_ZNKSt11_Deque_baseIP8TreeNodeSaIS1_EE19_M_get_Tp_allocatorEv, %function
_ZNKSt11_Deque_baseIP8TreeNodeSaIS1_EE19_M_get_Tp_allocatorEv:
.LFB3120:
	.cfi_startproc
	sub	sp, sp, #16
	.cfi_def_cfa_offset 16
	str	x0, [sp, 8]
	ldr	x0, [sp, 8]
	add	sp, sp, 16
	.cfi_def_cfa_offset 0
	ret
	.cfi_endproc
.LFE3120:
	.size	_ZNKSt11_Deque_baseIP8TreeNodeSaIS1_EE19_M_get_Tp_allocatorEv, .-_ZNKSt11_Deque_baseIP8TreeNodeSaIS1_EE19_M_get_Tp_allocatorEv
	.section	.text._ZNSaIPP8TreeNodeEC2IS0_EERKSaIT_E,"axG",@progbits,_ZNSaIPP8TreeNodeEC5IS0_EERKSaIT_E,comdat
	.align	2
	.weak	_ZNSaIPP8TreeNodeEC2IS0_EERKSaIT_E
	.type	_ZNSaIPP8TreeNodeEC2IS0_EERKSaIT_E, %function
_ZNSaIPP8TreeNodeEC2IS0_EERKSaIT_E:
.LFB3122:
	.cfi_startproc
	stp	x29, x30, [sp, -32]!
	.cfi_def_cfa_offset 32
	.cfi_offset 29, -32
	.cfi_offset 30, -24
	mov	x29, sp
	str	x0, [sp, 24]
	str	x1, [sp, 16]
	ldr	x0, [sp, 24]
	bl	_ZN9__gnu_cxx13new_allocatorIPP8TreeNodeEC2Ev
	nop
	ldp	x29, x30, [sp], 32
	.cfi_restore 30
	.cfi_restore 29
	.cfi_def_cfa_offset 0
	ret
	.cfi_endproc
.LFE3122:
	.size	_ZNSaIPP8TreeNodeEC2IS0_EERKSaIT_E, .-_ZNSaIPP8TreeNodeEC2IS0_EERKSaIT_E
	.weak	_ZNSaIPP8TreeNodeEC1IS0_EERKSaIT_E
	.set	_ZNSaIPP8TreeNodeEC1IS0_EERKSaIT_E,_ZNSaIPP8TreeNodeEC2IS0_EERKSaIT_E
	.section	.text._ZN9__gnu_cxx13new_allocatorIPP8TreeNodeED2Ev,"axG",@progbits,_ZN9__gnu_cxx13new_allocatorIPP8TreeNodeED5Ev,comdat
	.align	2
	.weak	_ZN9__gnu_cxx13new_allocatorIPP8TreeNodeED2Ev
	.type	_ZN9__gnu_cxx13new_allocatorIPP8TreeNodeED2Ev, %function
_ZN9__gnu_cxx13new_allocatorIPP8TreeNodeED2Ev:
.LFB3125:
	.cfi_startproc
	sub	sp, sp, #16
	.cfi_def_cfa_offset 16
	str	x0, [sp, 8]
	nop
	add	sp, sp, 16
	.cfi_def_cfa_offset 0
	ret
	.cfi_endproc
.LFE3125:
	.size	_ZN9__gnu_cxx13new_allocatorIPP8TreeNodeED2Ev, .-_ZN9__gnu_cxx13new_allocatorIPP8TreeNodeED2Ev
	.weak	_ZN9__gnu_cxx13new_allocatorIPP8TreeNodeED1Ev
	.set	_ZN9__gnu_cxx13new_allocatorIPP8TreeNodeED1Ev,_ZN9__gnu_cxx13new_allocatorIPP8TreeNodeED2Ev
	.section	.text._ZN9__gnu_cxx13new_allocatorIPP8TreeNodeE10deallocateEPS3_m,"axG",@progbits,_ZN9__gnu_cxx13new_allocatorIPP8TreeNodeE10deallocateEPS3_m,comdat
	.align	2
	.weak	_ZN9__gnu_cxx13new_allocatorIPP8TreeNodeE10deallocateEPS3_m
	.type	_ZN9__gnu_cxx13new_allocatorIPP8TreeNodeE10deallocateEPS3_m, %function
_ZN9__gnu_cxx13new_allocatorIPP8TreeNodeE10deallocateEPS3_m:
.LFB3127:
	.cfi_startproc
	stp	x29, x30, [sp, -48]!
	.cfi_def_cfa_offset 48
	.cfi_offset 29, -48
	.cfi_offset 30, -40
	mov	x29, sp
	str	x0, [sp, 40]
	str	x1, [sp, 32]
	str	x2, [sp, 24]
	ldr	x0, [sp, 24]
	lsl	x0, x0, 3
	mov	x1, x0
	ldr	x0, [sp, 32]
	bl	_ZdlPvm
	ldp	x29, x30, [sp], 48
	.cfi_restore 30
	.cfi_restore 29
	.cfi_def_cfa_offset 0
	ret
	.cfi_endproc
.LFE3127:
	.size	_ZN9__gnu_cxx13new_allocatorIPP8TreeNodeE10deallocateEPS3_m, .-_ZN9__gnu_cxx13new_allocatorIPP8TreeNodeE10deallocateEPS3_m
	.section	.text._ZSt11__addressofISt6vectorIiSaIiEEEPT_RS3_,"axG",@progbits,_ZSt11__addressofISt6vectorIiSaIiEEEPT_RS3_,comdat
	.align	2
	.weak	_ZSt11__addressofISt6vectorIiSaIiEEEPT_RS3_
	.type	_ZSt11__addressofISt6vectorIiSaIiEEEPT_RS3_, %function
_ZSt11__addressofISt6vectorIiSaIiEEEPT_RS3_:
.LFB3129:
	.cfi_startproc
	sub	sp, sp, #16
	.cfi_def_cfa_offset 16
	str	x0, [sp, 8]
	ldr	x0, [sp, 8]
	add	sp, sp, 16
	.cfi_def_cfa_offset 0
	ret
	.cfi_endproc
.LFE3129:
	.size	_ZSt11__addressofISt6vectorIiSaIiEEEPT_RS3_, .-_ZSt11__addressofISt6vectorIiSaIiEEEPT_RS3_
	.section	.text._ZSt8_DestroyISt6vectorIiSaIiEEEvPT_,"axG",@progbits,_ZSt8_DestroyISt6vectorIiSaIiEEEvPT_,comdat
	.align	2
	.weak	_ZSt8_DestroyISt6vectorIiSaIiEEEvPT_
	.type	_ZSt8_DestroyISt6vectorIiSaIiEEEvPT_, %function
_ZSt8_DestroyISt6vectorIiSaIiEEEvPT_:
.LFB3130:
	.cfi_startproc
	stp	x29, x30, [sp, -32]!
	.cfi_def_cfa_offset 32
	.cfi_offset 29, -32
	.cfi_offset 30, -24
	mov	x29, sp
	str	x0, [sp, 24]
	ldr	x0, [sp, 24]
	bl	_ZNSt6vectorIiSaIiEED1Ev
	nop
	ldp	x29, x30, [sp], 32
	.cfi_restore 30
	.cfi_restore 29
	.cfi_def_cfa_offset 0
	ret
	.cfi_endproc
.LFE3130:
	.size	_ZSt8_DestroyISt6vectorIiSaIiEEEvPT_, .-_ZSt8_DestroyISt6vectorIiSaIiEEEvPT_
	.section	.text._ZStmiRKSt15_Deque_iteratorIP8TreeNodeRS1_PS1_ES6_,"axG",@progbits,_ZStmiRKSt15_Deque_iteratorIP8TreeNodeRS1_PS1_ES6_,comdat
	.align	2
	.weak	_ZStmiRKSt15_Deque_iteratorIP8TreeNodeRS1_PS1_ES6_
	.type	_ZStmiRKSt15_Deque_iteratorIP8TreeNodeRS1_PS1_ES6_, %function
_ZStmiRKSt15_Deque_iteratorIP8TreeNodeRS1_PS1_ES6_:
.LFB3131:
	.cfi_startproc
	stp	x29, x30, [sp, -32]!
	.cfi_def_cfa_offset 32
	.cfi_offset 29, -32
	.cfi_offset 30, -24
	mov	x29, sp
	str	x0, [sp, 24]
	str	x1, [sp, 16]
	bl	_ZNSt15_Deque_iteratorIP8TreeNodeRS1_PS1_E14_S_buffer_sizeEv
	mov	x2, x0
	ldr	x0, [sp, 24]
	ldr	x1, [x0, 24]
	ldr	x0, [sp, 16]
	ldr	x0, [x0, 24]
	sub	x0, x1, x0
	asr	x0, x0, 3
	mov	x1, x0
	ldr	x0, [sp, 24]
	ldr	x0, [x0, 24]
	cmp	x0, 0
	cset	w0, ne
	and	w0, w0, 255
	and	x0, x0, 255
	sub	x0, x1, x0
	mul	x0, x2, x0
	ldr	x1, [sp, 24]
	ldr	x2, [x1]
	ldr	x1, [sp, 24]
	ldr	x1, [x1, 8]
	sub	x1, x2, x1
	asr	x1, x1, 3
	add	x0, x0, x1
	ldr	x1, [sp, 16]
	ldr	x2, [x1, 16]
	ldr	x1, [sp, 16]
	ldr	x1, [x1]
	sub	x1, x2, x1
	asr	x1, x1, 3
	add	x0, x0, x1
	ldp	x29, x30, [sp], 32
	.cfi_restore 30
	.cfi_restore 29
	.cfi_def_cfa_offset 0
	ret
	.cfi_endproc
.LFE3131:
	.size	_ZStmiRKSt15_Deque_iteratorIP8TreeNodeRS1_PS1_ES6_, .-_ZStmiRKSt15_Deque_iteratorIP8TreeNodeRS1_PS1_ES6_
	.section	.text._ZNSt5dequeIP8TreeNodeSaIS1_EE11_S_max_sizeERKS2_,"axG",@progbits,_ZNSt5dequeIP8TreeNodeSaIS1_EE11_S_max_sizeERKS2_,comdat
	.align	2
	.weak	_ZNSt5dequeIP8TreeNodeSaIS1_EE11_S_max_sizeERKS2_
	.type	_ZNSt5dequeIP8TreeNodeSaIS1_EE11_S_max_sizeERKS2_, %function
_ZNSt5dequeIP8TreeNodeSaIS1_EE11_S_max_sizeERKS2_:
.LFB3132:
	.cfi_startproc
	stp	x29, x30, [sp, -64]!
	.cfi_def_cfa_offset 64
	.cfi_offset 29, -64
	.cfi_offset 30, -56
	mov	x29, sp
	str	x0, [sp, 24]
	adrp	x0, :got:__stack_chk_guard
	ldr	x0, [x0, #:got_lo12:__stack_chk_guard]
	ldr	x1, [x0]
	str	x1, [sp, 56]
	mov	x1, 0
	mov	x0, 9223372036854775807
	str	x0, [sp, 40]
	ldr	x0, [sp, 24]
	bl	_ZNSt16allocator_traitsISaIP8TreeNodeEE8max_sizeERKS2_
	str	x0, [sp, 48]
	add	x1, sp, 48
	add	x0, sp, 40
	bl	_ZSt3minImERKT_S2_S2_
	ldr	x0, [x0]
	mov	x1, x0
	adrp	x0, :got:__stack_chk_guard
	ldr	x0, [x0, #:got_lo12:__stack_chk_guard]
	ldr	x3, [sp, 56]
	ldr	x2, [x0]
	subs	x3, x3, x2
	mov	x2, 0
	beq	.L374
	bl	__stack_chk_fail
.L374:
	mov	x0, x1
	ldp	x29, x30, [sp], 64
	.cfi_restore 30
	.cfi_restore 29
	.cfi_def_cfa_offset 0
	ret
	.cfi_endproc
.LFE3132:
	.size	_ZNSt5dequeIP8TreeNodeSaIS1_EE11_S_max_sizeERKS2_, .-_ZNSt5dequeIP8TreeNodeSaIS1_EE11_S_max_sizeERKS2_
	.section	.text._ZNSt5dequeIP8TreeNodeSaIS1_EE17_M_reallocate_mapEmb,"axG",@progbits,_ZNSt5dequeIP8TreeNodeSaIS1_EE17_M_reallocate_mapEmb,comdat
	.align	2
	.weak	_ZNSt5dequeIP8TreeNodeSaIS1_EE17_M_reallocate_mapEmb
	.type	_ZNSt5dequeIP8TreeNodeSaIS1_EE17_M_reallocate_mapEmb, %function
_ZNSt5dequeIP8TreeNodeSaIS1_EE17_M_reallocate_mapEmb:
.LFB3133:
	.cfi_startproc
	stp	x29, x30, [sp, -112]!
	.cfi_def_cfa_offset 112
	.cfi_offset 29, -112
	.cfi_offset 30, -104
	mov	x29, sp
	str	x19, [sp, 16]
	.cfi_offset 19, -96
	str	x0, [sp, 56]
	str	x1, [sp, 48]
	strb	w2, [sp, 47]
	ldr	x0, [sp, 56]
	ldr	x1, [x0, 72]
	ldr	x0, [sp, 56]
	ldr	x0, [x0, 40]
	sub	x0, x1, x0
	asr	x0, x0, 3
	add	x0, x0, 1
	str	x0, [sp, 80]
	ldr	x0, [sp, 48]
	ldr	x1, [sp, 80]
	add	x0, x1, x0
	str	x0, [sp, 88]
	ldr	x0, [sp, 56]
	ldr	x1, [x0, 8]
	ldr	x0, [sp, 88]
	lsl	x0, x0, 1
	cmp	x1, x0
	bls	.L376
	ldr	x0, [sp, 56]
	ldr	x1, [x0]
	ldr	x0, [sp, 56]
	ldr	x2, [x0, 8]
	ldr	x0, [sp, 88]
	sub	x0, x2, x0
	lsr	x0, x0, 1
	lsl	x2, x0, 3
	ldrb	w0, [sp, 47]
	cmp	w0, 0
	beq	.L377
	ldr	x0, [sp, 48]
	lsl	x0, x0, 3
	b	.L378
.L377:
	mov	x0, 0
.L378:
	add	x0, x0, x2
	add	x0, x1, x0
	str	x0, [sp, 72]
	ldr	x0, [sp, 56]
	ldr	x0, [x0, 40]
	ldr	x1, [sp, 72]
	cmp	x1, x0
	bcs	.L379
	ldr	x0, [sp, 56]
	ldr	x3, [x0, 40]
	ldr	x0, [sp, 56]
	ldr	x0, [x0, 72]
	add	x0, x0, 8
	ldr	x2, [sp, 72]
	mov	x1, x0
	mov	x0, x3
	bl	_ZSt4copyIPPP8TreeNodeS3_ET0_T_S5_S4_
	b	.L380
.L379:
	ldr	x0, [sp, 56]
	ldr	x3, [x0, 40]
	ldr	x0, [sp, 56]
	ldr	x0, [x0, 72]
	add	x4, x0, 8
	ldr	x0, [sp, 80]
	lsl	x0, x0, 3
	ldr	x1, [sp, 72]
	add	x0, x1, x0
	mov	x2, x0
	mov	x1, x4
	mov	x0, x3
	bl	_ZSt13copy_backwardIPPP8TreeNodeS3_ET0_T_S5_S4_
	b	.L380
.L376:
	ldr	x0, [sp, 56]
	ldr	x19, [x0, 8]
	ldr	x0, [sp, 56]
	add	x0, x0, 8
	add	x1, sp, 48
	bl	_ZSt3maxImERKT_S2_S2_
	ldr	x0, [x0]
	add	x0, x19, x0
	add	x0, x0, 2
	str	x0, [sp, 96]
	ldr	x0, [sp, 56]
	ldr	x1, [sp, 96]
	bl	_ZNSt11_Deque_baseIP8TreeNodeSaIS1_EE15_M_allocate_mapEm
	str	x0, [sp, 104]
	ldr	x1, [sp, 96]
	ldr	x0, [sp, 88]
	sub	x0, x1, x0
	lsr	x0, x0, 1
	lsl	x1, x0, 3
	ldrb	w0, [sp, 47]
	cmp	w0, 0
	beq	.L381
	ldr	x0, [sp, 48]
	lsl	x0, x0, 3
	b	.L382
.L381:
	mov	x0, 0
.L382:
	add	x0, x0, x1
	ldr	x1, [sp, 104]
	add	x0, x1, x0
	str	x0, [sp, 72]
	ldr	x0, [sp, 56]
	ldr	x3, [x0, 40]
	ldr	x0, [sp, 56]
	ldr	x0, [x0, 72]
	add	x0, x0, 8
	ldr	x2, [sp, 72]
	mov	x1, x0
	mov	x0, x3
	bl	_ZSt4copyIPPP8TreeNodeS3_ET0_T_S5_S4_
	ldr	x3, [sp, 56]
	ldr	x0, [sp, 56]
	ldr	x1, [x0]
	ldr	x0, [sp, 56]
	ldr	x0, [x0, 8]
	mov	x2, x0
	mov	x0, x3
	bl	_ZNSt11_Deque_baseIP8TreeNodeSaIS1_EE17_M_deallocate_mapEPPS1_m
	ldr	x0, [sp, 56]
	ldr	x1, [sp, 104]
	str	x1, [x0]
	ldr	x0, [sp, 56]
	ldr	x1, [sp, 96]
	str	x1, [x0, 8]
.L380:
	ldr	x0, [sp, 56]
	add	x0, x0, 16
	ldr	x1, [sp, 72]
	bl	_ZNSt15_Deque_iteratorIP8TreeNodeRS1_PS1_E11_M_set_nodeEPS3_
	ldr	x0, [sp, 56]
	add	x2, x0, 48
	ldr	x0, [sp, 80]
	lsl	x0, x0, 3
	sub	x0, x0, #8
	ldr	x1, [sp, 72]
	add	x0, x1, x0
	mov	x1, x0
	mov	x0, x2
	bl	_ZNSt15_Deque_iteratorIP8TreeNodeRS1_PS1_E11_M_set_nodeEPS3_
	nop
	ldr	x19, [sp, 16]
	ldp	x29, x30, [sp], 112
	.cfi_restore 30
	.cfi_restore 29
	.cfi_restore 19
	.cfi_def_cfa_offset 0
	ret
	.cfi_endproc
.LFE3133:
	.size	_ZNSt5dequeIP8TreeNodeSaIS1_EE17_M_reallocate_mapEmb, .-_ZNSt5dequeIP8TreeNodeSaIS1_EE17_M_reallocate_mapEmb
	.section	.text._ZNSt16allocator_traitsISaIP8TreeNodeEE8allocateERS2_m,"axG",@progbits,_ZNSt16allocator_traitsISaIP8TreeNodeEE8allocateERS2_m,comdat
	.align	2
	.weak	_ZNSt16allocator_traitsISaIP8TreeNodeEE8allocateERS2_m
	.type	_ZNSt16allocator_traitsISaIP8TreeNodeEE8allocateERS2_m, %function
_ZNSt16allocator_traitsISaIP8TreeNodeEE8allocateERS2_m:
.LFB3134:
	.cfi_startproc
	stp	x29, x30, [sp, -32]!
	.cfi_def_cfa_offset 32
	.cfi_offset 29, -32
	.cfi_offset 30, -24
	mov	x29, sp
	str	x0, [sp, 24]
	str	x1, [sp, 16]
	mov	x2, 0
	ldr	x1, [sp, 16]
	ldr	x0, [sp, 24]
	bl	_ZN9__gnu_cxx13new_allocatorIP8TreeNodeE8allocateEmPKv
	ldp	x29, x30, [sp], 32
	.cfi_restore 30
	.cfi_restore 29
	.cfi_def_cfa_offset 0
	ret
	.cfi_endproc
.LFE3134:
	.size	_ZNSt16allocator_traitsISaIP8TreeNodeEE8allocateERS2_m, .-_ZNSt16allocator_traitsISaIP8TreeNodeEE8allocateERS2_m
	.section	.text._ZNSt12_Vector_baseIiSaIiEE12_Vector_implC2EOS2_,"axG",@progbits,_ZNSt12_Vector_baseIiSaIiEE12_Vector_implC5EOS2_,comdat
	.align	2
	.weak	_ZNSt12_Vector_baseIiSaIiEE12_Vector_implC2EOS2_
	.type	_ZNSt12_Vector_baseIiSaIiEE12_Vector_implC2EOS2_, %function
_ZNSt12_Vector_baseIiSaIiEE12_Vector_implC2EOS2_:
.LFB3136:
	.cfi_startproc
	stp	x29, x30, [sp, -48]!
	.cfi_def_cfa_offset 48
	.cfi_offset 29, -48
	.cfi_offset 30, -40
	mov	x29, sp
	str	x19, [sp, 16]
	.cfi_offset 19, -32
	str	x0, [sp, 40]
	str	x1, [sp, 32]
	ldr	x0, [sp, 32]
	bl	_ZSt4moveIRNSt12_Vector_baseIiSaIiEE12_Vector_implEEONSt16remove_referenceIT_E4typeEOS6_
	mov	x1, x0
	ldr	x0, [sp, 40]
	bl	_ZNSaIiEC2ERKS_
	ldr	x19, [sp, 40]
	ldr	x0, [sp, 32]
	bl	_ZSt4moveIRNSt12_Vector_baseIiSaIiEE12_Vector_implEEONSt16remove_referenceIT_E4typeEOS6_
	mov	x1, x0
	mov	x0, x19
	bl	_ZNSt12_Vector_baseIiSaIiEE17_Vector_impl_dataC2EOS2_
	nop
	ldr	x19, [sp, 16]
	ldp	x29, x30, [sp], 48
	.cfi_restore 30
	.cfi_restore 29
	.cfi_restore 19
	.cfi_def_cfa_offset 0
	ret
	.cfi_endproc
.LFE3136:
	.size	_ZNSt12_Vector_baseIiSaIiEE12_Vector_implC2EOS2_, .-_ZNSt12_Vector_baseIiSaIiEE12_Vector_implC2EOS2_
	.weak	_ZNSt12_Vector_baseIiSaIiEE12_Vector_implC1EOS2_
	.set	_ZNSt12_Vector_baseIiSaIiEE12_Vector_implC1EOS2_,_ZNSt12_Vector_baseIiSaIiEE12_Vector_implC2EOS2_
	.section	.text._ZNKSt6vectorIS_IiSaIiEESaIS1_EE8max_sizeEv,"axG",@progbits,_ZNKSt6vectorIS_IiSaIiEESaIS1_EE8max_sizeEv,comdat
	.align	2
	.weak	_ZNKSt6vectorIS_IiSaIiEESaIS1_EE8max_sizeEv
	.type	_ZNKSt6vectorIS_IiSaIiEESaIS1_EE8max_sizeEv, %function
_ZNKSt6vectorIS_IiSaIiEESaIS1_EE8max_sizeEv:
.LFB3138:
	.cfi_startproc
	stp	x29, x30, [sp, -32]!
	.cfi_def_cfa_offset 32
	.cfi_offset 29, -32
	.cfi_offset 30, -24
	mov	x29, sp
	str	x0, [sp, 24]
	ldr	x0, [sp, 24]
	bl	_ZNKSt12_Vector_baseISt6vectorIiSaIiEESaIS2_EE19_M_get_Tp_allocatorEv
	bl	_ZNSt6vectorIS_IiSaIiEESaIS1_EE11_S_max_sizeERKS2_
	ldp	x29, x30, [sp], 32
	.cfi_restore 30
	.cfi_restore 29
	.cfi_def_cfa_offset 0
	ret
	.cfi_endproc
.LFE3138:
	.size	_ZNKSt6vectorIS_IiSaIiEESaIS1_EE8max_sizeEv, .-_ZNKSt6vectorIS_IiSaIiEESaIS1_EE8max_sizeEv
	.section	.text._ZNSt16allocator_traitsISaISt6vectorIiSaIiEEEE8allocateERS3_m,"axG",@progbits,_ZNSt16allocator_traitsISaISt6vectorIiSaIiEEEE8allocateERS3_m,comdat
	.align	2
	.weak	_ZNSt16allocator_traitsISaISt6vectorIiSaIiEEEE8allocateERS3_m
	.type	_ZNSt16allocator_traitsISaISt6vectorIiSaIiEEEE8allocateERS3_m, %function
_ZNSt16allocator_traitsISaISt6vectorIiSaIiEEEE8allocateERS3_m:
.LFB3139:
	.cfi_startproc
	stp	x29, x30, [sp, -32]!
	.cfi_def_cfa_offset 32
	.cfi_offset 29, -32
	.cfi_offset 30, -24
	mov	x29, sp
	str	x0, [sp, 24]
	str	x1, [sp, 16]
	mov	x2, 0
	ldr	x1, [sp, 16]
	ldr	x0, [sp, 24]
	bl	_ZN9__gnu_cxx13new_allocatorISt6vectorIiSaIiEEE8allocateEmPKv
	ldp	x29, x30, [sp], 32
	.cfi_restore 30
	.cfi_restore 29
	.cfi_def_cfa_offset 0
	ret
	.cfi_endproc
.LFE3139:
	.size	_ZNSt16allocator_traitsISaISt6vectorIiSaIiEEEE8allocateERS3_m, .-_ZNSt16allocator_traitsISaISt6vectorIiSaIiEEEE8allocateERS3_m
	.section	.text._ZNSt6vectorIS_IiSaIiEESaIS1_EE14_S_do_relocateEPS1_S4_S4_RS2_St17integral_constantIbLb1EE,"axG",@progbits,_ZNSt6vectorIS_IiSaIiEESaIS1_EE14_S_do_relocateEPS1_S4_S4_RS2_St17integral_constantIbLb1EE,comdat
	.align	2
	.weak	_ZNSt6vectorIS_IiSaIiEESaIS1_EE14_S_do_relocateEPS1_S4_S4_RS2_St17integral_constantIbLb1EE
	.type	_ZNSt6vectorIS_IiSaIiEESaIS1_EE14_S_do_relocateEPS1_S4_S4_RS2_St17integral_constantIbLb1EE, %function
_ZNSt6vectorIS_IiSaIiEESaIS1_EE14_S_do_relocateEPS1_S4_S4_RS2_St17integral_constantIbLb1EE:
.LFB3140:
	.cfi_startproc
	stp	x29, x30, [sp, -64]!
	.cfi_def_cfa_offset 64
	.cfi_offset 29, -64
	.cfi_offset 30, -56
	mov	x29, sp
	str	x0, [sp, 56]
	str	x1, [sp, 48]
	str	x2, [sp, 40]
	str	x3, [sp, 32]
	strb	w4, [sp, 24]
	ldr	x3, [sp, 32]
	ldr	x2, [sp, 40]
	ldr	x1, [sp, 48]
	ldr	x0, [sp, 56]
	bl	_ZSt12__relocate_aIPSt6vectorIiSaIiEES3_SaIS2_EET0_T_S6_S5_RT1_
	ldp	x29, x30, [sp], 64
	.cfi_restore 30
	.cfi_restore 29
	.cfi_def_cfa_offset 0
	ret
	.cfi_endproc
.LFE3140:
	.size	_ZNSt6vectorIS_IiSaIiEESaIS1_EE14_S_do_relocateEPS1_S4_S4_RS2_St17integral_constantIbLb1EE, .-_ZNSt6vectorIS_IiSaIiEESaIS1_EE14_S_do_relocateEPS1_S4_S4_RS2_St17integral_constantIbLb1EE
	.section	.text._ZN9__gnu_cxx13new_allocatorISt6vectorIiSaIiEEE7destroyIS3_EEvPT_,"axG",@progbits,_ZN9__gnu_cxx13new_allocatorISt6vectorIiSaIiEEE7destroyIS3_EEvPT_,comdat
	.align	2
	.weak	_ZN9__gnu_cxx13new_allocatorISt6vectorIiSaIiEEE7destroyIS3_EEvPT_
	.type	_ZN9__gnu_cxx13new_allocatorISt6vectorIiSaIiEEE7destroyIS3_EEvPT_, %function
_ZN9__gnu_cxx13new_allocatorISt6vectorIiSaIiEEE7destroyIS3_EEvPT_:
.LFB3141:
	.cfi_startproc
	stp	x29, x30, [sp, -32]!
	.cfi_def_cfa_offset 32
	.cfi_offset 29, -32
	.cfi_offset 30, -24
	mov	x29, sp
	str	x0, [sp, 24]
	str	x1, [sp, 16]
	ldr	x0, [sp, 16]
	bl	_ZNSt6vectorIiSaIiEED1Ev
	nop
	ldp	x29, x30, [sp], 32
	.cfi_restore 30
	.cfi_restore 29
	.cfi_def_cfa_offset 0
	ret
	.cfi_endproc
.LFE3141:
	.size	_ZN9__gnu_cxx13new_allocatorISt6vectorIiSaIiEEE7destroyIS3_EEvPT_, .-_ZN9__gnu_cxx13new_allocatorISt6vectorIiSaIiEEE7destroyIS3_EEvPT_
	.section	.text._ZNSt6vectorIiSaIiEE11_S_max_sizeERKS0_,"axG",@progbits,_ZNSt6vectorIiSaIiEE11_S_max_sizeERKS0_,comdat
	.align	2
	.weak	_ZNSt6vectorIiSaIiEE11_S_max_sizeERKS0_
	.type	_ZNSt6vectorIiSaIiEE11_S_max_sizeERKS0_, %function
_ZNSt6vectorIiSaIiEE11_S_max_sizeERKS0_:
.LFB3142:
	.cfi_startproc
	stp	x29, x30, [sp, -64]!
	.cfi_def_cfa_offset 64
	.cfi_offset 29, -64
	.cfi_offset 30, -56
	mov	x29, sp
	str	x0, [sp, 24]
	adrp	x0, :got:__stack_chk_guard
	ldr	x0, [x0, #:got_lo12:__stack_chk_guard]
	ldr	x1, [x0]
	str	x1, [sp, 56]
	mov	x1, 0
	mov	x0, 2305843009213693951
	str	x0, [sp, 40]
	ldr	x0, [sp, 24]
	bl	_ZNSt16allocator_traitsISaIiEE8max_sizeERKS0_
	str	x0, [sp, 48]
	add	x1, sp, 48
	add	x0, sp, 40
	bl	_ZSt3minImERKT_S2_S2_
	ldr	x0, [x0]
	mov	x1, x0
	adrp	x0, :got:__stack_chk_guard
	ldr	x0, [x0, #:got_lo12:__stack_chk_guard]
	ldr	x3, [sp, 56]
	ldr	x2, [x0]
	subs	x3, x3, x2
	mov	x2, 0
	beq	.L395
	bl	__stack_chk_fail
.L395:
	mov	x0, x1
	ldp	x29, x30, [sp], 64
	.cfi_restore 30
	.cfi_restore 29
	.cfi_def_cfa_offset 0
	ret
	.cfi_endproc
.LFE3142:
	.size	_ZNSt6vectorIiSaIiEE11_S_max_sizeERKS0_, .-_ZNSt6vectorIiSaIiEE11_S_max_sizeERKS0_
	.section	.text._ZNKSt12_Vector_baseIiSaIiEE19_M_get_Tp_allocatorEv,"axG",@progbits,_ZNKSt12_Vector_baseIiSaIiEE19_M_get_Tp_allocatorEv,comdat
	.align	2
	.weak	_ZNKSt12_Vector_baseIiSaIiEE19_M_get_Tp_allocatorEv
	.type	_ZNKSt12_Vector_baseIiSaIiEE19_M_get_Tp_allocatorEv, %function
_ZNKSt12_Vector_baseIiSaIiEE19_M_get_Tp_allocatorEv:
.LFB3143:
	.cfi_startproc
	sub	sp, sp, #16
	.cfi_def_cfa_offset 16
	str	x0, [sp, 8]
	ldr	x0, [sp, 8]
	add	sp, sp, 16
	.cfi_def_cfa_offset 0
	ret
	.cfi_endproc
.LFE3143:
	.size	_ZNKSt12_Vector_baseIiSaIiEE19_M_get_Tp_allocatorEv, .-_ZNKSt12_Vector_baseIiSaIiEE19_M_get_Tp_allocatorEv
	.section	.text._ZNK9__gnu_cxx13new_allocatorIiE11_M_max_sizeEv,"axG",@progbits,_ZNK9__gnu_cxx13new_allocatorIiE11_M_max_sizeEv,comdat
	.align	2
	.weak	_ZNK9__gnu_cxx13new_allocatorIiE11_M_max_sizeEv
	.type	_ZNK9__gnu_cxx13new_allocatorIiE11_M_max_sizeEv, %function
_ZNK9__gnu_cxx13new_allocatorIiE11_M_max_sizeEv:
.LFB3145:
	.cfi_startproc
	sub	sp, sp, #16
	.cfi_def_cfa_offset 16
	str	x0, [sp, 8]
	mov	x0, 2305843009213693951
	add	sp, sp, 16
	.cfi_def_cfa_offset 0
	ret
	.cfi_endproc
.LFE3145:
	.size	_ZNK9__gnu_cxx13new_allocatorIiE11_M_max_sizeEv, .-_ZNK9__gnu_cxx13new_allocatorIiE11_M_max_sizeEv
	.section	.text._ZN9__gnu_cxx13new_allocatorIiE8allocateEmPKv,"axG",@progbits,_ZN9__gnu_cxx13new_allocatorIiE8allocateEmPKv,comdat
	.align	2
	.weak	_ZN9__gnu_cxx13new_allocatorIiE8allocateEmPKv
	.type	_ZN9__gnu_cxx13new_allocatorIiE8allocateEmPKv, %function
_ZN9__gnu_cxx13new_allocatorIiE8allocateEmPKv:
.LFB3144:
	.cfi_startproc
	stp	x29, x30, [sp, -48]!
	.cfi_def_cfa_offset 48
	.cfi_offset 29, -48
	.cfi_offset 30, -40
	mov	x29, sp
	str	x0, [sp, 40]
	str	x1, [sp, 32]
	str	x2, [sp, 24]
	ldr	x0, [sp, 40]
	bl	_ZNK9__gnu_cxx13new_allocatorIiE11_M_max_sizeEv
	mov	x1, x0
	ldr	x0, [sp, 32]
	cmp	x0, x1
	cset	w0, hi
	and	w0, w0, 255
	and	x0, x0, 255
	cmp	x0, 0
	cset	w0, ne
	and	w0, w0, 255
	cmp	w0, 0
	beq	.L401
	ldr	x1, [sp, 32]
	mov	x0, 4611686018427387903
	cmp	x1, x0
	bls	.L402
	bl	_ZSt28__throw_bad_array_new_lengthv
.L402:
	bl	_ZSt17__throw_bad_allocv
.L401:
	ldr	x0, [sp, 32]
	lsl	x0, x0, 2
	bl	_Znwm
	nop
	ldp	x29, x30, [sp], 48
	.cfi_restore 30
	.cfi_restore 29
	.cfi_def_cfa_offset 0
	ret
	.cfi_endproc
.LFE3144:
	.size	_ZN9__gnu_cxx13new_allocatorIiE8allocateEmPKv, .-_ZN9__gnu_cxx13new_allocatorIiE8allocateEmPKv
	.section	.text._ZSt12__relocate_aIPiS0_SaIiEET0_T_S3_S2_RT1_,"axG",@progbits,_ZSt12__relocate_aIPiS0_SaIiEET0_T_S3_S2_RT1_,comdat
	.align	2
	.weak	_ZSt12__relocate_aIPiS0_SaIiEET0_T_S3_S2_RT1_
	.type	_ZSt12__relocate_aIPiS0_SaIiEET0_T_S3_S2_RT1_, %function
_ZSt12__relocate_aIPiS0_SaIiEET0_T_S3_S2_RT1_:
.LFB3146:
	.cfi_startproc
	stp	x29, x30, [sp, -64]!
	.cfi_def_cfa_offset 64
	.cfi_offset 29, -64
	.cfi_offset 30, -56
	mov	x29, sp
	stp	x19, x20, [sp, 16]
	.cfi_offset 19, -48
	.cfi_offset 20, -40
	str	x0, [sp, 56]
	str	x1, [sp, 48]
	str	x2, [sp, 40]
	str	x3, [sp, 32]
	ldr	x0, [sp, 56]
	bl	_ZSt12__niter_baseIPiET_S1_
	mov	x19, x0
	ldr	x0, [sp, 48]
	bl	_ZSt12__niter_baseIPiET_S1_
	mov	x20, x0
	ldr	x0, [sp, 40]
	bl	_ZSt12__niter_baseIPiET_S1_
	ldr	x3, [sp, 32]
	mov	x2, x0
	mov	x1, x20
	mov	x0, x19
	bl	_ZSt14__relocate_a_1IiiENSt9enable_ifIXsrSt24__is_bitwise_relocatableIT_vE5valueEPS2_E4typeES4_S4_S4_RSaIT0_E
	ldp	x19, x20, [sp, 16]
	ldp	x29, x30, [sp], 64
	.cfi_restore 30
	.cfi_restore 29
	.cfi_restore 19
	.cfi_restore 20
	.cfi_def_cfa_offset 0
	ret
	.cfi_endproc
.LFE3146:
	.size	_ZSt12__relocate_aIPiS0_SaIiEET0_T_S3_S2_RT1_, .-_ZSt12__relocate_aIPiS0_SaIiEET0_T_S3_S2_RT1_
	.section	.text._ZSt12__niter_baseIPiET_S1_,"axG",@progbits,_ZSt12__niter_baseIPiET_S1_,comdat
	.align	2
	.weak	_ZSt12__niter_baseIPiET_S1_
	.type	_ZSt12__niter_baseIPiET_S1_, %function
_ZSt12__niter_baseIPiET_S1_:
.LFB3147:
	.cfi_startproc
	sub	sp, sp, #16
	.cfi_def_cfa_offset 16
	str	x0, [sp, 8]
	ldr	x0, [sp, 8]
	add	sp, sp, 16
	.cfi_def_cfa_offset 0
	ret
	.cfi_endproc
.LFE3147:
	.size	_ZSt12__niter_baseIPiET_S1_, .-_ZSt12__niter_baseIPiET_S1_
	.section	.text._ZSt23__copy_move_backward_a1ILb1EPiS0_ET1_T0_S2_S1_,"axG",@progbits,_ZSt23__copy_move_backward_a1ILb1EPiS0_ET1_T0_S2_S1_,comdat
	.align	2
	.weak	_ZSt23__copy_move_backward_a1ILb1EPiS0_ET1_T0_S2_S1_
	.type	_ZSt23__copy_move_backward_a1ILb1EPiS0_ET1_T0_S2_S1_, %function
_ZSt23__copy_move_backward_a1ILb1EPiS0_ET1_T0_S2_S1_:
.LFB3148:
	.cfi_startproc
	stp	x29, x30, [sp, -48]!
	.cfi_def_cfa_offset 48
	.cfi_offset 29, -48
	.cfi_offset 30, -40
	mov	x29, sp
	str	x0, [sp, 40]
	str	x1, [sp, 32]
	str	x2, [sp, 24]
	ldr	x2, [sp, 24]
	ldr	x1, [sp, 32]
	ldr	x0, [sp, 40]
	bl	_ZSt23__copy_move_backward_a2ILb1EPiS0_ET1_T0_S2_S1_
	ldp	x29, x30, [sp], 48
	.cfi_restore 30
	.cfi_restore 29
	.cfi_def_cfa_offset 0
	ret
	.cfi_endproc
.LFE3148:
	.size	_ZSt23__copy_move_backward_a1ILb1EPiS0_ET1_T0_S2_S1_, .-_ZSt23__copy_move_backward_a1ILb1EPiS0_ET1_T0_S2_S1_
	.section	.text._ZSt12__niter_wrapIPiET_RKS1_S1_,"axG",@progbits,_ZSt12__niter_wrapIPiET_RKS1_S1_,comdat
	.align	2
	.weak	_ZSt12__niter_wrapIPiET_RKS1_S1_
	.type	_ZSt12__niter_wrapIPiET_RKS1_S1_, %function
_ZSt12__niter_wrapIPiET_RKS1_S1_:
.LFB3149:
	.cfi_startproc
	sub	sp, sp, #16
	.cfi_def_cfa_offset 16
	str	x0, [sp, 8]
	str	x1, [sp]
	ldr	x0, [sp]
	add	sp, sp, 16
	.cfi_def_cfa_offset 0
	ret
	.cfi_endproc
.LFE3149:
	.size	_ZSt12__niter_wrapIPiET_RKS1_S1_, .-_ZSt12__niter_wrapIPiET_RKS1_S1_
	.section	.text._ZNK9__gnu_cxx13new_allocatorIPP8TreeNodeE11_M_max_sizeEv,"axG",@progbits,_ZNK9__gnu_cxx13new_allocatorIPP8TreeNodeE11_M_max_sizeEv,comdat
	.align	2
	.weak	_ZNK9__gnu_cxx13new_allocatorIPP8TreeNodeE11_M_max_sizeEv
	.type	_ZNK9__gnu_cxx13new_allocatorIPP8TreeNodeE11_M_max_sizeEv, %function
_ZNK9__gnu_cxx13new_allocatorIPP8TreeNodeE11_M_max_sizeEv:
.LFB3175:
	.cfi_startproc
	sub	sp, sp, #16
	.cfi_def_cfa_offset 16
	str	x0, [sp, 8]
	mov	x0, 1152921504606846975
	add	sp, sp, 16
	.cfi_def_cfa_offset 0
	ret
	.cfi_endproc
.LFE3175:
	.size	_ZNK9__gnu_cxx13new_allocatorIPP8TreeNodeE11_M_max_sizeEv, .-_ZNK9__gnu_cxx13new_allocatorIPP8TreeNodeE11_M_max_sizeEv
	.section	.text._ZN9__gnu_cxx13new_allocatorIPP8TreeNodeE8allocateEmPKv,"axG",@progbits,_ZN9__gnu_cxx13new_allocatorIPP8TreeNodeE8allocateEmPKv,comdat
	.align	2
	.weak	_ZN9__gnu_cxx13new_allocatorIPP8TreeNodeE8allocateEmPKv
	.type	_ZN9__gnu_cxx13new_allocatorIPP8TreeNodeE8allocateEmPKv, %function
_ZN9__gnu_cxx13new_allocatorIPP8TreeNodeE8allocateEmPKv:
.LFB3174:
	.cfi_startproc
	stp	x29, x30, [sp, -48]!
	.cfi_def_cfa_offset 48
	.cfi_offset 29, -48
	.cfi_offset 30, -40
	mov	x29, sp
	str	x0, [sp, 40]
	str	x1, [sp, 32]
	str	x2, [sp, 24]
	ldr	x0, [sp, 40]
	bl	_ZNK9__gnu_cxx13new_allocatorIPP8TreeNodeE11_M_max_sizeEv
	mov	x1, x0
	ldr	x0, [sp, 32]
	cmp	x0, x1
	cset	w0, hi
	and	w0, w0, 255
	and	x0, x0, 255
	cmp	x0, 0
	cset	w0, ne
	and	w0, w0, 255
	cmp	w0, 0
	beq	.L415
	ldr	x1, [sp, 32]
	mov	x0, 2305843009213693951
	cmp	x1, x0
	bls	.L416
	bl	_ZSt28__throw_bad_array_new_lengthv
.L416:
	bl	_ZSt17__throw_bad_allocv
.L415:
	ldr	x0, [sp, 32]
	lsl	x0, x0, 3
	bl	_Znwm
	nop
	ldp	x29, x30, [sp], 48
	.cfi_restore 30
	.cfi_restore 29
	.cfi_def_cfa_offset 0
	ret
	.cfi_endproc
.LFE3174:
	.size	_ZN9__gnu_cxx13new_allocatorIPP8TreeNodeE8allocateEmPKv, .-_ZN9__gnu_cxx13new_allocatorIPP8TreeNodeE8allocateEmPKv
	.section	.text._ZN9__gnu_cxx13new_allocatorIP8TreeNodeE10deallocateEPS2_m,"axG",@progbits,_ZN9__gnu_cxx13new_allocatorIP8TreeNodeE10deallocateEPS2_m,comdat
	.align	2
	.weak	_ZN9__gnu_cxx13new_allocatorIP8TreeNodeE10deallocateEPS2_m
	.type	_ZN9__gnu_cxx13new_allocatorIP8TreeNodeE10deallocateEPS2_m, %function
_ZN9__gnu_cxx13new_allocatorIP8TreeNodeE10deallocateEPS2_m:
.LFB3176:
	.cfi_startproc
	stp	x29, x30, [sp, -48]!
	.cfi_def_cfa_offset 48
	.cfi_offset 29, -48
	.cfi_offset 30, -40
	mov	x29, sp
	str	x0, [sp, 40]
	str	x1, [sp, 32]
	str	x2, [sp, 24]
	ldr	x0, [sp, 24]
	lsl	x0, x0, 3
	mov	x1, x0
	ldr	x0, [sp, 32]
	bl	_ZdlPvm
	ldp	x29, x30, [sp], 48
	.cfi_restore 30
	.cfi_restore 29
	.cfi_def_cfa_offset 0
	ret
	.cfi_endproc
.LFE3176:
	.size	_ZN9__gnu_cxx13new_allocatorIP8TreeNodeE10deallocateEPS2_m, .-_ZN9__gnu_cxx13new_allocatorIP8TreeNodeE10deallocateEPS2_m
	.section	.text._ZN9__gnu_cxx13new_allocatorIPP8TreeNodeEC2Ev,"axG",@progbits,_ZN9__gnu_cxx13new_allocatorIPP8TreeNodeEC5Ev,comdat
	.align	2
	.weak	_ZN9__gnu_cxx13new_allocatorIPP8TreeNodeEC2Ev
	.type	_ZN9__gnu_cxx13new_allocatorIPP8TreeNodeEC2Ev, %function
_ZN9__gnu_cxx13new_allocatorIPP8TreeNodeEC2Ev:
.LFB3178:
	.cfi_startproc
	sub	sp, sp, #16
	.cfi_def_cfa_offset 16
	str	x0, [sp, 8]
	nop
	add	sp, sp, 16
	.cfi_def_cfa_offset 0
	ret
	.cfi_endproc
.LFE3178:
	.size	_ZN9__gnu_cxx13new_allocatorIPP8TreeNodeEC2Ev, .-_ZN9__gnu_cxx13new_allocatorIPP8TreeNodeEC2Ev
	.weak	_ZN9__gnu_cxx13new_allocatorIPP8TreeNodeEC1Ev
	.set	_ZN9__gnu_cxx13new_allocatorIPP8TreeNodeEC1Ev,_ZN9__gnu_cxx13new_allocatorIPP8TreeNodeEC2Ev
	.section	.text._ZNSt16allocator_traitsISaIP8TreeNodeEE8max_sizeERKS2_,"axG",@progbits,_ZNSt16allocator_traitsISaIP8TreeNodeEE8max_sizeERKS2_,comdat
	.align	2
	.weak	_ZNSt16allocator_traitsISaIP8TreeNodeEE8max_sizeERKS2_
	.type	_ZNSt16allocator_traitsISaIP8TreeNodeEE8max_sizeERKS2_, %function
_ZNSt16allocator_traitsISaIP8TreeNodeEE8max_sizeERKS2_:
.LFB3181:
	.cfi_startproc
	stp	x29, x30, [sp, -32]!
	.cfi_def_cfa_offset 32
	.cfi_offset 29, -32
	.cfi_offset 30, -24
	mov	x29, sp
	str	x0, [sp, 24]
	ldr	x0, [sp, 24]
	bl	_ZNK9__gnu_cxx13new_allocatorIP8TreeNodeE8max_sizeEv
	ldp	x29, x30, [sp], 32
	.cfi_restore 30
	.cfi_restore 29
	.cfi_def_cfa_offset 0
	ret
	.cfi_endproc
.LFE3181:
	.size	_ZNSt16allocator_traitsISaIP8TreeNodeEE8max_sizeERKS2_, .-_ZNSt16allocator_traitsISaIP8TreeNodeEE8max_sizeERKS2_
	.section	.text._ZSt3minImERKT_S2_S2_,"axG",@progbits,_ZSt3minImERKT_S2_S2_,comdat
	.align	2
	.weak	_ZSt3minImERKT_S2_S2_
	.type	_ZSt3minImERKT_S2_S2_, %function
_ZSt3minImERKT_S2_S2_:
.LFB3182:
	.cfi_startproc
	sub	sp, sp, #16
	.cfi_def_cfa_offset 16
	str	x0, [sp, 8]
	str	x1, [sp]
	ldr	x0, [sp]
	ldr	x1, [x0]
	ldr	x0, [sp, 8]
	ldr	x0, [x0]
	cmp	x1, x0
	bcs	.L424
	ldr	x0, [sp]
	b	.L425
.L424:
	ldr	x0, [sp, 8]
.L425:
	add	sp, sp, 16
	.cfi_def_cfa_offset 0
	ret
	.cfi_endproc
.LFE3182:
	.size	_ZSt3minImERKT_S2_S2_, .-_ZSt3minImERKT_S2_S2_
	.section	.text._ZSt4copyIPPP8TreeNodeS3_ET0_T_S5_S4_,"axG",@progbits,_ZSt4copyIPPP8TreeNodeS3_ET0_T_S5_S4_,comdat
	.align	2
	.weak	_ZSt4copyIPPP8TreeNodeS3_ET0_T_S5_S4_
	.type	_ZSt4copyIPPP8TreeNodeS3_ET0_T_S5_S4_, %function
_ZSt4copyIPPP8TreeNodeS3_ET0_T_S5_S4_:
.LFB3183:
	.cfi_startproc
	stp	x29, x30, [sp, -64]!
	.cfi_def_cfa_offset 64
	.cfi_offset 29, -64
	.cfi_offset 30, -56
	mov	x29, sp
	str	x19, [sp, 16]
	.cfi_offset 19, -48
	str	x0, [sp, 56]
	str	x1, [sp, 48]
	str	x2, [sp, 40]
	ldr	x0, [sp, 56]
	bl	_ZSt12__miter_baseIPPP8TreeNodeET_S4_
	mov	x19, x0
	ldr	x0, [sp, 48]
	bl	_ZSt12__miter_baseIPPP8TreeNodeET_S4_
	ldr	x2, [sp, 40]
	mov	x1, x0
	mov	x0, x19
	bl	_ZSt13__copy_move_aILb0EPPP8TreeNodeS3_ET1_T0_S5_S4_
	ldr	x19, [sp, 16]
	ldp	x29, x30, [sp], 64
	.cfi_restore 30
	.cfi_restore 29
	.cfi_restore 19
	.cfi_def_cfa_offset 0
	ret
	.cfi_endproc
.LFE3183:
	.size	_ZSt4copyIPPP8TreeNodeS3_ET0_T_S5_S4_, .-_ZSt4copyIPPP8TreeNodeS3_ET0_T_S5_S4_
	.section	.text._ZSt13copy_backwardIPPP8TreeNodeS3_ET0_T_S5_S4_,"axG",@progbits,_ZSt13copy_backwardIPPP8TreeNodeS3_ET0_T_S5_S4_,comdat
	.align	2
	.weak	_ZSt13copy_backwardIPPP8TreeNodeS3_ET0_T_S5_S4_
	.type	_ZSt13copy_backwardIPPP8TreeNodeS3_ET0_T_S5_S4_, %function
_ZSt13copy_backwardIPPP8TreeNodeS3_ET0_T_S5_S4_:
.LFB3184:
	.cfi_startproc
	stp	x29, x30, [sp, -64]!
	.cfi_def_cfa_offset 64
	.cfi_offset 29, -64
	.cfi_offset 30, -56
	mov	x29, sp
	str	x19, [sp, 16]
	.cfi_offset 19, -48
	str	x0, [sp, 56]
	str	x1, [sp, 48]
	str	x2, [sp, 40]
	ldr	x0, [sp, 56]
	bl	_ZSt12__miter_baseIPPP8TreeNodeET_S4_
	mov	x19, x0
	ldr	x0, [sp, 48]
	bl	_ZSt12__miter_baseIPPP8TreeNodeET_S4_
	ldr	x2, [sp, 40]
	mov	x1, x0
	mov	x0, x19
	bl	_ZSt22__copy_move_backward_aILb0EPPP8TreeNodeS3_ET1_T0_S5_S4_
	ldr	x19, [sp, 16]
	ldp	x29, x30, [sp], 64
	.cfi_restore 30
	.cfi_restore 29
	.cfi_restore 19
	.cfi_def_cfa_offset 0
	ret
	.cfi_endproc
.LFE3184:
	.size	_ZSt13copy_backwardIPPP8TreeNodeS3_ET0_T_S5_S4_, .-_ZSt13copy_backwardIPPP8TreeNodeS3_ET0_T_S5_S4_
	.section	.text._ZNK9__gnu_cxx13new_allocatorIP8TreeNodeE11_M_max_sizeEv,"axG",@progbits,_ZNK9__gnu_cxx13new_allocatorIP8TreeNodeE11_M_max_sizeEv,comdat
	.align	2
	.weak	_ZNK9__gnu_cxx13new_allocatorIP8TreeNodeE11_M_max_sizeEv
	.type	_ZNK9__gnu_cxx13new_allocatorIP8TreeNodeE11_M_max_sizeEv, %function
_ZNK9__gnu_cxx13new_allocatorIP8TreeNodeE11_M_max_sizeEv:
.LFB3186:
	.cfi_startproc
	sub	sp, sp, #16
	.cfi_def_cfa_offset 16
	str	x0, [sp, 8]
	mov	x0, 1152921504606846975
	add	sp, sp, 16
	.cfi_def_cfa_offset 0
	ret
	.cfi_endproc
.LFE3186:
	.size	_ZNK9__gnu_cxx13new_allocatorIP8TreeNodeE11_M_max_sizeEv, .-_ZNK9__gnu_cxx13new_allocatorIP8TreeNodeE11_M_max_sizeEv
	.section	.text._ZN9__gnu_cxx13new_allocatorIP8TreeNodeE8allocateEmPKv,"axG",@progbits,_ZN9__gnu_cxx13new_allocatorIP8TreeNodeE8allocateEmPKv,comdat
	.align	2
	.weak	_ZN9__gnu_cxx13new_allocatorIP8TreeNodeE8allocateEmPKv
	.type	_ZN9__gnu_cxx13new_allocatorIP8TreeNodeE8allocateEmPKv, %function
_ZN9__gnu_cxx13new_allocatorIP8TreeNodeE8allocateEmPKv:
.LFB3185:
	.cfi_startproc
	stp	x29, x30, [sp, -48]!
	.cfi_def_cfa_offset 48
	.cfi_offset 29, -48
	.cfi_offset 30, -40
	mov	x29, sp
	str	x0, [sp, 40]
	str	x1, [sp, 32]
	str	x2, [sp, 24]
	ldr	x0, [sp, 40]
	bl	_ZNK9__gnu_cxx13new_allocatorIP8TreeNodeE11_M_max_sizeEv
	mov	x1, x0
	ldr	x0, [sp, 32]
	cmp	x0, x1
	cset	w0, hi
	and	w0, w0, 255
	and	x0, x0, 255
	cmp	x0, 0
	cset	w0, ne
	and	w0, w0, 255
	cmp	w0, 0
	beq	.L433
	ldr	x1, [sp, 32]
	mov	x0, 2305843009213693951
	cmp	x1, x0
	bls	.L434
	bl	_ZSt28__throw_bad_array_new_lengthv
.L434:
	bl	_ZSt17__throw_bad_allocv
.L433:
	ldr	x0, [sp, 32]
	lsl	x0, x0, 3
	bl	_Znwm
	nop
	ldp	x29, x30, [sp], 48
	.cfi_restore 30
	.cfi_restore 29
	.cfi_def_cfa_offset 0
	ret
	.cfi_endproc
.LFE3185:
	.size	_ZN9__gnu_cxx13new_allocatorIP8TreeNodeE8allocateEmPKv, .-_ZN9__gnu_cxx13new_allocatorIP8TreeNodeE8allocateEmPKv
	.section	.text._ZSt4moveIRNSt12_Vector_baseIiSaIiEE12_Vector_implEEONSt16remove_referenceIT_E4typeEOS6_,"axG",@progbits,_ZSt4moveIRNSt12_Vector_baseIiSaIiEE12_Vector_implEEONSt16remove_referenceIT_E4typeEOS6_,comdat
	.align	2
	.weak	_ZSt4moveIRNSt12_Vector_baseIiSaIiEE12_Vector_implEEONSt16remove_referenceIT_E4typeEOS6_
	.type	_ZSt4moveIRNSt12_Vector_baseIiSaIiEE12_Vector_implEEONSt16remove_referenceIT_E4typeEOS6_, %function
_ZSt4moveIRNSt12_Vector_baseIiSaIiEE12_Vector_implEEONSt16remove_referenceIT_E4typeEOS6_:
.LFB3187:
	.cfi_startproc
	sub	sp, sp, #16
	.cfi_def_cfa_offset 16
	str	x0, [sp, 8]
	ldr	x0, [sp, 8]
	add	sp, sp, 16
	.cfi_def_cfa_offset 0
	ret
	.cfi_endproc
.LFE3187:
	.size	_ZSt4moveIRNSt12_Vector_baseIiSaIiEE12_Vector_implEEONSt16remove_referenceIT_E4typeEOS6_, .-_ZSt4moveIRNSt12_Vector_baseIiSaIiEE12_Vector_implEEONSt16remove_referenceIT_E4typeEOS6_
	.section	.text._ZNSaIiEC2ERKS_,"axG",@progbits,_ZNSaIiEC5ERKS_,comdat
	.align	2
	.weak	_ZNSaIiEC2ERKS_
	.type	_ZNSaIiEC2ERKS_, %function
_ZNSaIiEC2ERKS_:
.LFB3189:
	.cfi_startproc
	stp	x29, x30, [sp, -32]!
	.cfi_def_cfa_offset 32
	.cfi_offset 29, -32
	.cfi_offset 30, -24
	mov	x29, sp
	str	x0, [sp, 24]
	str	x1, [sp, 16]
	ldr	x1, [sp, 16]
	ldr	x0, [sp, 24]
	bl	_ZN9__gnu_cxx13new_allocatorIiEC2ERKS1_
	nop
	ldp	x29, x30, [sp], 32
	.cfi_restore 30
	.cfi_restore 29
	.cfi_def_cfa_offset 0
	ret
	.cfi_endproc
.LFE3189:
	.size	_ZNSaIiEC2ERKS_, .-_ZNSaIiEC2ERKS_
	.weak	_ZNSaIiEC1ERKS_
	.set	_ZNSaIiEC1ERKS_,_ZNSaIiEC2ERKS_
	.section	.text._ZNSt12_Vector_baseIiSaIiEE17_Vector_impl_dataC2EOS2_,"axG",@progbits,_ZNSt12_Vector_baseIiSaIiEE17_Vector_impl_dataC5EOS2_,comdat
	.align	2
	.weak	_ZNSt12_Vector_baseIiSaIiEE17_Vector_impl_dataC2EOS2_
	.type	_ZNSt12_Vector_baseIiSaIiEE17_Vector_impl_dataC2EOS2_, %function
_ZNSt12_Vector_baseIiSaIiEE17_Vector_impl_dataC2EOS2_:
.LFB3192:
	.cfi_startproc
	sub	sp, sp, #16
	.cfi_def_cfa_offset 16
	str	x0, [sp, 8]
	str	x1, [sp]
	ldr	x0, [sp]
	ldr	x1, [x0]
	ldr	x0, [sp, 8]
	str	x1, [x0]
	ldr	x0, [sp]
	ldr	x1, [x0, 8]
	ldr	x0, [sp, 8]
	str	x1, [x0, 8]
	ldr	x0, [sp]
	ldr	x1, [x0, 16]
	ldr	x0, [sp, 8]
	str	x1, [x0, 16]
	ldr	x0, [sp]
	str	xzr, [x0, 16]
	ldr	x0, [sp]
	ldr	x1, [x0, 16]
	ldr	x0, [sp]
	str	x1, [x0, 8]
	ldr	x0, [sp]
	ldr	x1, [x0, 8]
	ldr	x0, [sp]
	str	x1, [x0]
	nop
	add	sp, sp, 16
	.cfi_def_cfa_offset 0
	ret
	.cfi_endproc
.LFE3192:
	.size	_ZNSt12_Vector_baseIiSaIiEE17_Vector_impl_dataC2EOS2_, .-_ZNSt12_Vector_baseIiSaIiEE17_Vector_impl_dataC2EOS2_
	.weak	_ZNSt12_Vector_baseIiSaIiEE17_Vector_impl_dataC1EOS2_
	.set	_ZNSt12_Vector_baseIiSaIiEE17_Vector_impl_dataC1EOS2_,_ZNSt12_Vector_baseIiSaIiEE17_Vector_impl_dataC2EOS2_
	.section	.text._ZNSt6vectorIS_IiSaIiEESaIS1_EE11_S_max_sizeERKS2_,"axG",@progbits,_ZNSt6vectorIS_IiSaIiEESaIS1_EE11_S_max_sizeERKS2_,comdat
	.align	2
	.weak	_ZNSt6vectorIS_IiSaIiEESaIS1_EE11_S_max_sizeERKS2_
	.type	_ZNSt6vectorIS_IiSaIiEESaIS1_EE11_S_max_sizeERKS2_, %function
_ZNSt6vectorIS_IiSaIiEESaIS1_EE11_S_max_sizeERKS2_:
.LFB3194:
	.cfi_startproc
	stp	x29, x30, [sp, -64]!
	.cfi_def_cfa_offset 64
	.cfi_offset 29, -64
	.cfi_offset 30, -56
	mov	x29, sp
	str	x0, [sp, 24]
	adrp	x0, :got:__stack_chk_guard
	ldr	x0, [x0, #:got_lo12:__stack_chk_guard]
	ldr	x1, [x0]
	str	x1, [sp, 56]
	mov	x1, 0
	mov	x0, 6148914691236517205
	movk	x0, 0x555, lsl 48
	str	x0, [sp, 40]
	ldr	x0, [sp, 24]
	bl	_ZNSt16allocator_traitsISaISt6vectorIiSaIiEEEE8max_sizeERKS3_
	str	x0, [sp, 48]
	add	x1, sp, 48
	add	x0, sp, 40
	bl	_ZSt3minImERKT_S2_S2_
	ldr	x0, [x0]
	mov	x1, x0
	adrp	x0, :got:__stack_chk_guard
	ldr	x0, [x0, #:got_lo12:__stack_chk_guard]
	ldr	x3, [sp, 56]
	ldr	x2, [x0]
	subs	x3, x3, x2
	mov	x2, 0
	beq	.L442
	bl	__stack_chk_fail
.L442:
	mov	x0, x1
	ldp	x29, x30, [sp], 64
	.cfi_restore 30
	.cfi_restore 29
	.cfi_def_cfa_offset 0
	ret
	.cfi_endproc
.LFE3194:
	.size	_ZNSt6vectorIS_IiSaIiEESaIS1_EE11_S_max_sizeERKS2_, .-_ZNSt6vectorIS_IiSaIiEESaIS1_EE11_S_max_sizeERKS2_
	.section	.text._ZNKSt12_Vector_baseISt6vectorIiSaIiEESaIS2_EE19_M_get_Tp_allocatorEv,"axG",@progbits,_ZNKSt12_Vector_baseISt6vectorIiSaIiEESaIS2_EE19_M_get_Tp_allocatorEv,comdat
	.align	2
	.weak	_ZNKSt12_Vector_baseISt6vectorIiSaIiEESaIS2_EE19_M_get_Tp_allocatorEv
	.type	_ZNKSt12_Vector_baseISt6vectorIiSaIiEESaIS2_EE19_M_get_Tp_allocatorEv, %function
_ZNKSt12_Vector_baseISt6vectorIiSaIiEESaIS2_EE19_M_get_Tp_allocatorEv:
.LFB3195:
	.cfi_startproc
	sub	sp, sp, #16
	.cfi_def_cfa_offset 16
	str	x0, [sp, 8]
	ldr	x0, [sp, 8]
	add	sp, sp, 16
	.cfi_def_cfa_offset 0
	ret
	.cfi_endproc
.LFE3195:
	.size	_ZNKSt12_Vector_baseISt6vectorIiSaIiEESaIS2_EE19_M_get_Tp_allocatorEv, .-_ZNKSt12_Vector_baseISt6vectorIiSaIiEESaIS2_EE19_M_get_Tp_allocatorEv
	.section	.text._ZNK9__gnu_cxx13new_allocatorISt6vectorIiSaIiEEE11_M_max_sizeEv,"axG",@progbits,_ZNK9__gnu_cxx13new_allocatorISt6vectorIiSaIiEEE11_M_max_sizeEv,comdat
	.align	2
	.weak	_ZNK9__gnu_cxx13new_allocatorISt6vectorIiSaIiEEE11_M_max_sizeEv
	.type	_ZNK9__gnu_cxx13new_allocatorISt6vectorIiSaIiEEE11_M_max_sizeEv, %function
_ZNK9__gnu_cxx13new_allocatorISt6vectorIiSaIiEEE11_M_max_sizeEv:
.LFB3197:
	.cfi_startproc
	sub	sp, sp, #16
	.cfi_def_cfa_offset 16
	str	x0, [sp, 8]
	mov	x0, 6148914691236517205
	movk	x0, 0x555, lsl 48
	add	sp, sp, 16
	.cfi_def_cfa_offset 0
	ret
	.cfi_endproc
.LFE3197:
	.size	_ZNK9__gnu_cxx13new_allocatorISt6vectorIiSaIiEEE11_M_max_sizeEv, .-_ZNK9__gnu_cxx13new_allocatorISt6vectorIiSaIiEEE11_M_max_sizeEv
	.section	.text._ZN9__gnu_cxx13new_allocatorISt6vectorIiSaIiEEE8allocateEmPKv,"axG",@progbits,_ZN9__gnu_cxx13new_allocatorISt6vectorIiSaIiEEE8allocateEmPKv,comdat
	.align	2
	.weak	_ZN9__gnu_cxx13new_allocatorISt6vectorIiSaIiEEE8allocateEmPKv
	.type	_ZN9__gnu_cxx13new_allocatorISt6vectorIiSaIiEEE8allocateEmPKv, %function
_ZN9__gnu_cxx13new_allocatorISt6vectorIiSaIiEEE8allocateEmPKv:
.LFB3196:
	.cfi_startproc
	stp	x29, x30, [sp, -48]!
	.cfi_def_cfa_offset 48
	.cfi_offset 29, -48
	.cfi_offset 30, -40
	mov	x29, sp
	str	x0, [sp, 40]
	str	x1, [sp, 32]
	str	x2, [sp, 24]
	ldr	x0, [sp, 40]
	bl	_ZNK9__gnu_cxx13new_allocatorISt6vectorIiSaIiEEE11_M_max_sizeEv
	mov	x1, x0
	ldr	x0, [sp, 32]
	cmp	x0, x1
	cset	w0, hi
	and	w0, w0, 255
	and	x0, x0, 255
	cmp	x0, 0
	cset	w0, ne
	and	w0, w0, 255
	cmp	w0, 0
	beq	.L448
	ldr	x1, [sp, 32]
	mov	x0, -6148914691236517206
	movk	x0, 0xaaa, lsl 48
	cmp	x1, x0
	bls	.L449
	bl	_ZSt28__throw_bad_array_new_lengthv
.L449:
	bl	_ZSt17__throw_bad_allocv
.L448:
	ldr	x1, [sp, 32]
	mov	x0, x1
	lsl	x0, x0, 1
	add	x0, x0, x1
	lsl	x0, x0, 3
	bl	_Znwm
	nop
	ldp	x29, x30, [sp], 48
	.cfi_restore 30
	.cfi_restore 29
	.cfi_def_cfa_offset 0
	ret
	.cfi_endproc
.LFE3196:
	.size	_ZN9__gnu_cxx13new_allocatorISt6vectorIiSaIiEEE8allocateEmPKv, .-_ZN9__gnu_cxx13new_allocatorISt6vectorIiSaIiEEE8allocateEmPKv
	.section	.text._ZSt12__relocate_aIPSt6vectorIiSaIiEES3_SaIS2_EET0_T_S6_S5_RT1_,"axG",@progbits,_ZSt12__relocate_aIPSt6vectorIiSaIiEES3_SaIS2_EET0_T_S6_S5_RT1_,comdat
	.align	2
	.weak	_ZSt12__relocate_aIPSt6vectorIiSaIiEES3_SaIS2_EET0_T_S6_S5_RT1_
	.type	_ZSt12__relocate_aIPSt6vectorIiSaIiEES3_SaIS2_EET0_T_S6_S5_RT1_, %function
_ZSt12__relocate_aIPSt6vectorIiSaIiEES3_SaIS2_EET0_T_S6_S5_RT1_:
.LFB3198:
	.cfi_startproc
	stp	x29, x30, [sp, -64]!
	.cfi_def_cfa_offset 64
	.cfi_offset 29, -64
	.cfi_offset 30, -56
	mov	x29, sp
	stp	x19, x20, [sp, 16]
	.cfi_offset 19, -48
	.cfi_offset 20, -40
	str	x0, [sp, 56]
	str	x1, [sp, 48]
	str	x2, [sp, 40]
	str	x3, [sp, 32]
	ldr	x0, [sp, 56]
	bl	_ZSt12__niter_baseIPSt6vectorIiSaIiEEET_S4_
	mov	x19, x0
	ldr	x0, [sp, 48]
	bl	_ZSt12__niter_baseIPSt6vectorIiSaIiEEET_S4_
	mov	x20, x0
	ldr	x0, [sp, 40]
	bl	_ZSt12__niter_baseIPSt6vectorIiSaIiEEET_S4_
	ldr	x3, [sp, 32]
	mov	x2, x0
	mov	x1, x20
	mov	x0, x19
	bl	_ZSt14__relocate_a_1IPSt6vectorIiSaIiEES3_SaIS2_EET0_T_S6_S5_RT1_
	ldp	x19, x20, [sp, 16]
	ldp	x29, x30, [sp], 64
	.cfi_restore 30
	.cfi_restore 29
	.cfi_restore 19
	.cfi_restore 20
	.cfi_def_cfa_offset 0
	ret
	.cfi_endproc
.LFE3198:
	.size	_ZSt12__relocate_aIPSt6vectorIiSaIiEES3_SaIS2_EET0_T_S6_S5_RT1_, .-_ZSt12__relocate_aIPSt6vectorIiSaIiEES3_SaIS2_EET0_T_S6_S5_RT1_
	.section	.text._ZNSt16allocator_traitsISaIiEE8max_sizeERKS0_,"axG",@progbits,_ZNSt16allocator_traitsISaIiEE8max_sizeERKS0_,comdat
	.align	2
	.weak	_ZNSt16allocator_traitsISaIiEE8max_sizeERKS0_
	.type	_ZNSt16allocator_traitsISaIiEE8max_sizeERKS0_, %function
_ZNSt16allocator_traitsISaIiEE8max_sizeERKS0_:
.LFB3199:
	.cfi_startproc
	stp	x29, x30, [sp, -32]!
	.cfi_def_cfa_offset 32
	.cfi_offset 29, -32
	.cfi_offset 30, -24
	mov	x29, sp
	str	x0, [sp, 24]
	ldr	x0, [sp, 24]
	bl	_ZNK9__gnu_cxx13new_allocatorIiE8max_sizeEv
	ldp	x29, x30, [sp], 32
	.cfi_restore 30
	.cfi_restore 29
	.cfi_def_cfa_offset 0
	ret
	.cfi_endproc
.LFE3199:
	.size	_ZNSt16allocator_traitsISaIiEE8max_sizeERKS0_, .-_ZNSt16allocator_traitsISaIiEE8max_sizeERKS0_
	.section	.text._ZSt14__relocate_a_1IiiENSt9enable_ifIXsrSt24__is_bitwise_relocatableIT_vE5valueEPS2_E4typeES4_S4_S4_RSaIT0_E,"axG",@progbits,_ZSt14__relocate_a_1IiiENSt9enable_ifIXsrSt24__is_bitwise_relocatableIT_vE5valueEPS2_E4typeES4_S4_S4_RSaIT0_E,comdat
	.align	2
	.weak	_ZSt14__relocate_a_1IiiENSt9enable_ifIXsrSt24__is_bitwise_relocatableIT_vE5valueEPS2_E4typeES4_S4_S4_RSaIT0_E
	.type	_ZSt14__relocate_a_1IiiENSt9enable_ifIXsrSt24__is_bitwise_relocatableIT_vE5valueEPS2_E4typeES4_S4_S4_RSaIT0_E, %function
_ZSt14__relocate_a_1IiiENSt9enable_ifIXsrSt24__is_bitwise_relocatableIT_vE5valueEPS2_E4typeES4_S4_S4_RSaIT0_E:
.LFB3200:
	.cfi_startproc
	stp	x29, x30, [sp, -64]!
	.cfi_def_cfa_offset 64
	.cfi_offset 29, -64
	.cfi_offset 30, -56
	mov	x29, sp
	str	x0, [sp, 40]
	str	x1, [sp, 32]
	str	x2, [sp, 24]
	str	x3, [sp, 16]
	ldr	x1, [sp, 32]
	ldr	x0, [sp, 40]
	sub	x0, x1, x0
	asr	x0, x0, 2
	str	x0, [sp, 56]
	ldr	x0, [sp, 56]
	cmp	x0, 0
	ble	.L456
	ldr	x0, [sp, 56]
	lsl	x0, x0, 2
	mov	x2, x0
	ldr	x1, [sp, 40]
	ldr	x0, [sp, 24]
	bl	memmove
.L456:
	ldr	x0, [sp, 56]
	lsl	x0, x0, 2
	ldr	x1, [sp, 24]
	add	x0, x1, x0
	ldp	x29, x30, [sp], 64
	.cfi_restore 30
	.cfi_restore 29
	.cfi_def_cfa_offset 0
	ret
	.cfi_endproc
.LFE3200:
	.size	_ZSt14__relocate_a_1IiiENSt9enable_ifIXsrSt24__is_bitwise_relocatableIT_vE5valueEPS2_E4typeES4_S4_S4_RSaIT0_E, .-_ZSt14__relocate_a_1IiiENSt9enable_ifIXsrSt24__is_bitwise_relocatableIT_vE5valueEPS2_E4typeES4_S4_S4_RSaIT0_E
	.section	.text._ZSt23__copy_move_backward_a2ILb1EPiS0_ET1_T0_S2_S1_,"axG",@progbits,_ZSt23__copy_move_backward_a2ILb1EPiS0_ET1_T0_S2_S1_,comdat
	.align	2
	.weak	_ZSt23__copy_move_backward_a2ILb1EPiS0_ET1_T0_S2_S1_
	.type	_ZSt23__copy_move_backward_a2ILb1EPiS0_ET1_T0_S2_S1_, %function
_ZSt23__copy_move_backward_a2ILb1EPiS0_ET1_T0_S2_S1_:
.LFB3201:
	.cfi_startproc
	stp	x29, x30, [sp, -48]!
	.cfi_def_cfa_offset 48
	.cfi_offset 29, -48
	.cfi_offset 30, -40
	mov	x29, sp
	str	x0, [sp, 40]
	str	x1, [sp, 32]
	str	x2, [sp, 24]
	ldr	x2, [sp, 24]
	ldr	x1, [sp, 32]
	ldr	x0, [sp, 40]
	bl	_ZNSt20__copy_move_backwardILb1ELb1ESt26random_access_iterator_tagE13__copy_move_bIiEEPT_PKS3_S6_S4_
	ldp	x29, x30, [sp], 48
	.cfi_restore 30
	.cfi_restore 29
	.cfi_def_cfa_offset 0
	ret
	.cfi_endproc
.LFE3201:
	.size	_ZSt23__copy_move_backward_a2ILb1EPiS0_ET1_T0_S2_S1_, .-_ZSt23__copy_move_backward_a2ILb1EPiS0_ET1_T0_S2_S1_
	.section	.text._ZNK9__gnu_cxx13new_allocatorIP8TreeNodeE8max_sizeEv,"axG",@progbits,_ZNK9__gnu_cxx13new_allocatorIP8TreeNodeE8max_sizeEv,comdat
	.align	2
	.weak	_ZNK9__gnu_cxx13new_allocatorIP8TreeNodeE8max_sizeEv
	.type	_ZNK9__gnu_cxx13new_allocatorIP8TreeNodeE8max_sizeEv, %function
_ZNK9__gnu_cxx13new_allocatorIP8TreeNodeE8max_sizeEv:
.LFB3214:
	.cfi_startproc
	stp	x29, x30, [sp, -32]!
	.cfi_def_cfa_offset 32
	.cfi_offset 29, -32
	.cfi_offset 30, -24
	mov	x29, sp
	str	x0, [sp, 24]
	ldr	x0, [sp, 24]
	bl	_ZNK9__gnu_cxx13new_allocatorIP8TreeNodeE11_M_max_sizeEv
	ldp	x29, x30, [sp], 32
	.cfi_restore 30
	.cfi_restore 29
	.cfi_def_cfa_offset 0
	ret
	.cfi_endproc
.LFE3214:
	.size	_ZNK9__gnu_cxx13new_allocatorIP8TreeNodeE8max_sizeEv, .-_ZNK9__gnu_cxx13new_allocatorIP8TreeNodeE8max_sizeEv
	.section	.text._ZSt12__miter_baseIPPP8TreeNodeET_S4_,"axG",@progbits,_ZSt12__miter_baseIPPP8TreeNodeET_S4_,comdat
	.align	2
	.weak	_ZSt12__miter_baseIPPP8TreeNodeET_S4_
	.type	_ZSt12__miter_baseIPPP8TreeNodeET_S4_, %function
_ZSt12__miter_baseIPPP8TreeNodeET_S4_:
.LFB3215:
	.cfi_startproc
	sub	sp, sp, #16
	.cfi_def_cfa_offset 16
	str	x0, [sp, 8]
	ldr	x0, [sp, 8]
	add	sp, sp, 16
	.cfi_def_cfa_offset 0
	ret
	.cfi_endproc
.LFE3215:
	.size	_ZSt12__miter_baseIPPP8TreeNodeET_S4_, .-_ZSt12__miter_baseIPPP8TreeNodeET_S4_
	.section	.text._ZSt13__copy_move_aILb0EPPP8TreeNodeS3_ET1_T0_S5_S4_,"axG",@progbits,_ZSt13__copy_move_aILb0EPPP8TreeNodeS3_ET1_T0_S5_S4_,comdat
	.align	2
	.weak	_ZSt13__copy_move_aILb0EPPP8TreeNodeS3_ET1_T0_S5_S4_
	.type	_ZSt13__copy_move_aILb0EPPP8TreeNodeS3_ET1_T0_S5_S4_, %function
_ZSt13__copy_move_aILb0EPPP8TreeNodeS3_ET1_T0_S5_S4_:
.LFB3216:
	.cfi_startproc
	stp	x29, x30, [sp, -64]!
	.cfi_def_cfa_offset 64
	.cfi_offset 29, -64
	.cfi_offset 30, -56
	mov	x29, sp
	stp	x19, x20, [sp, 16]
	.cfi_offset 19, -48
	.cfi_offset 20, -40
	str	x0, [sp, 56]
	str	x1, [sp, 48]
	str	x2, [sp, 40]
	ldr	x0, [sp, 56]
	bl	_ZSt12__niter_baseIPPP8TreeNodeET_S4_
	mov	x19, x0
	ldr	x0, [sp, 48]
	bl	_ZSt12__niter_baseIPPP8TreeNodeET_S4_
	mov	x20, x0
	ldr	x0, [sp, 40]
	bl	_ZSt12__niter_baseIPPP8TreeNodeET_S4_
	mov	x2, x0
	mov	x1, x20
	mov	x0, x19
	bl	_ZSt14__copy_move_a1ILb0EPPP8TreeNodeS3_ET1_T0_S5_S4_
	mov	x1, x0
	add	x0, sp, 40
	bl	_ZSt12__niter_wrapIPPP8TreeNodeET_RKS4_S4_
	ldp	x19, x20, [sp, 16]
	ldp	x29, x30, [sp], 64
	.cfi_restore 30
	.cfi_restore 29
	.cfi_restore 19
	.cfi_restore 20
	.cfi_def_cfa_offset 0
	ret
	.cfi_endproc
.LFE3216:
	.size	_ZSt13__copy_move_aILb0EPPP8TreeNodeS3_ET1_T0_S5_S4_, .-_ZSt13__copy_move_aILb0EPPP8TreeNodeS3_ET1_T0_S5_S4_
	.section	.text._ZSt22__copy_move_backward_aILb0EPPP8TreeNodeS3_ET1_T0_S5_S4_,"axG",@progbits,_ZSt22__copy_move_backward_aILb0EPPP8TreeNodeS3_ET1_T0_S5_S4_,comdat
	.align	2
	.weak	_ZSt22__copy_move_backward_aILb0EPPP8TreeNodeS3_ET1_T0_S5_S4_
	.type	_ZSt22__copy_move_backward_aILb0EPPP8TreeNodeS3_ET1_T0_S5_S4_, %function
_ZSt22__copy_move_backward_aILb0EPPP8TreeNodeS3_ET1_T0_S5_S4_:
.LFB3218:
	.cfi_startproc
	stp	x29, x30, [sp, -64]!
	.cfi_def_cfa_offset 64
	.cfi_offset 29, -64
	.cfi_offset 30, -56
	mov	x29, sp
	stp	x19, x20, [sp, 16]
	.cfi_offset 19, -48
	.cfi_offset 20, -40
	str	x0, [sp, 56]
	str	x1, [sp, 48]
	str	x2, [sp, 40]
	ldr	x0, [sp, 56]
	bl	_ZSt12__niter_baseIPPP8TreeNodeET_S4_
	mov	x19, x0
	ldr	x0, [sp, 48]
	bl	_ZSt12__niter_baseIPPP8TreeNodeET_S4_
	mov	x20, x0
	ldr	x0, [sp, 40]
	bl	_ZSt12__niter_baseIPPP8TreeNodeET_S4_
	mov	x2, x0
	mov	x1, x20
	mov	x0, x19
	bl	_ZSt23__copy_move_backward_a1ILb0EPPP8TreeNodeS3_ET1_T0_S5_S4_
	mov	x1, x0
	add	x0, sp, 40
	bl	_ZSt12__niter_wrapIPPP8TreeNodeET_RKS4_S4_
	ldp	x19, x20, [sp, 16]
	ldp	x29, x30, [sp], 64
	.cfi_restore 30
	.cfi_restore 29
	.cfi_restore 19
	.cfi_restore 20
	.cfi_def_cfa_offset 0
	ret
	.cfi_endproc
.LFE3218:
	.size	_ZSt22__copy_move_backward_aILb0EPPP8TreeNodeS3_ET1_T0_S5_S4_, .-_ZSt22__copy_move_backward_aILb0EPPP8TreeNodeS3_ET1_T0_S5_S4_
	.section	.text._ZN9__gnu_cxx13new_allocatorIiEC2ERKS1_,"axG",@progbits,_ZN9__gnu_cxx13new_allocatorIiEC5ERKS1_,comdat
	.align	2
	.weak	_ZN9__gnu_cxx13new_allocatorIiEC2ERKS1_
	.type	_ZN9__gnu_cxx13new_allocatorIiEC2ERKS1_, %function
_ZN9__gnu_cxx13new_allocatorIiEC2ERKS1_:
.LFB3220:
	.cfi_startproc
	sub	sp, sp, #16
	.cfi_def_cfa_offset 16
	str	x0, [sp, 8]
	str	x1, [sp]
	nop
	add	sp, sp, 16
	.cfi_def_cfa_offset 0
	ret
	.cfi_endproc
.LFE3220:
	.size	_ZN9__gnu_cxx13new_allocatorIiEC2ERKS1_, .-_ZN9__gnu_cxx13new_allocatorIiEC2ERKS1_
	.weak	_ZN9__gnu_cxx13new_allocatorIiEC1ERKS1_
	.set	_ZN9__gnu_cxx13new_allocatorIiEC1ERKS1_,_ZN9__gnu_cxx13new_allocatorIiEC2ERKS1_
	.section	.text._ZNSt16allocator_traitsISaISt6vectorIiSaIiEEEE8max_sizeERKS3_,"axG",@progbits,_ZNSt16allocator_traitsISaISt6vectorIiSaIiEEEE8max_sizeERKS3_,comdat
	.align	2
	.weak	_ZNSt16allocator_traitsISaISt6vectorIiSaIiEEEE8max_sizeERKS3_
	.type	_ZNSt16allocator_traitsISaISt6vectorIiSaIiEEEE8max_sizeERKS3_, %function
_ZNSt16allocator_traitsISaISt6vectorIiSaIiEEEE8max_sizeERKS3_:
.LFB3222:
	.cfi_startproc
	stp	x29, x30, [sp, -32]!
	.cfi_def_cfa_offset 32
	.cfi_offset 29, -32
	.cfi_offset 30, -24
	mov	x29, sp
	str	x0, [sp, 24]
	ldr	x0, [sp, 24]
	bl	_ZNK9__gnu_cxx13new_allocatorISt6vectorIiSaIiEEE8max_sizeEv
	ldp	x29, x30, [sp], 32
	.cfi_restore 30
	.cfi_restore 29
	.cfi_def_cfa_offset 0
	ret
	.cfi_endproc
.LFE3222:
	.size	_ZNSt16allocator_traitsISaISt6vectorIiSaIiEEEE8max_sizeERKS3_, .-_ZNSt16allocator_traitsISaISt6vectorIiSaIiEEEE8max_sizeERKS3_
	.section	.text._ZSt12__niter_baseIPSt6vectorIiSaIiEEET_S4_,"axG",@progbits,_ZSt12__niter_baseIPSt6vectorIiSaIiEEET_S4_,comdat
	.align	2
	.weak	_ZSt12__niter_baseIPSt6vectorIiSaIiEEET_S4_
	.type	_ZSt12__niter_baseIPSt6vectorIiSaIiEEET_S4_, %function
_ZSt12__niter_baseIPSt6vectorIiSaIiEEET_S4_:
.LFB3223:
	.cfi_startproc
	sub	sp, sp, #16
	.cfi_def_cfa_offset 16
	str	x0, [sp, 8]
	ldr	x0, [sp, 8]
	add	sp, sp, 16
	.cfi_def_cfa_offset 0
	ret
	.cfi_endproc
.LFE3223:
	.size	_ZSt12__niter_baseIPSt6vectorIiSaIiEEET_S4_, .-_ZSt12__niter_baseIPSt6vectorIiSaIiEEET_S4_
	.section	.text._ZSt14__relocate_a_1IPSt6vectorIiSaIiEES3_SaIS2_EET0_T_S6_S5_RT1_,"axG",@progbits,_ZSt14__relocate_a_1IPSt6vectorIiSaIiEES3_SaIS2_EET0_T_S6_S5_RT1_,comdat
	.align	2
	.weak	_ZSt14__relocate_a_1IPSt6vectorIiSaIiEES3_SaIS2_EET0_T_S6_S5_RT1_
	.type	_ZSt14__relocate_a_1IPSt6vectorIiSaIiEES3_SaIS2_EET0_T_S6_S5_RT1_, %function
_ZSt14__relocate_a_1IPSt6vectorIiSaIiEES3_SaIS2_EET0_T_S6_S5_RT1_:
.LFB3224:
	.cfi_startproc
	stp	x29, x30, [sp, -80]!
	.cfi_def_cfa_offset 80
	.cfi_offset 29, -80
	.cfi_offset 30, -72
	mov	x29, sp
	str	x19, [sp, 16]
	.cfi_offset 19, -64
	str	x0, [sp, 56]
	str	x1, [sp, 48]
	str	x2, [sp, 40]
	str	x3, [sp, 32]
	ldr	x0, [sp, 40]
	str	x0, [sp, 72]
	b	.L474
.L475:
	ldr	x0, [sp, 72]
	bl	_ZSt11__addressofISt6vectorIiSaIiEEEPT_RS3_
	mov	x19, x0
	ldr	x0, [sp, 56]
	bl	_ZSt11__addressofISt6vectorIiSaIiEEEPT_RS3_
	ldr	x2, [sp, 32]
	mov	x1, x0
	mov	x0, x19
	bl	_ZSt19__relocate_object_aISt6vectorIiSaIiEES2_SaIS2_EEvPT_PT0_RT1_
	ldr	x0, [sp, 56]
	add	x0, x0, 24
	str	x0, [sp, 56]
	ldr	x0, [sp, 72]
	add	x0, x0, 24
	str	x0, [sp, 72]
.L474:
	ldr	x1, [sp, 56]
	ldr	x0, [sp, 48]
	cmp	x1, x0
	bne	.L475
	ldr	x0, [sp, 72]
	ldr	x19, [sp, 16]
	ldp	x29, x30, [sp], 80
	.cfi_restore 30
	.cfi_restore 29
	.cfi_restore 19
	.cfi_def_cfa_offset 0
	ret
	.cfi_endproc
.LFE3224:
	.size	_ZSt14__relocate_a_1IPSt6vectorIiSaIiEES3_SaIS2_EET0_T_S6_S5_RT1_, .-_ZSt14__relocate_a_1IPSt6vectorIiSaIiEES3_SaIS2_EET0_T_S6_S5_RT1_
	.section	.text._ZNK9__gnu_cxx13new_allocatorIiE8max_sizeEv,"axG",@progbits,_ZNK9__gnu_cxx13new_allocatorIiE8max_sizeEv,comdat
	.align	2
	.weak	_ZNK9__gnu_cxx13new_allocatorIiE8max_sizeEv
	.type	_ZNK9__gnu_cxx13new_allocatorIiE8max_sizeEv, %function
_ZNK9__gnu_cxx13new_allocatorIiE8max_sizeEv:
.LFB3225:
	.cfi_startproc
	stp	x29, x30, [sp, -32]!
	.cfi_def_cfa_offset 32
	.cfi_offset 29, -32
	.cfi_offset 30, -24
	mov	x29, sp
	str	x0, [sp, 24]
	ldr	x0, [sp, 24]
	bl	_ZNK9__gnu_cxx13new_allocatorIiE11_M_max_sizeEv
	ldp	x29, x30, [sp], 32
	.cfi_restore 30
	.cfi_restore 29
	.cfi_def_cfa_offset 0
	ret
	.cfi_endproc
.LFE3225:
	.size	_ZNK9__gnu_cxx13new_allocatorIiE8max_sizeEv, .-_ZNK9__gnu_cxx13new_allocatorIiE8max_sizeEv
	.section	.text._ZNSt20__copy_move_backwardILb1ELb1ESt26random_access_iterator_tagE13__copy_move_bIiEEPT_PKS3_S6_S4_,"axG",@progbits,_ZNSt20__copy_move_backwardILb1ELb1ESt26random_access_iterator_tagE13__copy_move_bIiEEPT_PKS3_S6_S4_,comdat
	.align	2
	.weak	_ZNSt20__copy_move_backwardILb1ELb1ESt26random_access_iterator_tagE13__copy_move_bIiEEPT_PKS3_S6_S4_
	.type	_ZNSt20__copy_move_backwardILb1ELb1ESt26random_access_iterator_tagE13__copy_move_bIiEEPT_PKS3_S6_S4_, %function
_ZNSt20__copy_move_backwardILb1ELb1ESt26random_access_iterator_tagE13__copy_move_bIiEEPT_PKS3_S6_S4_:
.LFB3226:
	.cfi_startproc
	stp	x29, x30, [sp, -64]!
	.cfi_def_cfa_offset 64
	.cfi_offset 29, -64
	.cfi_offset 30, -56
	mov	x29, sp
	str	x0, [sp, 40]
	str	x1, [sp, 32]
	str	x2, [sp, 24]
	ldr	x1, [sp, 32]
	ldr	x0, [sp, 40]
	sub	x0, x1, x0
	asr	x0, x0, 2
	str	x0, [sp, 56]
	ldr	x0, [sp, 56]
	cmp	x0, 0
	beq	.L480
	ldr	x0, [sp, 56]
	lsl	x0, x0, 2
	neg	x0, x0
	ldr	x1, [sp, 24]
	add	x3, x1, x0
	ldr	x0, [sp, 56]
	lsl	x0, x0, 2
	mov	x2, x0
	ldr	x1, [sp, 40]
	mov	x0, x3
	bl	memmove
.L480:
	ldr	x0, [sp, 56]
	lsl	x0, x0, 2
	neg	x0, x0
	ldr	x1, [sp, 24]
	add	x0, x1, x0
	ldp	x29, x30, [sp], 64
	.cfi_restore 30
	.cfi_restore 29
	.cfi_def_cfa_offset 0
	ret
	.cfi_endproc
.LFE3226:
	.size	_ZNSt20__copy_move_backwardILb1ELb1ESt26random_access_iterator_tagE13__copy_move_bIiEEPT_PKS3_S6_S4_, .-_ZNSt20__copy_move_backwardILb1ELb1ESt26random_access_iterator_tagE13__copy_move_bIiEEPT_PKS3_S6_S4_
	.section	.text._ZSt12__niter_baseIPPP8TreeNodeET_S4_,"axG",@progbits,_ZSt12__niter_baseIPPP8TreeNodeET_S4_,comdat
	.align	2
	.weak	_ZSt12__niter_baseIPPP8TreeNodeET_S4_
	.type	_ZSt12__niter_baseIPPP8TreeNodeET_S4_, %function
_ZSt12__niter_baseIPPP8TreeNodeET_S4_:
.LFB3229:
	.cfi_startproc
	sub	sp, sp, #16
	.cfi_def_cfa_offset 16
	str	x0, [sp, 8]
	ldr	x0, [sp, 8]
	add	sp, sp, 16
	.cfi_def_cfa_offset 0
	ret
	.cfi_endproc
.LFE3229:
	.size	_ZSt12__niter_baseIPPP8TreeNodeET_S4_, .-_ZSt12__niter_baseIPPP8TreeNodeET_S4_
	.section	.text._ZSt14__copy_move_a1ILb0EPPP8TreeNodeS3_ET1_T0_S5_S4_,"axG",@progbits,_ZSt14__copy_move_a1ILb0EPPP8TreeNodeS3_ET1_T0_S5_S4_,comdat
	.align	2
	.weak	_ZSt14__copy_move_a1ILb0EPPP8TreeNodeS3_ET1_T0_S5_S4_
	.type	_ZSt14__copy_move_a1ILb0EPPP8TreeNodeS3_ET1_T0_S5_S4_, %function
_ZSt14__copy_move_a1ILb0EPPP8TreeNodeS3_ET1_T0_S5_S4_:
.LFB3230:
	.cfi_startproc
	stp	x29, x30, [sp, -48]!
	.cfi_def_cfa_offset 48
	.cfi_offset 29, -48
	.cfi_offset 30, -40
	mov	x29, sp
	str	x0, [sp, 40]
	str	x1, [sp, 32]
	str	x2, [sp, 24]
	ldr	x2, [sp, 24]
	ldr	x1, [sp, 32]
	ldr	x0, [sp, 40]
	bl	_ZSt14__copy_move_a2ILb0EPPP8TreeNodeS3_ET1_T0_S5_S4_
	ldp	x29, x30, [sp], 48
	.cfi_restore 30
	.cfi_restore 29
	.cfi_def_cfa_offset 0
	ret
	.cfi_endproc
.LFE3230:
	.size	_ZSt14__copy_move_a1ILb0EPPP8TreeNodeS3_ET1_T0_S5_S4_, .-_ZSt14__copy_move_a1ILb0EPPP8TreeNodeS3_ET1_T0_S5_S4_
	.section	.text._ZSt12__niter_wrapIPPP8TreeNodeET_RKS4_S4_,"axG",@progbits,_ZSt12__niter_wrapIPPP8TreeNodeET_RKS4_S4_,comdat
	.align	2
	.weak	_ZSt12__niter_wrapIPPP8TreeNodeET_RKS4_S4_
	.type	_ZSt12__niter_wrapIPPP8TreeNodeET_RKS4_S4_, %function
_ZSt12__niter_wrapIPPP8TreeNodeET_RKS4_S4_:
.LFB3231:
	.cfi_startproc
	sub	sp, sp, #16
	.cfi_def_cfa_offset 16
	str	x0, [sp, 8]
	str	x1, [sp]
	ldr	x0, [sp]
	add	sp, sp, 16
	.cfi_def_cfa_offset 0
	ret
	.cfi_endproc
.LFE3231:
	.size	_ZSt12__niter_wrapIPPP8TreeNodeET_RKS4_S4_, .-_ZSt12__niter_wrapIPPP8TreeNodeET_RKS4_S4_
	.section	.text._ZSt23__copy_move_backward_a1ILb0EPPP8TreeNodeS3_ET1_T0_S5_S4_,"axG",@progbits,_ZSt23__copy_move_backward_a1ILb0EPPP8TreeNodeS3_ET1_T0_S5_S4_,comdat
	.align	2
	.weak	_ZSt23__copy_move_backward_a1ILb0EPPP8TreeNodeS3_ET1_T0_S5_S4_
	.type	_ZSt23__copy_move_backward_a1ILb0EPPP8TreeNodeS3_ET1_T0_S5_S4_, %function
_ZSt23__copy_move_backward_a1ILb0EPPP8TreeNodeS3_ET1_T0_S5_S4_:
.LFB3232:
	.cfi_startproc
	stp	x29, x30, [sp, -48]!
	.cfi_def_cfa_offset 48
	.cfi_offset 29, -48
	.cfi_offset 30, -40
	mov	x29, sp
	str	x0, [sp, 40]
	str	x1, [sp, 32]
	str	x2, [sp, 24]
	ldr	x2, [sp, 24]
	ldr	x1, [sp, 32]
	ldr	x0, [sp, 40]
	bl	_ZSt23__copy_move_backward_a2ILb0EPPP8TreeNodeS3_ET1_T0_S5_S4_
	ldp	x29, x30, [sp], 48
	.cfi_restore 30
	.cfi_restore 29
	.cfi_def_cfa_offset 0
	ret
	.cfi_endproc
.LFE3232:
	.size	_ZSt23__copy_move_backward_a1ILb0EPPP8TreeNodeS3_ET1_T0_S5_S4_, .-_ZSt23__copy_move_backward_a1ILb0EPPP8TreeNodeS3_ET1_T0_S5_S4_
	.section	.text._ZNK9__gnu_cxx13new_allocatorISt6vectorIiSaIiEEE8max_sizeEv,"axG",@progbits,_ZNK9__gnu_cxx13new_allocatorISt6vectorIiSaIiEEE8max_sizeEv,comdat
	.align	2
	.weak	_ZNK9__gnu_cxx13new_allocatorISt6vectorIiSaIiEEE8max_sizeEv
	.type	_ZNK9__gnu_cxx13new_allocatorISt6vectorIiSaIiEEE8max_sizeEv, %function
_ZNK9__gnu_cxx13new_allocatorISt6vectorIiSaIiEEE8max_sizeEv:
.LFB3233:
	.cfi_startproc
	stp	x29, x30, [sp, -32]!
	.cfi_def_cfa_offset 32
	.cfi_offset 29, -32
	.cfi_offset 30, -24
	mov	x29, sp
	str	x0, [sp, 24]
	ldr	x0, [sp, 24]
	bl	_ZNK9__gnu_cxx13new_allocatorISt6vectorIiSaIiEEE11_M_max_sizeEv
	ldp	x29, x30, [sp], 32
	.cfi_restore 30
	.cfi_restore 29
	.cfi_def_cfa_offset 0
	ret
	.cfi_endproc
.LFE3233:
	.size	_ZNK9__gnu_cxx13new_allocatorISt6vectorIiSaIiEEE8max_sizeEv, .-_ZNK9__gnu_cxx13new_allocatorISt6vectorIiSaIiEEE8max_sizeEv
	.section	.text._ZSt19__relocate_object_aISt6vectorIiSaIiEES2_SaIS2_EEvPT_PT0_RT1_,"axG",@progbits,_ZSt19__relocate_object_aISt6vectorIiSaIiEES2_SaIS2_EEvPT_PT0_RT1_,comdat
	.align	2
	.weak	_ZSt19__relocate_object_aISt6vectorIiSaIiEES2_SaIS2_EEvPT_PT0_RT1_
	.type	_ZSt19__relocate_object_aISt6vectorIiSaIiEES2_SaIS2_EEvPT_PT0_RT1_, %function
_ZSt19__relocate_object_aISt6vectorIiSaIiEES2_SaIS2_EEvPT_PT0_RT1_:
.LFB3234:
	.cfi_startproc
	stp	x29, x30, [sp, -48]!
	.cfi_def_cfa_offset 48
	.cfi_offset 29, -48
	.cfi_offset 30, -40
	mov	x29, sp
	str	x0, [sp, 40]
	str	x1, [sp, 32]
	str	x2, [sp, 24]
	ldr	x0, [sp, 32]
	bl	_ZSt4moveIRSt6vectorIiSaIiEEEONSt16remove_referenceIT_E4typeEOS5_
	mov	x2, x0
	ldr	x1, [sp, 40]
	ldr	x0, [sp, 24]
	bl	_ZNSt16allocator_traitsISaISt6vectorIiSaIiEEEE9constructIS2_JS2_EEEvRS3_PT_DpOT0_
	ldr	x0, [sp, 32]
	bl	_ZSt11__addressofISt6vectorIiSaIiEEEPT_RS3_
	mov	x1, x0
	ldr	x0, [sp, 24]
	bl	_ZNSt16allocator_traitsISaISt6vectorIiSaIiEEEE7destroyIS2_EEvRS3_PT_
	nop
	ldp	x29, x30, [sp], 48
	.cfi_restore 30
	.cfi_restore 29
	.cfi_def_cfa_offset 0
	ret
	.cfi_endproc
.LFE3234:
	.size	_ZSt19__relocate_object_aISt6vectorIiSaIiEES2_SaIS2_EEvPT_PT0_RT1_, .-_ZSt19__relocate_object_aISt6vectorIiSaIiEES2_SaIS2_EEvPT_PT0_RT1_
	.section	.text._ZSt14__copy_move_a2ILb0EPPP8TreeNodeS3_ET1_T0_S5_S4_,"axG",@progbits,_ZSt14__copy_move_a2ILb0EPPP8TreeNodeS3_ET1_T0_S5_S4_,comdat
	.align	2
	.weak	_ZSt14__copy_move_a2ILb0EPPP8TreeNodeS3_ET1_T0_S5_S4_
	.type	_ZSt14__copy_move_a2ILb0EPPP8TreeNodeS3_ET1_T0_S5_S4_, %function
_ZSt14__copy_move_a2ILb0EPPP8TreeNodeS3_ET1_T0_S5_S4_:
.LFB3235:
	.cfi_startproc
	stp	x29, x30, [sp, -48]!
	.cfi_def_cfa_offset 48
	.cfi_offset 29, -48
	.cfi_offset 30, -40
	mov	x29, sp
	str	x0, [sp, 40]
	str	x1, [sp, 32]
	str	x2, [sp, 24]
	ldr	x2, [sp, 24]
	ldr	x1, [sp, 32]
	ldr	x0, [sp, 40]
	bl	_ZNSt11__copy_moveILb0ELb1ESt26random_access_iterator_tagE8__copy_mIPP8TreeNodeEEPT_PKS6_S9_S7_
	ldp	x29, x30, [sp], 48
	.cfi_restore 30
	.cfi_restore 29
	.cfi_def_cfa_offset 0
	ret
	.cfi_endproc
.LFE3235:
	.size	_ZSt14__copy_move_a2ILb0EPPP8TreeNodeS3_ET1_T0_S5_S4_, .-_ZSt14__copy_move_a2ILb0EPPP8TreeNodeS3_ET1_T0_S5_S4_
	.section	.text._ZSt23__copy_move_backward_a2ILb0EPPP8TreeNodeS3_ET1_T0_S5_S4_,"axG",@progbits,_ZSt23__copy_move_backward_a2ILb0EPPP8TreeNodeS3_ET1_T0_S5_S4_,comdat
	.align	2
	.weak	_ZSt23__copy_move_backward_a2ILb0EPPP8TreeNodeS3_ET1_T0_S5_S4_
	.type	_ZSt23__copy_move_backward_a2ILb0EPPP8TreeNodeS3_ET1_T0_S5_S4_, %function
_ZSt23__copy_move_backward_a2ILb0EPPP8TreeNodeS3_ET1_T0_S5_S4_:
.LFB3236:
	.cfi_startproc
	stp	x29, x30, [sp, -48]!
	.cfi_def_cfa_offset 48
	.cfi_offset 29, -48
	.cfi_offset 30, -40
	mov	x29, sp
	str	x0, [sp, 40]
	str	x1, [sp, 32]
	str	x2, [sp, 24]
	ldr	x2, [sp, 24]
	ldr	x1, [sp, 32]
	ldr	x0, [sp, 40]
	bl	_ZNSt20__copy_move_backwardILb0ELb1ESt26random_access_iterator_tagE13__copy_move_bIPP8TreeNodeEEPT_PKS6_S9_S7_
	ldp	x29, x30, [sp], 48
	.cfi_restore 30
	.cfi_restore 29
	.cfi_def_cfa_offset 0
	ret
	.cfi_endproc
.LFE3236:
	.size	_ZSt23__copy_move_backward_a2ILb0EPPP8TreeNodeS3_ET1_T0_S5_S4_, .-_ZSt23__copy_move_backward_a2ILb0EPPP8TreeNodeS3_ET1_T0_S5_S4_
	.section	.text._ZNSt11__copy_moveILb0ELb1ESt26random_access_iterator_tagE8__copy_mIPP8TreeNodeEEPT_PKS6_S9_S7_,"axG",@progbits,_ZNSt11__copy_moveILb0ELb1ESt26random_access_iterator_tagE8__copy_mIPP8TreeNodeEEPT_PKS6_S9_S7_,comdat
	.align	2
	.weak	_ZNSt11__copy_moveILb0ELb1ESt26random_access_iterator_tagE8__copy_mIPP8TreeNodeEEPT_PKS6_S9_S7_
	.type	_ZNSt11__copy_moveILb0ELb1ESt26random_access_iterator_tagE8__copy_mIPP8TreeNodeEEPT_PKS6_S9_S7_, %function
_ZNSt11__copy_moveILb0ELb1ESt26random_access_iterator_tagE8__copy_mIPP8TreeNodeEEPT_PKS6_S9_S7_:
.LFB3237:
	.cfi_startproc
	stp	x29, x30, [sp, -64]!
	.cfi_def_cfa_offset 64
	.cfi_offset 29, -64
	.cfi_offset 30, -56
	mov	x29, sp
	str	x0, [sp, 40]
	str	x1, [sp, 32]
	str	x2, [sp, 24]
	ldr	x1, [sp, 32]
	ldr	x0, [sp, 40]
	sub	x0, x1, x0
	asr	x0, x0, 3
	str	x0, [sp, 56]
	ldr	x0, [sp, 56]
	cmp	x0, 0
	beq	.L498
	ldr	x0, [sp, 56]
	lsl	x0, x0, 3
	mov	x2, x0
	ldr	x1, [sp, 40]
	ldr	x0, [sp, 24]
	bl	memmove
.L498:
	ldr	x0, [sp, 56]
	lsl	x0, x0, 3
	ldr	x1, [sp, 24]
	add	x0, x1, x0
	ldp	x29, x30, [sp], 64
	.cfi_restore 30
	.cfi_restore 29
	.cfi_def_cfa_offset 0
	ret
	.cfi_endproc
.LFE3237:
	.size	_ZNSt11__copy_moveILb0ELb1ESt26random_access_iterator_tagE8__copy_mIPP8TreeNodeEEPT_PKS6_S9_S7_, .-_ZNSt11__copy_moveILb0ELb1ESt26random_access_iterator_tagE8__copy_mIPP8TreeNodeEEPT_PKS6_S9_S7_
	.section	.text._ZNSt20__copy_move_backwardILb0ELb1ESt26random_access_iterator_tagE13__copy_move_bIPP8TreeNodeEEPT_PKS6_S9_S7_,"axG",@progbits,_ZNSt20__copy_move_backwardILb0ELb1ESt26random_access_iterator_tagE13__copy_move_bIPP8TreeNodeEEPT_PKS6_S9_S7_,comdat
	.align	2
	.weak	_ZNSt20__copy_move_backwardILb0ELb1ESt26random_access_iterator_tagE13__copy_move_bIPP8TreeNodeEEPT_PKS6_S9_S7_
	.type	_ZNSt20__copy_move_backwardILb0ELb1ESt26random_access_iterator_tagE13__copy_move_bIPP8TreeNodeEEPT_PKS6_S9_S7_, %function
_ZNSt20__copy_move_backwardILb0ELb1ESt26random_access_iterator_tagE13__copy_move_bIPP8TreeNodeEEPT_PKS6_S9_S7_:
.LFB3239:
	.cfi_startproc
	stp	x29, x30, [sp, -64]!
	.cfi_def_cfa_offset 64
	.cfi_offset 29, -64
	.cfi_offset 30, -56
	mov	x29, sp
	str	x0, [sp, 40]
	str	x1, [sp, 32]
	str	x2, [sp, 24]
	ldr	x1, [sp, 32]
	ldr	x0, [sp, 40]
	sub	x0, x1, x0
	asr	x0, x0, 3
	str	x0, [sp, 56]
	ldr	x0, [sp, 56]
	cmp	x0, 0
	beq	.L501
	ldr	x0, [sp, 56]
	lsl	x0, x0, 3
	neg	x0, x0
	ldr	x1, [sp, 24]
	add	x3, x1, x0
	ldr	x0, [sp, 56]
	lsl	x0, x0, 3
	mov	x2, x0
	ldr	x1, [sp, 40]
	mov	x0, x3
	bl	memmove
.L501:
	ldr	x0, [sp, 56]
	lsl	x0, x0, 3
	neg	x0, x0
	ldr	x1, [sp, 24]
	add	x0, x1, x0
	ldp	x29, x30, [sp], 64
	.cfi_restore 30
	.cfi_restore 29
	.cfi_def_cfa_offset 0
	ret
	.cfi_endproc
.LFE3239:
	.size	_ZNSt20__copy_move_backwardILb0ELb1ESt26random_access_iterator_tagE13__copy_move_bIPP8TreeNodeEEPT_PKS6_S9_S7_, .-_ZNSt20__copy_move_backwardILb0ELb1ESt26random_access_iterator_tagE13__copy_move_bIPP8TreeNodeEEPT_PKS6_S9_S7_
