	.arch armv8-a
	.file	"main.cpp"
	.text
	.section	.text._ZNKSt9type_infoeqERKS_,"axG",@progbits,_ZNKSt9type_infoeqERKS_,comdat
	.align	2
	.weak	_ZNKSt9type_infoeqERKS_
	.type	_ZNKSt9type_infoeqERKS_, %function
_ZNKSt9type_infoeqERKS_:
.LFB20:
	.cfi_startproc
	stp	x29, x30, [sp, -32]!
	.cfi_def_cfa_offset 32
	.cfi_offset 29, -32
	.cfi_offset 30, -24
	mov	x29, sp
	str	x0, [sp, 24]
	str	x1, [sp, 16]
	ldr	x0, [sp, 24]
	ldr	x1, [x0, 8]
	ldr	x0, [sp, 16]
	ldr	x0, [x0, 8]
	cmp	x1, x0
	beq	.L2
	ldr	x0, [sp, 24]
	ldr	x0, [x0, 8]
	ldrb	w0, [x0]
	cmp	w0, 42
	beq	.L3
	ldr	x0, [sp, 24]
	ldr	x2, [x0, 8]
	ldr	x0, [sp, 16]
	ldr	x0, [x0, 8]
	mov	x1, x0
	mov	x0, x2
	bl	strcmp
	cmp	w0, 0
	bne	.L3
.L2:
	mov	w0, 1
	b	.L4
.L3:
	mov	w0, 0
.L4:
	ldp	x29, x30, [sp], 32
	.cfi_restore 30
	.cfi_restore 29
	.cfi_def_cfa_offset 0
	ret
	.cfi_endproc
.LFE20:
	.size	_ZNKSt9type_infoeqERKS_, .-_ZNKSt9type_infoeqERKS_
	.section	.text._ZnwmPv,"axG",@progbits,_ZnwmPv,comdat
	.align	2
	.weak	_ZnwmPv
	.type	_ZnwmPv, %function
_ZnwmPv:
.LFB38:
	.cfi_startproc
	sub	sp, sp, #16
	.cfi_def_cfa_offset 16
	str	x0, [sp, 8]
	str	x1, [sp]
	ldr	x0, [sp]
	add	sp, sp, 16
	.cfi_def_cfa_offset 0
	ret
	.cfi_endproc
.LFE38:
	.size	_ZnwmPv, .-_ZnwmPv
	.section	.text._ZNSt15__exception_ptr13exception_ptrC2EDn,"axG",@progbits,_ZNSt15__exception_ptr13exception_ptrC5EDn,comdat
	.align	2
	.weak	_ZNSt15__exception_ptr13exception_ptrC2EDn
	.type	_ZNSt15__exception_ptr13exception_ptrC2EDn, %function
_ZNSt15__exception_ptr13exception_ptrC2EDn:
.LFB63:
	.cfi_startproc
	sub	sp, sp, #16
	.cfi_def_cfa_offset 16
	str	x0, [sp, 8]
	str	x1, [sp]
	ldr	x0, [sp, 8]
	str	xzr, [x0]
	nop
	add	sp, sp, 16
	.cfi_def_cfa_offset 0
	ret
	.cfi_endproc
.LFE63:
	.size	_ZNSt15__exception_ptr13exception_ptrC2EDn, .-_ZNSt15__exception_ptr13exception_ptrC2EDn
	.weak	_ZNSt15__exception_ptr13exception_ptrC1EDn
	.set	_ZNSt15__exception_ptr13exception_ptrC1EDn,_ZNSt15__exception_ptr13exception_ptrC2EDn
	.section	.text._ZNSt15__exception_ptr13exception_ptrC2EOS0_,"axG",@progbits,_ZNSt15__exception_ptr13exception_ptrC5EOS0_,comdat
	.align	2
	.weak	_ZNSt15__exception_ptr13exception_ptrC2EOS0_
	.type	_ZNSt15__exception_ptr13exception_ptrC2EOS0_, %function
_ZNSt15__exception_ptr13exception_ptrC2EOS0_:
.LFB66:
	.cfi_startproc
	sub	sp, sp, #16
	.cfi_def_cfa_offset 16
	str	x0, [sp, 8]
	str	x1, [sp]
	ldr	x0, [sp]
	ldr	x1, [x0]
	ldr	x0, [sp, 8]
	str	x1, [x0]
	ldr	x0, [sp]
	str	xzr, [x0]
	nop
	add	sp, sp, 16
	.cfi_def_cfa_offset 0
	ret
	.cfi_endproc
.LFE66:
	.size	_ZNSt15__exception_ptr13exception_ptrC2EOS0_, .-_ZNSt15__exception_ptr13exception_ptrC2EOS0_
	.weak	_ZNSt15__exception_ptr13exception_ptrC1EOS0_
	.set	_ZNSt15__exception_ptr13exception_ptrC1EOS0_,_ZNSt15__exception_ptr13exception_ptrC2EOS0_
	.section	.text._ZNSt15__exception_ptr13exception_ptraSEOS0_,"axG",@progbits,_ZNSt15__exception_ptr13exception_ptraSEOS0_,comdat
	.align	2
	.weak	_ZNSt15__exception_ptr13exception_ptraSEOS0_
	.type	_ZNSt15__exception_ptr13exception_ptraSEOS0_, %function
_ZNSt15__exception_ptr13exception_ptraSEOS0_:
.LFB68:
	.cfi_startproc
	stp	x29, x30, [sp, -48]!
	.cfi_def_cfa_offset 48
	.cfi_offset 29, -48
	.cfi_offset 30, -40
	mov	x29, sp
	str	x0, [sp, 24]
	str	x1, [sp, 16]
	adrp	x0, :got:__stack_chk_guard
	ldr	x0, [x0, #:got_lo12:__stack_chk_guard]
	ldr	x1, [x0]
	str	x1, [sp, 40]
	mov	x1, 0
	add	x0, sp, 32
	ldr	x1, [sp, 16]
	bl	_ZNSt15__exception_ptr13exception_ptrC1EOS0_
	add	x0, sp, 32
	ldr	x1, [sp, 24]
	bl	_ZNSt15__exception_ptr13exception_ptr4swapERS0_
	add	x0, sp, 32
	bl	_ZNSt15__exception_ptr13exception_ptrD1Ev
	ldr	x0, [sp, 24]
	mov	x1, x0
	adrp	x0, :got:__stack_chk_guard
	ldr	x0, [x0, #:got_lo12:__stack_chk_guard]
	ldr	x3, [sp, 40]
	ldr	x2, [x0]
	subs	x3, x3, x2
	mov	x2, 0
	beq	.L12
	bl	__stack_chk_fail
.L12:
	mov	x0, x1
	ldp	x29, x30, [sp], 48
	.cfi_restore 30
	.cfi_restore 29
	.cfi_def_cfa_offset 0
	ret
	.cfi_endproc
.LFE68:
	.size	_ZNSt15__exception_ptr13exception_ptraSEOS0_, .-_ZNSt15__exception_ptr13exception_ptraSEOS0_
	.section	.text._ZNSt15__exception_ptreqERKNS_13exception_ptrES2_,"axG",@progbits,_ZNSt15__exception_ptreqERKNS_13exception_ptrES2_,comdat
	.align	2
	.weak	_ZNSt15__exception_ptreqERKNS_13exception_ptrES2_
	.type	_ZNSt15__exception_ptreqERKNS_13exception_ptrES2_, %function
_ZNSt15__exception_ptreqERKNS_13exception_ptrES2_:
.LFB70:
	.cfi_startproc
	sub	sp, sp, #16
	.cfi_def_cfa_offset 16
	str	x0, [sp, 8]
	str	x1, [sp]
	ldr	x0, [sp, 8]
	ldr	x1, [x0]
	ldr	x0, [sp]
	ldr	x0, [x0]
	cmp	x1, x0
	cset	w0, eq
	and	w0, w0, 255
	add	sp, sp, 16
	.cfi_def_cfa_offset 0
	ret
	.cfi_endproc
.LFE70:
	.size	_ZNSt15__exception_ptreqERKNS_13exception_ptrES2_, .-_ZNSt15__exception_ptreqERKNS_13exception_ptrES2_
	.section	.text._ZNSt15__exception_ptr13exception_ptrC2ERKS0_,"axG",@progbits,_ZNSt15__exception_ptr13exception_ptrC5ERKS0_,comdat
	.align	2
	.weak	_ZNSt15__exception_ptr13exception_ptrC2ERKS0_
	.type	_ZNSt15__exception_ptr13exception_ptrC2ERKS0_, %function
_ZNSt15__exception_ptr13exception_ptrC2ERKS0_:
.LFB76:
	.cfi_startproc
	stp	x29, x30, [sp, -32]!
	.cfi_def_cfa_offset 32
	.cfi_offset 29, -32
	.cfi_offset 30, -24
	mov	x29, sp
	str	x0, [sp, 24]
	str	x1, [sp, 16]
	ldr	x0, [sp, 16]
	ldr	x1, [x0]
	ldr	x0, [sp, 24]
	str	x1, [x0]
	ldr	x0, [sp, 24]
	ldr	x0, [x0]
	cmp	x0, 0
	beq	.L17
	ldr	x0, [sp, 24]
	bl	_ZNSt15__exception_ptr13exception_ptr9_M_addrefEv
.L17:
	nop
	ldp	x29, x30, [sp], 32
	.cfi_restore 30
	.cfi_restore 29
	.cfi_def_cfa_offset 0
	ret
	.cfi_endproc
.LFE76:
	.size	_ZNSt15__exception_ptr13exception_ptrC2ERKS0_, .-_ZNSt15__exception_ptr13exception_ptrC2ERKS0_
	.weak	_ZNSt15__exception_ptr13exception_ptrC1ERKS0_
	.set	_ZNSt15__exception_ptr13exception_ptrC1ERKS0_,_ZNSt15__exception_ptr13exception_ptrC2ERKS0_
	.section	.text._ZNSt15__exception_ptr13exception_ptrD2Ev,"axG",@progbits,_ZNSt15__exception_ptr13exception_ptrD5Ev,comdat
	.align	2
	.weak	_ZNSt15__exception_ptr13exception_ptrD2Ev
	.type	_ZNSt15__exception_ptr13exception_ptrD2Ev, %function
_ZNSt15__exception_ptr13exception_ptrD2Ev:
.LFB79:
	.cfi_startproc
	stp	x29, x30, [sp, -32]!
	.cfi_def_cfa_offset 32
	.cfi_offset 29, -32
	.cfi_offset 30, -24
	mov	x29, sp
	str	x0, [sp, 24]
	ldr	x0, [sp, 24]
	ldr	x0, [x0]
	cmp	x0, 0
	beq	.L20
	ldr	x0, [sp, 24]
	bl	_ZNSt15__exception_ptr13exception_ptr10_M_releaseEv
.L20:
	nop
	ldp	x29, x30, [sp], 32
	.cfi_restore 30
	.cfi_restore 29
	.cfi_def_cfa_offset 0
	ret
	.cfi_endproc
.LFE79:
	.size	_ZNSt15__exception_ptr13exception_ptrD2Ev, .-_ZNSt15__exception_ptr13exception_ptrD2Ev
	.weak	_ZNSt15__exception_ptr13exception_ptrD1Ev
	.set	_ZNSt15__exception_ptr13exception_ptrD1Ev,_ZNSt15__exception_ptr13exception_ptrD2Ev
	.section	.text._ZNSt15__exception_ptr13exception_ptr4swapERS0_,"axG",@progbits,_ZNSt15__exception_ptr13exception_ptr4swapERS0_,comdat
	.align	2
	.weak	_ZNSt15__exception_ptr13exception_ptr4swapERS0_
	.type	_ZNSt15__exception_ptr13exception_ptr4swapERS0_, %function
_ZNSt15__exception_ptr13exception_ptr4swapERS0_:
.LFB82:
	.cfi_startproc
	sub	sp, sp, #32
	.cfi_def_cfa_offset 32
	str	x0, [sp, 8]
	str	x1, [sp]
	ldr	x0, [sp, 8]
	ldr	x0, [x0]
	str	x0, [sp, 24]
	ldr	x0, [sp]
	ldr	x1, [x0]
	ldr	x0, [sp, 8]
	str	x1, [x0]
	ldr	x0, [sp]
	ldr	x1, [sp, 24]
	str	x1, [x0]
	nop
	add	sp, sp, 32
	.cfi_def_cfa_offset 0
	ret
	.cfi_endproc
.LFE82:
	.size	_ZNSt15__exception_ptr13exception_ptr4swapERS0_, .-_ZNSt15__exception_ptr13exception_ptr4swapERS0_
	.section	.text._ZL18__gthread_active_pv,"axG",@progbits,_ZSt9call_onceIMNSt13__future_base13_State_baseV2EFvPSt8functionIFSt10unique_ptrINS0_12_Result_baseENS4_8_DeleterEEvEEPbEJPS1_S9_SA_EEvRSt9once_flagOT_DpOT0_,comdat
	.align	2
	.type	_ZL18__gthread_active_pv, %function
_ZL18__gthread_active_pv:
.LFB514:
	.cfi_startproc
	mov	w0, 1
	ret
	.cfi_endproc
.LFE514:
	.size	_ZL18__gthread_active_pv, .-_ZL18__gthread_active_pv
	.section	.text._ZL14__gthread_oncePiPFvvE,"axG",@progbits,_ZSt9call_onceIMNSt13__future_base13_State_baseV2EFvPSt8functionIFSt10unique_ptrINS0_12_Result_baseENS4_8_DeleterEEvEEPbEJPS1_S9_SA_EEvRSt9once_flagOT_DpOT0_,comdat
	.align	2
	.type	_ZL14__gthread_oncePiPFvvE, %function
_ZL14__gthread_oncePiPFvvE:
.LFB521:
	.cfi_startproc
	stp	x29, x30, [sp, -32]!
	.cfi_def_cfa_offset 32
	.cfi_offset 29, -32
	.cfi_offset 30, -24
	mov	x29, sp
	str	x0, [sp, 24]
	str	x1, [sp, 16]
	bl	_ZL18__gthread_active_pv
	cmp	w0, 0
	cset	w0, ne
	and	w0, w0, 255
	cmp	w0, 0
	beq	.L25
	ldr	x1, [sp, 16]
	ldr	x0, [sp, 24]
	bl	pthread_once
	b	.L26
.L25:
	mov	w0, -1
.L26:
	ldp	x29, x30, [sp], 32
	.cfi_restore 30
	.cfi_restore 29
	.cfi_def_cfa_offset 0
	ret
	.cfi_endproc
.LFE521:
	.size	_ZL14__gthread_oncePiPFvvE, .-_ZL14__gthread_oncePiPFvvE
	.section	.text._ZNSt10error_codeC2EiRKNSt3_V214error_categoryE,"axG",@progbits,_ZNSt10error_codeC5EiRKNSt3_V214error_categoryE,comdat
	.align	2
	.weak	_ZNSt10error_codeC2EiRKNSt3_V214error_categoryE
	.type	_ZNSt10error_codeC2EiRKNSt3_V214error_categoryE, %function
_ZNSt10error_codeC2EiRKNSt3_V214error_categoryE:
.LFB1258:
	.cfi_startproc
	sub	sp, sp, #32
	.cfi_def_cfa_offset 32
	str	x0, [sp, 24]
	str	w1, [sp, 20]
	str	x2, [sp, 8]
	ldr	x0, [sp, 24]
	ldr	w1, [sp, 20]
	str	w1, [x0]
	ldr	x0, [sp, 24]
	ldr	x1, [sp, 8]
	str	x1, [x0, 8]
	nop
	add	sp, sp, 32
	.cfi_def_cfa_offset 0
	ret
	.cfi_endproc
.LFE1258:
	.size	_ZNSt10error_codeC2EiRKNSt3_V214error_categoryE, .-_ZNSt10error_codeC2EiRKNSt3_V214error_categoryE
	.weak	_ZNSt10error_codeC1EiRKNSt3_V214error_categoryE
	.set	_ZNSt10error_codeC1EiRKNSt3_V214error_categoryE,_ZNSt10error_codeC2EiRKNSt3_V214error_categoryE
	.section	.text._ZNKSt10error_code5valueEv,"axG",@progbits,_ZNKSt10error_code5valueEv,comdat
	.align	2
	.weak	_ZNKSt10error_code5valueEv
	.type	_ZNKSt10error_code5valueEv, %function
_ZNKSt10error_code5valueEv:
.LFB1264:
	.cfi_startproc
	sub	sp, sp, #16
	.cfi_def_cfa_offset 16
	str	x0, [sp, 8]
	ldr	x0, [sp, 8]
	ldr	w0, [x0]
	add	sp, sp, 16
	.cfi_def_cfa_offset 0
	ret
	.cfi_endproc
.LFE1264:
	.size	_ZNKSt10error_code5valueEv, .-_ZNKSt10error_code5valueEv
	.section	.text._ZNKSt10error_code8categoryEv,"axG",@progbits,_ZNKSt10error_code8categoryEv,comdat
	.align	2
	.weak	_ZNKSt10error_code8categoryEv
	.type	_ZNKSt10error_code8categoryEv, %function
_ZNKSt10error_code8categoryEv:
.LFB1265:
	.cfi_startproc
	sub	sp, sp, #16
	.cfi_def_cfa_offset 16
	str	x0, [sp, 8]
	ldr	x0, [sp, 8]
	ldr	x0, [x0, 8]
	add	sp, sp, 16
	.cfi_def_cfa_offset 0
	ret
	.cfi_endproc
.LFE1265:
	.size	_ZNKSt10error_code8categoryEv, .-_ZNKSt10error_code8categoryEv
	.section	.text._ZNKSt10error_code7messageB5cxx11Ev,"axG",@progbits,_ZNKSt10error_code7messageB5cxx11Ev,comdat
	.align	2
	.weak	_ZNKSt10error_code7messageB5cxx11Ev
	.type	_ZNKSt10error_code7messageB5cxx11Ev, %function
_ZNKSt10error_code7messageB5cxx11Ev:
.LFB1266:
	.cfi_startproc
	stp	x29, x30, [sp, -80]!
	.cfi_def_cfa_offset 80
	.cfi_offset 29, -80
	.cfi_offset 30, -72
	mov	x29, sp
	stp	x19, x20, [sp, 16]
	str	x21, [sp, 32]
	.cfi_offset 19, -64
	.cfi_offset 20, -56
	.cfi_offset 21, -48
	mov	x20, x8
	str	x0, [sp, 56]
	adrp	x0, :got:__stack_chk_guard
	ldr	x0, [x0, #:got_lo12:__stack_chk_guard]
	ldr	x1, [x0]
	str	x1, [sp, 72]
	mov	x1, 0
	ldr	x0, [sp, 56]
	bl	_ZNKSt10error_code8categoryEv
	mov	x19, x0
	ldr	x0, [x19]
	add	x0, x0, 32
	ldr	x21, [x0]
	ldr	x0, [sp, 56]
	bl	_ZNKSt10error_code5valueEv
	mov	x8, x20
	mov	w1, w0
	mov	x0, x19
	blr	x21
	adrp	x0, :got:__stack_chk_guard
	ldr	x0, [x0, #:got_lo12:__stack_chk_guard]
	ldr	x2, [sp, 72]
	ldr	x1, [x0]
	subs	x2, x2, x1
	mov	x1, 0
	beq	.L34
	bl	__stack_chk_fail
.L34:
	mov	x0, x20
	ldp	x19, x20, [sp, 16]
	ldr	x21, [sp, 32]
	ldp	x29, x30, [sp], 80
	.cfi_restore 30
	.cfi_restore 29
	.cfi_restore 21
	.cfi_restore 19
	.cfi_restore 20
	.cfi_def_cfa_offset 0
	ret
	.cfi_endproc
.LFE1266:
	.size	_ZNKSt10error_code7messageB5cxx11Ev, .-_ZNKSt10error_code7messageB5cxx11Ev
	.local	_ZStL8__ioinit
	.comm	_ZStL8__ioinit,1,8
	.section	.text._ZNKSt6chrono8durationIlSt5ratioILl1ELl1000000000EEE5countEv,"axG",@progbits,_ZNKSt6chrono8durationIlSt5ratioILl1ELl1000000000EEE5countEv,comdat
	.align	2
	.weak	_ZNKSt6chrono8durationIlSt5ratioILl1ELl1000000000EEE5countEv
	.type	_ZNKSt6chrono8durationIlSt5ratioILl1ELl1000000000EEE5countEv, %function
_ZNKSt6chrono8durationIlSt5ratioILl1ELl1000000000EEE5countEv:
.LFB2245:
	.cfi_startproc
	sub	sp, sp, #16
	.cfi_def_cfa_offset 16
	str	x0, [sp, 8]
	ldr	x0, [sp, 8]
	ldr	x0, [x0]
	add	sp, sp, 16
	.cfi_def_cfa_offset 0
	ret
	.cfi_endproc
.LFE2245:
	.size	_ZNKSt6chrono8durationIlSt5ratioILl1ELl1000000000EEE5countEv, .-_ZNKSt6chrono8durationIlSt5ratioILl1ELl1000000000EEE5countEv
	.section	.text._ZNSt6chrono8durationIlSt5ratioILl1ELl1000000000EEEC1IlvEERKT_,"axG",@progbits,_ZNSt6chrono8durationIlSt5ratioILl1ELl1000000000EEEC1IlvEERKT_,comdat
	.align	2
	.weak	_ZNSt6chrono8durationIlSt5ratioILl1ELl1000000000EEEC1IlvEERKT_
	.type	_ZNSt6chrono8durationIlSt5ratioILl1ELl1000000000EEEC1IlvEERKT_, %function
_ZNSt6chrono8durationIlSt5ratioILl1ELl1000000000EEEC1IlvEERKT_:
.LFB2250:
	.cfi_startproc
	sub	sp, sp, #16
	.cfi_def_cfa_offset 16
	str	x0, [sp, 8]
	str	x1, [sp]
	ldr	x0, [sp]
	ldr	x1, [x0]
	ldr	x0, [sp, 8]
	str	x1, [x0]
	nop
	add	sp, sp, 16
	.cfi_def_cfa_offset 0
	ret
	.cfi_endproc
.LFE2250:
	.size	_ZNSt6chrono8durationIlSt5ratioILl1ELl1000000000EEEC1IlvEERKT_, .-_ZNSt6chrono8durationIlSt5ratioILl1ELl1000000000EEEC1IlvEERKT_
	.section	.text._ZNSt6chrono15duration_valuesIlE4zeroEv,"axG",@progbits,_ZNSt6chrono15duration_valuesIlE4zeroEv,comdat
	.align	2
	.weak	_ZNSt6chrono15duration_valuesIlE4zeroEv
	.type	_ZNSt6chrono15duration_valuesIlE4zeroEv, %function
_ZNSt6chrono15duration_valuesIlE4zeroEv:
.LFB2252:
	.cfi_startproc
	mov	x0, 0
	ret
	.cfi_endproc
.LFE2252:
	.size	_ZNSt6chrono15duration_valuesIlE4zeroEv, .-_ZNSt6chrono15duration_valuesIlE4zeroEv
	.section	.text._ZNSt6chrono8durationIlSt5ratioILl1ELl1EEEC1IlvEERKT_,"axG",@progbits,_ZNSt6chrono8durationIlSt5ratioILl1ELl1EEEC1IlvEERKT_,comdat
	.align	2
	.weak	_ZNSt6chrono8durationIlSt5ratioILl1ELl1EEEC1IlvEERKT_
	.type	_ZNSt6chrono8durationIlSt5ratioILl1ELl1EEEC1IlvEERKT_, %function
_ZNSt6chrono8durationIlSt5ratioILl1ELl1EEEC1IlvEERKT_:
.LFB2271:
	.cfi_startproc
	sub	sp, sp, #16
	.cfi_def_cfa_offset 16
	str	x0, [sp, 8]
	str	x1, [sp]
	ldr	x0, [sp]
	ldr	x1, [x0]
	ldr	x0, [sp, 8]
	str	x1, [x0]
	nop
	add	sp, sp, 16
	.cfi_def_cfa_offset 0
	ret
	.cfi_endproc
.LFE2271:
	.size	_ZNSt6chrono8durationIlSt5ratioILl1ELl1EEEC1IlvEERKT_, .-_ZNSt6chrono8durationIlSt5ratioILl1ELl1EEEC1IlvEERKT_
	.section	.text._ZNSt9once_flag18_Prepare_executionD2Ev,"axG",@progbits,_ZNSt9once_flag18_Prepare_executionD5Ev,comdat
	.align	2
	.weak	_ZNSt9once_flag18_Prepare_executionD2Ev
	.type	_ZNSt9once_flag18_Prepare_executionD2Ev, %function
_ZNSt9once_flag18_Prepare_executionD2Ev:
.LFB2357:
	.cfi_startproc
	sub	sp, sp, #16
	.cfi_def_cfa_offset 16
	str	x0, [sp, 8]
	mrs	x1, tpidr_el0
	adrp	x0, :gottprel:_ZSt15__once_callable
	ldr	x0, [x0, #:gottprel_lo12:_ZSt15__once_callable]
	add	x0, x1, x0
	str	xzr, [x0]
	mrs	x1, tpidr_el0
	adrp	x0, :gottprel:_ZSt11__once_call
	ldr	x0, [x0, #:gottprel_lo12:_ZSt11__once_call]
	add	x0, x1, x0
	str	xzr, [x0]
	nop
	add	sp, sp, 16
	.cfi_def_cfa_offset 0
	ret
	.cfi_endproc
.LFE2357:
	.size	_ZNSt9once_flag18_Prepare_executionD2Ev, .-_ZNSt9once_flag18_Prepare_executionD2Ev
	.weak	_ZNSt9once_flag18_Prepare_executionD1Ev
	.set	_ZNSt9once_flag18_Prepare_executionD1Ev,_ZNSt9once_flag18_Prepare_executionD2Ev
	.section	.rodata
	.align	2
	.type	_ZN9__gnu_cxxL21__default_lock_policyE, %object
	.size	_ZN9__gnu_cxxL21__default_lock_policyE, 4
_ZN9__gnu_cxxL21__default_lock_policyE:
	.word	2
	.weak	_ZZNSt19_Sp_make_shared_tag5_S_tiEvE5__tag
	.section	.rodata._ZZNSt19_Sp_make_shared_tag5_S_tiEvE5__tag,"aG",@progbits,_ZZNSt19_Sp_make_shared_tag5_S_tiEvE5__tag,comdat
	.align	3
	.type	_ZZNSt19_Sp_make_shared_tag5_S_tiEvE5__tag, %gnu_unique_object
	.size	_ZZNSt19_Sp_make_shared_tag5_S_tiEvE5__tag, 16
_ZZNSt19_Sp_make_shared_tag5_S_tiEvE5__tag:
	.zero	16
	.section	.text._ZNSt19_Sp_make_shared_tag5_S_tiEv,"axG",@progbits,_ZNSt19_Sp_make_shared_tag5_S_tiEv,comdat
	.align	2
	.weak	_ZNSt19_Sp_make_shared_tag5_S_tiEv
	.type	_ZNSt19_Sp_make_shared_tag5_S_tiEv, %function
_ZNSt19_Sp_make_shared_tag5_S_tiEv:
.LFB2547:
	.cfi_startproc
	adrp	x0, _ZZNSt19_Sp_make_shared_tag5_S_tiEvE5__tag
	add	x0, x0, :lo12:_ZZNSt19_Sp_make_shared_tag5_S_tiEvE5__tag
	ret
	.cfi_endproc
.LFE2547:
	.size	_ZNSt19_Sp_make_shared_tag5_S_tiEv, .-_ZNSt19_Sp_make_shared_tag5_S_tiEv
	.section	.text._ZStanSt12memory_orderSt23__memory_order_modifier,"axG",@progbits,_ZStanSt12memory_orderSt23__memory_order_modifier,comdat
	.align	2
	.weak	_ZStanSt12memory_orderSt23__memory_order_modifier
	.type	_ZStanSt12memory_orderSt23__memory_order_modifier, %function
_ZStanSt12memory_orderSt23__memory_order_modifier:
.LFB2786:
	.cfi_startproc
	sub	sp, sp, #16
	.cfi_def_cfa_offset 16
	str	w0, [sp, 12]
	str	w1, [sp, 8]
	ldr	w1, [sp, 12]
	ldr	w0, [sp, 8]
	and	w0, w1, w0
	add	sp, sp, 16
	.cfi_def_cfa_offset 0
	ret
	.cfi_endproc
.LFE2786:
	.size	_ZStanSt12memory_orderSt23__memory_order_modifier, .-_ZStanSt12memory_orderSt23__memory_order_modifier
	.section	.text._ZNSt11atomic_flagC2Eb,"axG",@progbits,_ZNSt11atomic_flagC5Eb,comdat
	.align	2
	.weak	_ZNSt11atomic_flagC2Eb
	.type	_ZNSt11atomic_flagC2Eb, %function
_ZNSt11atomic_flagC2Eb:
.LFB2793:
	.cfi_startproc
	stp	x29, x30, [sp, -32]!
	.cfi_def_cfa_offset 32
	.cfi_offset 29, -32
	.cfi_offset 30, -24
	mov	x29, sp
	str	x0, [sp, 24]
	strb	w1, [sp, 23]
	ldrb	w0, [sp, 23]
	bl	_ZNSt11atomic_flag7_S_initEb
	and	w1, w0, 255
	ldr	x0, [sp, 24]
	strb	w1, [x0]
	nop
	ldp	x29, x30, [sp], 32
	.cfi_restore 30
	.cfi_restore 29
	.cfi_def_cfa_offset 0
	ret
	.cfi_endproc
.LFE2793:
	.size	_ZNSt11atomic_flagC2Eb, .-_ZNSt11atomic_flagC2Eb
	.weak	_ZNSt11atomic_flagC1Eb
	.set	_ZNSt11atomic_flagC1Eb,_ZNSt11atomic_flagC2Eb
	.section	.text._ZNSt11atomic_flag7_S_initEb,"axG",@progbits,_ZNSt11atomic_flag7_S_initEb,comdat
	.align	2
	.weak	_ZNSt11atomic_flag7_S_initEb
	.type	_ZNSt11atomic_flag7_S_initEb, %function
_ZNSt11atomic_flag7_S_initEb:
.LFB2799:
	.cfi_startproc
	sub	sp, sp, #16
	.cfi_def_cfa_offset 16
	strb	w0, [sp, 15]
	ldrb	w0, [sp, 15]
	cmp	w0, 0
	beq	.L48
	mov	w0, 1
	b	.L49
.L48:
	mov	w0, 0
.L49:
	cmp	w0, 0
	cset	w0, ne
	and	w0, w0, 255
	add	sp, sp, 16
	.cfi_def_cfa_offset 0
	ret
	.cfi_endproc
.LFE2799:
	.size	_ZNSt11atomic_flag7_S_initEb, .-_ZNSt11atomic_flag7_S_initEb
	.section	.text._ZNSt6atomicIjEC2Ej,"axG",@progbits,_ZNSt6atomicIjEC5Ej,comdat
	.align	2
	.weak	_ZNSt6atomicIjEC2Ej
	.type	_ZNSt6atomicIjEC2Ej, %function
_ZNSt6atomicIjEC2Ej:
.LFB2985:
	.cfi_startproc
	stp	x29, x30, [sp, -32]!
	.cfi_def_cfa_offset 32
	.cfi_offset 29, -32
	.cfi_offset 30, -24
	mov	x29, sp
	str	x0, [sp, 24]
	str	w1, [sp, 20]
	ldr	x0, [sp, 24]
	ldr	w1, [sp, 20]
	bl	_ZNSt13__atomic_baseIjEC2Ej
	nop
	ldp	x29, x30, [sp], 32
	.cfi_restore 30
	.cfi_restore 29
	.cfi_def_cfa_offset 0
	ret
	.cfi_endproc
.LFE2985:
	.size	_ZNSt6atomicIjEC2Ej, .-_ZNSt6atomicIjEC2Ej
	.weak	_ZNSt6atomicIjEC1Ej
	.set	_ZNSt6atomicIjEC1Ej,_ZNSt6atomicIjEC2Ej
	.section	.text._ZNSt9_Any_data9_M_accessEv,"axG",@progbits,_ZNSt9_Any_data9_M_accessEv,comdat
	.align	2
	.weak	_ZNSt9_Any_data9_M_accessEv
	.type	_ZNSt9_Any_data9_M_accessEv, %function
_ZNSt9_Any_data9_M_accessEv:
.LFB3074:
	.cfi_startproc
	sub	sp, sp, #16
	.cfi_def_cfa_offset 16
	str	x0, [sp, 8]
	ldr	x0, [sp, 8]
	add	sp, sp, 16
	.cfi_def_cfa_offset 0
	ret
	.cfi_endproc
.LFE3074:
	.size	_ZNSt9_Any_data9_M_accessEv, .-_ZNSt9_Any_data9_M_accessEv
	.section	.text._ZNKSt9_Any_data9_M_accessEv,"axG",@progbits,_ZNKSt9_Any_data9_M_accessEv,comdat
	.align	2
	.weak	_ZNKSt9_Any_data9_M_accessEv
	.type	_ZNKSt9_Any_data9_M_accessEv, %function
_ZNKSt9_Any_data9_M_accessEv:
.LFB3075:
	.cfi_startproc
	sub	sp, sp, #16
	.cfi_def_cfa_offset 16
	str	x0, [sp, 8]
	ldr	x0, [sp, 8]
	add	sp, sp, 16
	.cfi_def_cfa_offset 0
	ret
	.cfi_endproc
.LFE3075:
	.size	_ZNKSt9_Any_data9_M_accessEv, .-_ZNKSt9_Any_data9_M_accessEv
	.section	.text._ZNSt14_Function_baseD2Ev,"axG",@progbits,_ZNSt14_Function_baseD5Ev,comdat
	.align	2
	.weak	_ZNSt14_Function_baseD2Ev
	.type	_ZNSt14_Function_baseD2Ev, %function
_ZNSt14_Function_baseD2Ev:
.LFB3090:
	.cfi_startproc
	.cfi_personality 0x9b,DW.ref.__gxx_personality_v0
	.cfi_lsda 0x1b,.LLSDA3090
	stp	x29, x30, [sp, -32]!
	.cfi_def_cfa_offset 32
	.cfi_offset 29, -32
	.cfi_offset 30, -24
	mov	x29, sp
	str	x0, [sp, 24]
	ldr	x0, [sp, 24]
	ldr	x0, [x0, 16]
	cmp	x0, 0
	beq	.L58
	ldr	x0, [sp, 24]
	ldr	x3, [x0, 16]
	ldr	x0, [sp, 24]
	ldr	x1, [sp, 24]
	mov	w2, 3
	blr	x3
.L58:
	nop
	ldp	x29, x30, [sp], 32
	.cfi_restore 30
	.cfi_restore 29
	.cfi_def_cfa_offset 0
	ret
	.cfi_endproc
.LFE3090:
	.global	__gxx_personality_v0
	.section	.gcc_except_table._ZNSt14_Function_baseD2Ev,"aG",@progbits,_ZNSt14_Function_baseD5Ev,comdat
.LLSDA3090:
	.byte	0xff
	.byte	0xff
	.byte	0x1
	.uleb128 .LLSDACSE3090-.LLSDACSB3090
.LLSDACSB3090:
.LLSDACSE3090:
	.section	.text._ZNSt14_Function_baseD2Ev,"axG",@progbits,_ZNSt14_Function_baseD5Ev,comdat
	.size	_ZNSt14_Function_baseD2Ev, .-_ZNSt14_Function_baseD2Ev
	.weak	_ZNSt14_Function_baseD1Ev
	.set	_ZNSt14_Function_baseD1Ev,_ZNSt14_Function_baseD2Ev
	.section	.text._ZNKSt14_Function_base8_M_emptyEv,"axG",@progbits,_ZNKSt14_Function_base8_M_emptyEv,comdat
	.align	2
	.weak	_ZNKSt14_Function_base8_M_emptyEv
	.type	_ZNKSt14_Function_base8_M_emptyEv, %function
_ZNKSt14_Function_base8_M_emptyEv:
.LFB3092:
	.cfi_startproc
	sub	sp, sp, #16
	.cfi_def_cfa_offset 16
	str	x0, [sp, 8]
	ldr	x0, [sp, 8]
	ldr	x0, [x0, 16]
	cmp	x0, 0
	cset	w0, eq
	and	w0, w0, 255
	add	sp, sp, 16
	.cfi_def_cfa_offset 0
	ret
	.cfi_endproc
.LFE3092:
	.size	_ZNKSt14_Function_base8_M_emptyEv, .-_ZNKSt14_Function_base8_M_emptyEv
	.section	.text._ZNSt6thread2idC2Ev,"axG",@progbits,_ZNSt6thread2idC5Ev,comdat
	.align	2
	.weak	_ZNSt6thread2idC2Ev
	.type	_ZNSt6thread2idC2Ev, %function
_ZNSt6thread2idC2Ev:
.LFB3121:
	.cfi_startproc
	sub	sp, sp, #16
	.cfi_def_cfa_offset 16
	str	x0, [sp, 8]
	ldr	x0, [sp, 8]
	str	xzr, [x0]
	nop
	add	sp, sp, 16
	.cfi_def_cfa_offset 0
	ret
	.cfi_endproc
.LFE3121:
	.size	_ZNSt6thread2idC2Ev, .-_ZNSt6thread2idC2Ev
	.weak	_ZNSt6thread2idC1Ev
	.set	_ZNSt6thread2idC1Ev,_ZNSt6thread2idC2Ev
	.section	.text._ZNSt6threadD2Ev,"axG",@progbits,_ZNSt6threadD5Ev,comdat
	.align	2
	.weak	_ZNSt6threadD2Ev
	.type	_ZNSt6threadD2Ev, %function
_ZNSt6threadD2Ev:
.LFB3128:
	.cfi_startproc
	stp	x29, x30, [sp, -32]!
	.cfi_def_cfa_offset 32
	.cfi_offset 29, -32
	.cfi_offset 30, -24
	mov	x29, sp
	str	x0, [sp, 24]
	ldr	x0, [sp, 24]
	bl	_ZNKSt6thread8joinableEv
	and	w0, w0, 255
	cmp	w0, 0
	beq	.L64
	bl	_ZSt9terminatev
.L64:
	nop
	ldp	x29, x30, [sp], 32
	.cfi_restore 30
	.cfi_restore 29
	.cfi_def_cfa_offset 0
	ret
	.cfi_endproc
.LFE3128:
	.size	_ZNSt6threadD2Ev, .-_ZNSt6threadD2Ev
	.weak	_ZNSt6threadD1Ev
	.set	_ZNSt6threadD1Ev,_ZNSt6threadD2Ev
	.section	.text._ZNKSt6thread8joinableEv,"axG",@progbits,_ZNKSt6thread8joinableEv,comdat
	.align	2
	.weak	_ZNKSt6thread8joinableEv
	.type	_ZNKSt6thread8joinableEv, %function
_ZNKSt6thread8joinableEv:
.LFB3136:
	.cfi_startproc
	stp	x29, x30, [sp, -48]!
	.cfi_def_cfa_offset 48
	.cfi_offset 29, -48
	.cfi_offset 30, -40
	mov	x29, sp
	str	x0, [sp, 24]
	adrp	x0, :got:__stack_chk_guard
	ldr	x0, [x0, #:got_lo12:__stack_chk_guard]
	ldr	x1, [x0]
	str	x1, [sp, 40]
	mov	x1, 0
	add	x0, sp, 32
	bl	_ZNSt6thread2idC1Ev
	ldr	x0, [sp, 24]
	ldr	x1, [sp, 32]
	ldr	x0, [x0]
	bl	_ZSteqNSt6thread2idES0_
	and	w0, w0, 255
	eor	w0, w0, 1
	and	w0, w0, 255
	mov	w1, w0
	adrp	x0, :got:__stack_chk_guard
	ldr	x0, [x0, #:got_lo12:__stack_chk_guard]
	ldr	x3, [sp, 40]
	ldr	x2, [x0]
	subs	x3, x3, x2
	mov	x2, 0
	beq	.L67
	bl	__stack_chk_fail
.L67:
	mov	w0, w1
	ldp	x29, x30, [sp], 48
	.cfi_restore 30
	.cfi_restore 29
	.cfi_def_cfa_offset 0
	ret
	.cfi_endproc
.LFE3136:
	.size	_ZNKSt6thread8joinableEv, .-_ZNKSt6thread8joinableEv
	.section	.text._ZSteqNSt6thread2idES0_,"axG",@progbits,_ZSteqNSt6thread2idES0_,comdat
	.align	2
	.weak	_ZSteqNSt6thread2idES0_
	.type	_ZSteqNSt6thread2idES0_, %function
_ZSteqNSt6thread2idES0_:
.LFB3144:
	.cfi_startproc
	sub	sp, sp, #16
	.cfi_def_cfa_offset 16
	str	x0, [sp, 8]
	str	x1, [sp]
	ldr	x1, [sp, 8]
	ldr	x0, [sp]
	cmp	x1, x0
	cset	w0, eq
	and	w0, w0, 255
	add	sp, sp, 16
	.cfi_def_cfa_offset 0
	ret
	.cfi_endproc
.LFE3144:
	.size	_ZSteqNSt6thread2idES0_, .-_ZSteqNSt6thread2idES0_
	.section	.text._ZSt15make_error_codeSt11future_errc,"axG",@progbits,_ZSt15make_error_codeSt11future_errc,comdat
	.align	2
	.weak	_ZSt15make_error_codeSt11future_errc
	.type	_ZSt15make_error_codeSt11future_errc, %function
_ZSt15make_error_codeSt11future_errc:
.LFB3148:
	.cfi_startproc
	stp	x29, x30, [sp, -64]!
	.cfi_def_cfa_offset 64
	.cfi_offset 29, -64
	.cfi_offset 30, -56
	mov	x29, sp
	str	w0, [sp, 28]
	adrp	x0, :got:__stack_chk_guard
	ldr	x0, [x0, #:got_lo12:__stack_chk_guard]
	ldr	x1, [x0]
	str	x1, [sp, 56]
	mov	x1, 0
	bl	_ZSt15future_categoryv
	mov	x1, x0
	add	x0, sp, 40
	mov	x2, x1
	ldr	w1, [sp, 28]
	bl	_ZNSt10error_codeC1EiRKNSt3_V214error_categoryE
	ldp	x0, x1, [sp, 40]
	mov	x2, x0
	mov	x3, x1
	adrp	x0, :got:__stack_chk_guard
	ldr	x0, [x0, #:got_lo12:__stack_chk_guard]
	ldr	x4, [sp, 56]
	ldr	x1, [x0]
	subs	x4, x4, x1
	mov	x1, 0
	beq	.L72
	bl	__stack_chk_fail
.L72:
	mov	x0, x2
	mov	x1, x3
	ldp	x29, x30, [sp], 64
	.cfi_restore 30
	.cfi_restore 29
	.cfi_def_cfa_offset 0
	ret
	.cfi_endproc
.LFE3148:
	.size	_ZSt15make_error_codeSt11future_errc, .-_ZSt15make_error_codeSt11future_errc
	.section	.text._ZNSt12future_errorC2ESt11future_errc,"axG",@progbits,_ZNSt12future_errorC5ESt11future_errc,comdat
	.align	2
	.weak	_ZNSt12future_errorC2ESt11future_errc
	.type	_ZNSt12future_errorC2ESt11future_errc, %function
_ZNSt12future_errorC2ESt11future_errc:
.LFB3151:
	.cfi_startproc
	stp	x29, x30, [sp, -32]!
	.cfi_def_cfa_offset 32
	.cfi_offset 29, -32
	.cfi_offset 30, -24
	mov	x29, sp
	str	x0, [sp, 24]
	str	w1, [sp, 20]
	ldr	w0, [sp, 20]
	bl	_ZSt15make_error_codeSt11future_errc
	mov	x2, x1
	mov	x1, x0
	ldr	x0, [sp, 24]
	bl	_ZNSt12future_errorC1ESt10error_code
	nop
	ldp	x29, x30, [sp], 32
	.cfi_restore 30
	.cfi_restore 29
	.cfi_def_cfa_offset 0
	ret
	.cfi_endproc
.LFE3151:
	.size	_ZNSt12future_errorC2ESt11future_errc, .-_ZNSt12future_errorC2ESt11future_errc
	.weak	_ZNSt12future_errorC1ESt11future_errc
	.set	_ZNSt12future_errorC1ESt11future_errc,_ZNSt12future_errorC2ESt11future_errc
	.section	.rodata
	.align	3
.LC0:
	.string	"std::future_error: "
	.section	.text._ZNSt12future_errorC2ESt10error_code,"axG",@progbits,_ZNSt12future_errorC5ESt10error_code,comdat
	.align	2
	.weak	_ZNSt12future_errorC2ESt10error_code
	.type	_ZNSt12future_errorC2ESt10error_code, %function
_ZNSt12future_errorC2ESt10error_code:
.LFB3155:
	.cfi_startproc
	.cfi_personality 0x9b,DW.ref.__gxx_personality_v0
	.cfi_lsda 0x1b,.LLSDA3155
	stp	x29, x30, [sp, -144]!
	.cfi_def_cfa_offset 144
	.cfi_offset 29, -144
	.cfi_offset 30, -136
	mov	x29, sp
	str	x19, [sp, 16]
	.cfi_offset 19, -128
	str	x0, [sp, 56]
	stp	x1, x2, [sp, 40]
	adrp	x0, :got:__stack_chk_guard
	ldr	x0, [x0, #:got_lo12:__stack_chk_guard]
	ldr	x1, [x0]
	str	x1, [sp, 136]
	mov	x1, 0
	ldr	x19, [sp, 56]
	add	x0, sp, 40
	add	x1, sp, 104
	mov	x8, x1
.LEHB0:
	bl	_ZNKSt10error_code7messageB5cxx11Ev
.LEHE0:
	add	x0, sp, 104
	add	x1, sp, 72
	mov	x8, x1
	mov	x1, x0
	adrp	x0, .LC0
	add	x0, x0, :lo12:.LC0
.LEHB1:
	bl	_ZStplIcSt11char_traitsIcESaIcEENSt7__cxx1112basic_stringIT_T0_T1_EEPKS5_OS8_
.LEHE1:
	add	x0, sp, 72
	mov	x1, x0
	mov	x0, x19
.LEHB2:
	bl	_ZNSt11logic_errorC2ERKNSt7__cxx1112basic_stringIcSt11char_traitsIcESaIcEEE
.LEHE2:
	add	x0, sp, 72
	bl	_ZNSt7__cxx1112basic_stringIcSt11char_traitsIcESaIcEED1Ev
	add	x0, sp, 104
	bl	_ZNSt7__cxx1112basic_stringIcSt11char_traitsIcESaIcEED1Ev
	adrp	x0, :got:_ZTVSt12future_error
	ldr	x0, [x0, #:got_lo12:_ZTVSt12future_error]
	add	x1, x0, 16
	ldr	x0, [sp, 56]
	str	x1, [x0]
	ldr	x2, [sp, 56]
	ldp	x0, x1, [sp, 40]
	stp	x0, x1, [x2, 16]
	nop
	adrp	x0, :got:__stack_chk_guard
	ldr	x0, [x0, #:got_lo12:__stack_chk_guard]
	ldr	x2, [sp, 136]
	ldr	x1, [x0]
	subs	x2, x2, x1
	mov	x1, 0
	beq	.L77
	b	.L80
.L79:
	mov	x19, x0
	add	x0, sp, 72
	bl	_ZNSt7__cxx1112basic_stringIcSt11char_traitsIcESaIcEED1Ev
	b	.L76
.L78:
	mov	x19, x0
.L76:
	add	x0, sp, 104
	bl	_ZNSt7__cxx1112basic_stringIcSt11char_traitsIcESaIcEED1Ev
	mov	x0, x19
.LEHB3:
	bl	_Unwind_Resume
.LEHE3:
.L80:
	bl	__stack_chk_fail
.L77:
	ldr	x19, [sp, 16]
	ldp	x29, x30, [sp], 144
	.cfi_restore 30
	.cfi_restore 29
	.cfi_restore 19
	.cfi_def_cfa_offset 0
	ret
	.cfi_endproc
.LFE3155:
	.section	.gcc_except_table._ZNSt12future_errorC2ESt10error_code,"aG",@progbits,_ZNSt12future_errorC5ESt10error_code,comdat
.LLSDA3155:
	.byte	0xff
	.byte	0xff
	.byte	0x1
	.uleb128 .LLSDACSE3155-.LLSDACSB3155
.LLSDACSB3155:
	.uleb128 .LEHB0-.LFB3155
	.uleb128 .LEHE0-.LEHB0
	.uleb128 0
	.uleb128 0
	.uleb128 .LEHB1-.LFB3155
	.uleb128 .LEHE1-.LEHB1
	.uleb128 .L78-.LFB3155
	.uleb128 0
	.uleb128 .LEHB2-.LFB3155
	.uleb128 .LEHE2-.LEHB2
	.uleb128 .L79-.LFB3155
	.uleb128 0
	.uleb128 .LEHB3-.LFB3155
	.uleb128 .LEHE3-.LEHB3
	.uleb128 0
	.uleb128 0
.LLSDACSE3155:
	.section	.text._ZNSt12future_errorC2ESt10error_code,"axG",@progbits,_ZNSt12future_errorC5ESt10error_code,comdat
	.size	_ZNSt12future_errorC2ESt10error_code, .-_ZNSt12future_errorC2ESt10error_code
	.weak	_ZNSt12future_errorC1ESt10error_code
	.set	_ZNSt12future_errorC1ESt10error_code,_ZNSt12future_errorC2ESt10error_code
	.section	.text._ZNKSt13__future_base12_Result_base8_DeleterclEPS0_,"axG",@progbits,_ZNKSt13__future_base12_Result_base8_DeleterclEPS0_,comdat
	.align	2
	.weak	_ZNKSt13__future_base12_Result_base8_DeleterclEPS0_
	.type	_ZNKSt13__future_base12_Result_base8_DeleterclEPS0_, %function
_ZNKSt13__future_base12_Result_base8_DeleterclEPS0_:
.LFB3172:
	.cfi_startproc
	stp	x29, x30, [sp, -32]!
	.cfi_def_cfa_offset 32
	.cfi_offset 29, -32
	.cfi_offset 30, -24
	mov	x29, sp
	str	x0, [sp, 24]
	str	x1, [sp, 16]
	ldr	x0, [sp, 16]
	ldr	x0, [x0]
	ldr	x1, [x0]
	ldr	x0, [sp, 16]
	blr	x1
	nop
	ldp	x29, x30, [sp], 32
	.cfi_restore 30
	.cfi_restore 29
	.cfi_def_cfa_offset 0
	ret
	.cfi_endproc
.LFE3172:
	.size	_ZNKSt13__future_base12_Result_base8_DeleterclEPS0_, .-_ZNKSt13__future_base12_Result_base8_DeleterclEPS0_
	.section	.text._ZNSt9once_flagC2Ev,"axG",@progbits,_ZNSt9once_flagC5Ev,comdat
	.align	2
	.weak	_ZNSt9once_flagC2Ev
	.type	_ZNSt9once_flagC2Ev, %function
_ZNSt9once_flagC2Ev:
.LFB3185:
	.cfi_startproc
	sub	sp, sp, #16
	.cfi_def_cfa_offset 16
	str	x0, [sp, 8]
	ldr	x0, [sp, 8]
	str	wzr, [x0]
	nop
	add	sp, sp, 16
	.cfi_def_cfa_offset 0
	ret
	.cfi_endproc
.LFE3185:
	.size	_ZNSt9once_flagC2Ev, .-_ZNSt9once_flagC2Ev
	.weak	_ZNSt9once_flagC1Ev
	.set	_ZNSt9once_flagC1Ev,_ZNSt9once_flagC2Ev
	.section	.text._ZNSt13__future_base13_State_baseV2C2Ev,"axG",@progbits,_ZNSt13__future_base13_State_baseV2C5Ev,comdat
	.align	2
	.weak	_ZNSt13__future_base13_State_baseV2C2Ev
	.type	_ZNSt13__future_base13_State_baseV2C2Ev, %function
_ZNSt13__future_base13_State_baseV2C2Ev:
.LFB3187:
	.cfi_startproc
	stp	x29, x30, [sp, -32]!
	.cfi_def_cfa_offset 32
	.cfi_offset 29, -32
	.cfi_offset 30, -24
	mov	x29, sp
	str	x0, [sp, 24]
	adrp	x0, _ZTVNSt13__future_base13_State_baseV2E+16
	add	x1, x0, :lo12:_ZTVNSt13__future_base13_State_baseV2E+16
	ldr	x0, [sp, 24]
	str	x1, [x0]
	ldr	x0, [sp, 24]
	add	x0, x0, 8
	bl	_ZNSt10unique_ptrINSt13__future_base12_Result_baseENS1_8_DeleterEEC1IS2_vEEv
	ldr	x0, [sp, 24]
	add	x0, x0, 16
	mov	w1, 0
	bl	_ZNSt23__atomic_futex_unsignedILj2147483648EEC1Ej
	ldr	x0, [sp, 24]
	add	x0, x0, 20
	mov	w1, 0
	bl	_ZNSt11atomic_flagC1Eb
	ldr	x0, [sp, 24]
	add	x0, x0, 24
	bl	_ZNSt9once_flagC1Ev
	nop
	ldp	x29, x30, [sp], 32
	.cfi_restore 30
	.cfi_restore 29
	.cfi_def_cfa_offset 0
	ret
	.cfi_endproc
.LFE3187:
	.size	_ZNSt13__future_base13_State_baseV2C2Ev, .-_ZNSt13__future_base13_State_baseV2C2Ev
	.weak	_ZNSt13__future_base13_State_baseV2C1Ev
	.set	_ZNSt13__future_base13_State_baseV2C1Ev,_ZNSt13__future_base13_State_baseV2C2Ev
	.section	.text._ZNSt13__future_base13_State_baseV24waitEv,"axG",@progbits,_ZNSt13__future_base13_State_baseV24waitEv,comdat
	.align	2
	.weak	_ZNSt13__future_base13_State_baseV24waitEv
	.type	_ZNSt13__future_base13_State_baseV24waitEv, %function
_ZNSt13__future_base13_State_baseV24waitEv:
.LFB3189:
	.cfi_startproc
	stp	x29, x30, [sp, -80]!
	.cfi_def_cfa_offset 80
	.cfi_offset 29, -80
	.cfi_offset 30, -72
	mov	x29, sp
	str	x0, [sp, 24]
	ldr	x0, [sp, 24]
	ldr	x0, [x0]
	add	x0, x0, 16
	ldr	x1, [x0]
	ldr	x0, [sp, 24]
	blr	x1
	ldr	x0, [sp, 24]
	add	x0, x0, 16
	str	x0, [sp, 56]
	mov	w0, 1
	str	w0, [sp, 32]
	mov	w0, 2
	str	w0, [sp, 36]
	ldr	x0, [sp, 56]
	str	x0, [sp, 64]
	ldr	w0, [sp, 36]
	str	w0, [sp, 40]
	ldr	x0, [sp, 64]
	str	x0, [sp, 72]
	ldr	w0, [sp, 40]
	str	w0, [sp, 44]
	mov	w1, 65535
	ldr	w0, [sp, 44]
	bl	_ZStanSt12memory_orderSt23__memory_order_modifier
	str	w0, [sp, 48]
	ldr	x0, [sp, 72]
	ldar	w0, [x0]
	nop
	and	w0, w0, 2147483647
	str	w0, [sp, 52]
	ldr	w0, [sp, 52]
	and	w0, w0, 2147483647
	ldr	w1, [sp, 32]
	cmp	w1, w0
	beq	.L90
	ldr	w4, [sp, 36]
	mov	w3, 1
	ldr	w2, [sp, 32]
	ldr	w1, [sp, 52]
	ldr	x0, [sp, 56]
	bl	_ZNSt23__atomic_futex_unsignedILj2147483648EE16_M_load_and_testEjjbSt12memory_order
	b	.L88
.L90:
	nop
.L88:
	ldr	x0, [sp, 24]
	add	x0, x0, 8
	bl	_ZNKSt10unique_ptrINSt13__future_base12_Result_baseENS1_8_DeleterEEdeEv
	ldp	x29, x30, [sp], 80
	.cfi_restore 30
	.cfi_restore 29
	.cfi_def_cfa_offset 0
	ret
	.cfi_endproc
.LFE3189:
	.size	_ZNSt13__future_base13_State_baseV24waitEv, .-_ZNSt13__future_base13_State_baseV24waitEv
	.global	__aarch64_swp4_acq_rel
	.section	.text._ZNSt13__future_base13_State_baseV213_M_set_resultESt8functionIFSt10unique_ptrINS_12_Result_baseENS3_8_DeleterEEvEEb,"axG",@progbits,_ZNSt13__future_base13_State_baseV213_M_set_resultESt8functionIFSt10unique_ptrINS_12_Result_baseENS3_8_DeleterEEvEEb,comdat
	.align	2
	.weak	_ZNSt13__future_base13_State_baseV213_M_set_resultESt8functionIFSt10unique_ptrINS_12_Result_baseENS3_8_DeleterEEvEEb
	.type	_ZNSt13__future_base13_State_baseV213_M_set_resultESt8functionIFSt10unique_ptrINS_12_Result_baseENS3_8_DeleterEEvEEb, %function
_ZNSt13__future_base13_State_baseV213_M_set_resultESt8functionIFSt10unique_ptrINS_12_Result_baseENS3_8_DeleterEEvEEb:
.LFB3192:
	.cfi_startproc
	stp	x29, x30, [sp, -160]!
	.cfi_def_cfa_offset 160
	.cfi_offset 29, -160
	.cfi_offset 30, -152
	mov	x29, sp
	str	x19, [sp, 16]
	.cfi_offset 19, -144
	str	x0, [sp, 56]
	str	x1, [sp, 48]
	strb	w2, [sp, 47]
	adrp	x0, :got:__stack_chk_guard
	ldr	x0, [x0, #:got_lo12:__stack_chk_guard]
	ldr	x1, [x0]
	str	x1, [sp, 152]
	mov	x1, 0
	strb	wzr, [sp, 71]
	ldr	x0, [sp, 56]
	add	x19, x0, 24
	adrp	x0, _ZNSt13__future_base13_State_baseV29_M_do_setEPSt8functionIFSt10unique_ptrINS_12_Result_baseENS3_8_DeleterEEvEEPb
	add	x4, x0, :lo12:_ZNSt13__future_base13_State_baseV29_M_do_setEPSt8functionIFSt10unique_ptrINS_12_Result_baseENS3_8_DeleterEEvEEPb
	mov	x5, 0
	stp	x4, x5, [sp, 136]
	ldr	x0, [sp, 56]
	str	x0, [sp, 88]
	ldr	x0, [sp, 48]
	bl	_ZSt11__addressofISt8functionIFSt10unique_ptrINSt13__future_base12_Result_baseENS3_8_DeleterEEvEEEPT_RS8_
	str	x0, [sp, 96]
	add	x0, sp, 71
	bl	_ZSt11__addressofIbEPT_RS0_
	str	x0, [sp, 104]
	add	x3, sp, 104
	add	x2, sp, 96
	add	x1, sp, 88
	add	x0, sp, 136
	mov	x4, x3
	mov	x3, x2
	mov	x2, x1
	mov	x1, x0
	mov	x0, x19
	bl	_ZSt9call_onceIMNSt13__future_base13_State_baseV2EFvPSt8functionIFSt10unique_ptrINS0_12_Result_baseENS4_8_DeleterEEvEEPbEJPS1_S9_SA_EEvRSt9once_flagOT_DpOT0_
	ldrb	w0, [sp, 71]
	cmp	w0, 0
	beq	.L92
	ldr	x0, [sp, 56]
	add	x0, x0, 16
	str	x0, [sp, 112]
	mov	w0, 1
	str	w0, [sp, 72]
	mov	w0, 3
	str	w0, [sp, 76]
	ldr	x0, [sp, 112]
	str	x0, [sp, 120]
	ldr	x0, [sp, 112]
	str	x0, [sp, 128]
	ldr	w0, [sp, 72]
	str	w0, [sp, 80]
	ldr	w0, [sp, 76]
	str	w0, [sp, 84]
	ldr	x1, [sp, 128]
	ldr	w0, [sp, 80]
	bl	__aarch64_swp4_acq_rel
	nop
	lsr	w0, w0, 31
	and	w0, w0, 255
	cmp	w0, 0
	beq	.L97
	ldr	x0, [sp, 120]
	bl	_ZNSt28__atomic_futex_unsigned_base19_M_futex_notify_allEPj
	b	.L97
.L92:
	ldrb	w0, [sp, 47]
	eor	w0, w0, 1
	and	w0, w0, 255
	cmp	w0, 0
	beq	.L98
	mov	w0, 2
	bl	_ZSt20__throw_future_errori
.L97:
	nop
.L98:
	nop
	adrp	x0, :got:__stack_chk_guard
	ldr	x0, [x0, #:got_lo12:__stack_chk_guard]
	ldr	x2, [sp, 152]
	ldr	x1, [x0]
	subs	x2, x2, x1
	mov	x1, 0
	beq	.L96
	bl	__stack_chk_fail
.L96:
	ldr	x19, [sp, 16]
	ldp	x29, x30, [sp], 160
	.cfi_restore 30
	.cfi_restore 29
	.cfi_restore 19
	.cfi_def_cfa_offset 0
	ret
	.cfi_endproc
.LFE3192:
	.size	_ZNSt13__future_base13_State_baseV213_M_set_resultESt8functionIFSt10unique_ptrINS_12_Result_baseENS3_8_DeleterEEvEEb, .-_ZNSt13__future_base13_State_baseV213_M_set_resultESt8functionIFSt10unique_ptrINS_12_Result_baseENS3_8_DeleterEEvEEb
	.section	.text._ZNSt13__future_base13_State_baseV216_M_break_promiseESt10unique_ptrINS_12_Result_baseENS2_8_DeleterEE,"axG",@progbits,_ZNSt13__future_base13_State_baseV216_M_break_promiseESt10unique_ptrINS_12_Result_baseENS2_8_DeleterEE,comdat
	.align	2
	.weak	_ZNSt13__future_base13_State_baseV216_M_break_promiseESt10unique_ptrINS_12_Result_baseENS2_8_DeleterEE
	.type	_ZNSt13__future_base13_State_baseV216_M_break_promiseESt10unique_ptrINS_12_Result_baseENS2_8_DeleterEE, %function
_ZNSt13__future_base13_State_baseV216_M_break_promiseESt10unique_ptrINS_12_Result_baseENS2_8_DeleterEE:
.LFB3215:
	.cfi_startproc
	stp	x29, x30, [sp, -128]!
	.cfi_def_cfa_offset 128
	.cfi_offset 29, -128
	.cfi_offset 30, -120
	mov	x29, sp
	str	x0, [sp, 24]
	str	x1, [sp, 16]
	adrp	x0, :got:__stack_chk_guard
	ldr	x0, [x0, #:got_lo12:__stack_chk_guard]
	ldr	x1, [x0]
	str	x1, [sp, 120]
	mov	x1, 0
	ldr	x0, [sp, 16]
	bl	_ZNKSt10unique_ptrINSt13__future_base12_Result_baseENS1_8_DeleterEEcvbEv
	and	w0, w0, 255
	cmp	w0, 0
	beq	.L104
	add	x0, sp, 88
	mov	w1, 4
	bl	_ZNSt12future_errorC1ESt11future_errc
	add	x0, sp, 88
	add	x1, sp, 56
	mov	x8, x1
	bl	_ZSt18make_exception_ptrISt12future_errorENSt15__exception_ptr13exception_ptrET_
	ldr	x0, [sp, 16]
	bl	_ZNKSt10unique_ptrINSt13__future_base12_Result_baseENS1_8_DeleterEEptEv
	add	x0, x0, 8
	add	x1, sp, 56
	bl	_ZNSt15__exception_ptr13exception_ptraSEOS0_
	add	x0, sp, 56
	bl	_ZNSt15__exception_ptr13exception_ptrD1Ev
	add	x0, sp, 88
	bl	_ZNSt12future_errorD1Ev
	ldr	x0, [sp, 24]
	add	x0, x0, 8
	ldr	x1, [sp, 16]
	bl	_ZNSt10unique_ptrINSt13__future_base12_Result_baseENS1_8_DeleterEE4swapERS3_
	ldr	x0, [sp, 24]
	add	x0, x0, 16
	str	x0, [sp, 64]
	mov	w0, 1
	str	w0, [sp, 40]
	mov	w0, 3
	str	w0, [sp, 44]
	ldr	x0, [sp, 64]
	str	x0, [sp, 72]
	ldr	x0, [sp, 64]
	str	x0, [sp, 80]
	ldr	w0, [sp, 40]
	str	w0, [sp, 48]
	ldr	w0, [sp, 44]
	str	w0, [sp, 52]
	ldr	x1, [sp, 80]
	ldr	w0, [sp, 48]
	bl	__aarch64_swp4_acq_rel
	nop
	lsr	w0, w0, 31
	and	w0, w0, 255
	cmp	w0, 0
	beq	.L105
	ldr	x0, [sp, 72]
	bl	_ZNSt28__atomic_futex_unsigned_base19_M_futex_notify_allEPj
.L105:
	nop
.L104:
	nop
	adrp	x0, :got:__stack_chk_guard
	ldr	x0, [x0, #:got_lo12:__stack_chk_guard]
	ldr	x2, [sp, 120]
	ldr	x1, [x0]
	subs	x2, x2, x1
	mov	x1, 0
	beq	.L103
	bl	__stack_chk_fail
.L103:
	ldp	x29, x30, [sp], 128
	.cfi_restore 30
	.cfi_restore 29
	.cfi_def_cfa_offset 0
	ret
	.cfi_endproc
.LFE3215:
	.size	_ZNSt13__future_base13_State_baseV216_M_break_promiseESt10unique_ptrINS_12_Result_baseENS2_8_DeleterEE, .-_ZNSt13__future_base13_State_baseV216_M_break_promiseESt10unique_ptrINS_12_Result_baseENS2_8_DeleterEE
	.global	__aarch64_swp1_acq_rel
	.section	.text._ZNSt13__future_base13_State_baseV221_M_set_retrieved_flagEv,"axG",@progbits,_ZNSt13__future_base13_State_baseV221_M_set_retrieved_flagEv,comdat
	.align	2
	.weak	_ZNSt13__future_base13_State_baseV221_M_set_retrieved_flagEv
	.type	_ZNSt13__future_base13_State_baseV221_M_set_retrieved_flagEv, %function
_ZNSt13__future_base13_State_baseV221_M_set_retrieved_flagEv:
.LFB3216:
	.cfi_startproc
	stp	x29, x30, [sp, -48]!
	.cfi_def_cfa_offset 48
	.cfi_offset 29, -48
	.cfi_offset 30, -40
	mov	x29, sp
	str	x0, [sp, 24]
	ldr	x0, [sp, 24]
	add	x0, x0, 20
	str	x0, [sp, 40]
	mov	w0, 5
	str	w0, [sp, 36]
	ldr	x1, [sp, 40]
	mov	w0, 1
	bl	__aarch64_swp1_acq_rel
	and	w0, w0, 255
	nop
	cmp	w0, 0
	beq	.L109
	mov	w0, 1
	bl	_ZSt20__throw_future_errori
.L109:
	nop
	ldp	x29, x30, [sp], 48
	.cfi_restore 30
	.cfi_restore 29
	.cfi_def_cfa_offset 0
	ret
	.cfi_endproc
.LFE3216:
	.size	_ZNSt13__future_base13_State_baseV221_M_set_retrieved_flagEv, .-_ZNSt13__future_base13_State_baseV221_M_set_retrieved_flagEv
	.section	.text._ZNSt13__future_base13_State_baseV29_M_do_setEPSt8functionIFSt10unique_ptrINS_12_Result_baseENS3_8_DeleterEEvEEPb,"axG",@progbits,_ZNSt13__future_base13_State_baseV29_M_do_setEPSt8functionIFSt10unique_ptrINS_12_Result_baseENS3_8_DeleterEEvEEPb,comdat
	.align	2
	.weak	_ZNSt13__future_base13_State_baseV29_M_do_setEPSt8functionIFSt10unique_ptrINS_12_Result_baseENS3_8_DeleterEEvEEPb
	.type	_ZNSt13__future_base13_State_baseV29_M_do_setEPSt8functionIFSt10unique_ptrINS_12_Result_baseENS3_8_DeleterEEvEEPb, %function
_ZNSt13__future_base13_State_baseV29_M_do_setEPSt8functionIFSt10unique_ptrINS_12_Result_baseENS3_8_DeleterEEvEEPb:
.LFB3225:
	.cfi_startproc
	stp	x29, x30, [sp, -64]!
	.cfi_def_cfa_offset 64
	.cfi_offset 29, -64
	.cfi_offset 30, -56
	mov	x29, sp
	str	x0, [sp, 40]
	str	x1, [sp, 32]
	str	x2, [sp, 24]
	adrp	x0, :got:__stack_chk_guard
	ldr	x0, [x0, #:got_lo12:__stack_chk_guard]
	ldr	x1, [x0]
	str	x1, [sp, 56]
	mov	x1, 0
	add	x0, sp, 48
	mov	x8, x0
	ldr	x0, [sp, 32]
	bl	_ZNKSt8functionIFSt10unique_ptrINSt13__future_base12_Result_baseENS2_8_DeleterEEvEEclEv
	ldr	x0, [sp, 24]
	mov	w1, 1
	strb	w1, [x0]
	ldr	x0, [sp, 40]
	add	x0, x0, 8
	add	x1, sp, 48
	bl	_ZNSt10unique_ptrINSt13__future_base12_Result_baseENS1_8_DeleterEE4swapERS3_
	add	x0, sp, 48
	bl	_ZNSt10unique_ptrINSt13__future_base12_Result_baseENS1_8_DeleterEED1Ev
	adrp	x0, :got:__stack_chk_guard
	ldr	x0, [x0, #:got_lo12:__stack_chk_guard]
	ldr	x2, [sp, 56]
	ldr	x1, [x0]
	subs	x2, x2, x1
	mov	x1, 0
	beq	.L111
	bl	__stack_chk_fail
.L111:
	ldp	x29, x30, [sp], 64
	.cfi_restore 30
	.cfi_restore 29
	.cfi_def_cfa_offset 0
	ret
	.cfi_endproc
.LFE3225:
	.size	_ZNSt13__future_base13_State_baseV29_M_do_setEPSt8functionIFSt10unique_ptrINS_12_Result_baseENS3_8_DeleterEEvEEPb, .-_ZNSt13__future_base13_State_baseV29_M_do_setEPSt8functionIFSt10unique_ptrINS_12_Result_baseENS3_8_DeleterEEvEEPb
	.section	.text._ZNSt13__future_base13_State_baseV217_M_complete_asyncEv,"axG",@progbits,_ZNSt13__future_base13_State_baseV217_M_complete_asyncEv,comdat
	.align	2
	.weak	_ZNSt13__future_base13_State_baseV217_M_complete_asyncEv
	.type	_ZNSt13__future_base13_State_baseV217_M_complete_asyncEv, %function
_ZNSt13__future_base13_State_baseV217_M_complete_asyncEv:
.LFB3226:
	.cfi_startproc
	sub	sp, sp, #16
	.cfi_def_cfa_offset 16
	str	x0, [sp, 8]
	nop
	add	sp, sp, 16
	.cfi_def_cfa_offset 0
	ret
	.cfi_endproc
.LFE3226:
	.size	_ZNSt13__future_base13_State_baseV217_M_complete_asyncEv, .-_ZNSt13__future_base13_State_baseV217_M_complete_asyncEv
	.section	.text._ZNKSt13__future_base13_State_baseV221_M_is_deferred_futureEv,"axG",@progbits,_ZNKSt13__future_base13_State_baseV221_M_is_deferred_futureEv,comdat
	.align	2
	.weak	_ZNKSt13__future_base13_State_baseV221_M_is_deferred_futureEv
	.type	_ZNKSt13__future_base13_State_baseV221_M_is_deferred_futureEv, %function
_ZNKSt13__future_base13_State_baseV221_M_is_deferred_futureEv:
.LFB3227:
	.cfi_startproc
	sub	sp, sp, #16
	.cfi_def_cfa_offset 16
	str	x0, [sp, 8]
	mov	w0, 0
	add	sp, sp, 16
	.cfi_def_cfa_offset 0
	ret
	.cfi_endproc
.LFE3227:
	.size	_ZNKSt13__future_base13_State_baseV221_M_is_deferred_futureEv, .-_ZNKSt13__future_base13_State_baseV221_M_is_deferred_futureEv
	.section	.text._ZNSt12__shared_ptrINSt13__future_base13_State_baseV2ELN9__gnu_cxx12_Lock_policyE2EED2Ev,"axG",@progbits,_ZNSt12__shared_ptrINSt13__future_base13_State_baseV2ELN9__gnu_cxx12_Lock_policyE2EED5Ev,comdat
	.align	2
	.weak	_ZNSt12__shared_ptrINSt13__future_base13_State_baseV2ELN9__gnu_cxx12_Lock_policyE2EED2Ev
	.type	_ZNSt12__shared_ptrINSt13__future_base13_State_baseV2ELN9__gnu_cxx12_Lock_policyE2EED2Ev, %function
_ZNSt12__shared_ptrINSt13__future_base13_State_baseV2ELN9__gnu_cxx12_Lock_policyE2EED2Ev:
.LFB3258:
	.cfi_startproc
	stp	x29, x30, [sp, -32]!
	.cfi_def_cfa_offset 32
	.cfi_offset 29, -32
	.cfi_offset 30, -24
	mov	x29, sp
	str	x0, [sp, 24]
	ldr	x0, [sp, 24]
	add	x0, x0, 8
	bl	_ZNSt14__shared_countILN9__gnu_cxx12_Lock_policyE2EED1Ev
	nop
	ldp	x29, x30, [sp], 32
	.cfi_restore 30
	.cfi_restore 29
	.cfi_def_cfa_offset 0
	ret
	.cfi_endproc
.LFE3258:
	.size	_ZNSt12__shared_ptrINSt13__future_base13_State_baseV2ELN9__gnu_cxx12_Lock_policyE2EED2Ev, .-_ZNSt12__shared_ptrINSt13__future_base13_State_baseV2ELN9__gnu_cxx12_Lock_policyE2EED2Ev
	.weak	_ZNSt12__shared_ptrINSt13__future_base13_State_baseV2ELN9__gnu_cxx12_Lock_policyE2EED1Ev
	.set	_ZNSt12__shared_ptrINSt13__future_base13_State_baseV2ELN9__gnu_cxx12_Lock_policyE2EED1Ev,_ZNSt12__shared_ptrINSt13__future_base13_State_baseV2ELN9__gnu_cxx12_Lock_policyE2EED2Ev
	.section	.text._ZNSt10shared_ptrINSt13__future_base13_State_baseV2EED2Ev,"axG",@progbits,_ZNSt10shared_ptrINSt13__future_base13_State_baseV2EED5Ev,comdat
	.align	2
	.weak	_ZNSt10shared_ptrINSt13__future_base13_State_baseV2EED2Ev
	.type	_ZNSt10shared_ptrINSt13__future_base13_State_baseV2EED2Ev, %function
_ZNSt10shared_ptrINSt13__future_base13_State_baseV2EED2Ev:
.LFB3260:
	.cfi_startproc
	stp	x29, x30, [sp, -32]!
	.cfi_def_cfa_offset 32
	.cfi_offset 29, -32
	.cfi_offset 30, -24
	mov	x29, sp
	str	x0, [sp, 24]
	ldr	x0, [sp, 24]
	bl	_ZNSt12__shared_ptrINSt13__future_base13_State_baseV2ELN9__gnu_cxx12_Lock_policyE2EED2Ev
	nop
	ldp	x29, x30, [sp], 32
	.cfi_restore 30
	.cfi_restore 29
	.cfi_def_cfa_offset 0
	ret
	.cfi_endproc
.LFE3260:
	.size	_ZNSt10shared_ptrINSt13__future_base13_State_baseV2EED2Ev, .-_ZNSt10shared_ptrINSt13__future_base13_State_baseV2EED2Ev
	.weak	_ZNSt10shared_ptrINSt13__future_base13_State_baseV2EED1Ev
	.set	_ZNSt10shared_ptrINSt13__future_base13_State_baseV2EED1Ev,_ZNSt10shared_ptrINSt13__future_base13_State_baseV2EED2Ev
	.section	.text._ZNSt8functionIFSt10unique_ptrINSt13__future_base12_Result_baseENS2_8_DeleterEEvEED2Ev,"axG",@progbits,_ZNSt8functionIFSt10unique_ptrINSt13__future_base12_Result_baseENS2_8_DeleterEEvEED5Ev,comdat
	.align	2
	.weak	_ZNSt8functionIFSt10unique_ptrINSt13__future_base12_Result_baseENS2_8_DeleterEEvEED2Ev
	.type	_ZNSt8functionIFSt10unique_ptrINSt13__future_base12_Result_baseENS2_8_DeleterEEvEED2Ev, %function
_ZNSt8functionIFSt10unique_ptrINSt13__future_base12_Result_baseENS2_8_DeleterEEvEED2Ev:
.LFB3377:
	.cfi_startproc
	stp	x29, x30, [sp, -32]!
	.cfi_def_cfa_offset 32
	.cfi_offset 29, -32
	.cfi_offset 30, -24
	mov	x29, sp
	str	x0, [sp, 24]
	ldr	x0, [sp, 24]
	bl	_ZNSt14_Function_baseD2Ev
	nop
	ldp	x29, x30, [sp], 32
	.cfi_restore 30
	.cfi_restore 29
	.cfi_def_cfa_offset 0
	ret
	.cfi_endproc
.LFE3377:
	.size	_ZNSt8functionIFSt10unique_ptrINSt13__future_base12_Result_baseENS2_8_DeleterEEvEED2Ev, .-_ZNSt8functionIFSt10unique_ptrINSt13__future_base12_Result_baseENS2_8_DeleterEEvEED2Ev
	.weak	_ZNSt8functionIFSt10unique_ptrINSt13__future_base12_Result_baseENS2_8_DeleterEEvEED1Ev
	.set	_ZNSt8functionIFSt10unique_ptrINSt13__future_base12_Result_baseENS2_8_DeleterEEvEED1Ev,_ZNSt8functionIFSt10unique_ptrINSt13__future_base12_Result_baseENS2_8_DeleterEEvEED2Ev
	.text
	.align	2
	.global	_Z4workOSt7promiseIiE
	.type	_Z4workOSt7promiseIiE, %function
_Z4workOSt7promiseIiE:
.LFB3427:
	.cfi_startproc
	stp	x29, x30, [sp, -48]!
	.cfi_def_cfa_offset 48
	.cfi_offset 29, -48
	.cfi_offset 30, -40
	mov	x29, sp
	str	x0, [sp, 24]
	adrp	x0, :got:__stack_chk_guard
	ldr	x0, [x0, #:got_lo12:__stack_chk_guard]
	ldr	x1, [x0]
	str	x1, [sp, 40]
	mov	x1, 0
	bl	_ZNSt8literals15chrono_literalsli1sIJLc49ELc48EEEENSt6chrono8durationIlSt5ratioILl1ELl1EEEEv
	str	x0, [sp, 32]
	add	x0, sp, 32
	bl	_ZNSt11this_thread9sleep_forIlSt5ratioILl1ELl1EEEEvRKNSt6chrono8durationIT_T0_EE
	mov	w0, 2
	str	w0, [sp, 32]
	add	x0, sp, 32
	mov	x1, x0
	ldr	x0, [sp, 24]
	bl	_ZNSt7promiseIiE9set_valueEOi
	nop
	adrp	x0, :got:__stack_chk_guard
	ldr	x0, [x0, #:got_lo12:__stack_chk_guard]
	ldr	x2, [sp, 40]
	ldr	x1, [x0]
	subs	x2, x2, x1
	mov	x1, 0
	beq	.L119
	bl	__stack_chk_fail
.L119:
	ldp	x29, x30, [sp], 48
	.cfi_restore 30
	.cfi_restore 29
	.cfi_def_cfa_offset 0
	ret
	.cfi_endproc
.LFE3427:
	.size	_Z4workOSt7promiseIiE, .-_Z4workOSt7promiseIiE
	.section	.text._ZNSt14__basic_futureIiED2Ev,"axG",@progbits,_ZNSt14__basic_futureIiED5Ev,comdat
	.align	2
	.weak	_ZNSt14__basic_futureIiED2Ev
	.type	_ZNSt14__basic_futureIiED2Ev, %function
_ZNSt14__basic_futureIiED2Ev:
.LFB3439:
	.cfi_startproc
	stp	x29, x30, [sp, -32]!
	.cfi_def_cfa_offset 32
	.cfi_offset 29, -32
	.cfi_offset 30, -24
	mov	x29, sp
	str	x0, [sp, 24]
	ldr	x0, [sp, 24]
	bl	_ZNSt10shared_ptrINSt13__future_base13_State_baseV2EED1Ev
	nop
	ldp	x29, x30, [sp], 32
	.cfi_restore 30
	.cfi_restore 29
	.cfi_def_cfa_offset 0
	ret
	.cfi_endproc
.LFE3439:
	.size	_ZNSt14__basic_futureIiED2Ev, .-_ZNSt14__basic_futureIiED2Ev
	.weak	_ZNSt14__basic_futureIiED1Ev
	.set	_ZNSt14__basic_futureIiED1Ev,_ZNSt14__basic_futureIiED2Ev
	.section	.text._ZNSt6futureIiED2Ev,"axG",@progbits,_ZNSt6futureIiED5Ev,comdat
	.align	2
	.weak	_ZNSt6futureIiED2Ev
	.type	_ZNSt6futureIiED2Ev, %function
_ZNSt6futureIiED2Ev:
.LFB3441:
	.cfi_startproc
	stp	x29, x30, [sp, -32]!
	.cfi_def_cfa_offset 32
	.cfi_offset 29, -32
	.cfi_offset 30, -24
	mov	x29, sp
	str	x0, [sp, 24]
	ldr	x0, [sp, 24]
	bl	_ZNSt14__basic_futureIiED2Ev
	nop
	ldp	x29, x30, [sp], 32
	.cfi_restore 30
	.cfi_restore 29
	.cfi_def_cfa_offset 0
	ret
	.cfi_endproc
.LFE3441:
	.size	_ZNSt6futureIiED2Ev, .-_ZNSt6futureIiED2Ev
	.weak	_ZNSt6futureIiED1Ev
	.set	_ZNSt6futureIiED1Ev,_ZNSt6futureIiED2Ev
	.text
	.align	2
	.global	main
	.type	main, %function
main:
.LFB3436:
	.cfi_startproc
	.cfi_personality 0x9b,DW.ref.__gxx_personality_v0
	.cfi_lsda 0x1b,.LLSDA3436
	stp	x29, x30, [sp, -112]!
	.cfi_def_cfa_offset 112
	.cfi_offset 29, -112
	.cfi_offset 30, -104
	mov	x29, sp
	str	x19, [sp, 16]
	.cfi_offset 19, -96
	str	w0, [sp, 44]
	str	x1, [sp, 32]
	adrp	x0, :got:__stack_chk_guard
	ldr	x0, [x0, #:got_lo12:__stack_chk_guard]
	ldr	x1, [x0]
	str	x1, [sp, 104]
	mov	x1, 0
	add	x0, sp, 80
.LEHB4:
	bl	_ZNSt7promiseIiEC1Ev
.LEHE4:
	add	x0, sp, 80
	add	x1, sp, 64
	mov	x8, x1
.LEHB5:
	bl	_ZNSt7promiseIiE10get_futureEv
.LEHE5:
	add	x0, sp, 80
	bl	_ZSt4moveIRSt7promiseIiEEONSt16remove_referenceIT_E4typeEOS4_
	add	x3, sp, 56
	mov	x2, x0
	adrp	x0, _Z4workOSt7promiseIiE
	add	x1, x0, :lo12:_Z4workOSt7promiseIiE
	mov	x0, x3
.LEHB6:
	bl	_ZNSt6threadC1IRFvOSt7promiseIiEEJS2_EvEEOT_DpOT0_
.LEHE6:
	add	x0, sp, 56
.LEHB7:
	bl	_ZNSt6thread6detachEv
	add	x0, sp, 64
	bl	_ZNSt6futureIiE3getEv
	mov	w1, w0
	adrp	x0, :got:_ZSt4cout
	ldr	x0, [x0, #:got_lo12:_ZSt4cout]
	bl	_ZNSolsEi
	mov	x2, x0
	adrp	x0, :got:_ZSt4endlIcSt11char_traitsIcEERSt13basic_ostreamIT_T0_ES6_
	ldr	x1, [x0, #:got_lo12:_ZSt4endlIcSt11char_traitsIcEERSt13basic_ostreamIT_T0_ES6_]
	mov	x0, x2
	bl	_ZNSolsEPFRSoS_E
.LEHE7:
	mov	w19, 0
	add	x0, sp, 56
	bl	_ZNSt6threadD1Ev
	add	x0, sp, 64
	bl	_ZNSt6futureIiED1Ev
	add	x0, sp, 80
	bl	_ZNSt7promiseIiED1Ev
	mov	w1, w19
	adrp	x0, :got:__stack_chk_guard
	ldr	x0, [x0, #:got_lo12:__stack_chk_guard]
	ldr	x3, [sp, 104]
	ldr	x2, [x0]
	subs	x3, x3, x2
	mov	x2, 0
	beq	.L127
	b	.L131
.L130:
	mov	x19, x0
	add	x0, sp, 56
	bl	_ZNSt6threadD1Ev
	b	.L125
.L129:
	mov	x19, x0
.L125:
	add	x0, sp, 64
	bl	_ZNSt6futureIiED1Ev
	b	.L126
.L128:
	mov	x19, x0
.L126:
	add	x0, sp, 80
	bl	_ZNSt7promiseIiED1Ev
	mov	x0, x19
.LEHB8:
	bl	_Unwind_Resume
.LEHE8:
.L131:
	bl	__stack_chk_fail
.L127:
	mov	w0, w1
	ldr	x19, [sp, 16]
	ldp	x29, x30, [sp], 112
	.cfi_restore 30
	.cfi_restore 29
	.cfi_restore 19
	.cfi_def_cfa_offset 0
	ret
	.cfi_endproc
.LFE3436:
	.section	.gcc_except_table,"a",@progbits
.LLSDA3436:
	.byte	0xff
	.byte	0xff
	.byte	0x1
	.uleb128 .LLSDACSE3436-.LLSDACSB3436
.LLSDACSB3436:
	.uleb128 .LEHB4-.LFB3436
	.uleb128 .LEHE4-.LEHB4
	.uleb128 0
	.uleb128 0
	.uleb128 .LEHB5-.LFB3436
	.uleb128 .LEHE5-.LEHB5
	.uleb128 .L128-.LFB3436
	.uleb128 0
	.uleb128 .LEHB6-.LFB3436
	.uleb128 .LEHE6-.LEHB6
	.uleb128 .L129-.LFB3436
	.uleb128 0
	.uleb128 .LEHB7-.LFB3436
	.uleb128 .LEHE7-.LEHB7
	.uleb128 .L130-.LFB3436
	.uleb128 0
	.uleb128 .LEHB8-.LFB3436
	.uleb128 .LEHE8-.LEHB8
	.uleb128 0
	.uleb128 0
.LLSDACSE3436:
	.text
	.size	main, .-main
	.section	.text._ZStplIcSt11char_traitsIcESaIcEENSt7__cxx1112basic_stringIT_T0_T1_EEPKS5_OS8_,"axG",@progbits,_ZStplIcSt11char_traitsIcESaIcEENSt7__cxx1112basic_stringIT_T0_T1_EEPKS5_OS8_,comdat
	.align	2
	.weak	_ZStplIcSt11char_traitsIcESaIcEENSt7__cxx1112basic_stringIT_T0_T1_EEPKS5_OS8_
	.type	_ZStplIcSt11char_traitsIcESaIcEENSt7__cxx1112basic_stringIT_T0_T1_EEPKS5_OS8_, %function
_ZStplIcSt11char_traitsIcESaIcEENSt7__cxx1112basic_stringIT_T0_T1_EEPKS5_OS8_:
.LFB3700:
	.cfi_startproc
	stp	x29, x30, [sp, -48]!
	.cfi_def_cfa_offset 48
	.cfi_offset 29, -48
	.cfi_offset 30, -40
	mov	x29, sp
	str	x19, [sp, 16]
	.cfi_offset 19, -32
	mov	x19, x8
	str	x0, [sp, 40]
	str	x1, [sp, 32]
	ldr	x2, [sp, 40]
	mov	x1, 0
	ldr	x0, [sp, 32]
	bl	_ZNSt7__cxx1112basic_stringIcSt11char_traitsIcESaIcEE6insertEmPKc
	bl	_ZSt4moveIRNSt7__cxx1112basic_stringIcSt11char_traitsIcESaIcEEEEONSt16remove_referenceIT_E4typeEOS8_
	mov	x1, x0
	mov	x0, x19
	bl	_ZNSt7__cxx1112basic_stringIcSt11char_traitsIcESaIcEEC1EOS4_
	mov	x0, x19
	ldr	x19, [sp, 16]
	ldp	x29, x30, [sp], 48
	.cfi_restore 30
	.cfi_restore 29
	.cfi_restore 19
	.cfi_def_cfa_offset 0
	ret
	.cfi_endproc
.LFE3700:
	.size	_ZStplIcSt11char_traitsIcESaIcEENSt7__cxx1112basic_stringIT_T0_T1_EEPKS5_OS8_, .-_ZStplIcSt11char_traitsIcESaIcEENSt7__cxx1112basic_stringIT_T0_T1_EEPKS5_OS8_
	.section	.text._ZNKSt6chrono8durationIlSt5ratioILl1ELl1EEE5countEv,"axG",@progbits,_ZNKSt6chrono8durationIlSt5ratioILl1ELl1EEE5countEv,comdat
	.align	2
	.weak	_ZNKSt6chrono8durationIlSt5ratioILl1ELl1EEE5countEv
	.type	_ZNKSt6chrono8durationIlSt5ratioILl1ELl1EEE5countEv, %function
_ZNKSt6chrono8durationIlSt5ratioILl1ELl1EEE5countEv:
.LFB3705:
	.cfi_startproc
	sub	sp, sp, #16
	.cfi_def_cfa_offset 16
	str	x0, [sp, 8]
	ldr	x0, [sp, 8]
	ldr	x0, [x0]
	add	sp, sp, 16
	.cfi_def_cfa_offset 0
	ret
	.cfi_endproc
.LFE3705:
	.size	_ZNKSt6chrono8durationIlSt5ratioILl1ELl1EEE5countEv, .-_ZNKSt6chrono8durationIlSt5ratioILl1ELl1EEE5countEv
	.section	.text._ZNKSt16_Sp_counted_baseILN9__gnu_cxx12_Lock_policyE2EE16_M_get_use_countEv,"axG",@progbits,_ZNKSt16_Sp_counted_baseILN9__gnu_cxx12_Lock_policyE2EE16_M_get_use_countEv,comdat
	.align	2
	.weak	_ZNKSt16_Sp_counted_baseILN9__gnu_cxx12_Lock_policyE2EE16_M_get_use_countEv
	.type	_ZNKSt16_Sp_counted_baseILN9__gnu_cxx12_Lock_policyE2EE16_M_get_use_countEv, %function
_ZNKSt16_Sp_counted_baseILN9__gnu_cxx12_Lock_policyE2EE16_M_get_use_countEv:
.LFB3730:
	.cfi_startproc
	sub	sp, sp, #16
	.cfi_def_cfa_offset 16
	str	x0, [sp, 8]
	ldr	x0, [sp, 8]
	add	x0, x0, 8
	ldr	w0, [x0]
	sxtw	x0, w0
	add	sp, sp, 16
	.cfi_def_cfa_offset 0
	ret
	.cfi_endproc
.LFE3730:
	.size	_ZNKSt16_Sp_counted_baseILN9__gnu_cxx12_Lock_policyE2EE16_M_get_use_countEv, .-_ZNKSt16_Sp_counted_baseILN9__gnu_cxx12_Lock_policyE2EE16_M_get_use_countEv
	.section	.text._ZNSt14__shared_countILN9__gnu_cxx12_Lock_policyE2EED2Ev,"axG",@progbits,_ZNSt14__shared_countILN9__gnu_cxx12_Lock_policyE2EED5Ev,comdat
	.align	2
	.weak	_ZNSt14__shared_countILN9__gnu_cxx12_Lock_policyE2EED2Ev
	.type	_ZNSt14__shared_countILN9__gnu_cxx12_Lock_policyE2EED2Ev, %function
_ZNSt14__shared_countILN9__gnu_cxx12_Lock_policyE2EED2Ev:
.LFB3734:
	.cfi_startproc
	stp	x29, x30, [sp, -32]!
	.cfi_def_cfa_offset 32
	.cfi_offset 29, -32
	.cfi_offset 30, -24
	mov	x29, sp
	str	x0, [sp, 24]
	ldr	x0, [sp, 24]
	ldr	x0, [x0]
	cmp	x0, 0
	beq	.L140
	ldr	x0, [sp, 24]
	ldr	x0, [x0]
	bl	_ZNSt16_Sp_counted_baseILN9__gnu_cxx12_Lock_policyE2EE10_M_releaseEv
.L140:
	nop
	ldp	x29, x30, [sp], 32
	.cfi_restore 30
	.cfi_restore 29
	.cfi_def_cfa_offset 0
	ret
	.cfi_endproc
.LFE3734:
	.size	_ZNSt14__shared_countILN9__gnu_cxx12_Lock_policyE2EED2Ev, .-_ZNSt14__shared_countILN9__gnu_cxx12_Lock_policyE2EED2Ev
	.weak	_ZNSt14__shared_countILN9__gnu_cxx12_Lock_policyE2EED1Ev
	.set	_ZNSt14__shared_countILN9__gnu_cxx12_Lock_policyE2EED1Ev,_ZNSt14__shared_countILN9__gnu_cxx12_Lock_policyE2EED2Ev
	.section	.text._ZNSt13__atomic_baseIjEC2Ej,"axG",@progbits,_ZNSt13__atomic_baseIjEC5Ej,comdat
	.align	2
	.weak	_ZNSt13__atomic_baseIjEC2Ej
	.type	_ZNSt13__atomic_baseIjEC2Ej, %function
_ZNSt13__atomic_baseIjEC2Ej:
.LFB3780:
	.cfi_startproc
	sub	sp, sp, #16
	.cfi_def_cfa_offset 16
	str	x0, [sp, 8]
	str	w1, [sp, 4]
	ldr	x0, [sp, 8]
	ldr	w1, [sp, 4]
	str	w1, [x0]
	nop
	add	sp, sp, 16
	.cfi_def_cfa_offset 0
	ret
	.cfi_endproc
.LFE3780:
	.size	_ZNSt13__atomic_baseIjEC2Ej, .-_ZNSt13__atomic_baseIjEC2Ej
	.weak	_ZNSt13__atomic_baseIjEC1Ej
	.set	_ZNSt13__atomic_baseIjEC1Ej,_ZNSt13__atomic_baseIjEC2Ej
	.section	.text._ZNSt5tupleIJPNSt13__future_base12_Result_baseENS1_8_DeleterEEEC2ILb1ELb1EEEv,"axG",@progbits,_ZNSt5tupleIJPNSt13__future_base12_Result_baseENS1_8_DeleterEEEC5ILb1ELb1EEEv,comdat
	.align	2
	.weak	_ZNSt5tupleIJPNSt13__future_base12_Result_baseENS1_8_DeleterEEEC2ILb1ELb1EEEv
	.type	_ZNSt5tupleIJPNSt13__future_base12_Result_baseENS1_8_DeleterEEEC2ILb1ELb1EEEv, %function
_ZNSt5tupleIJPNSt13__future_base12_Result_baseENS1_8_DeleterEEEC2ILb1ELb1EEEv:
.LFB3810:
	.cfi_startproc
	.cfi_personality 0x9b,DW.ref.__gxx_personality_v0
	.cfi_lsda 0x1b,.LLSDA3810
	stp	x29, x30, [sp, -32]!
	.cfi_def_cfa_offset 32
	.cfi_offset 29, -32
	.cfi_offset 30, -24
	mov	x29, sp
	str	x0, [sp, 24]
	ldr	x0, [sp, 24]
	bl	_ZNSt11_Tuple_implILm0EJPNSt13__future_base12_Result_baseENS1_8_DeleterEEEC2Ev
	nop
	ldp	x29, x30, [sp], 32
	.cfi_restore 30
	.cfi_restore 29
	.cfi_def_cfa_offset 0
	ret
	.cfi_endproc
.LFE3810:
	.section	.gcc_except_table
.LLSDA3810:
	.byte	0xff
	.byte	0xff
	.byte	0x1
	.uleb128 .LLSDACSE3810-.LLSDACSB3810
.LLSDACSB3810:
.LLSDACSE3810:
	.section	.text._ZNSt5tupleIJPNSt13__future_base12_Result_baseENS1_8_DeleterEEEC2ILb1ELb1EEEv,"axG",@progbits,_ZNSt5tupleIJPNSt13__future_base12_Result_baseENS1_8_DeleterEEEC5ILb1ELb1EEEv,comdat
	.size	_ZNSt5tupleIJPNSt13__future_base12_Result_baseENS1_8_DeleterEEEC2ILb1ELb1EEEv, .-_ZNSt5tupleIJPNSt13__future_base12_Result_baseENS1_8_DeleterEEEC2ILb1ELb1EEEv
	.weak	_ZNSt5tupleIJPNSt13__future_base12_Result_baseENS1_8_DeleterEEEC1ILb1ELb1EEEv
	.set	_ZNSt5tupleIJPNSt13__future_base12_Result_baseENS1_8_DeleterEEEC1ILb1ELb1EEEv,_ZNSt5tupleIJPNSt13__future_base12_Result_baseENS1_8_DeleterEEEC2ILb1ELb1EEEv
	.section	.text._ZNSt15__uniq_ptr_implINSt13__future_base12_Result_baseENS1_8_DeleterEEC2Ev,"axG",@progbits,_ZNSt15__uniq_ptr_implINSt13__future_base12_Result_baseENS1_8_DeleterEEC5Ev,comdat
	.align	2
	.weak	_ZNSt15__uniq_ptr_implINSt13__future_base12_Result_baseENS1_8_DeleterEEC2Ev
	.type	_ZNSt15__uniq_ptr_implINSt13__future_base12_Result_baseENS1_8_DeleterEEC2Ev, %function
_ZNSt15__uniq_ptr_implINSt13__future_base12_Result_baseENS1_8_DeleterEEC2Ev:
.LFB3812:
	.cfi_startproc
	stp	x29, x30, [sp, -32]!
	.cfi_def_cfa_offset 32
	.cfi_offset 29, -32
	.cfi_offset 30, -24
	mov	x29, sp
	str	x0, [sp, 24]
	ldr	x0, [sp, 24]
	bl	_ZNSt5tupleIJPNSt13__future_base12_Result_baseENS1_8_DeleterEEEC1ILb1ELb1EEEv
	nop
	ldp	x29, x30, [sp], 32
	.cfi_restore 30
	.cfi_restore 29
	.cfi_def_cfa_offset 0
	ret
	.cfi_endproc
.LFE3812:
	.size	_ZNSt15__uniq_ptr_implINSt13__future_base12_Result_baseENS1_8_DeleterEEC2Ev, .-_ZNSt15__uniq_ptr_implINSt13__future_base12_Result_baseENS1_8_DeleterEEC2Ev
	.weak	_ZNSt15__uniq_ptr_implINSt13__future_base12_Result_baseENS1_8_DeleterEEC1Ev
	.set	_ZNSt15__uniq_ptr_implINSt13__future_base12_Result_baseENS1_8_DeleterEEC1Ev,_ZNSt15__uniq_ptr_implINSt13__future_base12_Result_baseENS1_8_DeleterEEC2Ev
	.section	.text._ZNSt15__uniq_ptr_dataINSt13__future_base12_Result_baseENS1_8_DeleterELb1ELb1EECI2St15__uniq_ptr_implIS1_S2_EEv,"axG",@progbits,_ZNSt15__uniq_ptr_dataINSt13__future_base12_Result_baseENS1_8_DeleterELb1ELb1EECI5St15__uniq_ptr_implIS1_S2_EEv,comdat
	.align	2
	.weak	_ZNSt15__uniq_ptr_dataINSt13__future_base12_Result_baseENS1_8_DeleterELb1ELb1EECI2St15__uniq_ptr_implIS1_S2_EEv
	.type	_ZNSt15__uniq_ptr_dataINSt13__future_base12_Result_baseENS1_8_DeleterELb1ELb1EECI2St15__uniq_ptr_implIS1_S2_EEv, %function
_ZNSt15__uniq_ptr_dataINSt13__future_base12_Result_baseENS1_8_DeleterELb1ELb1EECI2St15__uniq_ptr_implIS1_S2_EEv:
.LFB3814:
	.cfi_startproc
	stp	x29, x30, [sp, -32]!
	.cfi_def_cfa_offset 32
	.cfi_offset 29, -32
	.cfi_offset 30, -24
	mov	x29, sp
	str	x0, [sp, 24]
	ldr	x0, [sp, 24]
	bl	_ZNSt15__uniq_ptr_implINSt13__future_base12_Result_baseENS1_8_DeleterEEC2Ev
	nop
	ldp	x29, x30, [sp], 32
	.cfi_restore 30
	.cfi_restore 29
	.cfi_def_cfa_offset 0
	ret
	.cfi_endproc
.LFE3814:
	.size	_ZNSt15__uniq_ptr_dataINSt13__future_base12_Result_baseENS1_8_DeleterELb1ELb1EECI2St15__uniq_ptr_implIS1_S2_EEv, .-_ZNSt15__uniq_ptr_dataINSt13__future_base12_Result_baseENS1_8_DeleterELb1ELb1EECI2St15__uniq_ptr_implIS1_S2_EEv
	.weak	_ZNSt15__uniq_ptr_dataINSt13__future_base12_Result_baseENS1_8_DeleterELb1ELb1EECI1St15__uniq_ptr_implIS1_S2_EEv
	.set	_ZNSt15__uniq_ptr_dataINSt13__future_base12_Result_baseENS1_8_DeleterELb1ELb1EECI1St15__uniq_ptr_implIS1_S2_EEv,_ZNSt15__uniq_ptr_dataINSt13__future_base12_Result_baseENS1_8_DeleterELb1ELb1EECI2St15__uniq_ptr_implIS1_S2_EEv
	.section	.text._ZNSt10unique_ptrINSt13__future_base12_Result_baseENS1_8_DeleterEEC2IS2_vEEv,"axG",@progbits,_ZNSt10unique_ptrINSt13__future_base12_Result_baseENS1_8_DeleterEEC5IS2_vEEv,comdat
	.align	2
	.weak	_ZNSt10unique_ptrINSt13__future_base12_Result_baseENS1_8_DeleterEEC2IS2_vEEv
	.type	_ZNSt10unique_ptrINSt13__future_base12_Result_baseENS1_8_DeleterEEC2IS2_vEEv, %function
_ZNSt10unique_ptrINSt13__future_base12_Result_baseENS1_8_DeleterEEC2IS2_vEEv:
.LFB3816:
	.cfi_startproc
	stp	x29, x30, [sp, -32]!
	.cfi_def_cfa_offset 32
	.cfi_offset 29, -32
	.cfi_offset 30, -24
	mov	x29, sp
	str	x0, [sp, 24]
	ldr	x0, [sp, 24]
	str	xzr, [x0]
	ldr	x0, [sp, 24]
	bl	_ZNSt15__uniq_ptr_dataINSt13__future_base12_Result_baseENS1_8_DeleterELb1ELb1EECI1St15__uniq_ptr_implIS1_S2_EEv
	nop
	ldp	x29, x30, [sp], 32
	.cfi_restore 30
	.cfi_restore 29
	.cfi_def_cfa_offset 0
	ret
	.cfi_endproc
.LFE3816:
	.size	_ZNSt10unique_ptrINSt13__future_base12_Result_baseENS1_8_DeleterEEC2IS2_vEEv, .-_ZNSt10unique_ptrINSt13__future_base12_Result_baseENS1_8_DeleterEEC2IS2_vEEv
	.weak	_ZNSt10unique_ptrINSt13__future_base12_Result_baseENS1_8_DeleterEEC1IS2_vEEv
	.set	_ZNSt10unique_ptrINSt13__future_base12_Result_baseENS1_8_DeleterEEC1IS2_vEEv,_ZNSt10unique_ptrINSt13__future_base12_Result_baseENS1_8_DeleterEEC2IS2_vEEv
	.section	.text._ZNSt10unique_ptrINSt13__future_base12_Result_baseENS1_8_DeleterEED2Ev,"axG",@progbits,_ZNSt10unique_ptrINSt13__future_base12_Result_baseENS1_8_DeleterEED5Ev,comdat
	.align	2
	.weak	_ZNSt10unique_ptrINSt13__future_base12_Result_baseENS1_8_DeleterEED2Ev
	.type	_ZNSt10unique_ptrINSt13__future_base12_Result_baseENS1_8_DeleterEED2Ev, %function
_ZNSt10unique_ptrINSt13__future_base12_Result_baseENS1_8_DeleterEED2Ev:
.LFB3819:
	.cfi_startproc
	.cfi_personality 0x9b,DW.ref.__gxx_personality_v0
	.cfi_lsda 0x1b,.LLSDA3819
	stp	x29, x30, [sp, -64]!
	.cfi_def_cfa_offset 64
	.cfi_offset 29, -64
	.cfi_offset 30, -56
	mov	x29, sp
	str	x19, [sp, 16]
	.cfi_offset 19, -48
	str	x0, [sp, 40]
	ldr	x0, [sp, 40]
	bl	_ZNSt15__uniq_ptr_implINSt13__future_base12_Result_baseENS1_8_DeleterEE6_M_ptrEv
	str	x0, [sp, 56]
	ldr	x0, [sp, 56]
	ldr	x0, [x0]
	cmp	x0, 0
	beq	.L147
	ldr	x0, [sp, 40]
	bl	_ZNSt10unique_ptrINSt13__future_base12_Result_baseENS1_8_DeleterEE11get_deleterEv
	mov	x19, x0
	ldr	x0, [sp, 56]
	bl	_ZSt4moveIRPNSt13__future_base12_Result_baseEEONSt16remove_referenceIT_E4typeEOS5_
	ldr	x0, [x0]
	mov	x1, x0
	mov	x0, x19
	bl	_ZNKSt13__future_base12_Result_base8_DeleterclEPS0_
.L147:
	ldr	x0, [sp, 56]
	str	xzr, [x0]
	nop
	ldr	x19, [sp, 16]
	ldp	x29, x30, [sp], 64
	.cfi_restore 30
	.cfi_restore 29
	.cfi_restore 19
	.cfi_def_cfa_offset 0
	ret
	.cfi_endproc
.LFE3819:
	.section	.gcc_except_table
.LLSDA3819:
	.byte	0xff
	.byte	0xff
	.byte	0x1
	.uleb128 .LLSDACSE3819-.LLSDACSB3819
.LLSDACSB3819:
.LLSDACSE3819:
	.section	.text._ZNSt10unique_ptrINSt13__future_base12_Result_baseENS1_8_DeleterEED2Ev,"axG",@progbits,_ZNSt10unique_ptrINSt13__future_base12_Result_baseENS1_8_DeleterEED5Ev,comdat
	.size	_ZNSt10unique_ptrINSt13__future_base12_Result_baseENS1_8_DeleterEED2Ev, .-_ZNSt10unique_ptrINSt13__future_base12_Result_baseENS1_8_DeleterEED2Ev
	.weak	_ZNSt10unique_ptrINSt13__future_base12_Result_baseENS1_8_DeleterEED1Ev
	.set	_ZNSt10unique_ptrINSt13__future_base12_Result_baseENS1_8_DeleterEED1Ev,_ZNSt10unique_ptrINSt13__future_base12_Result_baseENS1_8_DeleterEED2Ev
	.section	.text._ZNSt23__atomic_futex_unsignedILj2147483648EEC2Ej,"axG",@progbits,_ZNSt23__atomic_futex_unsignedILj2147483648EEC5Ej,comdat
	.align	2
	.weak	_ZNSt23__atomic_futex_unsignedILj2147483648EEC2Ej
	.type	_ZNSt23__atomic_futex_unsignedILj2147483648EEC2Ej, %function
_ZNSt23__atomic_futex_unsignedILj2147483648EEC2Ej:
.LFB3822:
	.cfi_startproc
	stp	x29, x30, [sp, -32]!
	.cfi_def_cfa_offset 32
	.cfi_offset 29, -32
	.cfi_offset 30, -24
	mov	x29, sp
	str	x0, [sp, 24]
	str	w1, [sp, 20]
	ldr	x0, [sp, 24]
	ldr	w1, [sp, 20]
	bl	_ZNSt6atomicIjEC1Ej
	nop
	ldp	x29, x30, [sp], 32
	.cfi_restore 30
	.cfi_restore 29
	.cfi_def_cfa_offset 0
	ret
	.cfi_endproc
.LFE3822:
	.size	_ZNSt23__atomic_futex_unsignedILj2147483648EEC2Ej, .-_ZNSt23__atomic_futex_unsignedILj2147483648EEC2Ej
	.weak	_ZNSt23__atomic_futex_unsignedILj2147483648EEC1Ej
	.set	_ZNSt23__atomic_futex_unsignedILj2147483648EEC1Ej,_ZNSt23__atomic_futex_unsignedILj2147483648EEC2Ej
	.section	.text._ZNKSt10unique_ptrINSt13__future_base12_Result_baseENS1_8_DeleterEEdeEv,"axG",@progbits,_ZNKSt10unique_ptrINSt13__future_base12_Result_baseENS1_8_DeleterEEdeEv,comdat
	.align	2
	.weak	_ZNKSt10unique_ptrINSt13__future_base12_Result_baseENS1_8_DeleterEEdeEv
	.type	_ZNKSt10unique_ptrINSt13__future_base12_Result_baseENS1_8_DeleterEEdeEv, %function
_ZNKSt10unique_ptrINSt13__future_base12_Result_baseENS1_8_DeleterEEdeEv:
.LFB3825:
	.cfi_startproc
	stp	x29, x30, [sp, -32]!
	.cfi_def_cfa_offset 32
	.cfi_offset 29, -32
	.cfi_offset 30, -24
	mov	x29, sp
	str	x0, [sp, 24]
	mov	w0, 0
	cmp	w0, 0
	ldr	x0, [sp, 24]
	bl	_ZNKSt10unique_ptrINSt13__future_base12_Result_baseENS1_8_DeleterEE3getEv
	ldp	x29, x30, [sp], 32
	.cfi_restore 30
	.cfi_restore 29
	.cfi_def_cfa_offset 0
	ret
	.cfi_endproc
.LFE3825:
	.size	_ZNKSt10unique_ptrINSt13__future_base12_Result_baseENS1_8_DeleterEEdeEv, .-_ZNKSt10unique_ptrINSt13__future_base12_Result_baseENS1_8_DeleterEEdeEv
	.section	.text._ZSt11__addressofISt8functionIFSt10unique_ptrINSt13__future_base12_Result_baseENS3_8_DeleterEEvEEEPT_RS8_,"axG",@progbits,_ZSt11__addressofISt8functionIFSt10unique_ptrINSt13__future_base12_Result_baseENS3_8_DeleterEEvEEEPT_RS8_,comdat
	.align	2
	.weak	_ZSt11__addressofISt8functionIFSt10unique_ptrINSt13__future_base12_Result_baseENS3_8_DeleterEEvEEEPT_RS8_
	.type	_ZSt11__addressofISt8functionIFSt10unique_ptrINSt13__future_base12_Result_baseENS3_8_DeleterEEvEEEPT_RS8_, %function
_ZSt11__addressofISt8functionIFSt10unique_ptrINSt13__future_base12_Result_baseENS3_8_DeleterEEvEEEPT_RS8_:
.LFB3826:
	.cfi_startproc
	sub	sp, sp, #16
	.cfi_def_cfa_offset 16
	str	x0, [sp, 8]
	ldr	x0, [sp, 8]
	add	sp, sp, 16
	.cfi_def_cfa_offset 0
	ret
	.cfi_endproc
.LFE3826:
	.size	_ZSt11__addressofISt8functionIFSt10unique_ptrINSt13__future_base12_Result_baseENS3_8_DeleterEEvEEEPT_RS8_, .-_ZSt11__addressofISt8functionIFSt10unique_ptrINSt13__future_base12_Result_baseENS3_8_DeleterEEvEEEPT_RS8_
	.section	.text._ZSt11__addressofIbEPT_RS0_,"axG",@progbits,_ZSt11__addressofIbEPT_RS0_,comdat
	.align	2
	.weak	_ZSt11__addressofIbEPT_RS0_
	.type	_ZSt11__addressofIbEPT_RS0_, %function
_ZSt11__addressofIbEPT_RS0_:
.LFB3827:
	.cfi_startproc
	sub	sp, sp, #16
	.cfi_def_cfa_offset 16
	str	x0, [sp, 8]
	ldr	x0, [sp, 8]
	add	sp, sp, 16
	.cfi_def_cfa_offset 0
	ret
	.cfi_endproc
.LFE3827:
	.size	_ZSt11__addressofIbEPT_RS0_, .-_ZSt11__addressofIbEPT_RS0_
	.section	.text._ZZSt9call_onceIMNSt13__future_base13_State_baseV2EFvPSt8functionIFSt10unique_ptrINS0_12_Result_baseENS4_8_DeleterEEvEEPbEJPS1_S9_SA_EEvRSt9once_flagOT_DpOT0_ENKUlvE_clEv,"axG",@progbits,_ZZSt9call_onceIMNSt13__future_base13_State_baseV2EFvPSt8functionIFSt10unique_ptrINS0_12_Result_baseENS4_8_DeleterEEvEEPbEJPS1_S9_SA_EEvRSt9once_flagOT_DpOT0_ENKUlvE_clEv,comdat
	.align	2
	.weak	_ZZSt9call_onceIMNSt13__future_base13_State_baseV2EFvPSt8functionIFSt10unique_ptrINS0_12_Result_baseENS4_8_DeleterEEvEEPbEJPS1_S9_SA_EEvRSt9once_flagOT_DpOT0_ENKUlvE_clEv
	.type	_ZZSt9call_onceIMNSt13__future_base13_State_baseV2EFvPSt8functionIFSt10unique_ptrINS0_12_Result_baseENS4_8_DeleterEEvEEPbEJPS1_S9_SA_EEvRSt9once_flagOT_DpOT0_ENKUlvE_clEv, %function
_ZZSt9call_onceIMNSt13__future_base13_State_baseV2EFvPSt8functionIFSt10unique_ptrINS0_12_Result_baseENS4_8_DeleterEEvEEPbEJPS1_S9_SA_EEvRSt9once_flagOT_DpOT0_ENKUlvE_clEv:
.LFB3829:
	.cfi_startproc
	stp	x29, x30, [sp, -64]!
	.cfi_def_cfa_offset 64
	.cfi_offset 29, -64
	.cfi_offset 30, -56
	mov	x29, sp
	stp	x19, x20, [sp, 16]
	str	x21, [sp, 32]
	.cfi_offset 19, -48
	.cfi_offset 20, -40
	.cfi_offset 21, -32
	str	x0, [sp, 56]
	ldr	x0, [sp, 56]
	ldr	x0, [x0]
	bl	_ZSt7forwardIMNSt13__future_base13_State_baseV2EFvPSt8functionIFSt10unique_ptrINS0_12_Result_baseENS4_8_DeleterEEvEEPbEEOT_RNSt16remove_referenceISD_E4typeE
	mov	x19, x0
	ldr	x0, [sp, 56]
	ldr	x0, [x0, 8]
	bl	_ZSt7forwardIPNSt13__future_base13_State_baseV2EEOT_RNSt16remove_referenceIS3_E4typeE
	mov	x20, x0
	ldr	x0, [sp, 56]
	ldr	x0, [x0, 16]
	bl	_ZSt7forwardIPSt8functionIFSt10unique_ptrINSt13__future_base12_Result_baseENS3_8_DeleterEEvEEEOT_RNSt16remove_referenceIS9_E4typeE
	mov	x21, x0
	ldr	x0, [sp, 56]
	ldr	x0, [x0, 24]
	bl	_ZSt7forwardIPbEOT_RNSt16remove_referenceIS1_E4typeE
	mov	x3, x0
	mov	x2, x21
	mov	x1, x20
	mov	x0, x19
	bl	_ZSt8__invokeIMNSt13__future_base13_State_baseV2EFvPSt8functionIFSt10unique_ptrINS0_12_Result_baseENS4_8_DeleterEEvEEPbEJPS1_S9_SA_EENSt15__invoke_resultIT_JDpT0_EE4typeEOSF_DpOSG_
	nop
	ldp	x19, x20, [sp, 16]
	ldr	x21, [sp, 32]
	ldp	x29, x30, [sp], 64
	.cfi_restore 30
	.cfi_restore 29
	.cfi_restore 21
	.cfi_restore 19
	.cfi_restore 20
	.cfi_def_cfa_offset 0
	ret
	.cfi_endproc
.LFE3829:
	.size	_ZZSt9call_onceIMNSt13__future_base13_State_baseV2EFvPSt8functionIFSt10unique_ptrINS0_12_Result_baseENS4_8_DeleterEEvEEPbEJPS1_S9_SA_EEvRSt9once_flagOT_DpOT0_ENKUlvE_clEv, .-_ZZSt9call_onceIMNSt13__future_base13_State_baseV2EFvPSt8functionIFSt10unique_ptrINS0_12_Result_baseENS4_8_DeleterEEvEEPbEJPS1_S9_SA_EEvRSt9once_flagOT_DpOT0_ENKUlvE_clEv
	.section	.text._ZSt9call_onceIMNSt13__future_base13_State_baseV2EFvPSt8functionIFSt10unique_ptrINS0_12_Result_baseENS4_8_DeleterEEvEEPbEJPS1_S9_SA_EEvRSt9once_flagOT_DpOT0_,"axG",@progbits,_ZSt9call_onceIMNSt13__future_base13_State_baseV2EFvPSt8functionIFSt10unique_ptrINS0_12_Result_baseENS4_8_DeleterEEvEEPbEJPS1_S9_SA_EEvRSt9once_flagOT_DpOT0_,comdat
	.align	2
	.weak	_ZSt9call_onceIMNSt13__future_base13_State_baseV2EFvPSt8functionIFSt10unique_ptrINS0_12_Result_baseENS4_8_DeleterEEvEEPbEJPS1_S9_SA_EEvRSt9once_flagOT_DpOT0_
	.type	_ZSt9call_onceIMNSt13__future_base13_State_baseV2EFvPSt8functionIFSt10unique_ptrINS0_12_Result_baseENS4_8_DeleterEEvEEPbEJPS1_S9_SA_EEvRSt9once_flagOT_DpOT0_, %function
_ZSt9call_onceIMNSt13__future_base13_State_baseV2EFvPSt8functionIFSt10unique_ptrINS0_12_Result_baseENS4_8_DeleterEEvEEPbEJPS1_S9_SA_EEvRSt9once_flagOT_DpOT0_:
.LFB3828:
	.cfi_startproc
	.cfi_personality 0x9b,DW.ref.__gxx_personality_v0
	.cfi_lsda 0x1b,.LLSDA3828
	stp	x29, x30, [sp, -128]!
	.cfi_def_cfa_offset 128
	.cfi_offset 29, -128
	.cfi_offset 30, -120
	mov	x29, sp
	str	x19, [sp, 16]
	.cfi_offset 19, -112
	str	x0, [sp, 72]
	str	x1, [sp, 64]
	str	x2, [sp, 56]
	str	x3, [sp, 48]
	str	x4, [sp, 40]
	adrp	x0, :got:__stack_chk_guard
	ldr	x0, [x0, #:got_lo12:__stack_chk_guard]
	ldr	x1, [x0]
	str	x1, [sp, 120]
	mov	x1, 0
	ldr	x0, [sp, 64]
	str	x0, [sp, 88]
	ldr	x0, [sp, 56]
	str	x0, [sp, 96]
	ldr	x0, [sp, 48]
	str	x0, [sp, 104]
	ldr	x0, [sp, 40]
	str	x0, [sp, 112]
	add	x1, sp, 88
	add	x0, sp, 80
	bl	_ZNSt9once_flag18_Prepare_executionC1IZSt9call_onceIMNSt13__future_base13_State_baseV2EFvPSt8functionIFSt10unique_ptrINS3_12_Result_baseENS7_8_DeleterEEvEEPbEJPS4_SC_SD_EEvRS_OT_DpOT0_EUlvE_EERSI_
	ldr	x2, [sp, 72]
	adrp	x0, :got:__once_proxy
	ldr	x1, [x0, #:got_lo12:__once_proxy]
	mov	x0, x2
.LEHB9:
	bl	_ZL14__gthread_oncePiPFvvE
	str	w0, [sp, 84]
	ldr	w0, [sp, 84]
	cmp	w0, 0
	beq	.L158
	ldr	w0, [sp, 84]
	bl	_ZSt20__throw_system_errori
.LEHE9:
.L158:
	add	x0, sp, 80
	bl	_ZNSt9once_flag18_Prepare_executionD1Ev
	adrp	x0, :got:__stack_chk_guard
	ldr	x0, [x0, #:got_lo12:__stack_chk_guard]
	ldr	x2, [sp, 120]
	ldr	x1, [x0]
	subs	x2, x2, x1
	mov	x1, 0
	beq	.L160
	b	.L162
.L161:
	mov	x19, x0
	add	x0, sp, 80
	bl	_ZNSt9once_flag18_Prepare_executionD1Ev
	mov	x0, x19
.LEHB10:
	bl	_Unwind_Resume
.LEHE10:
.L162:
	bl	__stack_chk_fail
.L160:
	ldr	x19, [sp, 16]
	ldp	x29, x30, [sp], 128
	.cfi_restore 30
	.cfi_restore 29
	.cfi_restore 19
	.cfi_def_cfa_offset 0
	ret
	.cfi_endproc
.LFE3828:
	.section	.gcc_except_table
.LLSDA3828:
	.byte	0xff
	.byte	0xff
	.byte	0x1
	.uleb128 .LLSDACSE3828-.LLSDACSB3828
.LLSDACSB3828:
	.uleb128 .LEHB9-.LFB3828
	.uleb128 .LEHE9-.LEHB9
	.uleb128 .L161-.LFB3828
	.uleb128 0
	.uleb128 .LEHB10-.LFB3828
	.uleb128 .LEHE10-.LEHB10
	.uleb128 0
	.uleb128 0
.LLSDACSE3828:
	.section	.text._ZSt9call_onceIMNSt13__future_base13_State_baseV2EFvPSt8functionIFSt10unique_ptrINS0_12_Result_baseENS4_8_DeleterEEvEEPbEJPS1_S9_SA_EEvRSt9once_flagOT_DpOT0_,"axG",@progbits,_ZSt9call_onceIMNSt13__future_base13_State_baseV2EFvPSt8functionIFSt10unique_ptrINS0_12_Result_baseENS4_8_DeleterEEvEEPbEJPS1_S9_SA_EEvRSt9once_flagOT_DpOT0_,comdat
	.size	_ZSt9call_onceIMNSt13__future_base13_State_baseV2EFvPSt8functionIFSt10unique_ptrINS0_12_Result_baseENS4_8_DeleterEEvEEPbEJPS1_S9_SA_EEvRSt9once_flagOT_DpOT0_, .-_ZSt9call_onceIMNSt13__future_base13_State_baseV2EFvPSt8functionIFSt10unique_ptrINS0_12_Result_baseENS4_8_DeleterEEvEEPbEJPS1_S9_SA_EEvRSt9once_flagOT_DpOT0_
	.section	.text._ZNKSt10unique_ptrINSt13__future_base12_Result_baseENS1_8_DeleterEEcvbEv,"axG",@progbits,_ZNKSt10unique_ptrINSt13__future_base12_Result_baseENS1_8_DeleterEEcvbEv,comdat
	.align	2
	.weak	_ZNKSt10unique_ptrINSt13__future_base12_Result_baseENS1_8_DeleterEEcvbEv
	.type	_ZNKSt10unique_ptrINSt13__future_base12_Result_baseENS1_8_DeleterEEcvbEv, %function
_ZNKSt10unique_ptrINSt13__future_base12_Result_baseENS1_8_DeleterEEcvbEv:
.LFB3851:
	.cfi_startproc
	stp	x29, x30, [sp, -32]!
	.cfi_def_cfa_offset 32
	.cfi_offset 29, -32
	.cfi_offset 30, -24
	mov	x29, sp
	str	x0, [sp, 24]
	ldr	x0, [sp, 24]
	bl	_ZNKSt10unique_ptrINSt13__future_base12_Result_baseENS1_8_DeleterEE3getEv
	cmp	x0, 0
	cset	w0, ne
	and	w0, w0, 255
	ldp	x29, x30, [sp], 32
	.cfi_restore 30
	.cfi_restore 29
	.cfi_def_cfa_offset 0
	ret
	.cfi_endproc
.LFE3851:
	.size	_ZNKSt10unique_ptrINSt13__future_base12_Result_baseENS1_8_DeleterEEcvbEv, .-_ZNKSt10unique_ptrINSt13__future_base12_Result_baseENS1_8_DeleterEEcvbEv
	.section	.text._ZNKSt10unique_ptrINSt13__future_base12_Result_baseENS1_8_DeleterEEptEv,"axG",@progbits,_ZNKSt10unique_ptrINSt13__future_base12_Result_baseENS1_8_DeleterEEptEv,comdat
	.align	2
	.weak	_ZNKSt10unique_ptrINSt13__future_base12_Result_baseENS1_8_DeleterEEptEv
	.type	_ZNKSt10unique_ptrINSt13__future_base12_Result_baseENS1_8_DeleterEEptEv, %function
_ZNKSt10unique_ptrINSt13__future_base12_Result_baseENS1_8_DeleterEEptEv:
.LFB3852:
	.cfi_startproc
	stp	x29, x30, [sp, -32]!
	.cfi_def_cfa_offset 32
	.cfi_offset 29, -32
	.cfi_offset 30, -24
	mov	x29, sp
	str	x0, [sp, 24]
	ldr	x0, [sp, 24]
	bl	_ZNKSt10unique_ptrINSt13__future_base12_Result_baseENS1_8_DeleterEE3getEv
	ldp	x29, x30, [sp], 32
	.cfi_restore 30
	.cfi_restore 29
	.cfi_def_cfa_offset 0
	ret
	.cfi_endproc
.LFE3852:
	.size	_ZNKSt10unique_ptrINSt13__future_base12_Result_baseENS1_8_DeleterEEptEv, .-_ZNKSt10unique_ptrINSt13__future_base12_Result_baseENS1_8_DeleterEEptEv
	.section	.text._ZNSt12future_errorC2ERKS_,"axG",@progbits,_ZNSt12future_errorC5ERKS_,comdat
	.align	2
	.weak	_ZNSt12future_errorC2ERKS_
	.type	_ZNSt12future_errorC2ERKS_, %function
_ZNSt12future_errorC2ERKS_:
.LFB3855:
	.cfi_startproc
	stp	x29, x30, [sp, -32]!
	.cfi_def_cfa_offset 32
	.cfi_offset 29, -32
	.cfi_offset 30, -24
	mov	x29, sp
	str	x0, [sp, 24]
	str	x1, [sp, 16]
	ldr	x0, [sp, 24]
	ldr	x1, [sp, 16]
	bl	_ZNSt11logic_errorC2ERKS_
	adrp	x0, :got:_ZTVSt12future_error
	ldr	x0, [x0, #:got_lo12:_ZTVSt12future_error]
	add	x1, x0, 16
	ldr	x0, [sp, 24]
	str	x1, [x0]
	ldr	x2, [sp, 24]
	ldr	x0, [sp, 16]
	ldp	x0, x1, [x0, 16]
	stp	x0, x1, [x2, 16]
	nop
	ldp	x29, x30, [sp], 32
	.cfi_restore 30
	.cfi_restore 29
	.cfi_def_cfa_offset 0
	ret
	.cfi_endproc
.LFE3855:
	.size	_ZNSt12future_errorC2ERKS_, .-_ZNSt12future_errorC2ERKS_
	.weak	_ZNSt12future_errorC1ERKS_
	.set	_ZNSt12future_errorC1ERKS_,_ZNSt12future_errorC2ERKS_
	.section	.text._ZSt18make_exception_ptrISt12future_errorENSt15__exception_ptr13exception_ptrET_,"axG",@progbits,_ZSt18make_exception_ptrISt12future_errorENSt15__exception_ptr13exception_ptrET_,comdat
	.align	2
	.weak	_ZSt18make_exception_ptrISt12future_errorENSt15__exception_ptr13exception_ptrET_
	.type	_ZSt18make_exception_ptrISt12future_errorENSt15__exception_ptr13exception_ptrET_, %function
_ZSt18make_exception_ptrISt12future_errorENSt15__exception_ptr13exception_ptrET_:
.LFB3853:
	.cfi_startproc
	stp	x29, x30, [sp, -64]!
	.cfi_def_cfa_offset 64
	.cfi_offset 29, -64
	.cfi_offset 30, -56
	mov	x29, sp
	stp	x19, x20, [sp, 16]
	.cfi_offset 19, -48
	.cfi_offset 20, -40
	mov	x19, x8
	str	x0, [sp, 40]
	mov	x0, 32
	bl	__cxa_allocate_exception
	str	x0, [sp, 56]
	adrp	x0, _ZNSt15__exception_ptr12__dest_thunkISt12future_errorEEvPv
	add	x2, x0, :lo12:_ZNSt15__exception_ptr12__dest_thunkISt12future_errorEEvPv
	adrp	x0, :got:_ZTISt12future_error
	ldr	x1, [x0, #:got_lo12:_ZTISt12future_error]
	ldr	x0, [sp, 56]
	bl	__cxa_init_primary_exception
	ldr	x0, [sp, 40]
	bl	_ZSt7forwardISt12future_errorEOT_RNSt16remove_referenceIS1_E4typeE
	mov	x20, x0
	ldr	x0, [sp, 56]
	mov	x1, x0
	mov	x0, 32
	bl	_ZnwmPv
	mov	x1, x20
	bl	_ZNSt12future_errorC1ERKS_
	ldr	x1, [sp, 56]
	mov	x0, x19
	bl	_ZNSt15__exception_ptr13exception_ptrC1EPv
	mov	x0, x19
	ldp	x19, x20, [sp, 16]
	ldp	x29, x30, [sp], 64
	.cfi_restore 30
	.cfi_restore 29
	.cfi_restore 19
	.cfi_restore 20
	.cfi_def_cfa_offset 0
	ret
	.cfi_endproc
.LFE3853:
	.size	_ZSt18make_exception_ptrISt12future_errorENSt15__exception_ptr13exception_ptrET_, .-_ZSt18make_exception_ptrISt12future_errorENSt15__exception_ptr13exception_ptrET_
	.section	.text._ZNSt10unique_ptrINSt13__future_base12_Result_baseENS1_8_DeleterEE4swapERS3_,"axG",@progbits,_ZNSt10unique_ptrINSt13__future_base12_Result_baseENS1_8_DeleterEE4swapERS3_,comdat
	.align	2
	.weak	_ZNSt10unique_ptrINSt13__future_base12_Result_baseENS1_8_DeleterEE4swapERS3_
	.type	_ZNSt10unique_ptrINSt13__future_base12_Result_baseENS1_8_DeleterEE4swapERS3_, %function
_ZNSt10unique_ptrINSt13__future_base12_Result_baseENS1_8_DeleterEE4swapERS3_:
.LFB3857:
	.cfi_startproc
	stp	x29, x30, [sp, -32]!
	.cfi_def_cfa_offset 32
	.cfi_offset 29, -32
	.cfi_offset 30, -24
	mov	x29, sp
	str	x0, [sp, 24]
	str	x1, [sp, 16]
	ldr	x0, [sp, 24]
	ldr	x1, [sp, 16]
	bl	_ZNSt15__uniq_ptr_implINSt13__future_base12_Result_baseENS1_8_DeleterEE4swapERS3_
	nop
	ldp	x29, x30, [sp], 32
	.cfi_restore 30
	.cfi_restore 29
	.cfi_def_cfa_offset 0
	ret
	.cfi_endproc
.LFE3857:
	.size	_ZNSt10unique_ptrINSt13__future_base12_Result_baseENS1_8_DeleterEE4swapERS3_, .-_ZNSt10unique_ptrINSt13__future_base12_Result_baseENS1_8_DeleterEE4swapERS3_
	.section	.text._ZNKSt8functionIFSt10unique_ptrINSt13__future_base12_Result_baseENS2_8_DeleterEEvEEclEv,"axG",@progbits,_ZNKSt8functionIFSt10unique_ptrINSt13__future_base12_Result_baseENS2_8_DeleterEEvEEclEv,comdat
	.align	2
	.weak	_ZNKSt8functionIFSt10unique_ptrINSt13__future_base12_Result_baseENS2_8_DeleterEEvEEclEv
	.type	_ZNKSt8functionIFSt10unique_ptrINSt13__future_base12_Result_baseENS2_8_DeleterEEvEEclEv, %function
_ZNKSt8functionIFSt10unique_ptrINSt13__future_base12_Result_baseENS2_8_DeleterEEvEEclEv:
.LFB3858:
	.cfi_startproc
	stp	x29, x30, [sp, -64]!
	.cfi_def_cfa_offset 64
	.cfi_offset 29, -64
	.cfi_offset 30, -56
	mov	x29, sp
	str	x19, [sp, 16]
	.cfi_offset 19, -48
	mov	x19, x8
	str	x0, [sp, 40]
	adrp	x0, :got:__stack_chk_guard
	ldr	x0, [x0, #:got_lo12:__stack_chk_guard]
	ldr	x1, [x0]
	str	x1, [sp, 56]
	mov	x1, 0
	ldr	x0, [sp, 40]
	bl	_ZNKSt14_Function_base8_M_emptyEv
	and	w0, w0, 255
	cmp	w0, 0
	beq	.L172
	bl	_ZSt25__throw_bad_function_callv
.L172:
	ldr	x0, [sp, 40]
	ldr	x1, [x0, 24]
	ldr	x0, [sp, 40]
	mov	x8, x19
	blr	x1
	adrp	x0, :got:__stack_chk_guard
	ldr	x0, [x0, #:got_lo12:__stack_chk_guard]
	ldr	x2, [sp, 56]
	ldr	x1, [x0]
	subs	x2, x2, x1
	mov	x1, 0
	beq	.L174
	bl	__stack_chk_fail
.L174:
	mov	x0, x19
	ldr	x19, [sp, 16]
	ldp	x29, x30, [sp], 64
	.cfi_restore 30
	.cfi_restore 29
	.cfi_restore 19
	.cfi_def_cfa_offset 0
	ret
	.cfi_endproc
.LFE3858:
	.size	_ZNKSt8functionIFSt10unique_ptrINSt13__future_base12_Result_baseENS2_8_DeleterEEvEEclEv, .-_ZNKSt8functionIFSt10unique_ptrINSt13__future_base12_Result_baseENS2_8_DeleterEEvEEclEv
	.section	.text._ZNSt12__shared_ptrINSt13__future_base13_State_baseV2ELN9__gnu_cxx12_Lock_policyE2EEC2ERKS4_,"axG",@progbits,_ZNSt12__shared_ptrINSt13__future_base13_State_baseV2ELN9__gnu_cxx12_Lock_policyE2EEC5ERKS4_,comdat
	.align	2
	.weak	_ZNSt12__shared_ptrINSt13__future_base13_State_baseV2ELN9__gnu_cxx12_Lock_policyE2EEC2ERKS4_
	.type	_ZNSt12__shared_ptrINSt13__future_base13_State_baseV2ELN9__gnu_cxx12_Lock_policyE2EEC2ERKS4_, %function
_ZNSt12__shared_ptrINSt13__future_base13_State_baseV2ELN9__gnu_cxx12_Lock_policyE2EEC2ERKS4_:
.LFB3862:
	.cfi_startproc
	stp	x29, x30, [sp, -32]!
	.cfi_def_cfa_offset 32
	.cfi_offset 29, -32
	.cfi_offset 30, -24
	mov	x29, sp
	str	x0, [sp, 24]
	str	x1, [sp, 16]
	ldr	x0, [sp, 16]
	ldr	x1, [x0]
	ldr	x0, [sp, 24]
	str	x1, [x0]
	ldr	x0, [sp, 24]
	add	x2, x0, 8
	ldr	x0, [sp, 16]
	add	x0, x0, 8
	mov	x1, x0
	mov	x0, x2
	bl	_ZNSt14__shared_countILN9__gnu_cxx12_Lock_policyE2EEC1ERKS2_
	nop
	ldp	x29, x30, [sp], 32
	.cfi_restore 30
	.cfi_restore 29
	.cfi_def_cfa_offset 0
	ret
	.cfi_endproc
.LFE3862:
	.size	_ZNSt12__shared_ptrINSt13__future_base13_State_baseV2ELN9__gnu_cxx12_Lock_policyE2EEC2ERKS4_, .-_ZNSt12__shared_ptrINSt13__future_base13_State_baseV2ELN9__gnu_cxx12_Lock_policyE2EEC2ERKS4_
	.weak	_ZNSt12__shared_ptrINSt13__future_base13_State_baseV2ELN9__gnu_cxx12_Lock_policyE2EEC1ERKS4_
	.set	_ZNSt12__shared_ptrINSt13__future_base13_State_baseV2ELN9__gnu_cxx12_Lock_policyE2EEC1ERKS4_,_ZNSt12__shared_ptrINSt13__future_base13_State_baseV2ELN9__gnu_cxx12_Lock_policyE2EEC2ERKS4_
	.section	.text._ZNSt10shared_ptrINSt13__future_base13_State_baseV2EEC2ERKS2_,"axG",@progbits,_ZNSt10shared_ptrINSt13__future_base13_State_baseV2EEC5ERKS2_,comdat
	.align	2
	.weak	_ZNSt10shared_ptrINSt13__future_base13_State_baseV2EEC2ERKS2_
	.type	_ZNSt10shared_ptrINSt13__future_base13_State_baseV2EEC2ERKS2_, %function
_ZNSt10shared_ptrINSt13__future_base13_State_baseV2EEC2ERKS2_:
.LFB3864:
	.cfi_startproc
	stp	x29, x30, [sp, -32]!
	.cfi_def_cfa_offset 32
	.cfi_offset 29, -32
	.cfi_offset 30, -24
	mov	x29, sp
	str	x0, [sp, 24]
	str	x1, [sp, 16]
	ldr	x0, [sp, 24]
	ldr	x1, [sp, 16]
	bl	_ZNSt12__shared_ptrINSt13__future_base13_State_baseV2ELN9__gnu_cxx12_Lock_policyE2EEC2ERKS4_
	nop
	ldp	x29, x30, [sp], 32
	.cfi_restore 30
	.cfi_restore 29
	.cfi_def_cfa_offset 0
	ret
	.cfi_endproc
.LFE3864:
	.size	_ZNSt10shared_ptrINSt13__future_base13_State_baseV2EEC2ERKS2_, .-_ZNSt10shared_ptrINSt13__future_base13_State_baseV2EEC2ERKS2_
	.weak	_ZNSt10shared_ptrINSt13__future_base13_State_baseV2EEC1ERKS2_
	.set	_ZNSt10shared_ptrINSt13__future_base13_State_baseV2EEC1ERKS2_,_ZNSt10shared_ptrINSt13__future_base13_State_baseV2EEC2ERKS2_
	.section	.text._ZSt11make_sharedINSt13__future_base13_State_baseV2EJEESt10shared_ptrIT_EDpOT0_,"axG",@progbits,_ZSt11make_sharedINSt13__future_base13_State_baseV2EJEESt10shared_ptrIT_EDpOT0_,comdat
	.align	2
	.weak	_ZSt11make_sharedINSt13__future_base13_State_baseV2EJEESt10shared_ptrIT_EDpOT0_
	.type	_ZSt11make_sharedINSt13__future_base13_State_baseV2EJEESt10shared_ptrIT_EDpOT0_, %function
_ZSt11make_sharedINSt13__future_base13_State_baseV2EJEESt10shared_ptrIT_EDpOT0_:
.LFB3890:
	.cfi_startproc
	.cfi_personality 0x9b,DW.ref.__gxx_personality_v0
	.cfi_lsda 0x1b,.LLSDA3890
	stp	x29, x30, [sp, -48]!
	.cfi_def_cfa_offset 48
	.cfi_offset 29, -48
	.cfi_offset 30, -40
	mov	x29, sp
	str	x19, [sp, 16]
	.cfi_offset 19, -32
	mov	x19, x8
	adrp	x0, :got:__stack_chk_guard
	ldr	x0, [x0, #:got_lo12:__stack_chk_guard]
	ldr	x1, [x0]
	str	x1, [sp, 40]
	mov	x1, 0
	add	x0, sp, 32
	bl	_ZNSaINSt13__future_base13_State_baseV2EEC1Ev
	add	x0, sp, 32
	mov	x8, x19
.LEHB11:
	bl	_ZSt15allocate_sharedINSt13__future_base13_State_baseV2ESaIS1_EJEESt10shared_ptrIT_ERKT0_DpOT1_
.LEHE11:
	nop
	add	x0, sp, 32
	bl	_ZNSaINSt13__future_base13_State_baseV2EED1Ev
	nop
	adrp	x0, :got:__stack_chk_guard
	ldr	x0, [x0, #:got_lo12:__stack_chk_guard]
	ldr	x2, [sp, 40]
	ldr	x1, [x0]
	subs	x2, x2, x1
	mov	x1, 0
	beq	.L180
	b	.L182
.L181:
	mov	x19, x0
	add	x0, sp, 32
	bl	_ZNSaINSt13__future_base13_State_baseV2EED1Ev
	mov	x0, x19
.LEHB12:
	bl	_Unwind_Resume
.LEHE12:
.L182:
	bl	__stack_chk_fail
.L180:
	mov	x0, x19
	ldr	x19, [sp, 16]
	ldp	x29, x30, [sp], 48
	.cfi_restore 30
	.cfi_restore 29
	.cfi_restore 19
	.cfi_def_cfa_offset 0
	ret
	.cfi_endproc
.LFE3890:
	.section	.gcc_except_table
.LLSDA3890:
	.byte	0xff
	.byte	0xff
	.byte	0x1
	.uleb128 .LLSDACSE3890-.LLSDACSB3890
.LLSDACSB3890:
	.uleb128 .LEHB11-.LFB3890
	.uleb128 .LEHE11-.LEHB11
	.uleb128 .L181-.LFB3890
	.uleb128 0
	.uleb128 .LEHB12-.LFB3890
	.uleb128 .LEHE12-.LEHB12
	.uleb128 0
	.uleb128 0
.LLSDACSE3890:
	.section	.text._ZSt11make_sharedINSt13__future_base13_State_baseV2EJEESt10shared_ptrIT_EDpOT0_,"axG",@progbits,_ZSt11make_sharedINSt13__future_base13_State_baseV2EJEESt10shared_ptrIT_EDpOT0_,comdat
	.size	_ZSt11make_sharedINSt13__future_base13_State_baseV2EJEESt10shared_ptrIT_EDpOT0_, .-_ZSt11make_sharedINSt13__future_base13_State_baseV2EJEESt10shared_ptrIT_EDpOT0_
	.section	.text._ZSt4moveIRSt10shared_ptrINSt13__future_base13_State_baseV2EEEONSt16remove_referenceIT_E4typeEOS6_,"axG",@progbits,_ZSt4moveIRSt10shared_ptrINSt13__future_base13_State_baseV2EEEONSt16remove_referenceIT_E4typeEOS6_,comdat
	.align	2
	.weak	_ZSt4moveIRSt10shared_ptrINSt13__future_base13_State_baseV2EEEONSt16remove_referenceIT_E4typeEOS6_
	.type	_ZSt4moveIRSt10shared_ptrINSt13__future_base13_State_baseV2EEEONSt16remove_referenceIT_E4typeEOS6_, %function
_ZSt4moveIRSt10shared_ptrINSt13__future_base13_State_baseV2EEEONSt16remove_referenceIT_E4typeEOS6_:
.LFB3900:
	.cfi_startproc
	sub	sp, sp, #16
	.cfi_def_cfa_offset 16
	str	x0, [sp, 8]
	ldr	x0, [sp, 8]
	add	sp, sp, 16
	.cfi_def_cfa_offset 0
	ret
	.cfi_endproc
.LFE3900:
	.size	_ZSt4moveIRSt10shared_ptrINSt13__future_base13_State_baseV2EEEONSt16remove_referenceIT_E4typeEOS6_, .-_ZSt4moveIRSt10shared_ptrINSt13__future_base13_State_baseV2EEEONSt16remove_referenceIT_E4typeEOS6_
	.section	.text._ZNSt10shared_ptrINSt13__future_base13_State_baseV2EEC2EOS2_,"axG",@progbits,_ZNSt10shared_ptrINSt13__future_base13_State_baseV2EEC5EOS2_,comdat
	.align	2
	.weak	_ZNSt10shared_ptrINSt13__future_base13_State_baseV2EEC2EOS2_
	.type	_ZNSt10shared_ptrINSt13__future_base13_State_baseV2EEC2EOS2_, %function
_ZNSt10shared_ptrINSt13__future_base13_State_baseV2EEC2EOS2_:
.LFB3903:
	.cfi_startproc
	stp	x29, x30, [sp, -48]!
	.cfi_def_cfa_offset 48
	.cfi_offset 29, -48
	.cfi_offset 30, -40
	mov	x29, sp
	str	x19, [sp, 16]
	.cfi_offset 19, -32
	str	x0, [sp, 40]
	str	x1, [sp, 32]
	ldr	x19, [sp, 40]
	ldr	x0, [sp, 32]
	bl	_ZSt4moveIRSt10shared_ptrINSt13__future_base13_State_baseV2EEEONSt16remove_referenceIT_E4typeEOS6_
	mov	x1, x0
	mov	x0, x19
	bl	_ZNSt12__shared_ptrINSt13__future_base13_State_baseV2ELN9__gnu_cxx12_Lock_policyE2EEC2EOS4_
	nop
	ldr	x19, [sp, 16]
	ldp	x29, x30, [sp], 48
	.cfi_restore 30
	.cfi_restore 29
	.cfi_restore 19
	.cfi_def_cfa_offset 0
	ret
	.cfi_endproc
.LFE3903:
	.size	_ZNSt10shared_ptrINSt13__future_base13_State_baseV2EEC2EOS2_, .-_ZNSt10shared_ptrINSt13__future_base13_State_baseV2EEC2EOS2_
	.weak	_ZNSt10shared_ptrINSt13__future_base13_State_baseV2EEC1EOS2_
	.set	_ZNSt10shared_ptrINSt13__future_base13_State_baseV2EEC1EOS2_,_ZNSt10shared_ptrINSt13__future_base13_State_baseV2EEC2EOS2_
	.section	.text._ZNKSt12__shared_ptrINSt13__future_base13_State_baseV2ELN9__gnu_cxx12_Lock_policyE2EEcvbEv,"axG",@progbits,_ZNKSt12__shared_ptrINSt13__future_base13_State_baseV2ELN9__gnu_cxx12_Lock_policyE2EEcvbEv,comdat
	.align	2
	.weak	_ZNKSt12__shared_ptrINSt13__future_base13_State_baseV2ELN9__gnu_cxx12_Lock_policyE2EEcvbEv
	.type	_ZNKSt12__shared_ptrINSt13__future_base13_State_baseV2ELN9__gnu_cxx12_Lock_policyE2EEcvbEv, %function
_ZNKSt12__shared_ptrINSt13__future_base13_State_baseV2ELN9__gnu_cxx12_Lock_policyE2EEcvbEv:
.LFB3914:
	.cfi_startproc
	sub	sp, sp, #16
	.cfi_def_cfa_offset 16
	str	x0, [sp, 8]
	ldr	x0, [sp, 8]
	ldr	x0, [x0]
	cmp	x0, 0
	cset	w0, ne
	and	w0, w0, 255
	add	sp, sp, 16
	.cfi_def_cfa_offset 0
	ret
	.cfi_endproc
.LFE3914:
	.size	_ZNKSt12__shared_ptrINSt13__future_base13_State_baseV2ELN9__gnu_cxx12_Lock_policyE2EEcvbEv, .-_ZNKSt12__shared_ptrINSt13__future_base13_State_baseV2ELN9__gnu_cxx12_Lock_policyE2EEcvbEv
	.section	.text._ZNKSt12__shared_ptrINSt13__future_base13_State_baseV2ELN9__gnu_cxx12_Lock_policyE2EE6uniqueEv,"axG",@progbits,_ZNKSt12__shared_ptrINSt13__future_base13_State_baseV2ELN9__gnu_cxx12_Lock_policyE2EE6uniqueEv,comdat
	.align	2
	.weak	_ZNKSt12__shared_ptrINSt13__future_base13_State_baseV2ELN9__gnu_cxx12_Lock_policyE2EE6uniqueEv
	.type	_ZNKSt12__shared_ptrINSt13__future_base13_State_baseV2ELN9__gnu_cxx12_Lock_policyE2EE6uniqueEv, %function
_ZNKSt12__shared_ptrINSt13__future_base13_State_baseV2ELN9__gnu_cxx12_Lock_policyE2EE6uniqueEv:
.LFB3915:
	.cfi_startproc
	stp	x29, x30, [sp, -32]!
	.cfi_def_cfa_offset 32
	.cfi_offset 29, -32
	.cfi_offset 30, -24
	mov	x29, sp
	str	x0, [sp, 24]
	ldr	x0, [sp, 24]
	add	x0, x0, 8
	bl	_ZNKSt14__shared_countILN9__gnu_cxx12_Lock_policyE2EE9_M_uniqueEv
	and	w0, w0, 255
	ldp	x29, x30, [sp], 32
	.cfi_restore 30
	.cfi_restore 29
	.cfi_def_cfa_offset 0
	ret
	.cfi_endproc
.LFE3915:
	.size	_ZNKSt12__shared_ptrINSt13__future_base13_State_baseV2ELN9__gnu_cxx12_Lock_policyE2EE6uniqueEv, .-_ZNKSt12__shared_ptrINSt13__future_base13_State_baseV2ELN9__gnu_cxx12_Lock_policyE2EE6uniqueEv
	.section	.text._ZNKSt19__shared_ptr_accessINSt13__future_base13_State_baseV2ELN9__gnu_cxx12_Lock_policyE2ELb0ELb0EEptEv,"axG",@progbits,_ZNKSt19__shared_ptr_accessINSt13__future_base13_State_baseV2ELN9__gnu_cxx12_Lock_policyE2ELb0ELb0EEptEv,comdat
	.align	2
	.weak	_ZNKSt19__shared_ptr_accessINSt13__future_base13_State_baseV2ELN9__gnu_cxx12_Lock_policyE2ELb0ELb0EEptEv
	.type	_ZNKSt19__shared_ptr_accessINSt13__future_base13_State_baseV2ELN9__gnu_cxx12_Lock_policyE2ELb0ELb0EEptEv, %function
_ZNKSt19__shared_ptr_accessINSt13__future_base13_State_baseV2ELN9__gnu_cxx12_Lock_policyE2ELb0ELb0EEptEv:
.LFB3916:
	.cfi_startproc
	stp	x29, x30, [sp, -32]!
	.cfi_def_cfa_offset 32
	.cfi_offset 29, -32
	.cfi_offset 30, -24
	mov	x29, sp
	str	x0, [sp, 24]
	ldr	x0, [sp, 24]
	bl	_ZNKSt19__shared_ptr_accessINSt13__future_base13_State_baseV2ELN9__gnu_cxx12_Lock_policyE2ELb0ELb0EE6_M_getEv
	ldp	x29, x30, [sp], 32
	.cfi_restore 30
	.cfi_restore 29
	.cfi_def_cfa_offset 0
	ret
	.cfi_endproc
.LFE3916:
	.size	_ZNKSt19__shared_ptr_accessINSt13__future_base13_State_baseV2ELN9__gnu_cxx12_Lock_policyE2ELb0ELb0EEptEv, .-_ZNKSt19__shared_ptr_accessINSt13__future_base13_State_baseV2ELN9__gnu_cxx12_Lock_policyE2ELb0ELb0EEptEv
	.section	.text._ZNSt15__uniq_ptr_dataINSt13__future_base12_Result_baseENS1_8_DeleterELb1ELb1EECI2St15__uniq_ptr_implIS1_S2_EIS2_EEPS1_OT_,"axG",@progbits,_ZNSt15__uniq_ptr_dataINSt13__future_base12_Result_baseENS1_8_DeleterELb1ELb1EECI5St15__uniq_ptr_implIS1_S2_EIS2_EEPS1_OT_,comdat
	.align	2
	.weak	_ZNSt15__uniq_ptr_dataINSt13__future_base12_Result_baseENS1_8_DeleterELb1ELb1EECI2St15__uniq_ptr_implIS1_S2_EIS2_EEPS1_OT_
	.type	_ZNSt15__uniq_ptr_dataINSt13__future_base12_Result_baseENS1_8_DeleterELb1ELb1EECI2St15__uniq_ptr_implIS1_S2_EIS2_EEPS1_OT_, %function
_ZNSt15__uniq_ptr_dataINSt13__future_base12_Result_baseENS1_8_DeleterELb1ELb1EECI2St15__uniq_ptr_implIS1_S2_EIS2_EEPS1_OT_:
.LFB3919:
	.cfi_startproc
	stp	x29, x30, [sp, -48]!
	.cfi_def_cfa_offset 48
	.cfi_offset 29, -48
	.cfi_offset 30, -40
	mov	x29, sp
	str	x0, [sp, 40]
	str	x1, [sp, 32]
	str	x2, [sp, 24]
	ldr	x0, [sp, 40]
	ldr	x1, [sp, 32]
	ldr	x2, [sp, 24]
	bl	_ZNSt15__uniq_ptr_implINSt13__future_base12_Result_baseENS1_8_DeleterEEC2IS2_EEPS1_OT_
	nop
	ldp	x29, x30, [sp], 48
	.cfi_restore 30
	.cfi_restore 29
	.cfi_def_cfa_offset 0
	ret
	.cfi_endproc
.LFE3919:
	.size	_ZNSt15__uniq_ptr_dataINSt13__future_base12_Result_baseENS1_8_DeleterELb1ELb1EECI2St15__uniq_ptr_implIS1_S2_EIS2_EEPS1_OT_, .-_ZNSt15__uniq_ptr_dataINSt13__future_base12_Result_baseENS1_8_DeleterELb1ELb1EECI2St15__uniq_ptr_implIS1_S2_EIS2_EEPS1_OT_
	.weak	_ZNSt15__uniq_ptr_dataINSt13__future_base12_Result_baseENS1_8_DeleterELb1ELb1EECI1St15__uniq_ptr_implIS1_S2_EIS2_EEPS1_OT_
	.set	_ZNSt15__uniq_ptr_dataINSt13__future_base12_Result_baseENS1_8_DeleterELb1ELb1EECI1St15__uniq_ptr_implIS1_S2_EIS2_EEPS1_OT_,_ZNSt15__uniq_ptr_dataINSt13__future_base12_Result_baseENS1_8_DeleterELb1ELb1EECI2St15__uniq_ptr_implIS1_S2_EIS2_EEPS1_OT_
	.section	.text._ZNSt12__shared_ptrINSt13__future_base13_State_baseV2ELN9__gnu_cxx12_Lock_policyE2EE4swapERS4_,"axG",@progbits,_ZNSt12__shared_ptrINSt13__future_base13_State_baseV2ELN9__gnu_cxx12_Lock_policyE2EE4swapERS4_,comdat
	.align	2
	.weak	_ZNSt12__shared_ptrINSt13__future_base13_State_baseV2ELN9__gnu_cxx12_Lock_policyE2EE4swapERS4_
	.type	_ZNSt12__shared_ptrINSt13__future_base13_State_baseV2ELN9__gnu_cxx12_Lock_policyE2EE4swapERS4_, %function
_ZNSt12__shared_ptrINSt13__future_base13_State_baseV2ELN9__gnu_cxx12_Lock_policyE2EE4swapERS4_:
.LFB3924:
	.cfi_startproc
	stp	x29, x30, [sp, -32]!
	.cfi_def_cfa_offset 32
	.cfi_offset 29, -32
	.cfi_offset 30, -24
	mov	x29, sp
	str	x0, [sp, 24]
	str	x1, [sp, 16]
	ldr	x0, [sp, 24]
	ldr	x1, [sp, 16]
	bl	_ZSt4swapIPNSt13__future_base13_State_baseV2EENSt9enable_ifIXsrSt6__and_IJSt6__not_ISt15__is_tuple_likeIT_EESt21is_move_constructibleIS7_ESt18is_move_assignableIS7_EEE5valueEvE4typeERS7_SH_
	ldr	x0, [sp, 24]
	add	x2, x0, 8
	ldr	x0, [sp, 16]
	add	x0, x0, 8
	mov	x1, x0
	mov	x0, x2
	bl	_ZNSt14__shared_countILN9__gnu_cxx12_Lock_policyE2EE7_M_swapERS2_
	nop
	ldp	x29, x30, [sp], 32
	.cfi_restore 30
	.cfi_restore 29
	.cfi_def_cfa_offset 0
	ret
	.cfi_endproc
.LFE3924:
	.size	_ZNSt12__shared_ptrINSt13__future_base13_State_baseV2ELN9__gnu_cxx12_Lock_policyE2EE4swapERS4_, .-_ZNSt12__shared_ptrINSt13__future_base13_State_baseV2ELN9__gnu_cxx12_Lock_policyE2EE4swapERS4_
	.section	.text._ZNSt14_Function_baseC2Ev,"axG",@progbits,_ZNSt14_Function_baseC5Ev,comdat
	.align	2
	.weak	_ZNSt14_Function_baseC2Ev
	.type	_ZNSt14_Function_baseC2Ev, %function
_ZNSt14_Function_baseC2Ev:
.LFB3930:
	.cfi_startproc
	sub	sp, sp, #16
	.cfi_def_cfa_offset 16
	str	x0, [sp, 8]
	ldr	x0, [sp, 8]
	stp	xzr, xzr, [x0]
	ldr	x0, [sp, 8]
	str	xzr, [x0, 16]
	nop
	add	sp, sp, 16
	.cfi_def_cfa_offset 0
	ret
	.cfi_endproc
.LFE3930:
	.size	_ZNSt14_Function_baseC2Ev, .-_ZNSt14_Function_baseC2Ev
	.weak	_ZNSt14_Function_baseC1Ev
	.set	_ZNSt14_Function_baseC1Ev,_ZNSt14_Function_baseC2Ev
	.section	.text._ZNSt13__future_base13_State_baseV28_S_checkIS0_EEvRKSt10shared_ptrIT_E,"axG",@progbits,_ZNSt13__future_base13_State_baseV28_S_checkIS0_EEvRKSt10shared_ptrIT_E,comdat
	.align	2
	.weak	_ZNSt13__future_base13_State_baseV28_S_checkIS0_EEvRKSt10shared_ptrIT_E
	.type	_ZNSt13__future_base13_State_baseV28_S_checkIS0_EEvRKSt10shared_ptrIT_E, %function
_ZNSt13__future_base13_State_baseV28_S_checkIS0_EEvRKSt10shared_ptrIT_E:
.LFB3941:
	.cfi_startproc
	stp	x29, x30, [sp, -32]!
	.cfi_def_cfa_offset 32
	.cfi_offset 29, -32
	.cfi_offset 30, -24
	mov	x29, sp
	str	x0, [sp, 24]
	ldr	x0, [sp, 24]
	bl	_ZNKSt12__shared_ptrINSt13__future_base13_State_baseV2ELN9__gnu_cxx12_Lock_policyE2EEcvbEv
	and	w0, w0, 255
	eor	w0, w0, 1
	and	w0, w0, 255
	cmp	w0, 0
	beq	.L197
	mov	w0, 3
	bl	_ZSt20__throw_future_errori
.L197:
	nop
	ldp	x29, x30, [sp], 32
	.cfi_restore 30
	.cfi_restore 29
	.cfi_def_cfa_offset 0
	ret
	.cfi_endproc
.LFE3941:
	.size	_ZNSt13__future_base13_State_baseV28_S_checkIS0_EEvRKSt10shared_ptrIT_E, .-_ZNSt13__future_base13_State_baseV28_S_checkIS0_EEvRKSt10shared_ptrIT_E
	.section	.text._ZNKSt19__shared_ptr_accessINSt13__future_base13_State_baseV2ELN9__gnu_cxx12_Lock_policyE2ELb0ELb0EEdeEv,"axG",@progbits,_ZNKSt19__shared_ptr_accessINSt13__future_base13_State_baseV2ELN9__gnu_cxx12_Lock_policyE2ELb0ELb0EEdeEv,comdat
	.align	2
	.weak	_ZNKSt19__shared_ptr_accessINSt13__future_base13_State_baseV2ELN9__gnu_cxx12_Lock_policyE2ELb0ELb0EEdeEv
	.type	_ZNKSt19__shared_ptr_accessINSt13__future_base13_State_baseV2ELN9__gnu_cxx12_Lock_policyE2ELb0ELb0EEdeEv, %function
_ZNKSt19__shared_ptr_accessINSt13__future_base13_State_baseV2ELN9__gnu_cxx12_Lock_policyE2ELb0ELb0EEdeEv:
.LFB3942:
	.cfi_startproc
	stp	x29, x30, [sp, -32]!
	.cfi_def_cfa_offset 32
	.cfi_offset 29, -32
	.cfi_offset 30, -24
	mov	x29, sp
	str	x0, [sp, 24]
	mov	w0, 0
	cmp	w0, 0
	ldr	x0, [sp, 24]
	bl	_ZNKSt19__shared_ptr_accessINSt13__future_base13_State_baseV2ELN9__gnu_cxx12_Lock_policyE2ELb0ELb0EE6_M_getEv
	ldp	x29, x30, [sp], 32
	.cfi_restore 30
	.cfi_restore 29
	.cfi_def_cfa_offset 0
	ret
	.cfi_endproc
.LFE3942:
	.size	_ZNKSt19__shared_ptr_accessINSt13__future_base13_State_baseV2ELN9__gnu_cxx12_Lock_policyE2ELb0ELb0EEdeEv, .-_ZNKSt19__shared_ptr_accessINSt13__future_base13_State_baseV2ELN9__gnu_cxx12_Lock_policyE2ELb0ELb0EEdeEv
	.section	.text._ZNSt8literals15chrono_literalsli1sIJLc49ELc48EEEENSt6chrono8durationIlSt5ratioILl1ELl1EEEEv,"axG",@progbits,_ZNSt8literals15chrono_literalsli1sIJLc49ELc48EEEENSt6chrono8durationIlSt5ratioILl1ELl1EEEEv,comdat
	.align	2
	.weak	_ZNSt8literals15chrono_literalsli1sIJLc49ELc48EEEENSt6chrono8durationIlSt5ratioILl1ELl1EEEEv
	.type	_ZNSt8literals15chrono_literalsli1sIJLc49ELc48EEEENSt6chrono8durationIlSt5ratioILl1ELl1EEEEv, %function
_ZNSt8literals15chrono_literalsli1sIJLc49ELc48EEEENSt6chrono8durationIlSt5ratioILl1ELl1EEEEv:
.LFB3946:
	.cfi_startproc
	stp	x29, x30, [sp, -16]!
	.cfi_def_cfa_offset 16
	.cfi_offset 29, -16
	.cfi_offset 30, -8
	mov	x29, sp
	bl	_ZNSt8literals15chrono_literals16__check_overflowINSt6chrono8durationIlSt5ratioILl1ELl1EEEEJLc49ELc48EEEET_v
	ldp	x29, x30, [sp], 16
	.cfi_restore 30
	.cfi_restore 29
	.cfi_def_cfa_offset 0
	ret
	.cfi_endproc
.LFE3946:
	.size	_ZNSt8literals15chrono_literalsli1sIJLc49ELc48EEEENSt6chrono8durationIlSt5ratioILl1ELl1EEEEv, .-_ZNSt8literals15chrono_literalsli1sIJLc49ELc48EEEENSt6chrono8durationIlSt5ratioILl1ELl1EEEEv
	.section	.text._ZNSt6chronoleIlSt5ratioILl1ELl1EElS2_EEbRKNS_8durationIT_T0_EERKNS3_IT1_T2_EE,"axG",@progbits,_ZNSt6chronoleIlSt5ratioILl1ELl1EElS2_EEbRKNS_8durationIT_T0_EERKNS3_IT1_T2_EE,comdat
	.align	2
	.weak	_ZNSt6chronoleIlSt5ratioILl1ELl1EElS2_EEbRKNS_8durationIT_T0_EERKNS3_IT1_T2_EE
	.type	_ZNSt6chronoleIlSt5ratioILl1ELl1EElS2_EEbRKNS_8durationIT_T0_EERKNS3_IT1_T2_EE, %function
_ZNSt6chronoleIlSt5ratioILl1ELl1EElS2_EEbRKNS_8durationIT_T0_EERKNS3_IT1_T2_EE:
.LFB3948:
	.cfi_startproc
	stp	x29, x30, [sp, -32]!
	.cfi_def_cfa_offset 32
	.cfi_offset 29, -32
	.cfi_offset 30, -24
	mov	x29, sp
	str	x0, [sp, 24]
	str	x1, [sp, 16]
	ldr	x1, [sp, 24]
	ldr	x0, [sp, 16]
	bl	_ZNSt6chronoltIlSt5ratioILl1ELl1EElS2_EEbRKNS_8durationIT_T0_EERKNS3_IT1_T2_EE
	and	w0, w0, 255
	eor	w0, w0, 1
	and	w0, w0, 255
	ldp	x29, x30, [sp], 32
	.cfi_restore 30
	.cfi_restore 29
	.cfi_def_cfa_offset 0
	ret
	.cfi_endproc
.LFE3948:
	.size	_ZNSt6chronoleIlSt5ratioILl1ELl1EElS2_EEbRKNS_8durationIT_T0_EERKNS3_IT1_T2_EE, .-_ZNSt6chronoleIlSt5ratioILl1ELl1EElS2_EEbRKNS_8durationIT_T0_EERKNS3_IT1_T2_EE
	.section	.text._ZNSt6chrono8durationIlSt5ratioILl1ELl1EEE4zeroEv,"axG",@progbits,_ZNSt6chrono8durationIlSt5ratioILl1ELl1EEE4zeroEv,comdat
	.align	2
	.weak	_ZNSt6chrono8durationIlSt5ratioILl1ELl1EEE4zeroEv
	.type	_ZNSt6chrono8durationIlSt5ratioILl1ELl1EEE4zeroEv, %function
_ZNSt6chrono8durationIlSt5ratioILl1ELl1EEE4zeroEv:
.LFB3949:
	.cfi_startproc
	stp	x29, x30, [sp, -48]!
	.cfi_def_cfa_offset 48
	.cfi_offset 29, -48
	.cfi_offset 30, -40
	mov	x29, sp
	adrp	x0, :got:__stack_chk_guard
	ldr	x0, [x0, #:got_lo12:__stack_chk_guard]
	ldr	x1, [x0]
	str	x1, [sp, 40]
	mov	x1, 0
	bl	_ZNSt6chrono15duration_valuesIlE4zeroEv
	str	x0, [sp, 24]
	add	x1, sp, 24
	add	x0, sp, 32
	bl	_ZNSt6chrono8durationIlSt5ratioILl1ELl1EEEC1IlvEERKT_
	ldr	x0, [sp, 32]
	mov	x1, x0
	adrp	x0, :got:__stack_chk_guard
	ldr	x0, [x0, #:got_lo12:__stack_chk_guard]
	ldr	x3, [sp, 40]
	ldr	x2, [x0]
	subs	x3, x3, x2
	mov	x2, 0
	beq	.L207
	bl	__stack_chk_fail
.L207:
	mov	x0, x1
	ldp	x29, x30, [sp], 48
	.cfi_restore 30
	.cfi_restore 29
	.cfi_def_cfa_offset 0
	ret
	.cfi_endproc
.LFE3949:
	.size	_ZNSt6chrono8durationIlSt5ratioILl1ELl1EEE4zeroEv, .-_ZNSt6chrono8durationIlSt5ratioILl1ELl1EEE4zeroEv
	.section	.text._ZNSt6chrono13duration_castINS_8durationIlSt5ratioILl1ELl1EEEElS3_EENSt9enable_ifIXsrNS_13__is_durationIT_EE5valueES7_E4typeERKNS1_IT0_T1_EE,"axG",@progbits,_ZNSt6chrono13duration_castINS_8durationIlSt5ratioILl1ELl1EEEElS3_EENSt9enable_ifIXsrNS_13__is_durationIT_EE5valueES7_E4typeERKNS1_IT0_T1_EE,comdat
	.align	2
	.weak	_ZNSt6chrono13duration_castINS_8durationIlSt5ratioILl1ELl1EEEElS3_EENSt9enable_ifIXsrNS_13__is_durationIT_EE5valueES7_E4typeERKNS1_IT0_T1_EE
	.type	_ZNSt6chrono13duration_castINS_8durationIlSt5ratioILl1ELl1EEEElS3_EENSt9enable_ifIXsrNS_13__is_durationIT_EE5valueES7_E4typeERKNS1_IT0_T1_EE, %function
_ZNSt6chrono13duration_castINS_8durationIlSt5ratioILl1ELl1EEEElS3_EENSt9enable_ifIXsrNS_13__is_durationIT_EE5valueES7_E4typeERKNS1_IT0_T1_EE:
.LFB3950:
	.cfi_startproc
	stp	x29, x30, [sp, -32]!
	.cfi_def_cfa_offset 32
	.cfi_offset 29, -32
	.cfi_offset 30, -24
	mov	x29, sp
	str	x0, [sp, 24]
	ldr	x0, [sp, 24]
	bl	_ZNSt6chrono20__duration_cast_implINS_8durationIlSt5ratioILl1ELl1EEEES3_lLb1ELb1EE6__castIlS3_EES4_RKNS1_IT_T0_EE
	ldp	x29, x30, [sp], 32
	.cfi_restore 30
	.cfi_restore 29
	.cfi_def_cfa_offset 0
	ret
	.cfi_endproc
.LFE3950:
	.size	_ZNSt6chrono13duration_castINS_8durationIlSt5ratioILl1ELl1EEEElS3_EENSt9enable_ifIXsrNS_13__is_durationIT_EE5valueES7_E4typeERKNS1_IT0_T1_EE, .-_ZNSt6chrono13duration_castINS_8durationIlSt5ratioILl1ELl1EEEElS3_EENSt9enable_ifIXsrNS_13__is_durationIT_EE5valueES7_E4typeERKNS1_IT0_T1_EE
	.section	.text._ZNSt6chrono13duration_castINS_8durationIlSt5ratioILl1ELl1000000000EEEElS2_ILl1ELl1EEEENSt9enable_ifIXsrNS_13__is_durationIT_EE5valueES8_E4typeERKNS1_IT0_T1_EE,"axG",@progbits,_ZNSt6chrono13duration_castINS_8durationIlSt5ratioILl1ELl1000000000EEEElS2_ILl1ELl1EEEENSt9enable_ifIXsrNS_13__is_durationIT_EE5valueES8_E4typeERKNS1_IT0_T1_EE,comdat
	.align	2
	.weak	_ZNSt6chrono13duration_castINS_8durationIlSt5ratioILl1ELl1000000000EEEElS2_ILl1ELl1EEEENSt9enable_ifIXsrNS_13__is_durationIT_EE5valueES8_E4typeERKNS1_IT0_T1_EE
	.type	_ZNSt6chrono13duration_castINS_8durationIlSt5ratioILl1ELl1000000000EEEElS2_ILl1ELl1EEEENSt9enable_ifIXsrNS_13__is_durationIT_EE5valueES8_E4typeERKNS1_IT0_T1_EE, %function
_ZNSt6chrono13duration_castINS_8durationIlSt5ratioILl1ELl1000000000EEEElS2_ILl1ELl1EEEENSt9enable_ifIXsrNS_13__is_durationIT_EE5valueES8_E4typeERKNS1_IT0_T1_EE:
.LFB3951:
	.cfi_startproc
	stp	x29, x30, [sp, -32]!
	.cfi_def_cfa_offset 32
	.cfi_offset 29, -32
	.cfi_offset 30, -24
	mov	x29, sp
	str	x0, [sp, 24]
	ldr	x0, [sp, 24]
	bl	_ZNSt6chrono20__duration_cast_implINS_8durationIlSt5ratioILl1ELl1000000000EEEES2_ILl1000000000ELl1EElLb0ELb1EE6__castIlS2_ILl1ELl1EEEES4_RKNS1_IT_T0_EE
	ldp	x29, x30, [sp], 32
	.cfi_restore 30
	.cfi_restore 29
	.cfi_def_cfa_offset 0
	ret
	.cfi_endproc
.LFE3951:
	.size	_ZNSt6chrono13duration_castINS_8durationIlSt5ratioILl1ELl1000000000EEEElS2_ILl1ELl1EEEENSt9enable_ifIXsrNS_13__is_durationIT_EE5valueES8_E4typeERKNS1_IT0_T1_EE, .-_ZNSt6chrono13duration_castINS_8durationIlSt5ratioILl1ELl1000000000EEEElS2_ILl1ELl1EEEENSt9enable_ifIXsrNS_13__is_durationIT_EE5valueES8_E4typeERKNS1_IT0_T1_EE
	.section	.text._ZNSt6chronomiIlSt5ratioILl1ELl1EElS2_EENSt11common_typeIJNS_8durationIT_T0_EENS4_IT1_T2_EEEE4typeERKS7_RKSA_,"axG",@progbits,_ZNSt6chronomiIlSt5ratioILl1ELl1EElS2_EENSt11common_typeIJNS_8durationIT_T0_EENS4_IT1_T2_EEEE4typeERKS7_RKSA_,comdat
	.align	2
	.weak	_ZNSt6chronomiIlSt5ratioILl1ELl1EElS2_EENSt11common_typeIJNS_8durationIT_T0_EENS4_IT1_T2_EEEE4typeERKS7_RKSA_
	.type	_ZNSt6chronomiIlSt5ratioILl1ELl1EElS2_EENSt11common_typeIJNS_8durationIT_T0_EENS4_IT1_T2_EEEE4typeERKS7_RKSA_, %function
_ZNSt6chronomiIlSt5ratioILl1ELl1EElS2_EENSt11common_typeIJNS_8durationIT_T0_EENS4_IT1_T2_EEEE4typeERKS7_RKSA_:
.LFB3952:
	.cfi_startproc
	stp	x29, x30, [sp, -96]!
	.cfi_def_cfa_offset 96
	.cfi_offset 29, -96
	.cfi_offset 30, -88
	mov	x29, sp
	str	x19, [sp, 16]
	.cfi_offset 19, -80
	str	x0, [sp, 40]
	str	x1, [sp, 32]
	adrp	x0, :got:__stack_chk_guard
	ldr	x0, [x0, #:got_lo12:__stack_chk_guard]
	ldr	x1, [x0]
	str	x1, [sp, 88]
	mov	x1, 0
	ldr	x0, [sp, 40]
	ldr	x0, [x0]
	str	x0, [sp, 56]
	add	x0, sp, 56
	bl	_ZNKSt6chrono8durationIlSt5ratioILl1ELl1EEE5countEv
	mov	x19, x0
	ldr	x0, [sp, 32]
	ldr	x0, [x0]
	str	x0, [sp, 64]
	add	x0, sp, 64
	bl	_ZNKSt6chrono8durationIlSt5ratioILl1ELl1EEE5countEv
	sub	x0, x19, x0
	str	x0, [sp, 72]
	add	x1, sp, 72
	add	x0, sp, 80
	bl	_ZNSt6chrono8durationIlSt5ratioILl1ELl1EEEC1IlvEERKT_
	ldr	x0, [sp, 80]
	mov	x1, x0
	adrp	x0, :got:__stack_chk_guard
	ldr	x0, [x0, #:got_lo12:__stack_chk_guard]
	ldr	x3, [sp, 88]
	ldr	x2, [x0]
	subs	x3, x3, x2
	mov	x2, 0
	beq	.L214
	bl	__stack_chk_fail
.L214:
	mov	x0, x1
	ldr	x19, [sp, 16]
	ldp	x29, x30, [sp], 96
	.cfi_restore 30
	.cfi_restore 29
	.cfi_restore 19
	.cfi_def_cfa_offset 0
	ret
	.cfi_endproc
.LFE3952:
	.size	_ZNSt6chronomiIlSt5ratioILl1ELl1EElS2_EENSt11common_typeIJNS_8durationIT_T0_EENS4_IT1_T2_EEEE4typeERKS7_RKSA_, .-_ZNSt6chronomiIlSt5ratioILl1ELl1EElS2_EENSt11common_typeIJNS_8durationIT_T0_EENS4_IT1_T2_EEEE4typeERKS7_RKSA_
	.section	.text._ZNSt11this_thread9sleep_forIlSt5ratioILl1ELl1EEEEvRKNSt6chrono8durationIT_T0_EE,"axG",@progbits,_ZNSt11this_thread9sleep_forIlSt5ratioILl1ELl1EEEEvRKNSt6chrono8durationIT_T0_EE,comdat
	.align	2
	.weak	_ZNSt11this_thread9sleep_forIlSt5ratioILl1ELl1EEEEvRKNSt6chrono8durationIT_T0_EE
	.type	_ZNSt11this_thread9sleep_forIlSt5ratioILl1ELl1EEEEvRKNSt6chrono8durationIT_T0_EE, %function
_ZNSt11this_thread9sleep_forIlSt5ratioILl1ELl1EEEEvRKNSt6chrono8durationIT_T0_EE:
.LFB3947:
	.cfi_startproc
	stp	x29, x30, [sp, -80]!
	.cfi_def_cfa_offset 80
	.cfi_offset 29, -80
	.cfi_offset 30, -72
	mov	x29, sp
	str	x0, [sp, 24]
	adrp	x0, :got:__stack_chk_guard
	ldr	x0, [x0, #:got_lo12:__stack_chk_guard]
	ldr	x1, [x0]
	str	x1, [sp, 72]
	mov	x1, 0
	bl	_ZNSt6chrono8durationIlSt5ratioILl1ELl1EEE4zeroEv
	str	x0, [sp, 56]
	add	x0, sp, 56
	mov	x1, x0
	ldr	x0, [sp, 24]
	bl	_ZNSt6chronoleIlSt5ratioILl1ELl1EElS2_EEbRKNS_8durationIT_T0_EERKNS3_IT1_T2_EE
	and	w0, w0, 255
	cmp	w0, 0
	bne	.L222
	ldr	x0, [sp, 24]
	bl	_ZNSt6chrono13duration_castINS_8durationIlSt5ratioILl1ELl1EEEElS3_EENSt9enable_ifIXsrNS_13__is_durationIT_EE5valueES7_E4typeERKNS1_IT0_T1_EE
	str	x0, [sp, 40]
	add	x0, sp, 40
	mov	x1, x0
	ldr	x0, [sp, 24]
	bl	_ZNSt6chronomiIlSt5ratioILl1ELl1EElS2_EENSt11common_typeIJNS_8durationIT_T0_EENS4_IT1_T2_EEEE4typeERKS7_RKSA_
	str	x0, [sp, 56]
	add	x0, sp, 56
	bl	_ZNSt6chrono13duration_castINS_8durationIlSt5ratioILl1ELl1000000000EEEElS2_ILl1ELl1EEEENSt9enable_ifIXsrNS_13__is_durationIT_EE5valueES8_E4typeERKNS1_IT0_T1_EE
	str	x0, [sp, 48]
	add	x0, sp, 40
	bl	_ZNKSt6chrono8durationIlSt5ratioILl1ELl1EEE5countEv
	str	x0, [sp, 56]
	add	x0, sp, 48
	bl	_ZNKSt6chrono8durationIlSt5ratioILl1ELl1000000000EEE5countEv
	str	x0, [sp, 64]
	nop
.L220:
	add	x1, sp, 56
	add	x0, sp, 56
	bl	nanosleep
	cmn	w0, #1
	bne	.L218
	bl	__errno_location
	ldr	w0, [x0]
	cmp	w0, 4
	bne	.L218
	mov	w0, 1
	b	.L219
.L218:
	mov	w0, 0
.L219:
	cmp	w0, 0
	bne	.L220
	b	.L215
.L222:
	nop
.L215:
	adrp	x0, :got:__stack_chk_guard
	ldr	x0, [x0, #:got_lo12:__stack_chk_guard]
	ldr	x2, [sp, 72]
	ldr	x1, [x0]
	subs	x2, x2, x1
	mov	x1, 0
	beq	.L221
	bl	__stack_chk_fail
.L221:
	ldp	x29, x30, [sp], 80
	.cfi_restore 30
	.cfi_restore 29
	.cfi_def_cfa_offset 0
	ret
	.cfi_endproc
.LFE3947:
	.size	_ZNSt11this_thread9sleep_forIlSt5ratioILl1ELl1EEEEvRKNSt6chrono8durationIT_T0_EE, .-_ZNSt11this_thread9sleep_forIlSt5ratioILl1ELl1EEEEvRKNSt6chrono8durationIT_T0_EE
	.section	.text._ZNSt7promiseIiE9set_valueEOi,"axG",@progbits,_ZNSt7promiseIiE9set_valueEOi,comdat
	.align	2
	.weak	_ZNSt7promiseIiE9set_valueEOi
	.type	_ZNSt7promiseIiE9set_valueEOi, %function
_ZNSt7promiseIiE9set_valueEOi:
.LFB3953:
	.cfi_startproc
	.cfi_personality 0x9b,DW.ref.__gxx_personality_v0
	.cfi_lsda 0x1b,.LLSDA3953
	stp	x29, x30, [sp, -144]!
	.cfi_def_cfa_offset 144
	.cfi_offset 29, -144
	.cfi_offset 30, -136
	mov	x29, sp
	stp	x19, x20, [sp, 16]
	str	x21, [sp, 32]
	.cfi_offset 19, -128
	.cfi_offset 20, -120
	.cfi_offset 21, -112
	str	x0, [sp, 56]
	str	x1, [sp, 48]
	adrp	x0, :got:__stack_chk_guard
	ldr	x0, [x0, #:got_lo12:__stack_chk_guard]
	ldr	x1, [x0]
	str	x1, [sp, 136]
	mov	x1, 0
	ldr	x0, [sp, 56]
.LEHB13:
	bl	_ZNSt7promiseIiE8_M_stateEv
.LEHE13:
	mov	x19, x0
	ldr	x0, [sp, 48]
	bl	_ZSt4moveIRiEONSt16remove_referenceIT_E4typeEOS2_
	mov	x1, x0
	ldr	x0, [sp, 56]
	str	x0, [sp, 72]
	str	x1, [sp, 80]
	ldr	x20, [sp, 72]
	ldr	x0, [sp, 80]
	bl	_ZSt11__addressofIiEPT_RS0_
	mov	x21, x0
	mov	x0, x20
	mov	x1, x21
	stp	x0, x1, [sp, 88]
	add	x1, sp, 88
	add	x0, sp, 104
	bl	_ZNSt8functionIFSt10unique_ptrINSt13__future_base12_Result_baseENS2_8_DeleterEEvEEC1INS1_13_State_baseV27_SetterIiOiEEvEEOT_
	add	x0, sp, 104
	mov	w2, 0
	mov	x1, x0
	mov	x0, x19
.LEHB14:
	bl	_ZNSt13__future_base13_State_baseV213_M_set_resultESt8functionIFSt10unique_ptrINS_12_Result_baseENS3_8_DeleterEEvEEb
.LEHE14:
	add	x0, sp, 104
	bl	_ZNSt8functionIFSt10unique_ptrINSt13__future_base12_Result_baseENS2_8_DeleterEEvEED1Ev
	nop
	adrp	x0, :got:__stack_chk_guard
	ldr	x0, [x0, #:got_lo12:__stack_chk_guard]
	ldr	x2, [sp, 136]
	ldr	x1, [x0]
	subs	x2, x2, x1
	mov	x1, 0
	beq	.L226
	b	.L228
.L227:
	mov	x19, x0
	add	x0, sp, 104
	bl	_ZNSt8functionIFSt10unique_ptrINSt13__future_base12_Result_baseENS2_8_DeleterEEvEED1Ev
	mov	x0, x19
.LEHB15:
	bl	_Unwind_Resume
.LEHE15:
.L228:
	bl	__stack_chk_fail
.L226:
	ldp	x19, x20, [sp, 16]
	ldr	x21, [sp, 32]
	ldp	x29, x30, [sp], 144
	.cfi_restore 30
	.cfi_restore 29
	.cfi_restore 21
	.cfi_restore 19
	.cfi_restore 20
	.cfi_def_cfa_offset 0
	ret
	.cfi_endproc
.LFE3953:
	.section	.gcc_except_table
.LLSDA3953:
	.byte	0xff
	.byte	0xff
	.byte	0x1
	.uleb128 .LLSDACSE3953-.LLSDACSB3953
.LLSDACSB3953:
	.uleb128 .LEHB13-.LFB3953
	.uleb128 .LEHE13-.LEHB13
	.uleb128 0
	.uleb128 0
	.uleb128 .LEHB14-.LFB3953
	.uleb128 .LEHE14-.LEHB14
	.uleb128 .L227-.LFB3953
	.uleb128 0
	.uleb128 .LEHB15-.LFB3953
	.uleb128 .LEHE15-.LEHB15
	.uleb128 0
	.uleb128 0
.LLSDACSE3953:
	.section	.text._ZNSt7promiseIiE9set_valueEOi,"axG",@progbits,_ZNSt7promiseIiE9set_valueEOi,comdat
	.size	_ZNSt7promiseIiE9set_valueEOi, .-_ZNSt7promiseIiE9set_valueEOi
	.section	.text._ZNSt7promiseIiEC2Ev,"axG",@progbits,_ZNSt7promiseIiEC5Ev,comdat
	.align	2
	.weak	_ZNSt7promiseIiEC2Ev
	.type	_ZNSt7promiseIiEC2Ev, %function
_ZNSt7promiseIiEC2Ev:
.LFB3957:
	.cfi_startproc
	.cfi_personality 0x9b,DW.ref.__gxx_personality_v0
	.cfi_lsda 0x1b,.LLSDA3957
	stp	x29, x30, [sp, -64]!
	.cfi_def_cfa_offset 64
	.cfi_offset 29, -64
	.cfi_offset 30, -56
	mov	x29, sp
	stp	x19, x20, [sp, 16]
	.cfi_offset 19, -48
	.cfi_offset 20, -40
	str	x0, [sp, 40]
	adrp	x0, :got:__stack_chk_guard
	ldr	x0, [x0, #:got_lo12:__stack_chk_guard]
	ldr	x1, [x0]
	str	x1, [sp, 56]
	mov	x1, 0
	ldr	x0, [sp, 40]
	mov	x8, x0
.LEHB16:
	bl	_ZSt11make_sharedINSt13__future_base13_State_baseV2EJEESt10shared_ptrIT_EDpOT0_
.LEHE16:
	ldr	x0, [sp, 40]
	add	x19, x0, 16
	mov	x0, 24
.LEHB17:
	bl	_Znwm
.LEHE17:
	mov	x20, x0
	mov	x0, x20
	bl	_ZNSt13__future_base7_ResultIiEC1Ev
	mov	x1, x20
	mov	x0, x19
	bl	_ZNSt10unique_ptrINSt13__future_base7_ResultIiEENS0_12_Result_base8_DeleterEEC1IS4_vEEPS2_
	nop
	adrp	x0, :got:__stack_chk_guard
	ldr	x0, [x0, #:got_lo12:__stack_chk_guard]
	ldr	x2, [sp, 56]
	ldr	x1, [x0]
	subs	x2, x2, x1
	mov	x1, 0
	beq	.L231
	b	.L233
.L232:
	mov	x19, x0
	ldr	x0, [sp, 40]
	bl	_ZNSt10shared_ptrINSt13__future_base13_State_baseV2EED1Ev
	mov	x0, x19
.LEHB18:
	bl	_Unwind_Resume
.LEHE18:
.L233:
	bl	__stack_chk_fail
.L231:
	ldp	x19, x20, [sp, 16]
	ldp	x29, x30, [sp], 64
	.cfi_restore 30
	.cfi_restore 29
	.cfi_restore 19
	.cfi_restore 20
	.cfi_def_cfa_offset 0
	ret
	.cfi_endproc
.LFE3957:
	.section	.gcc_except_table
.LLSDA3957:
	.byte	0xff
	.byte	0xff
	.byte	0x1
	.uleb128 .LLSDACSE3957-.LLSDACSB3957
.LLSDACSB3957:
	.uleb128 .LEHB16-.LFB3957
	.uleb128 .LEHE16-.LEHB16
	.uleb128 0
	.uleb128 0
	.uleb128 .LEHB17-.LFB3957
	.uleb128 .LEHE17-.LEHB17
	.uleb128 .L232-.LFB3957
	.uleb128 0
	.uleb128 .LEHB18-.LFB3957
	.uleb128 .LEHE18-.LEHB18
	.uleb128 0
	.uleb128 0
.LLSDACSE3957:
	.section	.text._ZNSt7promiseIiEC2Ev,"axG",@progbits,_ZNSt7promiseIiEC5Ev,comdat
	.size	_ZNSt7promiseIiEC2Ev, .-_ZNSt7promiseIiEC2Ev
	.weak	_ZNSt7promiseIiEC1Ev
	.set	_ZNSt7promiseIiEC1Ev,_ZNSt7promiseIiEC2Ev
	.section	.text._ZNSt7promiseIiED2Ev,"axG",@progbits,_ZNSt7promiseIiED5Ev,comdat
	.align	2
	.weak	_ZNSt7promiseIiED2Ev
	.type	_ZNSt7promiseIiED2Ev, %function
_ZNSt7promiseIiED2Ev:
.LFB3960:
	.cfi_startproc
	.cfi_personality 0x9b,DW.ref.__gxx_personality_v0
	.cfi_lsda 0x1b,.LLSDA3960
	stp	x29, x30, [sp, -64]!
	.cfi_def_cfa_offset 64
	.cfi_offset 29, -64
	.cfi_offset 30, -56
	mov	x29, sp
	str	x19, [sp, 16]
	.cfi_offset 19, -48
	str	x0, [sp, 40]
	adrp	x0, :got:__stack_chk_guard
	ldr	x0, [x0, #:got_lo12:__stack_chk_guard]
	ldr	x1, [x0]
	str	x1, [sp, 56]
	mov	x1, 0
	ldr	x0, [sp, 40]
	bl	_ZNKSt12__shared_ptrINSt13__future_base13_State_baseV2ELN9__gnu_cxx12_Lock_policyE2EEcvbEv
	and	w0, w0, 255
	cmp	w0, 0
	beq	.L235
	ldr	x0, [sp, 40]
	bl	_ZNKSt12__shared_ptrINSt13__future_base13_State_baseV2ELN9__gnu_cxx12_Lock_policyE2EE6uniqueEv
	and	w0, w0, 255
	eor	w0, w0, 1
	and	w0, w0, 255
	cmp	w0, 0
	beq	.L235
	mov	w0, 1
	b	.L236
.L235:
	mov	w0, 0
.L236:
	cmp	w0, 0
	beq	.L237
	ldr	x0, [sp, 40]
	bl	_ZNKSt19__shared_ptr_accessINSt13__future_base13_State_baseV2ELN9__gnu_cxx12_Lock_policyE2ELb0ELb0EEptEv
	mov	x19, x0
	ldr	x0, [sp, 40]
	add	x0, x0, 16
	bl	_ZSt4moveIRSt10unique_ptrINSt13__future_base7_ResultIiEENS1_12_Result_base8_DeleterEEEONSt16remove_referenceIT_E4typeEOS9_
	mov	x1, x0
	add	x0, sp, 48
	bl	_ZNSt10unique_ptrINSt13__future_base12_Result_baseENS1_8_DeleterEEC1INS0_7_ResultIiEES2_vEEOS_IT_T0_E
	add	x0, sp, 48
	mov	x1, x0
	mov	x0, x19
	bl	_ZNSt13__future_base13_State_baseV216_M_break_promiseESt10unique_ptrINS_12_Result_baseENS2_8_DeleterEE
	add	x0, sp, 48
	bl	_ZNSt10unique_ptrINSt13__future_base12_Result_baseENS1_8_DeleterEED1Ev
.L237:
	ldr	x0, [sp, 40]
	add	x0, x0, 16
	bl	_ZNSt10unique_ptrINSt13__future_base7_ResultIiEENS0_12_Result_base8_DeleterEED1Ev
	ldr	x0, [sp, 40]
	bl	_ZNSt10shared_ptrINSt13__future_base13_State_baseV2EED1Ev
	nop
	adrp	x0, :got:__stack_chk_guard
	ldr	x0, [x0, #:got_lo12:__stack_chk_guard]
	ldr	x2, [sp, 56]
	ldr	x1, [x0]
	subs	x2, x2, x1
	mov	x1, 0
	beq	.L238
	bl	__stack_chk_fail
.L238:
	ldr	x19, [sp, 16]
	ldp	x29, x30, [sp], 64
	.cfi_restore 30
	.cfi_restore 29
	.cfi_restore 19
	.cfi_def_cfa_offset 0
	ret
	.cfi_endproc
.LFE3960:
	.section	.gcc_except_table
.LLSDA3960:
	.byte	0xff
	.byte	0xff
	.byte	0x1
	.uleb128 .LLSDACSE3960-.LLSDACSB3960
.LLSDACSB3960:
.LLSDACSE3960:
	.section	.text._ZNSt7promiseIiED2Ev,"axG",@progbits,_ZNSt7promiseIiED5Ev,comdat
	.size	_ZNSt7promiseIiED2Ev, .-_ZNSt7promiseIiED2Ev
	.weak	_ZNSt7promiseIiED1Ev
	.set	_ZNSt7promiseIiED1Ev,_ZNSt7promiseIiED2Ev
	.section	.text._ZNSt7promiseIiE10get_futureEv,"axG",@progbits,_ZNSt7promiseIiE10get_futureEv,comdat
	.align	2
	.weak	_ZNSt7promiseIiE10get_futureEv
	.type	_ZNSt7promiseIiE10get_futureEv, %function
_ZNSt7promiseIiE10get_futureEv:
.LFB3962:
	.cfi_startproc
	stp	x29, x30, [sp, -48]!
	.cfi_def_cfa_offset 48
	.cfi_offset 29, -48
	.cfi_offset 30, -40
	mov	x29, sp
	str	x19, [sp, 16]
	.cfi_offset 19, -32
	mov	x19, x8
	str	x0, [sp, 40]
	ldr	x0, [sp, 40]
	mov	x1, x0
	mov	x0, x19
	bl	_ZNSt6futureIiEC1ERKSt10shared_ptrINSt13__future_base13_State_baseV2EE
	mov	x0, x19
	ldr	x19, [sp, 16]
	ldp	x29, x30, [sp], 48
	.cfi_restore 30
	.cfi_restore 29
	.cfi_restore 19
	.cfi_def_cfa_offset 0
	ret
	.cfi_endproc
.LFE3962:
	.size	_ZNSt7promiseIiE10get_futureEv, .-_ZNSt7promiseIiE10get_futureEv
	.section	.text._ZSt4moveIRSt7promiseIiEEONSt16remove_referenceIT_E4typeEOS4_,"axG",@progbits,_ZSt4moveIRSt7promiseIiEEONSt16remove_referenceIT_E4typeEOS4_,comdat
	.align	2
	.weak	_ZSt4moveIRSt7promiseIiEEONSt16remove_referenceIT_E4typeEOS4_
	.type	_ZSt4moveIRSt7promiseIiEEONSt16remove_referenceIT_E4typeEOS4_, %function
_ZSt4moveIRSt7promiseIiEEONSt16remove_referenceIT_E4typeEOS4_:
.LFB3963:
	.cfi_startproc
	sub	sp, sp, #16
	.cfi_def_cfa_offset 16
	str	x0, [sp, 8]
	ldr	x0, [sp, 8]
	add	sp, sp, 16
	.cfi_def_cfa_offset 0
	ret
	.cfi_endproc
.LFE3963:
	.size	_ZSt4moveIRSt7promiseIiEEONSt16remove_referenceIT_E4typeEOS4_, .-_ZSt4moveIRSt7promiseIiEEONSt16remove_referenceIT_E4typeEOS4_
	.section	.text._ZNSt6threadC2IRFvOSt7promiseIiEEJS2_EvEEOT_DpOT0_,"axG",@progbits,_ZNSt6threadC5IRFvOSt7promiseIiEEJS2_EvEEOT_DpOT0_,comdat
	.align	2
	.weak	_ZNSt6threadC2IRFvOSt7promiseIiEEJS2_EvEEOT_DpOT0_
	.type	_ZNSt6threadC2IRFvOSt7promiseIiEEJS2_EvEEOT_DpOT0_, %function
_ZNSt6threadC2IRFvOSt7promiseIiEEJS2_EvEEOT_DpOT0_:
.LFB3981:
	.cfi_startproc
	.cfi_personality 0x9b,DW.ref.__gxx_personality_v0
	.cfi_lsda 0x1b,.LLSDA3981
	stp	x29, x30, [sp, -112]!
	.cfi_def_cfa_offset 112
	.cfi_offset 29, -112
	.cfi_offset 30, -104
	mov	x29, sp
	stp	x19, x20, [sp, 16]
	str	x21, [sp, 32]
	.cfi_offset 19, -96
	.cfi_offset 20, -88
	.cfi_offset 21, -80
	str	x0, [sp, 72]
	str	x1, [sp, 64]
	str	x2, [sp, 56]
	adrp	x0, :got:__stack_chk_guard
	ldr	x0, [x0, #:got_lo12:__stack_chk_guard]
	ldr	x1, [x0]
	str	x1, [sp, 104]
	mov	x1, 0
	ldr	x0, [sp, 72]
	bl	_ZNSt6thread2idC1Ev
	str	xzr, [sp, 96]
	ldr	x0, [sp, 64]
	bl	_ZSt7forwardIRFvOSt7promiseIiEEEOT_RNSt16remove_referenceIS5_E4typeE
	mov	x20, x0
	ldr	x0, [sp, 56]
	bl	_ZSt7forwardISt7promiseIiEEOT_RNSt16remove_referenceIS2_E4typeE
	mov	x21, x0
	mov	x0, 40
.LEHB19:
	bl	_Znwm
.LEHE19:
	mov	x19, x0
	mov	x2, x21
	mov	x1, x20
	mov	x0, x19
.LEHB20:
	bl	_ZNSt6thread11_State_implINS_8_InvokerISt5tupleIJPFvOSt7promiseIiEES4_EEEEEC1IJRS6_S4_EEEDpOT_
.LEHE20:
	add	x0, sp, 88
	mov	x1, x19
	bl	_ZNSt10unique_ptrINSt6thread6_StateESt14default_deleteIS1_EEC1IS3_vEEPS1_
	add	x0, sp, 88
	mov	x2, 0
	mov	x1, x0
	ldr	x0, [sp, 72]
.LEHB21:
	bl	_ZNSt6thread15_M_start_threadESt10unique_ptrINS_6_StateESt14default_deleteIS1_EEPFvvE
.LEHE21:
	add	x0, sp, 88
	bl	_ZNSt10unique_ptrINSt6thread6_StateESt14default_deleteIS1_EED1Ev
	nop
	adrp	x0, :got:__stack_chk_guard
	ldr	x0, [x0, #:got_lo12:__stack_chk_guard]
	ldr	x2, [sp, 104]
	ldr	x1, [x0]
	subs	x2, x2, x1
	mov	x1, 0
	beq	.L246
	b	.L249
.L247:
	mov	x20, x0
	mov	x1, 40
	mov	x0, x19
	bl	_ZdlPvm
	mov	x0, x20
.LEHB22:
	bl	_Unwind_Resume
.L248:
	mov	x19, x0
	add	x0, sp, 88
	bl	_ZNSt10unique_ptrINSt6thread6_StateESt14default_deleteIS1_EED1Ev
	mov	x0, x19
	bl	_Unwind_Resume
.LEHE22:
.L249:
	bl	__stack_chk_fail
.L246:
	ldp	x19, x20, [sp, 16]
	ldr	x21, [sp, 32]
	ldp	x29, x30, [sp], 112
	.cfi_restore 30
	.cfi_restore 29
	.cfi_restore 21
	.cfi_restore 19
	.cfi_restore 20
	.cfi_def_cfa_offset 0
	ret
	.cfi_endproc
.LFE3981:
	.section	.gcc_except_table
.LLSDA3981:
	.byte	0xff
	.byte	0xff
	.byte	0x1
	.uleb128 .LLSDACSE3981-.LLSDACSB3981
.LLSDACSB3981:
	.uleb128 .LEHB19-.LFB3981
	.uleb128 .LEHE19-.LEHB19
	.uleb128 0
	.uleb128 0
	.uleb128 .LEHB20-.LFB3981
	.uleb128 .LEHE20-.LEHB20
	.uleb128 .L247-.LFB3981
	.uleb128 0
	.uleb128 .LEHB21-.LFB3981
	.uleb128 .LEHE21-.LEHB21
	.uleb128 .L248-.LFB3981
	.uleb128 0
	.uleb128 .LEHB22-.LFB3981
	.uleb128 .LEHE22-.LEHB22
	.uleb128 0
	.uleb128 0
.LLSDACSE3981:
	.section	.text._ZNSt6threadC2IRFvOSt7promiseIiEEJS2_EvEEOT_DpOT0_,"axG",@progbits,_ZNSt6threadC5IRFvOSt7promiseIiEEJS2_EvEEOT_DpOT0_,comdat
	.size	_ZNSt6threadC2IRFvOSt7promiseIiEEJS2_EvEEOT_DpOT0_, .-_ZNSt6threadC2IRFvOSt7promiseIiEEJS2_EvEEOT_DpOT0_
	.weak	_ZNSt6threadC1IRFvOSt7promiseIiEEJS2_EvEEOT_DpOT0_
	.set	_ZNSt6threadC1IRFvOSt7promiseIiEEJS2_EvEEOT_DpOT0_,_ZNSt6threadC2IRFvOSt7promiseIiEEJS2_EvEEOT_DpOT0_
	.section	.text._ZNSt6futureIiE3getEv,"axG",@progbits,_ZNSt6futureIiE3getEv,comdat
	.align	2
	.weak	_ZNSt6futureIiE3getEv
	.type	_ZNSt6futureIiE3getEv, %function
_ZNSt6futureIiE3getEv:
.LFB3983:
	.cfi_startproc
	.cfi_personality 0x9b,DW.ref.__gxx_personality_v0
	.cfi_lsda 0x1b,.LLSDA3983
	stp	x29, x30, [sp, -64]!
	.cfi_def_cfa_offset 64
	.cfi_offset 29, -64
	.cfi_offset 30, -56
	mov	x29, sp
	str	x19, [sp, 16]
	.cfi_offset 19, -48
	str	x0, [sp, 40]
	adrp	x0, :got:__stack_chk_guard
	ldr	x0, [x0, #:got_lo12:__stack_chk_guard]
	ldr	x1, [x0]
	str	x1, [sp, 56]
	mov	x1, 0
	ldr	x1, [sp, 40]
	add	x0, sp, 48
	bl	_ZNSt14__basic_futureIiE6_ResetC1ERS0_
	ldr	x0, [sp, 40]
.LEHB23:
	bl	_ZNKSt14__basic_futureIiE13_M_get_resultEv
.LEHE23:
	bl	_ZNSt13__future_base7_ResultIiE8_M_valueEv
	bl	_ZSt4moveIRiEONSt16remove_referenceIT_E4typeEOS2_
	ldr	w19, [x0]
	add	x0, sp, 48
	bl	_ZNSt14__basic_futureIiE6_ResetD1Ev
	mov	w1, w19
	adrp	x0, :got:__stack_chk_guard
	ldr	x0, [x0, #:got_lo12:__stack_chk_guard]
	ldr	x3, [sp, 56]
	ldr	x2, [x0]
	subs	x3, x3, x2
	mov	x2, 0
	beq	.L253
	b	.L255
.L254:
	mov	x19, x0
	add	x0, sp, 48
	bl	_ZNSt14__basic_futureIiE6_ResetD1Ev
	mov	x0, x19
.LEHB24:
	bl	_Unwind_Resume
.LEHE24:
.L255:
	bl	__stack_chk_fail
.L253:
	mov	w0, w1
	ldr	x19, [sp, 16]
	ldp	x29, x30, [sp], 64
	.cfi_restore 30
	.cfi_restore 29
	.cfi_restore 19
	.cfi_def_cfa_offset 0
	ret
	.cfi_endproc
.LFE3983:
	.section	.gcc_except_table
.LLSDA3983:
	.byte	0xff
	.byte	0xff
	.byte	0x1
	.uleb128 .LLSDACSE3983-.LLSDACSB3983
.LLSDACSB3983:
	.uleb128 .LEHB23-.LFB3983
	.uleb128 .LEHE23-.LEHB23
	.uleb128 .L254-.LFB3983
	.uleb128 0
	.uleb128 .LEHB24-.LFB3983
	.uleb128 .LEHE24-.LEHB24
	.uleb128 0
	.uleb128 0
.LLSDACSE3983:
	.section	.text._ZNSt6futureIiE3getEv,"axG",@progbits,_ZNSt6futureIiE3getEv,comdat
	.size	_ZNSt6futureIiE3getEv, .-_ZNSt6futureIiE3getEv
	.section	.text._ZSt4moveIRNSt7__cxx1112basic_stringIcSt11char_traitsIcESaIcEEEEONSt16remove_referenceIT_E4typeEOS8_,"axG",@progbits,_ZSt4moveIRNSt7__cxx1112basic_stringIcSt11char_traitsIcESaIcEEEEONSt16remove_referenceIT_E4typeEOS8_,comdat
	.align	2
	.weak	_ZSt4moveIRNSt7__cxx1112basic_stringIcSt11char_traitsIcESaIcEEEEONSt16remove_referenceIT_E4typeEOS8_
	.type	_ZSt4moveIRNSt7__cxx1112basic_stringIcSt11char_traitsIcESaIcEEEEONSt16remove_referenceIT_E4typeEOS8_, %function
_ZSt4moveIRNSt7__cxx1112basic_stringIcSt11char_traitsIcESaIcEEEEONSt16remove_referenceIT_E4typeEOS8_:
.LFB4060:
	.cfi_startproc
	sub	sp, sp, #16
	.cfi_def_cfa_offset 16
	str	x0, [sp, 8]
	ldr	x0, [sp, 8]
	add	sp, sp, 16
	.cfi_def_cfa_offset 0
	ret
	.cfi_endproc
.LFE4060:
	.size	_ZSt4moveIRNSt7__cxx1112basic_stringIcSt11char_traitsIcESaIcEEEEONSt16remove_referenceIT_E4typeEOS8_, .-_ZSt4moveIRNSt7__cxx1112basic_stringIcSt11char_traitsIcESaIcEEEEONSt16remove_referenceIT_E4typeEOS8_
	.global	__aarch64_ldadd4_acq_rel
	.section	.text._ZNSt16_Sp_counted_baseILN9__gnu_cxx12_Lock_policyE2EE10_M_releaseEv,"axG",@progbits,_ZNSt16_Sp_counted_baseILN9__gnu_cxx12_Lock_policyE2EE10_M_releaseEv,comdat
	.align	2
	.weak	_ZNSt16_Sp_counted_baseILN9__gnu_cxx12_Lock_policyE2EE10_M_releaseEv
	.type	_ZNSt16_Sp_counted_baseILN9__gnu_cxx12_Lock_policyE2EE10_M_releaseEv, %function
_ZNSt16_Sp_counted_baseILN9__gnu_cxx12_Lock_policyE2EE10_M_releaseEv:
.LFB4083:
	.cfi_startproc
	stp	x29, x30, [sp, -112]!
	.cfi_def_cfa_offset 112
	.cfi_offset 29, -112
	.cfi_offset 30, -104
	mov	x29, sp
	str	x0, [sp, 24]
	ldr	x0, [sp, 24]
	add	x0, x0, 8
	str	x0, [sp, 64]
	mov	w0, -1
	str	w0, [sp, 32]
	adrp	x0, :got:__libc_single_threaded
	ldr	x0, [x0, #:got_lo12:__libc_single_threaded]
	ldrb	w0, [x0]
	cmp	w0, 0
	cset	w0, ne
	and	w0, w0, 255
	cmp	w0, 0
	beq	.L260
	ldr	x0, [sp, 64]
	str	x0, [sp, 72]
	ldr	w0, [sp, 32]
	str	w0, [sp, 36]
	ldr	x0, [sp, 72]
	ldr	w0, [x0]
	str	w0, [sp, 40]
	ldr	x0, [sp, 72]
	ldr	w1, [x0]
	ldr	w0, [sp, 36]
	add	w1, w1, w0
	ldr	x0, [sp, 72]
	str	w1, [x0]
	ldr	w0, [sp, 40]
	b	.L262
.L260:
	ldr	x0, [sp, 64]
	str	x0, [sp, 80]
	ldr	w0, [sp, 32]
	str	w0, [sp, 44]
	ldr	w0, [sp, 44]
	ldr	x1, [sp, 80]
	bl	__aarch64_ldadd4_acq_rel
	nop
.L262:
	cmp	w0, 1
	cset	w0, eq
	and	w0, w0, 255
	cmp	w0, 0
	beq	.L270
	ldr	x0, [sp, 24]
	ldr	x0, [x0]
	add	x0, x0, 16
	ldr	x1, [x0]
	ldr	x0, [sp, 24]
	blr	x1
	ldr	x0, [sp, 24]
	add	x0, x0, 12
	str	x0, [sp, 88]
	mov	w0, -1
	str	w0, [sp, 48]
	adrp	x0, :got:__libc_single_threaded
	ldr	x0, [x0, #:got_lo12:__libc_single_threaded]
	ldrb	w0, [x0]
	cmp	w0, 0
	cset	w0, ne
	and	w0, w0, 255
	cmp	w0, 0
	beq	.L266
	ldr	x0, [sp, 88]
	str	x0, [sp, 96]
	ldr	w0, [sp, 48]
	str	w0, [sp, 52]
	ldr	x0, [sp, 96]
	ldr	w0, [x0]
	str	w0, [sp, 56]
	ldr	x0, [sp, 96]
	ldr	w1, [x0]
	ldr	w0, [sp, 52]
	add	w1, w1, w0
	ldr	x0, [sp, 96]
	str	w1, [x0]
	ldr	w0, [sp, 56]
	b	.L268
.L266:
	ldr	x0, [sp, 88]
	str	x0, [sp, 104]
	ldr	w0, [sp, 48]
	str	w0, [sp, 60]
	ldr	w0, [sp, 60]
	ldr	x1, [sp, 104]
	bl	__aarch64_ldadd4_acq_rel
	nop
.L268:
	cmp	w0, 1
	cset	w0, eq
	and	w0, w0, 255
	cmp	w0, 0
	beq	.L270
	ldr	x0, [sp, 24]
	ldr	x0, [x0]
	add	x0, x0, 24
	ldr	x1, [x0]
	ldr	x0, [sp, 24]
	blr	x1
.L270:
	nop
	ldp	x29, x30, [sp], 112
	.cfi_restore 30
	.cfi_restore 29
	.cfi_def_cfa_offset 0
	ret
	.cfi_endproc
.LFE4083:
	.size	_ZNSt16_Sp_counted_baseILN9__gnu_cxx12_Lock_policyE2EE10_M_releaseEv, .-_ZNSt16_Sp_counted_baseILN9__gnu_cxx12_Lock_policyE2EE10_M_releaseEv
	.section	.text._ZNSt11_Tuple_implILm0EJPNSt13__future_base12_Result_baseENS1_8_DeleterEEEC2Ev,"axG",@progbits,_ZNSt11_Tuple_implILm0EJPNSt13__future_base12_Result_baseENS1_8_DeleterEEEC5Ev,comdat
	.align	2
	.weak	_ZNSt11_Tuple_implILm0EJPNSt13__future_base12_Result_baseENS1_8_DeleterEEEC2Ev
	.type	_ZNSt11_Tuple_implILm0EJPNSt13__future_base12_Result_baseENS1_8_DeleterEEEC2Ev, %function
_ZNSt11_Tuple_implILm0EJPNSt13__future_base12_Result_baseENS1_8_DeleterEEEC2Ev:
.LFB4087:
	.cfi_startproc
	stp	x29, x30, [sp, -32]!
	.cfi_def_cfa_offset 32
	.cfi_offset 29, -32
	.cfi_offset 30, -24
	mov	x29, sp
	str	x0, [sp, 24]
	ldr	x0, [sp, 24]
	bl	_ZNSt11_Tuple_implILm1EJNSt13__future_base12_Result_base8_DeleterEEEC2Ev
	ldr	x0, [sp, 24]
	bl	_ZNSt10_Head_baseILm0EPNSt13__future_base12_Result_baseELb0EEC2Ev
	nop
	ldp	x29, x30, [sp], 32
	.cfi_restore 30
	.cfi_restore 29
	.cfi_def_cfa_offset 0
	ret
	.cfi_endproc
.LFE4087:
	.size	_ZNSt11_Tuple_implILm0EJPNSt13__future_base12_Result_baseENS1_8_DeleterEEEC2Ev, .-_ZNSt11_Tuple_implILm0EJPNSt13__future_base12_Result_baseENS1_8_DeleterEEEC2Ev
	.weak	_ZNSt11_Tuple_implILm0EJPNSt13__future_base12_Result_baseENS1_8_DeleterEEEC1Ev
	.set	_ZNSt11_Tuple_implILm0EJPNSt13__future_base12_Result_baseENS1_8_DeleterEEEC1Ev,_ZNSt11_Tuple_implILm0EJPNSt13__future_base12_Result_baseENS1_8_DeleterEEEC2Ev
	.section	.text._ZNSt15__uniq_ptr_implINSt13__future_base12_Result_baseENS1_8_DeleterEE6_M_ptrEv,"axG",@progbits,_ZNSt15__uniq_ptr_implINSt13__future_base12_Result_baseENS1_8_DeleterEE6_M_ptrEv,comdat
	.align	2
	.weak	_ZNSt15__uniq_ptr_implINSt13__future_base12_Result_baseENS1_8_DeleterEE6_M_ptrEv
	.type	_ZNSt15__uniq_ptr_implINSt13__future_base12_Result_baseENS1_8_DeleterEE6_M_ptrEv, %function
_ZNSt15__uniq_ptr_implINSt13__future_base12_Result_baseENS1_8_DeleterEE6_M_ptrEv:
.LFB4089:
	.cfi_startproc
	stp	x29, x30, [sp, -32]!
	.cfi_def_cfa_offset 32
	.cfi_offset 29, -32
	.cfi_offset 30, -24
	mov	x29, sp
	str	x0, [sp, 24]
	ldr	x0, [sp, 24]
	bl	_ZSt3getILm0EJPNSt13__future_base12_Result_baseENS1_8_DeleterEEERNSt13tuple_elementIXT_ESt5tupleIJDpT0_EEE4typeERS8_
	ldp	x29, x30, [sp], 32
	.cfi_restore 30
	.cfi_restore 29
	.cfi_def_cfa_offset 0
	ret
	.cfi_endproc
.LFE4089:
	.size	_ZNSt15__uniq_ptr_implINSt13__future_base12_Result_baseENS1_8_DeleterEE6_M_ptrEv, .-_ZNSt15__uniq_ptr_implINSt13__future_base12_Result_baseENS1_8_DeleterEE6_M_ptrEv
	.section	.text._ZNSt10unique_ptrINSt13__future_base12_Result_baseENS1_8_DeleterEE11get_deleterEv,"axG",@progbits,_ZNSt10unique_ptrINSt13__future_base12_Result_baseENS1_8_DeleterEE11get_deleterEv,comdat
	.align	2
	.weak	_ZNSt10unique_ptrINSt13__future_base12_Result_baseENS1_8_DeleterEE11get_deleterEv
	.type	_ZNSt10unique_ptrINSt13__future_base12_Result_baseENS1_8_DeleterEE11get_deleterEv, %function
_ZNSt10unique_ptrINSt13__future_base12_Result_baseENS1_8_DeleterEE11get_deleterEv:
.LFB4090:
	.cfi_startproc
	stp	x29, x30, [sp, -32]!
	.cfi_def_cfa_offset 32
	.cfi_offset 29, -32
	.cfi_offset 30, -24
	mov	x29, sp
	str	x0, [sp, 24]
	ldr	x0, [sp, 24]
	bl	_ZNSt15__uniq_ptr_implINSt13__future_base12_Result_baseENS1_8_DeleterEE10_M_deleterEv
	ldp	x29, x30, [sp], 32
	.cfi_restore 30
	.cfi_restore 29
	.cfi_def_cfa_offset 0
	ret
	.cfi_endproc
.LFE4090:
	.size	_ZNSt10unique_ptrINSt13__future_base12_Result_baseENS1_8_DeleterEE11get_deleterEv, .-_ZNSt10unique_ptrINSt13__future_base12_Result_baseENS1_8_DeleterEE11get_deleterEv
	.section	.text._ZSt4moveIRPNSt13__future_base12_Result_baseEEONSt16remove_referenceIT_E4typeEOS5_,"axG",@progbits,_ZSt4moveIRPNSt13__future_base12_Result_baseEEONSt16remove_referenceIT_E4typeEOS5_,comdat
	.align	2
	.weak	_ZSt4moveIRPNSt13__future_base12_Result_baseEEONSt16remove_referenceIT_E4typeEOS5_
	.type	_ZSt4moveIRPNSt13__future_base12_Result_baseEEONSt16remove_referenceIT_E4typeEOS5_, %function
_ZSt4moveIRPNSt13__future_base12_Result_baseEEONSt16remove_referenceIT_E4typeEOS5_:
.LFB4091:
	.cfi_startproc
	sub	sp, sp, #16
	.cfi_def_cfa_offset 16
	str	x0, [sp, 8]
	ldr	x0, [sp, 8]
	add	sp, sp, 16
	.cfi_def_cfa_offset 0
	ret
	.cfi_endproc
.LFE4091:
	.size	_ZSt4moveIRPNSt13__future_base12_Result_baseEEONSt16remove_referenceIT_E4typeEOS5_, .-_ZSt4moveIRPNSt13__future_base12_Result_baseEEONSt16remove_referenceIT_E4typeEOS5_
	.section	.text._ZNSt23__atomic_futex_unsignedILj2147483648EE16_M_load_and_testEjjbSt12memory_order,"axG",@progbits,_ZNSt23__atomic_futex_unsignedILj2147483648EE16_M_load_and_testEjjbSt12memory_order,comdat
	.align	2
	.weak	_ZNSt23__atomic_futex_unsignedILj2147483648EE16_M_load_and_testEjjbSt12memory_order
	.type	_ZNSt23__atomic_futex_unsignedILj2147483648EE16_M_load_and_testEjjbSt12memory_order, %function
_ZNSt23__atomic_futex_unsignedILj2147483648EE16_M_load_and_testEjjbSt12memory_order:
.LFB4093:
	.cfi_startproc
	stp	x29, x30, [sp, -48]!
	.cfi_def_cfa_offset 48
	.cfi_offset 29, -48
	.cfi_offset 30, -40
	mov	x29, sp
	str	x0, [sp, 40]
	str	w1, [sp, 36]
	str	w2, [sp, 32]
	strb	w3, [sp, 31]
	str	w4, [sp, 24]
	mov	x0, 0
	mov	x1, 0
	mov	x7, x1
	mov	x6, x0
	mov	w5, 0
	ldr	w4, [sp, 24]
	ldrb	w3, [sp, 31]
	ldr	w2, [sp, 32]
	ldr	w1, [sp, 36]
	ldr	x0, [sp, 40]
	bl	_ZNSt23__atomic_futex_unsignedILj2147483648EE22_M_load_and_test_untilEjjbSt12memory_orderbNSt6chrono8durationIlSt5ratioILl1ELl1EEEENS3_IlS4_ILl1ELl1000000000EEEE
	ldp	x29, x30, [sp], 48
	.cfi_restore 30
	.cfi_restore 29
	.cfi_def_cfa_offset 0
	ret
	.cfi_endproc
.LFE4093:
	.size	_ZNSt23__atomic_futex_unsignedILj2147483648EE16_M_load_and_testEjjbSt12memory_order, .-_ZNSt23__atomic_futex_unsignedILj2147483648EE16_M_load_and_testEjjbSt12memory_order
	.section	.text._ZNKSt10unique_ptrINSt13__future_base12_Result_baseENS1_8_DeleterEE3getEv,"axG",@progbits,_ZNKSt10unique_ptrINSt13__future_base12_Result_baseENS1_8_DeleterEE3getEv,comdat
	.align	2
	.weak	_ZNKSt10unique_ptrINSt13__future_base12_Result_baseENS1_8_DeleterEE3getEv
	.type	_ZNKSt10unique_ptrINSt13__future_base12_Result_baseENS1_8_DeleterEE3getEv, %function
_ZNKSt10unique_ptrINSt13__future_base12_Result_baseENS1_8_DeleterEE3getEv:
.LFB4094:
	.cfi_startproc
	stp	x29, x30, [sp, -32]!
	.cfi_def_cfa_offset 32
	.cfi_offset 29, -32
	.cfi_offset 30, -24
	mov	x29, sp
	str	x0, [sp, 24]
	ldr	x0, [sp, 24]
	bl	_ZNKSt15__uniq_ptr_implINSt13__future_base12_Result_baseENS1_8_DeleterEE6_M_ptrEv
	ldp	x29, x30, [sp], 32
	.cfi_restore 30
	.cfi_restore 29
	.cfi_def_cfa_offset 0
	ret
	.cfi_endproc
.LFE4094:
	.size	_ZNKSt10unique_ptrINSt13__future_base12_Result_baseENS1_8_DeleterEE3getEv, .-_ZNKSt10unique_ptrINSt13__future_base12_Result_baseENS1_8_DeleterEE3getEv
	.section	.text._ZSt7forwardIMNSt13__future_base13_State_baseV2EFvPSt8functionIFSt10unique_ptrINS0_12_Result_baseENS4_8_DeleterEEvEEPbEEOT_RNSt16remove_referenceISD_E4typeE,"axG",@progbits,_ZSt7forwardIMNSt13__future_base13_State_baseV2EFvPSt8functionIFSt10unique_ptrINS0_12_Result_baseENS4_8_DeleterEEvEEPbEEOT_RNSt16remove_referenceISD_E4typeE,comdat
	.align	2
	.weak	_ZSt7forwardIMNSt13__future_base13_State_baseV2EFvPSt8functionIFSt10unique_ptrINS0_12_Result_baseENS4_8_DeleterEEvEEPbEEOT_RNSt16remove_referenceISD_E4typeE
	.type	_ZSt7forwardIMNSt13__future_base13_State_baseV2EFvPSt8functionIFSt10unique_ptrINS0_12_Result_baseENS4_8_DeleterEEvEEPbEEOT_RNSt16remove_referenceISD_E4typeE, %function
_ZSt7forwardIMNSt13__future_base13_State_baseV2EFvPSt8functionIFSt10unique_ptrINS0_12_Result_baseENS4_8_DeleterEEvEEPbEEOT_RNSt16remove_referenceISD_E4typeE:
.LFB4095:
	.cfi_startproc
	sub	sp, sp, #16
	.cfi_def_cfa_offset 16
	str	x0, [sp, 8]
	ldr	x0, [sp, 8]
	add	sp, sp, 16
	.cfi_def_cfa_offset 0
	ret
	.cfi_endproc
.LFE4095:
	.size	_ZSt7forwardIMNSt13__future_base13_State_baseV2EFvPSt8functionIFSt10unique_ptrINS0_12_Result_baseENS4_8_DeleterEEvEEPbEEOT_RNSt16remove_referenceISD_E4typeE, .-_ZSt7forwardIMNSt13__future_base13_State_baseV2EFvPSt8functionIFSt10unique_ptrINS0_12_Result_baseENS4_8_DeleterEEvEEPbEEOT_RNSt16remove_referenceISD_E4typeE
	.section	.text._ZSt7forwardIPNSt13__future_base13_State_baseV2EEOT_RNSt16remove_referenceIS3_E4typeE,"axG",@progbits,_ZSt7forwardIPNSt13__future_base13_State_baseV2EEOT_RNSt16remove_referenceIS3_E4typeE,comdat
	.align	2
	.weak	_ZSt7forwardIPNSt13__future_base13_State_baseV2EEOT_RNSt16remove_referenceIS3_E4typeE
	.type	_ZSt7forwardIPNSt13__future_base13_State_baseV2EEOT_RNSt16remove_referenceIS3_E4typeE, %function
_ZSt7forwardIPNSt13__future_base13_State_baseV2EEOT_RNSt16remove_referenceIS3_E4typeE:
.LFB4096:
	.cfi_startproc
	sub	sp, sp, #16
	.cfi_def_cfa_offset 16
	str	x0, [sp, 8]
	ldr	x0, [sp, 8]
	add	sp, sp, 16
	.cfi_def_cfa_offset 0
	ret
	.cfi_endproc
.LFE4096:
	.size	_ZSt7forwardIPNSt13__future_base13_State_baseV2EEOT_RNSt16remove_referenceIS3_E4typeE, .-_ZSt7forwardIPNSt13__future_base13_State_baseV2EEOT_RNSt16remove_referenceIS3_E4typeE
	.section	.text._ZSt7forwardIPSt8functionIFSt10unique_ptrINSt13__future_base12_Result_baseENS3_8_DeleterEEvEEEOT_RNSt16remove_referenceIS9_E4typeE,"axG",@progbits,_ZSt7forwardIPSt8functionIFSt10unique_ptrINSt13__future_base12_Result_baseENS3_8_DeleterEEvEEEOT_RNSt16remove_referenceIS9_E4typeE,comdat
	.align	2
	.weak	_ZSt7forwardIPSt8functionIFSt10unique_ptrINSt13__future_base12_Result_baseENS3_8_DeleterEEvEEEOT_RNSt16remove_referenceIS9_E4typeE
	.type	_ZSt7forwardIPSt8functionIFSt10unique_ptrINSt13__future_base12_Result_baseENS3_8_DeleterEEvEEEOT_RNSt16remove_referenceIS9_E4typeE, %function
_ZSt7forwardIPSt8functionIFSt10unique_ptrINSt13__future_base12_Result_baseENS3_8_DeleterEEvEEEOT_RNSt16remove_referenceIS9_E4typeE:
.LFB4097:
	.cfi_startproc
	sub	sp, sp, #16
	.cfi_def_cfa_offset 16
	str	x0, [sp, 8]
	ldr	x0, [sp, 8]
	add	sp, sp, 16
	.cfi_def_cfa_offset 0
	ret
	.cfi_endproc
.LFE4097:
	.size	_ZSt7forwardIPSt8functionIFSt10unique_ptrINSt13__future_base12_Result_baseENS3_8_DeleterEEvEEEOT_RNSt16remove_referenceIS9_E4typeE, .-_ZSt7forwardIPSt8functionIFSt10unique_ptrINSt13__future_base12_Result_baseENS3_8_DeleterEEvEEEOT_RNSt16remove_referenceIS9_E4typeE
	.section	.text._ZSt7forwardIPbEOT_RNSt16remove_referenceIS1_E4typeE,"axG",@progbits,_ZSt7forwardIPbEOT_RNSt16remove_referenceIS1_E4typeE,comdat
	.align	2
	.weak	_ZSt7forwardIPbEOT_RNSt16remove_referenceIS1_E4typeE
	.type	_ZSt7forwardIPbEOT_RNSt16remove_referenceIS1_E4typeE, %function
_ZSt7forwardIPbEOT_RNSt16remove_referenceIS1_E4typeE:
.LFB4098:
	.cfi_startproc
	sub	sp, sp, #16
	.cfi_def_cfa_offset 16
	str	x0, [sp, 8]
	ldr	x0, [sp, 8]
	add	sp, sp, 16
	.cfi_def_cfa_offset 0
	ret
	.cfi_endproc
.LFE4098:
	.size	_ZSt7forwardIPbEOT_RNSt16remove_referenceIS1_E4typeE, .-_ZSt7forwardIPbEOT_RNSt16remove_referenceIS1_E4typeE
	.section	.text._ZSt8__invokeIMNSt13__future_base13_State_baseV2EFvPSt8functionIFSt10unique_ptrINS0_12_Result_baseENS4_8_DeleterEEvEEPbEJPS1_S9_SA_EENSt15__invoke_resultIT_JDpT0_EE4typeEOSF_DpOSG_,"axG",@progbits,_ZSt8__invokeIMNSt13__future_base13_State_baseV2EFvPSt8functionIFSt10unique_ptrINS0_12_Result_baseENS4_8_DeleterEEvEEPbEJPS1_S9_SA_EENSt15__invoke_resultIT_JDpT0_EE4typeEOSF_DpOSG_,comdat
	.align	2
	.weak	_ZSt8__invokeIMNSt13__future_base13_State_baseV2EFvPSt8functionIFSt10unique_ptrINS0_12_Result_baseENS4_8_DeleterEEvEEPbEJPS1_S9_SA_EENSt15__invoke_resultIT_JDpT0_EE4typeEOSF_DpOSG_
	.type	_ZSt8__invokeIMNSt13__future_base13_State_baseV2EFvPSt8functionIFSt10unique_ptrINS0_12_Result_baseENS4_8_DeleterEEvEEPbEJPS1_S9_SA_EENSt15__invoke_resultIT_JDpT0_EE4typeEOSF_DpOSG_, %function
_ZSt8__invokeIMNSt13__future_base13_State_baseV2EFvPSt8functionIFSt10unique_ptrINS0_12_Result_baseENS4_8_DeleterEEvEEPbEJPS1_S9_SA_EENSt15__invoke_resultIT_JDpT0_EE4typeEOSF_DpOSG_:
.LFB4099:
	.cfi_startproc
	stp	x29, x30, [sp, -80]!
	.cfi_def_cfa_offset 80
	.cfi_offset 29, -80
	.cfi_offset 30, -72
	mov	x29, sp
	stp	x19, x20, [sp, 16]
	stp	x21, x22, [sp, 32]
	.cfi_offset 19, -64
	.cfi_offset 20, -56
	.cfi_offset 21, -48
	.cfi_offset 22, -40
	str	x0, [sp, 72]
	str	x1, [sp, 64]
	str	x2, [sp, 56]
	str	x3, [sp, 48]
	ldr	x0, [sp, 72]
	bl	_ZSt7forwardIMNSt13__future_base13_State_baseV2EFvPSt8functionIFSt10unique_ptrINS0_12_Result_baseENS4_8_DeleterEEvEEPbEEOT_RNSt16remove_referenceISD_E4typeE
	mov	x19, x0
	ldr	x0, [sp, 64]
	bl	_ZSt7forwardIPNSt13__future_base13_State_baseV2EEOT_RNSt16remove_referenceIS3_E4typeE
	mov	x20, x0
	ldr	x0, [sp, 56]
	bl	_ZSt7forwardIPSt8functionIFSt10unique_ptrINSt13__future_base12_Result_baseENS3_8_DeleterEEvEEEOT_RNSt16remove_referenceIS9_E4typeE
	mov	x21, x0
	ldr	x0, [sp, 48]
	bl	_ZSt7forwardIPbEOT_RNSt16remove_referenceIS1_E4typeE
	mov	x4, x0
	mov	x3, x21
	mov	x2, x20
	mov	x1, x19
	mov	w0, w22
	bl	_ZSt13__invoke_implIvMNSt13__future_base13_State_baseV2EFvPSt8functionIFSt10unique_ptrINS0_12_Result_baseENS4_8_DeleterEEvEEPbEPS1_JS9_SA_EET_St21__invoke_memfun_derefOT0_OT1_DpOT2_
	nop
	ldp	x19, x20, [sp, 16]
	ldp	x21, x22, [sp, 32]
	ldp	x29, x30, [sp], 80
	.cfi_restore 30
	.cfi_restore 29
	.cfi_restore 21
	.cfi_restore 22
	.cfi_restore 19
	.cfi_restore 20
	.cfi_def_cfa_offset 0
	ret
	.cfi_endproc
.LFE4099:
	.size	_ZSt8__invokeIMNSt13__future_base13_State_baseV2EFvPSt8functionIFSt10unique_ptrINS0_12_Result_baseENS4_8_DeleterEEvEEPbEJPS1_S9_SA_EENSt15__invoke_resultIT_JDpT0_EE4typeEOSF_DpOSG_, .-_ZSt8__invokeIMNSt13__future_base13_State_baseV2EFvPSt8functionIFSt10unique_ptrINS0_12_Result_baseENS4_8_DeleterEEvEEPbEJPS1_S9_SA_EENSt15__invoke_resultIT_JDpT0_EE4typeEOSF_DpOSG_
	.section	.text._ZZNSt9once_flag18_Prepare_executionC4IZSt9call_onceIMNSt13__future_base13_State_baseV2EFvPSt8functionIFSt10unique_ptrINS3_12_Result_baseENS7_8_DeleterEEvEEPbEJPS4_SC_SD_EEvRS_OT_DpOT0_EUlvE_EERSI_ENKUlvE_clEv,"axG",@progbits,_ZZNSt9once_flag18_Prepare_executionC4IZSt9call_onceIMNSt13__future_base13_State_baseV2EFvPSt8functionIFSt10unique_ptrINS3_12_Result_baseENS7_8_DeleterEEvEEPbEJPS4_SC_SD_EEvRS_OT_DpOT0_EUlvE_EERSI_ENKUlvE_clEv,comdat
	.align	2
	.weak	_ZZNSt9once_flag18_Prepare_executionC4IZSt9call_onceIMNSt13__future_base13_State_baseV2EFvPSt8functionIFSt10unique_ptrINS3_12_Result_baseENS7_8_DeleterEEvEEPbEJPS4_SC_SD_EEvRS_OT_DpOT0_EUlvE_EERSI_ENKUlvE_clEv
	.type	_ZZNSt9once_flag18_Prepare_executionC4IZSt9call_onceIMNSt13__future_base13_State_baseV2EFvPSt8functionIFSt10unique_ptrINS3_12_Result_baseENS7_8_DeleterEEvEEPbEJPS4_SC_SD_EEvRS_OT_DpOT0_EUlvE_EERSI_ENKUlvE_clEv, %function
_ZZNSt9once_flag18_Prepare_executionC4IZSt9call_onceIMNSt13__future_base13_State_baseV2EFvPSt8functionIFSt10unique_ptrINS3_12_Result_baseENS7_8_DeleterEEvEEPbEJPS4_SC_SD_EEvRS_OT_DpOT0_EUlvE_EERSI_ENKUlvE_clEv:
.LFB4101:
	.cfi_startproc
	stp	x29, x30, [sp, -32]!
	.cfi_def_cfa_offset 32
	.cfi_offset 29, -32
	.cfi_offset 30, -24
	mov	x29, sp
	str	x0, [sp, 24]
	mrs	x1, tpidr_el0
	adrp	x0, :gottprel:_ZSt15__once_callable
	ldr	x0, [x0, #:gottprel_lo12:_ZSt15__once_callable]
	add	x0, x1, x0
	ldr	x0, [x0]
	bl	_ZZSt9call_onceIMNSt13__future_base13_State_baseV2EFvPSt8functionIFSt10unique_ptrINS0_12_Result_baseENS4_8_DeleterEEvEEPbEJPS1_S9_SA_EEvRSt9once_flagOT_DpOT0_ENKUlvE_clEv
	nop
	ldp	x29, x30, [sp], 32
	.cfi_restore 30
	.cfi_restore 29
	.cfi_def_cfa_offset 0
	ret
	.cfi_endproc
.LFE4101:
	.size	_ZZNSt9once_flag18_Prepare_executionC4IZSt9call_onceIMNSt13__future_base13_State_baseV2EFvPSt8functionIFSt10unique_ptrINS3_12_Result_baseENS7_8_DeleterEEvEEPbEJPS4_SC_SD_EEvRS_OT_DpOT0_EUlvE_EERSI_ENKUlvE_clEv, .-_ZZNSt9once_flag18_Prepare_executionC4IZSt9call_onceIMNSt13__future_base13_State_baseV2EFvPSt8functionIFSt10unique_ptrINS3_12_Result_baseENS7_8_DeleterEEvEEPbEJPS4_SC_SD_EEvRS_OT_DpOT0_EUlvE_EERSI_ENKUlvE_clEv
	.section	.text._ZZNSt9once_flag18_Prepare_executionC4IZSt9call_onceIMNSt13__future_base13_State_baseV2EFvPSt8functionIFSt10unique_ptrINS3_12_Result_baseENS7_8_DeleterEEvEEPbEJPS4_SC_SD_EEvRS_OT_DpOT0_EUlvE_EERSI_ENUlvE_4_FUNEv,"axG",@progbits,_ZZNSt9once_flag18_Prepare_executionC4IZSt9call_onceIMNSt13__future_base13_State_baseV2EFvPSt8functionIFSt10unique_ptrINS3_12_Result_baseENS7_8_DeleterEEvEEPbEJPS4_SC_SD_EEvRS_OT_DpOT0_EUlvE_EERSI_ENUlvE_4_FUNEv,comdat
	.align	2
	.weak	_ZZNSt9once_flag18_Prepare_executionC4IZSt9call_onceIMNSt13__future_base13_State_baseV2EFvPSt8functionIFSt10unique_ptrINS3_12_Result_baseENS7_8_DeleterEEvEEPbEJPS4_SC_SD_EEvRS_OT_DpOT0_EUlvE_EERSI_ENUlvE_4_FUNEv
	.type	_ZZNSt9once_flag18_Prepare_executionC4IZSt9call_onceIMNSt13__future_base13_State_baseV2EFvPSt8functionIFSt10unique_ptrINS3_12_Result_baseENS7_8_DeleterEEvEEPbEJPS4_SC_SD_EEvRS_OT_DpOT0_EUlvE_EERSI_ENUlvE_4_FUNEv, %function
_ZZNSt9once_flag18_Prepare_executionC4IZSt9call_onceIMNSt13__future_base13_State_baseV2EFvPSt8functionIFSt10unique_ptrINS3_12_Result_baseENS7_8_DeleterEEvEEPbEJPS4_SC_SD_EEvRS_OT_DpOT0_EUlvE_EERSI_ENUlvE_4_FUNEv:
.LFB4102:
	.cfi_startproc
	stp	x29, x30, [sp, -16]!
	.cfi_def_cfa_offset 16
	.cfi_offset 29, -16
	.cfi_offset 30, -8
	mov	x29, sp
	mov	x0, 0
	bl	_ZZNSt9once_flag18_Prepare_executionC4IZSt9call_onceIMNSt13__future_base13_State_baseV2EFvPSt8functionIFSt10unique_ptrINS3_12_Result_baseENS7_8_DeleterEEvEEPbEJPS4_SC_SD_EEvRS_OT_DpOT0_EUlvE_EERSI_ENKUlvE_clEv
	ldp	x29, x30, [sp], 16
	.cfi_restore 30
	.cfi_restore 29
	.cfi_def_cfa_offset 0
	ret
	.cfi_endproc
.LFE4102:
	.size	_ZZNSt9once_flag18_Prepare_executionC4IZSt9call_onceIMNSt13__future_base13_State_baseV2EFvPSt8functionIFSt10unique_ptrINS3_12_Result_baseENS7_8_DeleterEEvEEPbEJPS4_SC_SD_EEvRS_OT_DpOT0_EUlvE_EERSI_ENUlvE_4_FUNEv, .-_ZZNSt9once_flag18_Prepare_executionC4IZSt9call_onceIMNSt13__future_base13_State_baseV2EFvPSt8functionIFSt10unique_ptrINS3_12_Result_baseENS7_8_DeleterEEvEEPbEJPS4_SC_SD_EEvRS_OT_DpOT0_EUlvE_EERSI_ENUlvE_4_FUNEv
	.section	.text._ZZNSt9once_flag18_Prepare_executionC4IZSt9call_onceIMNSt13__future_base13_State_baseV2EFvPSt8functionIFSt10unique_ptrINS3_12_Result_baseENS7_8_DeleterEEvEEPbEJPS4_SC_SD_EEvRS_OT_DpOT0_EUlvE_EERSI_ENKUlvE_cvPFvvEEv,"axG",@progbits,_ZZNSt9once_flag18_Prepare_executionC4IZSt9call_onceIMNSt13__future_base13_State_baseV2EFvPSt8functionIFSt10unique_ptrINS3_12_Result_baseENS7_8_DeleterEEvEEPbEJPS4_SC_SD_EEvRS_OT_DpOT0_EUlvE_EERSI_ENKUlvE_cvPFvvEEv,comdat
	.align	2
	.weak	_ZZNSt9once_flag18_Prepare_executionC4IZSt9call_onceIMNSt13__future_base13_State_baseV2EFvPSt8functionIFSt10unique_ptrINS3_12_Result_baseENS7_8_DeleterEEvEEPbEJPS4_SC_SD_EEvRS_OT_DpOT0_EUlvE_EERSI_ENKUlvE_cvPFvvEEv
	.type	_ZZNSt9once_flag18_Prepare_executionC4IZSt9call_onceIMNSt13__future_base13_State_baseV2EFvPSt8functionIFSt10unique_ptrINS3_12_Result_baseENS7_8_DeleterEEvEEPbEJPS4_SC_SD_EEvRS_OT_DpOT0_EUlvE_EERSI_ENKUlvE_cvPFvvEEv, %function
_ZZNSt9once_flag18_Prepare_executionC4IZSt9call_onceIMNSt13__future_base13_State_baseV2EFvPSt8functionIFSt10unique_ptrINS3_12_Result_baseENS7_8_DeleterEEvEEPbEJPS4_SC_SD_EEvRS_OT_DpOT0_EUlvE_EERSI_ENKUlvE_cvPFvvEEv:
.LFB4103:
	.cfi_startproc
	sub	sp, sp, #16
	.cfi_def_cfa_offset 16
	str	x0, [sp, 8]
	adrp	x0, _ZZNSt9once_flag18_Prepare_executionC4IZSt9call_onceIMNSt13__future_base13_State_baseV2EFvPSt8functionIFSt10unique_ptrINS3_12_Result_baseENS7_8_DeleterEEvEEPbEJPS4_SC_SD_EEvRS_OT_DpOT0_EUlvE_EERSI_ENUlvE_4_FUNEv
	add	x0, x0, :lo12:_ZZNSt9once_flag18_Prepare_executionC4IZSt9call_onceIMNSt13__future_base13_State_baseV2EFvPSt8functionIFSt10unique_ptrINS3_12_Result_baseENS7_8_DeleterEEvEEPbEJPS4_SC_SD_EEvRS_OT_DpOT0_EUlvE_EERSI_ENUlvE_4_FUNEv
	add	sp, sp, 16
	.cfi_def_cfa_offset 0
	ret
	.cfi_endproc
.LFE4103:
	.size	_ZZNSt9once_flag18_Prepare_executionC4IZSt9call_onceIMNSt13__future_base13_State_baseV2EFvPSt8functionIFSt10unique_ptrINS3_12_Result_baseENS7_8_DeleterEEvEEPbEJPS4_SC_SD_EEvRS_OT_DpOT0_EUlvE_EERSI_ENKUlvE_cvPFvvEEv, .-_ZZNSt9once_flag18_Prepare_executionC4IZSt9call_onceIMNSt13__future_base13_State_baseV2EFvPSt8functionIFSt10unique_ptrINS3_12_Result_baseENS7_8_DeleterEEvEEPbEJPS4_SC_SD_EEvRS_OT_DpOT0_EUlvE_EERSI_ENKUlvE_cvPFvvEEv
	.section	.text._ZNSt9once_flag18_Prepare_executionC2IZSt9call_onceIMNSt13__future_base13_State_baseV2EFvPSt8functionIFSt10unique_ptrINS3_12_Result_baseENS7_8_DeleterEEvEEPbEJPS4_SC_SD_EEvRS_OT_DpOT0_EUlvE_EERSI_,"axG",@progbits,_ZNSt9once_flag18_Prepare_executionC5IZSt9call_onceIMNSt13__future_base13_State_baseV2EFvPSt8functionIFSt10unique_ptrINS3_12_Result_baseENS7_8_DeleterEEvEEPbEJPS4_SC_SD_EEvRS_OT_DpOT0_EUlvE_EERSI_,comdat
	.align	2
	.weak	_ZNSt9once_flag18_Prepare_executionC2IZSt9call_onceIMNSt13__future_base13_State_baseV2EFvPSt8functionIFSt10unique_ptrINS3_12_Result_baseENS7_8_DeleterEEvEEPbEJPS4_SC_SD_EEvRS_OT_DpOT0_EUlvE_EERSI_
	.type	_ZNSt9once_flag18_Prepare_executionC2IZSt9call_onceIMNSt13__future_base13_State_baseV2EFvPSt8functionIFSt10unique_ptrINS3_12_Result_baseENS7_8_DeleterEEvEEPbEJPS4_SC_SD_EEvRS_OT_DpOT0_EUlvE_EERSI_, %function
_ZNSt9once_flag18_Prepare_executionC2IZSt9call_onceIMNSt13__future_base13_State_baseV2EFvPSt8functionIFSt10unique_ptrINS3_12_Result_baseENS7_8_DeleterEEvEEPbEJPS4_SC_SD_EEvRS_OT_DpOT0_EUlvE_EERSI_:
.LFB4104:
	.cfi_startproc
	stp	x29, x30, [sp, -48]!
	.cfi_def_cfa_offset 48
	.cfi_offset 29, -48
	.cfi_offset 30, -40
	mov	x29, sp
	str	x0, [sp, 24]
	str	x1, [sp, 16]
	adrp	x0, :got:__stack_chk_guard
	ldr	x0, [x0, #:got_lo12:__stack_chk_guard]
	ldr	x1, [x0]
	str	x1, [sp, 40]
	mov	x1, 0
	ldr	x0, [sp, 16]
	bl	_ZSt11__addressofIZSt9call_onceIMNSt13__future_base13_State_baseV2EFvPSt8functionIFSt10unique_ptrINS1_12_Result_baseENS5_8_DeleterEEvEEPbEJPS2_SA_SB_EEvRSt9once_flagOT_DpOT0_EUlvE_EPSH_RSH_
	mov	x2, x0
	mrs	x1, tpidr_el0
	adrp	x0, :gottprel:_ZSt15__once_callable
	ldr	x0, [x0, #:gottprel_lo12:_ZSt15__once_callable]
	add	x0, x1, x0
	str	x2, [x0]
	add	x0, sp, 32
	bl	_ZZNSt9once_flag18_Prepare_executionC4IZSt9call_onceIMNSt13__future_base13_State_baseV2EFvPSt8functionIFSt10unique_ptrINS3_12_Result_baseENS7_8_DeleterEEvEEPbEJPS4_SC_SD_EEvRS_OT_DpOT0_EUlvE_EERSI_ENKUlvE_cvPFvvEEv
	mov	x2, x0
	mrs	x1, tpidr_el0
	adrp	x0, :gottprel:_ZSt11__once_call
	ldr	x0, [x0, #:gottprel_lo12:_ZSt11__once_call]
	add	x0, x1, x0
	str	x2, [x0]
	nop
	adrp	x0, :got:__stack_chk_guard
	ldr	x0, [x0, #:got_lo12:__stack_chk_guard]
	ldr	x2, [sp, 40]
	ldr	x1, [x0]
	subs	x2, x2, x1
	mov	x1, 0
	beq	.L298
	bl	__stack_chk_fail
.L298:
	ldp	x29, x30, [sp], 48
	.cfi_restore 30
	.cfi_restore 29
	.cfi_def_cfa_offset 0
	ret
	.cfi_endproc
.LFE4104:
	.size	_ZNSt9once_flag18_Prepare_executionC2IZSt9call_onceIMNSt13__future_base13_State_baseV2EFvPSt8functionIFSt10unique_ptrINS3_12_Result_baseENS7_8_DeleterEEvEEPbEJPS4_SC_SD_EEvRS_OT_DpOT0_EUlvE_EERSI_, .-_ZNSt9once_flag18_Prepare_executionC2IZSt9call_onceIMNSt13__future_base13_State_baseV2EFvPSt8functionIFSt10unique_ptrINS3_12_Result_baseENS7_8_DeleterEEvEEPbEJPS4_SC_SD_EEvRS_OT_DpOT0_EUlvE_EERSI_
	.weak	_ZNSt9once_flag18_Prepare_executionC1IZSt9call_onceIMNSt13__future_base13_State_baseV2EFvPSt8functionIFSt10unique_ptrINS3_12_Result_baseENS7_8_DeleterEEvEEPbEJPS4_SC_SD_EEvRS_OT_DpOT0_EUlvE_EERSI_
	.set	_ZNSt9once_flag18_Prepare_executionC1IZSt9call_onceIMNSt13__future_base13_State_baseV2EFvPSt8functionIFSt10unique_ptrINS3_12_Result_baseENS7_8_DeleterEEvEEPbEJPS4_SC_SD_EEvRS_OT_DpOT0_EUlvE_EERSI_,_ZNSt9once_flag18_Prepare_executionC2IZSt9call_onceIMNSt13__future_base13_State_baseV2EFvPSt8functionIFSt10unique_ptrINS3_12_Result_baseENS7_8_DeleterEEvEEPbEJPS4_SC_SD_EEvRS_OT_DpOT0_EUlvE_EERSI_
	.section	.text._ZNSt15__exception_ptr12__dest_thunkISt12future_errorEEvPv,"axG",@progbits,_ZNSt15__exception_ptr12__dest_thunkISt12future_errorEEvPv,comdat
	.align	2
	.weak	_ZNSt15__exception_ptr12__dest_thunkISt12future_errorEEvPv
	.type	_ZNSt15__exception_ptr12__dest_thunkISt12future_errorEEvPv, %function
_ZNSt15__exception_ptr12__dest_thunkISt12future_errorEEvPv:
.LFB4126:
	.cfi_startproc
	stp	x29, x30, [sp, -32]!
	.cfi_def_cfa_offset 32
	.cfi_offset 29, -32
	.cfi_offset 30, -24
	mov	x29, sp
	str	x0, [sp, 24]
	ldr	x0, [sp, 24]
	ldr	x0, [x0]
	ldr	x1, [x0]
	ldr	x0, [sp, 24]
	blr	x1
	nop
	ldp	x29, x30, [sp], 32
	.cfi_restore 30
	.cfi_restore 29
	.cfi_def_cfa_offset 0
	ret
	.cfi_endproc
.LFE4126:
	.size	_ZNSt15__exception_ptr12__dest_thunkISt12future_errorEEvPv, .-_ZNSt15__exception_ptr12__dest_thunkISt12future_errorEEvPv
	.section	.text._ZSt7forwardISt12future_errorEOT_RNSt16remove_referenceIS1_E4typeE,"axG",@progbits,_ZSt7forwardISt12future_errorEOT_RNSt16remove_referenceIS1_E4typeE,comdat
	.align	2
	.weak	_ZSt7forwardISt12future_errorEOT_RNSt16remove_referenceIS1_E4typeE
	.type	_ZSt7forwardISt12future_errorEOT_RNSt16remove_referenceIS1_E4typeE, %function
_ZSt7forwardISt12future_errorEOT_RNSt16remove_referenceIS1_E4typeE:
.LFB4127:
	.cfi_startproc
	sub	sp, sp, #16
	.cfi_def_cfa_offset 16
	str	x0, [sp, 8]
	ldr	x0, [sp, 8]
	add	sp, sp, 16
	.cfi_def_cfa_offset 0
	ret
	.cfi_endproc
.LFE4127:
	.size	_ZSt7forwardISt12future_errorEOT_RNSt16remove_referenceIS1_E4typeE, .-_ZSt7forwardISt12future_errorEOT_RNSt16remove_referenceIS1_E4typeE
	.section	.text._ZNSt15__uniq_ptr_implINSt13__future_base12_Result_baseENS1_8_DeleterEE4swapERS3_,"axG",@progbits,_ZNSt15__uniq_ptr_implINSt13__future_base12_Result_baseENS1_8_DeleterEE4swapERS3_,comdat
	.align	2
	.weak	_ZNSt15__uniq_ptr_implINSt13__future_base12_Result_baseENS1_8_DeleterEE4swapERS3_
	.type	_ZNSt15__uniq_ptr_implINSt13__future_base12_Result_baseENS1_8_DeleterEE4swapERS3_, %function
_ZNSt15__uniq_ptr_implINSt13__future_base12_Result_baseENS1_8_DeleterEE4swapERS3_:
.LFB4128:
	.cfi_startproc
	stp	x29, x30, [sp, -48]!
	.cfi_def_cfa_offset 48
	.cfi_offset 29, -48
	.cfi_offset 30, -40
	mov	x29, sp
	str	x19, [sp, 16]
	.cfi_offset 19, -32
	str	x0, [sp, 40]
	str	x1, [sp, 32]
	ldr	x0, [sp, 40]
	bl	_ZNSt15__uniq_ptr_implINSt13__future_base12_Result_baseENS1_8_DeleterEE6_M_ptrEv
	mov	x19, x0
	ldr	x0, [sp, 32]
	bl	_ZNSt15__uniq_ptr_implINSt13__future_base12_Result_baseENS1_8_DeleterEE6_M_ptrEv
	mov	x1, x0
	mov	x0, x19
	bl	_ZSt4swapIPNSt13__future_base12_Result_baseEENSt9enable_ifIXsrSt6__and_IJSt6__not_ISt15__is_tuple_likeIT_EESt21is_move_constructibleIS7_ESt18is_move_assignableIS7_EEE5valueEvE4typeERS7_SH_
	ldr	x0, [sp, 40]
	bl	_ZNSt15__uniq_ptr_implINSt13__future_base12_Result_baseENS1_8_DeleterEE10_M_deleterEv
	mov	x19, x0
	ldr	x0, [sp, 32]
	bl	_ZNSt15__uniq_ptr_implINSt13__future_base12_Result_baseENS1_8_DeleterEE10_M_deleterEv
	mov	x1, x0
	mov	x0, x19
	bl	_ZSt4swapINSt13__future_base12_Result_base8_DeleterEENSt9enable_ifIXsrSt6__and_IJSt6__not_ISt15__is_tuple_likeIT_EESt21is_move_constructibleIS7_ESt18is_move_assignableIS7_EEE5valueEvE4typeERS7_SH_
	nop
	ldr	x19, [sp, 16]
	ldp	x29, x30, [sp], 48
	.cfi_restore 30
	.cfi_restore 29
	.cfi_restore 19
	.cfi_def_cfa_offset 0
	ret
	.cfi_endproc
.LFE4128:
	.size	_ZNSt15__uniq_ptr_implINSt13__future_base12_Result_baseENS1_8_DeleterEE4swapERS3_, .-_ZNSt15__uniq_ptr_implINSt13__future_base12_Result_baseENS1_8_DeleterEE4swapERS3_
	.section	.text._ZNSt14__shared_countILN9__gnu_cxx12_Lock_policyE2EEC2ERKS2_,"axG",@progbits,_ZNSt14__shared_countILN9__gnu_cxx12_Lock_policyE2EEC5ERKS2_,comdat
	.align	2
	.weak	_ZNSt14__shared_countILN9__gnu_cxx12_Lock_policyE2EEC2ERKS2_
	.type	_ZNSt14__shared_countILN9__gnu_cxx12_Lock_policyE2EEC2ERKS2_, %function
_ZNSt14__shared_countILN9__gnu_cxx12_Lock_policyE2EEC2ERKS2_:
.LFB4130:
	.cfi_startproc
	stp	x29, x30, [sp, -32]!
	.cfi_def_cfa_offset 32
	.cfi_offset 29, -32
	.cfi_offset 30, -24
	mov	x29, sp
	str	x0, [sp, 24]
	str	x1, [sp, 16]
	ldr	x0, [sp, 16]
	ldr	x1, [x0]
	ldr	x0, [sp, 24]
	str	x1, [x0]
	ldr	x0, [sp, 24]
	ldr	x0, [x0]
	cmp	x0, 0
	beq	.L305
	ldr	x0, [sp, 24]
	ldr	x0, [x0]
	bl	_ZNSt16_Sp_counted_baseILN9__gnu_cxx12_Lock_policyE2EE15_M_add_ref_copyEv
.L305:
	nop
	ldp	x29, x30, [sp], 32
	.cfi_restore 30
	.cfi_restore 29
	.cfi_def_cfa_offset 0
	ret
	.cfi_endproc
.LFE4130:
	.size	_ZNSt14__shared_countILN9__gnu_cxx12_Lock_policyE2EEC2ERKS2_, .-_ZNSt14__shared_countILN9__gnu_cxx12_Lock_policyE2EEC2ERKS2_
	.weak	_ZNSt14__shared_countILN9__gnu_cxx12_Lock_policyE2EEC1ERKS2_
	.set	_ZNSt14__shared_countILN9__gnu_cxx12_Lock_policyE2EEC1ERKS2_,_ZNSt14__shared_countILN9__gnu_cxx12_Lock_policyE2EEC2ERKS2_
	.section	.text._ZNSt12__shared_ptrINSt13__future_base13_State_baseV2ELN9__gnu_cxx12_Lock_policyE2EE5resetEv,"axG",@progbits,_ZNSt12__shared_ptrINSt13__future_base13_State_baseV2ELN9__gnu_cxx12_Lock_policyE2EE5resetEv,comdat
	.align	2
	.weak	_ZNSt12__shared_ptrINSt13__future_base13_State_baseV2ELN9__gnu_cxx12_Lock_policyE2EE5resetEv
	.type	_ZNSt12__shared_ptrINSt13__future_base13_State_baseV2ELN9__gnu_cxx12_Lock_policyE2EE5resetEv, %function
_ZNSt12__shared_ptrINSt13__future_base13_State_baseV2ELN9__gnu_cxx12_Lock_policyE2EE5resetEv:
.LFB4135:
	.cfi_startproc
	stp	x29, x30, [sp, -64]!
	.cfi_def_cfa_offset 64
	.cfi_offset 29, -64
	.cfi_offset 30, -56
	mov	x29, sp
	str	x0, [sp, 24]
	adrp	x0, :got:__stack_chk_guard
	ldr	x0, [x0, #:got_lo12:__stack_chk_guard]
	ldr	x1, [x0]
	str	x1, [sp, 56]
	mov	x1, 0
	add	x0, sp, 40
	bl	_ZNSt12__shared_ptrINSt13__future_base13_State_baseV2ELN9__gnu_cxx12_Lock_policyE2EEC1Ev
	add	x0, sp, 40
	ldr	x1, [sp, 24]
	bl	_ZNSt12__shared_ptrINSt13__future_base13_State_baseV2ELN9__gnu_cxx12_Lock_policyE2EE4swapERS4_
	add	x0, sp, 40
	bl	_ZNSt12__shared_ptrINSt13__future_base13_State_baseV2ELN9__gnu_cxx12_Lock_policyE2EED1Ev
	nop
	adrp	x0, :got:__stack_chk_guard
	ldr	x0, [x0, #:got_lo12:__stack_chk_guard]
	ldr	x2, [sp, 56]
	ldr	x1, [x0]
	subs	x2, x2, x1
	mov	x1, 0
	beq	.L307
	bl	__stack_chk_fail
.L307:
	ldp	x29, x30, [sp], 64
	.cfi_restore 30
	.cfi_restore 29
	.cfi_def_cfa_offset 0
	ret
	.cfi_endproc
.LFE4135:
	.size	_ZNSt12__shared_ptrINSt13__future_base13_State_baseV2ELN9__gnu_cxx12_Lock_policyE2EE5resetEv, .-_ZNSt12__shared_ptrINSt13__future_base13_State_baseV2ELN9__gnu_cxx12_Lock_policyE2EE5resetEv
	.section	.text._ZNSaINSt13__future_base13_State_baseV2EEC2Ev,"axG",@progbits,_ZNSaINSt13__future_base13_State_baseV2EEC5Ev,comdat
	.align	2
	.weak	_ZNSaINSt13__future_base13_State_baseV2EEC2Ev
	.type	_ZNSaINSt13__future_base13_State_baseV2EEC2Ev, %function
_ZNSaINSt13__future_base13_State_baseV2EEC2Ev:
.LFB4137:
	.cfi_startproc
	stp	x29, x30, [sp, -32]!
	.cfi_def_cfa_offset 32
	.cfi_offset 29, -32
	.cfi_offset 30, -24
	mov	x29, sp
	str	x0, [sp, 24]
	ldr	x0, [sp, 24]
	bl	_ZN9__gnu_cxx13new_allocatorINSt13__future_base13_State_baseV2EEC2Ev
	nop
	ldp	x29, x30, [sp], 32
	.cfi_restore 30
	.cfi_restore 29
	.cfi_def_cfa_offset 0
	ret
	.cfi_endproc
.LFE4137:
	.size	_ZNSaINSt13__future_base13_State_baseV2EEC2Ev, .-_ZNSaINSt13__future_base13_State_baseV2EEC2Ev
	.weak	_ZNSaINSt13__future_base13_State_baseV2EEC1Ev
	.set	_ZNSaINSt13__future_base13_State_baseV2EEC1Ev,_ZNSaINSt13__future_base13_State_baseV2EEC2Ev
	.section	.text._ZNSaINSt13__future_base13_State_baseV2EED2Ev,"axG",@progbits,_ZNSaINSt13__future_base13_State_baseV2EED5Ev,comdat
	.align	2
	.weak	_ZNSaINSt13__future_base13_State_baseV2EED2Ev
	.type	_ZNSaINSt13__future_base13_State_baseV2EED2Ev, %function
_ZNSaINSt13__future_base13_State_baseV2EED2Ev:
.LFB4140:
	.cfi_startproc
	stp	x29, x30, [sp, -32]!
	.cfi_def_cfa_offset 32
	.cfi_offset 29, -32
	.cfi_offset 30, -24
	mov	x29, sp
	str	x0, [sp, 24]
	ldr	x0, [sp, 24]
	bl	_ZN9__gnu_cxx13new_allocatorINSt13__future_base13_State_baseV2EED2Ev
	nop
	ldp	x29, x30, [sp], 32
	.cfi_restore 30
	.cfi_restore 29
	.cfi_def_cfa_offset 0
	ret
	.cfi_endproc
.LFE4140:
	.size	_ZNSaINSt13__future_base13_State_baseV2EED2Ev, .-_ZNSaINSt13__future_base13_State_baseV2EED2Ev
	.weak	_ZNSaINSt13__future_base13_State_baseV2EED1Ev
	.set	_ZNSaINSt13__future_base13_State_baseV2EED1Ev,_ZNSaINSt13__future_base13_State_baseV2EED2Ev
	.section	.text._ZSt15allocate_sharedINSt13__future_base13_State_baseV2ESaIS1_EJEESt10shared_ptrIT_ERKT0_DpOT1_,"axG",@progbits,_ZSt15allocate_sharedINSt13__future_base13_State_baseV2ESaIS1_EJEESt10shared_ptrIT_ERKT0_DpOT1_,comdat
	.align	2
	.weak	_ZSt15allocate_sharedINSt13__future_base13_State_baseV2ESaIS1_EJEESt10shared_ptrIT_ERKT0_DpOT1_
	.type	_ZSt15allocate_sharedINSt13__future_base13_State_baseV2ESaIS1_EJEESt10shared_ptrIT_ERKT0_DpOT1_, %function
_ZSt15allocate_sharedINSt13__future_base13_State_baseV2ESaIS1_EJEESt10shared_ptrIT_ERKT0_DpOT1_:
.LFB4142:
	.cfi_startproc
	stp	x29, x30, [sp, -48]!
	.cfi_def_cfa_offset 48
	.cfi_offset 29, -48
	.cfi_offset 30, -40
	mov	x29, sp
	str	x19, [sp, 16]
	.cfi_offset 19, -32
	mov	x19, x8
	str	x0, [sp, 40]
	ldr	x0, [sp, 40]
	mov	x1, x0
	mov	x0, x19
	bl	_ZNSt10shared_ptrINSt13__future_base13_State_baseV2EEC1ISaIS1_EJEEESt20_Sp_alloc_shared_tagIT_EDpOT0_
	mov	x0, x19
	ldr	x19, [sp, 16]
	ldp	x29, x30, [sp], 48
	.cfi_restore 30
	.cfi_restore 29
	.cfi_restore 19
	.cfi_def_cfa_offset 0
	ret
	.cfi_endproc
.LFE4142:
	.size	_ZSt15allocate_sharedINSt13__future_base13_State_baseV2ESaIS1_EJEESt10shared_ptrIT_ERKT0_DpOT1_, .-_ZSt15allocate_sharedINSt13__future_base13_State_baseV2ESaIS1_EJEESt10shared_ptrIT_ERKT0_DpOT1_
	.section	.text._ZNSt12__shared_ptrINSt13__future_base13_State_baseV2ELN9__gnu_cxx12_Lock_policyE2EEC2EOS4_,"axG",@progbits,_ZNSt12__shared_ptrINSt13__future_base13_State_baseV2ELN9__gnu_cxx12_Lock_policyE2EEC5EOS4_,comdat
	.align	2
	.weak	_ZNSt12__shared_ptrINSt13__future_base13_State_baseV2ELN9__gnu_cxx12_Lock_policyE2EEC2EOS4_
	.type	_ZNSt12__shared_ptrINSt13__future_base13_State_baseV2ELN9__gnu_cxx12_Lock_policyE2EEC2EOS4_, %function
_ZNSt12__shared_ptrINSt13__future_base13_State_baseV2ELN9__gnu_cxx12_Lock_policyE2EEC2EOS4_:
.LFB4151:
	.cfi_startproc
	stp	x29, x30, [sp, -32]!
	.cfi_def_cfa_offset 32
	.cfi_offset 29, -32
	.cfi_offset 30, -24
	mov	x29, sp
	str	x0, [sp, 24]
	str	x1, [sp, 16]
	ldr	x0, [sp, 16]
	ldr	x1, [x0]
	ldr	x0, [sp, 24]
	str	x1, [x0]
	ldr	x0, [sp, 24]
	add	x0, x0, 8
	bl	_ZNSt14__shared_countILN9__gnu_cxx12_Lock_policyE2EEC1Ev
	ldr	x0, [sp, 24]
	add	x2, x0, 8
	ldr	x0, [sp, 16]
	add	x0, x0, 8
	mov	x1, x0
	mov	x0, x2
	bl	_ZNSt14__shared_countILN9__gnu_cxx12_Lock_policyE2EE7_M_swapERS2_
	ldr	x0, [sp, 16]
	str	xzr, [x0]
	nop
	ldp	x29, x30, [sp], 32
	.cfi_restore 30
	.cfi_restore 29
	.cfi_def_cfa_offset 0
	ret
	.cfi_endproc
.LFE4151:
	.size	_ZNSt12__shared_ptrINSt13__future_base13_State_baseV2ELN9__gnu_cxx12_Lock_policyE2EEC2EOS4_, .-_ZNSt12__shared_ptrINSt13__future_base13_State_baseV2ELN9__gnu_cxx12_Lock_policyE2EEC2EOS4_
	.weak	_ZNSt12__shared_ptrINSt13__future_base13_State_baseV2ELN9__gnu_cxx12_Lock_policyE2EEC1EOS4_
	.set	_ZNSt12__shared_ptrINSt13__future_base13_State_baseV2ELN9__gnu_cxx12_Lock_policyE2EEC1EOS4_,_ZNSt12__shared_ptrINSt13__future_base13_State_baseV2ELN9__gnu_cxx12_Lock_policyE2EEC2EOS4_
	.section	.text._ZNSt11_Tuple_implILm1EJNSt13__future_base12_Result_base8_DeleterEEEC2EOS3_,"axG",@progbits,_ZNSt11_Tuple_implILm1EJNSt13__future_base12_Result_base8_DeleterEEEC5EOS3_,comdat
	.align	2
	.weak	_ZNSt11_Tuple_implILm1EJNSt13__future_base12_Result_base8_DeleterEEEC2EOS3_
	.type	_ZNSt11_Tuple_implILm1EJNSt13__future_base12_Result_base8_DeleterEEEC2EOS3_, %function
_ZNSt11_Tuple_implILm1EJNSt13__future_base12_Result_base8_DeleterEEEC2EOS3_:
.LFB4155:
	.cfi_startproc
	sub	sp, sp, #16
	.cfi_def_cfa_offset 16
	str	x0, [sp, 8]
	str	x1, [sp]
	nop
	add	sp, sp, 16
	.cfi_def_cfa_offset 0
	ret
	.cfi_endproc
.LFE4155:
	.size	_ZNSt11_Tuple_implILm1EJNSt13__future_base12_Result_base8_DeleterEEEC2EOS3_, .-_ZNSt11_Tuple_implILm1EJNSt13__future_base12_Result_base8_DeleterEEEC2EOS3_
	.weak	_ZNSt11_Tuple_implILm1EJNSt13__future_base12_Result_base8_DeleterEEEC1EOS3_
	.set	_ZNSt11_Tuple_implILm1EJNSt13__future_base12_Result_base8_DeleterEEEC1EOS3_,_ZNSt11_Tuple_implILm1EJNSt13__future_base12_Result_base8_DeleterEEEC2EOS3_
	.section	.text._ZNKSt14__shared_countILN9__gnu_cxx12_Lock_policyE2EE9_M_uniqueEv,"axG",@progbits,_ZNKSt14__shared_countILN9__gnu_cxx12_Lock_policyE2EE9_M_uniqueEv,comdat
	.align	2
	.weak	_ZNKSt14__shared_countILN9__gnu_cxx12_Lock_policyE2EE9_M_uniqueEv
	.type	_ZNKSt14__shared_countILN9__gnu_cxx12_Lock_policyE2EE9_M_uniqueEv, %function
_ZNKSt14__shared_countILN9__gnu_cxx12_Lock_policyE2EE9_M_uniqueEv:
.LFB4157:
	.cfi_startproc
	stp	x29, x30, [sp, -32]!
	.cfi_def_cfa_offset 32
	.cfi_offset 29, -32
	.cfi_offset 30, -24
	mov	x29, sp
	str	x0, [sp, 24]
	ldr	x0, [sp, 24]
	bl	_ZNKSt14__shared_countILN9__gnu_cxx12_Lock_policyE2EE16_M_get_use_countEv
	cmp	x0, 1
	cset	w0, eq
	and	w0, w0, 255
	ldp	x29, x30, [sp], 32
	.cfi_restore 30
	.cfi_restore 29
	.cfi_def_cfa_offset 0
	ret
	.cfi_endproc
.LFE4157:
	.size	_ZNKSt14__shared_countILN9__gnu_cxx12_Lock_policyE2EE9_M_uniqueEv, .-_ZNKSt14__shared_countILN9__gnu_cxx12_Lock_policyE2EE9_M_uniqueEv
	.section	.text._ZNKSt19__shared_ptr_accessINSt13__future_base13_State_baseV2ELN9__gnu_cxx12_Lock_policyE2ELb0ELb0EE6_M_getEv,"axG",@progbits,_ZNKSt19__shared_ptr_accessINSt13__future_base13_State_baseV2ELN9__gnu_cxx12_Lock_policyE2ELb0ELb0EE6_M_getEv,comdat
	.align	2
	.weak	_ZNKSt19__shared_ptr_accessINSt13__future_base13_State_baseV2ELN9__gnu_cxx12_Lock_policyE2ELb0ELb0EE6_M_getEv
	.type	_ZNKSt19__shared_ptr_accessINSt13__future_base13_State_baseV2ELN9__gnu_cxx12_Lock_policyE2ELb0ELb0EE6_M_getEv, %function
_ZNKSt19__shared_ptr_accessINSt13__future_base13_State_baseV2ELN9__gnu_cxx12_Lock_policyE2ELb0ELb0EE6_M_getEv:
.LFB4158:
	.cfi_startproc
	stp	x29, x30, [sp, -32]!
	.cfi_def_cfa_offset 32
	.cfi_offset 29, -32
	.cfi_offset 30, -24
	mov	x29, sp
	str	x0, [sp, 24]
	ldr	x0, [sp, 24]
	bl	_ZNKSt12__shared_ptrINSt13__future_base13_State_baseV2ELN9__gnu_cxx12_Lock_policyE2EE3getEv
	ldp	x29, x30, [sp], 32
	.cfi_restore 30
	.cfi_restore 29
	.cfi_def_cfa_offset 0
	ret
	.cfi_endproc
.LFE4158:
	.size	_ZNKSt19__shared_ptr_accessINSt13__future_base13_State_baseV2ELN9__gnu_cxx12_Lock_policyE2ELb0ELb0EE6_M_getEv, .-_ZNKSt19__shared_ptr_accessINSt13__future_base13_State_baseV2ELN9__gnu_cxx12_Lock_policyE2ELb0ELb0EE6_M_getEv
	.section	.text._ZSt7forwardINSt13__future_base12_Result_base8_DeleterEEOT_RNSt16remove_referenceIS3_E4typeE,"axG",@progbits,_ZSt7forwardINSt13__future_base12_Result_base8_DeleterEEOT_RNSt16remove_referenceIS3_E4typeE,comdat
	.align	2
	.weak	_ZSt7forwardINSt13__future_base12_Result_base8_DeleterEEOT_RNSt16remove_referenceIS3_E4typeE
	.type	_ZSt7forwardINSt13__future_base12_Result_base8_DeleterEEOT_RNSt16remove_referenceIS3_E4typeE, %function
_ZSt7forwardINSt13__future_base12_Result_base8_DeleterEEOT_RNSt16remove_referenceIS3_E4typeE:
.LFB4160:
	.cfi_startproc
	sub	sp, sp, #16
	.cfi_def_cfa_offset 16
	str	x0, [sp, 8]
	ldr	x0, [sp, 8]
	add	sp, sp, 16
	.cfi_def_cfa_offset 0
	ret
	.cfi_endproc
.LFE4160:
	.size	_ZSt7forwardINSt13__future_base12_Result_base8_DeleterEEOT_RNSt16remove_referenceIS3_E4typeE, .-_ZSt7forwardINSt13__future_base12_Result_base8_DeleterEEOT_RNSt16remove_referenceIS3_E4typeE
	.section	.text._ZNSt15__uniq_ptr_implINSt13__future_base12_Result_baseENS1_8_DeleterEEC2IS2_EEPS1_OT_,"axG",@progbits,_ZNSt15__uniq_ptr_implINSt13__future_base12_Result_baseENS1_8_DeleterEEC5IS2_EEPS1_OT_,comdat
	.align	2
	.weak	_ZNSt15__uniq_ptr_implINSt13__future_base12_Result_baseENS1_8_DeleterEEC2IS2_EEPS1_OT_
	.type	_ZNSt15__uniq_ptr_implINSt13__future_base12_Result_baseENS1_8_DeleterEEC2IS2_EEPS1_OT_, %function
_ZNSt15__uniq_ptr_implINSt13__future_base12_Result_baseENS1_8_DeleterEEC2IS2_EEPS1_OT_:
.LFB4168:
	.cfi_startproc
	stp	x29, x30, [sp, -64]!
	.cfi_def_cfa_offset 64
	.cfi_offset 29, -64
	.cfi_offset 30, -56
	mov	x29, sp
	str	x19, [sp, 16]
	.cfi_offset 19, -48
	str	x0, [sp, 56]
	str	x1, [sp, 48]
	str	x2, [sp, 40]
	ldr	x19, [sp, 56]
	ldr	x0, [sp, 40]
	bl	_ZSt7forwardINSt13__future_base12_Result_base8_DeleterEEOT_RNSt16remove_referenceIS3_E4typeE
	mov	x1, x0
	add	x0, sp, 48
	mov	x2, x1
	mov	x1, x0
	mov	x0, x19
	bl	_ZNSt5tupleIJPNSt13__future_base12_Result_baseENS1_8_DeleterEEEC1IRS2_S3_Lb1EEEOT_OT0_
	nop
	ldr	x19, [sp, 16]
	ldp	x29, x30, [sp], 64
	.cfi_restore 30
	.cfi_restore 29
	.cfi_restore 19
	.cfi_def_cfa_offset 0
	ret
	.cfi_endproc
.LFE4168:
	.size	_ZNSt15__uniq_ptr_implINSt13__future_base12_Result_baseENS1_8_DeleterEEC2IS2_EEPS1_OT_, .-_ZNSt15__uniq_ptr_implINSt13__future_base12_Result_baseENS1_8_DeleterEEC2IS2_EEPS1_OT_
	.weak	_ZNSt15__uniq_ptr_implINSt13__future_base12_Result_baseENS1_8_DeleterEEC1IS2_EEPS1_OT_
	.set	_ZNSt15__uniq_ptr_implINSt13__future_base12_Result_baseENS1_8_DeleterEEC1IS2_EEPS1_OT_,_ZNSt15__uniq_ptr_implINSt13__future_base12_Result_baseENS1_8_DeleterEEC2IS2_EEPS1_OT_
	.section	.text._ZSt4moveIRPNSt13__future_base13_State_baseV2EEONSt16remove_referenceIT_E4typeEOS5_,"axG",@progbits,_ZSt4moveIRPNSt13__future_base13_State_baseV2EEONSt16remove_referenceIT_E4typeEOS5_,comdat
	.align	2
	.weak	_ZSt4moveIRPNSt13__future_base13_State_baseV2EEONSt16remove_referenceIT_E4typeEOS5_
	.type	_ZSt4moveIRPNSt13__future_base13_State_baseV2EEONSt16remove_referenceIT_E4typeEOS5_, %function
_ZSt4moveIRPNSt13__future_base13_State_baseV2EEONSt16remove_referenceIT_E4typeEOS5_:
.LFB4171:
	.cfi_startproc
	sub	sp, sp, #16
	.cfi_def_cfa_offset 16
	str	x0, [sp, 8]
	ldr	x0, [sp, 8]
	add	sp, sp, 16
	.cfi_def_cfa_offset 0
	ret
	.cfi_endproc
.LFE4171:
	.size	_ZSt4moveIRPNSt13__future_base13_State_baseV2EEONSt16remove_referenceIT_E4typeEOS5_, .-_ZSt4moveIRPNSt13__future_base13_State_baseV2EEONSt16remove_referenceIT_E4typeEOS5_
	.section	.text._ZSt4swapIPNSt13__future_base13_State_baseV2EENSt9enable_ifIXsrSt6__and_IJSt6__not_ISt15__is_tuple_likeIT_EESt21is_move_constructibleIS7_ESt18is_move_assignableIS7_EEE5valueEvE4typeERS7_SH_,"axG",@progbits,_ZSt4swapIPNSt13__future_base13_State_baseV2EENSt9enable_ifIXsrSt6__and_IJSt6__not_ISt15__is_tuple_likeIT_EESt21is_move_constructibleIS7_ESt18is_move_assignableIS7_EEE5valueEvE4typeERS7_SH_,comdat
	.align	2
	.weak	_ZSt4swapIPNSt13__future_base13_State_baseV2EENSt9enable_ifIXsrSt6__and_IJSt6__not_ISt15__is_tuple_likeIT_EESt21is_move_constructibleIS7_ESt18is_move_assignableIS7_EEE5valueEvE4typeERS7_SH_
	.type	_ZSt4swapIPNSt13__future_base13_State_baseV2EENSt9enable_ifIXsrSt6__and_IJSt6__not_ISt15__is_tuple_likeIT_EESt21is_move_constructibleIS7_ESt18is_move_assignableIS7_EEE5valueEvE4typeERS7_SH_, %function
_ZSt4swapIPNSt13__future_base13_State_baseV2EENSt9enable_ifIXsrSt6__and_IJSt6__not_ISt15__is_tuple_likeIT_EESt21is_move_constructibleIS7_ESt18is_move_assignableIS7_EEE5valueEvE4typeERS7_SH_:
.LFB4170:
	.cfi_startproc
	stp	x29, x30, [sp, -48]!
	.cfi_def_cfa_offset 48
	.cfi_offset 29, -48
	.cfi_offset 30, -40
	mov	x29, sp
	str	x0, [sp, 24]
	str	x1, [sp, 16]
	adrp	x0, :got:__stack_chk_guard
	ldr	x0, [x0, #:got_lo12:__stack_chk_guard]
	ldr	x1, [x0]
	str	x1, [sp, 40]
	mov	x1, 0
	ldr	x0, [sp, 24]
	bl	_ZSt4moveIRPNSt13__future_base13_State_baseV2EEONSt16remove_referenceIT_E4typeEOS5_
	ldr	x0, [x0]
	str	x0, [sp, 32]
	ldr	x0, [sp, 16]
	bl	_ZSt4moveIRPNSt13__future_base13_State_baseV2EEONSt16remove_referenceIT_E4typeEOS5_
	ldr	x1, [x0]
	ldr	x0, [sp, 24]
	str	x1, [x0]
	add	x0, sp, 32
	bl	_ZSt4moveIRPNSt13__future_base13_State_baseV2EEONSt16remove_referenceIT_E4typeEOS5_
	ldr	x1, [x0]
	ldr	x0, [sp, 16]
	str	x1, [x0]
	nop
	adrp	x0, :got:__stack_chk_guard
	ldr	x0, [x0, #:got_lo12:__stack_chk_guard]
	ldr	x2, [sp, 40]
	ldr	x1, [x0]
	subs	x2, x2, x1
	mov	x1, 0
	beq	.L324
	bl	__stack_chk_fail
.L324:
	ldp	x29, x30, [sp], 48
	.cfi_restore 30
	.cfi_restore 29
	.cfi_def_cfa_offset 0
	ret
	.cfi_endproc
.LFE4170:
	.size	_ZSt4swapIPNSt13__future_base13_State_baseV2EENSt9enable_ifIXsrSt6__and_IJSt6__not_ISt15__is_tuple_likeIT_EESt21is_move_constructibleIS7_ESt18is_move_assignableIS7_EEE5valueEvE4typeERS7_SH_, .-_ZSt4swapIPNSt13__future_base13_State_baseV2EENSt9enable_ifIXsrSt6__and_IJSt6__not_ISt15__is_tuple_likeIT_EESt21is_move_constructibleIS7_ESt18is_move_assignableIS7_EEE5valueEvE4typeERS7_SH_
	.section	.text._ZNSt14__shared_countILN9__gnu_cxx12_Lock_policyE2EE7_M_swapERS2_,"axG",@progbits,_ZNSt14__shared_countILN9__gnu_cxx12_Lock_policyE2EE7_M_swapERS2_,comdat
	.align	2
	.weak	_ZNSt14__shared_countILN9__gnu_cxx12_Lock_policyE2EE7_M_swapERS2_
	.type	_ZNSt14__shared_countILN9__gnu_cxx12_Lock_policyE2EE7_M_swapERS2_, %function
_ZNSt14__shared_countILN9__gnu_cxx12_Lock_policyE2EE7_M_swapERS2_:
.LFB4172:
	.cfi_startproc
	sub	sp, sp, #32
	.cfi_def_cfa_offset 32
	str	x0, [sp, 8]
	str	x1, [sp]
	ldr	x0, [sp]
	ldr	x0, [x0]
	str	x0, [sp, 24]
	ldr	x0, [sp, 8]
	ldr	x1, [x0]
	ldr	x0, [sp]
	str	x1, [x0]
	ldr	x0, [sp, 8]
	ldr	x1, [sp, 24]
	str	x1, [x0]
	nop
	add	sp, sp, 32
	.cfi_def_cfa_offset 0
	ret
	.cfi_endproc
.LFE4172:
	.size	_ZNSt14__shared_countILN9__gnu_cxx12_Lock_policyE2EE7_M_swapERS2_, .-_ZNSt14__shared_countILN9__gnu_cxx12_Lock_policyE2EE7_M_swapERS2_
	.section	.text._ZNSt8literals15chrono_literals16__check_overflowINSt6chrono8durationIlSt5ratioILl1ELl1EEEEJLc49ELc48EEEET_v,"axG",@progbits,_ZNSt8literals15chrono_literals16__check_overflowINSt6chrono8durationIlSt5ratioILl1ELl1EEEEJLc49ELc48EEEET_v,comdat
	.align	2
	.weak	_ZNSt8literals15chrono_literals16__check_overflowINSt6chrono8durationIlSt5ratioILl1ELl1EEEEJLc49ELc48EEEET_v
	.type	_ZNSt8literals15chrono_literals16__check_overflowINSt6chrono8durationIlSt5ratioILl1ELl1EEEEJLc49ELc48EEEET_v, %function
_ZNSt8literals15chrono_literals16__check_overflowINSt6chrono8durationIlSt5ratioILl1ELl1EEEEJLc49ELc48EEEET_v:
.LFB4201:
	.cfi_startproc
	stp	x29, x30, [sp, -48]!
	.cfi_def_cfa_offset 48
	.cfi_offset 29, -48
	.cfi_offset 30, -40
	mov	x29, sp
	adrp	x0, :got:__stack_chk_guard
	ldr	x0, [x0, #:got_lo12:__stack_chk_guard]
	ldr	x1, [x0]
	str	x1, [sp, 40]
	mov	x1, 0
	mov	x0, 10
	str	x0, [sp, 24]
	add	x1, sp, 24
	add	x0, sp, 32
	bl	_ZNSt6chrono8durationIlSt5ratioILl1ELl1EEEC1IlvEERKT_
	ldr	x0, [sp, 32]
	mov	x1, x0
	adrp	x0, :got:__stack_chk_guard
	ldr	x0, [x0, #:got_lo12:__stack_chk_guard]
	ldr	x3, [sp, 40]
	ldr	x2, [x0]
	subs	x3, x3, x2
	mov	x2, 0
	beq	.L328
	bl	__stack_chk_fail
.L328:
	mov	x0, x1
	ldp	x29, x30, [sp], 48
	.cfi_restore 30
	.cfi_restore 29
	.cfi_def_cfa_offset 0
	ret
	.cfi_endproc
.LFE4201:
	.size	_ZNSt8literals15chrono_literals16__check_overflowINSt6chrono8durationIlSt5ratioILl1ELl1EEEEJLc49ELc48EEEET_v, .-_ZNSt8literals15chrono_literals16__check_overflowINSt6chrono8durationIlSt5ratioILl1ELl1EEEEJLc49ELc48EEEET_v
	.section	.text._ZNSt6chronoltIlSt5ratioILl1ELl1EElS2_EEbRKNS_8durationIT_T0_EERKNS3_IT1_T2_EE,"axG",@progbits,_ZNSt6chronoltIlSt5ratioILl1ELl1EElS2_EEbRKNS_8durationIT_T0_EERKNS3_IT1_T2_EE,comdat
	.align	2
	.weak	_ZNSt6chronoltIlSt5ratioILl1ELl1EElS2_EEbRKNS_8durationIT_T0_EERKNS3_IT1_T2_EE
	.type	_ZNSt6chronoltIlSt5ratioILl1ELl1EElS2_EEbRKNS_8durationIT_T0_EERKNS3_IT1_T2_EE, %function
_ZNSt6chronoltIlSt5ratioILl1ELl1EElS2_EEbRKNS_8durationIT_T0_EERKNS3_IT1_T2_EE:
.LFB4202:
	.cfi_startproc
	stp	x29, x30, [sp, -80]!
	.cfi_def_cfa_offset 80
	.cfi_offset 29, -80
	.cfi_offset 30, -72
	mov	x29, sp
	str	x19, [sp, 16]
	.cfi_offset 19, -64
	str	x0, [sp, 40]
	str	x1, [sp, 32]
	adrp	x0, :got:__stack_chk_guard
	ldr	x0, [x0, #:got_lo12:__stack_chk_guard]
	ldr	x1, [x0]
	str	x1, [sp, 72]
	mov	x1, 0
	ldr	x0, [sp, 40]
	ldr	x0, [x0]
	str	x0, [sp, 56]
	add	x0, sp, 56
	bl	_ZNKSt6chrono8durationIlSt5ratioILl1ELl1EEE5countEv
	mov	x19, x0
	ldr	x0, [sp, 32]
	ldr	x0, [x0]
	str	x0, [sp, 64]
	add	x0, sp, 64
	bl	_ZNKSt6chrono8durationIlSt5ratioILl1ELl1EEE5countEv
	cmp	x19, x0
	cset	w0, lt
	and	w0, w0, 255
	mov	w1, w0
	adrp	x0, :got:__stack_chk_guard
	ldr	x0, [x0, #:got_lo12:__stack_chk_guard]
	ldr	x3, [sp, 72]
	ldr	x2, [x0]
	subs	x3, x3, x2
	mov	x2, 0
	beq	.L331
	bl	__stack_chk_fail
.L331:
	mov	w0, w1
	ldr	x19, [sp, 16]
	ldp	x29, x30, [sp], 80
	.cfi_restore 30
	.cfi_restore 29
	.cfi_restore 19
	.cfi_def_cfa_offset 0
	ret
	.cfi_endproc
.LFE4202:
	.size	_ZNSt6chronoltIlSt5ratioILl1ELl1EElS2_EEbRKNS_8durationIT_T0_EERKNS3_IT1_T2_EE, .-_ZNSt6chronoltIlSt5ratioILl1ELl1EElS2_EEbRKNS_8durationIT_T0_EERKNS3_IT1_T2_EE
	.section	.text._ZNSt6chrono20__duration_cast_implINS_8durationIlSt5ratioILl1ELl1EEEES3_lLb1ELb1EE6__castIlS3_EES4_RKNS1_IT_T0_EE,"axG",@progbits,_ZNSt6chrono20__duration_cast_implINS_8durationIlSt5ratioILl1ELl1EEEES3_lLb1ELb1EE6__castIlS3_EES4_RKNS1_IT_T0_EE,comdat
	.align	2
	.weak	_ZNSt6chrono20__duration_cast_implINS_8durationIlSt5ratioILl1ELl1EEEES3_lLb1ELb1EE6__castIlS3_EES4_RKNS1_IT_T0_EE
	.type	_ZNSt6chrono20__duration_cast_implINS_8durationIlSt5ratioILl1ELl1EEEES3_lLb1ELb1EE6__castIlS3_EES4_RKNS1_IT_T0_EE, %function
_ZNSt6chrono20__duration_cast_implINS_8durationIlSt5ratioILl1ELl1EEEES3_lLb1ELb1EE6__castIlS3_EES4_RKNS1_IT_T0_EE:
.LFB4203:
	.cfi_startproc
	stp	x29, x30, [sp, -64]!
	.cfi_def_cfa_offset 64
	.cfi_offset 29, -64
	.cfi_offset 30, -56
	mov	x29, sp
	str	x0, [sp, 24]
	adrp	x0, :got:__stack_chk_guard
	ldr	x0, [x0, #:got_lo12:__stack_chk_guard]
	ldr	x1, [x0]
	str	x1, [sp, 56]
	mov	x1, 0
	ldr	x0, [sp, 24]
	bl	_ZNKSt6chrono8durationIlSt5ratioILl1ELl1EEE5countEv
	str	x0, [sp, 40]
	add	x1, sp, 40
	add	x0, sp, 48
	bl	_ZNSt6chrono8durationIlSt5ratioILl1ELl1EEEC1IlvEERKT_
	ldr	x0, [sp, 48]
	mov	x1, x0
	adrp	x0, :got:__stack_chk_guard
	ldr	x0, [x0, #:got_lo12:__stack_chk_guard]
	ldr	x3, [sp, 56]
	ldr	x2, [x0]
	subs	x3, x3, x2
	mov	x2, 0
	beq	.L334
	bl	__stack_chk_fail
.L334:
	mov	x0, x1
	ldp	x29, x30, [sp], 64
	.cfi_restore 30
	.cfi_restore 29
	.cfi_def_cfa_offset 0
	ret
	.cfi_endproc
.LFE4203:
	.size	_ZNSt6chrono20__duration_cast_implINS_8durationIlSt5ratioILl1ELl1EEEES3_lLb1ELb1EE6__castIlS3_EES4_RKNS1_IT_T0_EE, .-_ZNSt6chrono20__duration_cast_implINS_8durationIlSt5ratioILl1ELl1EEEES3_lLb1ELb1EE6__castIlS3_EES4_RKNS1_IT_T0_EE
	.section	.text._ZNSt6chrono20__duration_cast_implINS_8durationIlSt5ratioILl1ELl1000000000EEEES2_ILl1000000000ELl1EElLb0ELb1EE6__castIlS2_ILl1ELl1EEEES4_RKNS1_IT_T0_EE,"axG",@progbits,_ZNSt6chrono20__duration_cast_implINS_8durationIlSt5ratioILl1ELl1000000000EEEES2_ILl1000000000ELl1EElLb0ELb1EE6__castIlS2_ILl1ELl1EEEES4_RKNS1_IT_T0_EE,comdat
	.align	2
	.weak	_ZNSt6chrono20__duration_cast_implINS_8durationIlSt5ratioILl1ELl1000000000EEEES2_ILl1000000000ELl1EElLb0ELb1EE6__castIlS2_ILl1ELl1EEEES4_RKNS1_IT_T0_EE
	.type	_ZNSt6chrono20__duration_cast_implINS_8durationIlSt5ratioILl1ELl1000000000EEEES2_ILl1000000000ELl1EElLb0ELb1EE6__castIlS2_ILl1ELl1EEEES4_RKNS1_IT_T0_EE, %function
_ZNSt6chrono20__duration_cast_implINS_8durationIlSt5ratioILl1ELl1000000000EEEES2_ILl1000000000ELl1EElLb0ELb1EE6__castIlS2_ILl1ELl1EEEES4_RKNS1_IT_T0_EE:
.LFB4204:
	.cfi_startproc
	stp	x29, x30, [sp, -64]!
	.cfi_def_cfa_offset 64
	.cfi_offset 29, -64
	.cfi_offset 30, -56
	mov	x29, sp
	str	x0, [sp, 24]
	adrp	x0, :got:__stack_chk_guard
	ldr	x0, [x0, #:got_lo12:__stack_chk_guard]
	ldr	x1, [x0]
	str	x1, [sp, 56]
	mov	x1, 0
	ldr	x0, [sp, 24]
	bl	_ZNKSt6chrono8durationIlSt5ratioILl1ELl1EEE5countEv
	mov	x1, x0
	mov	x0, 51712
	movk	x0, 0x3b9a, lsl 16
	mul	x0, x1, x0
	str	x0, [sp, 40]
	add	x1, sp, 40
	add	x0, sp, 48
	bl	_ZNSt6chrono8durationIlSt5ratioILl1ELl1000000000EEEC1IlvEERKT_
	ldr	x0, [sp, 48]
	mov	x1, x0
	adrp	x0, :got:__stack_chk_guard
	ldr	x0, [x0, #:got_lo12:__stack_chk_guard]
	ldr	x3, [sp, 56]
	ldr	x2, [x0]
	subs	x3, x3, x2
	mov	x2, 0
	beq	.L337
	bl	__stack_chk_fail
.L337:
	mov	x0, x1
	ldp	x29, x30, [sp], 64
	.cfi_restore 30
	.cfi_restore 29
	.cfi_def_cfa_offset 0
	ret
	.cfi_endproc
.LFE4204:
	.size	_ZNSt6chrono20__duration_cast_implINS_8durationIlSt5ratioILl1ELl1000000000EEEES2_ILl1000000000ELl1EElLb0ELb1EE6__castIlS2_ILl1ELl1EEEES4_RKNS1_IT_T0_EE, .-_ZNSt6chrono20__duration_cast_implINS_8durationIlSt5ratioILl1ELl1000000000EEEES2_ILl1000000000ELl1EElLb0ELb1EE6__castIlS2_ILl1ELl1EEEES4_RKNS1_IT_T0_EE
	.section	.text._ZNSt7promiseIiE8_M_stateEv,"axG",@progbits,_ZNSt7promiseIiE8_M_stateEv,comdat
	.align	2
	.weak	_ZNSt7promiseIiE8_M_stateEv
	.type	_ZNSt7promiseIiE8_M_stateEv, %function
_ZNSt7promiseIiE8_M_stateEv:
.LFB4205:
	.cfi_startproc
	stp	x29, x30, [sp, -32]!
	.cfi_def_cfa_offset 32
	.cfi_offset 29, -32
	.cfi_offset 30, -24
	mov	x29, sp
	str	x0, [sp, 24]
	ldr	x0, [sp, 24]
	bl	_ZNSt13__future_base13_State_baseV28_S_checkIS0_EEvRKSt10shared_ptrIT_E
	ldr	x0, [sp, 24]
	bl	_ZNKSt19__shared_ptr_accessINSt13__future_base13_State_baseV2ELN9__gnu_cxx12_Lock_policyE2ELb0ELb0EEdeEv
	ldp	x29, x30, [sp], 32
	.cfi_restore 30
	.cfi_restore 29
	.cfi_def_cfa_offset 0
	ret
	.cfi_endproc
.LFE4205:
	.size	_ZNSt7promiseIiE8_M_stateEv, .-_ZNSt7promiseIiE8_M_stateEv
	.section	.text._ZSt4moveIRiEONSt16remove_referenceIT_E4typeEOS2_,"axG",@progbits,_ZSt4moveIRiEONSt16remove_referenceIT_E4typeEOS2_,comdat
	.align	2
	.weak	_ZSt4moveIRiEONSt16remove_referenceIT_E4typeEOS2_
	.type	_ZSt4moveIRiEONSt16remove_referenceIT_E4typeEOS2_, %function
_ZSt4moveIRiEONSt16remove_referenceIT_E4typeEOS2_:
.LFB4206:
	.cfi_startproc
	sub	sp, sp, #16
	.cfi_def_cfa_offset 16
	str	x0, [sp, 8]
	ldr	x0, [sp, 8]
	add	sp, sp, 16
	.cfi_def_cfa_offset 0
	ret
	.cfi_endproc
.LFE4206:
	.size	_ZSt4moveIRiEONSt16remove_referenceIT_E4typeEOS2_, .-_ZSt4moveIRiEONSt16remove_referenceIT_E4typeEOS2_
	.section	.text._ZSt11__addressofIiEPT_RS0_,"axG",@progbits,_ZSt11__addressofIiEPT_RS0_,comdat
	.align	2
	.weak	_ZSt11__addressofIiEPT_RS0_
	.type	_ZSt11__addressofIiEPT_RS0_, %function
_ZSt11__addressofIiEPT_RS0_:
.LFB4208:
	.cfi_startproc
	sub	sp, sp, #16
	.cfi_def_cfa_offset 16
	str	x0, [sp, 8]
	ldr	x0, [sp, 8]
	add	sp, sp, 16
	.cfi_def_cfa_offset 0
	ret
	.cfi_endproc
.LFE4208:
	.size	_ZSt11__addressofIiEPT_RS0_, .-_ZSt11__addressofIiEPT_RS0_
	.section	.text._ZNSt8functionIFSt10unique_ptrINSt13__future_base12_Result_baseENS2_8_DeleterEEvEEC2INS1_13_State_baseV27_SetterIiOiEEvEEOT_,"axG",@progbits,_ZNSt8functionIFSt10unique_ptrINSt13__future_base12_Result_baseENS2_8_DeleterEEvEEC5INS1_13_State_baseV27_SetterIiOiEEvEEOT_,comdat
	.align	2
	.weak	_ZNSt8functionIFSt10unique_ptrINSt13__future_base12_Result_baseENS2_8_DeleterEEvEEC2INS1_13_State_baseV27_SetterIiOiEEvEEOT_
	.type	_ZNSt8functionIFSt10unique_ptrINSt13__future_base12_Result_baseENS2_8_DeleterEEvEEC2INS1_13_State_baseV27_SetterIiOiEEvEEOT_, %function
_ZNSt8functionIFSt10unique_ptrINSt13__future_base12_Result_baseENS2_8_DeleterEEvEEC2INS1_13_State_baseV27_SetterIiOiEEvEEOT_:
.LFB4210:
	.cfi_startproc
	stp	x29, x30, [sp, -48]!
	.cfi_def_cfa_offset 48
	.cfi_offset 29, -48
	.cfi_offset 30, -40
	mov	x29, sp
	str	x19, [sp, 16]
	.cfi_offset 19, -32
	str	x0, [sp, 40]
	str	x1, [sp, 32]
	ldr	x0, [sp, 40]
	stp	xzr, xzr, [x0]
	str	xzr, [x0, 16]
	ldr	x0, [sp, 40]
	bl	_ZNSt14_Function_baseC2Ev
	ldr	x0, [sp, 40]
	str	xzr, [x0, 24]
	ldr	x0, [sp, 32]
	bl	_ZNSt14_Function_base13_Base_managerINSt13__future_base13_State_baseV27_SetterIiOiEEE21_M_not_empty_functionIS5_EEbRKT_
	and	w0, w0, 255
	cmp	w0, 0
	beq	.L346
	ldr	x19, [sp, 40]
	ldr	x0, [sp, 32]
	bl	_ZSt7forwardINSt13__future_base13_State_baseV27_SetterIiOiEEEOT_RNSt16remove_referenceIS5_E4typeE
	mov	x1, x0
	mov	x0, x19
	bl	_ZNSt14_Function_base13_Base_managerINSt13__future_base13_State_baseV27_SetterIiOiEEE15_M_init_functorIS5_EEvRSt9_Any_dataOT_
	ldr	x0, [sp, 40]
	adrp	x1, _ZNSt17_Function_handlerIFSt10unique_ptrINSt13__future_base12_Result_baseENS2_8_DeleterEEvENS1_13_State_baseV27_SetterIiOiEEE9_M_invokeERKSt9_Any_data
	add	x1, x1, :lo12:_ZNSt17_Function_handlerIFSt10unique_ptrINSt13__future_base12_Result_baseENS2_8_DeleterEEvENS1_13_State_baseV27_SetterIiOiEEE9_M_invokeERKSt9_Any_data
	str	x1, [x0, 24]
	ldr	x0, [sp, 40]
	adrp	x1, _ZNSt17_Function_handlerIFSt10unique_ptrINSt13__future_base12_Result_baseENS2_8_DeleterEEvENS1_13_State_baseV27_SetterIiOiEEE10_M_managerERSt9_Any_dataRKSB_St18_Manager_operation
	add	x1, x1, :lo12:_ZNSt17_Function_handlerIFSt10unique_ptrINSt13__future_base12_Result_baseENS2_8_DeleterEEvENS1_13_State_baseV27_SetterIiOiEEE10_M_managerERSt9_Any_dataRKSB_St18_Manager_operation
	str	x1, [x0, 16]
.L346:
	nop
	ldr	x19, [sp, 16]
	ldp	x29, x30, [sp], 48
	.cfi_restore 30
	.cfi_restore 29
	.cfi_restore 19
	.cfi_def_cfa_offset 0
	ret
	.cfi_endproc
.LFE4210:
	.size	_ZNSt8functionIFSt10unique_ptrINSt13__future_base12_Result_baseENS2_8_DeleterEEvEEC2INS1_13_State_baseV27_SetterIiOiEEvEEOT_, .-_ZNSt8functionIFSt10unique_ptrINSt13__future_base12_Result_baseENS2_8_DeleterEEvEEC2INS1_13_State_baseV27_SetterIiOiEEvEEOT_
	.weak	_ZNSt8functionIFSt10unique_ptrINSt13__future_base12_Result_baseENS2_8_DeleterEEvEEC1INS1_13_State_baseV27_SetterIiOiEEvEEOT_
	.set	_ZNSt8functionIFSt10unique_ptrINSt13__future_base12_Result_baseENS2_8_DeleterEEvEEC1INS1_13_State_baseV27_SetterIiOiEEvEEOT_,_ZNSt8functionIFSt10unique_ptrINSt13__future_base12_Result_baseENS2_8_DeleterEEvEEC2INS1_13_State_baseV27_SetterIiOiEEvEEOT_
	.section	.text._ZNSt13__future_base7_ResultIiEC2Ev,"axG",@progbits,_ZNSt13__future_base7_ResultIiEC5Ev,comdat
	.align	2
	.weak	_ZNSt13__future_base7_ResultIiEC2Ev
	.type	_ZNSt13__future_base7_ResultIiEC2Ev, %function
_ZNSt13__future_base7_ResultIiEC2Ev:
.LFB4213:
	.cfi_startproc
	.cfi_personality 0x9b,DW.ref.__gxx_personality_v0
	.cfi_lsda 0x1b,.LLSDA4213
	stp	x29, x30, [sp, -32]!
	.cfi_def_cfa_offset 32
	.cfi_offset 29, -32
	.cfi_offset 30, -24
	mov	x29, sp
	str	x0, [sp, 24]
	ldr	x0, [sp, 24]
	bl	_ZNSt13__future_base12_Result_baseC2Ev
	adrp	x0, _ZTVNSt13__future_base7_ResultIiEE+16
	add	x1, x0, :lo12:_ZTVNSt13__future_base7_ResultIiEE+16
	ldr	x0, [sp, 24]
	str	x1, [x0]
	ldr	x0, [sp, 24]
	strb	wzr, [x0, 20]
	nop
	ldp	x29, x30, [sp], 32
	.cfi_restore 30
	.cfi_restore 29
	.cfi_def_cfa_offset 0
	ret
	.cfi_endproc
.LFE4213:
	.section	.gcc_except_table
.LLSDA4213:
	.byte	0xff
	.byte	0xff
	.byte	0x1
	.uleb128 .LLSDACSE4213-.LLSDACSB4213
.LLSDACSB4213:
.LLSDACSE4213:
	.section	.text._ZNSt13__future_base7_ResultIiEC2Ev,"axG",@progbits,_ZNSt13__future_base7_ResultIiEC5Ev,comdat
	.size	_ZNSt13__future_base7_ResultIiEC2Ev, .-_ZNSt13__future_base7_ResultIiEC2Ev
	.weak	_ZNSt13__future_base7_ResultIiEC1Ev
	.set	_ZNSt13__future_base7_ResultIiEC1Ev,_ZNSt13__future_base7_ResultIiEC2Ev
	.section	.text._ZNSt15__uniq_ptr_dataINSt13__future_base7_ResultIiEENS0_12_Result_base8_DeleterELb1ELb1EECI2St15__uniq_ptr_implIS2_S4_EEPS2_,"axG",@progbits,_ZNSt15__uniq_ptr_dataINSt13__future_base7_ResultIiEENS0_12_Result_base8_DeleterELb1ELb1EECI5St15__uniq_ptr_implIS2_S4_EEPS2_,comdat
	.align	2
	.weak	_ZNSt15__uniq_ptr_dataINSt13__future_base7_ResultIiEENS0_12_Result_base8_DeleterELb1ELb1EECI2St15__uniq_ptr_implIS2_S4_EEPS2_
	.type	_ZNSt15__uniq_ptr_dataINSt13__future_base7_ResultIiEENS0_12_Result_base8_DeleterELb1ELb1EECI2St15__uniq_ptr_implIS2_S4_EEPS2_, %function
_ZNSt15__uniq_ptr_dataINSt13__future_base7_ResultIiEENS0_12_Result_base8_DeleterELb1ELb1EECI2St15__uniq_ptr_implIS2_S4_EEPS2_:
.LFB4217:
	.cfi_startproc
	stp	x29, x30, [sp, -32]!
	.cfi_def_cfa_offset 32
	.cfi_offset 29, -32
	.cfi_offset 30, -24
	mov	x29, sp
	str	x0, [sp, 24]
	str	x1, [sp, 16]
	ldr	x0, [sp, 24]
	ldr	x1, [sp, 16]
	bl	_ZNSt15__uniq_ptr_implINSt13__future_base7_ResultIiEENS0_12_Result_base8_DeleterEEC2EPS2_
	nop
	ldp	x29, x30, [sp], 32
	.cfi_restore 30
	.cfi_restore 29
	.cfi_def_cfa_offset 0
	ret
	.cfi_endproc
.LFE4217:
	.size	_ZNSt15__uniq_ptr_dataINSt13__future_base7_ResultIiEENS0_12_Result_base8_DeleterELb1ELb1EECI2St15__uniq_ptr_implIS2_S4_EEPS2_, .-_ZNSt15__uniq_ptr_dataINSt13__future_base7_ResultIiEENS0_12_Result_base8_DeleterELb1ELb1EECI2St15__uniq_ptr_implIS2_S4_EEPS2_
	.weak	_ZNSt15__uniq_ptr_dataINSt13__future_base7_ResultIiEENS0_12_Result_base8_DeleterELb1ELb1EECI1St15__uniq_ptr_implIS2_S4_EEPS2_
	.set	_ZNSt15__uniq_ptr_dataINSt13__future_base7_ResultIiEENS0_12_Result_base8_DeleterELb1ELb1EECI1St15__uniq_ptr_implIS2_S4_EEPS2_,_ZNSt15__uniq_ptr_dataINSt13__future_base7_ResultIiEENS0_12_Result_base8_DeleterELb1ELb1EECI2St15__uniq_ptr_implIS2_S4_EEPS2_
	.section	.text._ZNSt10unique_ptrINSt13__future_base7_ResultIiEENS0_12_Result_base8_DeleterEEC2IS4_vEEPS2_,"axG",@progbits,_ZNSt10unique_ptrINSt13__future_base7_ResultIiEENS0_12_Result_base8_DeleterEEC5IS4_vEEPS2_,comdat
	.align	2
	.weak	_ZNSt10unique_ptrINSt13__future_base7_ResultIiEENS0_12_Result_base8_DeleterEEC2IS4_vEEPS2_
	.type	_ZNSt10unique_ptrINSt13__future_base7_ResultIiEENS0_12_Result_base8_DeleterEEC2IS4_vEEPS2_, %function
_ZNSt10unique_ptrINSt13__future_base7_ResultIiEENS0_12_Result_base8_DeleterEEC2IS4_vEEPS2_:
.LFB4219:
	.cfi_startproc
	.cfi_personality 0x9b,DW.ref.__gxx_personality_v0
	.cfi_lsda 0x1b,.LLSDA4219
	stp	x29, x30, [sp, -32]!
	.cfi_def_cfa_offset 32
	.cfi_offset 29, -32
	.cfi_offset 30, -24
	mov	x29, sp
	str	x0, [sp, 24]
	str	x1, [sp, 16]
	ldr	x0, [sp, 24]
	ldr	x1, [sp, 16]
	bl	_ZNSt15__uniq_ptr_dataINSt13__future_base7_ResultIiEENS0_12_Result_base8_DeleterELb1ELb1EECI1St15__uniq_ptr_implIS2_S4_EEPS2_
	nop
	ldp	x29, x30, [sp], 32
	.cfi_restore 30
	.cfi_restore 29
	.cfi_def_cfa_offset 0
	ret
	.cfi_endproc
.LFE4219:
	.section	.gcc_except_table
.LLSDA4219:
	.byte	0xff
	.byte	0xff
	.byte	0x1
	.uleb128 .LLSDACSE4219-.LLSDACSB4219
.LLSDACSB4219:
.LLSDACSE4219:
	.section	.text._ZNSt10unique_ptrINSt13__future_base7_ResultIiEENS0_12_Result_base8_DeleterEEC2IS4_vEEPS2_,"axG",@progbits,_ZNSt10unique_ptrINSt13__future_base7_ResultIiEENS0_12_Result_base8_DeleterEEC5IS4_vEEPS2_,comdat
	.size	_ZNSt10unique_ptrINSt13__future_base7_ResultIiEENS0_12_Result_base8_DeleterEEC2IS4_vEEPS2_, .-_ZNSt10unique_ptrINSt13__future_base7_ResultIiEENS0_12_Result_base8_DeleterEEC2IS4_vEEPS2_
	.weak	_ZNSt10unique_ptrINSt13__future_base7_ResultIiEENS0_12_Result_base8_DeleterEEC1IS4_vEEPS2_
	.set	_ZNSt10unique_ptrINSt13__future_base7_ResultIiEENS0_12_Result_base8_DeleterEEC1IS4_vEEPS2_,_ZNSt10unique_ptrINSt13__future_base7_ResultIiEENS0_12_Result_base8_DeleterEEC2IS4_vEEPS2_
	.section	.text._ZNSt10unique_ptrINSt13__future_base7_ResultIiEENS0_12_Result_base8_DeleterEED2Ev,"axG",@progbits,_ZNSt10unique_ptrINSt13__future_base7_ResultIiEENS0_12_Result_base8_DeleterEED5Ev,comdat
	.align	2
	.weak	_ZNSt10unique_ptrINSt13__future_base7_ResultIiEENS0_12_Result_base8_DeleterEED2Ev
	.type	_ZNSt10unique_ptrINSt13__future_base7_ResultIiEENS0_12_Result_base8_DeleterEED2Ev, %function
_ZNSt10unique_ptrINSt13__future_base7_ResultIiEENS0_12_Result_base8_DeleterEED2Ev:
.LFB4222:
	.cfi_startproc
	.cfi_personality 0x9b,DW.ref.__gxx_personality_v0
	.cfi_lsda 0x1b,.LLSDA4222
	stp	x29, x30, [sp, -64]!
	.cfi_def_cfa_offset 64
	.cfi_offset 29, -64
	.cfi_offset 30, -56
	mov	x29, sp
	str	x19, [sp, 16]
	.cfi_offset 19, -48
	str	x0, [sp, 40]
	ldr	x0, [sp, 40]
	bl	_ZNSt15__uniq_ptr_implINSt13__future_base7_ResultIiEENS0_12_Result_base8_DeleterEE6_M_ptrEv
	str	x0, [sp, 56]
	ldr	x0, [sp, 56]
	ldr	x0, [x0]
	cmp	x0, 0
	beq	.L351
	ldr	x0, [sp, 40]
	bl	_ZNSt10unique_ptrINSt13__future_base7_ResultIiEENS0_12_Result_base8_DeleterEE11get_deleterEv
	mov	x19, x0
	ldr	x0, [sp, 56]
	bl	_ZSt4moveIRPNSt13__future_base7_ResultIiEEEONSt16remove_referenceIT_E4typeEOS6_
	ldr	x0, [x0]
	mov	x1, x0
	mov	x0, x19
	bl	_ZNKSt13__future_base12_Result_base8_DeleterclEPS0_
.L351:
	ldr	x0, [sp, 56]
	str	xzr, [x0]
	nop
	ldr	x19, [sp, 16]
	ldp	x29, x30, [sp], 64
	.cfi_restore 30
	.cfi_restore 29
	.cfi_restore 19
	.cfi_def_cfa_offset 0
	ret
	.cfi_endproc
.LFE4222:
	.section	.gcc_except_table
.LLSDA4222:
	.byte	0xff
	.byte	0xff
	.byte	0x1
	.uleb128 .LLSDACSE4222-.LLSDACSB4222
.LLSDACSB4222:
.LLSDACSE4222:
	.section	.text._ZNSt10unique_ptrINSt13__future_base7_ResultIiEENS0_12_Result_base8_DeleterEED2Ev,"axG",@progbits,_ZNSt10unique_ptrINSt13__future_base7_ResultIiEENS0_12_Result_base8_DeleterEED5Ev,comdat
	.size	_ZNSt10unique_ptrINSt13__future_base7_ResultIiEENS0_12_Result_base8_DeleterEED2Ev, .-_ZNSt10unique_ptrINSt13__future_base7_ResultIiEENS0_12_Result_base8_DeleterEED2Ev
	.weak	_ZNSt10unique_ptrINSt13__future_base7_ResultIiEENS0_12_Result_base8_DeleterEED1Ev
	.set	_ZNSt10unique_ptrINSt13__future_base7_ResultIiEENS0_12_Result_base8_DeleterEED1Ev,_ZNSt10unique_ptrINSt13__future_base7_ResultIiEENS0_12_Result_base8_DeleterEED2Ev
	.section	.text._ZSt4moveIRSt10unique_ptrINSt13__future_base7_ResultIiEENS1_12_Result_base8_DeleterEEEONSt16remove_referenceIT_E4typeEOS9_,"axG",@progbits,_ZSt4moveIRSt10unique_ptrINSt13__future_base7_ResultIiEENS1_12_Result_base8_DeleterEEEONSt16remove_referenceIT_E4typeEOS9_,comdat
	.align	2
	.weak	_ZSt4moveIRSt10unique_ptrINSt13__future_base7_ResultIiEENS1_12_Result_base8_DeleterEEEONSt16remove_referenceIT_E4typeEOS9_
	.type	_ZSt4moveIRSt10unique_ptrINSt13__future_base7_ResultIiEENS1_12_Result_base8_DeleterEEEONSt16remove_referenceIT_E4typeEOS9_, %function
_ZSt4moveIRSt10unique_ptrINSt13__future_base7_ResultIiEENS1_12_Result_base8_DeleterEEEONSt16remove_referenceIT_E4typeEOS9_:
.LFB4224:
	.cfi_startproc
	sub	sp, sp, #16
	.cfi_def_cfa_offset 16
	str	x0, [sp, 8]
	ldr	x0, [sp, 8]
	add	sp, sp, 16
	.cfi_def_cfa_offset 0
	ret
	.cfi_endproc
.LFE4224:
	.size	_ZSt4moveIRSt10unique_ptrINSt13__future_base7_ResultIiEENS1_12_Result_base8_DeleterEEEONSt16remove_referenceIT_E4typeEOS9_, .-_ZSt4moveIRSt10unique_ptrINSt13__future_base7_ResultIiEENS1_12_Result_base8_DeleterEEEONSt16remove_referenceIT_E4typeEOS9_
	.section	.text._ZNSt10unique_ptrINSt13__future_base12_Result_baseENS1_8_DeleterEEC2INS0_7_ResultIiEES2_vEEOS_IT_T0_E,"axG",@progbits,_ZNSt10unique_ptrINSt13__future_base12_Result_baseENS1_8_DeleterEEC5INS0_7_ResultIiEES2_vEEOS_IT_T0_E,comdat
	.align	2
	.weak	_ZNSt10unique_ptrINSt13__future_base12_Result_baseENS1_8_DeleterEEC2INS0_7_ResultIiEES2_vEEOS_IT_T0_E
	.type	_ZNSt10unique_ptrINSt13__future_base12_Result_baseENS1_8_DeleterEEC2INS0_7_ResultIiEES2_vEEOS_IT_T0_E, %function
_ZNSt10unique_ptrINSt13__future_base12_Result_baseENS1_8_DeleterEEC2INS0_7_ResultIiEES2_vEEOS_IT_T0_E:
.LFB4226:
	.cfi_startproc
	.cfi_personality 0x9b,DW.ref.__gxx_personality_v0
	.cfi_lsda 0x1b,.LLSDA4226
	stp	x29, x30, [sp, -48]!
	.cfi_def_cfa_offset 48
	.cfi_offset 29, -48
	.cfi_offset 30, -40
	mov	x29, sp
	stp	x19, x20, [sp, 16]
	.cfi_offset 19, -32
	.cfi_offset 20, -24
	str	x0, [sp, 40]
	str	x1, [sp, 32]
	ldr	x19, [sp, 40]
	ldr	x0, [sp, 32]
	bl	_ZNSt10unique_ptrINSt13__future_base7_ResultIiEENS0_12_Result_base8_DeleterEE7releaseEv
	mov	x20, x0
	ldr	x0, [sp, 32]
	bl	_ZNSt10unique_ptrINSt13__future_base7_ResultIiEENS0_12_Result_base8_DeleterEE11get_deleterEv
	bl	_ZSt7forwardINSt13__future_base12_Result_base8_DeleterEEOT_RNSt16remove_referenceIS3_E4typeE
	mov	x2, x0
	mov	x1, x20
	mov	x0, x19
	bl	_ZNSt15__uniq_ptr_dataINSt13__future_base12_Result_baseENS1_8_DeleterELb1ELb1EECI1St15__uniq_ptr_implIS1_S2_EIS2_EEPS1_OT_
	nop
	ldp	x19, x20, [sp, 16]
	ldp	x29, x30, [sp], 48
	.cfi_restore 30
	.cfi_restore 29
	.cfi_restore 19
	.cfi_restore 20
	.cfi_def_cfa_offset 0
	ret
	.cfi_endproc
.LFE4226:
	.section	.gcc_except_table
.LLSDA4226:
	.byte	0xff
	.byte	0xff
	.byte	0x1
	.uleb128 .LLSDACSE4226-.LLSDACSB4226
.LLSDACSB4226:
.LLSDACSE4226:
	.section	.text._ZNSt10unique_ptrINSt13__future_base12_Result_baseENS1_8_DeleterEEC2INS0_7_ResultIiEES2_vEEOS_IT_T0_E,"axG",@progbits,_ZNSt10unique_ptrINSt13__future_base12_Result_baseENS1_8_DeleterEEC5INS0_7_ResultIiEES2_vEEOS_IT_T0_E,comdat
	.size	_ZNSt10unique_ptrINSt13__future_base12_Result_baseENS1_8_DeleterEEC2INS0_7_ResultIiEES2_vEEOS_IT_T0_E, .-_ZNSt10unique_ptrINSt13__future_base12_Result_baseENS1_8_DeleterEEC2INS0_7_ResultIiEES2_vEEOS_IT_T0_E
	.weak	_ZNSt10unique_ptrINSt13__future_base12_Result_baseENS1_8_DeleterEEC1INS0_7_ResultIiEES2_vEEOS_IT_T0_E
	.set	_ZNSt10unique_ptrINSt13__future_base12_Result_baseENS1_8_DeleterEEC1INS0_7_ResultIiEES2_vEEOS_IT_T0_E,_ZNSt10unique_ptrINSt13__future_base12_Result_baseENS1_8_DeleterEEC2INS0_7_ResultIiEES2_vEEOS_IT_T0_E
	.section	.text._ZNSt6futureIiEC2ERKSt10shared_ptrINSt13__future_base13_State_baseV2EE,"axG",@progbits,_ZNSt6futureIiEC5ERKSt10shared_ptrINSt13__future_base13_State_baseV2EE,comdat
	.align	2
	.weak	_ZNSt6futureIiEC2ERKSt10shared_ptrINSt13__future_base13_State_baseV2EE
	.type	_ZNSt6futureIiEC2ERKSt10shared_ptrINSt13__future_base13_State_baseV2EE, %function
_ZNSt6futureIiEC2ERKSt10shared_ptrINSt13__future_base13_State_baseV2EE:
.LFB4229:
	.cfi_startproc
	stp	x29, x30, [sp, -32]!
	.cfi_def_cfa_offset 32
	.cfi_offset 29, -32
	.cfi_offset 30, -24
	mov	x29, sp
	str	x0, [sp, 24]
	str	x1, [sp, 16]
	ldr	x0, [sp, 24]
	ldr	x1, [sp, 16]
	bl	_ZNSt14__basic_futureIiEC2ERKSt10shared_ptrINSt13__future_base13_State_baseV2EE
	nop
	ldp	x29, x30, [sp], 32
	.cfi_restore 30
	.cfi_restore 29
	.cfi_def_cfa_offset 0
	ret
	.cfi_endproc
.LFE4229:
	.size	_ZNSt6futureIiEC2ERKSt10shared_ptrINSt13__future_base13_State_baseV2EE, .-_ZNSt6futureIiEC2ERKSt10shared_ptrINSt13__future_base13_State_baseV2EE
	.weak	_ZNSt6futureIiEC1ERKSt10shared_ptrINSt13__future_base13_State_baseV2EE
	.set	_ZNSt6futureIiEC1ERKSt10shared_ptrINSt13__future_base13_State_baseV2EE,_ZNSt6futureIiEC2ERKSt10shared_ptrINSt13__future_base13_State_baseV2EE
	.section	.text._ZSt7forwardIRFvOSt7promiseIiEEEOT_RNSt16remove_referenceIS5_E4typeE,"axG",@progbits,_ZSt7forwardIRFvOSt7promiseIiEEEOT_RNSt16remove_referenceIS5_E4typeE,comdat
	.align	2
	.weak	_ZSt7forwardIRFvOSt7promiseIiEEEOT_RNSt16remove_referenceIS5_E4typeE
	.type	_ZSt7forwardIRFvOSt7promiseIiEEEOT_RNSt16remove_referenceIS5_E4typeE, %function
_ZSt7forwardIRFvOSt7promiseIiEEEOT_RNSt16remove_referenceIS5_E4typeE:
.LFB4231:
	.cfi_startproc
	sub	sp, sp, #16
	.cfi_def_cfa_offset 16
	str	x0, [sp, 8]
	ldr	x0, [sp, 8]
	add	sp, sp, 16
	.cfi_def_cfa_offset 0
	ret
	.cfi_endproc
.LFE4231:
	.size	_ZSt7forwardIRFvOSt7promiseIiEEEOT_RNSt16remove_referenceIS5_E4typeE, .-_ZSt7forwardIRFvOSt7promiseIiEEEOT_RNSt16remove_referenceIS5_E4typeE
	.section	.text._ZSt7forwardISt7promiseIiEEOT_RNSt16remove_referenceIS2_E4typeE,"axG",@progbits,_ZSt7forwardISt7promiseIiEEOT_RNSt16remove_referenceIS2_E4typeE,comdat
	.align	2
	.weak	_ZSt7forwardISt7promiseIiEEOT_RNSt16remove_referenceIS2_E4typeE
	.type	_ZSt7forwardISt7promiseIiEEOT_RNSt16remove_referenceIS2_E4typeE, %function
_ZSt7forwardISt7promiseIiEEOT_RNSt16remove_referenceIS2_E4typeE:
.LFB4232:
	.cfi_startproc
	sub	sp, sp, #16
	.cfi_def_cfa_offset 16
	str	x0, [sp, 8]
	ldr	x0, [sp, 8]
	add	sp, sp, 16
	.cfi_def_cfa_offset 0
	ret
	.cfi_endproc
.LFE4232:
	.size	_ZSt7forwardISt7promiseIiEEOT_RNSt16remove_referenceIS2_E4typeE, .-_ZSt7forwardISt7promiseIiEEOT_RNSt16remove_referenceIS2_E4typeE
	.section	.text._ZNSt6thread6_StateC2Ev,"axG",@progbits,_ZNSt6thread6_StateC5Ev,comdat
	.align	2
	.weak	_ZNSt6thread6_StateC2Ev
	.type	_ZNSt6thread6_StateC2Ev, %function
_ZNSt6thread6_StateC2Ev:
.LFB4235:
	.cfi_startproc
	sub	sp, sp, #16
	.cfi_def_cfa_offset 16
	str	x0, [sp, 8]
	adrp	x0, :got:_ZTVNSt6thread6_StateE
	ldr	x0, [x0, #:got_lo12:_ZTVNSt6thread6_StateE]
	add	x1, x0, 16
	ldr	x0, [sp, 8]
	str	x1, [x0]
	nop
	add	sp, sp, 16
	.cfi_def_cfa_offset 0
	ret
	.cfi_endproc
.LFE4235:
	.size	_ZNSt6thread6_StateC2Ev, .-_ZNSt6thread6_StateC2Ev
	.weak	_ZNSt6thread6_StateC1Ev
	.set	_ZNSt6thread6_StateC1Ev,_ZNSt6thread6_StateC2Ev
	.section	.text._ZNSt10_Head_baseILm1ESt7promiseIiELb0EED2Ev,"axG",@progbits,_ZNSt10_Head_baseILm1ESt7promiseIiELb0EED5Ev,comdat
	.align	2
	.weak	_ZNSt10_Head_baseILm1ESt7promiseIiELb0EED2Ev
	.type	_ZNSt10_Head_baseILm1ESt7promiseIiELb0EED2Ev, %function
_ZNSt10_Head_baseILm1ESt7promiseIiELb0EED2Ev:
.LFB4247:
	.cfi_startproc
	stp	x29, x30, [sp, -32]!
	.cfi_def_cfa_offset 32
	.cfi_offset 29, -32
	.cfi_offset 30, -24
	mov	x29, sp
	str	x0, [sp, 24]
	ldr	x0, [sp, 24]
	bl	_ZNSt7promiseIiED1Ev
	nop
	ldp	x29, x30, [sp], 32
	.cfi_restore 30
	.cfi_restore 29
	.cfi_def_cfa_offset 0
	ret
	.cfi_endproc
.LFE4247:
	.size	_ZNSt10_Head_baseILm1ESt7promiseIiELb0EED2Ev, .-_ZNSt10_Head_baseILm1ESt7promiseIiELb0EED2Ev
	.weak	_ZNSt10_Head_baseILm1ESt7promiseIiELb0EED1Ev
	.set	_ZNSt10_Head_baseILm1ESt7promiseIiELb0EED1Ev,_ZNSt10_Head_baseILm1ESt7promiseIiELb0EED2Ev
	.section	.text._ZNSt11_Tuple_implILm1EJSt7promiseIiEEED2Ev,"axG",@progbits,_ZNSt11_Tuple_implILm1EJSt7promiseIiEEED5Ev,comdat
	.align	2
	.weak	_ZNSt11_Tuple_implILm1EJSt7promiseIiEEED2Ev
	.type	_ZNSt11_Tuple_implILm1EJSt7promiseIiEEED2Ev, %function
_ZNSt11_Tuple_implILm1EJSt7promiseIiEEED2Ev:
.LFB4249:
	.cfi_startproc
	stp	x29, x30, [sp, -32]!
	.cfi_def_cfa_offset 32
	.cfi_offset 29, -32
	.cfi_offset 30, -24
	mov	x29, sp
	str	x0, [sp, 24]
	ldr	x0, [sp, 24]
	bl	_ZNSt10_Head_baseILm1ESt7promiseIiELb0EED2Ev
	nop
	ldp	x29, x30, [sp], 32
	.cfi_restore 30
	.cfi_restore 29
	.cfi_def_cfa_offset 0
	ret
	.cfi_endproc
.LFE4249:
	.size	_ZNSt11_Tuple_implILm1EJSt7promiseIiEEED2Ev, .-_ZNSt11_Tuple_implILm1EJSt7promiseIiEEED2Ev
	.weak	_ZNSt11_Tuple_implILm1EJSt7promiseIiEEED1Ev
	.set	_ZNSt11_Tuple_implILm1EJSt7promiseIiEEED1Ev,_ZNSt11_Tuple_implILm1EJSt7promiseIiEEED2Ev
	.section	.text._ZNSt11_Tuple_implILm0EJPFvOSt7promiseIiEES1_EED2Ev,"axG",@progbits,_ZNSt11_Tuple_implILm0EJPFvOSt7promiseIiEES1_EED5Ev,comdat
	.align	2
	.weak	_ZNSt11_Tuple_implILm0EJPFvOSt7promiseIiEES1_EED2Ev
	.type	_ZNSt11_Tuple_implILm0EJPFvOSt7promiseIiEES1_EED2Ev, %function
_ZNSt11_Tuple_implILm0EJPFvOSt7promiseIiEES1_EED2Ev:
.LFB4251:
	.cfi_startproc
	stp	x29, x30, [sp, -32]!
	.cfi_def_cfa_offset 32
	.cfi_offset 29, -32
	.cfi_offset 30, -24
	mov	x29, sp
	str	x0, [sp, 24]
	ldr	x0, [sp, 24]
	bl	_ZNSt11_Tuple_implILm1EJSt7promiseIiEEED2Ev
	nop
	ldp	x29, x30, [sp], 32
	.cfi_restore 30
	.cfi_restore 29
	.cfi_def_cfa_offset 0
	ret
	.cfi_endproc
.LFE4251:
	.size	_ZNSt11_Tuple_implILm0EJPFvOSt7promiseIiEES1_EED2Ev, .-_ZNSt11_Tuple_implILm0EJPFvOSt7promiseIiEES1_EED2Ev
	.weak	_ZNSt11_Tuple_implILm0EJPFvOSt7promiseIiEES1_EED1Ev
	.set	_ZNSt11_Tuple_implILm0EJPFvOSt7promiseIiEES1_EED1Ev,_ZNSt11_Tuple_implILm0EJPFvOSt7promiseIiEES1_EED2Ev
	.section	.text._ZNSt5tupleIJPFvOSt7promiseIiEES1_EED2Ev,"axG",@progbits,_ZNSt5tupleIJPFvOSt7promiseIiEES1_EED5Ev,comdat
	.align	2
	.weak	_ZNSt5tupleIJPFvOSt7promiseIiEES1_EED2Ev
	.type	_ZNSt5tupleIJPFvOSt7promiseIiEES1_EED2Ev, %function
_ZNSt5tupleIJPFvOSt7promiseIiEES1_EED2Ev:
.LFB4253:
	.cfi_startproc
	stp	x29, x30, [sp, -32]!
	.cfi_def_cfa_offset 32
	.cfi_offset 29, -32
	.cfi_offset 30, -24
	mov	x29, sp
	str	x0, [sp, 24]
	ldr	x0, [sp, 24]
	bl	_ZNSt11_Tuple_implILm0EJPFvOSt7promiseIiEES1_EED2Ev
	nop
	ldp	x29, x30, [sp], 32
	.cfi_restore 30
	.cfi_restore 29
	.cfi_def_cfa_offset 0
	ret
	.cfi_endproc
.LFE4253:
	.size	_ZNSt5tupleIJPFvOSt7promiseIiEES1_EED2Ev, .-_ZNSt5tupleIJPFvOSt7promiseIiEES1_EED2Ev
	.weak	_ZNSt5tupleIJPFvOSt7promiseIiEES1_EED1Ev
	.set	_ZNSt5tupleIJPFvOSt7promiseIiEES1_EED1Ev,_ZNSt5tupleIJPFvOSt7promiseIiEES1_EED2Ev
	.section	.text._ZNSt5tupleIJPFvOSt7promiseIiEES1_EEC2IRS3_S1_Lb1EEEOT_OT0_,"axG",@progbits,_ZNSt5tupleIJPFvOSt7promiseIiEES1_EEC5IRS3_S1_Lb1EEEOT_OT0_,comdat
	.align	2
	.weak	_ZNSt5tupleIJPFvOSt7promiseIiEES1_EEC2IRS3_S1_Lb1EEEOT_OT0_
	.type	_ZNSt5tupleIJPFvOSt7promiseIiEES1_EEC2IRS3_S1_Lb1EEEOT_OT0_, %function
_ZNSt5tupleIJPFvOSt7promiseIiEES1_EEC2IRS3_S1_Lb1EEEOT_OT0_:
.LFB4256:
	.cfi_startproc
	.cfi_personality 0x9b,DW.ref.__gxx_personality_v0
	.cfi_lsda 0x1b,.LLSDA4256
	stp	x29, x30, [sp, -64]!
	.cfi_def_cfa_offset 64
	.cfi_offset 29, -64
	.cfi_offset 30, -56
	mov	x29, sp
	stp	x19, x20, [sp, 16]
	.cfi_offset 19, -48
	.cfi_offset 20, -40
	str	x0, [sp, 56]
	str	x1, [sp, 48]
	str	x2, [sp, 40]
	ldr	x19, [sp, 56]
	ldr	x0, [sp, 48]
	bl	_ZSt7forwardIRFvOSt7promiseIiEEEOT_RNSt16remove_referenceIS5_E4typeE
	mov	x20, x0
	ldr	x0, [sp, 40]
	bl	_ZSt7forwardISt7promiseIiEEOT_RNSt16remove_referenceIS2_E4typeE
	mov	x2, x0
	mov	x1, x20
	mov	x0, x19
	bl	_ZNSt11_Tuple_implILm0EJPFvOSt7promiseIiEES1_EEC2IRS3_JS1_EvEEOT_DpOT0_
	nop
	ldp	x19, x20, [sp, 16]
	ldp	x29, x30, [sp], 64
	.cfi_restore 30
	.cfi_restore 29
	.cfi_restore 19
	.cfi_restore 20
	.cfi_def_cfa_offset 0
	ret
	.cfi_endproc
.LFE4256:
	.section	.gcc_except_table
.LLSDA4256:
	.byte	0xff
	.byte	0xff
	.byte	0x1
	.uleb128 .LLSDACSE4256-.LLSDACSB4256
.LLSDACSB4256:
.LLSDACSE4256:
	.section	.text._ZNSt5tupleIJPFvOSt7promiseIiEES1_EEC2IRS3_S1_Lb1EEEOT_OT0_,"axG",@progbits,_ZNSt5tupleIJPFvOSt7promiseIiEES1_EEC5IRS3_S1_Lb1EEEOT_OT0_,comdat
	.size	_ZNSt5tupleIJPFvOSt7promiseIiEES1_EEC2IRS3_S1_Lb1EEEOT_OT0_, .-_ZNSt5tupleIJPFvOSt7promiseIiEES1_EEC2IRS3_S1_Lb1EEEOT_OT0_
	.weak	_ZNSt5tupleIJPFvOSt7promiseIiEES1_EEC1IRS3_S1_Lb1EEEOT_OT0_
	.set	_ZNSt5tupleIJPFvOSt7promiseIiEES1_EEC1IRS3_S1_Lb1EEEOT_OT0_,_ZNSt5tupleIJPFvOSt7promiseIiEES1_EEC2IRS3_S1_Lb1EEEOT_OT0_
	.section	.text._ZNSt6thread8_InvokerISt5tupleIJPFvOSt7promiseIiEES3_EEED2Ev,"axG",@progbits,_ZNSt6thread8_InvokerISt5tupleIJPFvOSt7promiseIiEES3_EEED5Ev,comdat
	.align	2
	.weak	_ZNSt6thread8_InvokerISt5tupleIJPFvOSt7promiseIiEES3_EEED2Ev
	.type	_ZNSt6thread8_InvokerISt5tupleIJPFvOSt7promiseIiEES3_EEED2Ev, %function
_ZNSt6thread8_InvokerISt5tupleIJPFvOSt7promiseIiEES3_EEED2Ev:
.LFB4259:
	.cfi_startproc
	stp	x29, x30, [sp, -32]!
	.cfi_def_cfa_offset 32
	.cfi_offset 29, -32
	.cfi_offset 30, -24
	mov	x29, sp
	str	x0, [sp, 24]
	ldr	x0, [sp, 24]
	bl	_ZNSt5tupleIJPFvOSt7promiseIiEES1_EED1Ev
	nop
	ldp	x29, x30, [sp], 32
	.cfi_restore 30
	.cfi_restore 29
	.cfi_def_cfa_offset 0
	ret
	.cfi_endproc
.LFE4259:
	.size	_ZNSt6thread8_InvokerISt5tupleIJPFvOSt7promiseIiEES3_EEED2Ev, .-_ZNSt6thread8_InvokerISt5tupleIJPFvOSt7promiseIiEES3_EEED2Ev
	.weak	_ZNSt6thread8_InvokerISt5tupleIJPFvOSt7promiseIiEES3_EEED1Ev
	.set	_ZNSt6thread8_InvokerISt5tupleIJPFvOSt7promiseIiEES3_EEED1Ev,_ZNSt6thread8_InvokerISt5tupleIJPFvOSt7promiseIiEES3_EEED2Ev
	.section	.text._ZNSt6thread11_State_implINS_8_InvokerISt5tupleIJPFvOSt7promiseIiEES4_EEEEEC2IJRS6_S4_EEEDpOT_,"axG",@progbits,_ZNSt6thread11_State_implINS_8_InvokerISt5tupleIJPFvOSt7promiseIiEES4_EEEEEC5IJRS6_S4_EEEDpOT_,comdat
	.align	2
	.weak	_ZNSt6thread11_State_implINS_8_InvokerISt5tupleIJPFvOSt7promiseIiEES4_EEEEEC2IJRS6_S4_EEEDpOT_
	.type	_ZNSt6thread11_State_implINS_8_InvokerISt5tupleIJPFvOSt7promiseIiEES4_EEEEEC2IJRS6_S4_EEEDpOT_, %function
_ZNSt6thread11_State_implINS_8_InvokerISt5tupleIJPFvOSt7promiseIiEES4_EEEEEC2IJRS6_S4_EEEDpOT_:
.LFB4261:
	.cfi_startproc
	stp	x29, x30, [sp, -64]!
	.cfi_def_cfa_offset 64
	.cfi_offset 29, -64
	.cfi_offset 30, -56
	mov	x29, sp
	stp	x19, x20, [sp, 16]
	.cfi_offset 19, -48
	.cfi_offset 20, -40
	str	x0, [sp, 56]
	str	x1, [sp, 48]
	str	x2, [sp, 40]
	ldr	x0, [sp, 56]
	bl	_ZNSt6thread6_StateC2Ev
	adrp	x0, _ZTVNSt6thread11_State_implINS_8_InvokerISt5tupleIJPFvOSt7promiseIiEES4_EEEEEE+16
	add	x1, x0, :lo12:_ZTVNSt6thread11_State_implINS_8_InvokerISt5tupleIJPFvOSt7promiseIiEES4_EEEEEE+16
	ldr	x0, [sp, 56]
	str	x1, [x0]
	ldr	x0, [sp, 56]
	add	x19, x0, 8
	ldr	x0, [sp, 48]
	bl	_ZSt7forwardIRFvOSt7promiseIiEEEOT_RNSt16remove_referenceIS5_E4typeE
	mov	x20, x0
	ldr	x0, [sp, 40]
	bl	_ZSt7forwardISt7promiseIiEEOT_RNSt16remove_referenceIS2_E4typeE
	mov	x2, x0
	mov	x1, x20
	mov	x0, x19
	bl	_ZNSt5tupleIJPFvOSt7promiseIiEES1_EEC1IRS3_S1_Lb1EEEOT_OT0_
	nop
	ldp	x19, x20, [sp, 16]
	ldp	x29, x30, [sp], 64
	.cfi_restore 30
	.cfi_restore 29
	.cfi_restore 19
	.cfi_restore 20
	.cfi_def_cfa_offset 0
	ret
	.cfi_endproc
.LFE4261:
	.size	_ZNSt6thread11_State_implINS_8_InvokerISt5tupleIJPFvOSt7promiseIiEES4_EEEEEC2IJRS6_S4_EEEDpOT_, .-_ZNSt6thread11_State_implINS_8_InvokerISt5tupleIJPFvOSt7promiseIiEES4_EEEEEC2IJRS6_S4_EEEDpOT_
	.weak	_ZNSt6thread11_State_implINS_8_InvokerISt5tupleIJPFvOSt7promiseIiEES4_EEEEEC1IJRS6_S4_EEEDpOT_
	.set	_ZNSt6thread11_State_implINS_8_InvokerISt5tupleIJPFvOSt7promiseIiEES4_EEEEEC1IJRS6_S4_EEEDpOT_,_ZNSt6thread11_State_implINS_8_InvokerISt5tupleIJPFvOSt7promiseIiEES4_EEEEEC2IJRS6_S4_EEEDpOT_
	.section	.text._ZNSt15__uniq_ptr_dataINSt6thread6_StateESt14default_deleteIS1_ELb1ELb1EECI2St15__uniq_ptr_implIS1_S3_EEPS1_,"axG",@progbits,_ZNSt15__uniq_ptr_dataINSt6thread6_StateESt14default_deleteIS1_ELb1ELb1EECI5St15__uniq_ptr_implIS1_S3_EEPS1_,comdat
	.align	2
	.weak	_ZNSt15__uniq_ptr_dataINSt6thread6_StateESt14default_deleteIS1_ELb1ELb1EECI2St15__uniq_ptr_implIS1_S3_EEPS1_
	.type	_ZNSt15__uniq_ptr_dataINSt6thread6_StateESt14default_deleteIS1_ELb1ELb1EECI2St15__uniq_ptr_implIS1_S3_EEPS1_, %function
_ZNSt15__uniq_ptr_dataINSt6thread6_StateESt14default_deleteIS1_ELb1ELb1EECI2St15__uniq_ptr_implIS1_S3_EEPS1_:
.LFB4265:
	.cfi_startproc
	stp	x29, x30, [sp, -32]!
	.cfi_def_cfa_offset 32
	.cfi_offset 29, -32
	.cfi_offset 30, -24
	mov	x29, sp
	str	x0, [sp, 24]
	str	x1, [sp, 16]
	ldr	x0, [sp, 24]
	ldr	x1, [sp, 16]
	bl	_ZNSt15__uniq_ptr_implINSt6thread6_StateESt14default_deleteIS1_EEC2EPS1_
	nop
	ldp	x29, x30, [sp], 32
	.cfi_restore 30
	.cfi_restore 29
	.cfi_def_cfa_offset 0
	ret
	.cfi_endproc
.LFE4265:
	.size	_ZNSt15__uniq_ptr_dataINSt6thread6_StateESt14default_deleteIS1_ELb1ELb1EECI2St15__uniq_ptr_implIS1_S3_EEPS1_, .-_ZNSt15__uniq_ptr_dataINSt6thread6_StateESt14default_deleteIS1_ELb1ELb1EECI2St15__uniq_ptr_implIS1_S3_EEPS1_
	.weak	_ZNSt15__uniq_ptr_dataINSt6thread6_StateESt14default_deleteIS1_ELb1ELb1EECI1St15__uniq_ptr_implIS1_S3_EEPS1_
	.set	_ZNSt15__uniq_ptr_dataINSt6thread6_StateESt14default_deleteIS1_ELb1ELb1EECI1St15__uniq_ptr_implIS1_S3_EEPS1_,_ZNSt15__uniq_ptr_dataINSt6thread6_StateESt14default_deleteIS1_ELb1ELb1EECI2St15__uniq_ptr_implIS1_S3_EEPS1_
	.section	.text._ZNSt10unique_ptrINSt6thread6_StateESt14default_deleteIS1_EEC2IS3_vEEPS1_,"axG",@progbits,_ZNSt10unique_ptrINSt6thread6_StateESt14default_deleteIS1_EEC5IS3_vEEPS1_,comdat
	.align	2
	.weak	_ZNSt10unique_ptrINSt6thread6_StateESt14default_deleteIS1_EEC2IS3_vEEPS1_
	.type	_ZNSt10unique_ptrINSt6thread6_StateESt14default_deleteIS1_EEC2IS3_vEEPS1_, %function
_ZNSt10unique_ptrINSt6thread6_StateESt14default_deleteIS1_EEC2IS3_vEEPS1_:
.LFB4267:
	.cfi_startproc
	.cfi_personality 0x9b,DW.ref.__gxx_personality_v0
	.cfi_lsda 0x1b,.LLSDA4267
	stp	x29, x30, [sp, -32]!
	.cfi_def_cfa_offset 32
	.cfi_offset 29, -32
	.cfi_offset 30, -24
	mov	x29, sp
	str	x0, [sp, 24]
	str	x1, [sp, 16]
	ldr	x0, [sp, 24]
	ldr	x1, [sp, 16]
	bl	_ZNSt15__uniq_ptr_dataINSt6thread6_StateESt14default_deleteIS1_ELb1ELb1EECI1St15__uniq_ptr_implIS1_S3_EEPS1_
	nop
	ldp	x29, x30, [sp], 32
	.cfi_restore 30
	.cfi_restore 29
	.cfi_def_cfa_offset 0
	ret
	.cfi_endproc
.LFE4267:
	.section	.gcc_except_table
.LLSDA4267:
	.byte	0xff
	.byte	0xff
	.byte	0x1
	.uleb128 .LLSDACSE4267-.LLSDACSB4267
.LLSDACSB4267:
.LLSDACSE4267:
	.section	.text._ZNSt10unique_ptrINSt6thread6_StateESt14default_deleteIS1_EEC2IS3_vEEPS1_,"axG",@progbits,_ZNSt10unique_ptrINSt6thread6_StateESt14default_deleteIS1_EEC5IS3_vEEPS1_,comdat
	.size	_ZNSt10unique_ptrINSt6thread6_StateESt14default_deleteIS1_EEC2IS3_vEEPS1_, .-_ZNSt10unique_ptrINSt6thread6_StateESt14default_deleteIS1_EEC2IS3_vEEPS1_
	.weak	_ZNSt10unique_ptrINSt6thread6_StateESt14default_deleteIS1_EEC1IS3_vEEPS1_
	.set	_ZNSt10unique_ptrINSt6thread6_StateESt14default_deleteIS1_EEC1IS3_vEEPS1_,_ZNSt10unique_ptrINSt6thread6_StateESt14default_deleteIS1_EEC2IS3_vEEPS1_
	.section	.text._ZNSt10unique_ptrINSt6thread6_StateESt14default_deleteIS1_EED2Ev,"axG",@progbits,_ZNSt10unique_ptrINSt6thread6_StateESt14default_deleteIS1_EED5Ev,comdat
	.align	2
	.weak	_ZNSt10unique_ptrINSt6thread6_StateESt14default_deleteIS1_EED2Ev
	.type	_ZNSt10unique_ptrINSt6thread6_StateESt14default_deleteIS1_EED2Ev, %function
_ZNSt10unique_ptrINSt6thread6_StateESt14default_deleteIS1_EED2Ev:
.LFB4270:
	.cfi_startproc
	stp	x29, x30, [sp, -64]!
	.cfi_def_cfa_offset 64
	.cfi_offset 29, -64
	.cfi_offset 30, -56
	mov	x29, sp
	str	x19, [sp, 16]
	.cfi_offset 19, -48
	str	x0, [sp, 40]
	ldr	x0, [sp, 40]
	bl	_ZNSt15__uniq_ptr_implINSt6thread6_StateESt14default_deleteIS1_EE6_M_ptrEv
	str	x0, [sp, 56]
	ldr	x0, [sp, 56]
	ldr	x0, [x0]
	cmp	x0, 0
	beq	.L371
	ldr	x0, [sp, 40]
	bl	_ZNSt10unique_ptrINSt6thread6_StateESt14default_deleteIS1_EE11get_deleterEv
	mov	x19, x0
	ldr	x0, [sp, 56]
	bl	_ZSt4moveIRPNSt6thread6_StateEEONSt16remove_referenceIT_E4typeEOS5_
	ldr	x0, [x0]
	mov	x1, x0
	mov	x0, x19
	bl	_ZNKSt14default_deleteINSt6thread6_StateEEclEPS1_
.L371:
	ldr	x0, [sp, 56]
	str	xzr, [x0]
	nop
	ldr	x19, [sp, 16]
	ldp	x29, x30, [sp], 64
	.cfi_restore 30
	.cfi_restore 29
	.cfi_restore 19
	.cfi_def_cfa_offset 0
	ret
	.cfi_endproc
.LFE4270:
	.size	_ZNSt10unique_ptrINSt6thread6_StateESt14default_deleteIS1_EED2Ev, .-_ZNSt10unique_ptrINSt6thread6_StateESt14default_deleteIS1_EED2Ev
	.weak	_ZNSt10unique_ptrINSt6thread6_StateESt14default_deleteIS1_EED1Ev
	.set	_ZNSt10unique_ptrINSt6thread6_StateESt14default_deleteIS1_EED1Ev,_ZNSt10unique_ptrINSt6thread6_StateESt14default_deleteIS1_EED2Ev
	.section	.text._ZNSt14__basic_futureIiE6_ResetC2ERS0_,"axG",@progbits,_ZNSt14__basic_futureIiE6_ResetC5ERS0_,comdat
	.align	2
	.weak	_ZNSt14__basic_futureIiE6_ResetC2ERS0_
	.type	_ZNSt14__basic_futureIiE6_ResetC2ERS0_, %function
_ZNSt14__basic_futureIiE6_ResetC2ERS0_:
.LFB4273:
	.cfi_startproc
	sub	sp, sp, #16
	.cfi_def_cfa_offset 16
	str	x0, [sp, 8]
	str	x1, [sp]
	ldr	x0, [sp, 8]
	ldr	x1, [sp]
	str	x1, [x0]
	nop
	add	sp, sp, 16
	.cfi_def_cfa_offset 0
	ret
	.cfi_endproc
.LFE4273:
	.size	_ZNSt14__basic_futureIiE6_ResetC2ERS0_, .-_ZNSt14__basic_futureIiE6_ResetC2ERS0_
	.weak	_ZNSt14__basic_futureIiE6_ResetC1ERS0_
	.set	_ZNSt14__basic_futureIiE6_ResetC1ERS0_,_ZNSt14__basic_futureIiE6_ResetC2ERS0_
	.section	.text._ZNSt14__basic_futureIiE6_ResetD2Ev,"axG",@progbits,_ZNSt14__basic_futureIiE6_ResetD5Ev,comdat
	.align	2
	.weak	_ZNSt14__basic_futureIiE6_ResetD2Ev
	.type	_ZNSt14__basic_futureIiE6_ResetD2Ev, %function
_ZNSt14__basic_futureIiE6_ResetD2Ev:
.LFB4276:
	.cfi_startproc
	stp	x29, x30, [sp, -32]!
	.cfi_def_cfa_offset 32
	.cfi_offset 29, -32
	.cfi_offset 30, -24
	mov	x29, sp
	str	x0, [sp, 24]
	ldr	x0, [sp, 24]
	ldr	x0, [x0]
	bl	_ZNSt12__shared_ptrINSt13__future_base13_State_baseV2ELN9__gnu_cxx12_Lock_policyE2EE5resetEv
	nop
	ldp	x29, x30, [sp], 32
	.cfi_restore 30
	.cfi_restore 29
	.cfi_def_cfa_offset 0
	ret
	.cfi_endproc
.LFE4276:
	.size	_ZNSt14__basic_futureIiE6_ResetD2Ev, .-_ZNSt14__basic_futureIiE6_ResetD2Ev
	.weak	_ZNSt14__basic_futureIiE6_ResetD1Ev
	.set	_ZNSt14__basic_futureIiE6_ResetD1Ev,_ZNSt14__basic_futureIiE6_ResetD2Ev
	.section	.text._ZNKSt14__basic_futureIiE13_M_get_resultEv,"axG",@progbits,_ZNKSt14__basic_futureIiE13_M_get_resultEv,comdat
	.align	2
	.weak	_ZNKSt14__basic_futureIiE13_M_get_resultEv
	.type	_ZNKSt14__basic_futureIiE13_M_get_resultEv, %function
_ZNKSt14__basic_futureIiE13_M_get_resultEv:
.LFB4278:
	.cfi_startproc
	.cfi_personality 0x9b,DW.ref.__gxx_personality_v0
	.cfi_lsda 0x1b,.LLSDA4278
	stp	x29, x30, [sp, -80]!
	.cfi_def_cfa_offset 80
	.cfi_offset 29, -80
	.cfi_offset 30, -72
	mov	x29, sp
	str	x19, [sp, 16]
	.cfi_offset 19, -64
	str	x0, [sp, 40]
	adrp	x0, :got:__stack_chk_guard
	ldr	x0, [x0, #:got_lo12:__stack_chk_guard]
	ldr	x1, [x0]
	str	x1, [sp, 72]
	mov	x1, 0
	ldr	x0, [sp, 40]
.LEHB25:
	bl	_ZNSt13__future_base13_State_baseV28_S_checkIS0_EEvRKSt10shared_ptrIT_E
	ldr	x0, [sp, 40]
	bl	_ZNKSt19__shared_ptr_accessINSt13__future_base13_State_baseV2ELN9__gnu_cxx12_Lock_policyE2ELb0ELb0EEptEv
	bl	_ZNSt13__future_base13_State_baseV24waitEv
.LEHE25:
	str	x0, [sp, 64]
	ldr	x0, [sp, 64]
	add	x19, x0, 8
	add	x0, sp, 56
	mov	x1, 0
	bl	_ZNSt15__exception_ptr13exception_ptrC1EDn
	add	x0, sp, 56
	mov	x1, x0
	mov	x0, x19
	bl	_ZNSt15__exception_ptreqERKNS_13exception_ptrES2_
	and	w0, w0, 255
	eor	w0, w0, 1
	and	w19, w0, 255
	add	x0, sp, 56
	bl	_ZNSt15__exception_ptr13exception_ptrD1Ev
	cmp	w19, 0
	beq	.L375
	ldr	x0, [sp, 64]
	add	x1, x0, 8
	add	x0, sp, 56
	bl	_ZNSt15__exception_ptr13exception_ptrC1ERKS0_
	add	x0, sp, 56
.LEHB26:
	bl	_ZSt17rethrow_exceptionNSt15__exception_ptr13exception_ptrE
.LEHE26:
.L375:
	ldr	x0, [sp, 64]
	mov	x1, x0
	adrp	x0, :got:__stack_chk_guard
	ldr	x0, [x0, #:got_lo12:__stack_chk_guard]
	ldr	x3, [sp, 72]
	ldr	x2, [x0]
	subs	x3, x3, x2
	mov	x2, 0
	beq	.L378
	b	.L380
.L379:
	mov	x19, x0
	add	x0, sp, 56
	bl	_ZNSt15__exception_ptr13exception_ptrD1Ev
	mov	x0, x19
.LEHB27:
	bl	_Unwind_Resume
.LEHE27:
.L380:
	bl	__stack_chk_fail
.L378:
	mov	x0, x1
	ldr	x19, [sp, 16]
	ldp	x29, x30, [sp], 80
	.cfi_restore 30
	.cfi_restore 29
	.cfi_restore 19
	.cfi_def_cfa_offset 0
	ret
	.cfi_endproc
.LFE4278:
	.section	.gcc_except_table
.LLSDA4278:
	.byte	0xff
	.byte	0xff
	.byte	0x1
	.uleb128 .LLSDACSE4278-.LLSDACSB4278
.LLSDACSB4278:
	.uleb128 .LEHB25-.LFB4278
	.uleb128 .LEHE25-.LEHB25
	.uleb128 0
	.uleb128 0
	.uleb128 .LEHB26-.LFB4278
	.uleb128 .LEHE26-.LEHB26
	.uleb128 .L379-.LFB4278
	.uleb128 0
	.uleb128 .LEHB27-.LFB4278
	.uleb128 .LEHE27-.LEHB27
	.uleb128 0
	.uleb128 0
.LLSDACSE4278:
	.section	.text._ZNKSt14__basic_futureIiE13_M_get_resultEv,"axG",@progbits,_ZNKSt14__basic_futureIiE13_M_get_resultEv,comdat
	.size	_ZNKSt14__basic_futureIiE13_M_get_resultEv, .-_ZNKSt14__basic_futureIiE13_M_get_resultEv
	.section	.text._ZNSt13__future_base7_ResultIiE8_M_valueEv,"axG",@progbits,_ZNSt13__future_base7_ResultIiE8_M_valueEv,comdat
	.align	2
	.weak	_ZNSt13__future_base7_ResultIiE8_M_valueEv
	.type	_ZNSt13__future_base7_ResultIiE8_M_valueEv, %function
_ZNSt13__future_base7_ResultIiE8_M_valueEv:
.LFB4279:
	.cfi_startproc
	stp	x29, x30, [sp, -32]!
	.cfi_def_cfa_offset 32
	.cfi_offset 29, -32
	.cfi_offset 30, -24
	mov	x29, sp
	str	x0, [sp, 24]
	ldr	x0, [sp, 24]
	add	x0, x0, 16
	bl	_ZN9__gnu_cxx16__aligned_bufferIiE6_M_ptrEv
	ldp	x29, x30, [sp], 32
	.cfi_restore 30
	.cfi_restore 29
	.cfi_def_cfa_offset 0
	ret
	.cfi_endproc
.LFE4279:
	.size	_ZNSt13__future_base7_ResultIiE8_M_valueEv, .-_ZNSt13__future_base7_ResultIiE8_M_valueEv
	.section	.text._ZNSt16_Sp_counted_baseILN9__gnu_cxx12_Lock_policyE2EE10_M_destroyEv,"axG",@progbits,_ZNSt16_Sp_counted_baseILN9__gnu_cxx12_Lock_policyE2EE10_M_destroyEv,comdat
	.align	2
	.weak	_ZNSt16_Sp_counted_baseILN9__gnu_cxx12_Lock_policyE2EE10_M_destroyEv
	.type	_ZNSt16_Sp_counted_baseILN9__gnu_cxx12_Lock_policyE2EE10_M_destroyEv, %function
_ZNSt16_Sp_counted_baseILN9__gnu_cxx12_Lock_policyE2EE10_M_destroyEv:
.LFB4327:
	.cfi_startproc
	stp	x29, x30, [sp, -32]!
	.cfi_def_cfa_offset 32
	.cfi_offset 29, -32
	.cfi_offset 30, -24
	mov	x29, sp
	str	x0, [sp, 24]
	ldr	x0, [sp, 24]
	cmp	x0, 0
	beq	.L385
	ldr	x0, [sp, 24]
	ldr	x0, [x0]
	add	x0, x0, 8
	ldr	x1, [x0]
	ldr	x0, [sp, 24]
	blr	x1
.L385:
	nop
	ldp	x29, x30, [sp], 32
	.cfi_restore 30
	.cfi_restore 29
	.cfi_def_cfa_offset 0
	ret
	.cfi_endproc
.LFE4327:
	.size	_ZNSt16_Sp_counted_baseILN9__gnu_cxx12_Lock_policyE2EE10_M_destroyEv, .-_ZNSt16_Sp_counted_baseILN9__gnu_cxx12_Lock_policyE2EE10_M_destroyEv
	.section	.text._ZNSt11_Tuple_implILm1EJNSt13__future_base12_Result_base8_DeleterEEEC2Ev,"axG",@progbits,_ZNSt11_Tuple_implILm1EJNSt13__future_base12_Result_base8_DeleterEEEC5Ev,comdat
	.align	2
	.weak	_ZNSt11_Tuple_implILm1EJNSt13__future_base12_Result_base8_DeleterEEEC2Ev
	.type	_ZNSt11_Tuple_implILm1EJNSt13__future_base12_Result_base8_DeleterEEEC2Ev, %function
_ZNSt11_Tuple_implILm1EJNSt13__future_base12_Result_base8_DeleterEEEC2Ev:
.LFB4330:
	.cfi_startproc
	stp	x29, x30, [sp, -32]!
	.cfi_def_cfa_offset 32
	.cfi_offset 29, -32
	.cfi_offset 30, -24
	mov	x29, sp
	str	x0, [sp, 24]
	ldr	x0, [sp, 24]
	bl	_ZNSt10_Head_baseILm1ENSt13__future_base12_Result_base8_DeleterELb1EEC2Ev
	nop
	ldp	x29, x30, [sp], 32
	.cfi_restore 30
	.cfi_restore 29
	.cfi_def_cfa_offset 0
	ret
	.cfi_endproc
.LFE4330:
	.size	_ZNSt11_Tuple_implILm1EJNSt13__future_base12_Result_base8_DeleterEEEC2Ev, .-_ZNSt11_Tuple_implILm1EJNSt13__future_base12_Result_base8_DeleterEEEC2Ev
	.weak	_ZNSt11_Tuple_implILm1EJNSt13__future_base12_Result_base8_DeleterEEEC1Ev
	.set	_ZNSt11_Tuple_implILm1EJNSt13__future_base12_Result_base8_DeleterEEEC1Ev,_ZNSt11_Tuple_implILm1EJNSt13__future_base12_Result_base8_DeleterEEEC2Ev
	.section	.text._ZNSt10_Head_baseILm0EPNSt13__future_base12_Result_baseELb0EEC2Ev,"axG",@progbits,_ZNSt10_Head_baseILm0EPNSt13__future_base12_Result_baseELb0EEC5Ev,comdat
	.align	2
	.weak	_ZNSt10_Head_baseILm0EPNSt13__future_base12_Result_baseELb0EEC2Ev
	.type	_ZNSt10_Head_baseILm0EPNSt13__future_base12_Result_baseELb0EEC2Ev, %function
_ZNSt10_Head_baseILm0EPNSt13__future_base12_Result_baseELb0EEC2Ev:
.LFB4333:
	.cfi_startproc
	sub	sp, sp, #16
	.cfi_def_cfa_offset 16
	str	x0, [sp, 8]
	ldr	x0, [sp, 8]
	str	xzr, [x0]
	nop
	add	sp, sp, 16
	.cfi_def_cfa_offset 0
	ret
	.cfi_endproc
.LFE4333:
	.size	_ZNSt10_Head_baseILm0EPNSt13__future_base12_Result_baseELb0EEC2Ev, .-_ZNSt10_Head_baseILm0EPNSt13__future_base12_Result_baseELb0EEC2Ev
	.weak	_ZNSt10_Head_baseILm0EPNSt13__future_base12_Result_baseELb0EEC1Ev
	.set	_ZNSt10_Head_baseILm0EPNSt13__future_base12_Result_baseELb0EEC1Ev,_ZNSt10_Head_baseILm0EPNSt13__future_base12_Result_baseELb0EEC2Ev
	.section	.text._ZSt3getILm0EJPNSt13__future_base12_Result_baseENS1_8_DeleterEEERNSt13tuple_elementIXT_ESt5tupleIJDpT0_EEE4typeERS8_,"axG",@progbits,_ZSt3getILm0EJPNSt13__future_base12_Result_baseENS1_8_DeleterEEERNSt13tuple_elementIXT_ESt5tupleIJDpT0_EEE4typeERS8_,comdat
	.align	2
	.weak	_ZSt3getILm0EJPNSt13__future_base12_Result_baseENS1_8_DeleterEEERNSt13tuple_elementIXT_ESt5tupleIJDpT0_EEE4typeERS8_
	.type	_ZSt3getILm0EJPNSt13__future_base12_Result_baseENS1_8_DeleterEEERNSt13tuple_elementIXT_ESt5tupleIJDpT0_EEE4typeERS8_, %function
_ZSt3getILm0EJPNSt13__future_base12_Result_baseENS1_8_DeleterEEERNSt13tuple_elementIXT_ESt5tupleIJDpT0_EEE4typeERS8_:
.LFB4335:
	.cfi_startproc
	stp	x29, x30, [sp, -32]!
	.cfi_def_cfa_offset 32
	.cfi_offset 29, -32
	.cfi_offset 30, -24
	mov	x29, sp
	str	x0, [sp, 24]
	ldr	x0, [sp, 24]
	bl	_ZSt12__get_helperILm0EPNSt13__future_base12_Result_baseEJNS1_8_DeleterEEERT0_RSt11_Tuple_implIXT_EJS4_DpT1_EE
	ldp	x29, x30, [sp], 32
	.cfi_restore 30
	.cfi_restore 29
	.cfi_def_cfa_offset 0
	ret
	.cfi_endproc
.LFE4335:
	.size	_ZSt3getILm0EJPNSt13__future_base12_Result_baseENS1_8_DeleterEEERNSt13tuple_elementIXT_ESt5tupleIJDpT0_EEE4typeERS8_, .-_ZSt3getILm0EJPNSt13__future_base12_Result_baseENS1_8_DeleterEEERNSt13tuple_elementIXT_ESt5tupleIJDpT0_EEE4typeERS8_
	.section	.text._ZNSt15__uniq_ptr_implINSt13__future_base12_Result_baseENS1_8_DeleterEE10_M_deleterEv,"axG",@progbits,_ZNSt15__uniq_ptr_implINSt13__future_base12_Result_baseENS1_8_DeleterEE10_M_deleterEv,comdat
	.align	2
	.weak	_ZNSt15__uniq_ptr_implINSt13__future_base12_Result_baseENS1_8_DeleterEE10_M_deleterEv
	.type	_ZNSt15__uniq_ptr_implINSt13__future_base12_Result_baseENS1_8_DeleterEE10_M_deleterEv, %function
_ZNSt15__uniq_ptr_implINSt13__future_base12_Result_baseENS1_8_DeleterEE10_M_deleterEv:
.LFB4336:
	.cfi_startproc
	stp	x29, x30, [sp, -32]!
	.cfi_def_cfa_offset 32
	.cfi_offset 29, -32
	.cfi_offset 30, -24
	mov	x29, sp
	str	x0, [sp, 24]
	ldr	x0, [sp, 24]
	bl	_ZSt3getILm1EJPNSt13__future_base12_Result_baseENS1_8_DeleterEEERNSt13tuple_elementIXT_ESt5tupleIJDpT0_EEE4typeERS8_
	ldp	x29, x30, [sp], 32
	.cfi_restore 30
	.cfi_restore 29
	.cfi_def_cfa_offset 0
	ret
	.cfi_endproc
.LFE4336:
	.size	_ZNSt15__uniq_ptr_implINSt13__future_base12_Result_baseENS1_8_DeleterEE10_M_deleterEv, .-_ZNSt15__uniq_ptr_implINSt13__future_base12_Result_baseENS1_8_DeleterEE10_M_deleterEv
	.global	__aarch64_ldset4_acq_rel
	.section	.text._ZNSt23__atomic_futex_unsignedILj2147483648EE22_M_load_and_test_untilEjjbSt12memory_orderbNSt6chrono8durationIlSt5ratioILl1ELl1EEEENS3_IlS4_ILl1ELl1000000000EEEE,"axG",@progbits,_ZNSt23__atomic_futex_unsignedILj2147483648EE22_M_load_and_test_untilEjjbSt12memory_orderbNSt6chrono8durationIlSt5ratioILl1ELl1EEEENS3_IlS4_ILl1ELl1000000000EEEE,comdat
	.align	2
	.weak	_ZNSt23__atomic_futex_unsignedILj2147483648EE22_M_load_and_test_untilEjjbSt12memory_orderbNSt6chrono8durationIlSt5ratioILl1ELl1EEEENS3_IlS4_ILl1ELl1000000000EEEE
	.type	_ZNSt23__atomic_futex_unsignedILj2147483648EE22_M_load_and_test_untilEjjbSt12memory_orderbNSt6chrono8durationIlSt5ratioILl1ELl1EEEENS3_IlS4_ILl1ELl1000000000EEEE, %function
_ZNSt23__atomic_futex_unsignedILj2147483648EE22_M_load_and_test_untilEjjbSt12memory_orderbNSt6chrono8durationIlSt5ratioILl1ELl1EEEENS3_IlS4_ILl1ELl1000000000EEEE:
.LFB4338:
	.cfi_startproc
	stp	x29, x30, [sp, -112]!
	.cfi_def_cfa_offset 112
	.cfi_offset 29, -112
	.cfi_offset 30, -104
	mov	x29, sp
	str	x0, [sp, 56]
	str	w1, [sp, 52]
	str	w2, [sp, 48]
	strb	w3, [sp, 47]
	str	w4, [sp, 40]
	strb	w5, [sp, 46]
	str	x6, [sp, 32]
	str	x7, [sp, 24]
.L399:
	ldr	x0, [sp, 56]
	str	x0, [sp, 104]
	mov	w0, -2147483648
	str	w0, [sp, 80]
	str	wzr, [sp, 84]
	ldr	x1, [sp, 104]
	ldr	w0, [sp, 80]
	bl	__aarch64_ldset4_acq_rel
	nop
	ldr	x1, [sp, 56]
	ldr	w0, [sp, 52]
	orr	w0, w0, -2147483648
	ldr	x5, [sp, 24]
	ldr	x4, [sp, 32]
	ldrb	w3, [sp, 46]
	mov	w2, w0
	ldr	x0, [sp, 56]
	bl	_ZNSt28__atomic_futex_unsigned_base19_M_futex_wait_untilEPjjbNSt6chrono8durationIlSt5ratioILl1ELl1EEEENS2_IlS3_ILl1ELl1000000000EEEE
	and	w0, w0, 255
	strb	w0, [sp, 67]
	ldr	x0, [sp, 56]
	str	x0, [sp, 88]
	ldr	w0, [sp, 40]
	str	w0, [sp, 68]
	ldr	x0, [sp, 88]
	str	x0, [sp, 96]
	ldr	w0, [sp, 68]
	str	w0, [sp, 72]
	mov	w1, 65535
	ldr	w0, [sp, 72]
	bl	_ZStanSt12memory_orderSt23__memory_order_modifier
	str	w0, [sp, 76]
	ldr	x0, [sp, 96]
	ldar	w0, [x0]
	nop
	and	w0, w0, 2147483647
	str	w0, [sp, 52]
	ldrb	w0, [sp, 67]
	eor	w0, w0, 1
	and	w0, w0, 255
	cmp	w0, 0
	bne	.L396
	ldr	w1, [sp, 48]
	ldr	w0, [sp, 52]
	cmp	w1, w0
	cset	w0, eq
	and	w0, w0, 255
	mov	w1, w0
	ldrb	w0, [sp, 47]
	cmp	w1, w0
	bne	.L399
.L396:
	ldr	w0, [sp, 52]
	ldp	x29, x30, [sp], 112
	.cfi_restore 30
	.cfi_restore 29
	.cfi_def_cfa_offset 0
	ret
	.cfi_endproc
.LFE4338:
	.size	_ZNSt23__atomic_futex_unsignedILj2147483648EE22_M_load_and_test_untilEjjbSt12memory_orderbNSt6chrono8durationIlSt5ratioILl1ELl1EEEENS3_IlS4_ILl1ELl1000000000EEEE, .-_ZNSt23__atomic_futex_unsignedILj2147483648EE22_M_load_and_test_untilEjjbSt12memory_orderbNSt6chrono8durationIlSt5ratioILl1ELl1EEEENS3_IlS4_ILl1ELl1000000000EEEE
	.section	.text._ZNKSt15__uniq_ptr_implINSt13__future_base12_Result_baseENS1_8_DeleterEE6_M_ptrEv,"axG",@progbits,_ZNKSt15__uniq_ptr_implINSt13__future_base12_Result_baseENS1_8_DeleterEE6_M_ptrEv,comdat
	.align	2
	.weak	_ZNKSt15__uniq_ptr_implINSt13__future_base12_Result_baseENS1_8_DeleterEE6_M_ptrEv
	.type	_ZNKSt15__uniq_ptr_implINSt13__future_base12_Result_baseENS1_8_DeleterEE6_M_ptrEv, %function
_ZNKSt15__uniq_ptr_implINSt13__future_base12_Result_baseENS1_8_DeleterEE6_M_ptrEv:
.LFB4339:
	.cfi_startproc
	stp	x29, x30, [sp, -32]!
	.cfi_def_cfa_offset 32
	.cfi_offset 29, -32
	.cfi_offset 30, -24
	mov	x29, sp
	str	x0, [sp, 24]
	ldr	x0, [sp, 24]
	bl	_ZSt3getILm0EJPNSt13__future_base12_Result_baseENS1_8_DeleterEEERKNSt13tuple_elementIXT_ESt5tupleIJDpT0_EEE4typeERKS8_
	ldr	x0, [x0]
	ldp	x29, x30, [sp], 32
	.cfi_restore 30
	.cfi_restore 29
	.cfi_def_cfa_offset 0
	ret
	.cfi_endproc
.LFE4339:
	.size	_ZNKSt15__uniq_ptr_implINSt13__future_base12_Result_baseENS1_8_DeleterEE6_M_ptrEv, .-_ZNKSt15__uniq_ptr_implINSt13__future_base12_Result_baseENS1_8_DeleterEE6_M_ptrEv
	.section	.text._ZSt13__invoke_implIvMNSt13__future_base13_State_baseV2EFvPSt8functionIFSt10unique_ptrINS0_12_Result_baseENS4_8_DeleterEEvEEPbEPS1_JS9_SA_EET_St21__invoke_memfun_derefOT0_OT1_DpOT2_,"axG",@progbits,_ZSt13__invoke_implIvMNSt13__future_base13_State_baseV2EFvPSt8functionIFSt10unique_ptrINS0_12_Result_baseENS4_8_DeleterEEvEEPbEPS1_JS9_SA_EET_St21__invoke_memfun_derefOT0_OT1_DpOT2_,comdat
	.align	2
	.weak	_ZSt13__invoke_implIvMNSt13__future_base13_State_baseV2EFvPSt8functionIFSt10unique_ptrINS0_12_Result_baseENS4_8_DeleterEEvEEPbEPS1_JS9_SA_EET_St21__invoke_memfun_derefOT0_OT1_DpOT2_
	.type	_ZSt13__invoke_implIvMNSt13__future_base13_State_baseV2EFvPSt8functionIFSt10unique_ptrINS0_12_Result_baseENS4_8_DeleterEEvEEPbEPS1_JS9_SA_EET_St21__invoke_memfun_derefOT0_OT1_DpOT2_, %function
_ZSt13__invoke_implIvMNSt13__future_base13_State_baseV2EFvPSt8functionIFSt10unique_ptrINS0_12_Result_baseENS4_8_DeleterEEvEEPbEPS1_JS9_SA_EET_St21__invoke_memfun_derefOT0_OT1_DpOT2_:
.LFB4340:
	.cfi_startproc
	stp	x29, x30, [sp, -96]!
	.cfi_def_cfa_offset 96
	.cfi_offset 29, -96
	.cfi_offset 30, -88
	mov	x29, sp
	stp	x19, x20, [sp, 16]
	str	x21, [sp, 32]
	.cfi_offset 19, -80
	.cfi_offset 20, -72
	.cfi_offset 21, -64
	strb	w0, [sp, 88]
	str	x1, [sp, 80]
	str	x2, [sp, 72]
	str	x3, [sp, 64]
	str	x4, [sp, 56]
	ldr	x0, [sp, 72]
	bl	_ZSt7forwardIPNSt13__future_base13_State_baseV2EEOT_RNSt16remove_referenceIS3_E4typeE
	ldr	x0, [x0]
	ldr	x1, [sp, 80]
	ldr	x1, [x1, 8]
	and	x1, x1, 1
	cmp	x1, 0
	bne	.L404
	ldr	x1, [sp, 80]
	ldr	x19, [x1]
	b	.L405
.L404:
	ldr	x1, [sp, 80]
	ldr	x1, [x1, 8]
	asr	x1, x1, 1
	add	x1, x0, x1
	ldr	x1, [x1]
	ldr	x2, [sp, 80]
	ldr	x2, [x2]
	add	x1, x1, x2
	ldr	x19, [x1]
.L405:
	ldr	x1, [sp, 80]
	ldr	x1, [x1, 8]
	asr	x1, x1, 1
	add	x20, x0, x1
	ldr	x0, [sp, 64]
	bl	_ZSt7forwardIPSt8functionIFSt10unique_ptrINSt13__future_base12_Result_baseENS3_8_DeleterEEvEEEOT_RNSt16remove_referenceIS9_E4typeE
	ldr	x21, [x0]
	ldr	x0, [sp, 56]
	bl	_ZSt7forwardIPbEOT_RNSt16remove_referenceIS1_E4typeE
	ldr	x0, [x0]
	mov	x2, x0
	mov	x1, x21
	mov	x0, x20
	blr	x19
	nop
	ldp	x19, x20, [sp, 16]
	ldr	x21, [sp, 32]
	ldp	x29, x30, [sp], 96
	.cfi_restore 30
	.cfi_restore 29
	.cfi_restore 21
	.cfi_restore 19
	.cfi_restore 20
	.cfi_def_cfa_offset 0
	ret
	.cfi_endproc
.LFE4340:
	.size	_ZSt13__invoke_implIvMNSt13__future_base13_State_baseV2EFvPSt8functionIFSt10unique_ptrINS0_12_Result_baseENS4_8_DeleterEEvEEPbEPS1_JS9_SA_EET_St21__invoke_memfun_derefOT0_OT1_DpOT2_, .-_ZSt13__invoke_implIvMNSt13__future_base13_State_baseV2EFvPSt8functionIFSt10unique_ptrINS0_12_Result_baseENS4_8_DeleterEEvEEPbEPS1_JS9_SA_EET_St21__invoke_memfun_derefOT0_OT1_DpOT2_
	.section	.text._ZSt11__addressofIZSt9call_onceIMNSt13__future_base13_State_baseV2EFvPSt8functionIFSt10unique_ptrINS1_12_Result_baseENS5_8_DeleterEEvEEPbEJPS2_SA_SB_EEvRSt9once_flagOT_DpOT0_EUlvE_EPSH_RSH_,"axG",@progbits,_ZSt11__addressofIZSt9call_onceIMNSt13__future_base13_State_baseV2EFvPSt8functionIFSt10unique_ptrINS1_12_Result_baseENS5_8_DeleterEEvEEPbEJPS2_SA_SB_EEvRSt9once_flagOT_DpOT0_EUlvE_EPSH_RSH_,comdat
	.align	2
	.weak	_ZSt11__addressofIZSt9call_onceIMNSt13__future_base13_State_baseV2EFvPSt8functionIFSt10unique_ptrINS1_12_Result_baseENS5_8_DeleterEEvEEPbEJPS2_SA_SB_EEvRSt9once_flagOT_DpOT0_EUlvE_EPSH_RSH_
	.type	_ZSt11__addressofIZSt9call_onceIMNSt13__future_base13_State_baseV2EFvPSt8functionIFSt10unique_ptrINS1_12_Result_baseENS5_8_DeleterEEvEEPbEJPS2_SA_SB_EEvRSt9once_flagOT_DpOT0_EUlvE_EPSH_RSH_, %function
_ZSt11__addressofIZSt9call_onceIMNSt13__future_base13_State_baseV2EFvPSt8functionIFSt10unique_ptrINS1_12_Result_baseENS5_8_DeleterEEvEEPbEJPS2_SA_SB_EEvRSt9once_flagOT_DpOT0_EUlvE_EPSH_RSH_:
.LFB4341:
	.cfi_startproc
	sub	sp, sp, #16
	.cfi_def_cfa_offset 16
	str	x0, [sp, 8]
	ldr	x0, [sp, 8]
	add	sp, sp, 16
	.cfi_def_cfa_offset 0
	ret
	.cfi_endproc
.LFE4341:
	.size	_ZSt11__addressofIZSt9call_onceIMNSt13__future_base13_State_baseV2EFvPSt8functionIFSt10unique_ptrINS1_12_Result_baseENS5_8_DeleterEEvEEPbEJPS2_SA_SB_EEvRSt9once_flagOT_DpOT0_EUlvE_EPSH_RSH_, .-_ZSt11__addressofIZSt9call_onceIMNSt13__future_base13_State_baseV2EFvPSt8functionIFSt10unique_ptrINS1_12_Result_baseENS5_8_DeleterEEvEEPbEJPS2_SA_SB_EEvRSt9once_flagOT_DpOT0_EUlvE_EPSH_RSH_
	.section	.text._ZSt4swapIPNSt13__future_base12_Result_baseEENSt9enable_ifIXsrSt6__and_IJSt6__not_ISt15__is_tuple_likeIT_EESt21is_move_constructibleIS7_ESt18is_move_assignableIS7_EEE5valueEvE4typeERS7_SH_,"axG",@progbits,_ZSt4swapIPNSt13__future_base12_Result_baseEENSt9enable_ifIXsrSt6__and_IJSt6__not_ISt15__is_tuple_likeIT_EESt21is_move_constructibleIS7_ESt18is_move_assignableIS7_EEE5valueEvE4typeERS7_SH_,comdat
	.align	2
	.weak	_ZSt4swapIPNSt13__future_base12_Result_baseEENSt9enable_ifIXsrSt6__and_IJSt6__not_ISt15__is_tuple_likeIT_EESt21is_move_constructibleIS7_ESt18is_move_assignableIS7_EEE5valueEvE4typeERS7_SH_
	.type	_ZSt4swapIPNSt13__future_base12_Result_baseEENSt9enable_ifIXsrSt6__and_IJSt6__not_ISt15__is_tuple_likeIT_EESt21is_move_constructibleIS7_ESt18is_move_assignableIS7_EEE5valueEvE4typeERS7_SH_, %function
_ZSt4swapIPNSt13__future_base12_Result_baseEENSt9enable_ifIXsrSt6__and_IJSt6__not_ISt15__is_tuple_likeIT_EESt21is_move_constructibleIS7_ESt18is_move_assignableIS7_EEE5valueEvE4typeERS7_SH_:
.LFB4348:
	.cfi_startproc
	stp	x29, x30, [sp, -48]!
	.cfi_def_cfa_offset 48
	.cfi_offset 29, -48
	.cfi_offset 30, -40
	mov	x29, sp
	str	x0, [sp, 24]
	str	x1, [sp, 16]
	adrp	x0, :got:__stack_chk_guard
	ldr	x0, [x0, #:got_lo12:__stack_chk_guard]
	ldr	x1, [x0]
	str	x1, [sp, 40]
	mov	x1, 0
	ldr	x0, [sp, 24]
	bl	_ZSt4moveIRPNSt13__future_base12_Result_baseEEONSt16remove_referenceIT_E4typeEOS5_
	ldr	x0, [x0]
	str	x0, [sp, 32]
	ldr	x0, [sp, 16]
	bl	_ZSt4moveIRPNSt13__future_base12_Result_baseEEONSt16remove_referenceIT_E4typeEOS5_
	ldr	x1, [x0]
	ldr	x0, [sp, 24]
	str	x1, [x0]
	add	x0, sp, 32
	bl	_ZSt4moveIRPNSt13__future_base12_Result_baseEEONSt16remove_referenceIT_E4typeEOS5_
	ldr	x1, [x0]
	ldr	x0, [sp, 16]
	str	x1, [x0]
	nop
	adrp	x0, :got:__stack_chk_guard
	ldr	x0, [x0, #:got_lo12:__stack_chk_guard]
	ldr	x2, [sp, 40]
	ldr	x1, [x0]
	subs	x2, x2, x1
	mov	x1, 0
	beq	.L410
	bl	__stack_chk_fail
.L410:
	ldp	x29, x30, [sp], 48
	.cfi_restore 30
	.cfi_restore 29
	.cfi_def_cfa_offset 0
	ret
	.cfi_endproc
.LFE4348:
	.size	_ZSt4swapIPNSt13__future_base12_Result_baseEENSt9enable_ifIXsrSt6__and_IJSt6__not_ISt15__is_tuple_likeIT_EESt21is_move_constructibleIS7_ESt18is_move_assignableIS7_EEE5valueEvE4typeERS7_SH_, .-_ZSt4swapIPNSt13__future_base12_Result_baseEENSt9enable_ifIXsrSt6__and_IJSt6__not_ISt15__is_tuple_likeIT_EESt21is_move_constructibleIS7_ESt18is_move_assignableIS7_EEE5valueEvE4typeERS7_SH_
	.section	.text._ZSt4moveIRNSt13__future_base12_Result_base8_DeleterEEONSt16remove_referenceIT_E4typeEOS5_,"axG",@progbits,_ZSt4moveIRNSt13__future_base12_Result_base8_DeleterEEONSt16remove_referenceIT_E4typeEOS5_,comdat
	.align	2
	.weak	_ZSt4moveIRNSt13__future_base12_Result_base8_DeleterEEONSt16remove_referenceIT_E4typeEOS5_
	.type	_ZSt4moveIRNSt13__future_base12_Result_base8_DeleterEEONSt16remove_referenceIT_E4typeEOS5_, %function
_ZSt4moveIRNSt13__future_base12_Result_base8_DeleterEEONSt16remove_referenceIT_E4typeEOS5_:
.LFB4350:
	.cfi_startproc
	sub	sp, sp, #16
	.cfi_def_cfa_offset 16
	str	x0, [sp, 8]
	ldr	x0, [sp, 8]
	add	sp, sp, 16
	.cfi_def_cfa_offset 0
	ret
	.cfi_endproc
.LFE4350:
	.size	_ZSt4moveIRNSt13__future_base12_Result_base8_DeleterEEONSt16remove_referenceIT_E4typeEOS5_, .-_ZSt4moveIRNSt13__future_base12_Result_base8_DeleterEEONSt16remove_referenceIT_E4typeEOS5_
	.section	.text._ZSt4swapINSt13__future_base12_Result_base8_DeleterEENSt9enable_ifIXsrSt6__and_IJSt6__not_ISt15__is_tuple_likeIT_EESt21is_move_constructibleIS7_ESt18is_move_assignableIS7_EEE5valueEvE4typeERS7_SH_,"axG",@progbits,_ZSt4swapINSt13__future_base12_Result_base8_DeleterEENSt9enable_ifIXsrSt6__and_IJSt6__not_ISt15__is_tuple_likeIT_EESt21is_move_constructibleIS7_ESt18is_move_assignableIS7_EEE5valueEvE4typeERS7_SH_,comdat
	.align	2
	.weak	_ZSt4swapINSt13__future_base12_Result_base8_DeleterEENSt9enable_ifIXsrSt6__and_IJSt6__not_ISt15__is_tuple_likeIT_EESt21is_move_constructibleIS7_ESt18is_move_assignableIS7_EEE5valueEvE4typeERS7_SH_
	.type	_ZSt4swapINSt13__future_base12_Result_base8_DeleterEENSt9enable_ifIXsrSt6__and_IJSt6__not_ISt15__is_tuple_likeIT_EESt21is_move_constructibleIS7_ESt18is_move_assignableIS7_EEE5valueEvE4typeERS7_SH_, %function
_ZSt4swapINSt13__future_base12_Result_base8_DeleterEENSt9enable_ifIXsrSt6__and_IJSt6__not_ISt15__is_tuple_likeIT_EESt21is_move_constructibleIS7_ESt18is_move_assignableIS7_EEE5valueEvE4typeERS7_SH_:
.LFB4349:
	.cfi_startproc
	stp	x29, x30, [sp, -48]!
	.cfi_def_cfa_offset 48
	.cfi_offset 29, -48
	.cfi_offset 30, -40
	mov	x29, sp
	str	x0, [sp, 24]
	str	x1, [sp, 16]
	adrp	x0, :got:__stack_chk_guard
	ldr	x0, [x0, #:got_lo12:__stack_chk_guard]
	ldr	x1, [x0]
	str	x1, [sp, 40]
	mov	x1, 0
	ldr	x0, [sp, 24]
	bl	_ZSt4moveIRNSt13__future_base12_Result_base8_DeleterEEONSt16remove_referenceIT_E4typeEOS5_
	ldr	x0, [sp, 16]
	bl	_ZSt4moveIRNSt13__future_base12_Result_base8_DeleterEEONSt16remove_referenceIT_E4typeEOS5_
	add	x0, sp, 32
	bl	_ZSt4moveIRNSt13__future_base12_Result_base8_DeleterEEONSt16remove_referenceIT_E4typeEOS5_
	nop
	adrp	x0, :got:__stack_chk_guard
	ldr	x0, [x0, #:got_lo12:__stack_chk_guard]
	ldr	x2, [sp, 40]
	ldr	x1, [x0]
	subs	x2, x2, x1
	mov	x1, 0
	beq	.L414
	bl	__stack_chk_fail
.L414:
	ldp	x29, x30, [sp], 48
	.cfi_restore 30
	.cfi_restore 29
	.cfi_def_cfa_offset 0
	ret
	.cfi_endproc
.LFE4349:
	.size	_ZSt4swapINSt13__future_base12_Result_base8_DeleterEENSt9enable_ifIXsrSt6__and_IJSt6__not_ISt15__is_tuple_likeIT_EESt21is_move_constructibleIS7_ESt18is_move_assignableIS7_EEE5valueEvE4typeERS7_SH_, .-_ZSt4swapINSt13__future_base12_Result_base8_DeleterEENSt9enable_ifIXsrSt6__and_IJSt6__not_ISt15__is_tuple_likeIT_EESt21is_move_constructibleIS7_ESt18is_move_assignableIS7_EEE5valueEvE4typeERS7_SH_
	.section	.text._ZNSt16_Sp_counted_baseILN9__gnu_cxx12_Lock_policyE2EE15_M_add_ref_copyEv,"axG",@progbits,_ZNSt16_Sp_counted_baseILN9__gnu_cxx12_Lock_policyE2EE15_M_add_ref_copyEv,comdat
	.align	2
	.weak	_ZNSt16_Sp_counted_baseILN9__gnu_cxx12_Lock_policyE2EE15_M_add_ref_copyEv
	.type	_ZNSt16_Sp_counted_baseILN9__gnu_cxx12_Lock_policyE2EE15_M_add_ref_copyEv, %function
_ZNSt16_Sp_counted_baseILN9__gnu_cxx12_Lock_policyE2EE15_M_add_ref_copyEv:
.LFB4351:
	.cfi_startproc
	stp	x29, x30, [sp, -80]!
	.cfi_def_cfa_offset 80
	.cfi_offset 29, -80
	.cfi_offset 30, -72
	mov	x29, sp
	str	x0, [sp, 24]
	ldr	x0, [sp, 24]
	add	x0, x0, 8
	str	x0, [sp, 56]
	mov	w0, 1
	str	w0, [sp, 44]
	adrp	x0, :got:__libc_single_threaded
	ldr	x0, [x0, #:got_lo12:__libc_single_threaded]
	ldrb	w0, [x0]
	cmp	w0, 0
	cset	w0, ne
	and	w0, w0, 255
	cmp	w0, 0
	beq	.L417
	ldr	x0, [sp, 56]
	str	x0, [sp, 64]
	ldr	w0, [sp, 44]
	str	w0, [sp, 48]
	ldr	x0, [sp, 64]
	ldr	w1, [x0]
	ldr	w0, [sp, 48]
	add	w1, w1, w0
	ldr	x0, [sp, 64]
	str	w1, [x0]
	b	.L418
.L417:
	ldr	x0, [sp, 56]
	str	x0, [sp, 72]
	ldr	w0, [sp, 44]
	str	w0, [sp, 52]
	ldr	w0, [sp, 52]
	ldr	x1, [sp, 72]
	bl	__aarch64_ldadd4_acq_rel
	nop
.L418:
	nop
	nop
	ldp	x29, x30, [sp], 80
	.cfi_restore 30
	.cfi_restore 29
	.cfi_def_cfa_offset 0
	ret
	.cfi_endproc
.LFE4351:
	.size	_ZNSt16_Sp_counted_baseILN9__gnu_cxx12_Lock_policyE2EE15_M_add_ref_copyEv, .-_ZNSt16_Sp_counted_baseILN9__gnu_cxx12_Lock_policyE2EE15_M_add_ref_copyEv
	.section	.text._ZNSt12__shared_ptrINSt13__future_base13_State_baseV2ELN9__gnu_cxx12_Lock_policyE2EEC2Ev,"axG",@progbits,_ZNSt12__shared_ptrINSt13__future_base13_State_baseV2ELN9__gnu_cxx12_Lock_policyE2EEC5Ev,comdat
	.align	2
	.weak	_ZNSt12__shared_ptrINSt13__future_base13_State_baseV2ELN9__gnu_cxx12_Lock_policyE2EEC2Ev
	.type	_ZNSt12__shared_ptrINSt13__future_base13_State_baseV2ELN9__gnu_cxx12_Lock_policyE2EEC2Ev, %function
_ZNSt12__shared_ptrINSt13__future_base13_State_baseV2ELN9__gnu_cxx12_Lock_policyE2EEC2Ev:
.LFB4353:
	.cfi_startproc
	stp	x29, x30, [sp, -32]!
	.cfi_def_cfa_offset 32
	.cfi_offset 29, -32
	.cfi_offset 30, -24
	mov	x29, sp
	str	x0, [sp, 24]
	ldr	x0, [sp, 24]
	str	xzr, [x0]
	ldr	x0, [sp, 24]
	add	x0, x0, 8
	bl	_ZNSt14__shared_countILN9__gnu_cxx12_Lock_policyE2EEC1Ev
	nop
	ldp	x29, x30, [sp], 32
	.cfi_restore 30
	.cfi_restore 29
	.cfi_def_cfa_offset 0
	ret
	.cfi_endproc
.LFE4353:
	.size	_ZNSt12__shared_ptrINSt13__future_base13_State_baseV2ELN9__gnu_cxx12_Lock_policyE2EEC2Ev, .-_ZNSt12__shared_ptrINSt13__future_base13_State_baseV2ELN9__gnu_cxx12_Lock_policyE2EEC2Ev
	.weak	_ZNSt12__shared_ptrINSt13__future_base13_State_baseV2ELN9__gnu_cxx12_Lock_policyE2EEC1Ev
	.set	_ZNSt12__shared_ptrINSt13__future_base13_State_baseV2ELN9__gnu_cxx12_Lock_policyE2EEC1Ev,_ZNSt12__shared_ptrINSt13__future_base13_State_baseV2ELN9__gnu_cxx12_Lock_policyE2EEC2Ev
	.section	.text._ZN9__gnu_cxx13new_allocatorINSt13__future_base13_State_baseV2EEC2Ev,"axG",@progbits,_ZN9__gnu_cxx13new_allocatorINSt13__future_base13_State_baseV2EEC5Ev,comdat
	.align	2
	.weak	_ZN9__gnu_cxx13new_allocatorINSt13__future_base13_State_baseV2EEC2Ev
	.type	_ZN9__gnu_cxx13new_allocatorINSt13__future_base13_State_baseV2EEC2Ev, %function
_ZN9__gnu_cxx13new_allocatorINSt13__future_base13_State_baseV2EEC2Ev:
.LFB4356:
	.cfi_startproc
	sub	sp, sp, #16
	.cfi_def_cfa_offset 16
	str	x0, [sp, 8]
	nop
	add	sp, sp, 16
	.cfi_def_cfa_offset 0
	ret
	.cfi_endproc
.LFE4356:
	.size	_ZN9__gnu_cxx13new_allocatorINSt13__future_base13_State_baseV2EEC2Ev, .-_ZN9__gnu_cxx13new_allocatorINSt13__future_base13_State_baseV2EEC2Ev
	.weak	_ZN9__gnu_cxx13new_allocatorINSt13__future_base13_State_baseV2EEC1Ev
	.set	_ZN9__gnu_cxx13new_allocatorINSt13__future_base13_State_baseV2EEC1Ev,_ZN9__gnu_cxx13new_allocatorINSt13__future_base13_State_baseV2EEC2Ev
	.section	.text._ZN9__gnu_cxx13new_allocatorINSt13__future_base13_State_baseV2EED2Ev,"axG",@progbits,_ZN9__gnu_cxx13new_allocatorINSt13__future_base13_State_baseV2EED5Ev,comdat
	.align	2
	.weak	_ZN9__gnu_cxx13new_allocatorINSt13__future_base13_State_baseV2EED2Ev
	.type	_ZN9__gnu_cxx13new_allocatorINSt13__future_base13_State_baseV2EED2Ev, %function
_ZN9__gnu_cxx13new_allocatorINSt13__future_base13_State_baseV2EED2Ev:
.LFB4359:
	.cfi_startproc
	sub	sp, sp, #16
	.cfi_def_cfa_offset 16
	str	x0, [sp, 8]
	nop
	add	sp, sp, 16
	.cfi_def_cfa_offset 0
	ret
	.cfi_endproc
.LFE4359:
	.size	_ZN9__gnu_cxx13new_allocatorINSt13__future_base13_State_baseV2EED2Ev, .-_ZN9__gnu_cxx13new_allocatorINSt13__future_base13_State_baseV2EED2Ev
	.weak	_ZN9__gnu_cxx13new_allocatorINSt13__future_base13_State_baseV2EED1Ev
	.set	_ZN9__gnu_cxx13new_allocatorINSt13__future_base13_State_baseV2EED1Ev,_ZN9__gnu_cxx13new_allocatorINSt13__future_base13_State_baseV2EED2Ev
	.section	.text._ZNSt10shared_ptrINSt13__future_base13_State_baseV2EEC2ISaIS1_EJEEESt20_Sp_alloc_shared_tagIT_EDpOT0_,"axG",@progbits,_ZNSt10shared_ptrINSt13__future_base13_State_baseV2EEC5ISaIS1_EJEEESt20_Sp_alloc_shared_tagIT_EDpOT0_,comdat
	.align	2
	.weak	_ZNSt10shared_ptrINSt13__future_base13_State_baseV2EEC2ISaIS1_EJEEESt20_Sp_alloc_shared_tagIT_EDpOT0_
	.type	_ZNSt10shared_ptrINSt13__future_base13_State_baseV2EEC2ISaIS1_EJEEESt20_Sp_alloc_shared_tagIT_EDpOT0_, %function
_ZNSt10shared_ptrINSt13__future_base13_State_baseV2EEC2ISaIS1_EJEEESt20_Sp_alloc_shared_tagIT_EDpOT0_:
.LFB4362:
	.cfi_startproc
	stp	x29, x30, [sp, -32]!
	.cfi_def_cfa_offset 32
	.cfi_offset 29, -32
	.cfi_offset 30, -24
	mov	x29, sp
	str	x0, [sp, 24]
	str	x1, [sp, 16]
	ldr	x0, [sp, 24]
	ldr	x1, [sp, 16]
	bl	_ZNSt12__shared_ptrINSt13__future_base13_State_baseV2ELN9__gnu_cxx12_Lock_policyE2EEC2ISaIS1_EJEEESt20_Sp_alloc_shared_tagIT_EDpOT0_
	nop
	ldp	x29, x30, [sp], 32
	.cfi_restore 30
	.cfi_restore 29
	.cfi_def_cfa_offset 0
	ret
	.cfi_endproc
.LFE4362:
	.size	_ZNSt10shared_ptrINSt13__future_base13_State_baseV2EEC2ISaIS1_EJEEESt20_Sp_alloc_shared_tagIT_EDpOT0_, .-_ZNSt10shared_ptrINSt13__future_base13_State_baseV2EEC2ISaIS1_EJEEESt20_Sp_alloc_shared_tagIT_EDpOT0_
	.weak	_ZNSt10shared_ptrINSt13__future_base13_State_baseV2EEC1ISaIS1_EJEEESt20_Sp_alloc_shared_tagIT_EDpOT0_
	.set	_ZNSt10shared_ptrINSt13__future_base13_State_baseV2EEC1ISaIS1_EJEEESt20_Sp_alloc_shared_tagIT_EDpOT0_,_ZNSt10shared_ptrINSt13__future_base13_State_baseV2EEC2ISaIS1_EJEEESt20_Sp_alloc_shared_tagIT_EDpOT0_
	.section	.text._ZNSt14__shared_countILN9__gnu_cxx12_Lock_policyE2EEC2Ev,"axG",@progbits,_ZNSt14__shared_countILN9__gnu_cxx12_Lock_policyE2EEC5Ev,comdat
	.align	2
	.weak	_ZNSt14__shared_countILN9__gnu_cxx12_Lock_policyE2EEC2Ev
	.type	_ZNSt14__shared_countILN9__gnu_cxx12_Lock_policyE2EEC2Ev, %function
_ZNSt14__shared_countILN9__gnu_cxx12_Lock_policyE2EEC2Ev:
.LFB4370:
	.cfi_startproc
	sub	sp, sp, #16
	.cfi_def_cfa_offset 16
	str	x0, [sp, 8]
	ldr	x0, [sp, 8]
	str	xzr, [x0]
	nop
	add	sp, sp, 16
	.cfi_def_cfa_offset 0
	ret
	.cfi_endproc
.LFE4370:
	.size	_ZNSt14__shared_countILN9__gnu_cxx12_Lock_policyE2EEC2Ev, .-_ZNSt14__shared_countILN9__gnu_cxx12_Lock_policyE2EEC2Ev
	.weak	_ZNSt14__shared_countILN9__gnu_cxx12_Lock_policyE2EEC1Ev
	.set	_ZNSt14__shared_countILN9__gnu_cxx12_Lock_policyE2EEC1Ev,_ZNSt14__shared_countILN9__gnu_cxx12_Lock_policyE2EEC2Ev
	.section	.text._ZNKSt14__shared_countILN9__gnu_cxx12_Lock_policyE2EE16_M_get_use_countEv,"axG",@progbits,_ZNKSt14__shared_countILN9__gnu_cxx12_Lock_policyE2EE16_M_get_use_countEv,comdat
	.align	2
	.weak	_ZNKSt14__shared_countILN9__gnu_cxx12_Lock_policyE2EE16_M_get_use_countEv
	.type	_ZNKSt14__shared_countILN9__gnu_cxx12_Lock_policyE2EE16_M_get_use_countEv, %function
_ZNKSt14__shared_countILN9__gnu_cxx12_Lock_policyE2EE16_M_get_use_countEv:
.LFB4372:
	.cfi_startproc
	stp	x29, x30, [sp, -32]!
	.cfi_def_cfa_offset 32
	.cfi_offset 29, -32
	.cfi_offset 30, -24
	mov	x29, sp
	str	x0, [sp, 24]
	ldr	x0, [sp, 24]
	ldr	x0, [x0]
	cmp	x0, 0
	beq	.L425
	ldr	x0, [sp, 24]
	ldr	x0, [x0]
	bl	_ZNKSt16_Sp_counted_baseILN9__gnu_cxx12_Lock_policyE2EE16_M_get_use_countEv
	b	.L427
.L425:
	mov	x0, 0
.L427:
	ldp	x29, x30, [sp], 32
	.cfi_restore 30
	.cfi_restore 29
	.cfi_def_cfa_offset 0
	ret
	.cfi_endproc
.LFE4372:
	.size	_ZNKSt14__shared_countILN9__gnu_cxx12_Lock_policyE2EE16_M_get_use_countEv, .-_ZNKSt14__shared_countILN9__gnu_cxx12_Lock_policyE2EE16_M_get_use_countEv
	.section	.text._ZNKSt12__shared_ptrINSt13__future_base13_State_baseV2ELN9__gnu_cxx12_Lock_policyE2EE3getEv,"axG",@progbits,_ZNKSt12__shared_ptrINSt13__future_base13_State_baseV2ELN9__gnu_cxx12_Lock_policyE2EE3getEv,comdat
	.align	2
	.weak	_ZNKSt12__shared_ptrINSt13__future_base13_State_baseV2ELN9__gnu_cxx12_Lock_policyE2EE3getEv
	.type	_ZNKSt12__shared_ptrINSt13__future_base13_State_baseV2ELN9__gnu_cxx12_Lock_policyE2EE3getEv, %function
_ZNKSt12__shared_ptrINSt13__future_base13_State_baseV2ELN9__gnu_cxx12_Lock_policyE2EE3getEv:
.LFB4373:
	.cfi_startproc
	sub	sp, sp, #16
	.cfi_def_cfa_offset 16
	str	x0, [sp, 8]
	ldr	x0, [sp, 8]
	ldr	x0, [x0]
	add	sp, sp, 16
	.cfi_def_cfa_offset 0
	ret
	.cfi_endproc
.LFE4373:
	.size	_ZNKSt12__shared_ptrINSt13__future_base13_State_baseV2ELN9__gnu_cxx12_Lock_policyE2EE3getEv, .-_ZNKSt12__shared_ptrINSt13__future_base13_State_baseV2ELN9__gnu_cxx12_Lock_policyE2EE3getEv
	.section	.text._ZNSt5tupleIJPNSt13__future_base12_Result_baseENS1_8_DeleterEEEC2IRS2_S3_Lb1EEEOT_OT0_,"axG",@progbits,_ZNSt5tupleIJPNSt13__future_base12_Result_baseENS1_8_DeleterEEEC5IRS2_S3_Lb1EEEOT_OT0_,comdat
	.align	2
	.weak	_ZNSt5tupleIJPNSt13__future_base12_Result_baseENS1_8_DeleterEEEC2IRS2_S3_Lb1EEEOT_OT0_
	.type	_ZNSt5tupleIJPNSt13__future_base12_Result_baseENS1_8_DeleterEEEC2IRS2_S3_Lb1EEEOT_OT0_, %function
_ZNSt5tupleIJPNSt13__future_base12_Result_baseENS1_8_DeleterEEEC2IRS2_S3_Lb1EEEOT_OT0_:
.LFB4376:
	.cfi_startproc
	.cfi_personality 0x9b,DW.ref.__gxx_personality_v0
	.cfi_lsda 0x1b,.LLSDA4376
	stp	x29, x30, [sp, -64]!
	.cfi_def_cfa_offset 64
	.cfi_offset 29, -64
	.cfi_offset 30, -56
	mov	x29, sp
	stp	x19, x20, [sp, 16]
	.cfi_offset 19, -48
	.cfi_offset 20, -40
	str	x0, [sp, 56]
	str	x1, [sp, 48]
	str	x2, [sp, 40]
	ldr	x19, [sp, 56]
	ldr	x0, [sp, 48]
	bl	_ZSt7forwardIRPNSt13__future_base12_Result_baseEEOT_RNSt16remove_referenceIS4_E4typeE
	mov	x20, x0
	ldr	x0, [sp, 40]
	bl	_ZSt7forwardINSt13__future_base12_Result_base8_DeleterEEOT_RNSt16remove_referenceIS3_E4typeE
	mov	x2, x0
	mov	x1, x20
	mov	x0, x19
	bl	_ZNSt11_Tuple_implILm0EJPNSt13__future_base12_Result_baseENS1_8_DeleterEEEC2IRS2_JS3_EvEEOT_DpOT0_
	nop
	ldp	x19, x20, [sp, 16]
	ldp	x29, x30, [sp], 64
	.cfi_restore 30
	.cfi_restore 29
	.cfi_restore 19
	.cfi_restore 20
	.cfi_def_cfa_offset 0
	ret
	.cfi_endproc
.LFE4376:
	.section	.gcc_except_table
.LLSDA4376:
	.byte	0xff
	.byte	0xff
	.byte	0x1
	.uleb128 .LLSDACSE4376-.LLSDACSB4376
.LLSDACSB4376:
.LLSDACSE4376:
	.section	.text._ZNSt5tupleIJPNSt13__future_base12_Result_baseENS1_8_DeleterEEEC2IRS2_S3_Lb1EEEOT_OT0_,"axG",@progbits,_ZNSt5tupleIJPNSt13__future_base12_Result_baseENS1_8_DeleterEEEC5IRS2_S3_Lb1EEEOT_OT0_,comdat
	.size	_ZNSt5tupleIJPNSt13__future_base12_Result_baseENS1_8_DeleterEEEC2IRS2_S3_Lb1EEEOT_OT0_, .-_ZNSt5tupleIJPNSt13__future_base12_Result_baseENS1_8_DeleterEEEC2IRS2_S3_Lb1EEEOT_OT0_
	.weak	_ZNSt5tupleIJPNSt13__future_base12_Result_baseENS1_8_DeleterEEEC1IRS2_S3_Lb1EEEOT_OT0_
	.set	_ZNSt5tupleIJPNSt13__future_base12_Result_baseENS1_8_DeleterEEEC1IRS2_S3_Lb1EEEOT_OT0_,_ZNSt5tupleIJPNSt13__future_base12_Result_baseENS1_8_DeleterEEEC2IRS2_S3_Lb1EEEOT_OT0_
	.section	.text._ZNSt9_Any_data9_M_accessIPKSt9type_infoEERT_v,"axG",@progbits,_ZNSt9_Any_data9_M_accessIPKSt9type_infoEERT_v,comdat
	.align	2
	.weak	_ZNSt9_Any_data9_M_accessIPKSt9type_infoEERT_v
	.type	_ZNSt9_Any_data9_M_accessIPKSt9type_infoEERT_v, %function
_ZNSt9_Any_data9_M_accessIPKSt9type_infoEERT_v:
.LFB4382:
	.cfi_startproc
	stp	x29, x30, [sp, -32]!
	.cfi_def_cfa_offset 32
	.cfi_offset 29, -32
	.cfi_offset 30, -24
	mov	x29, sp
	str	x0, [sp, 24]
	ldr	x0, [sp, 24]
	bl	_ZNSt9_Any_data9_M_accessEv
	ldp	x29, x30, [sp], 32
	.cfi_restore 30
	.cfi_restore 29
	.cfi_def_cfa_offset 0
	ret
	.cfi_endproc
.LFE4382:
	.size	_ZNSt9_Any_data9_M_accessIPKSt9type_infoEERT_v, .-_ZNSt9_Any_data9_M_accessIPKSt9type_infoEERT_v
	.section	.text._ZNSt14_Function_base13_Base_managerINSt13__future_base13_State_baseV27_SetterIiOiEEE21_M_not_empty_functionIS5_EEbRKT_,"axG",@progbits,_ZNSt14_Function_base13_Base_managerINSt13__future_base13_State_baseV27_SetterIiOiEEE21_M_not_empty_functionIS5_EEbRKT_,comdat
	.align	2
	.weak	_ZNSt14_Function_base13_Base_managerINSt13__future_base13_State_baseV27_SetterIiOiEEE21_M_not_empty_functionIS5_EEbRKT_
	.type	_ZNSt14_Function_base13_Base_managerINSt13__future_base13_State_baseV27_SetterIiOiEEE21_M_not_empty_functionIS5_EEbRKT_, %function
_ZNSt14_Function_base13_Base_managerINSt13__future_base13_State_baseV27_SetterIiOiEEE21_M_not_empty_functionIS5_EEbRKT_:
.LFB4395:
	.cfi_startproc
	sub	sp, sp, #16
	.cfi_def_cfa_offset 16
	str	x0, [sp, 8]
	mov	w0, 1
	add	sp, sp, 16
	.cfi_def_cfa_offset 0
	ret
	.cfi_endproc
.LFE4395:
	.size	_ZNSt14_Function_base13_Base_managerINSt13__future_base13_State_baseV27_SetterIiOiEEE21_M_not_empty_functionIS5_EEbRKT_, .-_ZNSt14_Function_base13_Base_managerINSt13__future_base13_State_baseV27_SetterIiOiEEE21_M_not_empty_functionIS5_EEbRKT_
	.section	.text._ZSt7forwardINSt13__future_base13_State_baseV27_SetterIiOiEEEOT_RNSt16remove_referenceIS5_E4typeE,"axG",@progbits,_ZSt7forwardINSt13__future_base13_State_baseV27_SetterIiOiEEEOT_RNSt16remove_referenceIS5_E4typeE,comdat
	.align	2
	.weak	_ZSt7forwardINSt13__future_base13_State_baseV27_SetterIiOiEEEOT_RNSt16remove_referenceIS5_E4typeE
	.type	_ZSt7forwardINSt13__future_base13_State_baseV27_SetterIiOiEEEOT_RNSt16remove_referenceIS5_E4typeE, %function
_ZSt7forwardINSt13__future_base13_State_baseV27_SetterIiOiEEEOT_RNSt16remove_referenceIS5_E4typeE:
.LFB4396:
	.cfi_startproc
	sub	sp, sp, #16
	.cfi_def_cfa_offset 16
	str	x0, [sp, 8]
	ldr	x0, [sp, 8]
	add	sp, sp, 16
	.cfi_def_cfa_offset 0
	ret
	.cfi_endproc
.LFE4396:
	.size	_ZSt7forwardINSt13__future_base13_State_baseV27_SetterIiOiEEEOT_RNSt16remove_referenceIS5_E4typeE, .-_ZSt7forwardINSt13__future_base13_State_baseV27_SetterIiOiEEEOT_RNSt16remove_referenceIS5_E4typeE
	.section	.text._ZNSt14_Function_base13_Base_managerINSt13__future_base13_State_baseV27_SetterIiOiEEE15_M_init_functorIS5_EEvRSt9_Any_dataOT_,"axG",@progbits,_ZNSt14_Function_base13_Base_managerINSt13__future_base13_State_baseV27_SetterIiOiEEE15_M_init_functorIS5_EEvRSt9_Any_dataOT_,comdat
	.align	2
	.weak	_ZNSt14_Function_base13_Base_managerINSt13__future_base13_State_baseV27_SetterIiOiEEE15_M_init_functorIS5_EEvRSt9_Any_dataOT_
	.type	_ZNSt14_Function_base13_Base_managerINSt13__future_base13_State_baseV27_SetterIiOiEEE15_M_init_functorIS5_EEvRSt9_Any_dataOT_, %function
_ZNSt14_Function_base13_Base_managerINSt13__future_base13_State_baseV27_SetterIiOiEEE15_M_init_functorIS5_EEvRSt9_Any_dataOT_:
.LFB4397:
	.cfi_startproc
	stp	x29, x30, [sp, -48]!
	.cfi_def_cfa_offset 48
	.cfi_offset 29, -48
	.cfi_offset 30, -40
	mov	x29, sp
	str	x19, [sp, 16]
	.cfi_offset 19, -32
	str	x0, [sp, 40]
	str	x1, [sp, 32]
	ldr	x0, [sp, 32]
	bl	_ZSt7forwardINSt13__future_base13_State_baseV27_SetterIiOiEEEOT_RNSt16remove_referenceIS5_E4typeE
	mov	w2, w19
	mov	x1, x0
	ldr	x0, [sp, 40]
	bl	_ZNSt14_Function_base13_Base_managerINSt13__future_base13_State_baseV27_SetterIiOiEEE9_M_createIS5_EEvRSt9_Any_dataOT_St17integral_constantIbLb1EE
	nop
	ldr	x19, [sp, 16]
	ldp	x29, x30, [sp], 48
	.cfi_restore 30
	.cfi_restore 29
	.cfi_restore 19
	.cfi_def_cfa_offset 0
	ret
	.cfi_endproc
.LFE4397:
	.size	_ZNSt14_Function_base13_Base_managerINSt13__future_base13_State_baseV27_SetterIiOiEEE15_M_init_functorIS5_EEvRSt9_Any_dataOT_, .-_ZNSt14_Function_base13_Base_managerINSt13__future_base13_State_baseV27_SetterIiOiEEE15_M_init_functorIS5_EEvRSt9_Any_dataOT_
	.section	.text._ZNSt17_Function_handlerIFSt10unique_ptrINSt13__future_base12_Result_baseENS2_8_DeleterEEvENS1_13_State_baseV27_SetterIiOiEEE9_M_invokeERKSt9_Any_data,"axG",@progbits,_ZNSt17_Function_handlerIFSt10unique_ptrINSt13__future_base12_Result_baseENS2_8_DeleterEEvENS1_13_State_baseV27_SetterIiOiEEE9_M_invokeERKSt9_Any_data,comdat
	.align	2
	.weak	_ZNSt17_Function_handlerIFSt10unique_ptrINSt13__future_base12_Result_baseENS2_8_DeleterEEvENS1_13_State_baseV27_SetterIiOiEEE9_M_invokeERKSt9_Any_data
	.type	_ZNSt17_Function_handlerIFSt10unique_ptrINSt13__future_base12_Result_baseENS2_8_DeleterEEvENS1_13_State_baseV27_SetterIiOiEEE9_M_invokeERKSt9_Any_data, %function
_ZNSt17_Function_handlerIFSt10unique_ptrINSt13__future_base12_Result_baseENS2_8_DeleterEEvENS1_13_State_baseV27_SetterIiOiEEE9_M_invokeERKSt9_Any_data:
.LFB4398:
	.cfi_startproc
	stp	x29, x30, [sp, -64]!
	.cfi_def_cfa_offset 64
	.cfi_offset 29, -64
	.cfi_offset 30, -56
	mov	x29, sp
	str	x19, [sp, 16]
	.cfi_offset 19, -48
	mov	x19, x8
	str	x0, [sp, 40]
	adrp	x0, :got:__stack_chk_guard
	ldr	x0, [x0, #:got_lo12:__stack_chk_guard]
	ldr	x1, [x0]
	str	x1, [sp, 56]
	mov	x1, 0
	ldr	x0, [sp, 40]
	bl	_ZNSt14_Function_base13_Base_managerINSt13__future_base13_State_baseV27_SetterIiOiEEE14_M_get_pointerERKSt9_Any_data
	mov	x8, x19
